ARM GAS  /tmp/ccvPPVYB.s 			page 1


   1              		.cpu cortex-m0
   2              		.eabi_attribute 20, 1
   3              		.eabi_attribute 21, 1
   4              		.eabi_attribute 23, 3
   5              		.eabi_attribute 24, 1
   6              		.eabi_attribute 25, 1
   7              		.eabi_attribute 26, 1
   8              		.eabi_attribute 30, 6
   9              		.eabi_attribute 34, 0
  10              		.eabi_attribute 18, 4
  11              		.file	"ch.cpp"
  12              		.text
  13              	.Ltext0:
  14              		.cfi_sections	.debug_frame
  15              		.section	.text._ZL9port_lockv,"ax",%progbits
  16              		.align	1
  17              		.p2align 4,,15
  18              		.syntax unified
  19              		.code	16
  20              		.thumb_func
  21              		.fpu softvfp
  22              		.type	_ZL9port_lockv, %function
  23              	_ZL9port_lockv:
  24              	.LFB38:
  25              		.file 1 "ChibiOS/os/rt/ports/ARMCMx/chcore_v6m.h"
  26              		.loc 1 330 0
  27              		.cfi_startproc
  28              		@ args = 0, pretend = 0, frame = 0
  29              		@ frame_needed = 0, uses_anonymous_args = 0
  30              		@ link register save eliminated.
  31              	.LBB6:
  32              	.LBB7:
  33              		.file 2 "ChibiOS/os/ext/CMSIS/include/core_cmFunc.h"
  34              		.loc 2 344 0
  35              		.syntax divided
  36              	@ 344 "ChibiOS/os/ext/CMSIS/include/core_cmFunc.h" 1
  37 0000 72B6     		cpsid i
  38              	@ 0 "" 2
  39              		.thumb
  40              		.syntax unified
  41              	.LBE7:
  42              	.LBE6:
  43              		.loc 1 333 0
  44 0002 C046     		nop
  45              		@ sp needed
  46 0004 7047     		bx	lr
  47              		.cfi_endproc
  48              	.LFE38:
  49              		.size	_ZL9port_lockv, .-_ZL9port_lockv
  50 0006 C046     		.section	.text._ZL11port_unlockv,"ax",%progbits
  51              		.align	1
  52              		.p2align 4,,15
  53              		.syntax unified
  54              		.code	16
  55              		.thumb_func
  56              		.fpu softvfp
  57              		.type	_ZL11port_unlockv, %function
ARM GAS  /tmp/ccvPPVYB.s 			page 2


  58              	_ZL11port_unlockv:
  59              	.LFB39:
  60              		.loc 1 339 0
  61              		.cfi_startproc
  62              		@ args = 0, pretend = 0, frame = 0
  63              		@ frame_needed = 0, uses_anonymous_args = 0
  64              		@ link register save eliminated.
  65              	.LBB8:
  66              	.LBB9:
  67              		.loc 2 333 0
  68              		.syntax divided
  69              	@ 333 "ChibiOS/os/ext/CMSIS/include/core_cmFunc.h" 1
  70 0000 62B6     		cpsie i
  71              	@ 0 "" 2
  72              		.thumb
  73              		.syntax unified
  74              	.LBE9:
  75              	.LBE8:
  76              		.loc 1 342 0
  77 0002 C046     		nop
  78              		@ sp needed
  79 0004 7047     		bx	lr
  80              		.cfi_endproc
  81              	.LFE39:
  82              		.size	_ZL11port_unlockv, .-_ZL11port_unlockv
  83 0006 C046     		.section	.text._ZL9chSysLockv,"ax",%progbits
  84              		.align	1
  85              		.p2align 4,,15
  86              		.syntax unified
  87              		.code	16
  88              		.thumb_func
  89              		.fpu softvfp
  90              		.type	_ZL9chSysLockv, %function
  91              	_ZL9chSysLockv:
  92              	.LFB77:
  93              		.file 3 "ChibiOS/os/rt/include/chsys.h"
  94              		.loc 3 346 0
  95              		.cfi_startproc
  96              		@ args = 0, pretend = 0, frame = 0
  97              		@ frame_needed = 0, uses_anonymous_args = 0
  98 0000 10B5     		push	{r4, lr}
  99              		.cfi_def_cfa_offset 8
 100              		.cfi_offset 4, -8
 101              		.cfi_offset 14, -4
 102              		.loc 3 348 0
 103 0002 FFF7FEFF 		bl	_ZL9port_lockv
 104              		.loc 3 350 0
 105 0006 FFF7FEFF 		bl	_dbg_check_lock
 106              		.loc 3 351 0
 107 000a C046     		nop
 108              		@ sp needed
 109 000c 10BD     		pop	{r4, pc}
 110              		.cfi_endproc
 111              	.LFE77:
 112              		.size	_ZL9chSysLockv, .-_ZL9chSysLockv
 113 000e C046     		.section	.text._ZL11chSysUnlockv,"ax",%progbits
 114              		.align	1
ARM GAS  /tmp/ccvPPVYB.s 			page 3


 115              		.p2align 4,,15
 116              		.syntax unified
 117              		.code	16
 118              		.thumb_func
 119              		.fpu softvfp
 120              		.type	_ZL11chSysUnlockv, %function
 121              	_ZL11chSysUnlockv:
 122              	.LFB78:
 123              		.loc 3 358 0
 124              		.cfi_startproc
 125              		@ args = 0, pretend = 0, frame = 0
 126              		@ frame_needed = 0, uses_anonymous_args = 0
 127 0000 10B5     		push	{r4, lr}
 128              		.cfi_def_cfa_offset 8
 129              		.cfi_offset 4, -8
 130              		.cfi_offset 14, -4
 131              		.loc 3 360 0
 132 0002 FFF7FEFF 		bl	_dbg_check_unlock
 133              		.loc 3 367 0
 134 0006 0A4B     		ldr	r3, .L6
 135 0008 1A68     		ldr	r2, [r3]
 136 000a 094B     		ldr	r3, .L6
 137 000c 9A42     		cmp	r2, r3
 138 000e 0BD0     		beq	.L5
 139              		.loc 3 367 0 is_stmt 0 discriminator 1
 140 0010 074B     		ldr	r3, .L6
 141 0012 9B69     		ldr	r3, [r3, #24]
 142 0014 9A68     		ldr	r2, [r3, #8]
 143 0016 064B     		ldr	r3, .L6
 144 0018 1B68     		ldr	r3, [r3]
 145 001a 9B68     		ldr	r3, [r3, #8]
 146 001c 9A42     		cmp	r2, r3
 147 001e 03D2     		bcs	.L5
 148              		.loc 3 367 0 discriminator 2
 149 0020 044B     		ldr	r3, .L6+4
 150 0022 1800     		movs	r0, r3
 151 0024 FFF7FEFF 		bl	chSysHalt
 152              	.L5:
 153              		.loc 3 371 0 is_stmt 1
 154 0028 FFF7FEFF 		bl	_ZL11port_unlockv
 155              		.loc 3 372 0
 156 002c C046     		nop
 157              		@ sp needed
 158 002e 10BD     		pop	{r4, pc}
 159              	.L7:
 160              		.align	2
 161              	.L6:
 162 0030 00000000 		.word	ch
 163 0034 00000000 		.word	_ZZL11chSysUnlockvE8__func__
 164              		.cfi_endproc
 165              	.LFE78:
 166              		.size	_ZL11chSysUnlockv, .-_ZL11chSysUnlockv
 167              		.section	.text._ZL13chThdGetSelfXv,"ax",%progbits
 168              		.align	1
 169              		.p2align 4,,15
 170              		.syntax unified
 171              		.code	16
ARM GAS  /tmp/ccvPPVYB.s 			page 4


 172              		.thumb_func
 173              		.fpu softvfp
 174              		.type	_ZL13chThdGetSelfXv, %function
 175              	_ZL13chThdGetSelfXv:
 176              	.LFB99:
 177              		.file 4 "ChibiOS/os/rt/include/chthreads.h"
 178              		.loc 4 174 0
 179              		.cfi_startproc
 180              		@ args = 0, pretend = 0, frame = 0
 181              		@ frame_needed = 0, uses_anonymous_args = 0
 182              		@ link register save eliminated.
 183              		.loc 4 176 0
 184 0000 014B     		ldr	r3, .L10
 185 0002 9B69     		ldr	r3, [r3, #24]
 186              		.loc 4 177 0
 187 0004 1800     		movs	r0, r3
 188              		@ sp needed
 189 0006 7047     		bx	lr
 190              	.L11:
 191              		.align	2
 192              	.L10:
 193 0008 00000000 		.word	ch
 194              		.cfi_endproc
 195              	.LFE99:
 196              		.size	_ZL13chThdGetSelfXv, .-_ZL13chThdGetSelfXv
 197              		.section	.text._ZL21chThdShouldTerminateXv,"ax",%progbits
 198              		.align	1
 199              		.p2align 4,,15
 200              		.syntax unified
 201              		.code	16
 202              		.thumb_func
 203              		.fpu softvfp
 204              		.type	_ZL21chThdShouldTerminateXv, %function
 205              	_ZL21chThdShouldTerminateXv:
 206              	.LFB102:
 207              		.loc 4 231 0
 208              		.cfi_startproc
 209              		@ args = 0, pretend = 0, frame = 0
 210              		@ frame_needed = 0, uses_anonymous_args = 0
 211 0000 10B5     		push	{r4, lr}
 212              		.cfi_def_cfa_offset 8
 213              		.cfi_offset 4, -8
 214              		.cfi_offset 14, -4
 215              		.loc 4 233 0
 216 0002 FFF7FEFF 		bl	_ZL13chThdGetSelfXv
 217 0006 0200     		movs	r2, r0
 218 0008 2123     		movs	r3, #33
 219 000a D35C     		ldrb	r3, [r2, r3]
 220 000c 1A00     		movs	r2, r3
 221 000e 0423     		movs	r3, #4
 222 0010 1340     		ands	r3, r2
 223 0012 5A1E     		subs	r2, r3, #1
 224 0014 9341     		sbcs	r3, r3, r2
 225 0016 DBB2     		uxtb	r3, r3
 226              		.loc 4 234 0
 227 0018 1800     		movs	r0, r3
 228              		@ sp needed
ARM GAS  /tmp/ccvPPVYB.s 			page 5


 229 001a 10BD     		pop	{r4, pc}
 230              		.cfi_endproc
 231              	.LFE102:
 232              		.size	_ZL21chThdShouldTerminateXv, .-_ZL21chThdShouldTerminateXv
 233              		.section	.text._ZL18chRegSetThreadNamePKc,"ax",%progbits
 234              		.align	1
 235              		.p2align 4,,15
 236              		.syntax unified
 237              		.code	16
 238              		.thumb_func
 239              		.fpu softvfp
 240              		.type	_ZL18chRegSetThreadNamePKc, %function
 241              	_ZL18chRegSetThreadNamePKc:
 242              	.LFB108:
 243              		.file 5 "ChibiOS/os/rt/include/chregistry.h"
 244              		.loc 5 132 0
 245              		.cfi_startproc
 246              		@ args = 0, pretend = 0, frame = 8
 247              		@ frame_needed = 0, uses_anonymous_args = 0
 248              		@ link register save eliminated.
 249 0000 82B0     		sub	sp, sp, #8
 250              		.cfi_def_cfa_offset 8
 251 0002 0190     		str	r0, [sp, #4]
 252              		.loc 5 135 0
 253 0004 034B     		ldr	r3, .L15
 254 0006 9B69     		ldr	r3, [r3, #24]
 255 0008 019A     		ldr	r2, [sp, #4]
 256 000a 9A61     		str	r2, [r3, #24]
 257              		.loc 5 139 0
 258 000c C046     		nop
 259 000e 02B0     		add	sp, sp, #8
 260              		@ sp needed
 261 0010 7047     		bx	lr
 262              	.L16:
 263 0012 C046     		.align	2
 264              	.L15:
 265 0014 00000000 		.word	ch
 266              		.cfi_endproc
 267              	.LFE108:
 268              		.size	_ZL18chRegSetThreadNamePKc, .-_ZL18chRegSetThreadNamePKc
 269              		.section	.text._ZL16chSemGetCounterIP12ch_semaphore,"ax",%progbits
 270              		.align	1
 271              		.p2align 4,,15
 272              		.syntax unified
 273              		.code	16
 274              		.thumb_func
 275              		.fpu softvfp
 276              		.type	_ZL16chSemGetCounterIP12ch_semaphore, %function
 277              	_ZL16chSemGetCounterIP12ch_semaphore:
 278              	.LFB113:
 279              		.file 6 "ChibiOS/os/rt/include/chsem.h"
 280              		.loc 6 149 0
 281              		.cfi_startproc
 282              		@ args = 0, pretend = 0, frame = 8
 283              		@ frame_needed = 0, uses_anonymous_args = 0
 284 0000 00B5     		push	{lr}
 285              		.cfi_def_cfa_offset 4
ARM GAS  /tmp/ccvPPVYB.s 			page 6


 286              		.cfi_offset 14, -4
 287 0002 83B0     		sub	sp, sp, #12
 288              		.cfi_def_cfa_offset 16
 289 0004 0190     		str	r0, [sp, #4]
 290              		.loc 6 151 0
 291 0006 FFF7FEFF 		bl	chDbgCheckClassI
 292              		.loc 6 153 0
 293 000a 019B     		ldr	r3, [sp, #4]
 294 000c 9B68     		ldr	r3, [r3, #8]
 295              		.loc 6 154 0
 296 000e 1800     		movs	r0, r3
 297 0010 03B0     		add	sp, sp, #12
 298              		@ sp needed
 299 0012 00BD     		pop	{pc}
 300              		.cfi_endproc
 301              	.LFE113:
 302              		.size	_ZL16chSemGetCounterIP12ch_semaphore, .-_ZL16chSemGetCounterIP12ch_semaphore
 303              		.section	.text._ZL16chBSemObjectInitP18binary_semaphore_tb,"ax",%progbits
 304              		.align	1
 305              		.p2align 4,,15
 306              		.syntax unified
 307              		.code	16
 308              		.thumb_func
 309              		.fpu softvfp
 310              		.type	_ZL16chBSemObjectInitP18binary_semaphore_tb, %function
 311              	_ZL16chBSemObjectInitP18binary_semaphore_tb:
 312              	.LFB114:
 313              		.file 7 "ChibiOS/os/rt/include/chbsem.h"
 314              		.loc 7 124 0
 315              		.cfi_startproc
 316              		@ args = 0, pretend = 0, frame = 8
 317              		@ frame_needed = 0, uses_anonymous_args = 0
 318 0000 00B5     		push	{lr}
 319              		.cfi_def_cfa_offset 4
 320              		.cfi_offset 14, -4
 321 0002 83B0     		sub	sp, sp, #12
 322              		.cfi_def_cfa_offset 16
 323 0004 0190     		str	r0, [sp, #4]
 324 0006 0A00     		movs	r2, r1
 325 0008 6B46     		mov	r3, sp
 326 000a 0333     		adds	r3, r3, #3
 327 000c 1A70     		strb	r2, [r3]
 328              		.loc 7 126 0
 329 000e 019A     		ldr	r2, [sp, #4]
 330 0010 6B46     		mov	r3, sp
 331 0012 0333     		adds	r3, r3, #3
 332 0014 1B78     		ldrb	r3, [r3]
 333 0016 002B     		cmp	r3, #0
 334 0018 01D0     		beq	.L20
 335              		.loc 7 126 0 is_stmt 0 discriminator 1
 336 001a 0023     		movs	r3, #0
 337 001c 00E0     		b	.L21
 338              	.L20:
 339              		.loc 7 126 0 discriminator 2
 340 001e 0123     		movs	r3, #1
 341              	.L21:
 342              		.loc 7 126 0 discriminator 4
ARM GAS  /tmp/ccvPPVYB.s 			page 7


 343 0020 1900     		movs	r1, r3
 344 0022 1000     		movs	r0, r2
 345 0024 FFF7FEFF 		bl	chSemObjectInit
 346              		.loc 7 127 0 is_stmt 1 discriminator 4
 347 0028 C046     		nop
 348 002a 03B0     		add	sp, sp, #12
 349              		@ sp needed
 350 002c 00BD     		pop	{pc}
 351              		.cfi_endproc
 352              	.LFE114:
 353              		.size	_ZL16chBSemObjectInitP18binary_semaphore_tb, .-_ZL16chBSemObjectInitP18binary_semaphore_tb
 354 002e C046     		.section	.text._ZL10chBSemWaitP18binary_semaphore_t,"ax",%progbits
 355              		.align	1
 356              		.p2align 4,,15
 357              		.syntax unified
 358              		.code	16
 359              		.thumb_func
 360              		.fpu softvfp
 361              		.type	_ZL10chBSemWaitP18binary_semaphore_t, %function
 362              	_ZL10chBSemWaitP18binary_semaphore_t:
 363              	.LFB115:
 364              		.loc 7 141 0
 365              		.cfi_startproc
 366              		@ args = 0, pretend = 0, frame = 8
 367              		@ frame_needed = 0, uses_anonymous_args = 0
 368 0000 00B5     		push	{lr}
 369              		.cfi_def_cfa_offset 4
 370              		.cfi_offset 14, -4
 371 0002 83B0     		sub	sp, sp, #12
 372              		.cfi_def_cfa_offset 16
 373 0004 0190     		str	r0, [sp, #4]
 374              		.loc 7 143 0
 375 0006 019B     		ldr	r3, [sp, #4]
 376 0008 1800     		movs	r0, r3
 377 000a FFF7FEFF 		bl	chSemWait
 378 000e 0300     		movs	r3, r0
 379              		.loc 7 144 0
 380 0010 1800     		movs	r0, r3
 381 0012 03B0     		add	sp, sp, #12
 382              		@ sp needed
 383 0014 00BD     		pop	{pc}
 384              		.cfi_endproc
 385              	.LFE115:
 386              		.size	_ZL10chBSemWaitP18binary_semaphore_t, .-_ZL10chBSemWaitP18binary_semaphore_t
 387 0016 C046     		.section	.text._ZL11chBSemWaitSP18binary_semaphore_t,"ax",%progbits
 388              		.align	1
 389              		.p2align 4,,15
 390              		.syntax unified
 391              		.code	16
 392              		.thumb_func
 393              		.fpu softvfp
 394              		.type	_ZL11chBSemWaitSP18binary_semaphore_t, %function
 395              	_ZL11chBSemWaitSP18binary_semaphore_t:
 396              	.LFB116:
 397              		.loc 7 158 0
 398              		.cfi_startproc
 399              		@ args = 0, pretend = 0, frame = 8
ARM GAS  /tmp/ccvPPVYB.s 			page 8


 400              		@ frame_needed = 0, uses_anonymous_args = 0
 401 0000 00B5     		push	{lr}
 402              		.cfi_def_cfa_offset 4
 403              		.cfi_offset 14, -4
 404 0002 83B0     		sub	sp, sp, #12
 405              		.cfi_def_cfa_offset 16
 406 0004 0190     		str	r0, [sp, #4]
 407              		.loc 7 160 0
 408 0006 FFF7FEFF 		bl	chDbgCheckClassS
 409              		.loc 7 162 0
 410 000a 019B     		ldr	r3, [sp, #4]
 411 000c 1800     		movs	r0, r3
 412 000e FFF7FEFF 		bl	chSemWaitS
 413 0012 0300     		movs	r3, r0
 414              		.loc 7 163 0
 415 0014 1800     		movs	r0, r3
 416 0016 03B0     		add	sp, sp, #12
 417              		@ sp needed
 418 0018 00BD     		pop	{pc}
 419              		.cfi_endproc
 420              	.LFE116:
 421              		.size	_ZL11chBSemWaitSP18binary_semaphore_t, .-_ZL11chBSemWaitSP18binary_semaphore_t
 422 001a C046     		.section	.text._ZL18chBSemWaitTimeoutSP18binary_semaphore_tt,"ax",%progbits
 423              		.align	1
 424              		.p2align 4,,15
 425              		.syntax unified
 426              		.code	16
 427              		.thumb_func
 428              		.fpu softvfp
 429              		.type	_ZL18chBSemWaitTimeoutSP18binary_semaphore_tt, %function
 430              	_ZL18chBSemWaitTimeoutSP18binary_semaphore_tt:
 431              	.LFB117:
 432              		.loc 7 185 0
 433              		.cfi_startproc
 434              		@ args = 0, pretend = 0, frame = 8
 435              		@ frame_needed = 0, uses_anonymous_args = 0
 436 0000 00B5     		push	{lr}
 437              		.cfi_def_cfa_offset 4
 438              		.cfi_offset 14, -4
 439 0002 83B0     		sub	sp, sp, #12
 440              		.cfi_def_cfa_offset 16
 441 0004 0190     		str	r0, [sp, #4]
 442 0006 0A00     		movs	r2, r1
 443 0008 6B46     		mov	r3, sp
 444 000a 0233     		adds	r3, r3, #2
 445 000c 1A80     		strh	r2, [r3]
 446              		.loc 7 187 0
 447 000e FFF7FEFF 		bl	chDbgCheckClassS
 448              		.loc 7 189 0
 449 0012 019A     		ldr	r2, [sp, #4]
 450 0014 6B46     		mov	r3, sp
 451 0016 0233     		adds	r3, r3, #2
 452 0018 1B88     		ldrh	r3, [r3]
 453 001a 1900     		movs	r1, r3
 454 001c 1000     		movs	r0, r2
 455 001e FFF7FEFF 		bl	chSemWaitTimeoutS
 456 0022 0300     		movs	r3, r0
ARM GAS  /tmp/ccvPPVYB.s 			page 9


 457              		.loc 7 190 0
 458 0024 1800     		movs	r0, r3
 459 0026 03B0     		add	sp, sp, #12
 460              		@ sp needed
 461 0028 00BD     		pop	{pc}
 462              		.cfi_endproc
 463              	.LFE117:
 464              		.size	_ZL18chBSemWaitTimeoutSP18binary_semaphore_tt, .-_ZL18chBSemWaitTimeoutSP18binary_semaphore_
 465 002a C046     		.section	.text._ZL17chBSemWaitTimeoutP18binary_semaphore_tt,"ax",%progbits
 466              		.align	1
 467              		.p2align 4,,15
 468              		.syntax unified
 469              		.code	16
 470              		.thumb_func
 471              		.fpu softvfp
 472              		.type	_ZL17chBSemWaitTimeoutP18binary_semaphore_tt, %function
 473              	_ZL17chBSemWaitTimeoutP18binary_semaphore_tt:
 474              	.LFB118:
 475              		.loc 7 212 0
 476              		.cfi_startproc
 477              		@ args = 0, pretend = 0, frame = 8
 478              		@ frame_needed = 0, uses_anonymous_args = 0
 479 0000 00B5     		push	{lr}
 480              		.cfi_def_cfa_offset 4
 481              		.cfi_offset 14, -4
 482 0002 83B0     		sub	sp, sp, #12
 483              		.cfi_def_cfa_offset 16
 484 0004 0190     		str	r0, [sp, #4]
 485 0006 0A00     		movs	r2, r1
 486 0008 6B46     		mov	r3, sp
 487 000a 0233     		adds	r3, r3, #2
 488 000c 1A80     		strh	r2, [r3]
 489              		.loc 7 214 0
 490 000e 019A     		ldr	r2, [sp, #4]
 491 0010 6B46     		mov	r3, sp
 492 0012 0233     		adds	r3, r3, #2
 493 0014 1B88     		ldrh	r3, [r3]
 494 0016 1900     		movs	r1, r3
 495 0018 1000     		movs	r0, r2
 496 001a FFF7FEFF 		bl	chSemWaitTimeout
 497 001e 0300     		movs	r3, r0
 498              		.loc 7 215 0
 499 0020 1800     		movs	r0, r3
 500 0022 03B0     		add	sp, sp, #12
 501              		@ sp needed
 502 0024 00BD     		pop	{pc}
 503              		.cfi_endproc
 504              	.LFE118:
 505              		.size	_ZL17chBSemWaitTimeoutP18binary_semaphore_tt, .-_ZL17chBSemWaitTimeoutP18binary_semaphore_tt
 506 0026 C046     		.section	.text._ZL12chBSemResetIP18binary_semaphore_tb,"ax",%progbits
 507              		.align	1
 508              		.p2align 4,,15
 509              		.syntax unified
 510              		.code	16
 511              		.thumb_func
 512              		.fpu softvfp
 513              		.type	_ZL12chBSemResetIP18binary_semaphore_tb, %function
ARM GAS  /tmp/ccvPPVYB.s 			page 10


 514              	_ZL12chBSemResetIP18binary_semaphore_tb:
 515              	.LFB119:
 516              		.loc 7 232 0
 517              		.cfi_startproc
 518              		@ args = 0, pretend = 0, frame = 8
 519              		@ frame_needed = 0, uses_anonymous_args = 0
 520 0000 00B5     		push	{lr}
 521              		.cfi_def_cfa_offset 4
 522              		.cfi_offset 14, -4
 523 0002 83B0     		sub	sp, sp, #12
 524              		.cfi_def_cfa_offset 16
 525 0004 0190     		str	r0, [sp, #4]
 526 0006 0A00     		movs	r2, r1
 527 0008 6B46     		mov	r3, sp
 528 000a 0333     		adds	r3, r3, #3
 529 000c 1A70     		strb	r2, [r3]
 530              		.loc 7 234 0
 531 000e FFF7FEFF 		bl	chDbgCheckClassI
 532              		.loc 7 236 0
 533 0012 019A     		ldr	r2, [sp, #4]
 534 0014 6B46     		mov	r3, sp
 535 0016 0333     		adds	r3, r3, #3
 536 0018 1B78     		ldrb	r3, [r3]
 537 001a 002B     		cmp	r3, #0
 538 001c 01D0     		beq	.L31
 539              		.loc 7 236 0 is_stmt 0 discriminator 1
 540 001e 0023     		movs	r3, #0
 541 0020 00E0     		b	.L32
 542              	.L31:
 543              		.loc 7 236 0 discriminator 2
 544 0022 0123     		movs	r3, #1
 545              	.L32:
 546              		.loc 7 236 0 discriminator 4
 547 0024 1900     		movs	r1, r3
 548 0026 1000     		movs	r0, r2
 549 0028 FFF7FEFF 		bl	chSemResetI
 550              		.loc 7 237 0 is_stmt 1 discriminator 4
 551 002c C046     		nop
 552 002e 03B0     		add	sp, sp, #12
 553              		@ sp needed
 554 0030 00BD     		pop	{pc}
 555              		.cfi_endproc
 556              	.LFE119:
 557              		.size	_ZL12chBSemResetIP18binary_semaphore_tb, .-_ZL12chBSemResetIP18binary_semaphore_tb
 558 0032 C046     		.section	.text._ZL11chBSemResetP18binary_semaphore_tb,"ax",%progbits
 559              		.align	1
 560              		.p2align 4,,15
 561              		.syntax unified
 562              		.code	16
 563              		.thumb_func
 564              		.fpu softvfp
 565              		.type	_ZL11chBSemResetP18binary_semaphore_tb, %function
 566              	_ZL11chBSemResetP18binary_semaphore_tb:
 567              	.LFB120:
 568              		.loc 7 253 0
 569              		.cfi_startproc
 570              		@ args = 0, pretend = 0, frame = 8
ARM GAS  /tmp/ccvPPVYB.s 			page 11


 571              		@ frame_needed = 0, uses_anonymous_args = 0
 572 0000 00B5     		push	{lr}
 573              		.cfi_def_cfa_offset 4
 574              		.cfi_offset 14, -4
 575 0002 83B0     		sub	sp, sp, #12
 576              		.cfi_def_cfa_offset 16
 577 0004 0190     		str	r0, [sp, #4]
 578 0006 0A00     		movs	r2, r1
 579 0008 6B46     		mov	r3, sp
 580 000a 0333     		adds	r3, r3, #3
 581 000c 1A70     		strb	r2, [r3]
 582              		.loc 7 255 0
 583 000e 019A     		ldr	r2, [sp, #4]
 584 0010 6B46     		mov	r3, sp
 585 0012 0333     		adds	r3, r3, #3
 586 0014 1B78     		ldrb	r3, [r3]
 587 0016 002B     		cmp	r3, #0
 588 0018 01D0     		beq	.L34
 589              		.loc 7 255 0 is_stmt 0 discriminator 1
 590 001a 0023     		movs	r3, #0
 591 001c 00E0     		b	.L35
 592              	.L34:
 593              		.loc 7 255 0 discriminator 2
 594 001e 0123     		movs	r3, #1
 595              	.L35:
 596              		.loc 7 255 0 discriminator 4
 597 0020 1900     		movs	r1, r3
 598 0022 1000     		movs	r0, r2
 599 0024 FFF7FEFF 		bl	chSemReset
 600              		.loc 7 256 0 is_stmt 1 discriminator 4
 601 0028 C046     		nop
 602 002a 03B0     		add	sp, sp, #12
 603              		@ sp needed
 604 002c 00BD     		pop	{pc}
 605              		.cfi_endproc
 606              	.LFE120:
 607              		.size	_ZL11chBSemResetP18binary_semaphore_tb, .-_ZL11chBSemResetP18binary_semaphore_tb
 608 002e C046     		.section	.text._ZL13chBSemSignalIP18binary_semaphore_t,"ax",%progbits
 609              		.align	1
 610              		.p2align 4,,15
 611              		.syntax unified
 612              		.code	16
 613              		.thumb_func
 614              		.fpu softvfp
 615              		.type	_ZL13chBSemSignalIP18binary_semaphore_t, %function
 616              	_ZL13chBSemSignalIP18binary_semaphore_t:
 617              	.LFB121:
 618              		.loc 7 266 0
 619              		.cfi_startproc
 620              		@ args = 0, pretend = 0, frame = 8
 621              		@ frame_needed = 0, uses_anonymous_args = 0
 622 0000 00B5     		push	{lr}
 623              		.cfi_def_cfa_offset 4
 624              		.cfi_offset 14, -4
 625 0002 83B0     		sub	sp, sp, #12
 626              		.cfi_def_cfa_offset 16
 627 0004 0190     		str	r0, [sp, #4]
ARM GAS  /tmp/ccvPPVYB.s 			page 12


 628              		.loc 7 268 0
 629 0006 FFF7FEFF 		bl	chDbgCheckClassI
 630              		.loc 7 270 0
 631 000a 019B     		ldr	r3, [sp, #4]
 632 000c 9B68     		ldr	r3, [r3, #8]
 633 000e 002B     		cmp	r3, #0
 634 0010 03DC     		bgt	.L38
 635              		.loc 7 271 0
 636 0012 019B     		ldr	r3, [sp, #4]
 637 0014 1800     		movs	r0, r3
 638 0016 FFF7FEFF 		bl	chSemSignalI
 639              	.L38:
 640              		.loc 7 273 0
 641 001a C046     		nop
 642 001c 03B0     		add	sp, sp, #12
 643              		@ sp needed
 644 001e 00BD     		pop	{pc}
 645              		.cfi_endproc
 646              	.LFE121:
 647              		.size	_ZL13chBSemSignalIP18binary_semaphore_t, .-_ZL13chBSemSignalIP18binary_semaphore_t
 648              		.section	.text._ZL12chBSemSignalP18binary_semaphore_t,"ax",%progbits
 649              		.align	1
 650              		.p2align 4,,15
 651              		.syntax unified
 652              		.code	16
 653              		.thumb_func
 654              		.fpu softvfp
 655              		.type	_ZL12chBSemSignalP18binary_semaphore_t, %function
 656              	_ZL12chBSemSignalP18binary_semaphore_t:
 657              	.LFB122:
 658              		.loc 7 282 0
 659              		.cfi_startproc
 660              		@ args = 0, pretend = 0, frame = 8
 661              		@ frame_needed = 0, uses_anonymous_args = 0
 662 0000 00B5     		push	{lr}
 663              		.cfi_def_cfa_offset 4
 664              		.cfi_offset 14, -4
 665 0002 83B0     		sub	sp, sp, #12
 666              		.cfi_def_cfa_offset 16
 667 0004 0190     		str	r0, [sp, #4]
 668              		.loc 7 284 0
 669 0006 FFF7FEFF 		bl	_ZL9chSysLockv
 670              		.loc 7 285 0
 671 000a 019B     		ldr	r3, [sp, #4]
 672 000c 1800     		movs	r0, r3
 673 000e FFF7FEFF 		bl	_ZL13chBSemSignalIP18binary_semaphore_t
 674              		.loc 7 286 0
 675 0012 FFF7FEFF 		bl	chSchRescheduleS
 676              		.loc 7 287 0
 677 0016 FFF7FEFF 		bl	_ZL11chSysUnlockv
 678              		.loc 7 288 0
 679 001a C046     		nop
 680 001c 03B0     		add	sp, sp, #12
 681              		@ sp needed
 682 001e 00BD     		pop	{pc}
 683              		.cfi_endproc
 684              	.LFE122:
ARM GAS  /tmp/ccvPPVYB.s 			page 13


 685              		.size	_ZL12chBSemSignalP18binary_semaphore_t, .-_ZL12chBSemSignalP18binary_semaphore_t
 686              		.section	.text._ZL15chBSemGetStateIP18binary_semaphore_t,"ax",%progbits
 687              		.align	1
 688              		.p2align 4,,15
 689              		.syntax unified
 690              		.code	16
 691              		.thumb_func
 692              		.fpu softvfp
 693              		.type	_ZL15chBSemGetStateIP18binary_semaphore_t, %function
 694              	_ZL15chBSemGetStateIP18binary_semaphore_t:
 695              	.LFB123:
 696              		.loc 7 300 0
 697              		.cfi_startproc
 698              		@ args = 0, pretend = 0, frame = 8
 699              		@ frame_needed = 0, uses_anonymous_args = 0
 700 0000 00B5     		push	{lr}
 701              		.cfi_def_cfa_offset 4
 702              		.cfi_offset 14, -4
 703 0002 83B0     		sub	sp, sp, #12
 704              		.cfi_def_cfa_offset 16
 705 0004 0190     		str	r0, [sp, #4]
 706              		.loc 7 302 0
 707 0006 FFF7FEFF 		bl	chDbgCheckClassI
 708              		.loc 7 304 0
 709 000a 019B     		ldr	r3, [sp, #4]
 710 000c 9B68     		ldr	r3, [r3, #8]
 711 000e 5A1E     		subs	r2, r3, #1
 712 0010 1343     		orrs	r3, r2
 713 0012 DB0F     		lsrs	r3, r3, #31
 714 0014 DBB2     		uxtb	r3, r3
 715              		.loc 7 305 0
 716 0016 1800     		movs	r0, r3
 717 0018 03B0     		add	sp, sp, #12
 718              		@ sp needed
 719 001a 00BD     		pop	{pc}
 720              		.cfi_endproc
 721              	.LFE123:
 722              		.size	_ZL15chBSemGetStateIP18binary_semaphore_t, .-_ZL15chBSemGetStateIP18binary_semaphore_t
 723              		.section	.text._ZL15chEvtObjectInitP12event_source,"ax",%progbits
 724              		.align	1
 725              		.p2align 4,,15
 726              		.syntax unified
 727              		.code	16
 728              		.thumb_func
 729              		.fpu softvfp
 730              		.type	_ZL15chEvtObjectInitP12event_source, %function
 731              	_ZL15chEvtObjectInitP12event_source:
 732              	.LFB126:
 733              		.file 8 "ChibiOS/os/rt/include/chevents.h"
 734              		.loc 8 170 0
 735              		.cfi_startproc
 736              		@ args = 0, pretend = 0, frame = 8
 737              		@ frame_needed = 0, uses_anonymous_args = 0
 738              		@ link register save eliminated.
 739 0000 82B0     		sub	sp, sp, #8
 740              		.cfi_def_cfa_offset 8
 741 0002 0190     		str	r0, [sp, #4]
ARM GAS  /tmp/ccvPPVYB.s 			page 14


 742              		.loc 8 172 0
 743 0004 019B     		ldr	r3, [sp, #4]
 744 0006 019A     		ldr	r2, [sp, #4]
 745 0008 1A60     		str	r2, [r3]
 746              		.loc 8 173 0
 747 000a C046     		nop
 748 000c 02B0     		add	sp, sp, #8
 749              		@ sp needed
 750 000e 7047     		bx	lr
 751              		.cfi_endproc
 752              	.LFE126:
 753              		.size	_ZL15chEvtObjectInitP12event_source, .-_ZL15chEvtObjectInitP12event_source
 754              		.section	.text._ZL17chEvtRegisterMaskP12event_sourceP14event_listenerm,"ax",%progbits
 755              		.align	1
 756              		.p2align 4,,15
 757              		.syntax unified
 758              		.code	16
 759              		.thumb_func
 760              		.fpu softvfp
 761              		.type	_ZL17chEvtRegisterMaskP12event_sourceP14event_listenerm, %function
 762              	_ZL17chEvtRegisterMaskP12event_sourceP14event_listenerm:
 763              	.LFB127:
 764              		.loc 8 191 0
 765              		.cfi_startproc
 766              		@ args = 0, pretend = 0, frame = 16
 767              		@ frame_needed = 0, uses_anonymous_args = 0
 768 0000 00B5     		push	{lr}
 769              		.cfi_def_cfa_offset 4
 770              		.cfi_offset 14, -4
 771 0002 85B0     		sub	sp, sp, #20
 772              		.cfi_def_cfa_offset 24
 773 0004 0390     		str	r0, [sp, #12]
 774 0006 0291     		str	r1, [sp, #8]
 775 0008 0192     		str	r2, [sp, #4]
 776              		.loc 8 193 0
 777 000a 0123     		movs	r3, #1
 778 000c 5B42     		rsbs	r3, r3, #0
 779 000e 019A     		ldr	r2, [sp, #4]
 780 0010 0299     		ldr	r1, [sp, #8]
 781 0012 0398     		ldr	r0, [sp, #12]
 782 0014 FFF7FEFF 		bl	chEvtRegisterMaskWithFlags
 783              		.loc 8 194 0
 784 0018 C046     		nop
 785 001a 05B0     		add	sp, sp, #20
 786              		@ sp needed
 787 001c 00BD     		pop	{pc}
 788              		.cfi_endproc
 789              	.LFE127:
 790              		.size	_ZL17chEvtRegisterMaskP12event_sourceP14event_listenerm, .-_ZL17chEvtRegisterMaskP12event_so
 791 001e C046     		.section	.text._ZL13chEvtRegisterP12event_sourceP14event_listenerl,"ax",%progbits
 792              		.align	1
 793              		.p2align 4,,15
 794              		.syntax unified
 795              		.code	16
 796              		.thumb_func
 797              		.fpu softvfp
 798              		.type	_ZL13chEvtRegisterP12event_sourceP14event_listenerl, %function
ARM GAS  /tmp/ccvPPVYB.s 			page 15


 799              	_ZL13chEvtRegisterP12event_sourceP14event_listenerl:
 800              	.LFB128:
 801              		.loc 8 211 0
 802              		.cfi_startproc
 803              		@ args = 0, pretend = 0, frame = 16
 804              		@ frame_needed = 0, uses_anonymous_args = 0
 805 0000 00B5     		push	{lr}
 806              		.cfi_def_cfa_offset 4
 807              		.cfi_offset 14, -4
 808 0002 85B0     		sub	sp, sp, #20
 809              		.cfi_def_cfa_offset 24
 810 0004 0390     		str	r0, [sp, #12]
 811 0006 0291     		str	r1, [sp, #8]
 812 0008 0192     		str	r2, [sp, #4]
 813              		.loc 8 213 0
 814 000a 019B     		ldr	r3, [sp, #4]
 815 000c 1A00     		movs	r2, r3
 816 000e 0123     		movs	r3, #1
 817 0010 9340     		lsls	r3, r3, r2
 818 0012 1A00     		movs	r2, r3
 819 0014 0299     		ldr	r1, [sp, #8]
 820 0016 039B     		ldr	r3, [sp, #12]
 821 0018 1800     		movs	r0, r3
 822 001a FFF7FEFF 		bl	_ZL17chEvtRegisterMaskP12event_sourceP14event_listenerm
 823              		.loc 8 214 0
 824 001e C046     		nop
 825 0020 05B0     		add	sp, sp, #20
 826              		@ sp needed
 827 0022 00BD     		pop	{pc}
 828              		.cfi_endproc
 829              	.LFE128:
 830              		.size	_ZL13chEvtRegisterP12event_sourceP14event_listenerl, .-_ZL13chEvtRegisterP12event_sourceP14e
 831              		.section	.text._ZL15chMsgIsPendingIP9ch_thread,"ax",%progbits
 832              		.align	1
 833              		.p2align 4,,15
 834              		.syntax unified
 835              		.code	16
 836              		.thumb_func
 837              		.fpu softvfp
 838              		.type	_ZL15chMsgIsPendingIP9ch_thread, %function
 839              	_ZL15chMsgIsPendingIP9ch_thread:
 840              	.LFB132:
 841              		.file 9 "ChibiOS/os/rt/include/chmsg.h"
 842              		.loc 9 79 0
 843              		.cfi_startproc
 844              		@ args = 0, pretend = 0, frame = 8
 845              		@ frame_needed = 0, uses_anonymous_args = 0
 846 0000 00B5     		push	{lr}
 847              		.cfi_def_cfa_offset 4
 848              		.cfi_offset 14, -4
 849 0002 83B0     		sub	sp, sp, #12
 850              		.cfi_def_cfa_offset 16
 851 0004 0190     		str	r0, [sp, #4]
 852              		.loc 9 81 0
 853 0006 FFF7FEFF 		bl	chDbgCheckClassI
 854              		.loc 9 83 0
 855 000a 019B     		ldr	r3, [sp, #4]
ARM GAS  /tmp/ccvPPVYB.s 			page 16


 856 000c DA6A     		ldr	r2, [r3, #44]
 857 000e 019B     		ldr	r3, [sp, #4]
 858 0010 2C33     		adds	r3, r3, #44
 859 0012 D31A     		subs	r3, r2, r3
 860 0014 5A1E     		subs	r2, r3, #1
 861 0016 9341     		sbcs	r3, r3, r2
 862 0018 DBB2     		uxtb	r3, r3
 863              		.loc 9 84 0
 864 001a 1800     		movs	r0, r3
 865 001c 03B0     		add	sp, sp, #12
 866              		@ sp needed
 867 001e 00BD     		pop	{pc}
 868              		.cfi_endproc
 869              	.LFE132:
 870              		.size	_ZL15chMsgIsPendingIP9ch_thread, .-_ZL15chMsgIsPendingIP9ch_thread
 871              		.section	.text._ZL8chMsgGetP9ch_thread,"ax",%progbits
 872              		.align	1
 873              		.p2align 4,,15
 874              		.syntax unified
 875              		.code	16
 876              		.thumb_func
 877              		.fpu softvfp
 878              		.type	_ZL8chMsgGetP9ch_thread, %function
 879              	_ZL8chMsgGetP9ch_thread:
 880              	.LFB133:
 881              		.loc 9 96 0
 882              		.cfi_startproc
 883              		@ args = 0, pretend = 0, frame = 8
 884              		@ frame_needed = 0, uses_anonymous_args = 0
 885              		@ link register save eliminated.
 886 0000 82B0     		sub	sp, sp, #8
 887              		.cfi_def_cfa_offset 8
 888 0002 0190     		str	r0, [sp, #4]
 889              		.loc 9 98 0
 890 0004 019B     		ldr	r3, [sp, #4]
 891 0006 5B6B     		ldr	r3, [r3, #52]
 892              		.loc 9 99 0
 893 0008 1800     		movs	r0, r3
 894 000a 02B0     		add	sp, sp, #8
 895              		@ sp needed
 896 000c 7047     		bx	lr
 897              		.cfi_endproc
 898              	.LFE133:
 899              		.size	_ZL8chMsgGetP9ch_thread, .-_ZL8chMsgGetP9ch_thread
 900 000e C046     		.section	.text._ZL12chIQGetFullIP8io_queue,"ax",%progbits
 901              		.align	1
 902              		.p2align 4,,15
 903              		.syntax unified
 904              		.code	16
 905              		.thumb_func
 906              		.fpu softvfp
 907              		.type	_ZL12chIQGetFullIP8io_queue, %function
 908              	_ZL12chIQGetFullIP8io_queue:
 909              	.LFB142:
 910              		.file 10 "ChibiOS/os/rt/include/chqueues.h"
 911              		.loc 10 270 0
 912              		.cfi_startproc
ARM GAS  /tmp/ccvPPVYB.s 			page 17


 913              		@ args = 0, pretend = 0, frame = 8
 914              		@ frame_needed = 0, uses_anonymous_args = 0
 915 0000 00B5     		push	{lr}
 916              		.cfi_def_cfa_offset 4
 917              		.cfi_offset 14, -4
 918 0002 83B0     		sub	sp, sp, #12
 919              		.cfi_def_cfa_offset 16
 920 0004 0190     		str	r0, [sp, #4]
 921              		.loc 10 272 0
 922 0006 FFF7FEFF 		bl	chDbgCheckClassI
 923              		.loc 10 274 0
 924 000a 019B     		ldr	r3, [sp, #4]
 925 000c 9B68     		ldr	r3, [r3, #8]
 926              		.loc 10 275 0
 927 000e 1800     		movs	r0, r3
 928 0010 03B0     		add	sp, sp, #12
 929              		@ sp needed
 930 0012 00BD     		pop	{pc}
 931              		.cfi_endproc
 932              	.LFE142:
 933              		.size	_ZL12chIQGetFullIP8io_queue, .-_ZL12chIQGetFullIP8io_queue
 934              		.section	.text._ZL13chIQGetEmptyIP8io_queue,"ax",%progbits
 935              		.align	1
 936              		.p2align 4,,15
 937              		.syntax unified
 938              		.code	16
 939              		.thumb_func
 940              		.fpu softvfp
 941              		.type	_ZL13chIQGetEmptyIP8io_queue, %function
 942              	_ZL13chIQGetEmptyIP8io_queue:
 943              	.LFB143:
 944              		.loc 10 286 0
 945              		.cfi_startproc
 946              		@ args = 0, pretend = 0, frame = 8
 947              		@ frame_needed = 0, uses_anonymous_args = 0
 948 0000 00B5     		push	{lr}
 949              		.cfi_def_cfa_offset 4
 950              		.cfi_offset 14, -4
 951 0002 83B0     		sub	sp, sp, #12
 952              		.cfi_def_cfa_offset 16
 953 0004 0190     		str	r0, [sp, #4]
 954              		.loc 10 288 0
 955 0006 FFF7FEFF 		bl	chDbgCheckClassI
 956              		.loc 10 290 0
 957 000a 019B     		ldr	r3, [sp, #4]
 958 000c 1B69     		ldr	r3, [r3, #16]
 959 000e 1A00     		movs	r2, r3
 960 0010 019B     		ldr	r3, [sp, #4]
 961 0012 DB68     		ldr	r3, [r3, #12]
 962 0014 D31A     		subs	r3, r2, r3
 963 0016 1A00     		movs	r2, r3
 964 0018 019B     		ldr	r3, [sp, #4]
 965 001a 9B68     		ldr	r3, [r3, #8]
 966 001c D31A     		subs	r3, r2, r3
 967              		.loc 10 291 0
 968 001e 1800     		movs	r0, r3
 969 0020 03B0     		add	sp, sp, #12
ARM GAS  /tmp/ccvPPVYB.s 			page 18


 970              		@ sp needed
 971 0022 00BD     		pop	{pc}
 972              		.cfi_endproc
 973              	.LFE143:
 974              		.size	_ZL13chIQGetEmptyIP8io_queue, .-_ZL13chIQGetEmptyIP8io_queue
 975              		.section	.text._ZL12chIQIsEmptyIP8io_queue,"ax",%progbits
 976              		.align	1
 977              		.p2align 4,,15
 978              		.syntax unified
 979              		.code	16
 980              		.thumb_func
 981              		.fpu softvfp
 982              		.type	_ZL12chIQIsEmptyIP8io_queue, %function
 983              	_ZL12chIQIsEmptyIP8io_queue:
 984              	.LFB144:
 985              		.loc 10 303 0
 986              		.cfi_startproc
 987              		@ args = 0, pretend = 0, frame = 8
 988              		@ frame_needed = 0, uses_anonymous_args = 0
 989 0000 00B5     		push	{lr}
 990              		.cfi_def_cfa_offset 4
 991              		.cfi_offset 14, -4
 992 0002 83B0     		sub	sp, sp, #12
 993              		.cfi_def_cfa_offset 16
 994 0004 0190     		str	r0, [sp, #4]
 995              		.loc 10 305 0
 996 0006 FFF7FEFF 		bl	chDbgCheckClassI
 997              		.loc 10 307 0
 998 000a 019B     		ldr	r3, [sp, #4]
 999 000c 9B68     		ldr	r3, [r3, #8]
 1000 000e 5A42     		rsbs	r2, r3, #0
 1001 0010 5341     		adcs	r3, r3, r2
 1002 0012 DBB2     		uxtb	r3, r3
 1003              		.loc 10 308 0
 1004 0014 1800     		movs	r0, r3
 1005 0016 03B0     		add	sp, sp, #12
 1006              		@ sp needed
 1007 0018 00BD     		pop	{pc}
 1008              		.cfi_endproc
 1009              	.LFE144:
 1010              		.size	_ZL12chIQIsEmptyIP8io_queue, .-_ZL12chIQIsEmptyIP8io_queue
 1011 001a C046     		.section	.text._ZL11chIQIsFullIP8io_queue,"ax",%progbits
 1012              		.align	1
 1013              		.p2align 4,,15
 1014              		.syntax unified
 1015              		.code	16
 1016              		.thumb_func
 1017              		.fpu softvfp
 1018              		.type	_ZL11chIQIsFullIP8io_queue, %function
 1019              	_ZL11chIQIsFullIP8io_queue:
 1020              	.LFB145:
 1021              		.loc 10 320 0
 1022              		.cfi_startproc
 1023              		@ args = 0, pretend = 0, frame = 8
 1024              		@ frame_needed = 0, uses_anonymous_args = 0
 1025 0000 00B5     		push	{lr}
 1026              		.cfi_def_cfa_offset 4
ARM GAS  /tmp/ccvPPVYB.s 			page 19


 1027              		.cfi_offset 14, -4
 1028 0002 83B0     		sub	sp, sp, #12
 1029              		.cfi_def_cfa_offset 16
 1030 0004 0190     		str	r0, [sp, #4]
 1031              		.loc 10 322 0
 1032 0006 FFF7FEFF 		bl	chDbgCheckClassI
 1033              		.loc 10 325 0
 1034 000a 019B     		ldr	r3, [sp, #4]
 1035 000c 5A69     		ldr	r2, [r3, #20]
 1036 000e 019B     		ldr	r3, [sp, #4]
 1037 0010 9B69     		ldr	r3, [r3, #24]
 1038 0012 9A42     		cmp	r2, r3
 1039 0014 05D1     		bne	.L56
 1040              		.loc 10 325 0 is_stmt 0 discriminator 1
 1041 0016 019B     		ldr	r3, [sp, #4]
 1042 0018 9B68     		ldr	r3, [r3, #8]
 1043 001a 002B     		cmp	r3, #0
 1044 001c 01D0     		beq	.L56
 1045              		.loc 10 325 0 discriminator 3
 1046 001e 0123     		movs	r3, #1
 1047 0020 00E0     		b	.L57
 1048              	.L56:
 1049              		.loc 10 325 0 discriminator 4
 1050 0022 0023     		movs	r3, #0
 1051              	.L57:
 1052              		.loc 10 327 0 is_stmt 1 discriminator 6
 1053 0024 1800     		movs	r0, r3
 1054 0026 03B0     		add	sp, sp, #12
 1055              		@ sp needed
 1056 0028 00BD     		pop	{pc}
 1057              		.cfi_endproc
 1058              	.LFE145:
 1059              		.size	_ZL11chIQIsFullIP8io_queue, .-_ZL11chIQIsFullIP8io_queue
 1060 002a C046     		.section	.text._ZL7chIQGetP8io_queue,"ax",%progbits
 1061              		.align	1
 1062              		.p2align 4,,15
 1063              		.syntax unified
 1064              		.code	16
 1065              		.thumb_func
 1066              		.fpu softvfp
 1067              		.type	_ZL7chIQGetP8io_queue, %function
 1068              	_ZL7chIQGetP8io_queue:
 1069              	.LFB146:
 1070              		.loc 10 341 0
 1071              		.cfi_startproc
 1072              		@ args = 0, pretend = 0, frame = 8
 1073              		@ frame_needed = 0, uses_anonymous_args = 0
 1074 0000 00B5     		push	{lr}
 1075              		.cfi_def_cfa_offset 4
 1076              		.cfi_offset 14, -4
 1077 0002 83B0     		sub	sp, sp, #12
 1078              		.cfi_def_cfa_offset 16
 1079 0004 0190     		str	r0, [sp, #4]
 1080              		.loc 10 343 0
 1081 0006 054A     		ldr	r2, .L61
 1082 0008 019B     		ldr	r3, [sp, #4]
 1083 000a 1100     		movs	r1, r2
ARM GAS  /tmp/ccvPPVYB.s 			page 20


 1084 000c 1800     		movs	r0, r3
 1085 000e FFF7FEFF 		bl	chIQGetTimeout
 1086 0012 0300     		movs	r3, r0
 1087              		.loc 10 344 0
 1088 0014 1800     		movs	r0, r3
 1089 0016 03B0     		add	sp, sp, #12
 1090              		@ sp needed
 1091 0018 00BD     		pop	{pc}
 1092              	.L62:
 1093 001a C046     		.align	2
 1094              	.L61:
 1095 001c FFFF0000 		.word	65535
 1096              		.cfi_endproc
 1097              	.LFE146:
 1098              		.size	_ZL7chIQGetP8io_queue, .-_ZL7chIQGetP8io_queue
 1099              		.section	.text._ZL12chOQGetFullIP8io_queue,"ax",%progbits
 1100              		.align	1
 1101              		.p2align 4,,15
 1102              		.syntax unified
 1103              		.code	16
 1104              		.thumb_func
 1105              		.fpu softvfp
 1106              		.type	_ZL12chOQGetFullIP8io_queue, %function
 1107              	_ZL12chOQGetFullIP8io_queue:
 1108              	.LFB147:
 1109              		.loc 10 355 0
 1110              		.cfi_startproc
 1111              		@ args = 0, pretend = 0, frame = 8
 1112              		@ frame_needed = 0, uses_anonymous_args = 0
 1113 0000 00B5     		push	{lr}
 1114              		.cfi_def_cfa_offset 4
 1115              		.cfi_offset 14, -4
 1116 0002 83B0     		sub	sp, sp, #12
 1117              		.cfi_def_cfa_offset 16
 1118 0004 0190     		str	r0, [sp, #4]
 1119              		.loc 10 357 0
 1120 0006 FFF7FEFF 		bl	chDbgCheckClassI
 1121              		.loc 10 359 0
 1122 000a 019B     		ldr	r3, [sp, #4]
 1123 000c 1B69     		ldr	r3, [r3, #16]
 1124 000e 1A00     		movs	r2, r3
 1125 0010 019B     		ldr	r3, [sp, #4]
 1126 0012 DB68     		ldr	r3, [r3, #12]
 1127 0014 D31A     		subs	r3, r2, r3
 1128 0016 1A00     		movs	r2, r3
 1129 0018 019B     		ldr	r3, [sp, #4]
 1130 001a 9B68     		ldr	r3, [r3, #8]
 1131 001c D31A     		subs	r3, r2, r3
 1132              		.loc 10 360 0
 1133 001e 1800     		movs	r0, r3
 1134 0020 03B0     		add	sp, sp, #12
 1135              		@ sp needed
 1136 0022 00BD     		pop	{pc}
 1137              		.cfi_endproc
 1138              	.LFE147:
 1139              		.size	_ZL12chOQGetFullIP8io_queue, .-_ZL12chOQGetFullIP8io_queue
 1140              		.section	.text._ZL13chOQGetEmptyIP8io_queue,"ax",%progbits
ARM GAS  /tmp/ccvPPVYB.s 			page 21


 1141              		.align	1
 1142              		.p2align 4,,15
 1143              		.syntax unified
 1144              		.code	16
 1145              		.thumb_func
 1146              		.fpu softvfp
 1147              		.type	_ZL13chOQGetEmptyIP8io_queue, %function
 1148              	_ZL13chOQGetEmptyIP8io_queue:
 1149              	.LFB148:
 1150              		.loc 10 371 0
 1151              		.cfi_startproc
 1152              		@ args = 0, pretend = 0, frame = 8
 1153              		@ frame_needed = 0, uses_anonymous_args = 0
 1154 0000 00B5     		push	{lr}
 1155              		.cfi_def_cfa_offset 4
 1156              		.cfi_offset 14, -4
 1157 0002 83B0     		sub	sp, sp, #12
 1158              		.cfi_def_cfa_offset 16
 1159 0004 0190     		str	r0, [sp, #4]
 1160              		.loc 10 373 0
 1161 0006 FFF7FEFF 		bl	chDbgCheckClassI
 1162              		.loc 10 375 0
 1163 000a 019B     		ldr	r3, [sp, #4]
 1164 000c 9B68     		ldr	r3, [r3, #8]
 1165              		.loc 10 376 0
 1166 000e 1800     		movs	r0, r3
 1167 0010 03B0     		add	sp, sp, #12
 1168              		@ sp needed
 1169 0012 00BD     		pop	{pc}
 1170              		.cfi_endproc
 1171              	.LFE148:
 1172              		.size	_ZL13chOQGetEmptyIP8io_queue, .-_ZL13chOQGetEmptyIP8io_queue
 1173              		.section	.text._ZL12chOQIsEmptyIP8io_queue,"ax",%progbits
 1174              		.align	1
 1175              		.p2align 4,,15
 1176              		.syntax unified
 1177              		.code	16
 1178              		.thumb_func
 1179              		.fpu softvfp
 1180              		.type	_ZL12chOQIsEmptyIP8io_queue, %function
 1181              	_ZL12chOQIsEmptyIP8io_queue:
 1182              	.LFB149:
 1183              		.loc 10 388 0
 1184              		.cfi_startproc
 1185              		@ args = 0, pretend = 0, frame = 8
 1186              		@ frame_needed = 0, uses_anonymous_args = 0
 1187 0000 00B5     		push	{lr}
 1188              		.cfi_def_cfa_offset 4
 1189              		.cfi_offset 14, -4
 1190 0002 83B0     		sub	sp, sp, #12
 1191              		.cfi_def_cfa_offset 16
 1192 0004 0190     		str	r0, [sp, #4]
 1193              		.loc 10 390 0
 1194 0006 FFF7FEFF 		bl	chDbgCheckClassI
 1195              		.loc 10 393 0
 1196 000a 019B     		ldr	r3, [sp, #4]
 1197 000c 5A69     		ldr	r2, [r3, #20]
ARM GAS  /tmp/ccvPPVYB.s 			page 22


 1198 000e 019B     		ldr	r3, [sp, #4]
 1199 0010 9B69     		ldr	r3, [r3, #24]
 1200 0012 9A42     		cmp	r2, r3
 1201 0014 05D1     		bne	.L68
 1202              		.loc 10 393 0 is_stmt 0 discriminator 1
 1203 0016 019B     		ldr	r3, [sp, #4]
 1204 0018 9B68     		ldr	r3, [r3, #8]
 1205 001a 002B     		cmp	r3, #0
 1206 001c 01D0     		beq	.L68
 1207              		.loc 10 393 0 discriminator 3
 1208 001e 0123     		movs	r3, #1
 1209 0020 00E0     		b	.L69
 1210              	.L68:
 1211              		.loc 10 393 0 discriminator 4
 1212 0022 0023     		movs	r3, #0
 1213              	.L69:
 1214              		.loc 10 395 0 is_stmt 1 discriminator 6
 1215 0024 1800     		movs	r0, r3
 1216 0026 03B0     		add	sp, sp, #12
 1217              		@ sp needed
 1218 0028 00BD     		pop	{pc}
 1219              		.cfi_endproc
 1220              	.LFE149:
 1221              		.size	_ZL12chOQIsEmptyIP8io_queue, .-_ZL12chOQIsEmptyIP8io_queue
 1222 002a C046     		.section	.text._ZL11chOQIsFullIP8io_queue,"ax",%progbits
 1223              		.align	1
 1224              		.p2align 4,,15
 1225              		.syntax unified
 1226              		.code	16
 1227              		.thumb_func
 1228              		.fpu softvfp
 1229              		.type	_ZL11chOQIsFullIP8io_queue, %function
 1230              	_ZL11chOQIsFullIP8io_queue:
 1231              	.LFB150:
 1232              		.loc 10 407 0
 1233              		.cfi_startproc
 1234              		@ args = 0, pretend = 0, frame = 8
 1235              		@ frame_needed = 0, uses_anonymous_args = 0
 1236 0000 00B5     		push	{lr}
 1237              		.cfi_def_cfa_offset 4
 1238              		.cfi_offset 14, -4
 1239 0002 83B0     		sub	sp, sp, #12
 1240              		.cfi_def_cfa_offset 16
 1241 0004 0190     		str	r0, [sp, #4]
 1242              		.loc 10 409 0
 1243 0006 FFF7FEFF 		bl	chDbgCheckClassI
 1244              		.loc 10 411 0
 1245 000a 019B     		ldr	r3, [sp, #4]
 1246 000c 9B68     		ldr	r3, [r3, #8]
 1247 000e 5A42     		rsbs	r2, r3, #0
 1248 0010 5341     		adcs	r3, r3, r2
 1249 0012 DBB2     		uxtb	r3, r3
 1250              		.loc 10 412 0
 1251 0014 1800     		movs	r0, r3
 1252 0016 03B0     		add	sp, sp, #12
 1253              		@ sp needed
 1254 0018 00BD     		pop	{pc}
ARM GAS  /tmp/ccvPPVYB.s 			page 23


 1255              		.cfi_endproc
 1256              	.LFE150:
 1257              		.size	_ZL11chOQIsFullIP8io_queue, .-_ZL11chOQIsFullIP8io_queue
 1258 001a C046     		.section	.text._ZL7chOQPutP8io_queueh,"ax",%progbits
 1259              		.align	1
 1260              		.p2align 4,,15
 1261              		.syntax unified
 1262              		.code	16
 1263              		.thumb_func
 1264              		.fpu softvfp
 1265              		.type	_ZL7chOQPutP8io_queueh, %function
 1266              	_ZL7chOQPutP8io_queueh:
 1267              	.LFB151:
 1268              		.loc 10 428 0
 1269              		.cfi_startproc
 1270              		@ args = 0, pretend = 0, frame = 8
 1271              		@ frame_needed = 0, uses_anonymous_args = 0
 1272 0000 00B5     		push	{lr}
 1273              		.cfi_def_cfa_offset 4
 1274              		.cfi_offset 14, -4
 1275 0002 83B0     		sub	sp, sp, #12
 1276              		.cfi_def_cfa_offset 16
 1277 0004 0190     		str	r0, [sp, #4]
 1278 0006 0A00     		movs	r2, r1
 1279 0008 6B46     		mov	r3, sp
 1280 000a 0333     		adds	r3, r3, #3
 1281 000c 1A70     		strb	r2, [r3]
 1282              		.loc 10 430 0
 1283 000e 064A     		ldr	r2, .L75
 1284 0010 6B46     		mov	r3, sp
 1285 0012 0333     		adds	r3, r3, #3
 1286 0014 1978     		ldrb	r1, [r3]
 1287 0016 019B     		ldr	r3, [sp, #4]
 1288 0018 1800     		movs	r0, r3
 1289 001a FFF7FEFF 		bl	chOQPutTimeout
 1290 001e 0300     		movs	r3, r0
 1291              		.loc 10 431 0
 1292 0020 1800     		movs	r0, r3
 1293 0022 03B0     		add	sp, sp, #12
 1294              		@ sp needed
 1295 0024 00BD     		pop	{pc}
 1296              	.L76:
 1297 0026 C046     		.align	2
 1298              	.L75:
 1299 0028 FFFF0000 		.word	65535
 1300              		.cfi_endproc
 1301              	.LFE151:
 1302              		.size	_ZL7chOQPutP8io_queueh, .-_ZL7chOQPutP8io_queueh
 1303              		.section	.text._ZN10chibios_rt15ThreadReferenceC2EP9ch_thread,"axG",%progbits,_ZN10chibios_rt15Thr
 1304              		.align	1
 1305              		.p2align 4,,15
 1306              		.weak	_ZN10chibios_rt15ThreadReferenceC2EP9ch_thread
 1307              		.syntax unified
 1308              		.code	16
 1309              		.thumb_func
 1310              		.fpu softvfp
 1311              		.type	_ZN10chibios_rt15ThreadReferenceC2EP9ch_thread, %function
ARM GAS  /tmp/ccvPPVYB.s 			page 24


 1312              	_ZN10chibios_rt15ThreadReferenceC2EP9ch_thread:
 1313              	.LFB166:
 1314              		.file 11 "ChibiOS/os/various/cpp_wrappers/ch.hpp"
 1315              		.loc 11 413 0
 1316              		.cfi_startproc
 1317              		@ args = 0, pretend = 0, frame = 8
 1318              		@ frame_needed = 0, uses_anonymous_args = 0
 1319              		@ link register save eliminated.
 1320 0000 82B0     		sub	sp, sp, #8
 1321              		.cfi_def_cfa_offset 8
 1322 0002 0190     		str	r0, [sp, #4]
 1323 0004 0091     		str	r1, [sp]
 1324              	.LBB10:
 1325              		.loc 11 413 0
 1326 0006 054A     		ldr	r2, .L79
 1327 0008 019B     		ldr	r3, [sp, #4]
 1328 000a 1A60     		str	r2, [r3]
 1329 000c 019B     		ldr	r3, [sp, #4]
 1330 000e 009A     		ldr	r2, [sp]
 1331 0010 5A60     		str	r2, [r3, #4]
 1332              	.LBE10:
 1333              		.loc 11 415 0
 1334 0012 019B     		ldr	r3, [sp, #4]
 1335 0014 1800     		movs	r0, r3
 1336 0016 02B0     		add	sp, sp, #8
 1337              		@ sp needed
 1338 0018 7047     		bx	lr
 1339              	.L80:
 1340 001a C046     		.align	2
 1341              	.L79:
 1342 001c 08000000 		.word	_ZTVN10chibios_rt15ThreadReferenceE+8
 1343              		.cfi_endproc
 1344              	.LFE166:
 1345              		.size	_ZN10chibios_rt15ThreadReferenceC2EP9ch_thread, .-_ZN10chibios_rt15ThreadReferenceC2EP9ch_th
 1346              		.weak	_ZN10chibios_rt15ThreadReferenceC1EP9ch_thread
 1347              		.thumb_set _ZN10chibios_rt15ThreadReferenceC1EP9ch_thread,_ZN10chibios_rt15ThreadReferenceC2EP9ch_
 1348              		.section	.rodata
 1349              		.align	2
 1350              	.LC5:
 1351 0000 696E766F 		.ascii	"invoked unimplemented method stop()\000"
 1351      6B656420 
 1351      756E696D 
 1351      706C656D 
 1351      656E7465 
 1352              		.section	.text._ZN10chibios_rt15ThreadReference4stopEv,"ax",%progbits
 1353              		.align	1
 1354              		.p2align 4,,15
 1355              		.global	_ZN10chibios_rt15ThreadReference4stopEv
 1356              		.syntax unified
 1357              		.code	16
 1358              		.thumb_func
 1359              		.fpu softvfp
 1360              		.type	_ZN10chibios_rt15ThreadReference4stopEv, %function
 1361              	_ZN10chibios_rt15ThreadReference4stopEv:
 1362              	.LFB194:
 1363              		.file 12 "ChibiOS/os/various/cpp_wrappers/ch.cpp"
 1364              		.loc 12 76 0
ARM GAS  /tmp/ccvPPVYB.s 			page 25


 1365              		.cfi_startproc
 1366              		@ args = 0, pretend = 0, frame = 8
 1367              		@ frame_needed = 0, uses_anonymous_args = 0
 1368 0000 00B5     		push	{lr}
 1369              		.cfi_def_cfa_offset 4
 1370              		.cfi_offset 14, -4
 1371 0002 83B0     		sub	sp, sp, #12
 1372              		.cfi_def_cfa_offset 16
 1373 0004 0190     		str	r0, [sp, #4]
 1374              		.loc 12 78 0
 1375 0006 034B     		ldr	r3, .L82
 1376 0008 1800     		movs	r0, r3
 1377 000a FFF7FEFF 		bl	chSysHalt
 1378              		.loc 12 79 0
 1379 000e C046     		nop
 1380 0010 03B0     		add	sp, sp, #12
 1381              		@ sp needed
 1382 0012 00BD     		pop	{pc}
 1383              	.L83:
 1384              		.align	2
 1385              	.L82:
 1386 0014 00000000 		.word	.LC5
 1387              		.cfi_endproc
 1388              	.LFE194:
 1389              		.size	_ZN10chibios_rt15ThreadReference4stopEv, .-_ZN10chibios_rt15ThreadReference4stopEv
 1390              		.section	.text._ZN10chibios_rt15ThreadReference16requestTerminateEv,"ax",%progbits
 1391              		.align	1
 1392              		.p2align 4,,15
 1393              		.global	_ZN10chibios_rt15ThreadReference16requestTerminateEv
 1394              		.syntax unified
 1395              		.code	16
 1396              		.thumb_func
 1397              		.fpu softvfp
 1398              		.type	_ZN10chibios_rt15ThreadReference16requestTerminateEv, %function
 1399              	_ZN10chibios_rt15ThreadReference16requestTerminateEv:
 1400              	.LFB195:
 1401              		.loc 12 81 0
 1402              		.cfi_startproc
 1403              		@ args = 0, pretend = 0, frame = 8
 1404              		@ frame_needed = 0, uses_anonymous_args = 0
 1405 0000 00B5     		push	{lr}
 1406              		.cfi_def_cfa_offset 4
 1407              		.cfi_offset 14, -4
 1408 0002 83B0     		sub	sp, sp, #12
 1409              		.cfi_def_cfa_offset 16
 1410 0004 0190     		str	r0, [sp, #4]
 1411              		.loc 12 83 0
 1412 0006 019B     		ldr	r3, [sp, #4]
 1413 0008 5B68     		ldr	r3, [r3, #4]
 1414 000a 002B     		cmp	r3, #0
 1415 000c 03D1     		bne	.L85
 1416              		.loc 12 83 0 is_stmt 0 discriminator 1
 1417 000e 064B     		ldr	r3, .L86
 1418 0010 1800     		movs	r0, r3
 1419 0012 FFF7FEFF 		bl	chSysHalt
 1420              	.L85:
 1421              		.loc 12 86 0 is_stmt 1
ARM GAS  /tmp/ccvPPVYB.s 			page 26


 1422 0016 019B     		ldr	r3, [sp, #4]
 1423 0018 5B68     		ldr	r3, [r3, #4]
 1424 001a 1800     		movs	r0, r3
 1425 001c FFF7FEFF 		bl	chThdTerminate
 1426              		.loc 12 87 0
 1427 0020 C046     		nop
 1428 0022 03B0     		add	sp, sp, #12
 1429              		@ sp needed
 1430 0024 00BD     		pop	{pc}
 1431              	.L87:
 1432 0026 C046     		.align	2
 1433              	.L86:
 1434 0028 00000000 		.word	_ZZN10chibios_rt15ThreadReference16requestTerminateEvE8__func__
 1435              		.cfi_endproc
 1436              	.LFE195:
 1437              		.size	_ZN10chibios_rt15ThreadReference16requestTerminateEv, .-_ZN10chibios_rt15ThreadReference16re
 1438              		.section	.text._ZN10chibios_rt15ThreadReference4waitEv,"ax",%progbits
 1439              		.align	1
 1440              		.p2align 4,,15
 1441              		.global	_ZN10chibios_rt15ThreadReference4waitEv
 1442              		.syntax unified
 1443              		.code	16
 1444              		.thumb_func
 1445              		.fpu softvfp
 1446              		.type	_ZN10chibios_rt15ThreadReference4waitEv, %function
 1447              	_ZN10chibios_rt15ThreadReference4waitEv:
 1448              	.LFB196:
 1449              		.loc 12 90 0
 1450              		.cfi_startproc
 1451              		@ args = 0, pretend = 0, frame = 16
 1452              		@ frame_needed = 0, uses_anonymous_args = 0
 1453 0000 00B5     		push	{lr}
 1454              		.cfi_def_cfa_offset 4
 1455              		.cfi_offset 14, -4
 1456 0002 85B0     		sub	sp, sp, #20
 1457              		.cfi_def_cfa_offset 24
 1458 0004 0190     		str	r0, [sp, #4]
 1459              		.loc 12 92 0
 1460 0006 019B     		ldr	r3, [sp, #4]
 1461 0008 5B68     		ldr	r3, [r3, #4]
 1462 000a 002B     		cmp	r3, #0
 1463 000c 03D1     		bne	.L89
 1464              		.loc 12 92 0 is_stmt 0 discriminator 1
 1465 000e 094B     		ldr	r3, .L91
 1466 0010 1800     		movs	r0, r3
 1467 0012 FFF7FEFF 		bl	chSysHalt
 1468              	.L89:
 1469              		.loc 12 95 0 is_stmt 1
 1470 0016 019B     		ldr	r3, [sp, #4]
 1471 0018 5B68     		ldr	r3, [r3, #4]
 1472 001a 1800     		movs	r0, r3
 1473 001c FFF7FEFF 		bl	chThdWait
 1474 0020 0300     		movs	r3, r0
 1475 0022 0393     		str	r3, [sp, #12]
 1476              		.loc 12 96 0
 1477 0024 019B     		ldr	r3, [sp, #4]
 1478 0026 0022     		movs	r2, #0
ARM GAS  /tmp/ccvPPVYB.s 			page 27


 1479 0028 5A60     		str	r2, [r3, #4]
 1480              		.loc 12 97 0
 1481 002a 039B     		ldr	r3, [sp, #12]
 1482              		.loc 12 98 0
 1483 002c 1800     		movs	r0, r3
 1484 002e 05B0     		add	sp, sp, #20
 1485              		@ sp needed
 1486 0030 00BD     		pop	{pc}
 1487              	.L92:
 1488 0032 C046     		.align	2
 1489              	.L91:
 1490 0034 00000000 		.word	_ZZN10chibios_rt15ThreadReference4waitEvE8__func__
 1491              		.cfi_endproc
 1492              	.LFE196:
 1493              		.size	_ZN10chibios_rt15ThreadReference4waitEv, .-_ZN10chibios_rt15ThreadReference4waitEv
 1494              		.section	.text._ZN10chibios_rt15ThreadReference11sendMessageEl,"ax",%progbits
 1495              		.align	1
 1496              		.p2align 4,,15
 1497              		.global	_ZN10chibios_rt15ThreadReference11sendMessageEl
 1498              		.syntax unified
 1499              		.code	16
 1500              		.thumb_func
 1501              		.fpu softvfp
 1502              		.type	_ZN10chibios_rt15ThreadReference11sendMessageEl, %function
 1503              	_ZN10chibios_rt15ThreadReference11sendMessageEl:
 1504              	.LFB197:
 1505              		.loc 12 102 0
 1506              		.cfi_startproc
 1507              		@ args = 0, pretend = 0, frame = 8
 1508              		@ frame_needed = 0, uses_anonymous_args = 0
 1509 0000 00B5     		push	{lr}
 1510              		.cfi_def_cfa_offset 4
 1511              		.cfi_offset 14, -4
 1512 0002 83B0     		sub	sp, sp, #12
 1513              		.cfi_def_cfa_offset 16
 1514 0004 0190     		str	r0, [sp, #4]
 1515 0006 0091     		str	r1, [sp]
 1516              		.loc 12 104 0
 1517 0008 019B     		ldr	r3, [sp, #4]
 1518 000a 5B68     		ldr	r3, [r3, #4]
 1519 000c 002B     		cmp	r3, #0
 1520 000e 03D1     		bne	.L94
 1521              		.loc 12 104 0 is_stmt 0 discriminator 1
 1522 0010 074B     		ldr	r3, .L96
 1523 0012 1800     		movs	r0, r3
 1524 0014 FFF7FEFF 		bl	chSysHalt
 1525              	.L94:
 1526              		.loc 12 107 0 is_stmt 1
 1527 0018 019B     		ldr	r3, [sp, #4]
 1528 001a 5B68     		ldr	r3, [r3, #4]
 1529 001c 009A     		ldr	r2, [sp]
 1530 001e 1100     		movs	r1, r2
 1531 0020 1800     		movs	r0, r3
 1532 0022 FFF7FEFF 		bl	chMsgSend
 1533 0026 0300     		movs	r3, r0
 1534              		.loc 12 108 0
 1535 0028 1800     		movs	r0, r3
ARM GAS  /tmp/ccvPPVYB.s 			page 28


 1536 002a 03B0     		add	sp, sp, #12
 1537              		@ sp needed
 1538 002c 00BD     		pop	{pc}
 1539              	.L97:
 1540 002e C046     		.align	2
 1541              	.L96:
 1542 0030 00000000 		.word	_ZZN10chibios_rt15ThreadReference11sendMessageElE8__func__
 1543              		.cfi_endproc
 1544              	.LFE197:
 1545              		.size	_ZN10chibios_rt15ThreadReference11sendMessageEl, .-_ZN10chibios_rt15ThreadReference11sendMes
 1546              		.section	.text._ZN10chibios_rt15ThreadReference16isPendingMessageEv,"ax",%progbits
 1547              		.align	1
 1548              		.p2align 4,,15
 1549              		.global	_ZN10chibios_rt15ThreadReference16isPendingMessageEv
 1550              		.syntax unified
 1551              		.code	16
 1552              		.thumb_func
 1553              		.fpu softvfp
 1554              		.type	_ZN10chibios_rt15ThreadReference16isPendingMessageEv, %function
 1555              	_ZN10chibios_rt15ThreadReference16isPendingMessageEv:
 1556              	.LFB198:
 1557              		.loc 12 110 0
 1558              		.cfi_startproc
 1559              		@ args = 0, pretend = 0, frame = 8
 1560              		@ frame_needed = 0, uses_anonymous_args = 0
 1561 0000 00B5     		push	{lr}
 1562              		.cfi_def_cfa_offset 4
 1563              		.cfi_offset 14, -4
 1564 0002 83B0     		sub	sp, sp, #12
 1565              		.cfi_def_cfa_offset 16
 1566 0004 0190     		str	r0, [sp, #4]
 1567              		.loc 12 112 0
 1568 0006 019B     		ldr	r3, [sp, #4]
 1569 0008 5B68     		ldr	r3, [r3, #4]
 1570 000a 002B     		cmp	r3, #0
 1571 000c 03D1     		bne	.L99
 1572              		.loc 12 112 0 is_stmt 0 discriminator 1
 1573 000e 064B     		ldr	r3, .L101
 1574 0010 1800     		movs	r0, r3
 1575 0012 FFF7FEFF 		bl	chSysHalt
 1576              	.L99:
 1577              		.loc 12 115 0 is_stmt 1
 1578 0016 019B     		ldr	r3, [sp, #4]
 1579 0018 5B68     		ldr	r3, [r3, #4]
 1580 001a 1800     		movs	r0, r3
 1581 001c FFF7FEFF 		bl	_ZL15chMsgIsPendingIP9ch_thread
 1582 0020 0300     		movs	r3, r0
 1583              		.loc 12 116 0
 1584 0022 1800     		movs	r0, r3
 1585 0024 03B0     		add	sp, sp, #12
 1586              		@ sp needed
 1587 0026 00BD     		pop	{pc}
 1588              	.L102:
 1589              		.align	2
 1590              	.L101:
 1591 0028 00000000 		.word	_ZZN10chibios_rt15ThreadReference16isPendingMessageEvE8__func__
 1592              		.cfi_endproc
ARM GAS  /tmp/ccvPPVYB.s 			page 29


 1593              	.LFE198:
 1594              		.size	_ZN10chibios_rt15ThreadReference16isPendingMessageEv, .-_ZN10chibios_rt15ThreadReference16is
 1595              		.section	.text._ZN10chibios_rt15ThreadReference10getMessageEv,"ax",%progbits
 1596              		.align	1
 1597              		.p2align 4,,15
 1598              		.global	_ZN10chibios_rt15ThreadReference10getMessageEv
 1599              		.syntax unified
 1600              		.code	16
 1601              		.thumb_func
 1602              		.fpu softvfp
 1603              		.type	_ZN10chibios_rt15ThreadReference10getMessageEv, %function
 1604              	_ZN10chibios_rt15ThreadReference10getMessageEv:
 1605              	.LFB199:
 1606              		.loc 12 118 0
 1607              		.cfi_startproc
 1608              		@ args = 0, pretend = 0, frame = 8
 1609              		@ frame_needed = 0, uses_anonymous_args = 0
 1610 0000 00B5     		push	{lr}
 1611              		.cfi_def_cfa_offset 4
 1612              		.cfi_offset 14, -4
 1613 0002 83B0     		sub	sp, sp, #12
 1614              		.cfi_def_cfa_offset 16
 1615 0004 0190     		str	r0, [sp, #4]
 1616              		.loc 12 120 0
 1617 0006 019B     		ldr	r3, [sp, #4]
 1618 0008 5B68     		ldr	r3, [r3, #4]
 1619 000a 002B     		cmp	r3, #0
 1620 000c 03D1     		bne	.L104
 1621              		.loc 12 120 0 is_stmt 0 discriminator 1
 1622 000e 064B     		ldr	r3, .L106
 1623 0010 1800     		movs	r0, r3
 1624 0012 FFF7FEFF 		bl	chSysHalt
 1625              	.L104:
 1626              		.loc 12 123 0 is_stmt 1
 1627 0016 019B     		ldr	r3, [sp, #4]
 1628 0018 5B68     		ldr	r3, [r3, #4]
 1629 001a 1800     		movs	r0, r3
 1630 001c FFF7FEFF 		bl	_ZL8chMsgGetP9ch_thread
 1631 0020 0300     		movs	r3, r0
 1632              		.loc 12 124 0
 1633 0022 1800     		movs	r0, r3
 1634 0024 03B0     		add	sp, sp, #12
 1635              		@ sp needed
 1636 0026 00BD     		pop	{pc}
 1637              	.L107:
 1638              		.align	2
 1639              	.L106:
 1640 0028 00000000 		.word	_ZZN10chibios_rt15ThreadReference10getMessageEvE8__func__
 1641              		.cfi_endproc
 1642              	.LFE199:
 1643              		.size	_ZN10chibios_rt15ThreadReference10getMessageEv, .-_ZN10chibios_rt15ThreadReference10getMessa
 1644              		.section	.text._ZN10chibios_rt15ThreadReference14releaseMessageEl,"ax",%progbits
 1645              		.align	1
 1646              		.p2align 4,,15
 1647              		.global	_ZN10chibios_rt15ThreadReference14releaseMessageEl
 1648              		.syntax unified
 1649              		.code	16
ARM GAS  /tmp/ccvPPVYB.s 			page 30


 1650              		.thumb_func
 1651              		.fpu softvfp
 1652              		.type	_ZN10chibios_rt15ThreadReference14releaseMessageEl, %function
 1653              	_ZN10chibios_rt15ThreadReference14releaseMessageEl:
 1654              	.LFB200:
 1655              		.loc 12 126 0
 1656              		.cfi_startproc
 1657              		@ args = 0, pretend = 0, frame = 8
 1658              		@ frame_needed = 0, uses_anonymous_args = 0
 1659 0000 00B5     		push	{lr}
 1660              		.cfi_def_cfa_offset 4
 1661              		.cfi_offset 14, -4
 1662 0002 83B0     		sub	sp, sp, #12
 1663              		.cfi_def_cfa_offset 16
 1664 0004 0190     		str	r0, [sp, #4]
 1665 0006 0091     		str	r1, [sp]
 1666              		.loc 12 128 0
 1667 0008 019B     		ldr	r3, [sp, #4]
 1668 000a 5B68     		ldr	r3, [r3, #4]
 1669 000c 002B     		cmp	r3, #0
 1670 000e 03D1     		bne	.L109
 1671              		.loc 12 128 0 is_stmt 0 discriminator 1
 1672 0010 064B     		ldr	r3, .L110
 1673 0012 1800     		movs	r0, r3
 1674 0014 FFF7FEFF 		bl	chSysHalt
 1675              	.L109:
 1676              		.loc 12 131 0 is_stmt 1
 1677 0018 019B     		ldr	r3, [sp, #4]
 1678 001a 5B68     		ldr	r3, [r3, #4]
 1679 001c 009A     		ldr	r2, [sp]
 1680 001e 1100     		movs	r1, r2
 1681 0020 1800     		movs	r0, r3
 1682 0022 FFF7FEFF 		bl	chMsgRelease
 1683              		.loc 12 132 0
 1684 0026 C046     		nop
 1685 0028 03B0     		add	sp, sp, #12
 1686              		@ sp needed
 1687 002a 00BD     		pop	{pc}
 1688              	.L111:
 1689              		.align	2
 1690              	.L110:
 1691 002c 00000000 		.word	_ZZN10chibios_rt15ThreadReference14releaseMessageElE8__func__
 1692              		.cfi_endproc
 1693              	.LFE200:
 1694              		.size	_ZN10chibios_rt15ThreadReference14releaseMessageEl, .-_ZN10chibios_rt15ThreadReference14rele
 1695              		.section	.text._ZN10chibios_rt15ThreadReference12signalEventsEm,"ax",%progbits
 1696              		.align	1
 1697              		.p2align 4,,15
 1698              		.global	_ZN10chibios_rt15ThreadReference12signalEventsEm
 1699              		.syntax unified
 1700              		.code	16
 1701              		.thumb_func
 1702              		.fpu softvfp
 1703              		.type	_ZN10chibios_rt15ThreadReference12signalEventsEm, %function
 1704              	_ZN10chibios_rt15ThreadReference12signalEventsEm:
 1705              	.LFB201:
 1706              		.loc 12 136 0
ARM GAS  /tmp/ccvPPVYB.s 			page 31


 1707              		.cfi_startproc
 1708              		@ args = 0, pretend = 0, frame = 8
 1709              		@ frame_needed = 0, uses_anonymous_args = 0
 1710 0000 00B5     		push	{lr}
 1711              		.cfi_def_cfa_offset 4
 1712              		.cfi_offset 14, -4
 1713 0002 83B0     		sub	sp, sp, #12
 1714              		.cfi_def_cfa_offset 16
 1715 0004 0190     		str	r0, [sp, #4]
 1716 0006 0091     		str	r1, [sp]
 1717              		.loc 12 138 0
 1718 0008 019B     		ldr	r3, [sp, #4]
 1719 000a 5B68     		ldr	r3, [r3, #4]
 1720 000c 002B     		cmp	r3, #0
 1721 000e 03D1     		bne	.L113
 1722              		.loc 12 138 0 is_stmt 0 discriminator 1
 1723 0010 064B     		ldr	r3, .L114
 1724 0012 1800     		movs	r0, r3
 1725 0014 FFF7FEFF 		bl	chSysHalt
 1726              	.L113:
 1727              		.loc 12 141 0 is_stmt 1
 1728 0018 019B     		ldr	r3, [sp, #4]
 1729 001a 5B68     		ldr	r3, [r3, #4]
 1730 001c 009A     		ldr	r2, [sp]
 1731 001e 1100     		movs	r1, r2
 1732 0020 1800     		movs	r0, r3
 1733 0022 FFF7FEFF 		bl	chEvtSignal
 1734              		.loc 12 142 0
 1735 0026 C046     		nop
 1736 0028 03B0     		add	sp, sp, #12
 1737              		@ sp needed
 1738 002a 00BD     		pop	{pc}
 1739              	.L115:
 1740              		.align	2
 1741              	.L114:
 1742 002c 00000000 		.word	_ZZN10chibios_rt15ThreadReference12signalEventsEmE8__func__
 1743              		.cfi_endproc
 1744              	.LFE201:
 1745              		.size	_ZN10chibios_rt15ThreadReference12signalEventsEm, .-_ZN10chibios_rt15ThreadReference12signal
 1746              		.section	.text._ZN10chibios_rt15ThreadReference13signalEventsIEm,"ax",%progbits
 1747              		.align	1
 1748              		.p2align 4,,15
 1749              		.global	_ZN10chibios_rt15ThreadReference13signalEventsIEm
 1750              		.syntax unified
 1751              		.code	16
 1752              		.thumb_func
 1753              		.fpu softvfp
 1754              		.type	_ZN10chibios_rt15ThreadReference13signalEventsIEm, %function
 1755              	_ZN10chibios_rt15ThreadReference13signalEventsIEm:
 1756              	.LFB202:
 1757              		.loc 12 144 0
 1758              		.cfi_startproc
 1759              		@ args = 0, pretend = 0, frame = 8
 1760              		@ frame_needed = 0, uses_anonymous_args = 0
 1761 0000 00B5     		push	{lr}
 1762              		.cfi_def_cfa_offset 4
 1763              		.cfi_offset 14, -4
ARM GAS  /tmp/ccvPPVYB.s 			page 32


 1764 0002 83B0     		sub	sp, sp, #12
 1765              		.cfi_def_cfa_offset 16
 1766 0004 0190     		str	r0, [sp, #4]
 1767 0006 0091     		str	r1, [sp]
 1768              		.loc 12 146 0
 1769 0008 019B     		ldr	r3, [sp, #4]
 1770 000a 5B68     		ldr	r3, [r3, #4]
 1771 000c 002B     		cmp	r3, #0
 1772 000e 03D1     		bne	.L117
 1773              		.loc 12 146 0 is_stmt 0 discriminator 1
 1774 0010 064B     		ldr	r3, .L118
 1775 0012 1800     		movs	r0, r3
 1776 0014 FFF7FEFF 		bl	chSysHalt
 1777              	.L117:
 1778              		.loc 12 149 0 is_stmt 1
 1779 0018 019B     		ldr	r3, [sp, #4]
 1780 001a 5B68     		ldr	r3, [r3, #4]
 1781 001c 009A     		ldr	r2, [sp]
 1782 001e 1100     		movs	r1, r2
 1783 0020 1800     		movs	r0, r3
 1784 0022 FFF7FEFF 		bl	chEvtSignalI
 1785              		.loc 12 150 0
 1786 0026 C046     		nop
 1787 0028 03B0     		add	sp, sp, #12
 1788              		@ sp needed
 1789 002a 00BD     		pop	{pc}
 1790              	.L119:
 1791              		.align	2
 1792              	.L118:
 1793 002c 00000000 		.word	_ZZN10chibios_rt15ThreadReference13signalEventsIEmE8__func__
 1794              		.cfi_endproc
 1795              	.LFE202:
 1796              		.size	_ZN10chibios_rt15ThreadReference13signalEventsIEm, .-_ZN10chibios_rt15ThreadReference13signa
 1797              		.section	.text._ZN10chibios_rt10BaseThreadC2Ev,"ax",%progbits
 1798              		.align	1
 1799              		.p2align 4,,15
 1800              		.global	_ZN10chibios_rt10BaseThreadC2Ev
 1801              		.syntax unified
 1802              		.code	16
 1803              		.thumb_func
 1804              		.fpu softvfp
 1805              		.type	_ZN10chibios_rt10BaseThreadC2Ev, %function
 1806              	_ZN10chibios_rt10BaseThreadC2Ev:
 1807              	.LFB204:
 1808              		.loc 12 159 0
 1809              		.cfi_startproc
 1810              		@ args = 0, pretend = 0, frame = 8
 1811              		@ frame_needed = 0, uses_anonymous_args = 0
 1812 0000 00B5     		push	{lr}
 1813              		.cfi_def_cfa_offset 4
 1814              		.cfi_offset 14, -4
 1815 0002 83B0     		sub	sp, sp, #12
 1816              		.cfi_def_cfa_offset 16
 1817 0004 0190     		str	r0, [sp, #4]
 1818              	.LBB11:
 1819              		.loc 12 159 0
 1820 0006 019B     		ldr	r3, [sp, #4]
ARM GAS  /tmp/ccvPPVYB.s 			page 33


 1821 0008 0021     		movs	r1, #0
 1822 000a 1800     		movs	r0, r3
 1823 000c FFF7FEFF 		bl	_ZN10chibios_rt15ThreadReferenceC2EP9ch_thread
 1824 0010 034A     		ldr	r2, .L122
 1825 0012 019B     		ldr	r3, [sp, #4]
 1826 0014 1A60     		str	r2, [r3]
 1827              	.LBE11:
 1828              		.loc 12 161 0
 1829 0016 019B     		ldr	r3, [sp, #4]
 1830 0018 1800     		movs	r0, r3
 1831 001a 03B0     		add	sp, sp, #12
 1832              		@ sp needed
 1833 001c 00BD     		pop	{pc}
 1834              	.L123:
 1835 001e C046     		.align	2
 1836              	.L122:
 1837 0020 08000000 		.word	_ZTVN10chibios_rt10BaseThreadE+8
 1838              		.cfi_endproc
 1839              	.LFE204:
 1840              		.size	_ZN10chibios_rt10BaseThreadC2Ev, .-_ZN10chibios_rt10BaseThreadC2Ev
 1841              		.global	_ZN10chibios_rt10BaseThreadC1Ev
 1842              		.thumb_set _ZN10chibios_rt10BaseThreadC1Ev,_ZN10chibios_rt10BaseThreadC2Ev
 1843              		.section	.text._ZN10chibios_rt10BaseThread4mainEv,"ax",%progbits
 1844              		.align	1
 1845              		.p2align 4,,15
 1846              		.global	_ZN10chibios_rt10BaseThread4mainEv
 1847              		.syntax unified
 1848              		.code	16
 1849              		.thumb_func
 1850              		.fpu softvfp
 1851              		.type	_ZN10chibios_rt10BaseThread4mainEv, %function
 1852              	_ZN10chibios_rt10BaseThread4mainEv:
 1853              	.LFB206:
 1854              		.loc 12 163 0
 1855              		.cfi_startproc
 1856              		@ args = 0, pretend = 0, frame = 8
 1857              		@ frame_needed = 0, uses_anonymous_args = 0
 1858              		@ link register save eliminated.
 1859 0000 82B0     		sub	sp, sp, #8
 1860              		.cfi_def_cfa_offset 8
 1861 0002 0190     		str	r0, [sp, #4]
 1862              		.loc 12 165 0
 1863 0004 C046     		nop
 1864 0006 02B0     		add	sp, sp, #8
 1865              		@ sp needed
 1866 0008 7047     		bx	lr
 1867              		.cfi_endproc
 1868              	.LFE206:
 1869              		.size	_ZN10chibios_rt10BaseThread4mainEv, .-_ZN10chibios_rt10BaseThread4mainEv
 1870              		.section	.text._ZN10chibios_rt15ThreadReferenceC2ERKS0_,"axG",%progbits,_ZN10chibios_rt15ThreadRef
 1871              		.align	1
 1872              		.p2align 4,,15
 1873              		.weak	_ZN10chibios_rt15ThreadReferenceC2ERKS0_
 1874              		.syntax unified
 1875              		.code	16
 1876              		.thumb_func
 1877              		.fpu softvfp
ARM GAS  /tmp/ccvPPVYB.s 			page 34


 1878              		.type	_ZN10chibios_rt15ThreadReferenceC2ERKS0_, %function
 1879              	_ZN10chibios_rt15ThreadReferenceC2ERKS0_:
 1880              	.LFB209:
 1881              		.loc 11 397 0
 1882              		.cfi_startproc
 1883              		@ args = 0, pretend = 0, frame = 8
 1884              		@ frame_needed = 0, uses_anonymous_args = 0
 1885              		@ link register save eliminated.
 1886 0000 82B0     		sub	sp, sp, #8
 1887              		.cfi_def_cfa_offset 8
 1888 0002 0190     		str	r0, [sp, #4]
 1889 0004 0091     		str	r1, [sp]
 1890              	.LBB12:
 1891              		.loc 11 397 0
 1892 0006 054A     		ldr	r2, .L127
 1893 0008 019B     		ldr	r3, [sp, #4]
 1894 000a 1A60     		str	r2, [r3]
 1895 000c 009B     		ldr	r3, [sp]
 1896 000e 5A68     		ldr	r2, [r3, #4]
 1897 0010 019B     		ldr	r3, [sp, #4]
 1898 0012 5A60     		str	r2, [r3, #4]
 1899              	.LBE12:
 1900 0014 019B     		ldr	r3, [sp, #4]
 1901 0016 1800     		movs	r0, r3
 1902 0018 02B0     		add	sp, sp, #8
 1903              		@ sp needed
 1904 001a 7047     		bx	lr
 1905              	.L128:
 1906              		.align	2
 1907              	.L127:
 1908 001c 08000000 		.word	_ZTVN10chibios_rt15ThreadReferenceE+8
 1909              		.cfi_endproc
 1910              	.LFE209:
 1911              		.size	_ZN10chibios_rt15ThreadReferenceC2ERKS0_, .-_ZN10chibios_rt15ThreadReferenceC2ERKS0_
 1912              		.weak	_ZN10chibios_rt15ThreadReferenceC1ERKS0_
 1913              		.thumb_set _ZN10chibios_rt15ThreadReferenceC1ERKS0_,_ZN10chibios_rt15ThreadReferenceC2ERKS0_
 1914              		.section	.text._ZN10chibios_rt10BaseThread5startEm,"ax",%progbits
 1915              		.align	1
 1916              		.p2align 4,,15
 1917              		.global	_ZN10chibios_rt10BaseThread5startEm
 1918              		.syntax unified
 1919              		.code	16
 1920              		.thumb_func
 1921              		.fpu softvfp
 1922              		.type	_ZN10chibios_rt10BaseThread5startEm, %function
 1923              	_ZN10chibios_rt10BaseThread5startEm:
 1924              	.LFB207:
 1925              		.loc 12 167 0
 1926              		.cfi_startproc
 1927              		@ args = 0, pretend = 0, frame = 16
 1928              		@ frame_needed = 0, uses_anonymous_args = 0
 1929 0000 00B5     		push	{lr}
 1930              		.cfi_def_cfa_offset 4
 1931              		.cfi_offset 14, -4
 1932 0002 85B0     		sub	sp, sp, #20
 1933              		.cfi_def_cfa_offset 24
 1934 0004 0390     		str	r0, [sp, #12]
ARM GAS  /tmp/ccvPPVYB.s 			page 35


 1935 0006 0291     		str	r1, [sp, #8]
 1936 0008 0192     		str	r2, [sp, #4]
 1937              		.loc 12 171 0
 1938 000a 029A     		ldr	r2, [sp, #8]
 1939 000c 039B     		ldr	r3, [sp, #12]
 1940 000e 1100     		movs	r1, r2
 1941 0010 1800     		movs	r0, r3
 1942 0012 FFF7FEFF 		bl	_ZN10chibios_rt15ThreadReferenceC1ERKS0_
 1943              		.loc 12 172 0
 1944 0016 0398     		ldr	r0, [sp, #12]
 1945 0018 05B0     		add	sp, sp, #20
 1946              		@ sp needed
 1947 001a 00BD     		pop	{pc}
 1948              		.cfi_endproc
 1949              	.LFE207:
 1950              		.size	_ZN10chibios_rt10BaseThread5startEm, .-_ZN10chibios_rt10BaseThread5startEm
 1951              		.section	.text._ZN10chibios_rt10_thd_startEPv,"ax",%progbits
 1952              		.align	1
 1953              		.p2align 4,,15
 1954              		.global	_ZN10chibios_rt10_thd_startEPv
 1955              		.syntax unified
 1956              		.code	16
 1957              		.thumb_func
 1958              		.fpu softvfp
 1959              		.type	_ZN10chibios_rt10_thd_startEPv, %function
 1960              	_ZN10chibios_rt10_thd_startEPv:
 1961              	.LFB211:
 1962              		.loc 12 174 0
 1963              		.cfi_startproc
 1964              		@ args = 0, pretend = 0, frame = 8
 1965              		@ frame_needed = 0, uses_anonymous_args = 0
 1966 0000 00B5     		push	{lr}
 1967              		.cfi_def_cfa_offset 4
 1968              		.cfi_offset 14, -4
 1969 0002 83B0     		sub	sp, sp, #12
 1970              		.cfi_def_cfa_offset 16
 1971 0004 0190     		str	r0, [sp, #4]
 1972              		.loc 12 176 0
 1973 0006 019B     		ldr	r3, [sp, #4]
 1974 0008 1B68     		ldr	r3, [r3]
 1975 000a 0433     		adds	r3, r3, #4
 1976 000c 1B68     		ldr	r3, [r3]
 1977 000e 019A     		ldr	r2, [sp, #4]
 1978 0010 1000     		movs	r0, r2
 1979 0012 9847     		blx	r3
 1980              	.LVL0:
 1981              		.loc 12 177 0
 1982 0014 C046     		nop
 1983 0016 03B0     		add	sp, sp, #12
 1984              		@ sp needed
 1985 0018 00BD     		pop	{pc}
 1986              		.cfi_endproc
 1987              	.LFE211:
 1988              		.size	_ZN10chibios_rt10_thd_startEPv, .-_ZN10chibios_rt10_thd_startEPv
 1989 001a C046     		.section	.text._ZN10chibios_rt10BaseThread7setNameEPKc,"ax",%progbits
 1990              		.align	1
 1991              		.p2align 4,,15
ARM GAS  /tmp/ccvPPVYB.s 			page 36


 1992              		.global	_ZN10chibios_rt10BaseThread7setNameEPKc
 1993              		.syntax unified
 1994              		.code	16
 1995              		.thumb_func
 1996              		.fpu softvfp
 1997              		.type	_ZN10chibios_rt10BaseThread7setNameEPKc, %function
 1998              	_ZN10chibios_rt10BaseThread7setNameEPKc:
 1999              	.LFB212:
 2000              		.loc 12 179 0
 2001              		.cfi_startproc
 2002              		@ args = 0, pretend = 0, frame = 8
 2003              		@ frame_needed = 0, uses_anonymous_args = 0
 2004 0000 00B5     		push	{lr}
 2005              		.cfi_def_cfa_offset 4
 2006              		.cfi_offset 14, -4
 2007 0002 83B0     		sub	sp, sp, #12
 2008              		.cfi_def_cfa_offset 16
 2009 0004 0190     		str	r0, [sp, #4]
 2010              		.loc 12 181 0
 2011 0006 019B     		ldr	r3, [sp, #4]
 2012 0008 1800     		movs	r0, r3
 2013 000a FFF7FEFF 		bl	_ZL18chRegSetThreadNamePKc
 2014              		.loc 12 182 0
 2015 000e C046     		nop
 2016 0010 03B0     		add	sp, sp, #12
 2017              		@ sp needed
 2018 0012 00BD     		pop	{pc}
 2019              		.cfi_endproc
 2020              	.LFE212:
 2021              		.size	_ZN10chibios_rt10BaseThread7setNameEPKc, .-_ZN10chibios_rt10BaseThread7setNameEPKc
 2022              		.section	.text._ZN10chibios_rt10BaseThread11setPriorityEm,"ax",%progbits
 2023              		.align	1
 2024              		.p2align 4,,15
 2025              		.global	_ZN10chibios_rt10BaseThread11setPriorityEm
 2026              		.syntax unified
 2027              		.code	16
 2028              		.thumb_func
 2029              		.fpu softvfp
 2030              		.type	_ZN10chibios_rt10BaseThread11setPriorityEm, %function
 2031              	_ZN10chibios_rt10BaseThread11setPriorityEm:
 2032              	.LFB213:
 2033              		.loc 12 184 0
 2034              		.cfi_startproc
 2035              		@ args = 0, pretend = 0, frame = 8
 2036              		@ frame_needed = 0, uses_anonymous_args = 0
 2037 0000 00B5     		push	{lr}
 2038              		.cfi_def_cfa_offset 4
 2039              		.cfi_offset 14, -4
 2040 0002 83B0     		sub	sp, sp, #12
 2041              		.cfi_def_cfa_offset 16
 2042 0004 0190     		str	r0, [sp, #4]
 2043              		.loc 12 186 0
 2044 0006 019B     		ldr	r3, [sp, #4]
 2045 0008 1800     		movs	r0, r3
 2046 000a FFF7FEFF 		bl	chThdSetPriority
 2047 000e 0300     		movs	r3, r0
 2048              		.loc 12 187 0
ARM GAS  /tmp/ccvPPVYB.s 			page 37


 2049 0010 1800     		movs	r0, r3
 2050 0012 03B0     		add	sp, sp, #12
 2051              		@ sp needed
 2052 0014 00BD     		pop	{pc}
 2053              		.cfi_endproc
 2054              	.LFE213:
 2055              		.size	_ZN10chibios_rt10BaseThread11setPriorityEm, .-_ZN10chibios_rt10BaseThread11setPriorityEm
 2056 0016 C046     		.section	.text._ZN10chibios_rt10BaseThread4exitEl,"ax",%progbits
 2057              		.align	1
 2058              		.p2align 4,,15
 2059              		.global	_ZN10chibios_rt10BaseThread4exitEl
 2060              		.syntax unified
 2061              		.code	16
 2062              		.thumb_func
 2063              		.fpu softvfp
 2064              		.type	_ZN10chibios_rt10BaseThread4exitEl, %function
 2065              	_ZN10chibios_rt10BaseThread4exitEl:
 2066              	.LFB214:
 2067              		.loc 12 189 0
 2068              		.cfi_startproc
 2069              		@ args = 0, pretend = 0, frame = 8
 2070              		@ frame_needed = 0, uses_anonymous_args = 0
 2071 0000 00B5     		push	{lr}
 2072              		.cfi_def_cfa_offset 4
 2073              		.cfi_offset 14, -4
 2074 0002 83B0     		sub	sp, sp, #12
 2075              		.cfi_def_cfa_offset 16
 2076 0004 0190     		str	r0, [sp, #4]
 2077              		.loc 12 191 0
 2078 0006 019B     		ldr	r3, [sp, #4]
 2079 0008 1800     		movs	r0, r3
 2080 000a FFF7FEFF 		bl	chThdExit
 2081              		.loc 12 192 0
 2082 000e C046     		nop
 2083 0010 03B0     		add	sp, sp, #12
 2084              		@ sp needed
 2085 0012 00BD     		pop	{pc}
 2086              		.cfi_endproc
 2087              	.LFE214:
 2088              		.size	_ZN10chibios_rt10BaseThread4exitEl, .-_ZN10chibios_rt10BaseThread4exitEl
 2089              		.section	.text._ZN10chibios_rt10BaseThread5exitSEl,"ax",%progbits
 2090              		.align	1
 2091              		.p2align 4,,15
 2092              		.global	_ZN10chibios_rt10BaseThread5exitSEl
 2093              		.syntax unified
 2094              		.code	16
 2095              		.thumb_func
 2096              		.fpu softvfp
 2097              		.type	_ZN10chibios_rt10BaseThread5exitSEl, %function
 2098              	_ZN10chibios_rt10BaseThread5exitSEl:
 2099              	.LFB215:
 2100              		.loc 12 194 0
 2101              		.cfi_startproc
 2102              		@ args = 0, pretend = 0, frame = 8
 2103              		@ frame_needed = 0, uses_anonymous_args = 0
 2104 0000 00B5     		push	{lr}
 2105              		.cfi_def_cfa_offset 4
ARM GAS  /tmp/ccvPPVYB.s 			page 38


 2106              		.cfi_offset 14, -4
 2107 0002 83B0     		sub	sp, sp, #12
 2108              		.cfi_def_cfa_offset 16
 2109 0004 0190     		str	r0, [sp, #4]
 2110              		.loc 12 196 0
 2111 0006 019B     		ldr	r3, [sp, #4]
 2112 0008 1800     		movs	r0, r3
 2113 000a FFF7FEFF 		bl	chThdExitS
 2114              		.loc 12 197 0
 2115 000e C046     		nop
 2116 0010 03B0     		add	sp, sp, #12
 2117              		@ sp needed
 2118 0012 00BD     		pop	{pc}
 2119              		.cfi_endproc
 2120              	.LFE215:
 2121              		.size	_ZN10chibios_rt10BaseThread5exitSEl, .-_ZN10chibios_rt10BaseThread5exitSEl
 2122              		.section	.text._ZN10chibios_rt10BaseThread15shouldTerminateEv,"ax",%progbits
 2123              		.align	1
 2124              		.p2align 4,,15
 2125              		.global	_ZN10chibios_rt10BaseThread15shouldTerminateEv
 2126              		.syntax unified
 2127              		.code	16
 2128              		.thumb_func
 2129              		.fpu softvfp
 2130              		.type	_ZN10chibios_rt10BaseThread15shouldTerminateEv, %function
 2131              	_ZN10chibios_rt10BaseThread15shouldTerminateEv:
 2132              	.LFB216:
 2133              		.loc 12 199 0
 2134              		.cfi_startproc
 2135              		@ args = 0, pretend = 0, frame = 0
 2136              		@ frame_needed = 0, uses_anonymous_args = 0
 2137 0000 10B5     		push	{r4, lr}
 2138              		.cfi_def_cfa_offset 8
 2139              		.cfi_offset 4, -8
 2140              		.cfi_offset 14, -4
 2141              		.loc 12 201 0
 2142 0002 FFF7FEFF 		bl	_ZL21chThdShouldTerminateXv
 2143 0006 0300     		movs	r3, r0
 2144              		.loc 12 202 0
 2145 0008 1800     		movs	r0, r3
 2146              		@ sp needed
 2147 000a 10BD     		pop	{r4, pc}
 2148              		.cfi_endproc
 2149              	.LFE216:
 2150              		.size	_ZN10chibios_rt10BaseThread15shouldTerminateEv, .-_ZN10chibios_rt10BaseThread15shouldTermina
 2151              		.section	.text._ZN10chibios_rt10BaseThread5sleepEt,"ax",%progbits
 2152              		.align	1
 2153              		.p2align 4,,15
 2154              		.global	_ZN10chibios_rt10BaseThread5sleepEt
 2155              		.syntax unified
 2156              		.code	16
 2157              		.thumb_func
 2158              		.fpu softvfp
 2159              		.type	_ZN10chibios_rt10BaseThread5sleepEt, %function
 2160              	_ZN10chibios_rt10BaseThread5sleepEt:
 2161              	.LFB217:
 2162              		.loc 12 204 0
ARM GAS  /tmp/ccvPPVYB.s 			page 39


 2163              		.cfi_startproc
 2164              		@ args = 0, pretend = 0, frame = 8
 2165              		@ frame_needed = 0, uses_anonymous_args = 0
 2166 0000 00B5     		push	{lr}
 2167              		.cfi_def_cfa_offset 4
 2168              		.cfi_offset 14, -4
 2169 0002 83B0     		sub	sp, sp, #12
 2170              		.cfi_def_cfa_offset 16
 2171 0004 0200     		movs	r2, r0
 2172 0006 6B46     		mov	r3, sp
 2173 0008 0633     		adds	r3, r3, #6
 2174 000a 1A80     		strh	r2, [r3]
 2175              		.loc 12 206 0
 2176 000c 6B46     		mov	r3, sp
 2177 000e 0633     		adds	r3, r3, #6
 2178 0010 1B88     		ldrh	r3, [r3]
 2179 0012 1800     		movs	r0, r3
 2180 0014 FFF7FEFF 		bl	chThdSleep
 2181              		.loc 12 207 0
 2182 0018 C046     		nop
 2183 001a 03B0     		add	sp, sp, #12
 2184              		@ sp needed
 2185 001c 00BD     		pop	{pc}
 2186              		.cfi_endproc
 2187              	.LFE217:
 2188              		.size	_ZN10chibios_rt10BaseThread5sleepEt, .-_ZN10chibios_rt10BaseThread5sleepEt
 2189 001e C046     		.section	.text._ZN10chibios_rt10BaseThread10sleepUntilEt,"ax",%progbits
 2190              		.align	1
 2191              		.p2align 4,,15
 2192              		.global	_ZN10chibios_rt10BaseThread10sleepUntilEt
 2193              		.syntax unified
 2194              		.code	16
 2195              		.thumb_func
 2196              		.fpu softvfp
 2197              		.type	_ZN10chibios_rt10BaseThread10sleepUntilEt, %function
 2198              	_ZN10chibios_rt10BaseThread10sleepUntilEt:
 2199              	.LFB218:
 2200              		.loc 12 209 0
 2201              		.cfi_startproc
 2202              		@ args = 0, pretend = 0, frame = 8
 2203              		@ frame_needed = 0, uses_anonymous_args = 0
 2204 0000 00B5     		push	{lr}
 2205              		.cfi_def_cfa_offset 4
 2206              		.cfi_offset 14, -4
 2207 0002 83B0     		sub	sp, sp, #12
 2208              		.cfi_def_cfa_offset 16
 2209 0004 0200     		movs	r2, r0
 2210 0006 6B46     		mov	r3, sp
 2211 0008 0633     		adds	r3, r3, #6
 2212 000a 1A80     		strh	r2, [r3]
 2213              		.loc 12 211 0
 2214 000c 6B46     		mov	r3, sp
 2215 000e 0633     		adds	r3, r3, #6
 2216 0010 1B88     		ldrh	r3, [r3]
 2217 0012 1800     		movs	r0, r3
 2218 0014 FFF7FEFF 		bl	chThdSleepUntil
 2219              		.loc 12 212 0
ARM GAS  /tmp/ccvPPVYB.s 			page 40


 2220 0018 C046     		nop
 2221 001a 03B0     		add	sp, sp, #12
 2222              		@ sp needed
 2223 001c 00BD     		pop	{pc}
 2224              		.cfi_endproc
 2225              	.LFE218:
 2226              		.size	_ZN10chibios_rt10BaseThread10sleepUntilEt, .-_ZN10chibios_rt10BaseThread10sleepUntilEt
 2227 001e C046     		.section	.text._ZN10chibios_rt10BaseThread5yieldEv,"ax",%progbits
 2228              		.align	1
 2229              		.p2align 4,,15
 2230              		.global	_ZN10chibios_rt10BaseThread5yieldEv
 2231              		.syntax unified
 2232              		.code	16
 2233              		.thumb_func
 2234              		.fpu softvfp
 2235              		.type	_ZN10chibios_rt10BaseThread5yieldEv, %function
 2236              	_ZN10chibios_rt10BaseThread5yieldEv:
 2237              	.LFB219:
 2238              		.loc 12 214 0
 2239              		.cfi_startproc
 2240              		@ args = 0, pretend = 0, frame = 0
 2241              		@ frame_needed = 0, uses_anonymous_args = 0
 2242 0000 10B5     		push	{r4, lr}
 2243              		.cfi_def_cfa_offset 8
 2244              		.cfi_offset 4, -8
 2245              		.cfi_offset 14, -4
 2246              		.loc 12 216 0
 2247 0002 FFF7FEFF 		bl	chThdYield
 2248              		.loc 12 217 0
 2249 0006 C046     		nop
 2250              		@ sp needed
 2251 0008 10BD     		pop	{r4, pc}
 2252              		.cfi_endproc
 2253              	.LFE219:
 2254              		.size	_ZN10chibios_rt10BaseThread5yieldEv, .-_ZN10chibios_rt10BaseThread5yieldEv
 2255 000a C046     		.section	.text._ZN10chibios_rt10BaseThread11waitMessageEv,"ax",%progbits
 2256              		.align	1
 2257              		.p2align 4,,15
 2258              		.global	_ZN10chibios_rt10BaseThread11waitMessageEv
 2259              		.syntax unified
 2260              		.code	16
 2261              		.thumb_func
 2262              		.fpu softvfp
 2263              		.type	_ZN10chibios_rt10BaseThread11waitMessageEv, %function
 2264              	_ZN10chibios_rt10BaseThread11waitMessageEv:
 2265              	.LFB220:
 2266              		.loc 12 220 0
 2267              		.cfi_startproc
 2268              		@ args = 0, pretend = 0, frame = 8
 2269              		@ frame_needed = 0, uses_anonymous_args = 0
 2270 0000 00B5     		push	{lr}
 2271              		.cfi_def_cfa_offset 4
 2272              		.cfi_offset 14, -4
 2273 0002 83B0     		sub	sp, sp, #12
 2274              		.cfi_def_cfa_offset 16
 2275 0004 0190     		str	r0, [sp, #4]
 2276              		.loc 12 222 0
ARM GAS  /tmp/ccvPPVYB.s 			page 41


 2277 0006 FFF7FEFF 		bl	chMsgWait
 2278 000a 0200     		movs	r2, r0
 2279 000c 019B     		ldr	r3, [sp, #4]
 2280 000e 1100     		movs	r1, r2
 2281 0010 1800     		movs	r0, r3
 2282 0012 FFF7FEFF 		bl	_ZN10chibios_rt15ThreadReferenceC1EP9ch_thread
 2283              		.loc 12 223 0
 2284 0016 C046     		nop
 2285              		.loc 12 224 0
 2286 0018 0198     		ldr	r0, [sp, #4]
 2287 001a 03B0     		add	sp, sp, #12
 2288              		@ sp needed
 2289 001c 00BD     		pop	{pc}
 2290              		.cfi_endproc
 2291              	.LFE220:
 2292              		.size	_ZN10chibios_rt10BaseThread11waitMessageEv, .-_ZN10chibios_rt10BaseThread11waitMessageEv
 2293 001e C046     		.section	.text._ZN10chibios_rt10BaseThread17getAndClearEventsEm,"ax",%progbits
 2294              		.align	1
 2295              		.p2align 4,,15
 2296              		.global	_ZN10chibios_rt10BaseThread17getAndClearEventsEm
 2297              		.syntax unified
 2298              		.code	16
 2299              		.thumb_func
 2300              		.fpu softvfp
 2301              		.type	_ZN10chibios_rt10BaseThread17getAndClearEventsEm, %function
 2302              	_ZN10chibios_rt10BaseThread17getAndClearEventsEm:
 2303              	.LFB224:
 2304              		.loc 12 228 0
 2305              		.cfi_startproc
 2306              		@ args = 0, pretend = 0, frame = 8
 2307              		@ frame_needed = 0, uses_anonymous_args = 0
 2308 0000 00B5     		push	{lr}
 2309              		.cfi_def_cfa_offset 4
 2310              		.cfi_offset 14, -4
 2311 0002 83B0     		sub	sp, sp, #12
 2312              		.cfi_def_cfa_offset 16
 2313 0004 0190     		str	r0, [sp, #4]
 2314              		.loc 12 230 0
 2315 0006 019B     		ldr	r3, [sp, #4]
 2316 0008 1800     		movs	r0, r3
 2317 000a FFF7FEFF 		bl	chEvtGetAndClearEvents
 2318 000e 0300     		movs	r3, r0
 2319              		.loc 12 231 0
 2320 0010 1800     		movs	r0, r3
 2321 0012 03B0     		add	sp, sp, #12
 2322              		@ sp needed
 2323 0014 00BD     		pop	{pc}
 2324              		.cfi_endproc
 2325              	.LFE224:
 2326              		.size	_ZN10chibios_rt10BaseThread17getAndClearEventsEm, .-_ZN10chibios_rt10BaseThread17getAndClear
 2327 0016 C046     		.section	.text._ZN10chibios_rt10BaseThread9addEventsEm,"ax",%progbits
 2328              		.align	1
 2329              		.p2align 4,,15
 2330              		.global	_ZN10chibios_rt10BaseThread9addEventsEm
 2331              		.syntax unified
 2332              		.code	16
 2333              		.thumb_func
ARM GAS  /tmp/ccvPPVYB.s 			page 42


 2334              		.fpu softvfp
 2335              		.type	_ZN10chibios_rt10BaseThread9addEventsEm, %function
 2336              	_ZN10chibios_rt10BaseThread9addEventsEm:
 2337              	.LFB225:
 2338              		.loc 12 233 0
 2339              		.cfi_startproc
 2340              		@ args = 0, pretend = 0, frame = 8
 2341              		@ frame_needed = 0, uses_anonymous_args = 0
 2342 0000 00B5     		push	{lr}
 2343              		.cfi_def_cfa_offset 4
 2344              		.cfi_offset 14, -4
 2345 0002 83B0     		sub	sp, sp, #12
 2346              		.cfi_def_cfa_offset 16
 2347 0004 0190     		str	r0, [sp, #4]
 2348              		.loc 12 235 0
 2349 0006 019B     		ldr	r3, [sp, #4]
 2350 0008 1800     		movs	r0, r3
 2351 000a FFF7FEFF 		bl	chEvtAddEvents
 2352 000e 0300     		movs	r3, r0
 2353              		.loc 12 236 0
 2354 0010 1800     		movs	r0, r3
 2355 0012 03B0     		add	sp, sp, #12
 2356              		@ sp needed
 2357 0014 00BD     		pop	{pc}
 2358              		.cfi_endproc
 2359              	.LFE225:
 2360              		.size	_ZN10chibios_rt10BaseThread9addEventsEm, .-_ZN10chibios_rt10BaseThread9addEventsEm
 2361 0016 C046     		.section	.text._ZN10chibios_rt10BaseThread12waitOneEventEm,"ax",%progbits
 2362              		.align	1
 2363              		.p2align 4,,15
 2364              		.global	_ZN10chibios_rt10BaseThread12waitOneEventEm
 2365              		.syntax unified
 2366              		.code	16
 2367              		.thumb_func
 2368              		.fpu softvfp
 2369              		.type	_ZN10chibios_rt10BaseThread12waitOneEventEm, %function
 2370              	_ZN10chibios_rt10BaseThread12waitOneEventEm:
 2371              	.LFB226:
 2372              		.loc 12 238 0
 2373              		.cfi_startproc
 2374              		@ args = 0, pretend = 0, frame = 8
 2375              		@ frame_needed = 0, uses_anonymous_args = 0
 2376 0000 00B5     		push	{lr}
 2377              		.cfi_def_cfa_offset 4
 2378              		.cfi_offset 14, -4
 2379 0002 83B0     		sub	sp, sp, #12
 2380              		.cfi_def_cfa_offset 16
 2381 0004 0190     		str	r0, [sp, #4]
 2382              		.loc 12 240 0
 2383 0006 019B     		ldr	r3, [sp, #4]
 2384 0008 1800     		movs	r0, r3
 2385 000a FFF7FEFF 		bl	chEvtWaitOne
 2386 000e 0300     		movs	r3, r0
 2387              		.loc 12 241 0
 2388 0010 1800     		movs	r0, r3
 2389 0012 03B0     		add	sp, sp, #12
 2390              		@ sp needed
ARM GAS  /tmp/ccvPPVYB.s 			page 43


 2391 0014 00BD     		pop	{pc}
 2392              		.cfi_endproc
 2393              	.LFE226:
 2394              		.size	_ZN10chibios_rt10BaseThread12waitOneEventEm, .-_ZN10chibios_rt10BaseThread12waitOneEventEm
 2395 0016 C046     		.section	.text._ZN10chibios_rt10BaseThread12waitAnyEventEm,"ax",%progbits
 2396              		.align	1
 2397              		.p2align 4,,15
 2398              		.global	_ZN10chibios_rt10BaseThread12waitAnyEventEm
 2399              		.syntax unified
 2400              		.code	16
 2401              		.thumb_func
 2402              		.fpu softvfp
 2403              		.type	_ZN10chibios_rt10BaseThread12waitAnyEventEm, %function
 2404              	_ZN10chibios_rt10BaseThread12waitAnyEventEm:
 2405              	.LFB227:
 2406              		.loc 12 243 0
 2407              		.cfi_startproc
 2408              		@ args = 0, pretend = 0, frame = 8
 2409              		@ frame_needed = 0, uses_anonymous_args = 0
 2410 0000 00B5     		push	{lr}
 2411              		.cfi_def_cfa_offset 4
 2412              		.cfi_offset 14, -4
 2413 0002 83B0     		sub	sp, sp, #12
 2414              		.cfi_def_cfa_offset 16
 2415 0004 0190     		str	r0, [sp, #4]
 2416              		.loc 12 245 0
 2417 0006 019B     		ldr	r3, [sp, #4]
 2418 0008 1800     		movs	r0, r3
 2419 000a FFF7FEFF 		bl	chEvtWaitAny
 2420 000e 0300     		movs	r3, r0
 2421              		.loc 12 246 0
 2422 0010 1800     		movs	r0, r3
 2423 0012 03B0     		add	sp, sp, #12
 2424              		@ sp needed
 2425 0014 00BD     		pop	{pc}
 2426              		.cfi_endproc
 2427              	.LFE227:
 2428              		.size	_ZN10chibios_rt10BaseThread12waitAnyEventEm, .-_ZN10chibios_rt10BaseThread12waitAnyEventEm
 2429 0016 C046     		.section	.text._ZN10chibios_rt10BaseThread13waitAllEventsEm,"ax",%progbits
 2430              		.align	1
 2431              		.p2align 4,,15
 2432              		.global	_ZN10chibios_rt10BaseThread13waitAllEventsEm
 2433              		.syntax unified
 2434              		.code	16
 2435              		.thumb_func
 2436              		.fpu softvfp
 2437              		.type	_ZN10chibios_rt10BaseThread13waitAllEventsEm, %function
 2438              	_ZN10chibios_rt10BaseThread13waitAllEventsEm:
 2439              	.LFB228:
 2440              		.loc 12 248 0
 2441              		.cfi_startproc
 2442              		@ args = 0, pretend = 0, frame = 8
 2443              		@ frame_needed = 0, uses_anonymous_args = 0
 2444 0000 00B5     		push	{lr}
 2445              		.cfi_def_cfa_offset 4
 2446              		.cfi_offset 14, -4
 2447 0002 83B0     		sub	sp, sp, #12
ARM GAS  /tmp/ccvPPVYB.s 			page 44


 2448              		.cfi_def_cfa_offset 16
 2449 0004 0190     		str	r0, [sp, #4]
 2450              		.loc 12 250 0
 2451 0006 019B     		ldr	r3, [sp, #4]
 2452 0008 1800     		movs	r0, r3
 2453 000a FFF7FEFF 		bl	chEvtWaitAll
 2454 000e 0300     		movs	r3, r0
 2455              		.loc 12 251 0
 2456 0010 1800     		movs	r0, r3
 2457 0012 03B0     		add	sp, sp, #12
 2458              		@ sp needed
 2459 0014 00BD     		pop	{pc}
 2460              		.cfi_endproc
 2461              	.LFE228:
 2462              		.size	_ZN10chibios_rt10BaseThread13waitAllEventsEm, .-_ZN10chibios_rt10BaseThread13waitAllEventsEm
 2463 0016 C046     		.section	.text._ZN10chibios_rt10BaseThread19waitOneEventTimeoutEmt,"ax",%progbits
 2464              		.align	1
 2465              		.p2align 4,,15
 2466              		.global	_ZN10chibios_rt10BaseThread19waitOneEventTimeoutEmt
 2467              		.syntax unified
 2468              		.code	16
 2469              		.thumb_func
 2470              		.fpu softvfp
 2471              		.type	_ZN10chibios_rt10BaseThread19waitOneEventTimeoutEmt, %function
 2472              	_ZN10chibios_rt10BaseThread19waitOneEventTimeoutEmt:
 2473              	.LFB229:
 2474              		.loc 12 255 0
 2475              		.cfi_startproc
 2476              		@ args = 0, pretend = 0, frame = 8
 2477              		@ frame_needed = 0, uses_anonymous_args = 0
 2478 0000 00B5     		push	{lr}
 2479              		.cfi_def_cfa_offset 4
 2480              		.cfi_offset 14, -4
 2481 0002 83B0     		sub	sp, sp, #12
 2482              		.cfi_def_cfa_offset 16
 2483 0004 0190     		str	r0, [sp, #4]
 2484 0006 0A00     		movs	r2, r1
 2485 0008 6B46     		mov	r3, sp
 2486 000a 0233     		adds	r3, r3, #2
 2487 000c 1A80     		strh	r2, [r3]
 2488              		.loc 12 257 0
 2489 000e 6B46     		mov	r3, sp
 2490 0010 0233     		adds	r3, r3, #2
 2491 0012 1A88     		ldrh	r2, [r3]
 2492 0014 019B     		ldr	r3, [sp, #4]
 2493 0016 1100     		movs	r1, r2
 2494 0018 1800     		movs	r0, r3
 2495 001a FFF7FEFF 		bl	chEvtWaitOneTimeout
 2496 001e 0300     		movs	r3, r0
 2497              		.loc 12 258 0
 2498 0020 1800     		movs	r0, r3
 2499 0022 03B0     		add	sp, sp, #12
 2500              		@ sp needed
 2501 0024 00BD     		pop	{pc}
 2502              		.cfi_endproc
 2503              	.LFE229:
 2504              		.size	_ZN10chibios_rt10BaseThread19waitOneEventTimeoutEmt, .-_ZN10chibios_rt10BaseThread19waitOneE
ARM GAS  /tmp/ccvPPVYB.s 			page 45


 2505 0026 C046     		.section	.text._ZN10chibios_rt10BaseThread19waitAnyEventTimeoutEmt,"ax",%progbits
 2506              		.align	1
 2507              		.p2align 4,,15
 2508              		.global	_ZN10chibios_rt10BaseThread19waitAnyEventTimeoutEmt
 2509              		.syntax unified
 2510              		.code	16
 2511              		.thumb_func
 2512              		.fpu softvfp
 2513              		.type	_ZN10chibios_rt10BaseThread19waitAnyEventTimeoutEmt, %function
 2514              	_ZN10chibios_rt10BaseThread19waitAnyEventTimeoutEmt:
 2515              	.LFB230:
 2516              		.loc 12 261 0
 2517              		.cfi_startproc
 2518              		@ args = 0, pretend = 0, frame = 8
 2519              		@ frame_needed = 0, uses_anonymous_args = 0
 2520 0000 00B5     		push	{lr}
 2521              		.cfi_def_cfa_offset 4
 2522              		.cfi_offset 14, -4
 2523 0002 83B0     		sub	sp, sp, #12
 2524              		.cfi_def_cfa_offset 16
 2525 0004 0190     		str	r0, [sp, #4]
 2526 0006 0A00     		movs	r2, r1
 2527 0008 6B46     		mov	r3, sp
 2528 000a 0233     		adds	r3, r3, #2
 2529 000c 1A80     		strh	r2, [r3]
 2530              		.loc 12 263 0
 2531 000e 6B46     		mov	r3, sp
 2532 0010 0233     		adds	r3, r3, #2
 2533 0012 1A88     		ldrh	r2, [r3]
 2534 0014 019B     		ldr	r3, [sp, #4]
 2535 0016 1100     		movs	r1, r2
 2536 0018 1800     		movs	r0, r3
 2537 001a FFF7FEFF 		bl	chEvtWaitAnyTimeout
 2538 001e 0300     		movs	r3, r0
 2539              		.loc 12 264 0
 2540 0020 1800     		movs	r0, r3
 2541 0022 03B0     		add	sp, sp, #12
 2542              		@ sp needed
 2543 0024 00BD     		pop	{pc}
 2544              		.cfi_endproc
 2545              	.LFE230:
 2546              		.size	_ZN10chibios_rt10BaseThread19waitAnyEventTimeoutEmt, .-_ZN10chibios_rt10BaseThread19waitAnyE
 2547 0026 C046     		.section	.text._ZN10chibios_rt10BaseThread20waitAllEventsTimeoutEmt,"ax",%progbits
 2548              		.align	1
 2549              		.p2align 4,,15
 2550              		.global	_ZN10chibios_rt10BaseThread20waitAllEventsTimeoutEmt
 2551              		.syntax unified
 2552              		.code	16
 2553              		.thumb_func
 2554              		.fpu softvfp
 2555              		.type	_ZN10chibios_rt10BaseThread20waitAllEventsTimeoutEmt, %function
 2556              	_ZN10chibios_rt10BaseThread20waitAllEventsTimeoutEmt:
 2557              	.LFB231:
 2558              		.loc 12 267 0
 2559              		.cfi_startproc
 2560              		@ args = 0, pretend = 0, frame = 8
 2561              		@ frame_needed = 0, uses_anonymous_args = 0
ARM GAS  /tmp/ccvPPVYB.s 			page 46


 2562 0000 00B5     		push	{lr}
 2563              		.cfi_def_cfa_offset 4
 2564              		.cfi_offset 14, -4
 2565 0002 83B0     		sub	sp, sp, #12
 2566              		.cfi_def_cfa_offset 16
 2567 0004 0190     		str	r0, [sp, #4]
 2568 0006 0A00     		movs	r2, r1
 2569 0008 6B46     		mov	r3, sp
 2570 000a 0233     		adds	r3, r3, #2
 2571 000c 1A80     		strh	r2, [r3]
 2572              		.loc 12 269 0
 2573 000e 6B46     		mov	r3, sp
 2574 0010 0233     		adds	r3, r3, #2
 2575 0012 1A88     		ldrh	r2, [r3]
 2576 0014 019B     		ldr	r3, [sp, #4]
 2577 0016 1100     		movs	r1, r2
 2578 0018 1800     		movs	r0, r3
 2579 001a FFF7FEFF 		bl	chEvtWaitAllTimeout
 2580 001e 0300     		movs	r3, r0
 2581              		.loc 12 270 0
 2582 0020 1800     		movs	r0, r3
 2583 0022 03B0     		add	sp, sp, #12
 2584              		@ sp needed
 2585 0024 00BD     		pop	{pc}
 2586              		.cfi_endproc
 2587              	.LFE231:
 2588              		.size	_ZN10chibios_rt10BaseThread20waitAllEventsTimeoutEmt, .-_ZN10chibios_rt10BaseThread20waitAll
 2589 0026 C046     		.section	.text._ZN10chibios_rt10BaseThread14dispatchEventsEPKPFvlEm,"ax",%progbits
 2590              		.align	1
 2591              		.p2align 4,,15
 2592              		.global	_ZN10chibios_rt10BaseThread14dispatchEventsEPKPFvlEm
 2593              		.syntax unified
 2594              		.code	16
 2595              		.thumb_func
 2596              		.fpu softvfp
 2597              		.type	_ZN10chibios_rt10BaseThread14dispatchEventsEPKPFvlEm, %function
 2598              	_ZN10chibios_rt10BaseThread14dispatchEventsEPKPFvlEm:
 2599              	.LFB232:
 2600              		.loc 12 274 0
 2601              		.cfi_startproc
 2602              		@ args = 0, pretend = 0, frame = 8
 2603              		@ frame_needed = 0, uses_anonymous_args = 0
 2604 0000 00B5     		push	{lr}
 2605              		.cfi_def_cfa_offset 4
 2606              		.cfi_offset 14, -4
 2607 0002 83B0     		sub	sp, sp, #12
 2608              		.cfi_def_cfa_offset 16
 2609 0004 0190     		str	r0, [sp, #4]
 2610 0006 0091     		str	r1, [sp]
 2611              		.loc 12 276 0
 2612 0008 009A     		ldr	r2, [sp]
 2613 000a 019B     		ldr	r3, [sp, #4]
 2614 000c 1100     		movs	r1, r2
 2615 000e 1800     		movs	r0, r3
 2616 0010 FFF7FEFF 		bl	chEvtDispatch
 2617              		.loc 12 277 0
 2618 0014 C046     		nop
ARM GAS  /tmp/ccvPPVYB.s 			page 47


 2619 0016 03B0     		add	sp, sp, #12
 2620              		@ sp needed
 2621 0018 00BD     		pop	{pc}
 2622              		.cfi_endproc
 2623              	.LFE232:
 2624              		.size	_ZN10chibios_rt10BaseThread14dispatchEventsEPKPFvlEm, .-_ZN10chibios_rt10BaseThread14dispatc
 2625 001a C046     		.section	.text._ZN10chibios_rt10BaseThread11unlockMutexEPNS_5MutexE,"ax",%progbits
 2626              		.align	1
 2627              		.p2align 4,,15
 2628              		.global	_ZN10chibios_rt10BaseThread11unlockMutexEPNS_5MutexE
 2629              		.syntax unified
 2630              		.code	16
 2631              		.thumb_func
 2632              		.fpu softvfp
 2633              		.type	_ZN10chibios_rt10BaseThread11unlockMutexEPNS_5MutexE, %function
 2634              	_ZN10chibios_rt10BaseThread11unlockMutexEPNS_5MutexE:
 2635              	.LFB233:
 2636              		.loc 12 281 0
 2637              		.cfi_startproc
 2638              		@ args = 0, pretend = 0, frame = 8
 2639              		@ frame_needed = 0, uses_anonymous_args = 0
 2640 0000 00B5     		push	{lr}
 2641              		.cfi_def_cfa_offset 4
 2642              		.cfi_offset 14, -4
 2643 0002 83B0     		sub	sp, sp, #12
 2644              		.cfi_def_cfa_offset 16
 2645 0004 0190     		str	r0, [sp, #4]
 2646              		.loc 12 283 0
 2647 0006 019B     		ldr	r3, [sp, #4]
 2648 0008 1800     		movs	r0, r3
 2649 000a FFF7FEFF 		bl	chMtxUnlock
 2650              		.loc 12 284 0
 2651 000e C046     		nop
 2652 0010 03B0     		add	sp, sp, #12
 2653              		@ sp needed
 2654 0012 00BD     		pop	{pc}
 2655              		.cfi_endproc
 2656              	.LFE233:
 2657              		.size	_ZN10chibios_rt10BaseThread11unlockMutexEPNS_5MutexE, .-_ZN10chibios_rt10BaseThread11unlockM
 2658              		.section	.text._ZN10chibios_rt10BaseThread12unlockMutexSEPNS_5MutexE,"ax",%progbits
 2659              		.align	1
 2660              		.p2align 4,,15
 2661              		.global	_ZN10chibios_rt10BaseThread12unlockMutexSEPNS_5MutexE
 2662              		.syntax unified
 2663              		.code	16
 2664              		.thumb_func
 2665              		.fpu softvfp
 2666              		.type	_ZN10chibios_rt10BaseThread12unlockMutexSEPNS_5MutexE, %function
 2667              	_ZN10chibios_rt10BaseThread12unlockMutexSEPNS_5MutexE:
 2668              	.LFB234:
 2669              		.loc 12 286 0
 2670              		.cfi_startproc
 2671              		@ args = 0, pretend = 0, frame = 8
 2672              		@ frame_needed = 0, uses_anonymous_args = 0
 2673 0000 00B5     		push	{lr}
 2674              		.cfi_def_cfa_offset 4
 2675              		.cfi_offset 14, -4
ARM GAS  /tmp/ccvPPVYB.s 			page 48


 2676 0002 83B0     		sub	sp, sp, #12
 2677              		.cfi_def_cfa_offset 16
 2678 0004 0190     		str	r0, [sp, #4]
 2679              		.loc 12 288 0
 2680 0006 019B     		ldr	r3, [sp, #4]
 2681 0008 1800     		movs	r0, r3
 2682 000a FFF7FEFF 		bl	chMtxUnlockS
 2683              		.loc 12 289 0
 2684 000e C046     		nop
 2685 0010 03B0     		add	sp, sp, #12
 2686              		@ sp needed
 2687 0012 00BD     		pop	{pc}
 2688              		.cfi_endproc
 2689              	.LFE234:
 2690              		.size	_ZN10chibios_rt10BaseThread12unlockMutexSEPNS_5MutexE, .-_ZN10chibios_rt10BaseThread12unlock
 2691              		.section	.text._ZN10chibios_rt10BaseThread16unlockAllMutexesEv,"ax",%progbits
 2692              		.align	1
 2693              		.p2align 4,,15
 2694              		.global	_ZN10chibios_rt10BaseThread16unlockAllMutexesEv
 2695              		.syntax unified
 2696              		.code	16
 2697              		.thumb_func
 2698              		.fpu softvfp
 2699              		.type	_ZN10chibios_rt10BaseThread16unlockAllMutexesEv, %function
 2700              	_ZN10chibios_rt10BaseThread16unlockAllMutexesEv:
 2701              	.LFB235:
 2702              		.loc 12 291 0
 2703              		.cfi_startproc
 2704              		@ args = 0, pretend = 0, frame = 0
 2705              		@ frame_needed = 0, uses_anonymous_args = 0
 2706 0000 10B5     		push	{r4, lr}
 2707              		.cfi_def_cfa_offset 8
 2708              		.cfi_offset 4, -8
 2709              		.cfi_offset 14, -4
 2710              		.loc 12 293 0
 2711 0002 FFF7FEFF 		bl	chMtxUnlockAll
 2712              		.loc 12 294 0
 2713 0006 C046     		nop
 2714              		@ sp needed
 2715 0008 10BD     		pop	{r4, pc}
 2716              		.cfi_endproc
 2717              	.LFE235:
 2718              		.size	_ZN10chibios_rt10BaseThread16unlockAllMutexesEv, .-_ZN10chibios_rt10BaseThread16unlockAllMut
 2719 000a C046     		.section	.text._ZN10chibios_rt16CounterSemaphoreC2El,"ax",%progbits
 2720              		.align	1
 2721              		.p2align 4,,15
 2722              		.global	_ZN10chibios_rt16CounterSemaphoreC2El
 2723              		.syntax unified
 2724              		.code	16
 2725              		.thumb_func
 2726              		.fpu softvfp
 2727              		.type	_ZN10chibios_rt16CounterSemaphoreC2El, %function
 2728              	_ZN10chibios_rt16CounterSemaphoreC2El:
 2729              	.LFB237:
 2730              		.loc 12 301 0
 2731              		.cfi_startproc
 2732              		@ args = 0, pretend = 0, frame = 8
ARM GAS  /tmp/ccvPPVYB.s 			page 49


 2733              		@ frame_needed = 0, uses_anonymous_args = 0
 2734 0000 00B5     		push	{lr}
 2735              		.cfi_def_cfa_offset 4
 2736              		.cfi_offset 14, -4
 2737 0002 83B0     		sub	sp, sp, #12
 2738              		.cfi_def_cfa_offset 16
 2739 0004 0190     		str	r0, [sp, #4]
 2740 0006 0091     		str	r1, [sp]
 2741              	.LBB13:
 2742              		.loc 12 303 0
 2743 0008 019B     		ldr	r3, [sp, #4]
 2744 000a 009A     		ldr	r2, [sp]
 2745 000c 1100     		movs	r1, r2
 2746 000e 1800     		movs	r0, r3
 2747 0010 FFF7FEFF 		bl	chSemObjectInit
 2748              	.LBE13:
 2749              		.loc 12 304 0
 2750 0014 019B     		ldr	r3, [sp, #4]
 2751 0016 1800     		movs	r0, r3
 2752 0018 03B0     		add	sp, sp, #12
 2753              		@ sp needed
 2754 001a 00BD     		pop	{pc}
 2755              		.cfi_endproc
 2756              	.LFE237:
 2757              		.size	_ZN10chibios_rt16CounterSemaphoreC2El, .-_ZN10chibios_rt16CounterSemaphoreC2El
 2758              		.global	_ZN10chibios_rt16CounterSemaphoreC1El
 2759              		.thumb_set _ZN10chibios_rt16CounterSemaphoreC1El,_ZN10chibios_rt16CounterSemaphoreC2El
 2760              		.section	.text._ZN10chibios_rt16CounterSemaphore5resetEl,"ax",%progbits
 2761              		.align	1
 2762              		.p2align 4,,15
 2763              		.global	_ZN10chibios_rt16CounterSemaphore5resetEl
 2764              		.syntax unified
 2765              		.code	16
 2766              		.thumb_func
 2767              		.fpu softvfp
 2768              		.type	_ZN10chibios_rt16CounterSemaphore5resetEl, %function
 2769              	_ZN10chibios_rt16CounterSemaphore5resetEl:
 2770              	.LFB239:
 2771              		.loc 12 306 0
 2772              		.cfi_startproc
 2773              		@ args = 0, pretend = 0, frame = 8
 2774              		@ frame_needed = 0, uses_anonymous_args = 0
 2775 0000 00B5     		push	{lr}
 2776              		.cfi_def_cfa_offset 4
 2777              		.cfi_offset 14, -4
 2778 0002 83B0     		sub	sp, sp, #12
 2779              		.cfi_def_cfa_offset 16
 2780 0004 0190     		str	r0, [sp, #4]
 2781 0006 0091     		str	r1, [sp]
 2782              		.loc 12 308 0
 2783 0008 019B     		ldr	r3, [sp, #4]
 2784 000a 009A     		ldr	r2, [sp]
 2785 000c 1100     		movs	r1, r2
 2786 000e 1800     		movs	r0, r3
 2787 0010 FFF7FEFF 		bl	chSemReset
 2788              		.loc 12 309 0
 2789 0014 C046     		nop
ARM GAS  /tmp/ccvPPVYB.s 			page 50


 2790 0016 03B0     		add	sp, sp, #12
 2791              		@ sp needed
 2792 0018 00BD     		pop	{pc}
 2793              		.cfi_endproc
 2794              	.LFE239:
 2795              		.size	_ZN10chibios_rt16CounterSemaphore5resetEl, .-_ZN10chibios_rt16CounterSemaphore5resetEl
 2796 001a C046     		.section	.text._ZN10chibios_rt16CounterSemaphore6resetIEl,"ax",%progbits
 2797              		.align	1
 2798              		.p2align 4,,15
 2799              		.global	_ZN10chibios_rt16CounterSemaphore6resetIEl
 2800              		.syntax unified
 2801              		.code	16
 2802              		.thumb_func
 2803              		.fpu softvfp
 2804              		.type	_ZN10chibios_rt16CounterSemaphore6resetIEl, %function
 2805              	_ZN10chibios_rt16CounterSemaphore6resetIEl:
 2806              	.LFB240:
 2807              		.loc 12 311 0
 2808              		.cfi_startproc
 2809              		@ args = 0, pretend = 0, frame = 8
 2810              		@ frame_needed = 0, uses_anonymous_args = 0
 2811 0000 00B5     		push	{lr}
 2812              		.cfi_def_cfa_offset 4
 2813              		.cfi_offset 14, -4
 2814 0002 83B0     		sub	sp, sp, #12
 2815              		.cfi_def_cfa_offset 16
 2816 0004 0190     		str	r0, [sp, #4]
 2817 0006 0091     		str	r1, [sp]
 2818              		.loc 12 313 0
 2819 0008 019B     		ldr	r3, [sp, #4]
 2820 000a 009A     		ldr	r2, [sp]
 2821 000c 1100     		movs	r1, r2
 2822 000e 1800     		movs	r0, r3
 2823 0010 FFF7FEFF 		bl	chSemResetI
 2824              		.loc 12 314 0
 2825 0014 C046     		nop
 2826 0016 03B0     		add	sp, sp, #12
 2827              		@ sp needed
 2828 0018 00BD     		pop	{pc}
 2829              		.cfi_endproc
 2830              	.LFE240:
 2831              		.size	_ZN10chibios_rt16CounterSemaphore6resetIEl, .-_ZN10chibios_rt16CounterSemaphore6resetIEl
 2832 001a C046     		.section	.text._ZN10chibios_rt16CounterSemaphore4waitEv,"ax",%progbits
 2833              		.align	1
 2834              		.p2align 4,,15
 2835              		.global	_ZN10chibios_rt16CounterSemaphore4waitEv
 2836              		.syntax unified
 2837              		.code	16
 2838              		.thumb_func
 2839              		.fpu softvfp
 2840              		.type	_ZN10chibios_rt16CounterSemaphore4waitEv, %function
 2841              	_ZN10chibios_rt16CounterSemaphore4waitEv:
 2842              	.LFB241:
 2843              		.loc 12 316 0
 2844              		.cfi_startproc
 2845              		@ args = 0, pretend = 0, frame = 8
 2846              		@ frame_needed = 0, uses_anonymous_args = 0
ARM GAS  /tmp/ccvPPVYB.s 			page 51


 2847 0000 00B5     		push	{lr}
 2848              		.cfi_def_cfa_offset 4
 2849              		.cfi_offset 14, -4
 2850 0002 83B0     		sub	sp, sp, #12
 2851              		.cfi_def_cfa_offset 16
 2852 0004 0190     		str	r0, [sp, #4]
 2853              		.loc 12 318 0
 2854 0006 019B     		ldr	r3, [sp, #4]
 2855 0008 1800     		movs	r0, r3
 2856 000a FFF7FEFF 		bl	chSemWait
 2857 000e 0300     		movs	r3, r0
 2858              		.loc 12 319 0
 2859 0010 1800     		movs	r0, r3
 2860 0012 03B0     		add	sp, sp, #12
 2861              		@ sp needed
 2862 0014 00BD     		pop	{pc}
 2863              		.cfi_endproc
 2864              	.LFE241:
 2865              		.size	_ZN10chibios_rt16CounterSemaphore4waitEv, .-_ZN10chibios_rt16CounterSemaphore4waitEv
 2866 0016 C046     		.section	.text._ZN10chibios_rt16CounterSemaphore5waitSEv,"ax",%progbits
 2867              		.align	1
 2868              		.p2align 4,,15
 2869              		.global	_ZN10chibios_rt16CounterSemaphore5waitSEv
 2870              		.syntax unified
 2871              		.code	16
 2872              		.thumb_func
 2873              		.fpu softvfp
 2874              		.type	_ZN10chibios_rt16CounterSemaphore5waitSEv, %function
 2875              	_ZN10chibios_rt16CounterSemaphore5waitSEv:
 2876              	.LFB242:
 2877              		.loc 12 321 0
 2878              		.cfi_startproc
 2879              		@ args = 0, pretend = 0, frame = 8
 2880              		@ frame_needed = 0, uses_anonymous_args = 0
 2881 0000 00B5     		push	{lr}
 2882              		.cfi_def_cfa_offset 4
 2883              		.cfi_offset 14, -4
 2884 0002 83B0     		sub	sp, sp, #12
 2885              		.cfi_def_cfa_offset 16
 2886 0004 0190     		str	r0, [sp, #4]
 2887              		.loc 12 323 0
 2888 0006 019B     		ldr	r3, [sp, #4]
 2889 0008 1800     		movs	r0, r3
 2890 000a FFF7FEFF 		bl	chSemWaitS
 2891 000e 0300     		movs	r3, r0
 2892              		.loc 12 324 0
 2893 0010 1800     		movs	r0, r3
 2894 0012 03B0     		add	sp, sp, #12
 2895              		@ sp needed
 2896 0014 00BD     		pop	{pc}
 2897              		.cfi_endproc
 2898              	.LFE242:
 2899              		.size	_ZN10chibios_rt16CounterSemaphore5waitSEv, .-_ZN10chibios_rt16CounterSemaphore5waitSEv
 2900 0016 C046     		.section	.text._ZN10chibios_rt16CounterSemaphore4waitEt,"ax",%progbits
 2901              		.align	1
 2902              		.p2align 4,,15
 2903              		.global	_ZN10chibios_rt16CounterSemaphore4waitEt
ARM GAS  /tmp/ccvPPVYB.s 			page 52


 2904              		.syntax unified
 2905              		.code	16
 2906              		.thumb_func
 2907              		.fpu softvfp
 2908              		.type	_ZN10chibios_rt16CounterSemaphore4waitEt, %function
 2909              	_ZN10chibios_rt16CounterSemaphore4waitEt:
 2910              	.LFB243:
 2911              		.loc 12 326 0
 2912              		.cfi_startproc
 2913              		@ args = 0, pretend = 0, frame = 8
 2914              		@ frame_needed = 0, uses_anonymous_args = 0
 2915 0000 00B5     		push	{lr}
 2916              		.cfi_def_cfa_offset 4
 2917              		.cfi_offset 14, -4
 2918 0002 83B0     		sub	sp, sp, #12
 2919              		.cfi_def_cfa_offset 16
 2920 0004 0190     		str	r0, [sp, #4]
 2921 0006 0A00     		movs	r2, r1
 2922 0008 6B46     		mov	r3, sp
 2923 000a 0233     		adds	r3, r3, #2
 2924 000c 1A80     		strh	r2, [r3]
 2925              		.loc 12 328 0
 2926 000e 019A     		ldr	r2, [sp, #4]
 2927 0010 6B46     		mov	r3, sp
 2928 0012 0233     		adds	r3, r3, #2
 2929 0014 1B88     		ldrh	r3, [r3]
 2930 0016 1900     		movs	r1, r3
 2931 0018 1000     		movs	r0, r2
 2932 001a FFF7FEFF 		bl	chSemWaitTimeout
 2933 001e 0300     		movs	r3, r0
 2934              		.loc 12 329 0
 2935 0020 1800     		movs	r0, r3
 2936 0022 03B0     		add	sp, sp, #12
 2937              		@ sp needed
 2938 0024 00BD     		pop	{pc}
 2939              		.cfi_endproc
 2940              	.LFE243:
 2941              		.size	_ZN10chibios_rt16CounterSemaphore4waitEt, .-_ZN10chibios_rt16CounterSemaphore4waitEt
 2942 0026 C046     		.section	.text._ZN10chibios_rt16CounterSemaphore5waitSEt,"ax",%progbits
 2943              		.align	1
 2944              		.p2align 4,,15
 2945              		.global	_ZN10chibios_rt16CounterSemaphore5waitSEt
 2946              		.syntax unified
 2947              		.code	16
 2948              		.thumb_func
 2949              		.fpu softvfp
 2950              		.type	_ZN10chibios_rt16CounterSemaphore5waitSEt, %function
 2951              	_ZN10chibios_rt16CounterSemaphore5waitSEt:
 2952              	.LFB244:
 2953              		.loc 12 331 0
 2954              		.cfi_startproc
 2955              		@ args = 0, pretend = 0, frame = 8
 2956              		@ frame_needed = 0, uses_anonymous_args = 0
 2957 0000 00B5     		push	{lr}
 2958              		.cfi_def_cfa_offset 4
 2959              		.cfi_offset 14, -4
 2960 0002 83B0     		sub	sp, sp, #12
ARM GAS  /tmp/ccvPPVYB.s 			page 53


 2961              		.cfi_def_cfa_offset 16
 2962 0004 0190     		str	r0, [sp, #4]
 2963 0006 0A00     		movs	r2, r1
 2964 0008 6B46     		mov	r3, sp
 2965 000a 0233     		adds	r3, r3, #2
 2966 000c 1A80     		strh	r2, [r3]
 2967              		.loc 12 333 0
 2968 000e 019A     		ldr	r2, [sp, #4]
 2969 0010 6B46     		mov	r3, sp
 2970 0012 0233     		adds	r3, r3, #2
 2971 0014 1B88     		ldrh	r3, [r3]
 2972 0016 1900     		movs	r1, r3
 2973 0018 1000     		movs	r0, r2
 2974 001a FFF7FEFF 		bl	chSemWaitTimeoutS
 2975 001e 0300     		movs	r3, r0
 2976              		.loc 12 334 0
 2977 0020 1800     		movs	r0, r3
 2978 0022 03B0     		add	sp, sp, #12
 2979              		@ sp needed
 2980 0024 00BD     		pop	{pc}
 2981              		.cfi_endproc
 2982              	.LFE244:
 2983              		.size	_ZN10chibios_rt16CounterSemaphore5waitSEt, .-_ZN10chibios_rt16CounterSemaphore5waitSEt
 2984 0026 C046     		.section	.text._ZN10chibios_rt16CounterSemaphore6signalEv,"ax",%progbits
 2985              		.align	1
 2986              		.p2align 4,,15
 2987              		.global	_ZN10chibios_rt16CounterSemaphore6signalEv
 2988              		.syntax unified
 2989              		.code	16
 2990              		.thumb_func
 2991              		.fpu softvfp
 2992              		.type	_ZN10chibios_rt16CounterSemaphore6signalEv, %function
 2993              	_ZN10chibios_rt16CounterSemaphore6signalEv:
 2994              	.LFB245:
 2995              		.loc 12 336 0
 2996              		.cfi_startproc
 2997              		@ args = 0, pretend = 0, frame = 8
 2998              		@ frame_needed = 0, uses_anonymous_args = 0
 2999 0000 00B5     		push	{lr}
 3000              		.cfi_def_cfa_offset 4
 3001              		.cfi_offset 14, -4
 3002 0002 83B0     		sub	sp, sp, #12
 3003              		.cfi_def_cfa_offset 16
 3004 0004 0190     		str	r0, [sp, #4]
 3005              		.loc 12 338 0
 3006 0006 019B     		ldr	r3, [sp, #4]
 3007 0008 1800     		movs	r0, r3
 3008 000a FFF7FEFF 		bl	chSemSignal
 3009              		.loc 12 339 0
 3010 000e C046     		nop
 3011 0010 03B0     		add	sp, sp, #12
 3012              		@ sp needed
 3013 0012 00BD     		pop	{pc}
 3014              		.cfi_endproc
 3015              	.LFE245:
 3016              		.size	_ZN10chibios_rt16CounterSemaphore6signalEv, .-_ZN10chibios_rt16CounterSemaphore6signalEv
 3017              		.section	.text._ZN10chibios_rt16CounterSemaphore7signalIEv,"ax",%progbits
ARM GAS  /tmp/ccvPPVYB.s 			page 54


 3018              		.align	1
 3019              		.p2align 4,,15
 3020              		.global	_ZN10chibios_rt16CounterSemaphore7signalIEv
 3021              		.syntax unified
 3022              		.code	16
 3023              		.thumb_func
 3024              		.fpu softvfp
 3025              		.type	_ZN10chibios_rt16CounterSemaphore7signalIEv, %function
 3026              	_ZN10chibios_rt16CounterSemaphore7signalIEv:
 3027              	.LFB246:
 3028              		.loc 12 341 0
 3029              		.cfi_startproc
 3030              		@ args = 0, pretend = 0, frame = 8
 3031              		@ frame_needed = 0, uses_anonymous_args = 0
 3032 0000 00B5     		push	{lr}
 3033              		.cfi_def_cfa_offset 4
 3034              		.cfi_offset 14, -4
 3035 0002 83B0     		sub	sp, sp, #12
 3036              		.cfi_def_cfa_offset 16
 3037 0004 0190     		str	r0, [sp, #4]
 3038              		.loc 12 343 0
 3039 0006 019B     		ldr	r3, [sp, #4]
 3040 0008 1800     		movs	r0, r3
 3041 000a FFF7FEFF 		bl	chSemSignalI
 3042              		.loc 12 344 0
 3043 000e C046     		nop
 3044 0010 03B0     		add	sp, sp, #12
 3045              		@ sp needed
 3046 0012 00BD     		pop	{pc}
 3047              		.cfi_endproc
 3048              	.LFE246:
 3049              		.size	_ZN10chibios_rt16CounterSemaphore7signalIEv, .-_ZN10chibios_rt16CounterSemaphore7signalIEv
 3050              		.section	.text._ZN10chibios_rt16CounterSemaphore11addCounterIEl,"ax",%progbits
 3051              		.align	1
 3052              		.p2align 4,,15
 3053              		.global	_ZN10chibios_rt16CounterSemaphore11addCounterIEl
 3054              		.syntax unified
 3055              		.code	16
 3056              		.thumb_func
 3057              		.fpu softvfp
 3058              		.type	_ZN10chibios_rt16CounterSemaphore11addCounterIEl, %function
 3059              	_ZN10chibios_rt16CounterSemaphore11addCounterIEl:
 3060              	.LFB247:
 3061              		.loc 12 346 0
 3062              		.cfi_startproc
 3063              		@ args = 0, pretend = 0, frame = 8
 3064              		@ frame_needed = 0, uses_anonymous_args = 0
 3065 0000 00B5     		push	{lr}
 3066              		.cfi_def_cfa_offset 4
 3067              		.cfi_offset 14, -4
 3068 0002 83B0     		sub	sp, sp, #12
 3069              		.cfi_def_cfa_offset 16
 3070 0004 0190     		str	r0, [sp, #4]
 3071 0006 0091     		str	r1, [sp]
 3072              		.loc 12 348 0
 3073 0008 019B     		ldr	r3, [sp, #4]
 3074 000a 009A     		ldr	r2, [sp]
ARM GAS  /tmp/ccvPPVYB.s 			page 55


 3075 000c 1100     		movs	r1, r2
 3076 000e 1800     		movs	r0, r3
 3077 0010 FFF7FEFF 		bl	chSemAddCounterI
 3078              		.loc 12 349 0
 3079 0014 C046     		nop
 3080 0016 03B0     		add	sp, sp, #12
 3081              		@ sp needed
 3082 0018 00BD     		pop	{pc}
 3083              		.cfi_endproc
 3084              	.LFE247:
 3085              		.size	_ZN10chibios_rt16CounterSemaphore11addCounterIEl, .-_ZN10chibios_rt16CounterSemaphore11addCo
 3086 001a C046     		.section	.text._ZN10chibios_rt16CounterSemaphore11getCounterIEv,"ax",%progbits
 3087              		.align	1
 3088              		.p2align 4,,15
 3089              		.global	_ZN10chibios_rt16CounterSemaphore11getCounterIEv
 3090              		.syntax unified
 3091              		.code	16
 3092              		.thumb_func
 3093              		.fpu softvfp
 3094              		.type	_ZN10chibios_rt16CounterSemaphore11getCounterIEv, %function
 3095              	_ZN10chibios_rt16CounterSemaphore11getCounterIEv:
 3096              	.LFB248:
 3097              		.loc 12 351 0
 3098              		.cfi_startproc
 3099              		@ args = 0, pretend = 0, frame = 8
 3100              		@ frame_needed = 0, uses_anonymous_args = 0
 3101 0000 00B5     		push	{lr}
 3102              		.cfi_def_cfa_offset 4
 3103              		.cfi_offset 14, -4
 3104 0002 83B0     		sub	sp, sp, #12
 3105              		.cfi_def_cfa_offset 16
 3106 0004 0190     		str	r0, [sp, #4]
 3107              		.loc 12 353 0
 3108 0006 019B     		ldr	r3, [sp, #4]
 3109 0008 1800     		movs	r0, r3
 3110 000a FFF7FEFF 		bl	_ZL16chSemGetCounterIP12ch_semaphore
 3111 000e 0300     		movs	r3, r0
 3112              		.loc 12 354 0
 3113 0010 1800     		movs	r0, r3
 3114 0012 03B0     		add	sp, sp, #12
 3115              		@ sp needed
 3116 0014 00BD     		pop	{pc}
 3117              		.cfi_endproc
 3118              	.LFE248:
 3119              		.size	_ZN10chibios_rt16CounterSemaphore11getCounterIEv, .-_ZN10chibios_rt16CounterSemaphore11getCo
 3120 0016 C046     		.section	.text._ZN10chibios_rt16CounterSemaphore10signalWaitEPS0_S1_,"ax",%progbits
 3121              		.align	1
 3122              		.p2align 4,,15
 3123              		.global	_ZN10chibios_rt16CounterSemaphore10signalWaitEPS0_S1_
 3124              		.syntax unified
 3125              		.code	16
 3126              		.thumb_func
 3127              		.fpu softvfp
 3128              		.type	_ZN10chibios_rt16CounterSemaphore10signalWaitEPS0_S1_, %function
 3129              	_ZN10chibios_rt16CounterSemaphore10signalWaitEPS0_S1_:
 3130              	.LFB249:
 3131              		.loc 12 357 0
ARM GAS  /tmp/ccvPPVYB.s 			page 56


 3132              		.cfi_startproc
 3133              		@ args = 0, pretend = 0, frame = 8
 3134              		@ frame_needed = 0, uses_anonymous_args = 0
 3135 0000 00B5     		push	{lr}
 3136              		.cfi_def_cfa_offset 4
 3137              		.cfi_offset 14, -4
 3138 0002 83B0     		sub	sp, sp, #12
 3139              		.cfi_def_cfa_offset 16
 3140 0004 0190     		str	r0, [sp, #4]
 3141 0006 0091     		str	r1, [sp]
 3142              		.loc 12 359 0
 3143 0008 019B     		ldr	r3, [sp, #4]
 3144 000a 009A     		ldr	r2, [sp]
 3145 000c 1100     		movs	r1, r2
 3146 000e 1800     		movs	r0, r3
 3147 0010 FFF7FEFF 		bl	chSemSignalWait
 3148 0014 0300     		movs	r3, r0
 3149              		.loc 12 360 0
 3150 0016 1800     		movs	r0, r3
 3151 0018 03B0     		add	sp, sp, #12
 3152              		@ sp needed
 3153 001a 00BD     		pop	{pc}
 3154              		.cfi_endproc
 3155              	.LFE249:
 3156              		.size	_ZN10chibios_rt16CounterSemaphore10signalWaitEPS0_S1_, .-_ZN10chibios_rt16CounterSemaphore10
 3157              		.section	.text._ZN10chibios_rt15BinarySemaphoreC2Eb,"ax",%progbits
 3158              		.align	1
 3159              		.p2align 4,,15
 3160              		.global	_ZN10chibios_rt15BinarySemaphoreC2Eb
 3161              		.syntax unified
 3162              		.code	16
 3163              		.thumb_func
 3164              		.fpu softvfp
 3165              		.type	_ZN10chibios_rt15BinarySemaphoreC2Eb, %function
 3166              	_ZN10chibios_rt15BinarySemaphoreC2Eb:
 3167              	.LFB251:
 3168              		.loc 12 365 0
 3169              		.cfi_startproc
 3170              		@ args = 0, pretend = 0, frame = 8
 3171              		@ frame_needed = 0, uses_anonymous_args = 0
 3172 0000 00B5     		push	{lr}
 3173              		.cfi_def_cfa_offset 4
 3174              		.cfi_offset 14, -4
 3175 0002 83B0     		sub	sp, sp, #12
 3176              		.cfi_def_cfa_offset 16
 3177 0004 0190     		str	r0, [sp, #4]
 3178 0006 0A00     		movs	r2, r1
 3179 0008 6B46     		mov	r3, sp
 3180 000a 0333     		adds	r3, r3, #3
 3181 000c 1A70     		strb	r2, [r3]
 3182              	.LBB14:
 3183              		.loc 12 367 0
 3184 000e 019A     		ldr	r2, [sp, #4]
 3185 0010 6B46     		mov	r3, sp
 3186 0012 0333     		adds	r3, r3, #3
 3187 0014 1B78     		ldrb	r3, [r3]
 3188 0016 1900     		movs	r1, r3
ARM GAS  /tmp/ccvPPVYB.s 			page 57


 3189 0018 1000     		movs	r0, r2
 3190 001a FFF7FEFF 		bl	_ZL16chBSemObjectInitP18binary_semaphore_tb
 3191              	.LBE14:
 3192              		.loc 12 368 0
 3193 001e 019B     		ldr	r3, [sp, #4]
 3194 0020 1800     		movs	r0, r3
 3195 0022 03B0     		add	sp, sp, #12
 3196              		@ sp needed
 3197 0024 00BD     		pop	{pc}
 3198              		.cfi_endproc
 3199              	.LFE251:
 3200              		.size	_ZN10chibios_rt15BinarySemaphoreC2Eb, .-_ZN10chibios_rt15BinarySemaphoreC2Eb
 3201              		.global	_ZN10chibios_rt15BinarySemaphoreC1Eb
 3202              		.thumb_set _ZN10chibios_rt15BinarySemaphoreC1Eb,_ZN10chibios_rt15BinarySemaphoreC2Eb
 3203 0026 C046     		.section	.text._ZN10chibios_rt15BinarySemaphore4waitEv,"ax",%progbits
 3204              		.align	1
 3205              		.p2align 4,,15
 3206              		.global	_ZN10chibios_rt15BinarySemaphore4waitEv
 3207              		.syntax unified
 3208              		.code	16
 3209              		.thumb_func
 3210              		.fpu softvfp
 3211              		.type	_ZN10chibios_rt15BinarySemaphore4waitEv, %function
 3212              	_ZN10chibios_rt15BinarySemaphore4waitEv:
 3213              	.LFB253:
 3214              		.loc 12 370 0
 3215              		.cfi_startproc
 3216              		@ args = 0, pretend = 0, frame = 8
 3217              		@ frame_needed = 0, uses_anonymous_args = 0
 3218 0000 00B5     		push	{lr}
 3219              		.cfi_def_cfa_offset 4
 3220              		.cfi_offset 14, -4
 3221 0002 83B0     		sub	sp, sp, #12
 3222              		.cfi_def_cfa_offset 16
 3223 0004 0190     		str	r0, [sp, #4]
 3224              		.loc 12 372 0
 3225 0006 019B     		ldr	r3, [sp, #4]
 3226 0008 1800     		movs	r0, r3
 3227 000a FFF7FEFF 		bl	_ZL10chBSemWaitP18binary_semaphore_t
 3228 000e 0300     		movs	r3, r0
 3229              		.loc 12 373 0
 3230 0010 1800     		movs	r0, r3
 3231 0012 03B0     		add	sp, sp, #12
 3232              		@ sp needed
 3233 0014 00BD     		pop	{pc}
 3234              		.cfi_endproc
 3235              	.LFE253:
 3236              		.size	_ZN10chibios_rt15BinarySemaphore4waitEv, .-_ZN10chibios_rt15BinarySemaphore4waitEv
 3237 0016 C046     		.section	.text._ZN10chibios_rt15BinarySemaphore5waitSEv,"ax",%progbits
 3238              		.align	1
 3239              		.p2align 4,,15
 3240              		.global	_ZN10chibios_rt15BinarySemaphore5waitSEv
 3241              		.syntax unified
 3242              		.code	16
 3243              		.thumb_func
 3244              		.fpu softvfp
 3245              		.type	_ZN10chibios_rt15BinarySemaphore5waitSEv, %function
ARM GAS  /tmp/ccvPPVYB.s 			page 58


 3246              	_ZN10chibios_rt15BinarySemaphore5waitSEv:
 3247              	.LFB254:
 3248              		.loc 12 375 0
 3249              		.cfi_startproc
 3250              		@ args = 0, pretend = 0, frame = 8
 3251              		@ frame_needed = 0, uses_anonymous_args = 0
 3252 0000 00B5     		push	{lr}
 3253              		.cfi_def_cfa_offset 4
 3254              		.cfi_offset 14, -4
 3255 0002 83B0     		sub	sp, sp, #12
 3256              		.cfi_def_cfa_offset 16
 3257 0004 0190     		str	r0, [sp, #4]
 3258              		.loc 12 377 0
 3259 0006 019B     		ldr	r3, [sp, #4]
 3260 0008 1800     		movs	r0, r3
 3261 000a FFF7FEFF 		bl	_ZL11chBSemWaitSP18binary_semaphore_t
 3262 000e 0300     		movs	r3, r0
 3263              		.loc 12 378 0
 3264 0010 1800     		movs	r0, r3
 3265 0012 03B0     		add	sp, sp, #12
 3266              		@ sp needed
 3267 0014 00BD     		pop	{pc}
 3268              		.cfi_endproc
 3269              	.LFE254:
 3270              		.size	_ZN10chibios_rt15BinarySemaphore5waitSEv, .-_ZN10chibios_rt15BinarySemaphore5waitSEv
 3271 0016 C046     		.section	.text._ZN10chibios_rt15BinarySemaphore4waitEt,"ax",%progbits
 3272              		.align	1
 3273              		.p2align 4,,15
 3274              		.global	_ZN10chibios_rt15BinarySemaphore4waitEt
 3275              		.syntax unified
 3276              		.code	16
 3277              		.thumb_func
 3278              		.fpu softvfp
 3279              		.type	_ZN10chibios_rt15BinarySemaphore4waitEt, %function
 3280              	_ZN10chibios_rt15BinarySemaphore4waitEt:
 3281              	.LFB255:
 3282              		.loc 12 380 0
 3283              		.cfi_startproc
 3284              		@ args = 0, pretend = 0, frame = 8
 3285              		@ frame_needed = 0, uses_anonymous_args = 0
 3286 0000 00B5     		push	{lr}
 3287              		.cfi_def_cfa_offset 4
 3288              		.cfi_offset 14, -4
 3289 0002 83B0     		sub	sp, sp, #12
 3290              		.cfi_def_cfa_offset 16
 3291 0004 0190     		str	r0, [sp, #4]
 3292 0006 0A00     		movs	r2, r1
 3293 0008 6B46     		mov	r3, sp
 3294 000a 0233     		adds	r3, r3, #2
 3295 000c 1A80     		strh	r2, [r3]
 3296              		.loc 12 382 0
 3297 000e 019A     		ldr	r2, [sp, #4]
 3298 0010 6B46     		mov	r3, sp
 3299 0012 0233     		adds	r3, r3, #2
 3300 0014 1B88     		ldrh	r3, [r3]
 3301 0016 1900     		movs	r1, r3
 3302 0018 1000     		movs	r0, r2
ARM GAS  /tmp/ccvPPVYB.s 			page 59


 3303 001a FFF7FEFF 		bl	_ZL17chBSemWaitTimeoutP18binary_semaphore_tt
 3304 001e 0300     		movs	r3, r0
 3305              		.loc 12 383 0
 3306 0020 1800     		movs	r0, r3
 3307 0022 03B0     		add	sp, sp, #12
 3308              		@ sp needed
 3309 0024 00BD     		pop	{pc}
 3310              		.cfi_endproc
 3311              	.LFE255:
 3312              		.size	_ZN10chibios_rt15BinarySemaphore4waitEt, .-_ZN10chibios_rt15BinarySemaphore4waitEt
 3313 0026 C046     		.section	.text._ZN10chibios_rt15BinarySemaphore5waitSEt,"ax",%progbits
 3314              		.align	1
 3315              		.p2align 4,,15
 3316              		.global	_ZN10chibios_rt15BinarySemaphore5waitSEt
 3317              		.syntax unified
 3318              		.code	16
 3319              		.thumb_func
 3320              		.fpu softvfp
 3321              		.type	_ZN10chibios_rt15BinarySemaphore5waitSEt, %function
 3322              	_ZN10chibios_rt15BinarySemaphore5waitSEt:
 3323              	.LFB256:
 3324              		.loc 12 385 0
 3325              		.cfi_startproc
 3326              		@ args = 0, pretend = 0, frame = 8
 3327              		@ frame_needed = 0, uses_anonymous_args = 0
 3328 0000 00B5     		push	{lr}
 3329              		.cfi_def_cfa_offset 4
 3330              		.cfi_offset 14, -4
 3331 0002 83B0     		sub	sp, sp, #12
 3332              		.cfi_def_cfa_offset 16
 3333 0004 0190     		str	r0, [sp, #4]
 3334 0006 0A00     		movs	r2, r1
 3335 0008 6B46     		mov	r3, sp
 3336 000a 0233     		adds	r3, r3, #2
 3337 000c 1A80     		strh	r2, [r3]
 3338              		.loc 12 387 0
 3339 000e 019A     		ldr	r2, [sp, #4]
 3340 0010 6B46     		mov	r3, sp
 3341 0012 0233     		adds	r3, r3, #2
 3342 0014 1B88     		ldrh	r3, [r3]
 3343 0016 1900     		movs	r1, r3
 3344 0018 1000     		movs	r0, r2
 3345 001a FFF7FEFF 		bl	_ZL18chBSemWaitTimeoutSP18binary_semaphore_tt
 3346 001e 0300     		movs	r3, r0
 3347              		.loc 12 388 0
 3348 0020 1800     		movs	r0, r3
 3349 0022 03B0     		add	sp, sp, #12
 3350              		@ sp needed
 3351 0024 00BD     		pop	{pc}
 3352              		.cfi_endproc
 3353              	.LFE256:
 3354              		.size	_ZN10chibios_rt15BinarySemaphore5waitSEt, .-_ZN10chibios_rt15BinarySemaphore5waitSEt
 3355 0026 C046     		.section	.text._ZN10chibios_rt15BinarySemaphore5resetEb,"ax",%progbits
 3356              		.align	1
 3357              		.p2align 4,,15
 3358              		.global	_ZN10chibios_rt15BinarySemaphore5resetEb
 3359              		.syntax unified
ARM GAS  /tmp/ccvPPVYB.s 			page 60


 3360              		.code	16
 3361              		.thumb_func
 3362              		.fpu softvfp
 3363              		.type	_ZN10chibios_rt15BinarySemaphore5resetEb, %function
 3364              	_ZN10chibios_rt15BinarySemaphore5resetEb:
 3365              	.LFB257:
 3366              		.loc 12 390 0
 3367              		.cfi_startproc
 3368              		@ args = 0, pretend = 0, frame = 8
 3369              		@ frame_needed = 0, uses_anonymous_args = 0
 3370 0000 00B5     		push	{lr}
 3371              		.cfi_def_cfa_offset 4
 3372              		.cfi_offset 14, -4
 3373 0002 83B0     		sub	sp, sp, #12
 3374              		.cfi_def_cfa_offset 16
 3375 0004 0190     		str	r0, [sp, #4]
 3376 0006 0A00     		movs	r2, r1
 3377 0008 6B46     		mov	r3, sp
 3378 000a 0333     		adds	r3, r3, #3
 3379 000c 1A70     		strb	r2, [r3]
 3380              		.loc 12 392 0
 3381 000e 019A     		ldr	r2, [sp, #4]
 3382 0010 6B46     		mov	r3, sp
 3383 0012 0333     		adds	r3, r3, #3
 3384 0014 1B78     		ldrb	r3, [r3]
 3385 0016 1900     		movs	r1, r3
 3386 0018 1000     		movs	r0, r2
 3387 001a FFF7FEFF 		bl	_ZL11chBSemResetP18binary_semaphore_tb
 3388              		.loc 12 393 0
 3389 001e C046     		nop
 3390 0020 03B0     		add	sp, sp, #12
 3391              		@ sp needed
 3392 0022 00BD     		pop	{pc}
 3393              		.cfi_endproc
 3394              	.LFE257:
 3395              		.size	_ZN10chibios_rt15BinarySemaphore5resetEb, .-_ZN10chibios_rt15BinarySemaphore5resetEb
 3396              		.section	.text._ZN10chibios_rt15BinarySemaphore6resetIEb,"ax",%progbits
 3397              		.align	1
 3398              		.p2align 4,,15
 3399              		.global	_ZN10chibios_rt15BinarySemaphore6resetIEb
 3400              		.syntax unified
 3401              		.code	16
 3402              		.thumb_func
 3403              		.fpu softvfp
 3404              		.type	_ZN10chibios_rt15BinarySemaphore6resetIEb, %function
 3405              	_ZN10chibios_rt15BinarySemaphore6resetIEb:
 3406              	.LFB258:
 3407              		.loc 12 395 0
 3408              		.cfi_startproc
 3409              		@ args = 0, pretend = 0, frame = 8
 3410              		@ frame_needed = 0, uses_anonymous_args = 0
 3411 0000 00B5     		push	{lr}
 3412              		.cfi_def_cfa_offset 4
 3413              		.cfi_offset 14, -4
 3414 0002 83B0     		sub	sp, sp, #12
 3415              		.cfi_def_cfa_offset 16
 3416 0004 0190     		str	r0, [sp, #4]
ARM GAS  /tmp/ccvPPVYB.s 			page 61


 3417 0006 0A00     		movs	r2, r1
 3418 0008 6B46     		mov	r3, sp
 3419 000a 0333     		adds	r3, r3, #3
 3420 000c 1A70     		strb	r2, [r3]
 3421              		.loc 12 397 0
 3422 000e 019A     		ldr	r2, [sp, #4]
 3423 0010 6B46     		mov	r3, sp
 3424 0012 0333     		adds	r3, r3, #3
 3425 0014 1B78     		ldrb	r3, [r3]
 3426 0016 1900     		movs	r1, r3
 3427 0018 1000     		movs	r0, r2
 3428 001a FFF7FEFF 		bl	_ZL12chBSemResetIP18binary_semaphore_tb
 3429              		.loc 12 398 0
 3430 001e C046     		nop
 3431 0020 03B0     		add	sp, sp, #12
 3432              		@ sp needed
 3433 0022 00BD     		pop	{pc}
 3434              		.cfi_endproc
 3435              	.LFE258:
 3436              		.size	_ZN10chibios_rt15BinarySemaphore6resetIEb, .-_ZN10chibios_rt15BinarySemaphore6resetIEb
 3437              		.section	.text._ZN10chibios_rt15BinarySemaphore6signalEv,"ax",%progbits
 3438              		.align	1
 3439              		.p2align 4,,15
 3440              		.global	_ZN10chibios_rt15BinarySemaphore6signalEv
 3441              		.syntax unified
 3442              		.code	16
 3443              		.thumb_func
 3444              		.fpu softvfp
 3445              		.type	_ZN10chibios_rt15BinarySemaphore6signalEv, %function
 3446              	_ZN10chibios_rt15BinarySemaphore6signalEv:
 3447              	.LFB259:
 3448              		.loc 12 400 0
 3449              		.cfi_startproc
 3450              		@ args = 0, pretend = 0, frame = 8
 3451              		@ frame_needed = 0, uses_anonymous_args = 0
 3452 0000 00B5     		push	{lr}
 3453              		.cfi_def_cfa_offset 4
 3454              		.cfi_offset 14, -4
 3455 0002 83B0     		sub	sp, sp, #12
 3456              		.cfi_def_cfa_offset 16
 3457 0004 0190     		str	r0, [sp, #4]
 3458              		.loc 12 402 0
 3459 0006 019B     		ldr	r3, [sp, #4]
 3460 0008 1800     		movs	r0, r3
 3461 000a FFF7FEFF 		bl	_ZL12chBSemSignalP18binary_semaphore_t
 3462              		.loc 12 403 0
 3463 000e C046     		nop
 3464 0010 03B0     		add	sp, sp, #12
 3465              		@ sp needed
 3466 0012 00BD     		pop	{pc}
 3467              		.cfi_endproc
 3468              	.LFE259:
 3469              		.size	_ZN10chibios_rt15BinarySemaphore6signalEv, .-_ZN10chibios_rt15BinarySemaphore6signalEv
 3470              		.section	.text._ZN10chibios_rt15BinarySemaphore7signalIEv,"ax",%progbits
 3471              		.align	1
 3472              		.p2align 4,,15
 3473              		.global	_ZN10chibios_rt15BinarySemaphore7signalIEv
ARM GAS  /tmp/ccvPPVYB.s 			page 62


 3474              		.syntax unified
 3475              		.code	16
 3476              		.thumb_func
 3477              		.fpu softvfp
 3478              		.type	_ZN10chibios_rt15BinarySemaphore7signalIEv, %function
 3479              	_ZN10chibios_rt15BinarySemaphore7signalIEv:
 3480              	.LFB260:
 3481              		.loc 12 405 0
 3482              		.cfi_startproc
 3483              		@ args = 0, pretend = 0, frame = 8
 3484              		@ frame_needed = 0, uses_anonymous_args = 0
 3485 0000 00B5     		push	{lr}
 3486              		.cfi_def_cfa_offset 4
 3487              		.cfi_offset 14, -4
 3488 0002 83B0     		sub	sp, sp, #12
 3489              		.cfi_def_cfa_offset 16
 3490 0004 0190     		str	r0, [sp, #4]
 3491              		.loc 12 407 0
 3492 0006 019B     		ldr	r3, [sp, #4]
 3493 0008 1800     		movs	r0, r3
 3494 000a FFF7FEFF 		bl	_ZL13chBSemSignalIP18binary_semaphore_t
 3495              		.loc 12 408 0
 3496 000e C046     		nop
 3497 0010 03B0     		add	sp, sp, #12
 3498              		@ sp needed
 3499 0012 00BD     		pop	{pc}
 3500              		.cfi_endproc
 3501              	.LFE260:
 3502              		.size	_ZN10chibios_rt15BinarySemaphore7signalIEv, .-_ZN10chibios_rt15BinarySemaphore7signalIEv
 3503              		.section	.text._ZN10chibios_rt15BinarySemaphore9getStateIEv,"ax",%progbits
 3504              		.align	1
 3505              		.p2align 4,,15
 3506              		.global	_ZN10chibios_rt15BinarySemaphore9getStateIEv
 3507              		.syntax unified
 3508              		.code	16
 3509              		.thumb_func
 3510              		.fpu softvfp
 3511              		.type	_ZN10chibios_rt15BinarySemaphore9getStateIEv, %function
 3512              	_ZN10chibios_rt15BinarySemaphore9getStateIEv:
 3513              	.LFB261:
 3514              		.loc 12 410 0
 3515              		.cfi_startproc
 3516              		@ args = 0, pretend = 0, frame = 8
 3517              		@ frame_needed = 0, uses_anonymous_args = 0
 3518 0000 00B5     		push	{lr}
 3519              		.cfi_def_cfa_offset 4
 3520              		.cfi_offset 14, -4
 3521 0002 83B0     		sub	sp, sp, #12
 3522              		.cfi_def_cfa_offset 16
 3523 0004 0190     		str	r0, [sp, #4]
 3524              		.loc 12 412 0
 3525 0006 019B     		ldr	r3, [sp, #4]
 3526 0008 1800     		movs	r0, r3
 3527 000a FFF7FEFF 		bl	_ZL15chBSemGetStateIP18binary_semaphore_t
 3528 000e 0300     		movs	r3, r0
 3529              		.loc 12 413 0
 3530 0010 1800     		movs	r0, r3
ARM GAS  /tmp/ccvPPVYB.s 			page 63


 3531 0012 03B0     		add	sp, sp, #12
 3532              		@ sp needed
 3533 0014 00BD     		pop	{pc}
 3534              		.cfi_endproc
 3535              	.LFE261:
 3536              		.size	_ZN10chibios_rt15BinarySemaphore9getStateIEv, .-_ZN10chibios_rt15BinarySemaphore9getStateIEv
 3537 0016 C046     		.section	.text._ZN10chibios_rt5MutexC2Ev,"ax",%progbits
 3538              		.align	1
 3539              		.p2align 4,,15
 3540              		.global	_ZN10chibios_rt5MutexC2Ev
 3541              		.syntax unified
 3542              		.code	16
 3543              		.thumb_func
 3544              		.fpu softvfp
 3545              		.type	_ZN10chibios_rt5MutexC2Ev, %function
 3546              	_ZN10chibios_rt5MutexC2Ev:
 3547              	.LFB263:
 3548              		.loc 12 420 0
 3549              		.cfi_startproc
 3550              		@ args = 0, pretend = 0, frame = 8
 3551              		@ frame_needed = 0, uses_anonymous_args = 0
 3552 0000 00B5     		push	{lr}
 3553              		.cfi_def_cfa_offset 4
 3554              		.cfi_offset 14, -4
 3555 0002 83B0     		sub	sp, sp, #12
 3556              		.cfi_def_cfa_offset 16
 3557 0004 0190     		str	r0, [sp, #4]
 3558              	.LBB15:
 3559              		.loc 12 422 0
 3560 0006 019B     		ldr	r3, [sp, #4]
 3561 0008 1800     		movs	r0, r3
 3562 000a FFF7FEFF 		bl	chMtxObjectInit
 3563              	.LBE15:
 3564              		.loc 12 423 0
 3565 000e 019B     		ldr	r3, [sp, #4]
 3566 0010 1800     		movs	r0, r3
 3567 0012 03B0     		add	sp, sp, #12
 3568              		@ sp needed
 3569 0014 00BD     		pop	{pc}
 3570              		.cfi_endproc
 3571              	.LFE263:
 3572              		.size	_ZN10chibios_rt5MutexC2Ev, .-_ZN10chibios_rt5MutexC2Ev
 3573              		.global	_ZN10chibios_rt5MutexC1Ev
 3574              		.thumb_set _ZN10chibios_rt5MutexC1Ev,_ZN10chibios_rt5MutexC2Ev
 3575 0016 C046     		.section	.text._ZN10chibios_rt5Mutex7tryLockEv,"ax",%progbits
 3576              		.align	1
 3577              		.p2align 4,,15
 3578              		.global	_ZN10chibios_rt5Mutex7tryLockEv
 3579              		.syntax unified
 3580              		.code	16
 3581              		.thumb_func
 3582              		.fpu softvfp
 3583              		.type	_ZN10chibios_rt5Mutex7tryLockEv, %function
 3584              	_ZN10chibios_rt5Mutex7tryLockEv:
 3585              	.LFB265:
 3586              		.loc 12 425 0
 3587              		.cfi_startproc
ARM GAS  /tmp/ccvPPVYB.s 			page 64


 3588              		@ args = 0, pretend = 0, frame = 8
 3589              		@ frame_needed = 0, uses_anonymous_args = 0
 3590 0000 00B5     		push	{lr}
 3591              		.cfi_def_cfa_offset 4
 3592              		.cfi_offset 14, -4
 3593 0002 83B0     		sub	sp, sp, #12
 3594              		.cfi_def_cfa_offset 16
 3595 0004 0190     		str	r0, [sp, #4]
 3596              		.loc 12 427 0
 3597 0006 019B     		ldr	r3, [sp, #4]
 3598 0008 1800     		movs	r0, r3
 3599 000a FFF7FEFF 		bl	chMtxTryLock
 3600 000e 0300     		movs	r3, r0
 3601              		.loc 12 428 0
 3602 0010 1800     		movs	r0, r3
 3603 0012 03B0     		add	sp, sp, #12
 3604              		@ sp needed
 3605 0014 00BD     		pop	{pc}
 3606              		.cfi_endproc
 3607              	.LFE265:
 3608              		.size	_ZN10chibios_rt5Mutex7tryLockEv, .-_ZN10chibios_rt5Mutex7tryLockEv
 3609 0016 C046     		.section	.text._ZN10chibios_rt5Mutex8tryLockSEv,"ax",%progbits
 3610              		.align	1
 3611              		.p2align 4,,15
 3612              		.global	_ZN10chibios_rt5Mutex8tryLockSEv
 3613              		.syntax unified
 3614              		.code	16
 3615              		.thumb_func
 3616              		.fpu softvfp
 3617              		.type	_ZN10chibios_rt5Mutex8tryLockSEv, %function
 3618              	_ZN10chibios_rt5Mutex8tryLockSEv:
 3619              	.LFB266:
 3620              		.loc 12 430 0
 3621              		.cfi_startproc
 3622              		@ args = 0, pretend = 0, frame = 8
 3623              		@ frame_needed = 0, uses_anonymous_args = 0
 3624 0000 00B5     		push	{lr}
 3625              		.cfi_def_cfa_offset 4
 3626              		.cfi_offset 14, -4
 3627 0002 83B0     		sub	sp, sp, #12
 3628              		.cfi_def_cfa_offset 16
 3629 0004 0190     		str	r0, [sp, #4]
 3630              		.loc 12 432 0
 3631 0006 019B     		ldr	r3, [sp, #4]
 3632 0008 1800     		movs	r0, r3
 3633 000a FFF7FEFF 		bl	chMtxTryLockS
 3634 000e 0300     		movs	r3, r0
 3635              		.loc 12 433 0
 3636 0010 1800     		movs	r0, r3
 3637 0012 03B0     		add	sp, sp, #12
 3638              		@ sp needed
 3639 0014 00BD     		pop	{pc}
 3640              		.cfi_endproc
 3641              	.LFE266:
 3642              		.size	_ZN10chibios_rt5Mutex8tryLockSEv, .-_ZN10chibios_rt5Mutex8tryLockSEv
 3643 0016 C046     		.section	.text._ZN10chibios_rt5Mutex4lockEv,"ax",%progbits
 3644              		.align	1
ARM GAS  /tmp/ccvPPVYB.s 			page 65


 3645              		.p2align 4,,15
 3646              		.global	_ZN10chibios_rt5Mutex4lockEv
 3647              		.syntax unified
 3648              		.code	16
 3649              		.thumb_func
 3650              		.fpu softvfp
 3651              		.type	_ZN10chibios_rt5Mutex4lockEv, %function
 3652              	_ZN10chibios_rt5Mutex4lockEv:
 3653              	.LFB267:
 3654              		.loc 12 435 0
 3655              		.cfi_startproc
 3656              		@ args = 0, pretend = 0, frame = 8
 3657              		@ frame_needed = 0, uses_anonymous_args = 0
 3658 0000 00B5     		push	{lr}
 3659              		.cfi_def_cfa_offset 4
 3660              		.cfi_offset 14, -4
 3661 0002 83B0     		sub	sp, sp, #12
 3662              		.cfi_def_cfa_offset 16
 3663 0004 0190     		str	r0, [sp, #4]
 3664              		.loc 12 437 0
 3665 0006 019B     		ldr	r3, [sp, #4]
 3666 0008 1800     		movs	r0, r3
 3667 000a FFF7FEFF 		bl	chMtxLock
 3668              		.loc 12 438 0
 3669 000e C046     		nop
 3670 0010 03B0     		add	sp, sp, #12
 3671              		@ sp needed
 3672 0012 00BD     		pop	{pc}
 3673              		.cfi_endproc
 3674              	.LFE267:
 3675              		.size	_ZN10chibios_rt5Mutex4lockEv, .-_ZN10chibios_rt5Mutex4lockEv
 3676              		.section	.text._ZN10chibios_rt5Mutex5lockSEv,"ax",%progbits
 3677              		.align	1
 3678              		.p2align 4,,15
 3679              		.global	_ZN10chibios_rt5Mutex5lockSEv
 3680              		.syntax unified
 3681              		.code	16
 3682              		.thumb_func
 3683              		.fpu softvfp
 3684              		.type	_ZN10chibios_rt5Mutex5lockSEv, %function
 3685              	_ZN10chibios_rt5Mutex5lockSEv:
 3686              	.LFB268:
 3687              		.loc 12 440 0
 3688              		.cfi_startproc
 3689              		@ args = 0, pretend = 0, frame = 8
 3690              		@ frame_needed = 0, uses_anonymous_args = 0
 3691 0000 00B5     		push	{lr}
 3692              		.cfi_def_cfa_offset 4
 3693              		.cfi_offset 14, -4
 3694 0002 83B0     		sub	sp, sp, #12
 3695              		.cfi_def_cfa_offset 16
 3696 0004 0190     		str	r0, [sp, #4]
 3697              		.loc 12 442 0
 3698 0006 019B     		ldr	r3, [sp, #4]
 3699 0008 1800     		movs	r0, r3
 3700 000a FFF7FEFF 		bl	chMtxLockS
 3701              		.loc 12 443 0
ARM GAS  /tmp/ccvPPVYB.s 			page 66


 3702 000e C046     		nop
 3703 0010 03B0     		add	sp, sp, #12
 3704              		@ sp needed
 3705 0012 00BD     		pop	{pc}
 3706              		.cfi_endproc
 3707              	.LFE268:
 3708              		.size	_ZN10chibios_rt5Mutex5lockSEv, .-_ZN10chibios_rt5Mutex5lockSEv
 3709              		.section	.text._ZN10chibios_rt5Mutex6unlockEv,"ax",%progbits
 3710              		.align	1
 3711              		.p2align 4,,15
 3712              		.global	_ZN10chibios_rt5Mutex6unlockEv
 3713              		.syntax unified
 3714              		.code	16
 3715              		.thumb_func
 3716              		.fpu softvfp
 3717              		.type	_ZN10chibios_rt5Mutex6unlockEv, %function
 3718              	_ZN10chibios_rt5Mutex6unlockEv:
 3719              	.LFB269:
 3720              		.loc 12 445 0
 3721              		.cfi_startproc
 3722              		@ args = 0, pretend = 0, frame = 8
 3723              		@ frame_needed = 0, uses_anonymous_args = 0
 3724 0000 00B5     		push	{lr}
 3725              		.cfi_def_cfa_offset 4
 3726              		.cfi_offset 14, -4
 3727 0002 83B0     		sub	sp, sp, #12
 3728              		.cfi_def_cfa_offset 16
 3729 0004 0190     		str	r0, [sp, #4]
 3730              		.loc 12 447 0
 3731 0006 019B     		ldr	r3, [sp, #4]
 3732 0008 1800     		movs	r0, r3
 3733 000a FFF7FEFF 		bl	chMtxUnlock
 3734              		.loc 12 448 0
 3735 000e C046     		nop
 3736 0010 03B0     		add	sp, sp, #12
 3737              		@ sp needed
 3738 0012 00BD     		pop	{pc}
 3739              		.cfi_endproc
 3740              	.LFE269:
 3741              		.size	_ZN10chibios_rt5Mutex6unlockEv, .-_ZN10chibios_rt5Mutex6unlockEv
 3742              		.section	.text._ZN10chibios_rt5Mutex7unlockSEv,"ax",%progbits
 3743              		.align	1
 3744              		.p2align 4,,15
 3745              		.global	_ZN10chibios_rt5Mutex7unlockSEv
 3746              		.syntax unified
 3747              		.code	16
 3748              		.thumb_func
 3749              		.fpu softvfp
 3750              		.type	_ZN10chibios_rt5Mutex7unlockSEv, %function
 3751              	_ZN10chibios_rt5Mutex7unlockSEv:
 3752              	.LFB270:
 3753              		.loc 12 450 0
 3754              		.cfi_startproc
 3755              		@ args = 0, pretend = 0, frame = 8
 3756              		@ frame_needed = 0, uses_anonymous_args = 0
 3757 0000 00B5     		push	{lr}
 3758              		.cfi_def_cfa_offset 4
ARM GAS  /tmp/ccvPPVYB.s 			page 67


 3759              		.cfi_offset 14, -4
 3760 0002 83B0     		sub	sp, sp, #12
 3761              		.cfi_def_cfa_offset 16
 3762 0004 0190     		str	r0, [sp, #4]
 3763              		.loc 12 452 0
 3764 0006 019B     		ldr	r3, [sp, #4]
 3765 0008 1800     		movs	r0, r3
 3766 000a FFF7FEFF 		bl	chMtxUnlockS
 3767              		.loc 12 453 0
 3768 000e C046     		nop
 3769 0010 03B0     		add	sp, sp, #12
 3770              		@ sp needed
 3771 0012 00BD     		pop	{pc}
 3772              		.cfi_endproc
 3773              	.LFE270:
 3774              		.size	_ZN10chibios_rt5Mutex7unlockSEv, .-_ZN10chibios_rt5Mutex7unlockSEv
 3775              		.section	.text._ZN10chibios_rt7CondVarC2Ev,"ax",%progbits
 3776              		.align	1
 3777              		.p2align 4,,15
 3778              		.global	_ZN10chibios_rt7CondVarC2Ev
 3779              		.syntax unified
 3780              		.code	16
 3781              		.thumb_func
 3782              		.fpu softvfp
 3783              		.type	_ZN10chibios_rt7CondVarC2Ev, %function
 3784              	_ZN10chibios_rt7CondVarC2Ev:
 3785              	.LFB272:
 3786              		.loc 12 459 0
 3787              		.cfi_startproc
 3788              		@ args = 0, pretend = 0, frame = 8
 3789              		@ frame_needed = 0, uses_anonymous_args = 0
 3790 0000 00B5     		push	{lr}
 3791              		.cfi_def_cfa_offset 4
 3792              		.cfi_offset 14, -4
 3793 0002 83B0     		sub	sp, sp, #12
 3794              		.cfi_def_cfa_offset 16
 3795 0004 0190     		str	r0, [sp, #4]
 3796              	.LBB16:
 3797              		.loc 12 461 0
 3798 0006 019B     		ldr	r3, [sp, #4]
 3799 0008 1800     		movs	r0, r3
 3800 000a FFF7FEFF 		bl	chCondObjectInit
 3801              	.LBE16:
 3802              		.loc 12 462 0
 3803 000e 019B     		ldr	r3, [sp, #4]
 3804 0010 1800     		movs	r0, r3
 3805 0012 03B0     		add	sp, sp, #12
 3806              		@ sp needed
 3807 0014 00BD     		pop	{pc}
 3808              		.cfi_endproc
 3809              	.LFE272:
 3810              		.size	_ZN10chibios_rt7CondVarC2Ev, .-_ZN10chibios_rt7CondVarC2Ev
 3811              		.global	_ZN10chibios_rt7CondVarC1Ev
 3812              		.thumb_set _ZN10chibios_rt7CondVarC1Ev,_ZN10chibios_rt7CondVarC2Ev
 3813 0016 C046     		.section	.text._ZN10chibios_rt7CondVar6signalEv,"ax",%progbits
 3814              		.align	1
 3815              		.p2align 4,,15
ARM GAS  /tmp/ccvPPVYB.s 			page 68


 3816              		.global	_ZN10chibios_rt7CondVar6signalEv
 3817              		.syntax unified
 3818              		.code	16
 3819              		.thumb_func
 3820              		.fpu softvfp
 3821              		.type	_ZN10chibios_rt7CondVar6signalEv, %function
 3822              	_ZN10chibios_rt7CondVar6signalEv:
 3823              	.LFB274:
 3824              		.loc 12 464 0
 3825              		.cfi_startproc
 3826              		@ args = 0, pretend = 0, frame = 8
 3827              		@ frame_needed = 0, uses_anonymous_args = 0
 3828 0000 00B5     		push	{lr}
 3829              		.cfi_def_cfa_offset 4
 3830              		.cfi_offset 14, -4
 3831 0002 83B0     		sub	sp, sp, #12
 3832              		.cfi_def_cfa_offset 16
 3833 0004 0190     		str	r0, [sp, #4]
 3834              		.loc 12 466 0
 3835 0006 019B     		ldr	r3, [sp, #4]
 3836 0008 1800     		movs	r0, r3
 3837 000a FFF7FEFF 		bl	chCondSignal
 3838              		.loc 12 467 0
 3839 000e C046     		nop
 3840 0010 03B0     		add	sp, sp, #12
 3841              		@ sp needed
 3842 0012 00BD     		pop	{pc}
 3843              		.cfi_endproc
 3844              	.LFE274:
 3845              		.size	_ZN10chibios_rt7CondVar6signalEv, .-_ZN10chibios_rt7CondVar6signalEv
 3846              		.section	.text._ZN10chibios_rt7CondVar7signalIEv,"ax",%progbits
 3847              		.align	1
 3848              		.p2align 4,,15
 3849              		.global	_ZN10chibios_rt7CondVar7signalIEv
 3850              		.syntax unified
 3851              		.code	16
 3852              		.thumb_func
 3853              		.fpu softvfp
 3854              		.type	_ZN10chibios_rt7CondVar7signalIEv, %function
 3855              	_ZN10chibios_rt7CondVar7signalIEv:
 3856              	.LFB275:
 3857              		.loc 12 469 0
 3858              		.cfi_startproc
 3859              		@ args = 0, pretend = 0, frame = 8
 3860              		@ frame_needed = 0, uses_anonymous_args = 0
 3861 0000 00B5     		push	{lr}
 3862              		.cfi_def_cfa_offset 4
 3863              		.cfi_offset 14, -4
 3864 0002 83B0     		sub	sp, sp, #12
 3865              		.cfi_def_cfa_offset 16
 3866 0004 0190     		str	r0, [sp, #4]
 3867              		.loc 12 471 0
 3868 0006 019B     		ldr	r3, [sp, #4]
 3869 0008 1800     		movs	r0, r3
 3870 000a FFF7FEFF 		bl	chCondSignalI
 3871              		.loc 12 472 0
 3872 000e C046     		nop
ARM GAS  /tmp/ccvPPVYB.s 			page 69


 3873 0010 03B0     		add	sp, sp, #12
 3874              		@ sp needed
 3875 0012 00BD     		pop	{pc}
 3876              		.cfi_endproc
 3877              	.LFE275:
 3878              		.size	_ZN10chibios_rt7CondVar7signalIEv, .-_ZN10chibios_rt7CondVar7signalIEv
 3879              		.section	.text._ZN10chibios_rt7CondVar9broadcastEv,"ax",%progbits
 3880              		.align	1
 3881              		.p2align 4,,15
 3882              		.global	_ZN10chibios_rt7CondVar9broadcastEv
 3883              		.syntax unified
 3884              		.code	16
 3885              		.thumb_func
 3886              		.fpu softvfp
 3887              		.type	_ZN10chibios_rt7CondVar9broadcastEv, %function
 3888              	_ZN10chibios_rt7CondVar9broadcastEv:
 3889              	.LFB276:
 3890              		.loc 12 474 0
 3891              		.cfi_startproc
 3892              		@ args = 0, pretend = 0, frame = 8
 3893              		@ frame_needed = 0, uses_anonymous_args = 0
 3894 0000 00B5     		push	{lr}
 3895              		.cfi_def_cfa_offset 4
 3896              		.cfi_offset 14, -4
 3897 0002 83B0     		sub	sp, sp, #12
 3898              		.cfi_def_cfa_offset 16
 3899 0004 0190     		str	r0, [sp, #4]
 3900              		.loc 12 476 0
 3901 0006 019B     		ldr	r3, [sp, #4]
 3902 0008 1800     		movs	r0, r3
 3903 000a FFF7FEFF 		bl	chCondBroadcast
 3904              		.loc 12 477 0
 3905 000e C046     		nop
 3906 0010 03B0     		add	sp, sp, #12
 3907              		@ sp needed
 3908 0012 00BD     		pop	{pc}
 3909              		.cfi_endproc
 3910              	.LFE276:
 3911              		.size	_ZN10chibios_rt7CondVar9broadcastEv, .-_ZN10chibios_rt7CondVar9broadcastEv
 3912              		.section	.text._ZN10chibios_rt7CondVar10broadcastIEv,"ax",%progbits
 3913              		.align	1
 3914              		.p2align 4,,15
 3915              		.global	_ZN10chibios_rt7CondVar10broadcastIEv
 3916              		.syntax unified
 3917              		.code	16
 3918              		.thumb_func
 3919              		.fpu softvfp
 3920              		.type	_ZN10chibios_rt7CondVar10broadcastIEv, %function
 3921              	_ZN10chibios_rt7CondVar10broadcastIEv:
 3922              	.LFB277:
 3923              		.loc 12 479 0
 3924              		.cfi_startproc
 3925              		@ args = 0, pretend = 0, frame = 8
 3926              		@ frame_needed = 0, uses_anonymous_args = 0
 3927 0000 00B5     		push	{lr}
 3928              		.cfi_def_cfa_offset 4
 3929              		.cfi_offset 14, -4
ARM GAS  /tmp/ccvPPVYB.s 			page 70


 3930 0002 83B0     		sub	sp, sp, #12
 3931              		.cfi_def_cfa_offset 16
 3932 0004 0190     		str	r0, [sp, #4]
 3933              		.loc 12 481 0
 3934 0006 019B     		ldr	r3, [sp, #4]
 3935 0008 1800     		movs	r0, r3
 3936 000a FFF7FEFF 		bl	chCondBroadcastI
 3937              		.loc 12 482 0
 3938 000e C046     		nop
 3939 0010 03B0     		add	sp, sp, #12
 3940              		@ sp needed
 3941 0012 00BD     		pop	{pc}
 3942              		.cfi_endproc
 3943              	.LFE277:
 3944              		.size	_ZN10chibios_rt7CondVar10broadcastIEv, .-_ZN10chibios_rt7CondVar10broadcastIEv
 3945              		.section	.text._ZN10chibios_rt7CondVar4waitEv,"ax",%progbits
 3946              		.align	1
 3947              		.p2align 4,,15
 3948              		.global	_ZN10chibios_rt7CondVar4waitEv
 3949              		.syntax unified
 3950              		.code	16
 3951              		.thumb_func
 3952              		.fpu softvfp
 3953              		.type	_ZN10chibios_rt7CondVar4waitEv, %function
 3954              	_ZN10chibios_rt7CondVar4waitEv:
 3955              	.LFB278:
 3956              		.loc 12 484 0
 3957              		.cfi_startproc
 3958              		@ args = 0, pretend = 0, frame = 8
 3959              		@ frame_needed = 0, uses_anonymous_args = 0
 3960 0000 00B5     		push	{lr}
 3961              		.cfi_def_cfa_offset 4
 3962              		.cfi_offset 14, -4
 3963 0002 83B0     		sub	sp, sp, #12
 3964              		.cfi_def_cfa_offset 16
 3965 0004 0190     		str	r0, [sp, #4]
 3966              		.loc 12 486 0
 3967 0006 019B     		ldr	r3, [sp, #4]
 3968 0008 1800     		movs	r0, r3
 3969 000a FFF7FEFF 		bl	chCondWait
 3970 000e 0300     		movs	r3, r0
 3971              		.loc 12 487 0
 3972 0010 1800     		movs	r0, r3
 3973 0012 03B0     		add	sp, sp, #12
 3974              		@ sp needed
 3975 0014 00BD     		pop	{pc}
 3976              		.cfi_endproc
 3977              	.LFE278:
 3978              		.size	_ZN10chibios_rt7CondVar4waitEv, .-_ZN10chibios_rt7CondVar4waitEv
 3979 0016 C046     		.section	.text._ZN10chibios_rt7CondVar5waitSEv,"ax",%progbits
 3980              		.align	1
 3981              		.p2align 4,,15
 3982              		.global	_ZN10chibios_rt7CondVar5waitSEv
 3983              		.syntax unified
 3984              		.code	16
 3985              		.thumb_func
 3986              		.fpu softvfp
ARM GAS  /tmp/ccvPPVYB.s 			page 71


 3987              		.type	_ZN10chibios_rt7CondVar5waitSEv, %function
 3988              	_ZN10chibios_rt7CondVar5waitSEv:
 3989              	.LFB279:
 3990              		.loc 12 489 0
 3991              		.cfi_startproc
 3992              		@ args = 0, pretend = 0, frame = 8
 3993              		@ frame_needed = 0, uses_anonymous_args = 0
 3994 0000 00B5     		push	{lr}
 3995              		.cfi_def_cfa_offset 4
 3996              		.cfi_offset 14, -4
 3997 0002 83B0     		sub	sp, sp, #12
 3998              		.cfi_def_cfa_offset 16
 3999 0004 0190     		str	r0, [sp, #4]
 4000              		.loc 12 491 0
 4001 0006 019B     		ldr	r3, [sp, #4]
 4002 0008 1800     		movs	r0, r3
 4003 000a FFF7FEFF 		bl	chCondWaitS
 4004 000e 0300     		movs	r3, r0
 4005              		.loc 12 492 0
 4006 0010 1800     		movs	r0, r3
 4007 0012 03B0     		add	sp, sp, #12
 4008              		@ sp needed
 4009 0014 00BD     		pop	{pc}
 4010              		.cfi_endproc
 4011              	.LFE279:
 4012              		.size	_ZN10chibios_rt7CondVar5waitSEv, .-_ZN10chibios_rt7CondVar5waitSEv
 4013 0016 C046     		.section	.text._ZN10chibios_rt7CondVar4waitEt,"ax",%progbits
 4014              		.align	1
 4015              		.p2align 4,,15
 4016              		.global	_ZN10chibios_rt7CondVar4waitEt
 4017              		.syntax unified
 4018              		.code	16
 4019              		.thumb_func
 4020              		.fpu softvfp
 4021              		.type	_ZN10chibios_rt7CondVar4waitEt, %function
 4022              	_ZN10chibios_rt7CondVar4waitEt:
 4023              	.LFB280:
 4024              		.loc 12 495 0
 4025              		.cfi_startproc
 4026              		@ args = 0, pretend = 0, frame = 8
 4027              		@ frame_needed = 0, uses_anonymous_args = 0
 4028 0000 00B5     		push	{lr}
 4029              		.cfi_def_cfa_offset 4
 4030              		.cfi_offset 14, -4
 4031 0002 83B0     		sub	sp, sp, #12
 4032              		.cfi_def_cfa_offset 16
 4033 0004 0190     		str	r0, [sp, #4]
 4034 0006 0A00     		movs	r2, r1
 4035 0008 6B46     		mov	r3, sp
 4036 000a 0233     		adds	r3, r3, #2
 4037 000c 1A80     		strh	r2, [r3]
 4038              		.loc 12 497 0
 4039 000e 019A     		ldr	r2, [sp, #4]
 4040 0010 6B46     		mov	r3, sp
 4041 0012 0233     		adds	r3, r3, #2
 4042 0014 1B88     		ldrh	r3, [r3]
 4043 0016 1900     		movs	r1, r3
ARM GAS  /tmp/ccvPPVYB.s 			page 72


 4044 0018 1000     		movs	r0, r2
 4045 001a FFF7FEFF 		bl	chCondWaitTimeout
 4046 001e 0300     		movs	r3, r0
 4047              		.loc 12 498 0
 4048 0020 1800     		movs	r0, r3
 4049 0022 03B0     		add	sp, sp, #12
 4050              		@ sp needed
 4051 0024 00BD     		pop	{pc}
 4052              		.cfi_endproc
 4053              	.LFE280:
 4054              		.size	_ZN10chibios_rt7CondVar4waitEt, .-_ZN10chibios_rt7CondVar4waitEt
 4055 0026 C046     		.section	.text._ZN10chibios_rt11EvtListener16getAndClearFlagsEv,"ax",%progbits
 4056              		.align	1
 4057              		.p2align 4,,15
 4058              		.global	_ZN10chibios_rt11EvtListener16getAndClearFlagsEv
 4059              		.syntax unified
 4060              		.code	16
 4061              		.thumb_func
 4062              		.fpu softvfp
 4063              		.type	_ZN10chibios_rt11EvtListener16getAndClearFlagsEv, %function
 4064              	_ZN10chibios_rt11EvtListener16getAndClearFlagsEv:
 4065              	.LFB281:
 4066              		.loc 12 507 0
 4067              		.cfi_startproc
 4068              		@ args = 0, pretend = 0, frame = 8
 4069              		@ frame_needed = 0, uses_anonymous_args = 0
 4070 0000 00B5     		push	{lr}
 4071              		.cfi_def_cfa_offset 4
 4072              		.cfi_offset 14, -4
 4073 0002 83B0     		sub	sp, sp, #12
 4074              		.cfi_def_cfa_offset 16
 4075 0004 0190     		str	r0, [sp, #4]
 4076              		.loc 12 509 0
 4077 0006 019B     		ldr	r3, [sp, #4]
 4078 0008 1800     		movs	r0, r3
 4079 000a FFF7FEFF 		bl	chEvtGetAndClearFlags
 4080 000e 0300     		movs	r3, r0
 4081              		.loc 12 510 0
 4082 0010 1800     		movs	r0, r3
 4083 0012 03B0     		add	sp, sp, #12
 4084              		@ sp needed
 4085 0014 00BD     		pop	{pc}
 4086              		.cfi_endproc
 4087              	.LFE281:
 4088              		.size	_ZN10chibios_rt11EvtListener16getAndClearFlagsEv, .-_ZN10chibios_rt11EvtListener16getAndClea
 4089 0016 C046     		.section	.text._ZN10chibios_rt11EvtListener17getAndClearFlagsIEv,"ax",%progbits
 4090              		.align	1
 4091              		.p2align 4,,15
 4092              		.global	_ZN10chibios_rt11EvtListener17getAndClearFlagsIEv
 4093              		.syntax unified
 4094              		.code	16
 4095              		.thumb_func
 4096              		.fpu softvfp
 4097              		.type	_ZN10chibios_rt11EvtListener17getAndClearFlagsIEv, %function
 4098              	_ZN10chibios_rt11EvtListener17getAndClearFlagsIEv:
 4099              	.LFB282:
 4100              		.loc 12 512 0
ARM GAS  /tmp/ccvPPVYB.s 			page 73


 4101              		.cfi_startproc
 4102              		@ args = 0, pretend = 0, frame = 8
 4103              		@ frame_needed = 0, uses_anonymous_args = 0
 4104 0000 00B5     		push	{lr}
 4105              		.cfi_def_cfa_offset 4
 4106              		.cfi_offset 14, -4
 4107 0002 83B0     		sub	sp, sp, #12
 4108              		.cfi_def_cfa_offset 16
 4109 0004 0190     		str	r0, [sp, #4]
 4110              		.loc 12 514 0
 4111 0006 019B     		ldr	r3, [sp, #4]
 4112 0008 1800     		movs	r0, r3
 4113 000a FFF7FEFF 		bl	chEvtGetAndClearFlagsI
 4114 000e 0300     		movs	r3, r0
 4115              		.loc 12 515 0
 4116 0010 1800     		movs	r0, r3
 4117 0012 03B0     		add	sp, sp, #12
 4118              		@ sp needed
 4119 0014 00BD     		pop	{pc}
 4120              		.cfi_endproc
 4121              	.LFE282:
 4122              		.size	_ZN10chibios_rt11EvtListener17getAndClearFlagsIEv, .-_ZN10chibios_rt11EvtListener17getAndCle
 4123 0016 C046     		.section	.text._ZN10chibios_rt9EvtSourceC2Ev,"ax",%progbits
 4124              		.align	1
 4125              		.p2align 4,,15
 4126              		.global	_ZN10chibios_rt9EvtSourceC2Ev
 4127              		.syntax unified
 4128              		.code	16
 4129              		.thumb_func
 4130              		.fpu softvfp
 4131              		.type	_ZN10chibios_rt9EvtSourceC2Ev, %function
 4132              	_ZN10chibios_rt9EvtSourceC2Ev:
 4133              	.LFB284:
 4134              		.loc 12 520 0
 4135              		.cfi_startproc
 4136              		@ args = 0, pretend = 0, frame = 8
 4137              		@ frame_needed = 0, uses_anonymous_args = 0
 4138 0000 00B5     		push	{lr}
 4139              		.cfi_def_cfa_offset 4
 4140              		.cfi_offset 14, -4
 4141 0002 83B0     		sub	sp, sp, #12
 4142              		.cfi_def_cfa_offset 16
 4143 0004 0190     		str	r0, [sp, #4]
 4144              	.LBB17:
 4145              		.loc 12 522 0
 4146 0006 019B     		ldr	r3, [sp, #4]
 4147 0008 1800     		movs	r0, r3
 4148 000a FFF7FEFF 		bl	_ZL15chEvtObjectInitP12event_source
 4149              	.LBE17:
 4150              		.loc 12 523 0
 4151 000e 019B     		ldr	r3, [sp, #4]
 4152 0010 1800     		movs	r0, r3
 4153 0012 03B0     		add	sp, sp, #12
 4154              		@ sp needed
 4155 0014 00BD     		pop	{pc}
 4156              		.cfi_endproc
 4157              	.LFE284:
ARM GAS  /tmp/ccvPPVYB.s 			page 74


 4158              		.size	_ZN10chibios_rt9EvtSourceC2Ev, .-_ZN10chibios_rt9EvtSourceC2Ev
 4159              		.global	_ZN10chibios_rt9EvtSourceC1Ev
 4160              		.thumb_set _ZN10chibios_rt9EvtSourceC1Ev,_ZN10chibios_rt9EvtSourceC2Ev
 4161 0016 C046     		.section	.text._ZN10chibios_rt9EvtSource11registerOneEPNS_11EvtListenerEl,"ax",%progbits
 4162              		.align	1
 4163              		.p2align 4,,15
 4164              		.global	_ZN10chibios_rt9EvtSource11registerOneEPNS_11EvtListenerEl
 4165              		.syntax unified
 4166              		.code	16
 4167              		.thumb_func
 4168              		.fpu softvfp
 4169              		.type	_ZN10chibios_rt9EvtSource11registerOneEPNS_11EvtListenerEl, %function
 4170              	_ZN10chibios_rt9EvtSource11registerOneEPNS_11EvtListenerEl:
 4171              	.LFB286:
 4172              		.loc 12 526 0
 4173              		.cfi_startproc
 4174              		@ args = 0, pretend = 0, frame = 16
 4175              		@ frame_needed = 0, uses_anonymous_args = 0
 4176 0000 00B5     		push	{lr}
 4177              		.cfi_def_cfa_offset 4
 4178              		.cfi_offset 14, -4
 4179 0002 85B0     		sub	sp, sp, #20
 4180              		.cfi_def_cfa_offset 24
 4181 0004 0390     		str	r0, [sp, #12]
 4182 0006 0291     		str	r1, [sp, #8]
 4183 0008 0192     		str	r2, [sp, #4]
 4184              		.loc 12 528 0
 4185 000a 039B     		ldr	r3, [sp, #12]
 4186 000c 0299     		ldr	r1, [sp, #8]
 4187 000e 019A     		ldr	r2, [sp, #4]
 4188 0010 1800     		movs	r0, r3
 4189 0012 FFF7FEFF 		bl	_ZL13chEvtRegisterP12event_sourceP14event_listenerl
 4190              		.loc 12 529 0
 4191 0016 C046     		nop
 4192 0018 05B0     		add	sp, sp, #20
 4193              		@ sp needed
 4194 001a 00BD     		pop	{pc}
 4195              		.cfi_endproc
 4196              	.LFE286:
 4197              		.size	_ZN10chibios_rt9EvtSource11registerOneEPNS_11EvtListenerEl, .-_ZN10chibios_rt9EvtSource11reg
 4198              		.section	.text._ZN10chibios_rt9EvtSource12registerMaskEPNS_11EvtListenerEm,"ax",%progbits
 4199              		.align	1
 4200              		.p2align 4,,15
 4201              		.global	_ZN10chibios_rt9EvtSource12registerMaskEPNS_11EvtListenerEm
 4202              		.syntax unified
 4203              		.code	16
 4204              		.thumb_func
 4205              		.fpu softvfp
 4206              		.type	_ZN10chibios_rt9EvtSource12registerMaskEPNS_11EvtListenerEm, %function
 4207              	_ZN10chibios_rt9EvtSource12registerMaskEPNS_11EvtListenerEm:
 4208              	.LFB287:
 4209              		.loc 12 532 0
 4210              		.cfi_startproc
 4211              		@ args = 0, pretend = 0, frame = 16
 4212              		@ frame_needed = 0, uses_anonymous_args = 0
 4213 0000 00B5     		push	{lr}
 4214              		.cfi_def_cfa_offset 4
ARM GAS  /tmp/ccvPPVYB.s 			page 75


 4215              		.cfi_offset 14, -4
 4216 0002 85B0     		sub	sp, sp, #20
 4217              		.cfi_def_cfa_offset 24
 4218 0004 0390     		str	r0, [sp, #12]
 4219 0006 0291     		str	r1, [sp, #8]
 4220 0008 0192     		str	r2, [sp, #4]
 4221              		.loc 12 534 0
 4222 000a 039B     		ldr	r3, [sp, #12]
 4223 000c 0299     		ldr	r1, [sp, #8]
 4224 000e 019A     		ldr	r2, [sp, #4]
 4225 0010 1800     		movs	r0, r3
 4226 0012 FFF7FEFF 		bl	_ZL17chEvtRegisterMaskP12event_sourceP14event_listenerm
 4227              		.loc 12 535 0
 4228 0016 C046     		nop
 4229 0018 05B0     		add	sp, sp, #20
 4230              		@ sp needed
 4231 001a 00BD     		pop	{pc}
 4232              		.cfi_endproc
 4233              	.LFE287:
 4234              		.size	_ZN10chibios_rt9EvtSource12registerMaskEPNS_11EvtListenerEm, .-_ZN10chibios_rt9EvtSource12re
 4235              		.section	.text._ZN10chibios_rt9EvtSource10unregisterEPNS_11EvtListenerE,"ax",%progbits
 4236              		.align	1
 4237              		.p2align 4,,15
 4238              		.global	_ZN10chibios_rt9EvtSource10unregisterEPNS_11EvtListenerE
 4239              		.syntax unified
 4240              		.code	16
 4241              		.thumb_func
 4242              		.fpu softvfp
 4243              		.type	_ZN10chibios_rt9EvtSource10unregisterEPNS_11EvtListenerE, %function
 4244              	_ZN10chibios_rt9EvtSource10unregisterEPNS_11EvtListenerE:
 4245              	.LFB288:
 4246              		.loc 12 537 0
 4247              		.cfi_startproc
 4248              		@ args = 0, pretend = 0, frame = 8
 4249              		@ frame_needed = 0, uses_anonymous_args = 0
 4250 0000 00B5     		push	{lr}
 4251              		.cfi_def_cfa_offset 4
 4252              		.cfi_offset 14, -4
 4253 0002 83B0     		sub	sp, sp, #12
 4254              		.cfi_def_cfa_offset 16
 4255 0004 0190     		str	r0, [sp, #4]
 4256 0006 0091     		str	r1, [sp]
 4257              		.loc 12 539 0
 4258 0008 019B     		ldr	r3, [sp, #4]
 4259 000a 009A     		ldr	r2, [sp]
 4260 000c 1100     		movs	r1, r2
 4261 000e 1800     		movs	r0, r3
 4262 0010 FFF7FEFF 		bl	chEvtUnregister
 4263              		.loc 12 540 0
 4264 0014 C046     		nop
 4265 0016 03B0     		add	sp, sp, #12
 4266              		@ sp needed
 4267 0018 00BD     		pop	{pc}
 4268              		.cfi_endproc
 4269              	.LFE288:
 4270              		.size	_ZN10chibios_rt9EvtSource10unregisterEPNS_11EvtListenerE, .-_ZN10chibios_rt9EvtSource10unreg
 4271 001a C046     		.section	.text._ZN10chibios_rt9EvtSource14broadcastFlagsEm,"ax",%progbits
ARM GAS  /tmp/ccvPPVYB.s 			page 76


 4272              		.align	1
 4273              		.p2align 4,,15
 4274              		.global	_ZN10chibios_rt9EvtSource14broadcastFlagsEm
 4275              		.syntax unified
 4276              		.code	16
 4277              		.thumb_func
 4278              		.fpu softvfp
 4279              		.type	_ZN10chibios_rt9EvtSource14broadcastFlagsEm, %function
 4280              	_ZN10chibios_rt9EvtSource14broadcastFlagsEm:
 4281              	.LFB289:
 4282              		.loc 12 542 0
 4283              		.cfi_startproc
 4284              		@ args = 0, pretend = 0, frame = 8
 4285              		@ frame_needed = 0, uses_anonymous_args = 0
 4286 0000 00B5     		push	{lr}
 4287              		.cfi_def_cfa_offset 4
 4288              		.cfi_offset 14, -4
 4289 0002 83B0     		sub	sp, sp, #12
 4290              		.cfi_def_cfa_offset 16
 4291 0004 0190     		str	r0, [sp, #4]
 4292 0006 0091     		str	r1, [sp]
 4293              		.loc 12 544 0
 4294 0008 019B     		ldr	r3, [sp, #4]
 4295 000a 009A     		ldr	r2, [sp]
 4296 000c 1100     		movs	r1, r2
 4297 000e 1800     		movs	r0, r3
 4298 0010 FFF7FEFF 		bl	chEvtBroadcastFlags
 4299              		.loc 12 545 0
 4300 0014 C046     		nop
 4301 0016 03B0     		add	sp, sp, #12
 4302              		@ sp needed
 4303 0018 00BD     		pop	{pc}
 4304              		.cfi_endproc
 4305              	.LFE289:
 4306              		.size	_ZN10chibios_rt9EvtSource14broadcastFlagsEm, .-_ZN10chibios_rt9EvtSource14broadcastFlagsEm
 4307 001a C046     		.section	.text._ZN10chibios_rt9EvtSource15broadcastFlagsIEm,"ax",%progbits
 4308              		.align	1
 4309              		.p2align 4,,15
 4310              		.global	_ZN10chibios_rt9EvtSource15broadcastFlagsIEm
 4311              		.syntax unified
 4312              		.code	16
 4313              		.thumb_func
 4314              		.fpu softvfp
 4315              		.type	_ZN10chibios_rt9EvtSource15broadcastFlagsIEm, %function
 4316              	_ZN10chibios_rt9EvtSource15broadcastFlagsIEm:
 4317              	.LFB290:
 4318              		.loc 12 547 0
 4319              		.cfi_startproc
 4320              		@ args = 0, pretend = 0, frame = 8
 4321              		@ frame_needed = 0, uses_anonymous_args = 0
 4322 0000 00B5     		push	{lr}
 4323              		.cfi_def_cfa_offset 4
 4324              		.cfi_offset 14, -4
 4325 0002 83B0     		sub	sp, sp, #12
 4326              		.cfi_def_cfa_offset 16
 4327 0004 0190     		str	r0, [sp, #4]
 4328 0006 0091     		str	r1, [sp]
ARM GAS  /tmp/ccvPPVYB.s 			page 77


 4329              		.loc 12 549 0
 4330 0008 019B     		ldr	r3, [sp, #4]
 4331 000a 009A     		ldr	r2, [sp]
 4332 000c 1100     		movs	r1, r2
 4333 000e 1800     		movs	r0, r3
 4334 0010 FFF7FEFF 		bl	chEvtBroadcastFlagsI
 4335              		.loc 12 550 0
 4336 0014 C046     		nop
 4337 0016 03B0     		add	sp, sp, #12
 4338              		@ sp needed
 4339 0018 00BD     		pop	{pc}
 4340              		.cfi_endproc
 4341              	.LFE290:
 4342              		.size	_ZN10chibios_rt9EvtSource15broadcastFlagsIEm, .-_ZN10chibios_rt9EvtSource15broadcastFlagsIEm
 4343 001a C046     		.section	.text._ZN10chibios_rt7InQueueC2EPhjPFvP8io_queueEPv,"ax",%progbits
 4344              		.align	1
 4345              		.p2align 4,,15
 4346              		.global	_ZN10chibios_rt7InQueueC2EPhjPFvP8io_queueEPv
 4347              		.syntax unified
 4348              		.code	16
 4349              		.thumb_func
 4350              		.fpu softvfp
 4351              		.type	_ZN10chibios_rt7InQueueC2EPhjPFvP8io_queueEPv, %function
 4352              	_ZN10chibios_rt7InQueueC2EPhjPFvP8io_queueEPv:
 4353              	.LFB292:
 4354              		.loc 12 557 0
 4355              		.cfi_startproc
 4356              		@ args = 4, pretend = 0, frame = 16
 4357              		@ frame_needed = 0, uses_anonymous_args = 0
 4358 0000 10B5     		push	{r4, lr}
 4359              		.cfi_def_cfa_offset 8
 4360              		.cfi_offset 4, -8
 4361              		.cfi_offset 14, -4
 4362 0002 86B0     		sub	sp, sp, #24
 4363              		.cfi_def_cfa_offset 32
 4364 0004 0590     		str	r0, [sp, #20]
 4365 0006 0491     		str	r1, [sp, #16]
 4366 0008 0392     		str	r2, [sp, #12]
 4367 000a 0293     		str	r3, [sp, #8]
 4368              	.LBB18:
 4369              		.loc 12 559 0
 4370 000c 0598     		ldr	r0, [sp, #20]
 4371 000e 029C     		ldr	r4, [sp, #8]
 4372 0010 039A     		ldr	r2, [sp, #12]
 4373 0012 0499     		ldr	r1, [sp, #16]
 4374 0014 089B     		ldr	r3, [sp, #32]
 4375 0016 0093     		str	r3, [sp]
 4376 0018 2300     		movs	r3, r4
 4377 001a FFF7FEFF 		bl	chIQObjectInit
 4378              	.LBE18:
 4379              		.loc 12 560 0
 4380 001e 059B     		ldr	r3, [sp, #20]
 4381 0020 1800     		movs	r0, r3
 4382 0022 06B0     		add	sp, sp, #24
 4383              		@ sp needed
 4384 0024 10BD     		pop	{r4, pc}
 4385              		.cfi_endproc
ARM GAS  /tmp/ccvPPVYB.s 			page 78


 4386              	.LFE292:
 4387              		.size	_ZN10chibios_rt7InQueueC2EPhjPFvP8io_queueEPv, .-_ZN10chibios_rt7InQueueC2EPhjPFvP8io_queueE
 4388              		.global	_ZN10chibios_rt7InQueueC1EPhjPFvP8io_queueEPv
 4389              		.thumb_set _ZN10chibios_rt7InQueueC1EPhjPFvP8io_queueEPv,_ZN10chibios_rt7InQueueC2EPhjPFvP8io_queu
 4390 0026 C046     		.section	.text._ZN10chibios_rt7InQueue8getFullIEv,"ax",%progbits
 4391              		.align	1
 4392              		.p2align 4,,15
 4393              		.global	_ZN10chibios_rt7InQueue8getFullIEv
 4394              		.syntax unified
 4395              		.code	16
 4396              		.thumb_func
 4397              		.fpu softvfp
 4398              		.type	_ZN10chibios_rt7InQueue8getFullIEv, %function
 4399              	_ZN10chibios_rt7InQueue8getFullIEv:
 4400              	.LFB294:
 4401              		.loc 12 562 0
 4402              		.cfi_startproc
 4403              		@ args = 0, pretend = 0, frame = 8
 4404              		@ frame_needed = 0, uses_anonymous_args = 0
 4405 0000 00B5     		push	{lr}
 4406              		.cfi_def_cfa_offset 4
 4407              		.cfi_offset 14, -4
 4408 0002 83B0     		sub	sp, sp, #12
 4409              		.cfi_def_cfa_offset 16
 4410 0004 0190     		str	r0, [sp, #4]
 4411              		.loc 12 564 0
 4412 0006 019B     		ldr	r3, [sp, #4]
 4413 0008 1800     		movs	r0, r3
 4414 000a FFF7FEFF 		bl	_ZL12chIQGetFullIP8io_queue
 4415 000e 0300     		movs	r3, r0
 4416              		.loc 12 565 0
 4417 0010 1800     		movs	r0, r3
 4418 0012 03B0     		add	sp, sp, #12
 4419              		@ sp needed
 4420 0014 00BD     		pop	{pc}
 4421              		.cfi_endproc
 4422              	.LFE294:
 4423              		.size	_ZN10chibios_rt7InQueue8getFullIEv, .-_ZN10chibios_rt7InQueue8getFullIEv
 4424 0016 C046     		.section	.text._ZN10chibios_rt7InQueue9getEmptyIEv,"ax",%progbits
 4425              		.align	1
 4426              		.p2align 4,,15
 4427              		.global	_ZN10chibios_rt7InQueue9getEmptyIEv
 4428              		.syntax unified
 4429              		.code	16
 4430              		.thumb_func
 4431              		.fpu softvfp
 4432              		.type	_ZN10chibios_rt7InQueue9getEmptyIEv, %function
 4433              	_ZN10chibios_rt7InQueue9getEmptyIEv:
 4434              	.LFB295:
 4435              		.loc 12 567 0
 4436              		.cfi_startproc
 4437              		@ args = 0, pretend = 0, frame = 8
 4438              		@ frame_needed = 0, uses_anonymous_args = 0
 4439 0000 00B5     		push	{lr}
 4440              		.cfi_def_cfa_offset 4
 4441              		.cfi_offset 14, -4
 4442 0002 83B0     		sub	sp, sp, #12
ARM GAS  /tmp/ccvPPVYB.s 			page 79


 4443              		.cfi_def_cfa_offset 16
 4444 0004 0190     		str	r0, [sp, #4]
 4445              		.loc 12 569 0
 4446 0006 019B     		ldr	r3, [sp, #4]
 4447 0008 1800     		movs	r0, r3
 4448 000a FFF7FEFF 		bl	_ZL13chIQGetEmptyIP8io_queue
 4449 000e 0300     		movs	r3, r0
 4450              		.loc 12 570 0
 4451 0010 1800     		movs	r0, r3
 4452 0012 03B0     		add	sp, sp, #12
 4453              		@ sp needed
 4454 0014 00BD     		pop	{pc}
 4455              		.cfi_endproc
 4456              	.LFE295:
 4457              		.size	_ZN10chibios_rt7InQueue9getEmptyIEv, .-_ZN10chibios_rt7InQueue9getEmptyIEv
 4458 0016 C046     		.section	.text._ZN10chibios_rt7InQueue8isEmptyIEv,"ax",%progbits
 4459              		.align	1
 4460              		.p2align 4,,15
 4461              		.global	_ZN10chibios_rt7InQueue8isEmptyIEv
 4462              		.syntax unified
 4463              		.code	16
 4464              		.thumb_func
 4465              		.fpu softvfp
 4466              		.type	_ZN10chibios_rt7InQueue8isEmptyIEv, %function
 4467              	_ZN10chibios_rt7InQueue8isEmptyIEv:
 4468              	.LFB296:
 4469              		.loc 12 572 0
 4470              		.cfi_startproc
 4471              		@ args = 0, pretend = 0, frame = 8
 4472              		@ frame_needed = 0, uses_anonymous_args = 0
 4473 0000 00B5     		push	{lr}
 4474              		.cfi_def_cfa_offset 4
 4475              		.cfi_offset 14, -4
 4476 0002 83B0     		sub	sp, sp, #12
 4477              		.cfi_def_cfa_offset 16
 4478 0004 0190     		str	r0, [sp, #4]
 4479              		.loc 12 574 0
 4480 0006 019B     		ldr	r3, [sp, #4]
 4481 0008 1800     		movs	r0, r3
 4482 000a FFF7FEFF 		bl	_ZL12chIQIsEmptyIP8io_queue
 4483 000e 0300     		movs	r3, r0
 4484              		.loc 12 575 0
 4485 0010 1800     		movs	r0, r3
 4486 0012 03B0     		add	sp, sp, #12
 4487              		@ sp needed
 4488 0014 00BD     		pop	{pc}
 4489              		.cfi_endproc
 4490              	.LFE296:
 4491              		.size	_ZN10chibios_rt7InQueue8isEmptyIEv, .-_ZN10chibios_rt7InQueue8isEmptyIEv
 4492 0016 C046     		.section	.text._ZN10chibios_rt7InQueue7isFullIEv,"ax",%progbits
 4493              		.align	1
 4494              		.p2align 4,,15
 4495              		.global	_ZN10chibios_rt7InQueue7isFullIEv
 4496              		.syntax unified
 4497              		.code	16
 4498              		.thumb_func
 4499              		.fpu softvfp
ARM GAS  /tmp/ccvPPVYB.s 			page 80


 4500              		.type	_ZN10chibios_rt7InQueue7isFullIEv, %function
 4501              	_ZN10chibios_rt7InQueue7isFullIEv:
 4502              	.LFB297:
 4503              		.loc 12 577 0
 4504              		.cfi_startproc
 4505              		@ args = 0, pretend = 0, frame = 8
 4506              		@ frame_needed = 0, uses_anonymous_args = 0
 4507 0000 00B5     		push	{lr}
 4508              		.cfi_def_cfa_offset 4
 4509              		.cfi_offset 14, -4
 4510 0002 83B0     		sub	sp, sp, #12
 4511              		.cfi_def_cfa_offset 16
 4512 0004 0190     		str	r0, [sp, #4]
 4513              		.loc 12 579 0
 4514 0006 019B     		ldr	r3, [sp, #4]
 4515 0008 1800     		movs	r0, r3
 4516 000a FFF7FEFF 		bl	_ZL11chIQIsFullIP8io_queue
 4517 000e 0300     		movs	r3, r0
 4518              		.loc 12 580 0
 4519 0010 1800     		movs	r0, r3
 4520 0012 03B0     		add	sp, sp, #12
 4521              		@ sp needed
 4522 0014 00BD     		pop	{pc}
 4523              		.cfi_endproc
 4524              	.LFE297:
 4525              		.size	_ZN10chibios_rt7InQueue7isFullIEv, .-_ZN10chibios_rt7InQueue7isFullIEv
 4526 0016 C046     		.section	.text._ZN10chibios_rt7InQueue6resetIEv,"ax",%progbits
 4527              		.align	1
 4528              		.p2align 4,,15
 4529              		.global	_ZN10chibios_rt7InQueue6resetIEv
 4530              		.syntax unified
 4531              		.code	16
 4532              		.thumb_func
 4533              		.fpu softvfp
 4534              		.type	_ZN10chibios_rt7InQueue6resetIEv, %function
 4535              	_ZN10chibios_rt7InQueue6resetIEv:
 4536              	.LFB298:
 4537              		.loc 12 582 0
 4538              		.cfi_startproc
 4539              		@ args = 0, pretend = 0, frame = 8
 4540              		@ frame_needed = 0, uses_anonymous_args = 0
 4541 0000 00B5     		push	{lr}
 4542              		.cfi_def_cfa_offset 4
 4543              		.cfi_offset 14, -4
 4544 0002 83B0     		sub	sp, sp, #12
 4545              		.cfi_def_cfa_offset 16
 4546 0004 0190     		str	r0, [sp, #4]
 4547              		.loc 12 584 0
 4548 0006 019B     		ldr	r3, [sp, #4]
 4549 0008 1800     		movs	r0, r3
 4550 000a FFF7FEFF 		bl	chIQResetI
 4551              		.loc 12 585 0
 4552 000e C046     		nop
 4553 0010 03B0     		add	sp, sp, #12
 4554              		@ sp needed
 4555 0012 00BD     		pop	{pc}
 4556              		.cfi_endproc
ARM GAS  /tmp/ccvPPVYB.s 			page 81


 4557              	.LFE298:
 4558              		.size	_ZN10chibios_rt7InQueue6resetIEv, .-_ZN10chibios_rt7InQueue6resetIEv
 4559              		.section	.text._ZN10chibios_rt7InQueue4putIEh,"ax",%progbits
 4560              		.align	1
 4561              		.p2align 4,,15
 4562              		.global	_ZN10chibios_rt7InQueue4putIEh
 4563              		.syntax unified
 4564              		.code	16
 4565              		.thumb_func
 4566              		.fpu softvfp
 4567              		.type	_ZN10chibios_rt7InQueue4putIEh, %function
 4568              	_ZN10chibios_rt7InQueue4putIEh:
 4569              	.LFB299:
 4570              		.loc 12 587 0
 4571              		.cfi_startproc
 4572              		@ args = 0, pretend = 0, frame = 8
 4573              		@ frame_needed = 0, uses_anonymous_args = 0
 4574 0000 00B5     		push	{lr}
 4575              		.cfi_def_cfa_offset 4
 4576              		.cfi_offset 14, -4
 4577 0002 83B0     		sub	sp, sp, #12
 4578              		.cfi_def_cfa_offset 16
 4579 0004 0190     		str	r0, [sp, #4]
 4580 0006 0A00     		movs	r2, r1
 4581 0008 6B46     		mov	r3, sp
 4582 000a 0333     		adds	r3, r3, #3
 4583 000c 1A70     		strb	r2, [r3]
 4584              		.loc 12 589 0
 4585 000e 019A     		ldr	r2, [sp, #4]
 4586 0010 6B46     		mov	r3, sp
 4587 0012 0333     		adds	r3, r3, #3
 4588 0014 1B78     		ldrb	r3, [r3]
 4589 0016 1900     		movs	r1, r3
 4590 0018 1000     		movs	r0, r2
 4591 001a FFF7FEFF 		bl	chIQPutI
 4592 001e 0300     		movs	r3, r0
 4593              		.loc 12 590 0
 4594 0020 1800     		movs	r0, r3
 4595 0022 03B0     		add	sp, sp, #12
 4596              		@ sp needed
 4597 0024 00BD     		pop	{pc}
 4598              		.cfi_endproc
 4599              	.LFE299:
 4600              		.size	_ZN10chibios_rt7InQueue4putIEh, .-_ZN10chibios_rt7InQueue4putIEh
 4601 0026 C046     		.section	.text._ZN10chibios_rt7InQueue3getEv,"ax",%progbits
 4602              		.align	1
 4603              		.p2align 4,,15
 4604              		.global	_ZN10chibios_rt7InQueue3getEv
 4605              		.syntax unified
 4606              		.code	16
 4607              		.thumb_func
 4608              		.fpu softvfp
 4609              		.type	_ZN10chibios_rt7InQueue3getEv, %function
 4610              	_ZN10chibios_rt7InQueue3getEv:
 4611              	.LFB300:
 4612              		.loc 12 592 0
 4613              		.cfi_startproc
ARM GAS  /tmp/ccvPPVYB.s 			page 82


 4614              		@ args = 0, pretend = 0, frame = 8
 4615              		@ frame_needed = 0, uses_anonymous_args = 0
 4616 0000 00B5     		push	{lr}
 4617              		.cfi_def_cfa_offset 4
 4618              		.cfi_offset 14, -4
 4619 0002 83B0     		sub	sp, sp, #12
 4620              		.cfi_def_cfa_offset 16
 4621 0004 0190     		str	r0, [sp, #4]
 4622              		.loc 12 594 0
 4623 0006 019B     		ldr	r3, [sp, #4]
 4624 0008 1800     		movs	r0, r3
 4625 000a FFF7FEFF 		bl	_ZL7chIQGetP8io_queue
 4626 000e 0300     		movs	r3, r0
 4627              		.loc 12 595 0
 4628 0010 1800     		movs	r0, r3
 4629 0012 03B0     		add	sp, sp, #12
 4630              		@ sp needed
 4631 0014 00BD     		pop	{pc}
 4632              		.cfi_endproc
 4633              	.LFE300:
 4634              		.size	_ZN10chibios_rt7InQueue3getEv, .-_ZN10chibios_rt7InQueue3getEv
 4635 0016 C046     		.section	.text._ZN10chibios_rt7InQueue3getEt,"ax",%progbits
 4636              		.align	1
 4637              		.p2align 4,,15
 4638              		.global	_ZN10chibios_rt7InQueue3getEt
 4639              		.syntax unified
 4640              		.code	16
 4641              		.thumb_func
 4642              		.fpu softvfp
 4643              		.type	_ZN10chibios_rt7InQueue3getEt, %function
 4644              	_ZN10chibios_rt7InQueue3getEt:
 4645              	.LFB301:
 4646              		.loc 12 597 0
 4647              		.cfi_startproc
 4648              		@ args = 0, pretend = 0, frame = 8
 4649              		@ frame_needed = 0, uses_anonymous_args = 0
 4650 0000 00B5     		push	{lr}
 4651              		.cfi_def_cfa_offset 4
 4652              		.cfi_offset 14, -4
 4653 0002 83B0     		sub	sp, sp, #12
 4654              		.cfi_def_cfa_offset 16
 4655 0004 0190     		str	r0, [sp, #4]
 4656 0006 0A00     		movs	r2, r1
 4657 0008 6B46     		mov	r3, sp
 4658 000a 0233     		adds	r3, r3, #2
 4659 000c 1A80     		strh	r2, [r3]
 4660              		.loc 12 599 0
 4661 000e 019A     		ldr	r2, [sp, #4]
 4662 0010 6B46     		mov	r3, sp
 4663 0012 0233     		adds	r3, r3, #2
 4664 0014 1B88     		ldrh	r3, [r3]
 4665 0016 1900     		movs	r1, r3
 4666 0018 1000     		movs	r0, r2
 4667 001a FFF7FEFF 		bl	chIQGetTimeout
 4668 001e 0300     		movs	r3, r0
 4669              		.loc 12 600 0
 4670 0020 1800     		movs	r0, r3
ARM GAS  /tmp/ccvPPVYB.s 			page 83


 4671 0022 03B0     		add	sp, sp, #12
 4672              		@ sp needed
 4673 0024 00BD     		pop	{pc}
 4674              		.cfi_endproc
 4675              	.LFE301:
 4676              		.size	_ZN10chibios_rt7InQueue3getEt, .-_ZN10chibios_rt7InQueue3getEt
 4677 0026 C046     		.section	.text._ZN10chibios_rt7InQueue4readEPhjt,"ax",%progbits
 4678              		.align	1
 4679              		.p2align 4,,15
 4680              		.global	_ZN10chibios_rt7InQueue4readEPhjt
 4681              		.syntax unified
 4682              		.code	16
 4683              		.thumb_func
 4684              		.fpu softvfp
 4685              		.type	_ZN10chibios_rt7InQueue4readEPhjt, %function
 4686              	_ZN10chibios_rt7InQueue4readEPhjt:
 4687              	.LFB302:
 4688              		.loc 12 602 0
 4689              		.cfi_startproc
 4690              		@ args = 0, pretend = 0, frame = 16
 4691              		@ frame_needed = 0, uses_anonymous_args = 0
 4692 0000 00B5     		push	{lr}
 4693              		.cfi_def_cfa_offset 4
 4694              		.cfi_offset 14, -4
 4695 0002 85B0     		sub	sp, sp, #20
 4696              		.cfi_def_cfa_offset 24
 4697 0004 0390     		str	r0, [sp, #12]
 4698 0006 0291     		str	r1, [sp, #8]
 4699 0008 0192     		str	r2, [sp, #4]
 4700 000a 1A00     		movs	r2, r3
 4701 000c 6B46     		mov	r3, sp
 4702 000e 0233     		adds	r3, r3, #2
 4703 0010 1A80     		strh	r2, [r3]
 4704              		.loc 12 604 0
 4705 0012 0398     		ldr	r0, [sp, #12]
 4706 0014 6B46     		mov	r3, sp
 4707 0016 0233     		adds	r3, r3, #2
 4708 0018 1B88     		ldrh	r3, [r3]
 4709 001a 019A     		ldr	r2, [sp, #4]
 4710 001c 0299     		ldr	r1, [sp, #8]
 4711 001e FFF7FEFF 		bl	chIQReadTimeout
 4712 0022 0300     		movs	r3, r0
 4713              		.loc 12 605 0
 4714 0024 1800     		movs	r0, r3
 4715 0026 05B0     		add	sp, sp, #20
 4716              		@ sp needed
 4717 0028 00BD     		pop	{pc}
 4718              		.cfi_endproc
 4719              	.LFE302:
 4720              		.size	_ZN10chibios_rt7InQueue4readEPhjt, .-_ZN10chibios_rt7InQueue4readEPhjt
 4721 002a C046     		.section	.text._ZN10chibios_rt8OutQueueC2EPhjPFvP8io_queueEPv,"ax",%progbits
 4722              		.align	1
 4723              		.p2align 4,,15
 4724              		.global	_ZN10chibios_rt8OutQueueC2EPhjPFvP8io_queueEPv
 4725              		.syntax unified
 4726              		.code	16
 4727              		.thumb_func
ARM GAS  /tmp/ccvPPVYB.s 			page 84


 4728              		.fpu softvfp
 4729              		.type	_ZN10chibios_rt8OutQueueC2EPhjPFvP8io_queueEPv, %function
 4730              	_ZN10chibios_rt8OutQueueC2EPhjPFvP8io_queueEPv:
 4731              	.LFB304:
 4732              		.loc 12 610 0
 4733              		.cfi_startproc
 4734              		@ args = 4, pretend = 0, frame = 16
 4735              		@ frame_needed = 0, uses_anonymous_args = 0
 4736 0000 10B5     		push	{r4, lr}
 4737              		.cfi_def_cfa_offset 8
 4738              		.cfi_offset 4, -8
 4739              		.cfi_offset 14, -4
 4740 0002 86B0     		sub	sp, sp, #24
 4741              		.cfi_def_cfa_offset 32
 4742 0004 0590     		str	r0, [sp, #20]
 4743 0006 0491     		str	r1, [sp, #16]
 4744 0008 0392     		str	r2, [sp, #12]
 4745 000a 0293     		str	r3, [sp, #8]
 4746              	.LBB19:
 4747              		.loc 12 612 0
 4748 000c 0598     		ldr	r0, [sp, #20]
 4749 000e 029C     		ldr	r4, [sp, #8]
 4750 0010 039A     		ldr	r2, [sp, #12]
 4751 0012 0499     		ldr	r1, [sp, #16]
 4752 0014 089B     		ldr	r3, [sp, #32]
 4753 0016 0093     		str	r3, [sp]
 4754 0018 2300     		movs	r3, r4
 4755 001a FFF7FEFF 		bl	chOQObjectInit
 4756              	.LBE19:
 4757              		.loc 12 613 0
 4758 001e 059B     		ldr	r3, [sp, #20]
 4759 0020 1800     		movs	r0, r3
 4760 0022 06B0     		add	sp, sp, #24
 4761              		@ sp needed
 4762 0024 10BD     		pop	{r4, pc}
 4763              		.cfi_endproc
 4764              	.LFE304:
 4765              		.size	_ZN10chibios_rt8OutQueueC2EPhjPFvP8io_queueEPv, .-_ZN10chibios_rt8OutQueueC2EPhjPFvP8io_queu
 4766              		.global	_ZN10chibios_rt8OutQueueC1EPhjPFvP8io_queueEPv
 4767              		.thumb_set _ZN10chibios_rt8OutQueueC1EPhjPFvP8io_queueEPv,_ZN10chibios_rt8OutQueueC2EPhjPFvP8io_qu
 4768 0026 C046     		.section	.text._ZN10chibios_rt8OutQueue8getFullIEv,"ax",%progbits
 4769              		.align	1
 4770              		.p2align 4,,15
 4771              		.global	_ZN10chibios_rt8OutQueue8getFullIEv
 4772              		.syntax unified
 4773              		.code	16
 4774              		.thumb_func
 4775              		.fpu softvfp
 4776              		.type	_ZN10chibios_rt8OutQueue8getFullIEv, %function
 4777              	_ZN10chibios_rt8OutQueue8getFullIEv:
 4778              	.LFB306:
 4779              		.loc 12 615 0
 4780              		.cfi_startproc
 4781              		@ args = 0, pretend = 0, frame = 8
 4782              		@ frame_needed = 0, uses_anonymous_args = 0
 4783 0000 00B5     		push	{lr}
 4784              		.cfi_def_cfa_offset 4
ARM GAS  /tmp/ccvPPVYB.s 			page 85


 4785              		.cfi_offset 14, -4
 4786 0002 83B0     		sub	sp, sp, #12
 4787              		.cfi_def_cfa_offset 16
 4788 0004 0190     		str	r0, [sp, #4]
 4789              		.loc 12 617 0
 4790 0006 019B     		ldr	r3, [sp, #4]
 4791 0008 1800     		movs	r0, r3
 4792 000a FFF7FEFF 		bl	_ZL12chOQGetFullIP8io_queue
 4793 000e 0300     		movs	r3, r0
 4794              		.loc 12 618 0
 4795 0010 1800     		movs	r0, r3
 4796 0012 03B0     		add	sp, sp, #12
 4797              		@ sp needed
 4798 0014 00BD     		pop	{pc}
 4799              		.cfi_endproc
 4800              	.LFE306:
 4801              		.size	_ZN10chibios_rt8OutQueue8getFullIEv, .-_ZN10chibios_rt8OutQueue8getFullIEv
 4802 0016 C046     		.section	.text._ZN10chibios_rt8OutQueue9getEmptyIEv,"ax",%progbits
 4803              		.align	1
 4804              		.p2align 4,,15
 4805              		.global	_ZN10chibios_rt8OutQueue9getEmptyIEv
 4806              		.syntax unified
 4807              		.code	16
 4808              		.thumb_func
 4809              		.fpu softvfp
 4810              		.type	_ZN10chibios_rt8OutQueue9getEmptyIEv, %function
 4811              	_ZN10chibios_rt8OutQueue9getEmptyIEv:
 4812              	.LFB307:
 4813              		.loc 12 620 0
 4814              		.cfi_startproc
 4815              		@ args = 0, pretend = 0, frame = 8
 4816              		@ frame_needed = 0, uses_anonymous_args = 0
 4817 0000 00B5     		push	{lr}
 4818              		.cfi_def_cfa_offset 4
 4819              		.cfi_offset 14, -4
 4820 0002 83B0     		sub	sp, sp, #12
 4821              		.cfi_def_cfa_offset 16
 4822 0004 0190     		str	r0, [sp, #4]
 4823              		.loc 12 622 0
 4824 0006 019B     		ldr	r3, [sp, #4]
 4825 0008 1800     		movs	r0, r3
 4826 000a FFF7FEFF 		bl	_ZL13chOQGetEmptyIP8io_queue
 4827 000e 0300     		movs	r3, r0
 4828              		.loc 12 623 0
 4829 0010 1800     		movs	r0, r3
 4830 0012 03B0     		add	sp, sp, #12
 4831              		@ sp needed
 4832 0014 00BD     		pop	{pc}
 4833              		.cfi_endproc
 4834              	.LFE307:
 4835              		.size	_ZN10chibios_rt8OutQueue9getEmptyIEv, .-_ZN10chibios_rt8OutQueue9getEmptyIEv
 4836 0016 C046     		.section	.text._ZN10chibios_rt8OutQueue8isEmptyIEv,"ax",%progbits
 4837              		.align	1
 4838              		.p2align 4,,15
 4839              		.global	_ZN10chibios_rt8OutQueue8isEmptyIEv
 4840              		.syntax unified
 4841              		.code	16
ARM GAS  /tmp/ccvPPVYB.s 			page 86


 4842              		.thumb_func
 4843              		.fpu softvfp
 4844              		.type	_ZN10chibios_rt8OutQueue8isEmptyIEv, %function
 4845              	_ZN10chibios_rt8OutQueue8isEmptyIEv:
 4846              	.LFB308:
 4847              		.loc 12 625 0
 4848              		.cfi_startproc
 4849              		@ args = 0, pretend = 0, frame = 8
 4850              		@ frame_needed = 0, uses_anonymous_args = 0
 4851 0000 00B5     		push	{lr}
 4852              		.cfi_def_cfa_offset 4
 4853              		.cfi_offset 14, -4
 4854 0002 83B0     		sub	sp, sp, #12
 4855              		.cfi_def_cfa_offset 16
 4856 0004 0190     		str	r0, [sp, #4]
 4857              		.loc 12 627 0
 4858 0006 019B     		ldr	r3, [sp, #4]
 4859 0008 1800     		movs	r0, r3
 4860 000a FFF7FEFF 		bl	_ZL12chOQIsEmptyIP8io_queue
 4861 000e 0300     		movs	r3, r0
 4862              		.loc 12 628 0
 4863 0010 1800     		movs	r0, r3
 4864 0012 03B0     		add	sp, sp, #12
 4865              		@ sp needed
 4866 0014 00BD     		pop	{pc}
 4867              		.cfi_endproc
 4868              	.LFE308:
 4869              		.size	_ZN10chibios_rt8OutQueue8isEmptyIEv, .-_ZN10chibios_rt8OutQueue8isEmptyIEv
 4870 0016 C046     		.section	.text._ZN10chibios_rt8OutQueue7isFullIEv,"ax",%progbits
 4871              		.align	1
 4872              		.p2align 4,,15
 4873              		.global	_ZN10chibios_rt8OutQueue7isFullIEv
 4874              		.syntax unified
 4875              		.code	16
 4876              		.thumb_func
 4877              		.fpu softvfp
 4878              		.type	_ZN10chibios_rt8OutQueue7isFullIEv, %function
 4879              	_ZN10chibios_rt8OutQueue7isFullIEv:
 4880              	.LFB309:
 4881              		.loc 12 630 0
 4882              		.cfi_startproc
 4883              		@ args = 0, pretend = 0, frame = 8
 4884              		@ frame_needed = 0, uses_anonymous_args = 0
 4885 0000 00B5     		push	{lr}
 4886              		.cfi_def_cfa_offset 4
 4887              		.cfi_offset 14, -4
 4888 0002 83B0     		sub	sp, sp, #12
 4889              		.cfi_def_cfa_offset 16
 4890 0004 0190     		str	r0, [sp, #4]
 4891              		.loc 12 632 0
 4892 0006 019B     		ldr	r3, [sp, #4]
 4893 0008 1800     		movs	r0, r3
 4894 000a FFF7FEFF 		bl	_ZL11chOQIsFullIP8io_queue
 4895 000e 0300     		movs	r3, r0
 4896              		.loc 12 633 0
 4897 0010 1800     		movs	r0, r3
 4898 0012 03B0     		add	sp, sp, #12
ARM GAS  /tmp/ccvPPVYB.s 			page 87


 4899              		@ sp needed
 4900 0014 00BD     		pop	{pc}
 4901              		.cfi_endproc
 4902              	.LFE309:
 4903              		.size	_ZN10chibios_rt8OutQueue7isFullIEv, .-_ZN10chibios_rt8OutQueue7isFullIEv
 4904 0016 C046     		.section	.text._ZN10chibios_rt8OutQueue6resetIEv,"ax",%progbits
 4905              		.align	1
 4906              		.p2align 4,,15
 4907              		.global	_ZN10chibios_rt8OutQueue6resetIEv
 4908              		.syntax unified
 4909              		.code	16
 4910              		.thumb_func
 4911              		.fpu softvfp
 4912              		.type	_ZN10chibios_rt8OutQueue6resetIEv, %function
 4913              	_ZN10chibios_rt8OutQueue6resetIEv:
 4914              	.LFB310:
 4915              		.loc 12 635 0
 4916              		.cfi_startproc
 4917              		@ args = 0, pretend = 0, frame = 8
 4918              		@ frame_needed = 0, uses_anonymous_args = 0
 4919 0000 00B5     		push	{lr}
 4920              		.cfi_def_cfa_offset 4
 4921              		.cfi_offset 14, -4
 4922 0002 83B0     		sub	sp, sp, #12
 4923              		.cfi_def_cfa_offset 16
 4924 0004 0190     		str	r0, [sp, #4]
 4925              		.loc 12 637 0
 4926 0006 019B     		ldr	r3, [sp, #4]
 4927 0008 1800     		movs	r0, r3
 4928 000a FFF7FEFF 		bl	chOQResetI
 4929              		.loc 12 638 0
 4930 000e C046     		nop
 4931 0010 03B0     		add	sp, sp, #12
 4932              		@ sp needed
 4933 0012 00BD     		pop	{pc}
 4934              		.cfi_endproc
 4935              	.LFE310:
 4936              		.size	_ZN10chibios_rt8OutQueue6resetIEv, .-_ZN10chibios_rt8OutQueue6resetIEv
 4937              		.section	.text._ZN10chibios_rt8OutQueue3putEh,"ax",%progbits
 4938              		.align	1
 4939              		.p2align 4,,15
 4940              		.global	_ZN10chibios_rt8OutQueue3putEh
 4941              		.syntax unified
 4942              		.code	16
 4943              		.thumb_func
 4944              		.fpu softvfp
 4945              		.type	_ZN10chibios_rt8OutQueue3putEh, %function
 4946              	_ZN10chibios_rt8OutQueue3putEh:
 4947              	.LFB311:
 4948              		.loc 12 640 0
 4949              		.cfi_startproc
 4950              		@ args = 0, pretend = 0, frame = 8
 4951              		@ frame_needed = 0, uses_anonymous_args = 0
 4952 0000 00B5     		push	{lr}
 4953              		.cfi_def_cfa_offset 4
 4954              		.cfi_offset 14, -4
 4955 0002 83B0     		sub	sp, sp, #12
ARM GAS  /tmp/ccvPPVYB.s 			page 88


 4956              		.cfi_def_cfa_offset 16
 4957 0004 0190     		str	r0, [sp, #4]
 4958 0006 0A00     		movs	r2, r1
 4959 0008 6B46     		mov	r3, sp
 4960 000a 0333     		adds	r3, r3, #3
 4961 000c 1A70     		strb	r2, [r3]
 4962              		.loc 12 642 0
 4963 000e 019A     		ldr	r2, [sp, #4]
 4964 0010 6B46     		mov	r3, sp
 4965 0012 0333     		adds	r3, r3, #3
 4966 0014 1B78     		ldrb	r3, [r3]
 4967 0016 1900     		movs	r1, r3
 4968 0018 1000     		movs	r0, r2
 4969 001a FFF7FEFF 		bl	_ZL7chOQPutP8io_queueh
 4970 001e 0300     		movs	r3, r0
 4971              		.loc 12 643 0
 4972 0020 1800     		movs	r0, r3
 4973 0022 03B0     		add	sp, sp, #12
 4974              		@ sp needed
 4975 0024 00BD     		pop	{pc}
 4976              		.cfi_endproc
 4977              	.LFE311:
 4978              		.size	_ZN10chibios_rt8OutQueue3putEh, .-_ZN10chibios_rt8OutQueue3putEh
 4979 0026 C046     		.section	.text._ZN10chibios_rt8OutQueue3putEht,"ax",%progbits
 4980              		.align	1
 4981              		.p2align 4,,15
 4982              		.global	_ZN10chibios_rt8OutQueue3putEht
 4983              		.syntax unified
 4984              		.code	16
 4985              		.thumb_func
 4986              		.fpu softvfp
 4987              		.type	_ZN10chibios_rt8OutQueue3putEht, %function
 4988              	_ZN10chibios_rt8OutQueue3putEht:
 4989              	.LFB312:
 4990              		.loc 12 645 0
 4991              		.cfi_startproc
 4992              		@ args = 0, pretend = 0, frame = 8
 4993              		@ frame_needed = 0, uses_anonymous_args = 0
 4994 0000 00B5     		push	{lr}
 4995              		.cfi_def_cfa_offset 4
 4996              		.cfi_offset 14, -4
 4997 0002 83B0     		sub	sp, sp, #12
 4998              		.cfi_def_cfa_offset 16
 4999 0004 0190     		str	r0, [sp, #4]
 5000 0006 0800     		movs	r0, r1
 5001 0008 1100     		movs	r1, r2
 5002 000a 6B46     		mov	r3, sp
 5003 000c 0333     		adds	r3, r3, #3
 5004 000e 021C     		adds	r2, r0, #0
 5005 0010 1A70     		strb	r2, [r3]
 5006 0012 6B46     		mov	r3, sp
 5007 0014 0A1C     		adds	r2, r1, #0
 5008 0016 1A80     		strh	r2, [r3]
 5009              		.loc 12 647 0
 5010 0018 0198     		ldr	r0, [sp, #4]
 5011 001a 6B46     		mov	r3, sp
 5012 001c 1A88     		ldrh	r2, [r3]
ARM GAS  /tmp/ccvPPVYB.s 			page 89


 5013 001e 6B46     		mov	r3, sp
 5014 0020 0333     		adds	r3, r3, #3
 5015 0022 1B78     		ldrb	r3, [r3]
 5016 0024 1900     		movs	r1, r3
 5017 0026 FFF7FEFF 		bl	chOQPutTimeout
 5018 002a 0300     		movs	r3, r0
 5019              		.loc 12 648 0
 5020 002c 1800     		movs	r0, r3
 5021 002e 03B0     		add	sp, sp, #12
 5022              		@ sp needed
 5023 0030 00BD     		pop	{pc}
 5024              		.cfi_endproc
 5025              	.LFE312:
 5026              		.size	_ZN10chibios_rt8OutQueue3putEht, .-_ZN10chibios_rt8OutQueue3putEht
 5027 0032 C046     		.section	.text._ZN10chibios_rt8OutQueue4getIEv,"ax",%progbits
 5028              		.align	1
 5029              		.p2align 4,,15
 5030              		.global	_ZN10chibios_rt8OutQueue4getIEv
 5031              		.syntax unified
 5032              		.code	16
 5033              		.thumb_func
 5034              		.fpu softvfp
 5035              		.type	_ZN10chibios_rt8OutQueue4getIEv, %function
 5036              	_ZN10chibios_rt8OutQueue4getIEv:
 5037              	.LFB313:
 5038              		.loc 12 650 0
 5039              		.cfi_startproc
 5040              		@ args = 0, pretend = 0, frame = 8
 5041              		@ frame_needed = 0, uses_anonymous_args = 0
 5042 0000 00B5     		push	{lr}
 5043              		.cfi_def_cfa_offset 4
 5044              		.cfi_offset 14, -4
 5045 0002 83B0     		sub	sp, sp, #12
 5046              		.cfi_def_cfa_offset 16
 5047 0004 0190     		str	r0, [sp, #4]
 5048              		.loc 12 652 0
 5049 0006 019B     		ldr	r3, [sp, #4]
 5050 0008 1800     		movs	r0, r3
 5051 000a FFF7FEFF 		bl	chOQGetI
 5052 000e 0300     		movs	r3, r0
 5053              		.loc 12 653 0
 5054 0010 1800     		movs	r0, r3
 5055 0012 03B0     		add	sp, sp, #12
 5056              		@ sp needed
 5057 0014 00BD     		pop	{pc}
 5058              		.cfi_endproc
 5059              	.LFE313:
 5060              		.size	_ZN10chibios_rt8OutQueue4getIEv, .-_ZN10chibios_rt8OutQueue4getIEv
 5061 0016 C046     		.section	.text._ZN10chibios_rt8OutQueue5writeEPKhjt,"ax",%progbits
 5062              		.align	1
 5063              		.p2align 4,,15
 5064              		.global	_ZN10chibios_rt8OutQueue5writeEPKhjt
 5065              		.syntax unified
 5066              		.code	16
 5067              		.thumb_func
 5068              		.fpu softvfp
 5069              		.type	_ZN10chibios_rt8OutQueue5writeEPKhjt, %function
ARM GAS  /tmp/ccvPPVYB.s 			page 90


 5070              	_ZN10chibios_rt8OutQueue5writeEPKhjt:
 5071              	.LFB314:
 5072              		.loc 12 655 0
 5073              		.cfi_startproc
 5074              		@ args = 0, pretend = 0, frame = 16
 5075              		@ frame_needed = 0, uses_anonymous_args = 0
 5076 0000 00B5     		push	{lr}
 5077              		.cfi_def_cfa_offset 4
 5078              		.cfi_offset 14, -4
 5079 0002 85B0     		sub	sp, sp, #20
 5080              		.cfi_def_cfa_offset 24
 5081 0004 0390     		str	r0, [sp, #12]
 5082 0006 0291     		str	r1, [sp, #8]
 5083 0008 0192     		str	r2, [sp, #4]
 5084 000a 1A00     		movs	r2, r3
 5085 000c 6B46     		mov	r3, sp
 5086 000e 0233     		adds	r3, r3, #2
 5087 0010 1A80     		strh	r2, [r3]
 5088              		.loc 12 657 0
 5089 0012 0398     		ldr	r0, [sp, #12]
 5090 0014 6B46     		mov	r3, sp
 5091 0016 0233     		adds	r3, r3, #2
 5092 0018 1B88     		ldrh	r3, [r3]
 5093 001a 019A     		ldr	r2, [sp, #4]
 5094 001c 0299     		ldr	r1, [sp, #8]
 5095 001e FFF7FEFF 		bl	chOQWriteTimeout
 5096 0022 0300     		movs	r3, r0
 5097              		.loc 12 658 0
 5098 0024 1800     		movs	r0, r3
 5099 0026 05B0     		add	sp, sp, #20
 5100              		@ sp needed
 5101 0028 00BD     		pop	{pc}
 5102              		.cfi_endproc
 5103              	.LFE314:
 5104              		.size	_ZN10chibios_rt8OutQueue5writeEPKhjt, .-_ZN10chibios_rt8OutQueue5writeEPKhjt
 5105 002a C046     		.section	.text._ZN10chibios_rt10MemoryPoolC2EjPFPvjE,"ax",%progbits
 5106              		.align	1
 5107              		.p2align 4,,15
 5108              		.global	_ZN10chibios_rt10MemoryPoolC2EjPFPvjE
 5109              		.syntax unified
 5110              		.code	16
 5111              		.thumb_func
 5112              		.fpu softvfp
 5113              		.type	_ZN10chibios_rt10MemoryPoolC2EjPFPvjE, %function
 5114              	_ZN10chibios_rt10MemoryPoolC2EjPFPvjE:
 5115              	.LFB316:
 5116              		.loc 12 665 0
 5117              		.cfi_startproc
 5118              		@ args = 0, pretend = 0, frame = 16
 5119              		@ frame_needed = 0, uses_anonymous_args = 0
 5120 0000 00B5     		push	{lr}
 5121              		.cfi_def_cfa_offset 4
 5122              		.cfi_offset 14, -4
 5123 0002 85B0     		sub	sp, sp, #20
 5124              		.cfi_def_cfa_offset 24
 5125 0004 0390     		str	r0, [sp, #12]
 5126 0006 0291     		str	r1, [sp, #8]
ARM GAS  /tmp/ccvPPVYB.s 			page 91


 5127 0008 0192     		str	r2, [sp, #4]
 5128              	.LBB20:
 5129              		.loc 12 667 0
 5130 000a 039B     		ldr	r3, [sp, #12]
 5131 000c 019A     		ldr	r2, [sp, #4]
 5132 000e 0299     		ldr	r1, [sp, #8]
 5133 0010 1800     		movs	r0, r3
 5134 0012 FFF7FEFF 		bl	chPoolObjectInit
 5135              	.LBE20:
 5136              		.loc 12 668 0
 5137 0016 039B     		ldr	r3, [sp, #12]
 5138 0018 1800     		movs	r0, r3
 5139 001a 05B0     		add	sp, sp, #20
 5140              		@ sp needed
 5141 001c 00BD     		pop	{pc}
 5142              		.cfi_endproc
 5143              	.LFE316:
 5144              		.size	_ZN10chibios_rt10MemoryPoolC2EjPFPvjE, .-_ZN10chibios_rt10MemoryPoolC2EjPFPvjE
 5145              		.global	_ZN10chibios_rt10MemoryPoolC1EjPFPvjE
 5146              		.thumb_set _ZN10chibios_rt10MemoryPoolC1EjPFPvjE,_ZN10chibios_rt10MemoryPoolC2EjPFPvjE
 5147 001e C046     		.section	.text._ZN10chibios_rt10MemoryPoolC2EjPFPvjES1_j,"ax",%progbits
 5148              		.align	1
 5149              		.p2align 4,,15
 5150              		.global	_ZN10chibios_rt10MemoryPoolC2EjPFPvjES1_j
 5151              		.syntax unified
 5152              		.code	16
 5153              		.thumb_func
 5154              		.fpu softvfp
 5155              		.type	_ZN10chibios_rt10MemoryPoolC2EjPFPvjES1_j, %function
 5156              	_ZN10chibios_rt10MemoryPoolC2EjPFPvjES1_j:
 5157              	.LFB319:
 5158              		.loc 12 670 0
 5159              		.cfi_startproc
 5160              		@ args = 4, pretend = 0, frame = 16
 5161              		@ frame_needed = 0, uses_anonymous_args = 0
 5162 0000 00B5     		push	{lr}
 5163              		.cfi_def_cfa_offset 4
 5164              		.cfi_offset 14, -4
 5165 0002 85B0     		sub	sp, sp, #20
 5166              		.cfi_def_cfa_offset 24
 5167 0004 0390     		str	r0, [sp, #12]
 5168 0006 0291     		str	r1, [sp, #8]
 5169 0008 0192     		str	r2, [sp, #4]
 5170 000a 0093     		str	r3, [sp]
 5171              	.LBB21:
 5172              		.loc 12 672 0
 5173 000c 039B     		ldr	r3, [sp, #12]
 5174 000e 019A     		ldr	r2, [sp, #4]
 5175 0010 0299     		ldr	r1, [sp, #8]
 5176 0012 1800     		movs	r0, r3
 5177 0014 FFF7FEFF 		bl	chPoolObjectInit
 5178              		.loc 12 673 0
 5179 0018 039B     		ldr	r3, [sp, #12]
 5180 001a 069A     		ldr	r2, [sp, #24]
 5181 001c 0099     		ldr	r1, [sp]
 5182 001e 1800     		movs	r0, r3
 5183 0020 FFF7FEFF 		bl	chPoolLoadArray
ARM GAS  /tmp/ccvPPVYB.s 			page 92


 5184              	.LBE21:
 5185              		.loc 12 674 0
 5186 0024 039B     		ldr	r3, [sp, #12]
 5187 0026 1800     		movs	r0, r3
 5188 0028 05B0     		add	sp, sp, #20
 5189              		@ sp needed
 5190 002a 00BD     		pop	{pc}
 5191              		.cfi_endproc
 5192              	.LFE319:
 5193              		.size	_ZN10chibios_rt10MemoryPoolC2EjPFPvjES1_j, .-_ZN10chibios_rt10MemoryPoolC2EjPFPvjES1_j
 5194              		.global	_ZN10chibios_rt10MemoryPoolC1EjPFPvjES1_j
 5195              		.thumb_set _ZN10chibios_rt10MemoryPoolC1EjPFPvjES1_j,_ZN10chibios_rt10MemoryPoolC2EjPFPvjES1_j
 5196              		.section	.text._ZN10chibios_rt10MemoryPool9loadArrayEPvj,"ax",%progbits
 5197              		.align	1
 5198              		.p2align 4,,15
 5199              		.global	_ZN10chibios_rt10MemoryPool9loadArrayEPvj
 5200              		.syntax unified
 5201              		.code	16
 5202              		.thumb_func
 5203              		.fpu softvfp
 5204              		.type	_ZN10chibios_rt10MemoryPool9loadArrayEPvj, %function
 5205              	_ZN10chibios_rt10MemoryPool9loadArrayEPvj:
 5206              	.LFB321:
 5207              		.loc 12 677 0
 5208              		.cfi_startproc
 5209              		@ args = 0, pretend = 0, frame = 16
 5210              		@ frame_needed = 0, uses_anonymous_args = 0
 5211 0000 00B5     		push	{lr}
 5212              		.cfi_def_cfa_offset 4
 5213              		.cfi_offset 14, -4
 5214 0002 85B0     		sub	sp, sp, #20
 5215              		.cfi_def_cfa_offset 24
 5216 0004 0390     		str	r0, [sp, #12]
 5217 0006 0291     		str	r1, [sp, #8]
 5218 0008 0192     		str	r2, [sp, #4]
 5219              		.loc 12 679 0
 5220 000a 039B     		ldr	r3, [sp, #12]
 5221 000c 019A     		ldr	r2, [sp, #4]
 5222 000e 0299     		ldr	r1, [sp, #8]
 5223 0010 1800     		movs	r0, r3
 5224 0012 FFF7FEFF 		bl	chPoolLoadArray
 5225              		.loc 12 680 0
 5226 0016 C046     		nop
 5227 0018 05B0     		add	sp, sp, #20
 5228              		@ sp needed
 5229 001a 00BD     		pop	{pc}
 5230              		.cfi_endproc
 5231              	.LFE321:
 5232              		.size	_ZN10chibios_rt10MemoryPool9loadArrayEPvj, .-_ZN10chibios_rt10MemoryPool9loadArrayEPvj
 5233              		.section	.text._ZN10chibios_rt10MemoryPool6allocIEv,"ax",%progbits
 5234              		.align	1
 5235              		.p2align 4,,15
 5236              		.global	_ZN10chibios_rt10MemoryPool6allocIEv
 5237              		.syntax unified
 5238              		.code	16
 5239              		.thumb_func
 5240              		.fpu softvfp
ARM GAS  /tmp/ccvPPVYB.s 			page 93


 5241              		.type	_ZN10chibios_rt10MemoryPool6allocIEv, %function
 5242              	_ZN10chibios_rt10MemoryPool6allocIEv:
 5243              	.LFB322:
 5244              		.loc 12 682 0
 5245              		.cfi_startproc
 5246              		@ args = 0, pretend = 0, frame = 8
 5247              		@ frame_needed = 0, uses_anonymous_args = 0
 5248 0000 00B5     		push	{lr}
 5249              		.cfi_def_cfa_offset 4
 5250              		.cfi_offset 14, -4
 5251 0002 83B0     		sub	sp, sp, #12
 5252              		.cfi_def_cfa_offset 16
 5253 0004 0190     		str	r0, [sp, #4]
 5254              		.loc 12 684 0
 5255 0006 019B     		ldr	r3, [sp, #4]
 5256 0008 1800     		movs	r0, r3
 5257 000a FFF7FEFF 		bl	chPoolAllocI
 5258 000e 0300     		movs	r3, r0
 5259              		.loc 12 685 0
 5260 0010 1800     		movs	r0, r3
 5261 0012 03B0     		add	sp, sp, #12
 5262              		@ sp needed
 5263 0014 00BD     		pop	{pc}
 5264              		.cfi_endproc
 5265              	.LFE322:
 5266              		.size	_ZN10chibios_rt10MemoryPool6allocIEv, .-_ZN10chibios_rt10MemoryPool6allocIEv
 5267 0016 C046     		.section	.text._ZN10chibios_rt10MemoryPool5allocEv,"ax",%progbits
 5268              		.align	1
 5269              		.p2align 4,,15
 5270              		.global	_ZN10chibios_rt10MemoryPool5allocEv
 5271              		.syntax unified
 5272              		.code	16
 5273              		.thumb_func
 5274              		.fpu softvfp
 5275              		.type	_ZN10chibios_rt10MemoryPool5allocEv, %function
 5276              	_ZN10chibios_rt10MemoryPool5allocEv:
 5277              	.LFB323:
 5278              		.loc 12 687 0
 5279              		.cfi_startproc
 5280              		@ args = 0, pretend = 0, frame = 8
 5281              		@ frame_needed = 0, uses_anonymous_args = 0
 5282 0000 00B5     		push	{lr}
 5283              		.cfi_def_cfa_offset 4
 5284              		.cfi_offset 14, -4
 5285 0002 83B0     		sub	sp, sp, #12
 5286              		.cfi_def_cfa_offset 16
 5287 0004 0190     		str	r0, [sp, #4]
 5288              		.loc 12 689 0
 5289 0006 019B     		ldr	r3, [sp, #4]
 5290 0008 1800     		movs	r0, r3
 5291 000a FFF7FEFF 		bl	chPoolAlloc
 5292 000e 0300     		movs	r3, r0
 5293              		.loc 12 690 0
 5294 0010 1800     		movs	r0, r3
 5295 0012 03B0     		add	sp, sp, #12
 5296              		@ sp needed
 5297 0014 00BD     		pop	{pc}
ARM GAS  /tmp/ccvPPVYB.s 			page 94


 5298              		.cfi_endproc
 5299              	.LFE323:
 5300              		.size	_ZN10chibios_rt10MemoryPool5allocEv, .-_ZN10chibios_rt10MemoryPool5allocEv
 5301 0016 C046     		.section	.text._ZN10chibios_rt10MemoryPool4freeEPv,"ax",%progbits
 5302              		.align	1
 5303              		.p2align 4,,15
 5304              		.global	_ZN10chibios_rt10MemoryPool4freeEPv
 5305              		.syntax unified
 5306              		.code	16
 5307              		.thumb_func
 5308              		.fpu softvfp
 5309              		.type	_ZN10chibios_rt10MemoryPool4freeEPv, %function
 5310              	_ZN10chibios_rt10MemoryPool4freeEPv:
 5311              	.LFB324:
 5312              		.loc 12 692 0
 5313              		.cfi_startproc
 5314              		@ args = 0, pretend = 0, frame = 8
 5315              		@ frame_needed = 0, uses_anonymous_args = 0
 5316 0000 00B5     		push	{lr}
 5317              		.cfi_def_cfa_offset 4
 5318              		.cfi_offset 14, -4
 5319 0002 83B0     		sub	sp, sp, #12
 5320              		.cfi_def_cfa_offset 16
 5321 0004 0190     		str	r0, [sp, #4]
 5322 0006 0091     		str	r1, [sp]
 5323              		.loc 12 694 0
 5324 0008 019B     		ldr	r3, [sp, #4]
 5325 000a 009A     		ldr	r2, [sp]
 5326 000c 1100     		movs	r1, r2
 5327 000e 1800     		movs	r0, r3
 5328 0010 FFF7FEFF 		bl	chPoolFree
 5329              		.loc 12 695 0
 5330 0014 C046     		nop
 5331 0016 03B0     		add	sp, sp, #12
 5332              		@ sp needed
 5333 0018 00BD     		pop	{pc}
 5334              		.cfi_endproc
 5335              	.LFE324:
 5336              		.size	_ZN10chibios_rt10MemoryPool4freeEPv, .-_ZN10chibios_rt10MemoryPool4freeEPv
 5337 001a C046     		.section	.text._ZN10chibios_rt10MemoryPool5freeIEPv,"ax",%progbits
 5338              		.align	1
 5339              		.p2align 4,,15
 5340              		.global	_ZN10chibios_rt10MemoryPool5freeIEPv
 5341              		.syntax unified
 5342              		.code	16
 5343              		.thumb_func
 5344              		.fpu softvfp
 5345              		.type	_ZN10chibios_rt10MemoryPool5freeIEPv, %function
 5346              	_ZN10chibios_rt10MemoryPool5freeIEPv:
 5347              	.LFB325:
 5348              		.loc 12 697 0
 5349              		.cfi_startproc
 5350              		@ args = 0, pretend = 0, frame = 8
 5351              		@ frame_needed = 0, uses_anonymous_args = 0
 5352 0000 00B5     		push	{lr}
 5353              		.cfi_def_cfa_offset 4
 5354              		.cfi_offset 14, -4
ARM GAS  /tmp/ccvPPVYB.s 			page 95


 5355 0002 83B0     		sub	sp, sp, #12
 5356              		.cfi_def_cfa_offset 16
 5357 0004 0190     		str	r0, [sp, #4]
 5358 0006 0091     		str	r1, [sp]
 5359              		.loc 12 699 0
 5360 0008 019B     		ldr	r3, [sp, #4]
 5361 000a 009A     		ldr	r2, [sp]
 5362 000c 1100     		movs	r1, r2
 5363 000e 1800     		movs	r0, r3
 5364 0010 FFF7FEFF 		bl	chPoolFreeI
 5365              		.loc 12 700 0
 5366 0014 C046     		nop
 5367 0016 03B0     		add	sp, sp, #12
 5368              		@ sp needed
 5369 0018 00BD     		pop	{pc}
 5370              		.cfi_endproc
 5371              	.LFE325:
 5372              		.size	_ZN10chibios_rt10MemoryPool5freeIEPv, .-_ZN10chibios_rt10MemoryPool5freeIEPv
 5373              		.global	_ZTVN10chibios_rt10BaseThreadE
 5374 001a C046     		.section	.rodata._ZTVN10chibios_rt10BaseThreadE,"a",%progbits
 5375              		.align	2
 5376              		.type	_ZTVN10chibios_rt10BaseThreadE, %object
 5377              		.size	_ZTVN10chibios_rt10BaseThreadE, 20
 5378              	_ZTVN10chibios_rt10BaseThreadE:
 5379 0000 00000000 		.word	0
 5380 0004 00000000 		.word	0
 5381 0008 00000000 		.word	_ZN10chibios_rt15ThreadReference4stopEv
 5382 000c 00000000 		.word	_ZN10chibios_rt10BaseThread4mainEv
 5383 0010 00000000 		.word	_ZN10chibios_rt10BaseThread5startEm
 5384              		.global	_ZTVN10chibios_rt15ThreadReferenceE
 5385              		.section	.rodata._ZTVN10chibios_rt15ThreadReferenceE,"a",%progbits
 5386              		.align	2
 5387              		.type	_ZTVN10chibios_rt15ThreadReferenceE, %object
 5388              		.size	_ZTVN10chibios_rt15ThreadReferenceE, 12
 5389              	_ZTVN10chibios_rt15ThreadReferenceE:
 5390 0000 00000000 		.word	0
 5391 0004 00000000 		.word	0
 5392 0008 00000000 		.word	_ZN10chibios_rt15ThreadReference4stopEv
 5393              		.section	.rodata._ZZN10chibios_rt15ThreadReference16requestTerminateEvE8__func__,"a",%progbits
 5394              		.align	2
 5395              		.type	_ZZN10chibios_rt15ThreadReference16requestTerminateEvE8__func__, %object
 5396              		.size	_ZZN10chibios_rt15ThreadReference16requestTerminateEvE8__func__, 17
 5397              	_ZZN10chibios_rt15ThreadReference16requestTerminateEvE8__func__:
 5398 0000 72657175 		.ascii	"requestTerminate\000"
 5398      65737454 
 5398      65726D69 
 5398      6E617465 
 5398      00
 5399              		.section	.rodata._ZZN10chibios_rt15ThreadReference4waitEvE8__func__,"a",%progbits
 5400              		.align	2
 5401              		.type	_ZZN10chibios_rt15ThreadReference4waitEvE8__func__, %object
 5402              		.size	_ZZN10chibios_rt15ThreadReference4waitEvE8__func__, 5
 5403              	_ZZN10chibios_rt15ThreadReference4waitEvE8__func__:
 5404 0000 77616974 		.ascii	"wait\000"
 5404      00
 5405              		.section	.rodata._ZZN10chibios_rt15ThreadReference11sendMessageElE8__func__,"a",%progbits
 5406              		.align	2
ARM GAS  /tmp/ccvPPVYB.s 			page 96


 5407              		.type	_ZZN10chibios_rt15ThreadReference11sendMessageElE8__func__, %object
 5408              		.size	_ZZN10chibios_rt15ThreadReference11sendMessageElE8__func__, 12
 5409              	_ZZN10chibios_rt15ThreadReference11sendMessageElE8__func__:
 5410 0000 73656E64 		.ascii	"sendMessage\000"
 5410      4D657373 
 5410      61676500 
 5411              		.section	.rodata._ZZN10chibios_rt15ThreadReference16isPendingMessageEvE8__func__,"a",%progbits
 5412              		.align	2
 5413              		.type	_ZZN10chibios_rt15ThreadReference16isPendingMessageEvE8__func__, %object
 5414              		.size	_ZZN10chibios_rt15ThreadReference16isPendingMessageEvE8__func__, 17
 5415              	_ZZN10chibios_rt15ThreadReference16isPendingMessageEvE8__func__:
 5416 0000 69735065 		.ascii	"isPendingMessage\000"
 5416      6E64696E 
 5416      674D6573 
 5416      73616765 
 5416      00
 5417              		.section	.rodata._ZZN10chibios_rt15ThreadReference10getMessageEvE8__func__,"a",%progbits
 5418              		.align	2
 5419              		.type	_ZZN10chibios_rt15ThreadReference10getMessageEvE8__func__, %object
 5420              		.size	_ZZN10chibios_rt15ThreadReference10getMessageEvE8__func__, 11
 5421              	_ZZN10chibios_rt15ThreadReference10getMessageEvE8__func__:
 5422 0000 6765744D 		.ascii	"getMessage\000"
 5422      65737361 
 5422      676500
 5423              		.section	.rodata._ZZN10chibios_rt15ThreadReference14releaseMessageElE8__func__,"a",%progbits
 5424              		.align	2
 5425              		.type	_ZZN10chibios_rt15ThreadReference14releaseMessageElE8__func__, %object
 5426              		.size	_ZZN10chibios_rt15ThreadReference14releaseMessageElE8__func__, 15
 5427              	_ZZN10chibios_rt15ThreadReference14releaseMessageElE8__func__:
 5428 0000 72656C65 		.ascii	"releaseMessage\000"
 5428      6173654D 
 5428      65737361 
 5428      676500
 5429              		.section	.rodata._ZZN10chibios_rt15ThreadReference12signalEventsEmE8__func__,"a",%progbits
 5430              		.align	2
 5431              		.type	_ZZN10chibios_rt15ThreadReference12signalEventsEmE8__func__, %object
 5432              		.size	_ZZN10chibios_rt15ThreadReference12signalEventsEmE8__func__, 13
 5433              	_ZZN10chibios_rt15ThreadReference12signalEventsEmE8__func__:
 5434 0000 7369676E 		.ascii	"signalEvents\000"
 5434      616C4576 
 5434      656E7473 
 5434      00
 5435              		.section	.rodata._ZZN10chibios_rt15ThreadReference13signalEventsIEmE8__func__,"a",%progbits
 5436              		.align	2
 5437              		.type	_ZZN10chibios_rt15ThreadReference13signalEventsIEmE8__func__, %object
 5438              		.size	_ZZN10chibios_rt15ThreadReference13signalEventsIEmE8__func__, 14
 5439              	_ZZN10chibios_rt15ThreadReference13signalEventsIEmE8__func__:
 5440 0000 7369676E 		.ascii	"signalEventsI\000"
 5440      616C4576 
 5440      656E7473 
 5440      4900
 5441              		.section	.rodata._ZZL11chSysUnlockvE8__func__,"a",%progbits
 5442              		.align	2
 5443              		.type	_ZZL11chSysUnlockvE8__func__, %object
 5444              		.size	_ZZL11chSysUnlockvE8__func__, 12
 5445              	_ZZL11chSysUnlockvE8__func__:
 5446 0000 63685379 		.ascii	"chSysUnlock\000"
ARM GAS  /tmp/ccvPPVYB.s 			page 97


 5446      73556E6C 
 5446      6F636B00 
 5447              		.text
 5448              	.Letext0:
 5449              		.file 13 "/home/felix/opt/gcc-arm-none-eabi-6-2017-q1-update/lib/gcc/arm-none-eabi/6.3.1/include/s
 5450              		.file 14 "/home/felix/opt/gcc-arm-none-eabi-6-2017-q1-update/arm-none-eabi/include/machine/_defaul
 5451              		.file 15 "/home/felix/opt/gcc-arm-none-eabi-6-2017-q1-update/arm-none-eabi/include/sys/_stdint.h"
 5452              		.file 16 "ChibiOS/os/rt/ports/ARMCMx/compilers/GCC/chtypes.h"
 5453              		.file 17 "ChibiOS/os/rt/include/chsystypes.h"
 5454              		.file 18 "ChibiOS/os/rt/include/chschd.h"
 5455              		.file 19 "ChibiOS/os/rt/ports/ARMCMx/chcore.h"
 5456              		.file 20 "ChibiOS/os/rt/include/chdebug.h"
 5457              		.file 21 "ChibiOS/os/rt/include/chmtx.h"
 5458              		.file 22 "ChibiOS/os/ext/CMSIS/ST/STM32F0xx/system_stm32f0xx.h"
 5459              		.file 23 "ChibiOS/os/rt/include/chcond.h"
 5460              		.file 24 "ChibiOS/os/rt/include/chmemcore.h"
 5461              		.file 25 "ChibiOS/os/rt/include/chmempools.h"
 5462              		.section	.debug_info,"",%progbits
 5463              	.Ldebug_info0:
 5464 0000 2F360000 		.4byte	0x362f
 5465 0004 0400     		.2byte	0x4
 5466 0006 00000000 		.4byte	.Ldebug_abbrev0
 5467 000a 04       		.byte	0x4
 5468 000b 01       		.uleb128 0x1
 5469 000c CD1D0000 		.4byte	.LASF445
 5470 0010 04       		.byte	0x4
 5471 0011 03010000 		.4byte	.LASF446
 5472 0015 21000000 		.4byte	.LASF447
 5473 0019 00000000 		.4byte	.Ldebug_ranges0+0
 5474 001d 00000000 		.4byte	0
 5475 0021 00000000 		.4byte	.Ldebug_line0
 5476 0025 02       		.uleb128 0x2
 5477 0026 04       		.byte	0x4
 5478 0027 05       		.byte	0x5
 5479 0028 696E7400 		.ascii	"int\000"
 5480 002c 03       		.uleb128 0x3
 5481 002d 11000000 		.4byte	.LASF4
 5482 0031 0D       		.byte	0xd
 5483 0032 D8       		.byte	0xd8
 5484 0033 3C000000 		.4byte	0x3c
 5485 0037 04       		.uleb128 0x4
 5486 0038 2C000000 		.4byte	0x2c
 5487 003c 05       		.uleb128 0x5
 5488 003d 04       		.byte	0x4
 5489 003e 07       		.byte	0x7
 5490 003f 3D120000 		.4byte	.LASF0
 5491 0043 05       		.uleb128 0x5
 5492 0044 08       		.byte	0x8
 5493 0045 05       		.byte	0x5
 5494 0046 CB0F0000 		.4byte	.LASF1
 5495 004a 05       		.uleb128 0x5
 5496 004b 08       		.byte	0x8
 5497 004c 04       		.byte	0x4
 5498 004d 99140000 		.4byte	.LASF2
 5499 0051 06       		.uleb128 0x6
 5500 0052 E80A0000 		.4byte	.LASF448
 5501 0056 05       		.uleb128 0x5
ARM GAS  /tmp/ccvPPVYB.s 			page 98


 5502 0057 01       		.byte	0x1
 5503 0058 06       		.byte	0x6
 5504 0059 ED060000 		.4byte	.LASF3
 5505 005d 03       		.uleb128 0x3
 5506 005e 3C040000 		.4byte	.LASF5
 5507 0062 0E       		.byte	0xe
 5508 0063 2B       		.byte	0x2b
 5509 0064 68000000 		.4byte	0x68
 5510 0068 05       		.uleb128 0x5
 5511 0069 01       		.byte	0x1
 5512 006a 08       		.byte	0x8
 5513 006b BE070000 		.4byte	.LASF6
 5514 006f 05       		.uleb128 0x5
 5515 0070 02       		.byte	0x2
 5516 0071 05       		.byte	0x5
 5517 0072 691B0000 		.4byte	.LASF7
 5518 0076 03       		.uleb128 0x3
 5519 0077 740A0000 		.4byte	.LASF8
 5520 007b 0E       		.byte	0xe
 5521 007c 39       		.byte	0x39
 5522 007d 81000000 		.4byte	0x81
 5523 0081 05       		.uleb128 0x5
 5524 0082 02       		.byte	0x2
 5525 0083 07       		.byte	0x7
 5526 0084 70200000 		.4byte	.LASF9
 5527 0088 03       		.uleb128 0x3
 5528 0089 59210000 		.4byte	.LASF10
 5529 008d 0E       		.byte	0xe
 5530 008e 4D       		.byte	0x4d
 5531 008f 93000000 		.4byte	0x93
 5532 0093 05       		.uleb128 0x5
 5533 0094 04       		.byte	0x4
 5534 0095 05       		.byte	0x5
 5535 0096 D9040000 		.4byte	.LASF11
 5536 009a 03       		.uleb128 0x3
 5537 009b BA0F0000 		.4byte	.LASF12
 5538 009f 0E       		.byte	0xe
 5539 00a0 4F       		.byte	0x4f
 5540 00a1 A5000000 		.4byte	0xa5
 5541 00a5 05       		.uleb128 0x5
 5542 00a6 04       		.byte	0x4
 5543 00a7 07       		.byte	0x7
 5544 00a8 840D0000 		.4byte	.LASF13
 5545 00ac 03       		.uleb128 0x3
 5546 00ad 6D0D0000 		.4byte	.LASF14
 5547 00b1 0E       		.byte	0xe
 5548 00b2 69       		.byte	0x69
 5549 00b3 B7000000 		.4byte	0xb7
 5550 00b7 05       		.uleb128 0x5
 5551 00b8 08       		.byte	0x8
 5552 00b9 07       		.byte	0x7
 5553 00ba 1B160000 		.4byte	.LASF15
 5554 00be 03       		.uleb128 0x3
 5555 00bf 00070000 		.4byte	.LASF16
 5556 00c3 0F       		.byte	0xf
 5557 00c4 18       		.byte	0x18
 5558 00c5 5D000000 		.4byte	0x5d
ARM GAS  /tmp/ccvPPVYB.s 			page 99


 5559 00c9 07       		.uleb128 0x7
 5560 00ca BE000000 		.4byte	0xbe
 5561 00ce 03       		.uleb128 0x3
 5562 00cf AF160000 		.4byte	.LASF17
 5563 00d3 0F       		.byte	0xf
 5564 00d4 24       		.byte	0x24
 5565 00d5 76000000 		.4byte	0x76
 5566 00d9 03       		.uleb128 0x3
 5567 00da C3000000 		.4byte	.LASF18
 5568 00de 0F       		.byte	0xf
 5569 00df 2C       		.byte	0x2c
 5570 00e0 88000000 		.4byte	0x88
 5571 00e4 03       		.uleb128 0x3
 5572 00e5 741F0000 		.4byte	.LASF19
 5573 00e9 0F       		.byte	0xf
 5574 00ea 30       		.byte	0x30
 5575 00eb 9A000000 		.4byte	0x9a
 5576 00ef 03       		.uleb128 0x3
 5577 00f0 AA1B0000 		.4byte	.LASF20
 5578 00f4 0F       		.byte	0xf
 5579 00f5 3C       		.byte	0x3c
 5580 00f6 AC000000 		.4byte	0xac
 5581 00fa 03       		.uleb128 0x3
 5582 00fb A4190000 		.4byte	.LASF21
 5583 00ff 10       		.byte	0x10
 5584 0100 3C       		.byte	0x3c
 5585 0101 BE000000 		.4byte	0xbe
 5586 0105 03       		.uleb128 0x3
 5587 0106 9D050000 		.4byte	.LASF22
 5588 010a 10       		.byte	0x10
 5589 010b 3D       		.byte	0x3d
 5590 010c BE000000 		.4byte	0xbe
 5591 0110 03       		.uleb128 0x3
 5592 0111 AB1D0000 		.4byte	.LASF23
 5593 0115 10       		.byte	0x10
 5594 0116 3E       		.byte	0x3e
 5595 0117 BE000000 		.4byte	0xbe
 5596 011b 03       		.uleb128 0x3
 5597 011c 6D000000 		.4byte	.LASF24
 5598 0120 10       		.byte	0x10
 5599 0121 40       		.byte	0x40
 5600 0122 E4000000 		.4byte	0xe4
 5601 0126 03       		.uleb128 0x3
 5602 0127 C3160000 		.4byte	.LASF25
 5603 012b 10       		.byte	0x10
 5604 012c 41       		.byte	0x41
 5605 012d D9000000 		.4byte	0xd9
 5606 0131 03       		.uleb128 0x3
 5607 0132 E1170000 		.4byte	.LASF26
 5608 0136 10       		.byte	0x10
 5609 0137 42       		.byte	0x42
 5610 0138 D9000000 		.4byte	0xd9
 5611 013c 03       		.uleb128 0x3
 5612 013d 9B070000 		.4byte	.LASF27
 5613 0141 10       		.byte	0x10
 5614 0142 43       		.byte	0x43
 5615 0143 E4000000 		.4byte	0xe4
ARM GAS  /tmp/ccvPPVYB.s 			page 100


 5616 0147 03       		.uleb128 0x3
 5617 0148 0A170000 		.4byte	.LASF28
 5618 014c 10       		.byte	0x10
 5619 014d 44       		.byte	0x44
 5620 014e E4000000 		.4byte	0xe4
 5621 0152 03       		.uleb128 0x3
 5622 0153 B90B0000 		.4byte	.LASF29
 5623 0157 10       		.byte	0x10
 5624 0158 45       		.byte	0x45
 5625 0159 D9000000 		.4byte	0xd9
 5626 015d 03       		.uleb128 0x3
 5627 015e 4A000000 		.4byte	.LASF30
 5628 0162 11       		.byte	0x11
 5629 0163 35       		.byte	0x35
 5630 0164 CE000000 		.4byte	0xce
 5631 0168 03       		.uleb128 0x3
 5632 0169 90140000 		.4byte	.LASF31
 5633 016d 11       		.byte	0x11
 5634 016e 3F       		.byte	0x3f
 5635 016f 73010000 		.4byte	0x173
 5636 0173 08       		.uleb128 0x8
 5637 0174 FE0D0000 		.4byte	.LASF59
 5638 0178 48       		.byte	0x48
 5639 0179 12       		.byte	0x12
 5640 017a C2       		.byte	0xc2
 5641 017b C9020000 		.4byte	0x2c9
 5642 017f 09       		.uleb128 0x9
 5643 0180 04       		.byte	0x4
 5644 0181 12       		.byte	0x12
 5645 0182 FA       		.byte	0xfa
 5646 0183 DC010000 		.4byte	0x1dc
 5647 0187 0A       		.uleb128 0xa
 5648 0188 41200000 		.4byte	.LASF32
 5649 018c 12       		.byte	0x12
 5650 018d 0101     		.2byte	0x101
 5651 018f 26010000 		.4byte	0x126
 5652 0193 0A       		.uleb128 0xa
 5653 0194 1F040000 		.4byte	.LASF33
 5654 0198 12       		.byte	0x12
 5655 0199 0801     		.2byte	0x108
 5656 019b 26010000 		.4byte	0x126
 5657 019f 0A       		.uleb128 0xa
 5658 01a0 8B0A0000 		.4byte	.LASF34
 5659 01a4 12       		.byte	0x12
 5660 01a5 0F01     		.2byte	0x10f
 5661 01a7 B1030000 		.4byte	0x3b1
 5662 01ab 0A       		.uleb128 0xa
 5663 01ac AF070000 		.4byte	.LASF35
 5664 01b0 12       		.byte	0x12
 5665 01b1 1601     		.2byte	0x116
 5666 01b3 59060000 		.4byte	0x659
 5667 01b7 0A       		.uleb128 0xa
 5668 01b8 77220000 		.4byte	.LASF36
 5669 01bc 12       		.byte	0x12
 5670 01bd 1E01     		.2byte	0x11e
 5671 01bf 84060000 		.4byte	0x684
 5672 01c3 0A       		.uleb128 0xa
ARM GAS  /tmp/ccvPPVYB.s 			page 101


 5673 01c4 500C0000 		.4byte	.LASF37
 5674 01c8 12       		.byte	0x12
 5675 01c9 2701     		.2byte	0x127
 5676 01cb BB060000 		.4byte	0x6bb
 5677 01cf 0A       		.uleb128 0xa
 5678 01d0 F9060000 		.4byte	.LASF38
 5679 01d4 12       		.byte	0x12
 5680 01d5 2F01     		.2byte	0x12f
 5681 01d7 3C010000 		.4byte	0x13c
 5682 01db 00       		.byte	0
 5683 01dc 0B       		.uleb128 0xb
 5684 01dd 1D050000 		.4byte	.LASF39
 5685 01e1 12       		.byte	0x12
 5686 01e2 C3       		.byte	0xc3
 5687 01e3 D4020000 		.4byte	0x2d4
 5688 01e7 00       		.byte	0
 5689 01e8 0B       		.uleb128 0xb
 5690 01e9 5F050000 		.4byte	.LASF40
 5691 01ed 12       		.byte	0x12
 5692 01ee C5       		.byte	0xc5
 5693 01ef D4020000 		.4byte	0x2d4
 5694 01f3 04       		.byte	0x4
 5695 01f4 0B       		.uleb128 0xb
 5696 01f5 6D0A0000 		.4byte	.LASF41
 5697 01f9 12       		.byte	0x12
 5698 01fa C7       		.byte	0xc7
 5699 01fb 1B010000 		.4byte	0x11b
 5700 01ff 08       		.byte	0x8
 5701 0200 0B       		.uleb128 0xb
 5702 0201 67000000 		.4byte	.LASF42
 5703 0205 12       		.byte	0x12
 5704 0206 C8       		.byte	0xc8
 5705 0207 2D050000 		.4byte	0x52d
 5706 020b 0C       		.byte	0xc
 5707 020c 0B       		.uleb128 0xb
 5708 020d BE040000 		.4byte	.LASF43
 5709 0211 12       		.byte	0x12
 5710 0212 CA       		.byte	0xca
 5711 0213 D4020000 		.4byte	0x2d4
 5712 0217 10       		.byte	0x10
 5713 0218 0B       		.uleb128 0xb
 5714 0219 84160000 		.4byte	.LASF44
 5715 021d 12       		.byte	0x12
 5716 021e CB       		.byte	0xcb
 5717 021f D4020000 		.4byte	0x2d4
 5718 0223 14       		.byte	0x14
 5719 0224 0B       		.uleb128 0xb
 5720 0225 DD210000 		.4byte	.LASF45
 5721 0229 12       		.byte	0x12
 5722 022a D2       		.byte	0xd2
 5723 022b C1060000 		.4byte	0x6c1
 5724 022f 18       		.byte	0x18
 5725 0230 0B       		.uleb128 0xb
 5726 0231 22210000 		.4byte	.LASF46
 5727 0235 12       		.byte	0x12
 5728 0236 D8       		.byte	0xd8
 5729 0237 D8060000 		.4byte	0x6d8
ARM GAS  /tmp/ccvPPVYB.s 			page 102


 5730 023b 1C       		.byte	0x1c
 5731 023c 0B       		.uleb128 0xb
 5732 023d 9A220000 		.4byte	.LASF47
 5733 0241 12       		.byte	0x12
 5734 0242 DD       		.byte	0xdd
 5735 0243 05010000 		.4byte	0x105
 5736 0247 20       		.byte	0x20
 5737 0248 0B       		.uleb128 0xb
 5738 0249 21120000 		.4byte	.LASF48
 5739 024d 12       		.byte	0x12
 5740 024e E1       		.byte	0xe1
 5741 024f FA000000 		.4byte	0xfa
 5742 0253 21       		.byte	0x21
 5743 0254 0B       		.uleb128 0xb
 5744 0255 B3120000 		.4byte	.LASF49
 5745 0259 12       		.byte	0x12
 5746 025a E6       		.byte	0xe6
 5747 025b 10010000 		.4byte	0x110
 5748 025f 22       		.byte	0x22
 5749 0260 0C       		.uleb128 0xc
 5750 0261 705F7500 		.ascii	"p_u\000"
 5751 0265 12       		.byte	0x12
 5752 0266 3101     		.2byte	0x131
 5753 0268 7F010000 		.4byte	0x17f
 5754 026c 24       		.byte	0x24
 5755 026d 0D       		.uleb128 0xd
 5756 026e DF110000 		.4byte	.LASF50
 5757 0272 12       		.byte	0x12
 5758 0273 3601     		.2byte	0x136
 5759 0275 DA020000 		.4byte	0x2da
 5760 0279 28       		.byte	0x28
 5761 027a 0D       		.uleb128 0xd
 5762 027b 90000000 		.4byte	.LASF51
 5763 027f 12       		.byte	0x12
 5764 0280 3C01     		.2byte	0x13c
 5765 0282 FE020000 		.4byte	0x2fe
 5766 0286 2C       		.byte	0x2c
 5767 0287 0D       		.uleb128 0xd
 5768 0288 7E220000 		.4byte	.LASF52
 5769 028c 12       		.byte	0x12
 5770 028d 4001     		.2byte	0x140
 5771 028f 26010000 		.4byte	0x126
 5772 0293 34       		.byte	0x34
 5773 0294 0D       		.uleb128 0xd
 5774 0295 450C0000 		.4byte	.LASF53
 5775 0299 12       		.byte	0x12
 5776 029a 4601     		.2byte	0x146
 5777 029c 3C010000 		.4byte	0x13c
 5778 02a0 38       		.byte	0x38
 5779 02a1 0D       		.uleb128 0xd
 5780 02a2 BB050000 		.4byte	.LASF54
 5781 02a6 12       		.byte	0x12
 5782 02a7 4D01     		.2byte	0x14d
 5783 02a9 BB060000 		.4byte	0x6bb
 5784 02ad 3C       		.byte	0x3c
 5785 02ae 0D       		.uleb128 0xd
 5786 02af C3140000 		.4byte	.LASF55
ARM GAS  /tmp/ccvPPVYB.s 			page 103


 5787 02b3 12       		.byte	0x12
 5788 02b4 5101     		.2byte	0x151
 5789 02b6 1B010000 		.4byte	0x11b
 5790 02ba 40       		.byte	0x40
 5791 02bb 0D       		.uleb128 0xd
 5792 02bc 7E120000 		.4byte	.LASF56
 5793 02c0 12       		.byte	0x12
 5794 02c1 5801     		.2byte	0x158
 5795 02c3 B1030000 		.4byte	0x3b1
 5796 02c7 44       		.byte	0x44
 5797 02c8 00       		.byte	0
 5798 02c9 03       		.uleb128 0x3
 5799 02ca A5140000 		.4byte	.LASF57
 5800 02ce 11       		.byte	0x11
 5801 02cf 44       		.byte	0x44
 5802 02d0 D4020000 		.4byte	0x2d4
 5803 02d4 0E       		.uleb128 0xe
 5804 02d5 04       		.byte	0x4
 5805 02d6 68010000 		.4byte	0x168
 5806 02da 03       		.uleb128 0x3
 5807 02db C71E0000 		.4byte	.LASF58
 5808 02df 11       		.byte	0x11
 5809 02e0 49       		.byte	0x49
 5810 02e1 E5020000 		.4byte	0x2e5
 5811 02e5 08       		.uleb128 0x8
 5812 02e6 B90E0000 		.4byte	.LASF60
 5813 02ea 04       		.byte	0x4
 5814 02eb 12       		.byte	0x12
 5815 02ec B0       		.byte	0xb0
 5816 02ed FE020000 		.4byte	0x2fe
 5817 02f1 0B       		.uleb128 0xb
 5818 02f2 1D050000 		.4byte	.LASF39
 5819 02f6 12       		.byte	0x12
 5820 02f7 B1       		.byte	0xb1
 5821 02f8 D4020000 		.4byte	0x2d4
 5822 02fc 00       		.byte	0
 5823 02fd 00       		.byte	0
 5824 02fe 03       		.uleb128 0x3
 5825 02ff AB050000 		.4byte	.LASF61
 5826 0303 11       		.byte	0x11
 5827 0304 50       		.byte	0x50
 5828 0305 09030000 		.4byte	0x309
 5829 0309 08       		.uleb128 0x8
 5830 030a F4160000 		.4byte	.LASF62
 5831 030e 08       		.byte	0x8
 5832 030f 12       		.byte	0x12
 5833 0310 B7       		.byte	0xb7
 5834 0311 2E030000 		.4byte	0x32e
 5835 0315 0B       		.uleb128 0xb
 5836 0316 1D050000 		.4byte	.LASF39
 5837 031a 12       		.byte	0x12
 5838 031b B8       		.byte	0xb8
 5839 031c D4020000 		.4byte	0x2d4
 5840 0320 00       		.byte	0
 5841 0321 0B       		.uleb128 0xb
 5842 0322 5F050000 		.4byte	.LASF40
 5843 0326 12       		.byte	0x12
ARM GAS  /tmp/ccvPPVYB.s 			page 104


 5844 0327 B9       		.byte	0xb9
 5845 0328 D4020000 		.4byte	0x2d4
 5846 032c 04       		.byte	0x4
 5847 032d 00       		.byte	0
 5848 032e 03       		.uleb128 0x3
 5849 032f 850E0000 		.4byte	.LASF63
 5850 0333 11       		.byte	0x11
 5851 0334 57       		.byte	0x57
 5852 0335 39030000 		.4byte	0x339
 5853 0339 0F       		.uleb128 0xf
 5854 033a 810C0000 		.4byte	.LASF64
 5855 033e 1C       		.byte	0x1c
 5856 033f 12       		.byte	0x12
 5857 0340 9001     		.2byte	0x190
 5858 0342 95030000 		.4byte	0x395
 5859 0346 0D       		.uleb128 0xd
 5860 0347 A6180000 		.4byte	.LASF65
 5861 034b 12       		.byte	0x12
 5862 034c 9101     		.2byte	0x191
 5863 034e FE020000 		.4byte	0x2fe
 5864 0352 00       		.byte	0
 5865 0353 0D       		.uleb128 0xd
 5866 0354 661C0000 		.4byte	.LASF66
 5867 0358 12       		.byte	0x12
 5868 0359 9201     		.2byte	0x192
 5869 035b 1B010000 		.4byte	0x11b
 5870 035f 08       		.byte	0x8
 5871 0360 0D       		.uleb128 0xd
 5872 0361 BD000000 		.4byte	.LASF67
 5873 0365 12       		.byte	0x12
 5874 0366 9401     		.2byte	0x194
 5875 0368 2D050000 		.4byte	0x52d
 5876 036c 0C       		.byte	0xc
 5877 036d 0D       		.uleb128 0xd
 5878 036e FC070000 		.4byte	.LASF68
 5879 0372 12       		.byte	0x12
 5880 0373 9701     		.2byte	0x197
 5881 0375 D4020000 		.4byte	0x2d4
 5882 0379 10       		.byte	0x10
 5883 037a 0D       		.uleb128 0xd
 5884 037b AE1A0000 		.4byte	.LASF69
 5885 037f 12       		.byte	0x12
 5886 0380 9801     		.2byte	0x198
 5887 0382 D4020000 		.4byte	0x2d4
 5888 0386 14       		.byte	0x14
 5889 0387 0D       		.uleb128 0xd
 5890 0388 83210000 		.4byte	.LASF70
 5891 038c 12       		.byte	0x12
 5892 038d 9B01     		.2byte	0x19b
 5893 038f D4020000 		.4byte	0x2d4
 5894 0393 18       		.byte	0x18
 5895 0394 00       		.byte	0
 5896 0395 03       		.uleb128 0x3
 5897 0396 FA000000 		.4byte	.LASF71
 5898 039a 11       		.byte	0x11
 5899 039b 5C       		.byte	0x5c
 5900 039c A0030000 		.4byte	0x3a0
ARM GAS  /tmp/ccvPPVYB.s 			page 105


 5901 03a0 0E       		.uleb128 0xe
 5902 03a1 04       		.byte	0x4
 5903 03a2 A6030000 		.4byte	0x3a6
 5904 03a6 10       		.uleb128 0x10
 5905 03a7 B1030000 		.4byte	0x3b1
 5906 03ab 11       		.uleb128 0x11
 5907 03ac B1030000 		.4byte	0x3b1
 5908 03b0 00       		.byte	0
 5909 03b1 12       		.uleb128 0x12
 5910 03b2 04       		.byte	0x4
 5911 03b3 03       		.uleb128 0x3
 5912 03b4 750E0000 		.4byte	.LASF72
 5913 03b8 11       		.byte	0x11
 5914 03b9 61       		.byte	0x61
 5915 03ba BE030000 		.4byte	0x3be
 5916 03be 0F       		.uleb128 0xf
 5917 03bf AA150000 		.4byte	.LASF73
 5918 03c3 14       		.byte	0x14
 5919 03c4 12       		.byte	0x12
 5920 03c5 6B01     		.2byte	0x16b
 5921 03c7 0D040000 		.4byte	0x40d
 5922 03cb 0D       		.uleb128 0xd
 5923 03cc 57100000 		.4byte	.LASF74
 5924 03d0 12       		.byte	0x12
 5925 03d1 6C01     		.2byte	0x16c
 5926 03d3 DE060000 		.4byte	0x6de
 5927 03d7 00       		.byte	0
 5928 03d8 0D       		.uleb128 0xd
 5929 03d9 97100000 		.4byte	.LASF75
 5930 03dd 12       		.byte	0x12
 5931 03de 6D01     		.2byte	0x16d
 5932 03e0 DE060000 		.4byte	0x6de
 5933 03e4 04       		.byte	0x4
 5934 03e5 0D       		.uleb128 0xd
 5935 03e6 36150000 		.4byte	.LASF76
 5936 03ea 12       		.byte	0x12
 5937 03eb 6E01     		.2byte	0x16e
 5938 03ed 5D010000 		.4byte	0x15d
 5939 03f1 08       		.byte	0x8
 5940 03f2 0D       		.uleb128 0xd
 5941 03f3 D60B0000 		.4byte	.LASF77
 5942 03f7 12       		.byte	0x12
 5943 03f8 6F01     		.2byte	0x16f
 5944 03fa 95030000 		.4byte	0x395
 5945 03fe 0C       		.byte	0xc
 5946 03ff 0D       		.uleb128 0xd
 5947 0400 18040000 		.4byte	.LASF78
 5948 0404 12       		.byte	0x12
 5949 0405 7101     		.2byte	0x171
 5950 0407 B1030000 		.4byte	0x3b1
 5951 040b 10       		.byte	0x10
 5952 040c 00       		.byte	0
 5953 040d 03       		.uleb128 0x3
 5954 040e 140E0000 		.4byte	.LASF79
 5955 0412 11       		.byte	0x11
 5956 0413 66       		.byte	0x66
 5957 0414 18040000 		.4byte	0x418
ARM GAS  /tmp/ccvPPVYB.s 			page 106


 5958 0418 0F       		.uleb128 0xf
 5959 0419 2A010000 		.4byte	.LASF80
 5960 041d 0C       		.byte	0xc
 5961 041e 12       		.byte	0x12
 5962 041f 7B01     		.2byte	0x17b
 5963 0421 5A040000 		.4byte	0x45a
 5964 0425 0D       		.uleb128 0xd
 5965 0426 57100000 		.4byte	.LASF74
 5966 042a 12       		.byte	0x12
 5967 042b 7C01     		.2byte	0x17c
 5968 042d DE060000 		.4byte	0x6de
 5969 0431 00       		.byte	0
 5970 0432 0D       		.uleb128 0xd
 5971 0433 97100000 		.4byte	.LASF75
 5972 0437 12       		.byte	0x12
 5973 0438 7E01     		.2byte	0x17e
 5974 043a DE060000 		.4byte	0x6de
 5975 043e 04       		.byte	0x4
 5976 043f 0D       		.uleb128 0xd
 5977 0440 36150000 		.4byte	.LASF76
 5978 0444 12       		.byte	0x12
 5979 0445 8001     		.2byte	0x180
 5980 0447 5D010000 		.4byte	0x15d
 5981 044b 08       		.byte	0x8
 5982 044c 0D       		.uleb128 0xd
 5983 044d 64200000 		.4byte	.LASF81
 5984 0451 12       		.byte	0x12
 5985 0452 8801     		.2byte	0x188
 5986 0454 5D010000 		.4byte	0x15d
 5987 0458 0A       		.byte	0xa
 5988 0459 00       		.byte	0
 5989 045a 03       		.uleb128 0x3
 5990 045b 49080000 		.4byte	.LASF82
 5991 045f 11       		.byte	0x11
 5992 0460 6B       		.byte	0x6b
 5993 0461 65040000 		.4byte	0x465
 5994 0465 13       		.uleb128 0x13
 5995 0466 6D1C0000 		.4byte	.LASF83
 5996 046a 1404     		.2byte	0x414
 5997 046c 12       		.byte	0x12
 5998 046d A201     		.2byte	0x1a2
 5999 046f A8040000 		.4byte	0x4a8
 6000 0473 0D       		.uleb128 0xd
 6001 0474 E5070000 		.4byte	.LASF84
 6002 0478 12       		.byte	0x12
 6003 0479 AA01     		.2byte	0x1aa
 6004 047b C7060000 		.4byte	0x6c7
 6005 047f 00       		.byte	0
 6006 0480 0D       		.uleb128 0xd
 6007 0481 BE0C0000 		.4byte	.LASF85
 6008 0485 12       		.byte	0x12
 6009 0486 AF01     		.2byte	0x1af
 6010 0488 52010000 		.4byte	0x152
 6011 048c 04       		.byte	0x4
 6012 048d 0D       		.uleb128 0xd
 6013 048e E7010000 		.4byte	.LASF86
 6014 0492 12       		.byte	0x12
ARM GAS  /tmp/ccvPPVYB.s 			page 107


 6015 0493 B301     		.2byte	0x1b3
 6016 0495 52010000 		.4byte	0x152
 6017 0499 08       		.byte	0x8
 6018 049a 0D       		.uleb128 0xd
 6019 049b EF070000 		.4byte	.LASF87
 6020 049f 12       		.byte	0x12
 6021 04a0 B901     		.2byte	0x1b9
 6022 04a2 4E060000 		.4byte	0x64e
 6023 04a6 0C       		.byte	0xc
 6024 04a7 00       		.byte	0
 6025 04a8 03       		.uleb128 0x3
 6026 04a9 A1200000 		.4byte	.LASF88
 6027 04ad 11       		.byte	0x11
 6028 04ae 70       		.byte	0x70
 6029 04af B3040000 		.4byte	0x4b3
 6030 04b3 13       		.uleb128 0x13
 6031 04b4 371F0000 		.4byte	.LASF89
 6032 04b8 6805     		.2byte	0x568
 6033 04ba 12       		.byte	0x12
 6034 04bb C201     		.2byte	0x1c2
 6035 04bd 05050000 		.4byte	0x505
 6036 04c1 0D       		.uleb128 0xd
 6037 04c2 79190000 		.4byte	.LASF90
 6038 04c6 12       		.byte	0x12
 6039 04c7 C601     		.2byte	0x1c6
 6040 04c9 2E030000 		.4byte	0x32e
 6041 04cd 00       		.byte	0
 6042 04ce 0D       		.uleb128 0xd
 6043 04cf 521D0000 		.4byte	.LASF91
 6044 04d3 12       		.byte	0x12
 6045 04d4 CA01     		.2byte	0x1ca
 6046 04d6 0D040000 		.4byte	0x40d
 6047 04da 1C       		.byte	0x1c
 6048 04db 0C       		.uleb128 0xc
 6049 04dc 64626700 		.ascii	"dbg\000"
 6050 04e0 12       		.byte	0x12
 6051 04e1 CE01     		.2byte	0x1ce
 6052 04e3 5A040000 		.4byte	0x45a
 6053 04e7 28       		.byte	0x28
 6054 04e8 14       		.uleb128 0x14
 6055 04e9 26180000 		.4byte	.LASF92
 6056 04ed 12       		.byte	0x12
 6057 04ee D201     		.2byte	0x1d2
 6058 04f0 68010000 		.4byte	0x168
 6059 04f4 3C04     		.2byte	0x43c
 6060 04f6 14       		.uleb128 0x14
 6061 04f7 2E120000 		.4byte	.LASF93
 6062 04fb 12       		.byte	0x12
 6063 04fc E301     		.2byte	0x1e3
 6064 04fe E4060000 		.4byte	0x6e4
 6065 0502 8804     		.2byte	0x488
 6066 0504 00       		.byte	0
 6067 0505 05       		.uleb128 0x5
 6068 0506 04       		.byte	0x4
 6069 0507 07       		.byte	0x7
 6070 0508 18000000 		.4byte	.LASF94
 6071 050c 15       		.uleb128 0x15
ARM GAS  /tmp/ccvPPVYB.s 			page 108


 6072 050d E10D0000 		.4byte	.LASF116
 6073 0511 16       		.byte	0x16
 6074 0512 4C       		.byte	0x4c
 6075 0513 E4000000 		.4byte	0xe4
 6076 0517 03       		.uleb128 0x3
 6077 0518 F4050000 		.4byte	.LASF95
 6078 051c 13       		.byte	0x13
 6079 051d 65       		.byte	0x65
 6080 051e B1030000 		.4byte	0x3b1
 6081 0522 03       		.uleb128 0x3
 6082 0523 FA0A0000 		.4byte	.LASF96
 6083 0527 13       		.byte	0x13
 6084 0528 6D       		.byte	0x6d
 6085 0529 EF000000 		.4byte	0xef
 6086 052d 08       		.uleb128 0x8
 6087 052e A7070000 		.4byte	.LASF97
 6088 0532 04       		.byte	0x4
 6089 0533 13       		.byte	0x13
 6090 0534 89       		.byte	0x89
 6091 0535 46050000 		.4byte	0x546
 6092 0539 16       		.uleb128 0x16
 6093 053a 72313300 		.ascii	"r13\000"
 6094 053e 13       		.byte	0x13
 6095 053f 8A       		.byte	0x8a
 6096 0540 B8050000 		.4byte	0x5b8
 6097 0544 00       		.byte	0
 6098 0545 00       		.byte	0
 6099 0546 08       		.uleb128 0x8
 6100 0547 CE140000 		.4byte	.LASF98
 6101 054b 24       		.byte	0x24
 6102 054c 01       		.byte	0x1
 6103 054d A4       		.byte	0xa4
 6104 054e B8050000 		.4byte	0x5b8
 6105 0552 16       		.uleb128 0x16
 6106 0553 723800   		.ascii	"r8\000"
 6107 0556 01       		.byte	0x1
 6108 0557 A5       		.byte	0xa5
 6109 0558 17050000 		.4byte	0x517
 6110 055c 00       		.byte	0
 6111 055d 16       		.uleb128 0x16
 6112 055e 723900   		.ascii	"r9\000"
 6113 0561 01       		.byte	0x1
 6114 0562 A6       		.byte	0xa6
 6115 0563 17050000 		.4byte	0x517
 6116 0567 04       		.byte	0x4
 6117 0568 16       		.uleb128 0x16
 6118 0569 72313000 		.ascii	"r10\000"
 6119 056d 01       		.byte	0x1
 6120 056e A7       		.byte	0xa7
 6121 056f 17050000 		.4byte	0x517
 6122 0573 08       		.byte	0x8
 6123 0574 16       		.uleb128 0x16
 6124 0575 72313100 		.ascii	"r11\000"
 6125 0579 01       		.byte	0x1
 6126 057a A8       		.byte	0xa8
 6127 057b 17050000 		.4byte	0x517
 6128 057f 0C       		.byte	0xc
ARM GAS  /tmp/ccvPPVYB.s 			page 109


 6129 0580 16       		.uleb128 0x16
 6130 0581 723400   		.ascii	"r4\000"
 6131 0584 01       		.byte	0x1
 6132 0585 A9       		.byte	0xa9
 6133 0586 17050000 		.4byte	0x517
 6134 058a 10       		.byte	0x10
 6135 058b 16       		.uleb128 0x16
 6136 058c 723500   		.ascii	"r5\000"
 6137 058f 01       		.byte	0x1
 6138 0590 AA       		.byte	0xaa
 6139 0591 17050000 		.4byte	0x517
 6140 0595 14       		.byte	0x14
 6141 0596 16       		.uleb128 0x16
 6142 0597 723600   		.ascii	"r6\000"
 6143 059a 01       		.byte	0x1
 6144 059b AB       		.byte	0xab
 6145 059c 17050000 		.4byte	0x517
 6146 05a0 18       		.byte	0x18
 6147 05a1 16       		.uleb128 0x16
 6148 05a2 723700   		.ascii	"r7\000"
 6149 05a5 01       		.byte	0x1
 6150 05a6 AC       		.byte	0xac
 6151 05a7 17050000 		.4byte	0x517
 6152 05ab 1C       		.byte	0x1c
 6153 05ac 16       		.uleb128 0x16
 6154 05ad 6C7200   		.ascii	"lr\000"
 6155 05b0 01       		.byte	0x1
 6156 05b1 AD       		.byte	0xad
 6157 05b2 17050000 		.4byte	0x517
 6158 05b6 20       		.byte	0x20
 6159 05b7 00       		.byte	0
 6160 05b8 0E       		.uleb128 0xe
 6161 05b9 04       		.byte	0x4
 6162 05ba 46050000 		.4byte	0x546
 6163 05be 17       		.uleb128 0x17
 6164 05bf 10       		.byte	0x10
 6165 05c0 14       		.byte	0x14
 6166 05c1 51       		.byte	0x51
 6167 05c2 72040000 		.4byte	.LASF117
 6168 05c6 FB050000 		.4byte	0x5fb
 6169 05ca 0B       		.uleb128 0xb
 6170 05cb D5210000 		.4byte	.LASF99
 6171 05cf 14       		.byte	0x14
 6172 05d0 55       		.byte	0x55
 6173 05d1 5D010000 		.4byte	0x15d
 6174 05d5 00       		.byte	0
 6175 05d6 0B       		.uleb128 0xb
 6176 05d7 D6020000 		.4byte	.LASF100
 6177 05db 14       		.byte	0x14
 6178 05dc 59       		.byte	0x59
 6179 05dd D4020000 		.4byte	0x2d4
 6180 05e1 04       		.byte	0x4
 6181 05e2 0B       		.uleb128 0xb
 6182 05e3 F4110000 		.4byte	.LASF101
 6183 05e7 14       		.byte	0x14
 6184 05e8 5D       		.byte	0x5d
 6185 05e9 B1030000 		.4byte	0x3b1
ARM GAS  /tmp/ccvPPVYB.s 			page 110


 6186 05ed 08       		.byte	0x8
 6187 05ee 0B       		.uleb128 0xb
 6188 05ef EE0C0000 		.4byte	.LASF102
 6189 05f3 14       		.byte	0x14
 6190 05f4 61       		.byte	0x61
 6191 05f5 BE000000 		.4byte	0xbe
 6192 05f9 0C       		.byte	0xc
 6193 05fa 00       		.byte	0
 6194 05fb 03       		.uleb128 0x3
 6195 05fc C90E0000 		.4byte	.LASF103
 6196 0600 14       		.byte	0x14
 6197 0601 62       		.byte	0x62
 6198 0602 BE050000 		.4byte	0x5be
 6199 0606 18       		.uleb128 0x18
 6200 0607 0804     		.2byte	0x408
 6201 0609 14       		.byte	0x14
 6202 060a 67       		.byte	0x67
 6203 060b 27130000 		.4byte	.LASF449
 6204 060f 38060000 		.4byte	0x638
 6205 0613 0B       		.uleb128 0xb
 6206 0614 AB100000 		.4byte	.LASF104
 6207 0618 14       		.byte	0x14
 6208 0619 6B       		.byte	0x6b
 6209 061a 3C000000 		.4byte	0x3c
 6210 061e 00       		.byte	0
 6211 061f 0B       		.uleb128 0xb
 6212 0620 25220000 		.4byte	.LASF105
 6213 0624 14       		.byte	0x14
 6214 0625 6F       		.byte	0x6f
 6215 0626 38060000 		.4byte	0x638
 6216 062a 04       		.byte	0x4
 6217 062b 0B       		.uleb128 0xb
 6218 062c 7B130000 		.4byte	.LASF106
 6219 0630 14       		.byte	0x14
 6220 0631 73       		.byte	0x73
 6221 0632 3E060000 		.4byte	0x63e
 6222 0636 08       		.byte	0x8
 6223 0637 00       		.byte	0
 6224 0638 0E       		.uleb128 0xe
 6225 0639 04       		.byte	0x4
 6226 063a FB050000 		.4byte	0x5fb
 6227 063e 19       		.uleb128 0x19
 6228 063f FB050000 		.4byte	0x5fb
 6229 0643 4E060000 		.4byte	0x64e
 6230 0647 1A       		.uleb128 0x1a
 6231 0648 05050000 		.4byte	0x505
 6232 064c 3F       		.byte	0x3f
 6233 064d 00       		.byte	0
 6234 064e 03       		.uleb128 0x3
 6235 064f 330C0000 		.4byte	.LASF107
 6236 0653 14       		.byte	0x14
 6237 0654 74       		.byte	0x74
 6238 0655 06060000 		.4byte	0x606
 6239 0659 0E       		.uleb128 0xe
 6240 065a 04       		.byte	0x4
 6241 065b C9020000 		.4byte	0x2c9
 6242 065f 08       		.uleb128 0x8
ARM GAS  /tmp/ccvPPVYB.s 			page 111


 6243 0660 F10D0000 		.4byte	.LASF108
 6244 0664 0C       		.byte	0xc
 6245 0665 06       		.byte	0x6
 6246 0666 34       		.byte	0x34
 6247 0667 84060000 		.4byte	0x684
 6248 066b 0B       		.uleb128 0xb
 6249 066c 161B0000 		.4byte	.LASF109
 6250 0670 06       		.byte	0x6
 6251 0671 35       		.byte	0x35
 6252 0672 FE020000 		.4byte	0x2fe
 6253 0676 00       		.byte	0
 6254 0677 0B       		.uleb128 0xb
 6255 0678 BB150000 		.4byte	.LASF110
 6256 067c 06       		.byte	0x6
 6257 067d 37       		.byte	0x37
 6258 067e 52010000 		.4byte	0x152
 6259 0682 08       		.byte	0x8
 6260 0683 00       		.byte	0
 6261 0684 0E       		.uleb128 0xe
 6262 0685 04       		.byte	0x4
 6263 0686 5F060000 		.4byte	0x65f
 6264 068a 08       		.uleb128 0x8
 6265 068b D71B0000 		.4byte	.LASF111
 6266 068f 10       		.byte	0x10
 6267 0690 15       		.byte	0x15
 6268 0691 39       		.byte	0x39
 6269 0692 BB060000 		.4byte	0x6bb
 6270 0696 0B       		.uleb128 0xb
 6271 0697 19100000 		.4byte	.LASF112
 6272 069b 15       		.byte	0x15
 6273 069c 3A       		.byte	0x3a
 6274 069d FE020000 		.4byte	0x2fe
 6275 06a1 00       		.byte	0
 6276 06a2 0B       		.uleb128 0xb
 6277 06a3 EC030000 		.4byte	.LASF113
 6278 06a7 15       		.byte	0x15
 6279 06a8 3C       		.byte	0x3c
 6280 06a9 D4020000 		.4byte	0x2d4
 6281 06ad 08       		.byte	0x8
 6282 06ae 0B       		.uleb128 0xb
 6283 06af 1E220000 		.4byte	.LASF114
 6284 06b3 15       		.byte	0x15
 6285 06b4 3E       		.byte	0x3e
 6286 06b5 49080000 		.4byte	0x849
 6287 06b9 0C       		.byte	0xc
 6288 06ba 00       		.byte	0
 6289 06bb 0E       		.uleb128 0xe
 6290 06bc 04       		.byte	0x4
 6291 06bd 8A060000 		.4byte	0x68a
 6292 06c1 0E       		.uleb128 0xe
 6293 06c2 04       		.byte	0x4
 6294 06c3 D3060000 		.4byte	0x6d3
 6295 06c7 04       		.uleb128 0x4
 6296 06c8 C1060000 		.4byte	0x6c1
 6297 06cc 05       		.uleb128 0x5
 6298 06cd 01       		.byte	0x1
 6299 06ce 08       		.byte	0x8
ARM GAS  /tmp/ccvPPVYB.s 			page 112


 6300 06cf 56090000 		.4byte	.LASF115
 6301 06d3 07       		.uleb128 0x7
 6302 06d4 CC060000 		.4byte	0x6cc
 6303 06d8 0E       		.uleb128 0xe
 6304 06d9 04       		.byte	0x4
 6305 06da 22050000 		.4byte	0x522
 6306 06de 0E       		.uleb128 0xe
 6307 06df 04       		.byte	0x4
 6308 06e0 B3030000 		.4byte	0x3b3
 6309 06e4 19       		.uleb128 0x19
 6310 06e5 22050000 		.4byte	0x522
 6311 06e9 F4060000 		.4byte	0x6f4
 6312 06ed 1A       		.uleb128 0x1a
 6313 06ee 05050000 		.4byte	0x505
 6314 06f2 1B       		.byte	0x1b
 6315 06f3 00       		.byte	0
 6316 06f4 1B       		.uleb128 0x1b
 6317 06f5 636800   		.ascii	"ch\000"
 6318 06f8 12       		.byte	0x12
 6319 06f9 0902     		.2byte	0x209
 6320 06fb A8040000 		.4byte	0x4a8
 6321 06ff 17       		.uleb128 0x17
 6322 0700 16       		.byte	0x16
 6323 0701 05       		.byte	0x5
 6324 0702 34       		.byte	0x34
 6325 0703 B8140000 		.4byte	.LASF118
 6326 0707 E4070000 		.4byte	0x7e4
 6327 070b 0B       		.uleb128 0xb
 6328 070c 59000000 		.4byte	.LASF119
 6329 0710 05       		.byte	0x5
 6330 0711 35       		.byte	0x35
 6331 0712 E4070000 		.4byte	0x7e4
 6332 0716 00       		.byte	0
 6333 0717 0B       		.uleb128 0xb
 6334 0718 960D0000 		.4byte	.LASF120
 6335 071c 05       		.byte	0x5
 6336 071d 36       		.byte	0x36
 6337 071e BE000000 		.4byte	0xbe
 6338 0722 04       		.byte	0x4
 6339 0723 0B       		.uleb128 0xb
 6340 0724 DB200000 		.4byte	.LASF121
 6341 0728 05       		.byte	0x5
 6342 0729 37       		.byte	0x37
 6343 072a BE000000 		.4byte	0xbe
 6344 072e 05       		.byte	0x5
 6345 072f 0B       		.uleb128 0xb
 6346 0730 04100000 		.4byte	.LASF122
 6347 0734 05       		.byte	0x5
 6348 0735 38       		.byte	0x38
 6349 0736 CE000000 		.4byte	0xce
 6350 073a 06       		.byte	0x6
 6351 073b 0B       		.uleb128 0xb
 6352 073c AC020000 		.4byte	.LASF123
 6353 0740 05       		.byte	0x5
 6354 0741 39       		.byte	0x39
 6355 0742 BE000000 		.4byte	0xbe
 6356 0746 08       		.byte	0x8
ARM GAS  /tmp/ccvPPVYB.s 			page 113


 6357 0747 0B       		.uleb128 0xb
 6358 0748 EC120000 		.4byte	.LASF124
 6359 074c 05       		.byte	0x5
 6360 074d 3A       		.byte	0x3a
 6361 074e BE000000 		.4byte	0xbe
 6362 0752 09       		.byte	0x9
 6363 0753 0B       		.uleb128 0xb
 6364 0754 4C040000 		.4byte	.LASF125
 6365 0758 05       		.byte	0x5
 6366 0759 3B       		.byte	0x3b
 6367 075a BE000000 		.4byte	0xbe
 6368 075e 0A       		.byte	0xa
 6369 075f 0B       		.uleb128 0xb
 6370 0760 240B0000 		.4byte	.LASF126
 6371 0764 05       		.byte	0x5
 6372 0765 3C       		.byte	0x3c
 6373 0766 BE000000 		.4byte	0xbe
 6374 076a 0B       		.byte	0xb
 6375 076b 0B       		.uleb128 0xb
 6376 076c EF000000 		.4byte	.LASF127
 6377 0770 05       		.byte	0x5
 6378 0771 3D       		.byte	0x3d
 6379 0772 BE000000 		.4byte	0xbe
 6380 0776 0C       		.byte	0xc
 6381 0777 0B       		.uleb128 0xb
 6382 0778 C40A0000 		.4byte	.LASF128
 6383 077c 05       		.byte	0x5
 6384 077d 3E       		.byte	0x3e
 6385 077e BE000000 		.4byte	0xbe
 6386 0782 0D       		.byte	0xd
 6387 0783 0B       		.uleb128 0xb
 6388 0784 EE1C0000 		.4byte	.LASF129
 6389 0788 05       		.byte	0x5
 6390 0789 3F       		.byte	0x3f
 6391 078a BE000000 		.4byte	0xbe
 6392 078e 0E       		.byte	0xe
 6393 078f 0B       		.uleb128 0xb
 6394 0790 3E000000 		.4byte	.LASF130
 6395 0794 05       		.byte	0x5
 6396 0795 40       		.byte	0x40
 6397 0796 BE000000 		.4byte	0xbe
 6398 079a 0F       		.byte	0xf
 6399 079b 0B       		.uleb128 0xb
 6400 079c B71E0000 		.4byte	.LASF131
 6401 07a0 05       		.byte	0x5
 6402 07a1 41       		.byte	0x41
 6403 07a2 BE000000 		.4byte	0xbe
 6404 07a6 10       		.byte	0x10
 6405 07a7 0B       		.uleb128 0xb
 6406 07a8 45050000 		.4byte	.LASF132
 6407 07ac 05       		.byte	0x5
 6408 07ad 43       		.byte	0x43
 6409 07ae BE000000 		.4byte	0xbe
 6410 07b2 11       		.byte	0x11
 6411 07b3 0B       		.uleb128 0xb
 6412 07b4 17170000 		.4byte	.LASF133
 6413 07b8 05       		.byte	0x5
ARM GAS  /tmp/ccvPPVYB.s 			page 114


 6414 07b9 44       		.byte	0x44
 6415 07ba BE000000 		.4byte	0xbe
 6416 07be 12       		.byte	0x12
 6417 07bf 0B       		.uleb128 0xb
 6418 07c0 CC130000 		.4byte	.LASF134
 6419 07c4 05       		.byte	0x5
 6420 07c5 45       		.byte	0x45
 6421 07c6 BE000000 		.4byte	0xbe
 6422 07ca 13       		.byte	0x13
 6423 07cb 0B       		.uleb128 0xb
 6424 07cc 080F0000 		.4byte	.LASF135
 6425 07d0 05       		.byte	0x5
 6426 07d1 46       		.byte	0x46
 6427 07d2 BE000000 		.4byte	0xbe
 6428 07d6 14       		.byte	0x14
 6429 07d7 0B       		.uleb128 0xb
 6430 07d8 2A150000 		.4byte	.LASF136
 6431 07dc 05       		.byte	0x5
 6432 07dd 48       		.byte	0x48
 6433 07de BE000000 		.4byte	0xbe
 6434 07e2 15       		.byte	0x15
 6435 07e3 00       		.byte	0
 6436 07e4 19       		.uleb128 0x19
 6437 07e5 CC060000 		.4byte	0x6cc
 6438 07e9 F4070000 		.4byte	0x7f4
 6439 07ed 1A       		.uleb128 0x1a
 6440 07ee 05050000 		.4byte	0x505
 6441 07f2 03       		.byte	0x3
 6442 07f3 00       		.byte	0
 6443 07f4 03       		.uleb128 0x3
 6444 07f5 AD200000 		.4byte	.LASF137
 6445 07f9 05       		.byte	0x5
 6446 07fa 49       		.byte	0x49
 6447 07fb FF060000 		.4byte	0x6ff
 6448 07ff 07       		.uleb128 0x7
 6449 0800 F4070000 		.4byte	0x7f4
 6450 0804 15       		.uleb128 0x15
 6451 0805 7E000000 		.4byte	.LASF138
 6452 0809 05       		.byte	0x5
 6453 080a 6E       		.byte	0x6e
 6454 080b FF070000 		.4byte	0x7ff
 6455 080f 03       		.uleb128 0x3
 6456 0810 2C220000 		.4byte	.LASF139
 6457 0814 06       		.byte	0x6
 6458 0815 38       		.byte	0x38
 6459 0816 5F060000 		.4byte	0x65f
 6460 081a 17       		.uleb128 0x17
 6461 081b 0C       		.byte	0xc
 6462 081c 07       		.byte	0x7
 6463 081d 4B       		.byte	0x4b
 6464 081e A3130000 		.4byte	.LASF140
 6465 0822 33080000 		.4byte	0x833
 6466 0826 0B       		.uleb128 0xb
 6467 0827 9F180000 		.4byte	.LASF141
 6468 082b 07       		.byte	0x7
 6469 082c 4C       		.byte	0x4c
 6470 082d 0F080000 		.4byte	0x80f
ARM GAS  /tmp/ccvPPVYB.s 			page 115


 6471 0831 00       		.byte	0
 6472 0832 00       		.byte	0
 6473 0833 03       		.uleb128 0x3
 6474 0834 A6170000 		.4byte	.LASF142
 6475 0838 07       		.byte	0x7
 6476 0839 4D       		.byte	0x4d
 6477 083a 1A080000 		.4byte	0x81a
 6478 083e 03       		.uleb128 0x3
 6479 083f A31D0000 		.4byte	.LASF143
 6480 0843 15       		.byte	0x15
 6481 0844 34       		.byte	0x34
 6482 0845 8A060000 		.4byte	0x68a
 6483 0849 0E       		.uleb128 0xe
 6484 084a 04       		.byte	0x4
 6485 084b 3E080000 		.4byte	0x83e
 6486 084f 08       		.uleb128 0x8
 6487 0850 21100000 		.4byte	.LASF144
 6488 0854 08       		.byte	0x8
 6489 0855 17       		.byte	0x17
 6490 0856 3B       		.byte	0x3b
 6491 0857 68080000 		.4byte	0x868
 6492 085b 0B       		.uleb128 0xb
 6493 085c E6150000 		.4byte	.LASF145
 6494 0860 17       		.byte	0x17
 6495 0861 3C       		.byte	0x3c
 6496 0862 FE020000 		.4byte	0x2fe
 6497 0866 00       		.byte	0
 6498 0867 00       		.byte	0
 6499 0868 03       		.uleb128 0x3
 6500 0869 A80D0000 		.4byte	.LASF146
 6501 086d 17       		.byte	0x17
 6502 086e 3E       		.byte	0x3e
 6503 086f 4F080000 		.4byte	0x84f
 6504 0873 03       		.uleb128 0x3
 6505 0874 3D0B0000 		.4byte	.LASF147
 6506 0878 08       		.byte	0x8
 6507 0879 34       		.byte	0x34
 6508 087a 7E080000 		.4byte	0x87e
 6509 087e 08       		.uleb128 0x8
 6510 087f 13200000 		.4byte	.LASF148
 6511 0883 14       		.byte	0x14
 6512 0884 08       		.byte	0x8
 6513 0885 39       		.byte	0x39
 6514 0886 C7080000 		.4byte	0x8c7
 6515 088a 0B       		.uleb128 0xb
 6516 088b 480E0000 		.4byte	.LASF149
 6517 088f 08       		.byte	0x8
 6518 0890 3A       		.byte	0x3a
 6519 0891 C7080000 		.4byte	0x8c7
 6520 0895 00       		.byte	0
 6521 0896 0B       		.uleb128 0xb
 6522 0897 84220000 		.4byte	.LASF150
 6523 089b 08       		.byte	0x8
 6524 089c 3D       		.byte	0x3d
 6525 089d D4020000 		.4byte	0x2d4
 6526 08a1 04       		.byte	0x4
 6527 08a2 0B       		.uleb128 0xb
ARM GAS  /tmp/ccvPPVYB.s 			page 116


 6528 08a3 3B130000 		.4byte	.LASF151
 6529 08a7 08       		.byte	0x8
 6530 08a8 3F       		.byte	0x3f
 6531 08a9 3C010000 		.4byte	0x13c
 6532 08ad 08       		.byte	0x8
 6533 08ae 0B       		.uleb128 0xb
 6534 08af A2010000 		.4byte	.LASF152
 6535 08b3 08       		.byte	0x8
 6536 08b4 41       		.byte	0x41
 6537 08b5 47010000 		.4byte	0x147
 6538 08b9 0C       		.byte	0xc
 6539 08ba 0B       		.uleb128 0xb
 6540 08bb 1D130000 		.4byte	.LASF153
 6541 08bf 08       		.byte	0x8
 6542 08c0 43       		.byte	0x43
 6543 08c1 47010000 		.4byte	0x147
 6544 08c5 10       		.byte	0x10
 6545 08c6 00       		.byte	0
 6546 08c7 0E       		.uleb128 0xe
 6547 08c8 04       		.byte	0x4
 6548 08c9 73080000 		.4byte	0x873
 6549 08cd 08       		.uleb128 0x8
 6550 08ce 731B0000 		.4byte	.LASF154
 6551 08d2 04       		.byte	0x4
 6552 08d3 08       		.byte	0x8
 6553 08d4 4A       		.byte	0x4a
 6554 08d5 E6080000 		.4byte	0x8e6
 6555 08d9 0B       		.uleb128 0xb
 6556 08da DC0C0000 		.4byte	.LASF155
 6557 08de 08       		.byte	0x8
 6558 08df 4B       		.byte	0x4b
 6559 08e0 C7080000 		.4byte	0x8c7
 6560 08e4 00       		.byte	0
 6561 08e5 00       		.byte	0
 6562 08e6 03       		.uleb128 0x3
 6563 08e7 1A110000 		.4byte	.LASF156
 6564 08eb 08       		.byte	0x8
 6565 08ec 4E       		.byte	0x4e
 6566 08ed CD080000 		.4byte	0x8cd
 6567 08f1 03       		.uleb128 0x3
 6568 08f2 E2190000 		.4byte	.LASF157
 6569 08f6 08       		.byte	0x8
 6570 08f7 53       		.byte	0x53
 6571 08f8 01090000 		.4byte	0x901
 6572 08fc 07       		.uleb128 0x7
 6573 08fd F1080000 		.4byte	0x8f1
 6574 0901 0E       		.uleb128 0xe
 6575 0902 04       		.byte	0x4
 6576 0903 07090000 		.4byte	0x907
 6577 0907 10       		.uleb128 0x10
 6578 0908 12090000 		.4byte	0x912
 6579 090c 11       		.uleb128 0x11
 6580 090d 31010000 		.4byte	0x131
 6581 0911 00       		.byte	0
 6582 0912 05       		.uleb128 0x5
 6583 0913 01       		.byte	0x1
 6584 0914 02       		.byte	0x2
ARM GAS  /tmp/ccvPPVYB.s 			page 117


 6585 0915 3C140000 		.4byte	.LASF158
 6586 0919 03       		.uleb128 0x3
 6587 091a 41140000 		.4byte	.LASF159
 6588 091e 18       		.byte	0x18
 6589 091f 34       		.byte	0x34
 6590 0920 24090000 		.4byte	0x924
 6591 0924 0E       		.uleb128 0xe
 6592 0925 04       		.byte	0x4
 6593 0926 2A090000 		.4byte	0x92a
 6594 092a 1C       		.uleb128 0x1c
 6595 092b B1030000 		.4byte	0x3b1
 6596 092f 39090000 		.4byte	0x939
 6597 0933 11       		.uleb128 0x11
 6598 0934 2C000000 		.4byte	0x2c
 6599 0938 00       		.byte	0
 6600 0939 08       		.uleb128 0x8
 6601 093a AD0E0000 		.4byte	.LASF160
 6602 093e 04       		.byte	0x4
 6603 093f 19       		.byte	0x19
 6604 0940 38       		.byte	0x38
 6605 0941 52090000 		.4byte	0x952
 6606 0945 0B       		.uleb128 0xb
 6607 0946 29110000 		.4byte	.LASF161
 6608 094a 19       		.byte	0x19
 6609 094b 39       		.byte	0x39
 6610 094c 52090000 		.4byte	0x952
 6611 0950 00       		.byte	0
 6612 0951 00       		.byte	0
 6613 0952 0E       		.uleb128 0xe
 6614 0953 04       		.byte	0x4
 6615 0954 39090000 		.4byte	0x939
 6616 0958 17       		.uleb128 0x17
 6617 0959 0C       		.byte	0xc
 6618 095a 19       		.byte	0x19
 6619 095b 40       		.byte	0x40
 6620 095c B7080000 		.4byte	.LASF162
 6621 0960 89090000 		.4byte	0x989
 6622 0964 0B       		.uleb128 0xb
 6623 0965 2D210000 		.4byte	.LASF163
 6624 0969 19       		.byte	0x19
 6625 096a 41       		.byte	0x41
 6626 096b 52090000 		.4byte	0x952
 6627 096f 00       		.byte	0
 6628 0970 0B       		.uleb128 0xb
 6629 0971 6F1D0000 		.4byte	.LASF164
 6630 0975 19       		.byte	0x19
 6631 0976 42       		.byte	0x42
 6632 0977 2C000000 		.4byte	0x2c
 6633 097b 04       		.byte	0x4
 6634 097c 0B       		.uleb128 0xb
 6635 097d 59220000 		.4byte	.LASF165
 6636 0981 19       		.byte	0x19
 6637 0982 44       		.byte	0x44
 6638 0983 19090000 		.4byte	0x919
 6639 0987 08       		.byte	0x8
 6640 0988 00       		.byte	0
 6641 0989 03       		.uleb128 0x3
ARM GAS  /tmp/ccvPPVYB.s 			page 118


 6642 098a E7180000 		.4byte	.LASF166
 6643 098e 19       		.byte	0x19
 6644 098f 46       		.byte	0x46
 6645 0990 58090000 		.4byte	0x958
 6646 0994 03       		.uleb128 0x3
 6647 0995 081D0000 		.4byte	.LASF167
 6648 0999 0A       		.byte	0xa
 6649 099a 3F       		.byte	0x3f
 6650 099b 9F090000 		.4byte	0x99f
 6651 099f 08       		.uleb128 0x8
 6652 09a0 55060000 		.4byte	.LASF168
 6653 09a4 24       		.byte	0x24
 6654 09a5 0A       		.byte	0xa
 6655 09a6 4D       		.byte	0x4d
 6656 09a7 0C0A0000 		.4byte	0xa0c
 6657 09ab 0B       		.uleb128 0xb
 6658 09ac 0F190000 		.4byte	.LASF169
 6659 09b0 0A       		.byte	0xa
 6660 09b1 4E       		.byte	0x4e
 6661 09b2 FE020000 		.4byte	0x2fe
 6662 09b6 00       		.byte	0
 6663 09b7 0B       		.uleb128 0xb
 6664 09b8 E40C0000 		.4byte	.LASF170
 6665 09bc 0A       		.byte	0xa
 6666 09bd 4F       		.byte	0x4f
 6667 09be 37000000 		.4byte	0x37
 6668 09c2 08       		.byte	0x8
 6669 09c3 0B       		.uleb128 0xb
 6670 09c4 83040000 		.4byte	.LASF171
 6671 09c8 0A       		.byte	0xa
 6672 09c9 50       		.byte	0x50
 6673 09ca 2E0A0000 		.4byte	0xa2e
 6674 09ce 0C       		.byte	0xc
 6675 09cf 0B       		.uleb128 0xb
 6676 09d0 46040000 		.4byte	.LASF172
 6677 09d4 0A       		.byte	0xa
 6678 09d5 51       		.byte	0x51
 6679 09d6 2E0A0000 		.4byte	0xa2e
 6680 09da 10       		.byte	0x10
 6681 09db 0B       		.uleb128 0xb
 6682 09dc 920E0000 		.4byte	.LASF173
 6683 09e0 0A       		.byte	0xa
 6684 09e1 53       		.byte	0x53
 6685 09e2 2E0A0000 		.4byte	0xa2e
 6686 09e6 14       		.byte	0x14
 6687 09e7 0B       		.uleb128 0xb
 6688 09e8 3D050000 		.4byte	.LASF174
 6689 09ec 0A       		.byte	0xa
 6690 09ed 54       		.byte	0x54
 6691 09ee 2E0A0000 		.4byte	0xa2e
 6692 09f2 18       		.byte	0x18
 6693 09f3 0B       		.uleb128 0xb
 6694 09f4 B5040000 		.4byte	.LASF175
 6695 09f8 0A       		.byte	0xa
 6696 09f9 55       		.byte	0x55
 6697 09fa 0C0A0000 		.4byte	0xa0c
 6698 09fe 1C       		.byte	0x1c
ARM GAS  /tmp/ccvPPVYB.s 			page 119


 6699 09ff 0B       		.uleb128 0xb
 6700 0a00 D1070000 		.4byte	.LASF176
 6701 0a04 0A       		.byte	0xa
 6702 0a05 56       		.byte	0x56
 6703 0a06 B1030000 		.4byte	0x3b1
 6704 0a0a 20       		.byte	0x20
 6705 0a0b 00       		.byte	0
 6706 0a0c 03       		.uleb128 0x3
 6707 0a0d CF110000 		.4byte	.LASF177
 6708 0a11 0A       		.byte	0xa
 6709 0a12 42       		.byte	0x42
 6710 0a13 170A0000 		.4byte	0xa17
 6711 0a17 0E       		.uleb128 0xe
 6712 0a18 04       		.byte	0x4
 6713 0a19 1D0A0000 		.4byte	0xa1d
 6714 0a1d 10       		.uleb128 0x10
 6715 0a1e 280A0000 		.4byte	0xa28
 6716 0a22 11       		.uleb128 0x11
 6717 0a23 280A0000 		.4byte	0xa28
 6718 0a27 00       		.byte	0
 6719 0a28 0E       		.uleb128 0xe
 6720 0a29 04       		.byte	0x4
 6721 0a2a 94090000 		.4byte	0x994
 6722 0a2e 0E       		.uleb128 0xe
 6723 0a2f 04       		.byte	0x4
 6724 0a30 BE000000 		.4byte	0xbe
 6725 0a34 03       		.uleb128 0x3
 6726 0a35 A11F0000 		.4byte	.LASF178
 6727 0a39 0A       		.byte	0xa
 6728 0a3a 64       		.byte	0x64
 6729 0a3b 94090000 		.4byte	0x994
 6730 0a3f 03       		.uleb128 0x3
 6731 0a40 13210000 		.4byte	.LASF179
 6732 0a44 0A       		.byte	0xa
 6733 0a45 71       		.byte	0x71
 6734 0a46 94090000 		.4byte	0x994
 6735 0a4a 0E       		.uleb128 0xe
 6736 0a4b 04       		.byte	0x4
 6737 0a4c C9000000 		.4byte	0xc9
 6738 0a50 1D       		.uleb128 0x1d
 6739 0a51 E2060000 		.4byte	.LASF450
 6740 0a55 0B       		.byte	0xb
 6741 0a56 21       		.byte	0x21
 6742 0a57 FE180000 		.4byte	0x18fe
 6743 0a5b 1E       		.uleb128 0x1e
 6744 0a5c 00000000 		.4byte	.LASF184
 6745 0a60 0C       		.byte	0xc
 6746 0a61 0B       		.byte	0xb
 6747 0a62 9803     		.2byte	0x398
 6748 0a64 F20B0000 		.4byte	0xbf2
 6749 0a68 1F       		.uleb128 0x1f
 6750 0a69 73656D00 		.ascii	"sem\000"
 6751 0a6d 0B       		.byte	0xb
 6752 0a6e 9D03     		.2byte	0x39d
 6753 0a70 0F080000 		.4byte	0x80f
 6754 0a74 00       		.byte	0
 6755 0a75 01       		.byte	0x1
ARM GAS  /tmp/ccvPPVYB.s 			page 120


 6756 0a76 20       		.uleb128 0x20
 6757 0a77 00000000 		.4byte	.LASF184
 6758 0a7b 0B       		.byte	0xb
 6759 0a7c A803     		.2byte	0x3a8
 6760 0a7e F8210000 		.4byte	.LASF186
 6761 0a82 FE180000 		.4byte	0x18fe
 6762 0a86 01       		.byte	0x1
 6763 0a87 8F0A0000 		.4byte	0xa8f
 6764 0a8b 9A0A0000 		.4byte	0xa9a
 6765 0a8f 21       		.uleb128 0x21
 6766 0a90 FE180000 		.4byte	0x18fe
 6767 0a94 11       		.uleb128 0x11
 6768 0a95 52010000 		.4byte	0x152
 6769 0a99 00       		.byte	0
 6770 0a9a 22       		.uleb128 0x22
 6771 0a9b 771A0000 		.4byte	.LASF180
 6772 0a9f 0B       		.byte	0xb
 6773 0aa0 B803     		.2byte	0x3b8
 6774 0aa2 430D0000 		.4byte	.LASF182
 6775 0aa6 01       		.byte	0x1
 6776 0aa7 AF0A0000 		.4byte	0xaaf
 6777 0aab BA0A0000 		.4byte	0xaba
 6778 0aaf 21       		.uleb128 0x21
 6779 0ab0 FE180000 		.4byte	0x18fe
 6780 0ab4 11       		.uleb128 0x11
 6781 0ab5 52010000 		.4byte	0x152
 6782 0ab9 00       		.byte	0
 6783 0aba 22       		.uleb128 0x22
 6784 0abb D2040000 		.4byte	.LASF181
 6785 0abf 0B       		.byte	0xb
 6786 0ac0 CC03     		.2byte	0x3cc
 6787 0ac2 B8090000 		.4byte	.LASF183
 6788 0ac6 01       		.byte	0x1
 6789 0ac7 CF0A0000 		.4byte	0xacf
 6790 0acb DA0A0000 		.4byte	0xada
 6791 0acf 21       		.uleb128 0x21
 6792 0ad0 FE180000 		.4byte	0x18fe
 6793 0ad4 11       		.uleb128 0x11
 6794 0ad5 52010000 		.4byte	0x152
 6795 0ad9 00       		.byte	0
 6796 0ada 20       		.uleb128 0x20
 6797 0adb CA110000 		.4byte	.LASF185
 6798 0adf 0B       		.byte	0xb
 6799 0ae0 DA03     		.2byte	0x3da
 6800 0ae2 F0080000 		.4byte	.LASF187
 6801 0ae6 26010000 		.4byte	0x126
 6802 0aea 01       		.byte	0x1
 6803 0aeb F30A0000 		.4byte	0xaf3
 6804 0aef F90A0000 		.4byte	0xaf9
 6805 0af3 21       		.uleb128 0x21
 6806 0af4 FE180000 		.4byte	0x18fe
 6807 0af8 00       		.byte	0
 6808 0af9 20       		.uleb128 0x20
 6809 0afa A70E0000 		.4byte	.LASF188
 6810 0afe 0B       		.byte	0xb
 6811 0aff E803     		.2byte	0x3e8
 6812 0b01 8F0B0000 		.4byte	.LASF189
ARM GAS  /tmp/ccvPPVYB.s 			page 121


 6813 0b05 26010000 		.4byte	0x126
 6814 0b09 01       		.byte	0x1
 6815 0b0a 120B0000 		.4byte	0xb12
 6816 0b0e 180B0000 		.4byte	0xb18
 6817 0b12 21       		.uleb128 0x21
 6818 0b13 FE180000 		.4byte	0x18fe
 6819 0b17 00       		.byte	0
 6820 0b18 20       		.uleb128 0x20
 6821 0b19 CA110000 		.4byte	.LASF185
 6822 0b1d 0B       		.byte	0xb
 6823 0b1e FE03     		.2byte	0x3fe
 6824 0b20 C7080000 		.4byte	.LASF190
 6825 0b24 26010000 		.4byte	0x126
 6826 0b28 01       		.byte	0x1
 6827 0b29 310B0000 		.4byte	0xb31
 6828 0b2d 3C0B0000 		.4byte	0xb3c
 6829 0b31 21       		.uleb128 0x21
 6830 0b32 FE180000 		.4byte	0x18fe
 6831 0b36 11       		.uleb128 0x11
 6832 0b37 5D010000 		.4byte	0x15d
 6833 0b3b 00       		.byte	0
 6834 0b3c 20       		.uleb128 0x20
 6835 0b3d A70E0000 		.4byte	.LASF188
 6836 0b41 0B       		.byte	0xb
 6837 0b42 1404     		.2byte	0x414
 6838 0b44 650B0000 		.4byte	.LASF191
 6839 0b48 26010000 		.4byte	0x126
 6840 0b4c 01       		.byte	0x1
 6841 0b4d 550B0000 		.4byte	0xb55
 6842 0b51 600B0000 		.4byte	0xb60
 6843 0b55 21       		.uleb128 0x21
 6844 0b56 FE180000 		.4byte	0x18fe
 6845 0b5a 11       		.uleb128 0x11
 6846 0b5b 5D010000 		.4byte	0x15d
 6847 0b5f 00       		.byte	0
 6848 0b60 22       		.uleb128 0x22
 6849 0b61 840A0000 		.4byte	.LASF192
 6850 0b65 0B       		.byte	0xb
 6851 0b66 1B04     		.2byte	0x41b
 6852 0b68 D90F0000 		.4byte	.LASF193
 6853 0b6c 01       		.byte	0x1
 6854 0b6d 750B0000 		.4byte	0xb75
 6855 0b71 7B0B0000 		.4byte	0xb7b
 6856 0b75 21       		.uleb128 0x21
 6857 0b76 FE180000 		.4byte	0x18fe
 6858 0b7a 00       		.byte	0
 6859 0b7b 22       		.uleb128 0x22
 6860 0b7c 221C0000 		.4byte	.LASF194
 6861 0b80 0B       		.byte	0xb
 6862 0b81 2604     		.2byte	0x426
 6863 0b83 5F100000 		.4byte	.LASF195
 6864 0b87 01       		.byte	0x1
 6865 0b88 900B0000 		.4byte	0xb90
 6866 0b8c 960B0000 		.4byte	0xb96
 6867 0b90 21       		.uleb128 0x21
 6868 0b91 FE180000 		.4byte	0x18fe
 6869 0b95 00       		.byte	0
ARM GAS  /tmp/ccvPPVYB.s 			page 122


 6870 0b96 22       		.uleb128 0x22
 6871 0b97 03110000 		.4byte	.LASF196
 6872 0b9b 0B       		.byte	0xb
 6873 0b9c 3404     		.2byte	0x434
 6874 0b9e D21F0000 		.4byte	.LASF197
 6875 0ba2 01       		.byte	0x1
 6876 0ba3 AB0B0000 		.4byte	0xbab
 6877 0ba7 B60B0000 		.4byte	0xbb6
 6878 0bab 21       		.uleb128 0x21
 6879 0bac FE180000 		.4byte	0x18fe
 6880 0bb0 11       		.uleb128 0x11
 6881 0bb1 52010000 		.4byte	0x152
 6882 0bb5 00       		.byte	0
 6883 0bb6 20       		.uleb128 0x20
 6884 0bb7 080E0000 		.4byte	.LASF198
 6885 0bbb 0B       		.byte	0xb
 6886 0bbc 3D04     		.2byte	0x43d
 6887 0bbe D61A0000 		.4byte	.LASF199
 6888 0bc2 52010000 		.4byte	0x152
 6889 0bc6 01       		.byte	0x1
 6890 0bc7 CF0B0000 		.4byte	0xbcf
 6891 0bcb D50B0000 		.4byte	0xbd5
 6892 0bcf 21       		.uleb128 0x21
 6893 0bd0 FE180000 		.4byte	0x18fe
 6894 0bd4 00       		.byte	0
 6895 0bd5 23       		.uleb128 0x23
 6896 0bd6 C60C0000 		.4byte	.LASF226
 6897 0bda 0B       		.byte	0xb
 6898 0bdb 4D04     		.2byte	0x44d
 6899 0bdd 1F060000 		.4byte	.LASF228
 6900 0be1 26010000 		.4byte	0x126
 6901 0be5 01       		.byte	0x1
 6902 0be6 11       		.uleb128 0x11
 6903 0be7 FE180000 		.4byte	0x18fe
 6904 0beb 11       		.uleb128 0x11
 6905 0bec FE180000 		.4byte	0x18fe
 6906 0bf0 00       		.byte	0
 6907 0bf1 00       		.byte	0
 6908 0bf2 1E       		.uleb128 0x1e
 6909 0bf3 F5180000 		.4byte	.LASF200
 6910 0bf7 0C       		.byte	0xc
 6911 0bf8 0B       		.byte	0xb
 6912 0bf9 5604     		.2byte	0x456
 6913 0bfb 490D0000 		.4byte	0xd49
 6914 0bff 24       		.uleb128 0x24
 6915 0c00 DF030000 		.4byte	.LASF201
 6916 0c04 0B       		.byte	0xb
 6917 0c05 5B04     		.2byte	0x45b
 6918 0c07 33080000 		.4byte	0x833
 6919 0c0b 00       		.byte	0
 6920 0c0c 01       		.byte	0x1
 6921 0c0d 20       		.uleb128 0x20
 6922 0c0e F5180000 		.4byte	.LASF200
 6923 0c12 0B       		.byte	0xb
 6924 0c13 6804     		.2byte	0x468
 6925 0c15 F8120000 		.4byte	.LASF202
 6926 0c19 09190000 		.4byte	0x1909
ARM GAS  /tmp/ccvPPVYB.s 			page 123


 6927 0c1d 01       		.byte	0x1
 6928 0c1e 260C0000 		.4byte	0xc26
 6929 0c22 310C0000 		.4byte	0xc31
 6930 0c26 21       		.uleb128 0x21
 6931 0c27 09190000 		.4byte	0x1909
 6932 0c2b 11       		.uleb128 0x11
 6933 0c2c 12090000 		.4byte	0x912
 6934 0c30 00       		.byte	0
 6935 0c31 20       		.uleb128 0x20
 6936 0c32 CA110000 		.4byte	.LASF185
 6937 0c36 0B       		.byte	0xb
 6938 0c37 7604     		.2byte	0x476
 6939 0c39 8D030000 		.4byte	.LASF203
 6940 0c3d 26010000 		.4byte	0x126
 6941 0c41 01       		.byte	0x1
 6942 0c42 4A0C0000 		.4byte	0xc4a
 6943 0c46 500C0000 		.4byte	0xc50
 6944 0c4a 21       		.uleb128 0x21
 6945 0c4b 09190000 		.4byte	0x1909
 6946 0c4f 00       		.byte	0
 6947 0c50 20       		.uleb128 0x20
 6948 0c51 A70E0000 		.4byte	.LASF188
 6949 0c55 0B       		.byte	0xb
 6950 0c56 8404     		.2byte	0x484
 6951 0c58 F4170000 		.4byte	.LASF204
 6952 0c5c 26010000 		.4byte	0x126
 6953 0c60 01       		.byte	0x1
 6954 0c61 690C0000 		.4byte	0xc69
 6955 0c65 6F0C0000 		.4byte	0xc6f
 6956 0c69 21       		.uleb128 0x21
 6957 0c6a 09190000 		.4byte	0x1909
 6958 0c6e 00       		.byte	0
 6959 0c6f 20       		.uleb128 0x20
 6960 0c70 CA110000 		.4byte	.LASF185
 6961 0c74 0B       		.byte	0xb
 6962 0c75 9904     		.2byte	0x499
 6963 0c77 65030000 		.4byte	.LASF205
 6964 0c7b 26010000 		.4byte	0x126
 6965 0c7f 01       		.byte	0x1
 6966 0c80 880C0000 		.4byte	0xc88
 6967 0c84 930C0000 		.4byte	0xc93
 6968 0c88 21       		.uleb128 0x21
 6969 0c89 09190000 		.4byte	0x1909
 6970 0c8d 11       		.uleb128 0x11
 6971 0c8e 5D010000 		.4byte	0x15d
 6972 0c92 00       		.byte	0
 6973 0c93 20       		.uleb128 0x20
 6974 0c94 A70E0000 		.4byte	.LASF188
 6975 0c98 0B       		.byte	0xb
 6976 0c99 AE04     		.2byte	0x4ae
 6977 0c9b 83020000 		.4byte	.LASF206
 6978 0c9f 26010000 		.4byte	0x126
 6979 0ca3 01       		.byte	0x1
 6980 0ca4 AC0C0000 		.4byte	0xcac
 6981 0ca8 B70C0000 		.4byte	0xcb7
 6982 0cac 21       		.uleb128 0x21
 6983 0cad 09190000 		.4byte	0x1909
ARM GAS  /tmp/ccvPPVYB.s 			page 124


 6984 0cb1 11       		.uleb128 0x11
 6985 0cb2 5D010000 		.4byte	0x15d
 6986 0cb6 00       		.byte	0
 6987 0cb7 22       		.uleb128 0x22
 6988 0cb8 771A0000 		.4byte	.LASF180
 6989 0cbc 0B       		.byte	0xb
 6990 0cbd BD04     		.2byte	0x4bd
 6991 0cbf 8C040000 		.4byte	.LASF207
 6992 0cc3 01       		.byte	0x1
 6993 0cc4 CC0C0000 		.4byte	0xccc
 6994 0cc8 D70C0000 		.4byte	0xcd7
 6995 0ccc 21       		.uleb128 0x21
 6996 0ccd 09190000 		.4byte	0x1909
 6997 0cd1 11       		.uleb128 0x11
 6998 0cd2 12090000 		.4byte	0x912
 6999 0cd6 00       		.byte	0
 7000 0cd7 22       		.uleb128 0x22
 7001 0cd8 D2040000 		.4byte	.LASF181
 7002 0cdc 0B       		.byte	0xb
 7003 0cdd CD04     		.2byte	0x4cd
 7004 0cdf B5030000 		.4byte	.LASF208
 7005 0ce3 01       		.byte	0x1
 7006 0ce4 EC0C0000 		.4byte	0xcec
 7007 0ce8 F70C0000 		.4byte	0xcf7
 7008 0cec 21       		.uleb128 0x21
 7009 0ced 09190000 		.4byte	0x1909
 7010 0cf1 11       		.uleb128 0x11
 7011 0cf2 12090000 		.4byte	0x912
 7012 0cf6 00       		.byte	0
 7013 0cf7 22       		.uleb128 0x22
 7014 0cf8 840A0000 		.4byte	.LASF192
 7015 0cfc 0B       		.byte	0xb
 7016 0cfd D404     		.2byte	0x4d4
 7017 0cff 801B0000 		.4byte	.LASF209
 7018 0d03 01       		.byte	0x1
 7019 0d04 0C0D0000 		.4byte	0xd0c
 7020 0d08 120D0000 		.4byte	0xd12
 7021 0d0c 21       		.uleb128 0x21
 7022 0d0d 09190000 		.4byte	0x1909
 7023 0d11 00       		.byte	0
 7024 0d12 22       		.uleb128 0x22
 7025 0d13 221C0000 		.4byte	.LASF194
 7026 0d17 0B       		.byte	0xb
 7027 0d18 DC04     		.2byte	0x4dc
 7028 0d1a C9160000 		.4byte	.LASF210
 7029 0d1e 01       		.byte	0x1
 7030 0d1f 270D0000 		.4byte	0xd27
 7031 0d23 2D0D0000 		.4byte	0xd2d
 7032 0d27 21       		.uleb128 0x21
 7033 0d28 09190000 		.4byte	0x1909
 7034 0d2c 00       		.byte	0
 7035 0d2d 25       		.uleb128 0x25
 7036 0d2e 591D0000 		.4byte	.LASF211
 7037 0d32 0B       		.byte	0xb
 7038 0d33 E704     		.2byte	0x4e7
 7039 0d35 4E140000 		.4byte	.LASF212
 7040 0d39 12090000 		.4byte	0x912
ARM GAS  /tmp/ccvPPVYB.s 			page 125


 7041 0d3d 01       		.byte	0x1
 7042 0d3e 420D0000 		.4byte	0xd42
 7043 0d42 21       		.uleb128 0x21
 7044 0d43 09190000 		.4byte	0x1909
 7045 0d47 00       		.byte	0
 7046 0d48 00       		.byte	0
 7047 0d49 1E       		.uleb128 0x1e
 7048 0d4a C50F0000 		.4byte	.LASF213
 7049 0d4e 10       		.byte	0x10
 7050 0d4f 0B       		.byte	0xb
 7051 0d50 F204     		.2byte	0x4f2
 7052 0d52 2A0E0000 		.4byte	0xe2a
 7053 0d56 24       		.uleb128 0x24
 7054 0d57 51110000 		.4byte	.LASF214
 7055 0d5b 0B       		.byte	0xb
 7056 0d5c F704     		.2byte	0x4f7
 7057 0d5e 3E080000 		.4byte	0x83e
 7058 0d62 00       		.byte	0
 7059 0d63 01       		.byte	0x1
 7060 0d64 20       		.uleb128 0x20
 7061 0d65 C50F0000 		.4byte	.LASF213
 7062 0d69 0B       		.byte	0xb
 7063 0d6a FF04     		.2byte	0x4ff
 7064 0d6c B31D0000 		.4byte	.LASF215
 7065 0d70 14190000 		.4byte	0x1914
 7066 0d74 01       		.byte	0x1
 7067 0d75 7D0D0000 		.4byte	0xd7d
 7068 0d79 830D0000 		.4byte	0xd83
 7069 0d7d 21       		.uleb128 0x21
 7070 0d7e 14190000 		.4byte	0x1914
 7071 0d82 00       		.byte	0
 7072 0d83 20       		.uleb128 0x20
 7073 0d84 A0210000 		.4byte	.LASF216
 7074 0d88 0B       		.byte	0xb
 7075 0d89 1205     		.2byte	0x512
 7076 0d8b B61A0000 		.4byte	.LASF217
 7077 0d8f 12090000 		.4byte	0x912
 7078 0d93 01       		.byte	0x1
 7079 0d94 9C0D0000 		.4byte	0xd9c
 7080 0d98 A20D0000 		.4byte	0xda2
 7081 0d9c 21       		.uleb128 0x21
 7082 0d9d 14190000 		.4byte	0x1914
 7083 0da1 00       		.byte	0
 7084 0da2 20       		.uleb128 0x20
 7085 0da3 B5070000 		.4byte	.LASF218
 7086 0da7 0B       		.byte	0xb
 7087 0da8 2505     		.2byte	0x525
 7088 0daa 920A0000 		.4byte	.LASF219
 7089 0dae 12090000 		.4byte	0x912
 7090 0db2 01       		.byte	0x1
 7091 0db3 BB0D0000 		.4byte	0xdbb
 7092 0db7 C10D0000 		.4byte	0xdc1
 7093 0dbb 21       		.uleb128 0x21
 7094 0dbc 14190000 		.4byte	0x1914
 7095 0dc0 00       		.byte	0
 7096 0dc1 22       		.uleb128 0x22
 7097 0dc2 72220000 		.4byte	.LASF220
ARM GAS  /tmp/ccvPPVYB.s 			page 126


 7098 0dc6 0B       		.byte	0xb
 7099 0dc7 2E05     		.2byte	0x52e
 7100 0dc9 1C1A0000 		.4byte	.LASF221
 7101 0dcd 01       		.byte	0x1
 7102 0dce D60D0000 		.4byte	0xdd6
 7103 0dd2 DC0D0000 		.4byte	0xddc
 7104 0dd6 21       		.uleb128 0x21
 7105 0dd7 14190000 		.4byte	0x1914
 7106 0ddb 00       		.byte	0
 7107 0ddc 22       		.uleb128 0x22
 7108 0ddd 5A040000 		.4byte	.LASF222
 7109 0de1 0B       		.byte	0xb
 7110 0de2 3705     		.2byte	0x537
 7111 0de4 3F150000 		.4byte	.LASF223
 7112 0de8 01       		.byte	0x1
 7113 0de9 F10D0000 		.4byte	0xdf1
 7114 0ded F70D0000 		.4byte	0xdf7
 7115 0df1 21       		.uleb128 0x21
 7116 0df2 14190000 		.4byte	0x1914
 7117 0df6 00       		.byte	0
 7118 0df7 22       		.uleb128 0x22
 7119 0df8 4B1D0000 		.4byte	.LASF224
 7120 0dfc 0B       		.byte	0xb
 7121 0dfd 4105     		.2byte	0x541
 7122 0dff CB000000 		.4byte	.LASF225
 7123 0e03 01       		.byte	0x1
 7124 0e04 0C0E0000 		.4byte	0xe0c
 7125 0e08 120E0000 		.4byte	0xe12
 7126 0e0c 21       		.uleb128 0x21
 7127 0e0d 14190000 		.4byte	0x1914
 7128 0e11 00       		.byte	0
 7129 0e12 26       		.uleb128 0x26
 7130 0e13 AE180000 		.4byte	.LASF227
 7131 0e17 0B       		.byte	0xb
 7132 0e18 4D05     		.2byte	0x54d
 7133 0e1a 85150000 		.4byte	.LASF229
 7134 0e1e 01       		.byte	0x1
 7135 0e1f 230E0000 		.4byte	0xe23
 7136 0e23 21       		.uleb128 0x21
 7137 0e24 14190000 		.4byte	0x1914
 7138 0e28 00       		.byte	0
 7139 0e29 00       		.byte	0
 7140 0e2a 1E       		.uleb128 0x1e
 7141 0e2b E4030000 		.4byte	.LASF230
 7142 0e2f 08       		.byte	0x8
 7143 0e30 0B       		.byte	0xb
 7144 0e31 5705     		.2byte	0x557
 7145 0e33 2F0F0000 		.4byte	0xf2f
 7146 0e37 24       		.uleb128 0x24
 7147 0e38 471B0000 		.4byte	.LASF231
 7148 0e3c 0B       		.byte	0xb
 7149 0e3d 5C05     		.2byte	0x55c
 7150 0e3f 68080000 		.4byte	0x868
 7151 0e43 00       		.byte	0
 7152 0e44 01       		.byte	0x1
 7153 0e45 20       		.uleb128 0x20
 7154 0e46 E4030000 		.4byte	.LASF230
ARM GAS  /tmp/ccvPPVYB.s 			page 127


 7155 0e4a 0B       		.byte	0xb
 7156 0e4b 6405     		.2byte	0x564
 7157 0e4d E21E0000 		.4byte	.LASF232
 7158 0e51 1F190000 		.4byte	0x191f
 7159 0e55 01       		.byte	0x1
 7160 0e56 5E0E0000 		.4byte	0xe5e
 7161 0e5a 640E0000 		.4byte	0xe64
 7162 0e5e 21       		.uleb128 0x21
 7163 0e5f 1F190000 		.4byte	0x191f
 7164 0e63 00       		.byte	0
 7165 0e64 22       		.uleb128 0x22
 7166 0e65 840A0000 		.4byte	.LASF192
 7167 0e69 0B       		.byte	0xb
 7168 0e6a 6B05     		.2byte	0x56b
 7169 0e6c 411F0000 		.4byte	.LASF233
 7170 0e70 01       		.byte	0x1
 7171 0e71 790E0000 		.4byte	0xe79
 7172 0e75 7F0E0000 		.4byte	0xe7f
 7173 0e79 21       		.uleb128 0x21
 7174 0e7a 1F190000 		.4byte	0x191f
 7175 0e7e 00       		.byte	0
 7176 0e7f 22       		.uleb128 0x22
 7177 0e80 221C0000 		.4byte	.LASF194
 7178 0e84 0B       		.byte	0xb
 7179 0e85 7605     		.2byte	0x576
 7180 0e87 6A060000 		.4byte	.LASF234
 7181 0e8b 01       		.byte	0x1
 7182 0e8c 940E0000 		.4byte	0xe94
 7183 0e90 9A0E0000 		.4byte	0xe9a
 7184 0e94 21       		.uleb128 0x21
 7185 0e95 1F190000 		.4byte	0x191f
 7186 0e99 00       		.byte	0
 7187 0e9a 22       		.uleb128 0x22
 7188 0e9b 50070000 		.4byte	.LASF235
 7189 0e9f 0B       		.byte	0xb
 7190 0ea0 7D05     		.2byte	0x57d
 7191 0ea2 DA140000 		.4byte	.LASF236
 7192 0ea6 01       		.byte	0x1
 7193 0ea7 AF0E0000 		.4byte	0xeaf
 7194 0eab B50E0000 		.4byte	0xeb5
 7195 0eaf 21       		.uleb128 0x21
 7196 0eb0 1F190000 		.4byte	0x191f
 7197 0eb4 00       		.byte	0
 7198 0eb5 22       		.uleb128 0x22
 7199 0eb6 1E1B0000 		.4byte	.LASF237
 7200 0eba 0B       		.byte	0xb
 7201 0ebb 8805     		.2byte	0x588
 7202 0ebd 1B0A0000 		.4byte	.LASF238
 7203 0ec1 01       		.byte	0x1
 7204 0ec2 CA0E0000 		.4byte	0xeca
 7205 0ec6 D00E0000 		.4byte	0xed0
 7206 0eca 21       		.uleb128 0x21
 7207 0ecb 1F190000 		.4byte	0x191f
 7208 0ecf 00       		.byte	0
 7209 0ed0 20       		.uleb128 0x20
 7210 0ed1 CA110000 		.4byte	.LASF185
 7211 0ed5 0B       		.byte	0xb
ARM GAS  /tmp/ccvPPVYB.s 			page 128


 7212 0ed6 9A05     		.2byte	0x59a
 7213 0ed8 76110000 		.4byte	.LASF239
 7214 0edc 26010000 		.4byte	0x126
 7215 0ee0 01       		.byte	0x1
 7216 0ee1 E90E0000 		.4byte	0xee9
 7217 0ee5 EF0E0000 		.4byte	0xeef
 7218 0ee9 21       		.uleb128 0x21
 7219 0eea 1F190000 		.4byte	0x191f
 7220 0eee 00       		.byte	0
 7221 0eef 20       		.uleb128 0x20
 7222 0ef0 A70E0000 		.4byte	.LASF188
 7223 0ef4 0B       		.byte	0xb
 7224 0ef5 AC05     		.2byte	0x5ac
 7225 0ef7 F70C0000 		.4byte	.LASF240
 7226 0efb 26010000 		.4byte	0x126
 7227 0eff 01       		.byte	0x1
 7228 0f00 080F0000 		.4byte	0xf08
 7229 0f04 0E0F0000 		.4byte	0xf0e
 7230 0f08 21       		.uleb128 0x21
 7231 0f09 1F190000 		.4byte	0x191f
 7232 0f0d 00       		.byte	0
 7233 0f0e 25       		.uleb128 0x25
 7234 0f0f CA110000 		.4byte	.LASF185
 7235 0f13 0B       		.byte	0xb
 7236 0f14 BD05     		.2byte	0x5bd
 7237 0f16 57110000 		.4byte	.LASF241
 7238 0f1a 26010000 		.4byte	0x126
 7239 0f1e 01       		.byte	0x1
 7240 0f1f 230F0000 		.4byte	0xf23
 7241 0f23 21       		.uleb128 0x21
 7242 0f24 1F190000 		.4byte	0x191f
 7243 0f28 11       		.uleb128 0x11
 7244 0f29 5D010000 		.4byte	0x15d
 7245 0f2d 00       		.byte	0
 7246 0f2e 00       		.byte	0
 7247 0f2f 1E       		.uleb128 0x1e
 7248 0f30 AC090000 		.4byte	.LASF242
 7249 0f34 14       		.byte	0x14
 7250 0f35 0B       		.byte	0xb
 7251 0f36 CA05     		.2byte	0x5ca
 7252 0f38 850F0000 		.4byte	0xf85
 7253 0f3c 24       		.uleb128 0x24
 7254 0f3d 631D0000 		.4byte	.LASF243
 7255 0f41 0B       		.byte	0xb
 7256 0f42 CF05     		.2byte	0x5cf
 7257 0f44 73080000 		.4byte	0x873
 7258 0f48 00       		.byte	0
 7259 0f49 01       		.byte	0x1
 7260 0f4a 20       		.uleb128 0x20
 7261 0f4b D10A0000 		.4byte	.LASF244
 7262 0f4f 0B       		.byte	0xb
 7263 0f50 D905     		.2byte	0x5d9
 7264 0f52 B6180000 		.4byte	.LASF245
 7265 0f56 47010000 		.4byte	0x147
 7266 0f5a 01       		.byte	0x1
 7267 0f5b 630F0000 		.4byte	0xf63
 7268 0f5f 690F0000 		.4byte	0xf69
ARM GAS  /tmp/ccvPPVYB.s 			page 129


 7269 0f63 21       		.uleb128 0x21
 7270 0f64 2A190000 		.4byte	0x192a
 7271 0f68 00       		.byte	0
 7272 0f69 25       		.uleb128 0x25
 7273 0f6a 621F0000 		.4byte	.LASF246
 7274 0f6e 0B       		.byte	0xb
 7275 0f6f E505     		.2byte	0x5e5
 7276 0f71 BA120000 		.4byte	.LASF247
 7277 0f75 47010000 		.4byte	0x147
 7278 0f79 01       		.byte	0x1
 7279 0f7a 7E0F0000 		.4byte	0xf7e
 7280 0f7e 21       		.uleb128 0x21
 7281 0f7f 2A190000 		.4byte	0x192a
 7282 0f83 00       		.byte	0
 7283 0f84 00       		.byte	0
 7284 0f85 1E       		.uleb128 0x1e
 7285 0f86 110A0000 		.4byte	.LASF248
 7286 0f8a 04       		.byte	0x4
 7287 0f8b 0B       		.byte	0xb
 7288 0f8c EE05     		.2byte	0x5ee
 7289 0f8e 66100000 		.4byte	0x1066
 7290 0f92 24       		.uleb128 0x24
 7291 0f93 48200000 		.4byte	.LASF249
 7292 0f97 0B       		.byte	0xb
 7293 0f98 F305     		.2byte	0x5f3
 7294 0f9a E6080000 		.4byte	0x8e6
 7295 0f9e 00       		.byte	0
 7296 0f9f 01       		.byte	0x1
 7297 0fa0 20       		.uleb128 0x20
 7298 0fa1 110A0000 		.4byte	.LASF248
 7299 0fa5 0B       		.byte	0xb
 7300 0fa6 FB05     		.2byte	0x5fb
 7301 0fa8 85130000 		.4byte	.LASF250
 7302 0fac 35190000 		.4byte	0x1935
 7303 0fb0 01       		.byte	0x1
 7304 0fb1 B90F0000 		.4byte	0xfb9
 7305 0fb5 BF0F0000 		.4byte	0xfbf
 7306 0fb9 21       		.uleb128 0x21
 7307 0fba 35190000 		.4byte	0x1935
 7308 0fbe 00       		.byte	0
 7309 0fbf 22       		.uleb128 0x22
 7310 0fc0 9F100000 		.4byte	.LASF251
 7311 0fc4 0B       		.byte	0xb
 7312 0fc5 0606     		.2byte	0x606
 7313 0fc7 E2040000 		.4byte	.LASF252
 7314 0fcb 01       		.byte	0x1
 7315 0fcc D40F0000 		.4byte	0xfd4
 7316 0fd0 E40F0000 		.4byte	0xfe4
 7317 0fd4 21       		.uleb128 0x21
 7318 0fd5 35190000 		.4byte	0x1935
 7319 0fd9 11       		.uleb128 0x11
 7320 0fda 2A190000 		.4byte	0x192a
 7321 0fde 11       		.uleb128 0x11
 7322 0fdf 31010000 		.4byte	0x131
 7323 0fe3 00       		.byte	0
 7324 0fe4 22       		.uleb128 0x22
 7325 0fe5 EB210000 		.4byte	.LASF253
ARM GAS  /tmp/ccvPPVYB.s 			page 130


 7326 0fe9 0B       		.byte	0xb
 7327 0fea 1206     		.2byte	0x612
 7328 0fec B21C0000 		.4byte	.LASF254
 7329 0ff0 01       		.byte	0x1
 7330 0ff1 F90F0000 		.4byte	0xff9
 7331 0ff5 09100000 		.4byte	0x1009
 7332 0ff9 21       		.uleb128 0x21
 7333 0ffa 35190000 		.4byte	0x1935
 7334 0ffe 11       		.uleb128 0x11
 7335 0fff 2A190000 		.4byte	0x192a
 7336 1003 11       		.uleb128 0x11
 7337 1004 3C010000 		.4byte	0x13c
 7338 1008 00       		.byte	0
 7339 1009 22       		.uleb128 0x22
 7340 100a 5A0B0000 		.4byte	.LASF255
 7341 100e 0B       		.byte	0xb
 7342 100f 1D06     		.2byte	0x61d
 7343 1011 FE1E0000 		.4byte	.LASF256
 7344 1015 01       		.byte	0x1
 7345 1016 1E100000 		.4byte	0x101e
 7346 101a 29100000 		.4byte	0x1029
 7347 101e 21       		.uleb128 0x21
 7348 101f 35190000 		.4byte	0x1935
 7349 1023 11       		.uleb128 0x11
 7350 1024 2A190000 		.4byte	0x192a
 7351 1028 00       		.byte	0
 7352 1029 22       		.uleb128 0x22
 7353 102a 92080000 		.4byte	.LASF257
 7354 102e 0B       		.byte	0xb
 7355 102f 2906     		.2byte	0x629
 7356 1031 170D0000 		.4byte	.LASF258
 7357 1035 01       		.byte	0x1
 7358 1036 3E100000 		.4byte	0x103e
 7359 103a 49100000 		.4byte	0x1049
 7360 103e 21       		.uleb128 0x21
 7361 103f 35190000 		.4byte	0x1935
 7362 1043 11       		.uleb128 0x11
 7363 1044 47010000 		.4byte	0x147
 7364 1048 00       		.byte	0
 7365 1049 26       		.uleb128 0x26
 7366 104a 2C140000 		.4byte	.LASF259
 7367 104e 0B       		.byte	0xb
 7368 104f 3506     		.2byte	0x635
 7369 1051 24170000 		.4byte	.LASF260
 7370 1055 01       		.byte	0x1
 7371 1056 5A100000 		.4byte	0x105a
 7372 105a 21       		.uleb128 0x21
 7373 105b 35190000 		.4byte	0x1935
 7374 105f 11       		.uleb128 0x11
 7375 1060 47010000 		.4byte	0x147
 7376 1064 00       		.byte	0
 7377 1065 00       		.byte	0
 7378 1066 1E       		.uleb128 0x1e
 7379 1067 22150000 		.4byte	.LASF261
 7380 106b 24       		.byte	0x24
 7381 106c 0B       		.byte	0xb
 7382 106d 4006     		.2byte	0x640
ARM GAS  /tmp/ccvPPVYB.s 			page 131


 7383 106f DB110000 		.4byte	0x11db
 7384 1073 0C       		.uleb128 0xc
 7385 1074 697100   		.ascii	"iq\000"
 7386 1077 0B       		.byte	0xb
 7387 1078 4506     		.2byte	0x645
 7388 107a 340A0000 		.4byte	0xa34
 7389 107e 00       		.byte	0
 7390 107f 20       		.uleb128 0x20
 7391 1080 22150000 		.4byte	.LASF261
 7392 1084 0B       		.byte	0xb
 7393 1085 5406     		.2byte	0x654
 7394 1087 B4060000 		.4byte	.LASF262
 7395 108b 40190000 		.4byte	0x1940
 7396 108f 01       		.byte	0x1
 7397 1090 98100000 		.4byte	0x1098
 7398 1094 B2100000 		.4byte	0x10b2
 7399 1098 21       		.uleb128 0x21
 7400 1099 40190000 		.4byte	0x1940
 7401 109d 11       		.uleb128 0x11
 7402 109e 2E0A0000 		.4byte	0xa2e
 7403 10a2 11       		.uleb128 0x11
 7404 10a3 2C000000 		.4byte	0x2c
 7405 10a7 11       		.uleb128 0x11
 7406 10a8 0C0A0000 		.4byte	0xa0c
 7407 10ac 11       		.uleb128 0x11
 7408 10ad B1030000 		.4byte	0x3b1
 7409 10b1 00       		.byte	0
 7410 10b2 20       		.uleb128 0x20
 7411 10b3 1D180000 		.4byte	.LASF263
 7412 10b7 0B       		.byte	0xb
 7413 10b8 5E06     		.2byte	0x65e
 7414 10ba 34100000 		.4byte	.LASF264
 7415 10be 2C000000 		.4byte	0x2c
 7416 10c2 01       		.byte	0x1
 7417 10c3 CB100000 		.4byte	0x10cb
 7418 10c7 D1100000 		.4byte	0x10d1
 7419 10cb 21       		.uleb128 0x21
 7420 10cc 40190000 		.4byte	0x1940
 7421 10d0 00       		.byte	0
 7422 10d1 20       		.uleb128 0x20
 7423 10d2 90220000 		.4byte	.LASF265
 7424 10d6 0B       		.byte	0xb
 7425 10d7 6806     		.2byte	0x668
 7426 10d9 F4030000 		.4byte	.LASF266
 7427 10dd 2C000000 		.4byte	0x2c
 7428 10e1 01       		.byte	0x1
 7429 10e2 EA100000 		.4byte	0x10ea
 7430 10e6 F0100000 		.4byte	0x10f0
 7431 10ea 21       		.uleb128 0x21
 7432 10eb 40190000 		.4byte	0x1940
 7433 10ef 00       		.byte	0
 7434 10f0 20       		.uleb128 0x20
 7435 10f1 75000000 		.4byte	.LASF267
 7436 10f5 0B       		.byte	0xb
 7437 10f6 7306     		.2byte	0x673
 7438 10f8 AF1F0000 		.4byte	.LASF268
 7439 10fc 12090000 		.4byte	0x912
ARM GAS  /tmp/ccvPPVYB.s 			page 132


 7440 1100 01       		.byte	0x1
 7441 1101 09110000 		.4byte	0x1109
 7442 1105 0F110000 		.4byte	0x110f
 7443 1109 21       		.uleb128 0x21
 7444 110a 40190000 		.4byte	0x1940
 7445 110e 00       		.byte	0
 7446 110f 20       		.uleb128 0x20
 7447 1110 E60E0000 		.4byte	.LASF269
 7448 1114 0B       		.byte	0xb
 7449 1115 7E06     		.2byte	0x67e
 7450 1117 58080000 		.4byte	.LASF270
 7451 111b 12090000 		.4byte	0x912
 7452 111f 01       		.byte	0x1
 7453 1120 28110000 		.4byte	0x1128
 7454 1124 2E110000 		.4byte	0x112e
 7455 1128 21       		.uleb128 0x21
 7456 1129 40190000 		.4byte	0x1940
 7457 112d 00       		.byte	0
 7458 112e 22       		.uleb128 0x22
 7459 112f D2040000 		.4byte	.LASF181
 7460 1133 0B       		.byte	0xb
 7461 1134 8806     		.2byte	0x688
 7462 1136 38220000 		.4byte	.LASF271
 7463 113a 01       		.byte	0x1
 7464 113b 43110000 		.4byte	0x1143
 7465 113f 49110000 		.4byte	0x1149
 7466 1143 21       		.uleb128 0x21
 7467 1144 40190000 		.4byte	0x1940
 7468 1148 00       		.byte	0
 7469 1149 20       		.uleb128 0x20
 7470 114a 9D010000 		.4byte	.LASF272
 7471 114e 0B       		.byte	0xb
 7472 114f 9606     		.2byte	0x696
 7473 1151 B7020000 		.4byte	.LASF273
 7474 1155 26010000 		.4byte	0x126
 7475 1159 01       		.byte	0x1
 7476 115a 62110000 		.4byte	0x1162
 7477 115e 6D110000 		.4byte	0x116d
 7478 1162 21       		.uleb128 0x21
 7479 1163 40190000 		.4byte	0x1940
 7480 1167 11       		.uleb128 0x11
 7481 1168 BE000000 		.4byte	0xbe
 7482 116c 00       		.byte	0
 7483 116d 27       		.uleb128 0x27
 7484 116e 67657400 		.ascii	"get\000"
 7485 1172 0B       		.byte	0xb
 7486 1173 A306     		.2byte	0x6a3
 7487 1175 291B0000 		.4byte	.LASF274
 7488 1179 26010000 		.4byte	0x126
 7489 117d 01       		.byte	0x1
 7490 117e 86110000 		.4byte	0x1186
 7491 1182 8C110000 		.4byte	0x118c
 7492 1186 21       		.uleb128 0x21
 7493 1187 40190000 		.4byte	0x1940
 7494 118b 00       		.byte	0
 7495 118c 27       		.uleb128 0x27
 7496 118d 67657400 		.ascii	"get\000"
ARM GAS  /tmp/ccvPPVYB.s 			page 133


 7497 1191 0B       		.byte	0xb
 7498 1192 B806     		.2byte	0x6b8
 7499 1194 83200000 		.4byte	.LASF275
 7500 1198 26010000 		.4byte	0x126
 7501 119c 01       		.byte	0x1
 7502 119d A5110000 		.4byte	0x11a5
 7503 11a1 B0110000 		.4byte	0x11b0
 7504 11a5 21       		.uleb128 0x21
 7505 11a6 40190000 		.4byte	0x1940
 7506 11aa 11       		.uleb128 0x11
 7507 11ab 5D010000 		.4byte	0x15d
 7508 11af 00       		.byte	0
 7509 11b0 25       		.uleb128 0x25
 7510 11b1 29120000 		.4byte	.LASF276
 7511 11b5 0B       		.byte	0xb
 7512 11b6 D106     		.2byte	0x6d1
 7513 11b8 FD050000 		.4byte	.LASF277
 7514 11bc 2C000000 		.4byte	0x2c
 7515 11c0 01       		.byte	0x1
 7516 11c1 C5110000 		.4byte	0x11c5
 7517 11c5 21       		.uleb128 0x21
 7518 11c6 40190000 		.4byte	0x1940
 7519 11ca 11       		.uleb128 0x11
 7520 11cb 2E0A0000 		.4byte	0xa2e
 7521 11cf 11       		.uleb128 0x11
 7522 11d0 2C000000 		.4byte	0x2c
 7523 11d4 11       		.uleb128 0x11
 7524 11d5 5D010000 		.4byte	0x15d
 7525 11d9 00       		.byte	0
 7526 11da 00       		.byte	0
 7527 11db 1E       		.uleb128 0x1e
 7528 11dc 4F1B0000 		.4byte	.LASF278
 7529 11e0 24       		.byte	0x24
 7530 11e1 0B       		.byte	0xb
 7531 11e2 F506     		.2byte	0x6f5
 7532 11e4 55130000 		.4byte	0x1355
 7533 11e8 0C       		.uleb128 0xc
 7534 11e9 6F7100   		.ascii	"oq\000"
 7535 11ec 0B       		.byte	0xb
 7536 11ed FA06     		.2byte	0x6fa
 7537 11ef 3F0A0000 		.4byte	0xa3f
 7538 11f3 00       		.byte	0
 7539 11f4 20       		.uleb128 0x20
 7540 11f5 4F1B0000 		.4byte	.LASF278
 7541 11f9 0B       		.byte	0xb
 7542 11fa 0907     		.2byte	0x709
 7543 11fc 41010000 		.4byte	.LASF279
 7544 1200 4B190000 		.4byte	0x194b
 7545 1204 01       		.byte	0x1
 7546 1205 0D120000 		.4byte	0x120d
 7547 1209 27120000 		.4byte	0x1227
 7548 120d 21       		.uleb128 0x21
 7549 120e 4B190000 		.4byte	0x194b
 7550 1212 11       		.uleb128 0x11
 7551 1213 2E0A0000 		.4byte	0xa2e
 7552 1217 11       		.uleb128 0x11
 7553 1218 2C000000 		.4byte	0x2c
ARM GAS  /tmp/ccvPPVYB.s 			page 134


 7554 121c 11       		.uleb128 0x11
 7555 121d 0C0A0000 		.4byte	0xa0c
 7556 1221 11       		.uleb128 0x11
 7557 1222 B1030000 		.4byte	0x3b1
 7558 1226 00       		.byte	0
 7559 1227 20       		.uleb128 0x20
 7560 1228 1D180000 		.4byte	.LASF263
 7561 122c 0B       		.byte	0xb
 7562 122d 1307     		.2byte	0x713
 7563 122f 35210000 		.4byte	.LASF280
 7564 1233 2C000000 		.4byte	0x2c
 7565 1237 01       		.byte	0x1
 7566 1238 40120000 		.4byte	0x1240
 7567 123c 46120000 		.4byte	0x1246
 7568 1240 21       		.uleb128 0x21
 7569 1241 4B190000 		.4byte	0x194b
 7570 1245 00       		.byte	0
 7571 1246 20       		.uleb128 0x20
 7572 1247 90220000 		.4byte	.LASF265
 7573 124b 0B       		.byte	0xb
 7574 124c 1D07     		.2byte	0x71d
 7575 124e 500E0000 		.4byte	.LASF281
 7576 1252 2C000000 		.4byte	0x2c
 7577 1256 01       		.byte	0x1
 7578 1257 5F120000 		.4byte	0x125f
 7579 125b 65120000 		.4byte	0x1265
 7580 125f 21       		.uleb128 0x21
 7581 1260 4B190000 		.4byte	0x194b
 7582 1264 00       		.byte	0
 7583 1265 20       		.uleb128 0x20
 7584 1266 75000000 		.4byte	.LASF267
 7585 126a 0B       		.byte	0xb
 7586 126b 2807     		.2byte	0x728
 7587 126d E40B0000 		.4byte	.LASF282
 7588 1271 12090000 		.4byte	0x912
 7589 1275 01       		.byte	0x1
 7590 1276 7E120000 		.4byte	0x127e
 7591 127a 84120000 		.4byte	0x1284
 7592 127e 21       		.uleb128 0x21
 7593 127f 4B190000 		.4byte	0x194b
 7594 1283 00       		.byte	0
 7595 1284 20       		.uleb128 0x20
 7596 1285 E60E0000 		.4byte	.LASF269
 7597 1289 0B       		.byte	0xb
 7598 128a 3307     		.2byte	0x733
 7599 128c 281D0000 		.4byte	.LASF283
 7600 1290 12090000 		.4byte	0x912
 7601 1294 01       		.byte	0x1
 7602 1295 9D120000 		.4byte	0x129d
 7603 1299 A3120000 		.4byte	0x12a3
 7604 129d 21       		.uleb128 0x21
 7605 129e 4B190000 		.4byte	0x194b
 7606 12a2 00       		.byte	0
 7607 12a3 22       		.uleb128 0x22
 7608 12a4 D2040000 		.4byte	.LASF181
 7609 12a8 0B       		.byte	0xb
 7610 12a9 3E07     		.2byte	0x73e
ARM GAS  /tmp/ccvPPVYB.s 			page 135


 7611 12ab 9B000000 		.4byte	.LASF284
 7612 12af 01       		.byte	0x1
 7613 12b0 B8120000 		.4byte	0x12b8
 7614 12b4 BE120000 		.4byte	0x12be
 7615 12b8 21       		.uleb128 0x21
 7616 12b9 4B190000 		.4byte	0x194b
 7617 12bd 00       		.byte	0
 7618 12be 27       		.uleb128 0x27
 7619 12bf 70757400 		.ascii	"put\000"
 7620 12c3 0B       		.byte	0xb
 7621 12c4 4D07     		.2byte	0x74d
 7622 12c6 22200000 		.4byte	.LASF285
 7623 12ca 26010000 		.4byte	0x126
 7624 12ce 01       		.byte	0x1
 7625 12cf D7120000 		.4byte	0x12d7
 7626 12d3 E2120000 		.4byte	0x12e2
 7627 12d7 21       		.uleb128 0x21
 7628 12d8 4B190000 		.4byte	0x194b
 7629 12dc 11       		.uleb128 0x11
 7630 12dd BE000000 		.4byte	0xbe
 7631 12e1 00       		.byte	0
 7632 12e2 27       		.uleb128 0x27
 7633 12e3 70757400 		.ascii	"put\000"
 7634 12e7 0B       		.byte	0xb
 7635 12e8 6407     		.2byte	0x764
 7636 12ea 51130000 		.4byte	.LASF286
 7637 12ee 26010000 		.4byte	0x126
 7638 12f2 01       		.byte	0x1
 7639 12f3 FB120000 		.4byte	0x12fb
 7640 12f7 0B130000 		.4byte	0x130b
 7641 12fb 21       		.uleb128 0x21
 7642 12fc 4B190000 		.4byte	0x194b
 7643 1300 11       		.uleb128 0x11
 7644 1301 BE000000 		.4byte	0xbe
 7645 1305 11       		.uleb128 0x11
 7646 1306 5D010000 		.4byte	0x15d
 7647 130a 00       		.byte	0
 7648 130b 20       		.uleb128 0x20
 7649 130c 7F0A0000 		.4byte	.LASF287
 7650 1310 0B       		.byte	0xb
 7651 1311 6F07     		.2byte	0x76f
 7652 1313 F1090000 		.4byte	.LASF288
 7653 1317 26010000 		.4byte	0x126
 7654 131b 01       		.byte	0x1
 7655 131c 24130000 		.4byte	0x1324
 7656 1320 2A130000 		.4byte	0x132a
 7657 1324 21       		.uleb128 0x21
 7658 1325 4B190000 		.4byte	0x194b
 7659 1329 00       		.byte	0
 7660 132a 25       		.uleb128 0x25
 7661 132b 91010000 		.4byte	.LASF289
 7662 132f 0B       		.byte	0xb
 7663 1330 8807     		.2byte	0x788
 7664 1332 66050000 		.4byte	.LASF290
 7665 1336 2C000000 		.4byte	0x2c
 7666 133a 01       		.byte	0x1
 7667 133b 3F130000 		.4byte	0x133f
ARM GAS  /tmp/ccvPPVYB.s 			page 136


 7668 133f 21       		.uleb128 0x21
 7669 1340 4B190000 		.4byte	0x194b
 7670 1344 11       		.uleb128 0x11
 7671 1345 4A0A0000 		.4byte	0xa4a
 7672 1349 11       		.uleb128 0x11
 7673 134a 2C000000 		.4byte	0x2c
 7674 134e 11       		.uleb128 0x11
 7675 134f 5D010000 		.4byte	0x15d
 7676 1353 00       		.byte	0
 7677 1354 00       		.byte	0
 7678 1355 1E       		.uleb128 0x1e
 7679 1356 DC010000 		.4byte	.LASF291
 7680 135a 0C       		.byte	0xc
 7681 135b 0B       		.byte	0xb
 7682 135c D608     		.2byte	0x8d6
 7683 135e 6C140000 		.4byte	0x146c
 7684 1362 24       		.uleb128 0x24
 7685 1363 BE160000 		.4byte	.LASF292
 7686 1367 0B       		.byte	0xb
 7687 1368 DB08     		.2byte	0x8db
 7688 136a 89090000 		.4byte	0x989
 7689 136e 00       		.byte	0
 7690 136f 01       		.byte	0x1
 7691 1370 20       		.uleb128 0x20
 7692 1371 DC010000 		.4byte	.LASF291
 7693 1375 0B       		.byte	0xb
 7694 1376 E908     		.2byte	0x8e9
 7695 1378 B3100000 		.4byte	.LASF293
 7696 137c 56190000 		.4byte	0x1956
 7697 1380 01       		.byte	0x1
 7698 1381 89130000 		.4byte	0x1389
 7699 1385 99130000 		.4byte	0x1399
 7700 1389 21       		.uleb128 0x21
 7701 138a 56190000 		.4byte	0x1956
 7702 138e 11       		.uleb128 0x11
 7703 138f 2C000000 		.4byte	0x2c
 7704 1393 11       		.uleb128 0x11
 7705 1394 19090000 		.4byte	0x919
 7706 1398 00       		.byte	0
 7707 1399 20       		.uleb128 0x20
 7708 139a DC010000 		.4byte	.LASF291
 7709 139e 0B       		.byte	0xb
 7710 139f F908     		.2byte	0x8f9
 7711 13a1 26070000 		.4byte	.LASF294
 7712 13a5 56190000 		.4byte	0x1956
 7713 13a9 01       		.byte	0x1
 7714 13aa B2130000 		.4byte	0x13b2
 7715 13ae CC130000 		.4byte	0x13cc
 7716 13b2 21       		.uleb128 0x21
 7717 13b3 56190000 		.4byte	0x1956
 7718 13b7 11       		.uleb128 0x11
 7719 13b8 2C000000 		.4byte	0x2c
 7720 13bc 11       		.uleb128 0x11
 7721 13bd 19090000 		.4byte	0x919
 7722 13c1 11       		.uleb128 0x11
 7723 13c2 B1030000 		.4byte	0x3b1
 7724 13c6 11       		.uleb128 0x11
ARM GAS  /tmp/ccvPPVYB.s 			page 137


 7725 13c7 2C000000 		.4byte	0x2c
 7726 13cb 00       		.byte	0
 7727 13cc 22       		.uleb128 0x22
 7728 13cd 0F100000 		.4byte	.LASF295
 7729 13d1 0B       		.byte	0xb
 7730 13d2 0709     		.2byte	0x907
 7731 13d4 D9100000 		.4byte	.LASF296
 7732 13d8 01       		.byte	0x1
 7733 13d9 E1130000 		.4byte	0x13e1
 7734 13dd F1130000 		.4byte	0x13f1
 7735 13e1 21       		.uleb128 0x21
 7736 13e2 56190000 		.4byte	0x1956
 7737 13e6 11       		.uleb128 0x11
 7738 13e7 B1030000 		.4byte	0x3b1
 7739 13eb 11       		.uleb128 0x11
 7740 13ec 2C000000 		.4byte	0x2c
 7741 13f0 00       		.byte	0
 7742 13f1 20       		.uleb128 0x20
 7743 13f2 AC120000 		.4byte	.LASF297
 7744 13f6 0B       		.byte	0xb
 7745 13f7 1209     		.2byte	0x912
 7746 13f9 24020000 		.4byte	.LASF298
 7747 13fd B1030000 		.4byte	0x3b1
 7748 1401 01       		.byte	0x1
 7749 1402 0A140000 		.4byte	0x140a
 7750 1406 10140000 		.4byte	0x1410
 7751 140a 21       		.uleb128 0x21
 7752 140b 56190000 		.4byte	0x1956
 7753 140f 00       		.byte	0
 7754 1410 20       		.uleb128 0x20
 7755 1411 50090000 		.4byte	.LASF299
 7756 1415 0B       		.byte	0xb
 7757 1416 1D09     		.2byte	0x91d
 7758 1418 DC020000 		.4byte	.LASF300
 7759 141c B1030000 		.4byte	0x3b1
 7760 1420 01       		.byte	0x1
 7761 1421 29140000 		.4byte	0x1429
 7762 1425 2F140000 		.4byte	0x142f
 7763 1429 21       		.uleb128 0x21
 7764 142a 56190000 		.4byte	0x1956
 7765 142e 00       		.byte	0
 7766 142f 22       		.uleb128 0x22
 7767 1430 0E200000 		.4byte	.LASF301
 7768 1434 0B       		.byte	0xb
 7769 1435 2B09     		.2byte	0x92b
 7770 1437 B7200000 		.4byte	.LASF302
 7771 143b 01       		.byte	0x1
 7772 143c 44140000 		.4byte	0x1444
 7773 1440 4F140000 		.4byte	0x144f
 7774 1444 21       		.uleb128 0x21
 7775 1445 56190000 		.4byte	0x1956
 7776 1449 11       		.uleb128 0x11
 7777 144a B1030000 		.4byte	0x3b1
 7778 144e 00       		.byte	0
 7779 144f 26       		.uleb128 0x26
 7780 1450 97010000 		.4byte	.LASF303
 7781 1454 0B       		.byte	0xb
ARM GAS  /tmp/ccvPPVYB.s 			page 138


 7782 1455 3B09     		.2byte	0x93b
 7783 1457 C1150000 		.4byte	.LASF304
 7784 145b 01       		.byte	0x1
 7785 145c 60140000 		.4byte	0x1460
 7786 1460 21       		.uleb128 0x21
 7787 1461 56190000 		.4byte	0x1956
 7788 1465 11       		.uleb128 0x11
 7789 1466 B1030000 		.4byte	0x3b1
 7790 146a 00       		.byte	0
 7791 146b 00       		.byte	0
 7792 146c 28       		.uleb128 0x28
 7793 146d 03200000 		.4byte	.LASF305
 7794 1471 08       		.byte	0x8
 7795 1472 0B       		.byte	0xb
 7796 1473 1F02     		.2byte	0x21f
 7797 1475 23170000 		.4byte	0x1723
 7798 1479 1E170000 		.4byte	0x171e
 7799 147d 29       		.uleb128 0x29
 7800 147e 23170000 		.4byte	0x1723
 7801 1482 00       		.byte	0
 7802 1483 01       		.byte	0x1
 7803 1484 2A       		.uleb128 0x2a
 7804 1485 03200000 		.4byte	.LASF305
 7805 1489 8C160000 		.4byte	.LASF306
 7806 148d 61190000 		.4byte	0x1961
 7807 1491 01       		.byte	0x1
 7808 1492 9A140000 		.4byte	0x149a
 7809 1496 A5140000 		.4byte	0x14a5
 7810 149a 21       		.uleb128 0x21
 7811 149b 61190000 		.4byte	0x1961
 7812 149f 11       		.uleb128 0x11
 7813 14a0 6C190000 		.4byte	0x196c
 7814 14a4 00       		.byte	0
 7815 14a5 2A       		.uleb128 0x2a
 7816 14a6 03200000 		.4byte	.LASF305
 7817 14aa B31B0000 		.4byte	.LASF307
 7818 14ae 61190000 		.4byte	0x1961
 7819 14b2 01       		.byte	0x1
 7820 14b3 BB140000 		.4byte	0x14bb
 7821 14b7 C6140000 		.4byte	0x14c6
 7822 14bb 21       		.uleb128 0x21
 7823 14bc 61190000 		.4byte	0x1961
 7824 14c0 11       		.uleb128 0x11
 7825 14c1 72190000 		.4byte	0x1972
 7826 14c5 00       		.byte	0
 7827 14c6 2B       		.uleb128 0x2b
 7828 14c7 03200000 		.4byte	.LASF305
 7829 14cb 0C       		.byte	0xc
 7830 14cc 9F       		.byte	0x9f
 7831 14cd AB010000 		.4byte	.LASF362
 7832 14d1 61190000 		.4byte	0x1961
 7833 14d5 01       		.byte	0x1
 7834 14d6 DE140000 		.4byte	0x14de
 7835 14da E4140000 		.4byte	0x14e4
 7836 14de 21       		.uleb128 0x21
 7837 14df 61190000 		.4byte	0x1961
 7838 14e3 00       		.byte	0
ARM GAS  /tmp/ccvPPVYB.s 			page 139


 7839 14e4 2C       		.uleb128 0x2c
 7840 14e5 A6050000 		.4byte	.LASF356
 7841 14e9 0C       		.byte	0xc
 7842 14ea A3       		.byte	0xa3
 7843 14eb 4B0F0000 		.4byte	.LASF358
 7844 14ef 01       		.byte	0x1
 7845 14f0 02       		.uleb128 0x2
 7846 14f1 10       		.byte	0x10
 7847 14f2 01       		.uleb128 0x1
 7848 14f3 6C140000 		.4byte	0x146c
 7849 14f7 01       		.byte	0x1
 7850 14f8 00150000 		.4byte	0x1500
 7851 14fc 06150000 		.4byte	0x1506
 7852 1500 21       		.uleb128 0x21
 7853 1501 61190000 		.4byte	0x1961
 7854 1505 00       		.byte	0
 7855 1506 2D       		.uleb128 0x2d
 7856 1507 601C0000 		.4byte	.LASF451
 7857 150b 0C       		.byte	0xc
 7858 150c A7       		.byte	0xa7
 7859 150d A6110000 		.4byte	.LASF452
 7860 1511 23170000 		.4byte	0x1723
 7861 1515 01       		.byte	0x1
 7862 1516 02       		.uleb128 0x2
 7863 1517 10       		.byte	0x10
 7864 1518 02       		.uleb128 0x2
 7865 1519 6C140000 		.4byte	0x146c
 7866 151d 01       		.byte	0x1
 7867 151e 26150000 		.4byte	0x1526
 7868 1522 31150000 		.4byte	0x1531
 7869 1526 21       		.uleb128 0x21
 7870 1527 61190000 		.4byte	0x1961
 7871 152b 11       		.uleb128 0x11
 7872 152c 1B010000 		.4byte	0x11b
 7873 1530 00       		.byte	0
 7874 1531 2E       		.uleb128 0x2e
 7875 1532 8A080000 		.4byte	.LASF308
 7876 1536 0C       		.byte	0xc
 7877 1537 B3       		.byte	0xb3
 7878 1538 2A1C0000 		.4byte	.LASF311
 7879 153c 01       		.byte	0x1
 7880 153d 47150000 		.4byte	0x1547
 7881 1541 11       		.uleb128 0x11
 7882 1542 C1060000 		.4byte	0x6c1
 7883 1546 00       		.byte	0
 7884 1547 2F       		.uleb128 0x2f
 7885 1548 45130000 		.4byte	.LASF309
 7886 154c 0C       		.byte	0xc
 7887 154d B8       		.byte	0xb8
 7888 154e 58020000 		.4byte	.LASF324
 7889 1552 1B010000 		.4byte	0x11b
 7890 1556 01       		.byte	0x1
 7891 1557 61150000 		.4byte	0x1561
 7892 155b 11       		.uleb128 0x11
 7893 155c 1B010000 		.4byte	0x11b
 7894 1560 00       		.byte	0
 7895 1561 2E       		.uleb128 0x2e
ARM GAS  /tmp/ccvPPVYB.s 			page 140


 7896 1562 0A190000 		.4byte	.LASF310
 7897 1566 0C       		.byte	0xc
 7898 1567 BD       		.byte	0xbd
 7899 1568 FE110000 		.4byte	.LASF312
 7900 156c 01       		.byte	0x1
 7901 156d 77150000 		.4byte	0x1577
 7902 1571 11       		.uleb128 0x11
 7903 1572 26010000 		.4byte	0x126
 7904 1576 00       		.byte	0
 7905 1577 2E       		.uleb128 0x2e
 7906 1578 D9110000 		.4byte	.LASF313
 7907 157c 0C       		.byte	0xc
 7908 157d C2       		.byte	0xc2
 7909 157e BD0D0000 		.4byte	.LASF314
 7910 1582 01       		.byte	0x1
 7911 1583 8D150000 		.4byte	0x158d
 7912 1587 11       		.uleb128 0x11
 7913 1588 26010000 		.4byte	0x126
 7914 158c 00       		.byte	0
 7915 158d 30       		.uleb128 0x30
 7916 158e 7A080000 		.4byte	.LASF319
 7917 1592 0C       		.byte	0xc
 7918 1593 C7       		.byte	0xc7
 7919 1594 8F0C0000 		.4byte	.LASF321
 7920 1598 12090000 		.4byte	0x912
 7921 159c 01       		.byte	0x1
 7922 159d 2E       		.uleb128 0x2e
 7923 159e D00B0000 		.4byte	.LASF315
 7924 15a2 0C       		.byte	0xc
 7925 15a3 CC       		.byte	0xcc
 7926 15a4 FE140000 		.4byte	.LASF316
 7927 15a8 01       		.byte	0x1
 7928 15a9 B3150000 		.4byte	0x15b3
 7929 15ad 11       		.uleb128 0x11
 7930 15ae 5D010000 		.4byte	0x15d
 7931 15b2 00       		.byte	0
 7932 15b3 2E       		.uleb128 0x2e
 7933 15b4 8C1D0000 		.4byte	.LASF317
 7934 15b8 0C       		.byte	0xc
 7935 15b9 D1       		.byte	0xd1
 7936 15ba 32160000 		.4byte	.LASF318
 7937 15be 01       		.byte	0x1
 7938 15bf C9150000 		.4byte	0x15c9
 7939 15c3 11       		.uleb128 0x11
 7940 15c4 5D010000 		.4byte	0x15d
 7941 15c8 00       		.byte	0
 7942 15c9 31       		.uleb128 0x31
 7943 15ca B8160000 		.4byte	.LASF346
 7944 15ce 0C       		.byte	0xc
 7945 15cf D6       		.byte	0xd6
 7946 15d0 7D1F0000 		.4byte	.LASF453
 7947 15d4 01       		.byte	0x1
 7948 15d5 30       		.uleb128 0x30
 7949 15d6 D61E0000 		.4byte	.LASF320
 7950 15da 0C       		.byte	0xc
 7951 15db DC       		.byte	0xdc
 7952 15dc 080C0000 		.4byte	.LASF322
ARM GAS  /tmp/ccvPPVYB.s 			page 141


 7953 15e0 23170000 		.4byte	0x1723
 7954 15e4 01       		.byte	0x1
 7955 15e5 2F       		.uleb128 0x2f
 7956 15e6 89070000 		.4byte	.LASF323
 7957 15ea 0C       		.byte	0xc
 7958 15eb E4       		.byte	0xe4
 7959 15ec 19190000 		.4byte	.LASF325
 7960 15f0 3C010000 		.4byte	0x13c
 7961 15f4 01       		.byte	0x1
 7962 15f5 FF150000 		.4byte	0x15ff
 7963 15f9 11       		.uleb128 0x11
 7964 15fa 3C010000 		.4byte	0x13c
 7965 15fe 00       		.byte	0
 7966 15ff 2F       		.uleb128 0x2f
 7967 1600 71130000 		.4byte	.LASF326
 7968 1604 0C       		.byte	0xc
 7969 1605 E9       		.byte	0xe9
 7970 1606 B9170000 		.4byte	.LASF327
 7971 160a 3C010000 		.4byte	0x13c
 7972 160e 01       		.byte	0x1
 7973 160f 19160000 		.4byte	0x1619
 7974 1613 11       		.uleb128 0x11
 7975 1614 3C010000 		.4byte	0x13c
 7976 1618 00       		.byte	0
 7977 1619 2F       		.uleb128 0x2f
 7978 161a 30050000 		.4byte	.LASF328
 7979 161e 0C       		.byte	0xc
 7980 161f EE       		.byte	0xee
 7981 1620 410A0000 		.4byte	.LASF329
 7982 1624 3C010000 		.4byte	0x13c
 7983 1628 01       		.byte	0x1
 7984 1629 33160000 		.4byte	0x1633
 7985 162d 11       		.uleb128 0x11
 7986 162e 3C010000 		.4byte	0x13c
 7987 1632 00       		.byte	0
 7988 1633 2F       		.uleb128 0x2f
 7989 1634 FB1C0000 		.4byte	.LASF330
 7990 1638 0C       		.byte	0xc
 7991 1639 F3       		.byte	0xf3
 7992 163a E01B0000 		.4byte	.LASF331
 7993 163e 3C010000 		.4byte	0x13c
 7994 1642 01       		.byte	0x1
 7995 1643 4D160000 		.4byte	0x164d
 7996 1647 11       		.uleb128 0x11
 7997 1648 3C010000 		.4byte	0x13c
 7998 164c 00       		.byte	0
 7999 164d 2F       		.uleb128 0x2f
 8000 164e 43110000 		.4byte	.LASF332
 8001 1652 0C       		.byte	0xc
 8002 1653 F8       		.byte	0xf8
 8003 1654 A8210000 		.4byte	.LASF333
 8004 1658 3C010000 		.4byte	0x13c
 8005 165c 01       		.byte	0x1
 8006 165d 67160000 		.4byte	0x1667
 8007 1661 11       		.uleb128 0x11
 8008 1662 3C010000 		.4byte	0x13c
 8009 1666 00       		.byte	0
ARM GAS  /tmp/ccvPPVYB.s 			page 142


 8010 1667 2F       		.uleb128 0x2f
 8011 1668 B8130000 		.4byte	.LASF334
 8012 166c 0C       		.byte	0xc
 8013 166d FE       		.byte	0xfe
 8014 166e 4A120000 		.4byte	.LASF335
 8015 1672 3C010000 		.4byte	0x13c
 8016 1676 01       		.byte	0x1
 8017 1677 86160000 		.4byte	0x1686
 8018 167b 11       		.uleb128 0x11
 8019 167c 3C010000 		.4byte	0x13c
 8020 1680 11       		.uleb128 0x11
 8021 1681 5D010000 		.4byte	0x15d
 8022 1685 00       		.byte	0
 8023 1686 32       		.uleb128 0x32
 8024 1687 28040000 		.4byte	.LASF336
 8025 168b 0C       		.byte	0xc
 8026 168c 0401     		.2byte	0x104
 8027 168e 170F0000 		.4byte	.LASF337
 8028 1692 3C010000 		.4byte	0x13c
 8029 1696 01       		.byte	0x1
 8030 1697 A6160000 		.4byte	0x16a6
 8031 169b 11       		.uleb128 0x11
 8032 169c 3C010000 		.4byte	0x13c
 8033 16a0 11       		.uleb128 0x11
 8034 16a1 5D010000 		.4byte	0x15d
 8035 16a5 00       		.byte	0
 8036 16a6 32       		.uleb128 0x32
 8037 16a7 131D0000 		.4byte	.LASF338
 8038 16ab 0C       		.byte	0xc
 8039 16ac 0A01     		.2byte	0x10a
 8040 16ae 391A0000 		.4byte	.LASF339
 8041 16b2 3C010000 		.4byte	0x13c
 8042 16b6 01       		.byte	0x1
 8043 16b7 C6160000 		.4byte	0x16c6
 8044 16bb 11       		.uleb128 0x11
 8045 16bc 3C010000 		.4byte	0x13c
 8046 16c0 11       		.uleb128 0x11
 8047 16c1 5D010000 		.4byte	0x15d
 8048 16c5 00       		.byte	0
 8049 16c6 33       		.uleb128 0x33
 8050 16c7 49020000 		.4byte	.LASF340
 8051 16cb 0C       		.byte	0xc
 8052 16cc 1101     		.2byte	0x111
 8053 16ce 71170000 		.4byte	.LASF341
 8054 16d2 01       		.byte	0x1
 8055 16d3 E2160000 		.4byte	0x16e2
 8056 16d7 11       		.uleb128 0x11
 8057 16d8 78190000 		.4byte	0x1978
 8058 16dc 11       		.uleb128 0x11
 8059 16dd 3C010000 		.4byte	0x13c
 8060 16e1 00       		.byte	0
 8061 16e2 33       		.uleb128 0x33
 8062 16e3 A0090000 		.4byte	.LASF342
 8063 16e7 0C       		.byte	0xc
 8064 16e8 1901     		.2byte	0x119
 8065 16ea 6B090000 		.4byte	.LASF343
 8066 16ee 01       		.byte	0x1
ARM GAS  /tmp/ccvPPVYB.s 			page 143


 8067 16ef F9160000 		.4byte	0x16f9
 8068 16f3 11       		.uleb128 0x11
 8069 16f4 14190000 		.4byte	0x1914
 8070 16f8 00       		.byte	0
 8071 16f9 33       		.uleb128 0x33
 8072 16fa 64170000 		.4byte	.LASF344
 8073 16fe 0C       		.byte	0xc
 8074 16ff 1E01     		.2byte	0x11e
 8075 1701 AC190000 		.4byte	.LASF345
 8076 1705 01       		.byte	0x1
 8077 1706 10170000 		.4byte	0x1710
 8078 170a 11       		.uleb128 0x11
 8079 170b 14190000 		.4byte	0x1914
 8080 170f 00       		.byte	0
 8081 1710 34       		.uleb128 0x34
 8082 1711 130B0000 		.4byte	.LASF347
 8083 1715 0C       		.byte	0xc
 8084 1716 2301     		.2byte	0x123
 8085 1718 E3200000 		.4byte	.LASF454
 8086 171c 01       		.byte	0x1
 8087 171d 00       		.byte	0
 8088 171e 07       		.uleb128 0x7
 8089 171f 6C140000 		.4byte	0x146c
 8090 1723 28       		.uleb128 0x28
 8091 1724 04080000 		.4byte	.LASF348
 8092 1728 08       		.byte	0x8
 8093 1729 0B       		.byte	0xb
 8094 172a 8D01     		.2byte	0x18d
 8095 172c 23170000 		.4byte	0x1723
 8096 1730 E7180000 		.4byte	0x18e7
 8097 1734 35       		.uleb128 0x35
 8098 1735 0C1C0000 		.4byte	.LASF349
 8099 1739 89190000 		.4byte	0x1989
 8100 173d 00       		.byte	0
 8101 173e 01       		.byte	0x1
 8102 173f 24       		.uleb128 0x24
 8103 1740 2A0E0000 		.4byte	.LASF350
 8104 1744 0B       		.byte	0xb
 8105 1745 9201     		.2byte	0x192
 8106 1747 D4020000 		.4byte	0x2d4
 8107 174b 04       		.byte	0x4
 8108 174c 01       		.byte	0x1
 8109 174d 2A       		.uleb128 0x2a
 8110 174e BF0B0000 		.4byte	.LASF351
 8111 1752 D8130000 		.4byte	.LASF352
 8112 1756 B1030000 		.4byte	0x3b1
 8113 175a 01       		.byte	0x1
 8114 175b 63170000 		.4byte	0x1763
 8115 175f 6E170000 		.4byte	0x176e
 8116 1763 21       		.uleb128 0x21
 8117 1764 99190000 		.4byte	0x1999
 8118 1768 21       		.uleb128 0x21
 8119 1769 25000000 		.4byte	0x25
 8120 176d 00       		.byte	0
 8121 176e 2A       		.uleb128 0x2a
 8122 176f 04080000 		.4byte	.LASF348
 8123 1773 EE150000 		.4byte	.LASF353
ARM GAS  /tmp/ccvPPVYB.s 			page 144


 8124 1777 99190000 		.4byte	0x1999
 8125 177b 01       		.byte	0x1
 8126 177c 84170000 		.4byte	0x1784
 8127 1780 8F170000 		.4byte	0x178f
 8128 1784 21       		.uleb128 0x21
 8129 1785 99190000 		.4byte	0x1999
 8130 1789 11       		.uleb128 0x11
 8131 178a A4190000 		.4byte	0x19a4
 8132 178e 00       		.byte	0
 8133 178f 2A       		.uleb128 0x2a
 8134 1790 04080000 		.4byte	.LASF348
 8135 1794 19090000 		.4byte	.LASF354
 8136 1798 99190000 		.4byte	0x1999
 8137 179c 01       		.byte	0x1
 8138 179d A5170000 		.4byte	0x17a5
 8139 17a1 B0170000 		.4byte	0x17b0
 8140 17a5 21       		.uleb128 0x21
 8141 17a6 99190000 		.4byte	0x1999
 8142 17aa 11       		.uleb128 0x11
 8143 17ab AA190000 		.4byte	0x19aa
 8144 17af 00       		.byte	0
 8145 17b0 20       		.uleb128 0x20
 8146 17b1 04080000 		.4byte	.LASF348
 8147 17b5 0B       		.byte	0xb
 8148 17b6 9D01     		.2byte	0x19d
 8149 17b8 5A070000 		.4byte	.LASF355
 8150 17bc 99190000 		.4byte	0x1999
 8151 17c0 01       		.byte	0x1
 8152 17c1 C9170000 		.4byte	0x17c9
 8153 17c5 D4170000 		.4byte	0x17d4
 8154 17c9 21       		.uleb128 0x21
 8155 17ca 99190000 		.4byte	0x1999
 8156 17ce 11       		.uleb128 0x11
 8157 17cf D4020000 		.4byte	0x2d4
 8158 17d3 00       		.byte	0
 8159 17d4 2C       		.uleb128 0x2c
 8160 17d5 EF110000 		.4byte	.LASF357
 8161 17d9 0C       		.byte	0xc
 8162 17da 4C       		.byte	0x4c
 8163 17db 5C160000 		.4byte	.LASF359
 8164 17df 01       		.byte	0x1
 8165 17e0 02       		.uleb128 0x2
 8166 17e1 10       		.byte	0x10
 8167 17e2 00       		.uleb128 0
 8168 17e3 23170000 		.4byte	0x1723
 8169 17e7 01       		.byte	0x1
 8170 17e8 F0170000 		.4byte	0x17f0
 8171 17ec F6170000 		.4byte	0x17f6
 8172 17f0 21       		.uleb128 0x21
 8173 17f1 99190000 		.4byte	0x1999
 8174 17f5 00       		.byte	0
 8175 17f6 36       		.uleb128 0x36
 8176 17f7 581B0000 		.4byte	.LASF360
 8177 17fb 0C       		.byte	0xc
 8178 17fc 51       		.byte	0x51
 8179 17fd 14080000 		.4byte	.LASF361
 8180 1801 01       		.byte	0x1
ARM GAS  /tmp/ccvPPVYB.s 			page 145


 8181 1802 0A180000 		.4byte	0x180a
 8182 1806 10180000 		.4byte	0x1810
 8183 180a 21       		.uleb128 0x21
 8184 180b 99190000 		.4byte	0x1999
 8185 180f 00       		.byte	0
 8186 1810 2B       		.uleb128 0x2b
 8187 1811 CA110000 		.4byte	.LASF185
 8188 1815 0C       		.byte	0xc
 8189 1816 5A       		.byte	0x5a
 8190 1817 8C060000 		.4byte	.LASF363
 8191 181b 26010000 		.4byte	0x126
 8192 181f 01       		.byte	0x1
 8193 1820 28180000 		.4byte	0x1828
 8194 1824 2E180000 		.4byte	0x182e
 8195 1828 21       		.uleb128 0x21
 8196 1829 99190000 		.4byte	0x1999
 8197 182d 00       		.byte	0
 8198 182e 2B       		.uleb128 0x2b
 8199 182f 4E0B0000 		.4byte	.LASF364
 8200 1833 0C       		.byte	0xc
 8201 1834 66       		.byte	0x66
 8202 1835 6E0F0000 		.4byte	.LASF365
 8203 1839 26010000 		.4byte	0x126
 8204 183d 01       		.byte	0x1
 8205 183e 46180000 		.4byte	0x1846
 8206 1842 51180000 		.4byte	0x1851
 8207 1846 21       		.uleb128 0x21
 8208 1847 99190000 		.4byte	0x1999
 8209 184b 11       		.uleb128 0x11
 8210 184c 26010000 		.4byte	0x126
 8211 1850 00       		.byte	0
 8212 1851 2B       		.uleb128 0x2b
 8213 1852 B30A0000 		.4byte	.LASF366
 8214 1856 0C       		.byte	0xc
 8215 1857 6E       		.byte	0x6e
 8216 1858 31180000 		.4byte	.LASF367
 8217 185c 12090000 		.4byte	0x912
 8218 1860 01       		.byte	0x1
 8219 1861 69180000 		.4byte	0x1869
 8220 1865 6F180000 		.4byte	0x186f
 8221 1869 21       		.uleb128 0x21
 8222 186a 99190000 		.4byte	0x1999
 8223 186e 00       		.byte	0
 8224 186f 2B       		.uleb128 0x2b
 8225 1870 D10C0000 		.4byte	.LASF368
 8226 1874 0C       		.byte	0xc
 8227 1875 76       		.byte	0x76
 8228 1876 831C0000 		.4byte	.LASF369
 8229 187a 26010000 		.4byte	0x126
 8230 187e 01       		.byte	0x1
 8231 187f 87180000 		.4byte	0x1887
 8232 1883 8D180000 		.4byte	0x188d
 8233 1887 21       		.uleb128 0x21
 8234 1888 99190000 		.4byte	0x1999
 8235 188c 00       		.byte	0
 8236 188d 36       		.uleb128 0x36
 8237 188e 69210000 		.4byte	.LASF370
ARM GAS  /tmp/ccvPPVYB.s 			page 146


 8238 1892 0C       		.byte	0xc
 8239 1893 7E       		.byte	0x7e
 8240 1894 00030000 		.4byte	.LASF371
 8241 1898 01       		.byte	0x1
 8242 1899 A1180000 		.4byte	0x18a1
 8243 189d AC180000 		.4byte	0x18ac
 8244 18a1 21       		.uleb128 0x21
 8245 18a2 99190000 		.4byte	0x1999
 8246 18a6 11       		.uleb128 0x11
 8247 18a7 26010000 		.4byte	0x126
 8248 18ab 00       		.byte	0
 8249 18ac 36       		.uleb128 0x36
 8250 18ad 52050000 		.4byte	.LASF372
 8251 18b1 0C       		.byte	0xc
 8252 18b2 88       		.byte	0x88
 8253 18b3 7D1A0000 		.4byte	.LASF373
 8254 18b7 01       		.byte	0x1
 8255 18b8 C0180000 		.4byte	0x18c0
 8256 18bc CB180000 		.4byte	0x18cb
 8257 18c0 21       		.uleb128 0x21
 8258 18c1 99190000 		.4byte	0x1999
 8259 18c5 11       		.uleb128 0x11
 8260 18c6 3C010000 		.4byte	0x13c
 8261 18ca 00       		.byte	0
 8262 18cb 37       		.uleb128 0x37
 8263 18cc 050B0000 		.4byte	.LASF374
 8264 18d0 0C       		.byte	0xc
 8265 18d1 90       		.byte	0x90
 8266 18d2 33030000 		.4byte	.LASF375
 8267 18d6 01       		.byte	0x1
 8268 18d7 DB180000 		.4byte	0x18db
 8269 18db 21       		.uleb128 0x21
 8270 18dc 99190000 		.4byte	0x1999
 8271 18e0 11       		.uleb128 0x11
 8272 18e1 3C010000 		.4byte	0x13c
 8273 18e5 00       		.byte	0
 8274 18e6 00       		.byte	0
 8275 18e7 07       		.uleb128 0x7
 8276 18e8 23170000 		.4byte	0x1723
 8277 18ec 38       		.uleb128 0x38
 8278 18ed 0F110000 		.4byte	.LASF455
 8279 18f1 0C       		.byte	0xc
 8280 18f2 AE       		.byte	0xae
 8281 18f3 5A190000 		.4byte	.LASF456
 8282 18f7 11       		.uleb128 0x11
 8283 18f8 B1030000 		.4byte	0x3b1
 8284 18fc 00       		.byte	0
 8285 18fd 00       		.byte	0
 8286 18fe 0E       		.uleb128 0xe
 8287 18ff 04       		.byte	0x4
 8288 1900 5B0A0000 		.4byte	0xa5b
 8289 1904 07       		.uleb128 0x7
 8290 1905 FE180000 		.4byte	0x18fe
 8291 1909 0E       		.uleb128 0xe
 8292 190a 04       		.byte	0x4
 8293 190b F20B0000 		.4byte	0xbf2
 8294 190f 07       		.uleb128 0x7
ARM GAS  /tmp/ccvPPVYB.s 			page 147


 8295 1910 09190000 		.4byte	0x1909
 8296 1914 0E       		.uleb128 0xe
 8297 1915 04       		.byte	0x4
 8298 1916 490D0000 		.4byte	0xd49
 8299 191a 07       		.uleb128 0x7
 8300 191b 14190000 		.4byte	0x1914
 8301 191f 0E       		.uleb128 0xe
 8302 1920 04       		.byte	0x4
 8303 1921 2A0E0000 		.4byte	0xe2a
 8304 1925 07       		.uleb128 0x7
 8305 1926 1F190000 		.4byte	0x191f
 8306 192a 0E       		.uleb128 0xe
 8307 192b 04       		.byte	0x4
 8308 192c 2F0F0000 		.4byte	0xf2f
 8309 1930 07       		.uleb128 0x7
 8310 1931 2A190000 		.4byte	0x192a
 8311 1935 0E       		.uleb128 0xe
 8312 1936 04       		.byte	0x4
 8313 1937 850F0000 		.4byte	0xf85
 8314 193b 07       		.uleb128 0x7
 8315 193c 35190000 		.4byte	0x1935
 8316 1940 0E       		.uleb128 0xe
 8317 1941 04       		.byte	0x4
 8318 1942 66100000 		.4byte	0x1066
 8319 1946 07       		.uleb128 0x7
 8320 1947 40190000 		.4byte	0x1940
 8321 194b 0E       		.uleb128 0xe
 8322 194c 04       		.byte	0x4
 8323 194d DB110000 		.4byte	0x11db
 8324 1951 07       		.uleb128 0x7
 8325 1952 4B190000 		.4byte	0x194b
 8326 1956 0E       		.uleb128 0xe
 8327 1957 04       		.byte	0x4
 8328 1958 55130000 		.4byte	0x1355
 8329 195c 07       		.uleb128 0x7
 8330 195d 56190000 		.4byte	0x1956
 8331 1961 0E       		.uleb128 0xe
 8332 1962 04       		.byte	0x4
 8333 1963 6C140000 		.4byte	0x146c
 8334 1967 07       		.uleb128 0x7
 8335 1968 61190000 		.4byte	0x1961
 8336 196c 39       		.uleb128 0x39
 8337 196d 04       		.byte	0x4
 8338 196e 6C140000 		.4byte	0x146c
 8339 1972 3A       		.uleb128 0x3a
 8340 1973 04       		.byte	0x4
 8341 1974 1E170000 		.4byte	0x171e
 8342 1978 0E       		.uleb128 0xe
 8343 1979 04       		.byte	0x4
 8344 197a FC080000 		.4byte	0x8fc
 8345 197e 1C       		.uleb128 0x1c
 8346 197f 25000000 		.4byte	0x25
 8347 1983 89190000 		.4byte	0x1989
 8348 1987 3B       		.uleb128 0x3b
 8349 1988 00       		.byte	0
 8350 1989 0E       		.uleb128 0xe
 8351 198a 04       		.byte	0x4
ARM GAS  /tmp/ccvPPVYB.s 			page 148


 8352 198b 8F190000 		.4byte	0x198f
 8353 198f 3C       		.uleb128 0x3c
 8354 1990 04       		.byte	0x4
 8355 1991 78010000 		.4byte	.LASF457
 8356 1995 7E190000 		.4byte	0x197e
 8357 1999 0E       		.uleb128 0xe
 8358 199a 04       		.byte	0x4
 8359 199b 23170000 		.4byte	0x1723
 8360 199f 07       		.uleb128 0x7
 8361 19a0 99190000 		.4byte	0x1999
 8362 19a4 39       		.uleb128 0x39
 8363 19a5 04       		.byte	0x4
 8364 19a6 23170000 		.4byte	0x1723
 8365 19aa 3A       		.uleb128 0x3a
 8366 19ab 04       		.byte	0x4
 8367 19ac E7180000 		.4byte	0x18e7
 8368 19b0 07       		.uleb128 0x7
 8369 19b1 AA190000 		.4byte	0x19aa
 8370 19b5 3D       		.uleb128 0x3d
 8371 19b6 4F140000 		.4byte	0x144f
 8372 19ba 0C       		.byte	0xc
 8373 19bb B902     		.2byte	0x2b9
 8374 19bd D3190000 		.4byte	0x19d3
 8375 19c1 00000000 		.4byte	.LFB325
 8376 19c5 1A000000 		.4byte	.LFE325-.LFB325
 8377 19c9 01       		.uleb128 0x1
 8378 19ca 9C       		.byte	0x9c
 8379 19cb D3190000 		.4byte	0x19d3
 8380 19cf EF190000 		.4byte	0x19ef
 8381 19d3 3E       		.uleb128 0x3e
 8382 19d4 3A0E0000 		.4byte	.LASF376
 8383 19d8 5C190000 		.4byte	0x195c
 8384 19dc 02       		.uleb128 0x2
 8385 19dd 91       		.byte	0x91
 8386 19de 74       		.sleb128 -12
 8387 19df 3F       		.uleb128 0x3f
 8388 19e0 6D040000 		.4byte	.LASF377
 8389 19e4 0C       		.byte	0xc
 8390 19e5 B902     		.2byte	0x2b9
 8391 19e7 B1030000 		.4byte	0x3b1
 8392 19eb 02       		.uleb128 0x2
 8393 19ec 91       		.byte	0x91
 8394 19ed 70       		.sleb128 -16
 8395 19ee 00       		.byte	0
 8396 19ef 3D       		.uleb128 0x3d
 8397 19f0 2F140000 		.4byte	0x142f
 8398 19f4 0C       		.byte	0xc
 8399 19f5 B402     		.2byte	0x2b4
 8400 19f7 0D1A0000 		.4byte	0x1a0d
 8401 19fb 00000000 		.4byte	.LFB324
 8402 19ff 1A000000 		.4byte	.LFE324-.LFB324
 8403 1a03 01       		.uleb128 0x1
 8404 1a04 9C       		.byte	0x9c
 8405 1a05 0D1A0000 		.4byte	0x1a0d
 8406 1a09 291A0000 		.4byte	0x1a29
 8407 1a0d 3E       		.uleb128 0x3e
 8408 1a0e 3A0E0000 		.4byte	.LASF376
ARM GAS  /tmp/ccvPPVYB.s 			page 149


 8409 1a12 5C190000 		.4byte	0x195c
 8410 1a16 02       		.uleb128 0x2
 8411 1a17 91       		.byte	0x91
 8412 1a18 74       		.sleb128 -12
 8413 1a19 3F       		.uleb128 0x3f
 8414 1a1a 6D040000 		.4byte	.LASF377
 8415 1a1e 0C       		.byte	0xc
 8416 1a1f B402     		.2byte	0x2b4
 8417 1a21 B1030000 		.4byte	0x3b1
 8418 1a25 02       		.uleb128 0x2
 8419 1a26 91       		.byte	0x91
 8420 1a27 70       		.sleb128 -16
 8421 1a28 00       		.byte	0
 8422 1a29 3D       		.uleb128 0x3d
 8423 1a2a 10140000 		.4byte	0x1410
 8424 1a2e 0C       		.byte	0xc
 8425 1a2f AF02     		.2byte	0x2af
 8426 1a31 471A0000 		.4byte	0x1a47
 8427 1a35 00000000 		.4byte	.LFB323
 8428 1a39 16000000 		.4byte	.LFE323-.LFB323
 8429 1a3d 01       		.uleb128 0x1
 8430 1a3e 9C       		.byte	0x9c
 8431 1a3f 471A0000 		.4byte	0x1a47
 8432 1a43 541A0000 		.4byte	0x1a54
 8433 1a47 3E       		.uleb128 0x3e
 8434 1a48 3A0E0000 		.4byte	.LASF376
 8435 1a4c 5C190000 		.4byte	0x195c
 8436 1a50 02       		.uleb128 0x2
 8437 1a51 91       		.byte	0x91
 8438 1a52 74       		.sleb128 -12
 8439 1a53 00       		.byte	0
 8440 1a54 3D       		.uleb128 0x3d
 8441 1a55 F1130000 		.4byte	0x13f1
 8442 1a59 0C       		.byte	0xc
 8443 1a5a AA02     		.2byte	0x2aa
 8444 1a5c 721A0000 		.4byte	0x1a72
 8445 1a60 00000000 		.4byte	.LFB322
 8446 1a64 16000000 		.4byte	.LFE322-.LFB322
 8447 1a68 01       		.uleb128 0x1
 8448 1a69 9C       		.byte	0x9c
 8449 1a6a 721A0000 		.4byte	0x1a72
 8450 1a6e 7F1A0000 		.4byte	0x1a7f
 8451 1a72 3E       		.uleb128 0x3e
 8452 1a73 3A0E0000 		.4byte	.LASF376
 8453 1a77 5C190000 		.4byte	0x195c
 8454 1a7b 02       		.uleb128 0x2
 8455 1a7c 91       		.byte	0x91
 8456 1a7d 74       		.sleb128 -12
 8457 1a7e 00       		.byte	0
 8458 1a7f 3D       		.uleb128 0x3d
 8459 1a80 CC130000 		.4byte	0x13cc
 8460 1a84 0C       		.byte	0xc
 8461 1a85 A502     		.2byte	0x2a5
 8462 1a87 9D1A0000 		.4byte	0x1a9d
 8463 1a8b 00000000 		.4byte	.LFB321
 8464 1a8f 1C000000 		.4byte	.LFE321-.LFB321
 8465 1a93 01       		.uleb128 0x1
ARM GAS  /tmp/ccvPPVYB.s 			page 150


 8466 1a94 9C       		.byte	0x9c
 8467 1a95 9D1A0000 		.4byte	0x1a9d
 8468 1a99 C41A0000 		.4byte	0x1ac4
 8469 1a9d 3E       		.uleb128 0x3e
 8470 1a9e 3A0E0000 		.4byte	.LASF376
 8471 1aa2 5C190000 		.4byte	0x195c
 8472 1aa6 02       		.uleb128 0x2
 8473 1aa7 91       		.byte	0x91
 8474 1aa8 74       		.sleb128 -12
 8475 1aa9 40       		.uleb128 0x40
 8476 1aaa 7000     		.ascii	"p\000"
 8477 1aac 0C       		.byte	0xc
 8478 1aad A502     		.2byte	0x2a5
 8479 1aaf B1030000 		.4byte	0x3b1
 8480 1ab3 02       		.uleb128 0x2
 8481 1ab4 91       		.byte	0x91
 8482 1ab5 70       		.sleb128 -16
 8483 1ab6 40       		.uleb128 0x40
 8484 1ab7 6E00     		.ascii	"n\000"
 8485 1ab9 0C       		.byte	0xc
 8486 1aba A502     		.2byte	0x2a5
 8487 1abc 2C000000 		.4byte	0x2c
 8488 1ac0 02       		.uleb128 0x2
 8489 1ac1 91       		.byte	0x91
 8490 1ac2 6C       		.sleb128 -20
 8491 1ac3 00       		.byte	0
 8492 1ac4 41       		.uleb128 0x41
 8493 1ac5 99130000 		.4byte	0x1399
 8494 1ac9 0C       		.byte	0xc
 8495 1aca 9E02     		.2byte	0x29e
 8496 1acc 00       		.byte	0
 8497 1acd D51A0000 		.4byte	0x1ad5
 8498 1ad1 0B1B0000 		.4byte	0x1b0b
 8499 1ad5 42       		.uleb128 0x42
 8500 1ad6 3A0E0000 		.4byte	.LASF376
 8501 1ada 5C190000 		.4byte	0x195c
 8502 1ade 43       		.uleb128 0x43
 8503 1adf 16160000 		.4byte	.LASF378
 8504 1ae3 0C       		.byte	0xc
 8505 1ae4 9E02     		.2byte	0x29e
 8506 1ae6 2C000000 		.4byte	0x2c
 8507 1aea 43       		.uleb128 0x43
 8508 1aeb 87000000 		.4byte	.LASF379
 8509 1aef 0C       		.byte	0xc
 8510 1af0 9E02     		.2byte	0x29e
 8511 1af2 19090000 		.4byte	0x919
 8512 1af6 44       		.uleb128 0x44
 8513 1af7 7000     		.ascii	"p\000"
 8514 1af9 0C       		.byte	0xc
 8515 1afa 9E02     		.2byte	0x29e
 8516 1afc B1030000 		.4byte	0x3b1
 8517 1b00 44       		.uleb128 0x44
 8518 1b01 6E00     		.ascii	"n\000"
 8519 1b03 0C       		.byte	0xc
 8520 1b04 9E02     		.2byte	0x29e
 8521 1b06 2C000000 		.4byte	0x2c
 8522 1b0a 00       		.byte	0
ARM GAS  /tmp/ccvPPVYB.s 			page 151


 8523 1b0b 45       		.uleb128 0x45
 8524 1b0c C41A0000 		.4byte	0x1ac4
 8525 1b10 570C0000 		.4byte	.LASF380
 8526 1b14 2A1B0000 		.4byte	0x1b2a
 8527 1b18 00000000 		.4byte	.LFB319
 8528 1b1c 2C000000 		.4byte	.LFE319-.LFB319
 8529 1b20 01       		.uleb128 0x1
 8530 1b21 9C       		.byte	0x9c
 8531 1b22 2A1B0000 		.4byte	0x1b2a
 8532 1b26 531B0000 		.4byte	0x1b53
 8533 1b2a 46       		.uleb128 0x46
 8534 1b2b D51A0000 		.4byte	0x1ad5
 8535 1b2f 02       		.uleb128 0x2
 8536 1b30 91       		.byte	0x91
 8537 1b31 74       		.sleb128 -12
 8538 1b32 46       		.uleb128 0x46
 8539 1b33 DE1A0000 		.4byte	0x1ade
 8540 1b37 02       		.uleb128 0x2
 8541 1b38 91       		.byte	0x91
 8542 1b39 70       		.sleb128 -16
 8543 1b3a 46       		.uleb128 0x46
 8544 1b3b EA1A0000 		.4byte	0x1aea
 8545 1b3f 02       		.uleb128 0x2
 8546 1b40 91       		.byte	0x91
 8547 1b41 6C       		.sleb128 -20
 8548 1b42 46       		.uleb128 0x46
 8549 1b43 F61A0000 		.4byte	0x1af6
 8550 1b47 02       		.uleb128 0x2
 8551 1b48 91       		.byte	0x91
 8552 1b49 68       		.sleb128 -24
 8553 1b4a 46       		.uleb128 0x46
 8554 1b4b 001B0000 		.4byte	0x1b00
 8555 1b4f 02       		.uleb128 0x2
 8556 1b50 91       		.byte	0x91
 8557 1b51 00       		.sleb128 0
 8558 1b52 00       		.byte	0
 8559 1b53 41       		.uleb128 0x41
 8560 1b54 70130000 		.4byte	0x1370
 8561 1b58 0C       		.byte	0xc
 8562 1b59 9902     		.2byte	0x299
 8563 1b5b 00       		.byte	0
 8564 1b5c 641B0000 		.4byte	0x1b64
 8565 1b60 861B0000 		.4byte	0x1b86
 8566 1b64 42       		.uleb128 0x42
 8567 1b65 3A0E0000 		.4byte	.LASF376
 8568 1b69 5C190000 		.4byte	0x195c
 8569 1b6d 43       		.uleb128 0x43
 8570 1b6e 16160000 		.4byte	.LASF378
 8571 1b72 0C       		.byte	0xc
 8572 1b73 9902     		.2byte	0x299
 8573 1b75 2C000000 		.4byte	0x2c
 8574 1b79 43       		.uleb128 0x43
 8575 1b7a 87000000 		.4byte	.LASF379
 8576 1b7e 0C       		.byte	0xc
 8577 1b7f 9902     		.2byte	0x299
 8578 1b81 19090000 		.4byte	0x919
 8579 1b85 00       		.byte	0
ARM GAS  /tmp/ccvPPVYB.s 			page 152


 8580 1b86 45       		.uleb128 0x45
 8581 1b87 531B0000 		.4byte	0x1b53
 8582 1b8b F0010000 		.4byte	.LASF381
 8583 1b8f A51B0000 		.4byte	0x1ba5
 8584 1b93 00000000 		.4byte	.LFB316
 8585 1b97 1E000000 		.4byte	.LFE316-.LFB316
 8586 1b9b 01       		.uleb128 0x1
 8587 1b9c 9C       		.byte	0x9c
 8588 1b9d A51B0000 		.4byte	0x1ba5
 8589 1ba1 BE1B0000 		.4byte	0x1bbe
 8590 1ba5 46       		.uleb128 0x46
 8591 1ba6 641B0000 		.4byte	0x1b64
 8592 1baa 02       		.uleb128 0x2
 8593 1bab 91       		.byte	0x91
 8594 1bac 74       		.sleb128 -12
 8595 1bad 46       		.uleb128 0x46
 8596 1bae 6D1B0000 		.4byte	0x1b6d
 8597 1bb2 02       		.uleb128 0x2
 8598 1bb3 91       		.byte	0x91
 8599 1bb4 70       		.sleb128 -16
 8600 1bb5 46       		.uleb128 0x46
 8601 1bb6 791B0000 		.4byte	0x1b79
 8602 1bba 02       		.uleb128 0x2
 8603 1bbb 91       		.byte	0x91
 8604 1bbc 6C       		.sleb128 -20
 8605 1bbd 00       		.byte	0
 8606 1bbe 3D       		.uleb128 0x3d
 8607 1bbf 2A130000 		.4byte	0x132a
 8608 1bc3 0C       		.byte	0xc
 8609 1bc4 8F02     		.2byte	0x28f
 8610 1bc6 DC1B0000 		.4byte	0x1bdc
 8611 1bca 00000000 		.4byte	.LFB314
 8612 1bce 2A000000 		.4byte	.LFE314-.LFB314
 8613 1bd2 01       		.uleb128 0x1
 8614 1bd3 9C       		.byte	0x9c
 8615 1bd4 DC1B0000 		.4byte	0x1bdc
 8616 1bd8 131C0000 		.4byte	0x1c13
 8617 1bdc 3E       		.uleb128 0x3e
 8618 1bdd 3A0E0000 		.4byte	.LASF376
 8619 1be1 51190000 		.4byte	0x1951
 8620 1be5 02       		.uleb128 0x2
 8621 1be6 91       		.byte	0x91
 8622 1be7 74       		.sleb128 -12
 8623 1be8 40       		.uleb128 0x40
 8624 1be9 627000   		.ascii	"bp\000"
 8625 1bec 0C       		.byte	0xc
 8626 1bed 8F02     		.2byte	0x28f
 8627 1bef 4A0A0000 		.4byte	0xa4a
 8628 1bf3 02       		.uleb128 0x2
 8629 1bf4 91       		.byte	0x91
 8630 1bf5 70       		.sleb128 -16
 8631 1bf6 40       		.uleb128 0x40
 8632 1bf7 6E00     		.ascii	"n\000"
 8633 1bf9 0C       		.byte	0xc
 8634 1bfa 8F02     		.2byte	0x28f
 8635 1bfc 2C000000 		.4byte	0x2c
 8636 1c00 02       		.uleb128 0x2
ARM GAS  /tmp/ccvPPVYB.s 			page 153


 8637 1c01 91       		.byte	0x91
 8638 1c02 6C       		.sleb128 -20
 8639 1c03 3F       		.uleb128 0x3f
 8640 1c04 05190000 		.4byte	.LASF382
 8641 1c08 0C       		.byte	0xc
 8642 1c09 8F02     		.2byte	0x28f
 8643 1c0b 5D010000 		.4byte	0x15d
 8644 1c0f 02       		.uleb128 0x2
 8645 1c10 91       		.byte	0x91
 8646 1c11 6A       		.sleb128 -22
 8647 1c12 00       		.byte	0
 8648 1c13 3D       		.uleb128 0x3d
 8649 1c14 0B130000 		.4byte	0x130b
 8650 1c18 0C       		.byte	0xc
 8651 1c19 8A02     		.2byte	0x28a
 8652 1c1b 311C0000 		.4byte	0x1c31
 8653 1c1f 00000000 		.4byte	.LFB313
 8654 1c23 16000000 		.4byte	.LFE313-.LFB313
 8655 1c27 01       		.uleb128 0x1
 8656 1c28 9C       		.byte	0x9c
 8657 1c29 311C0000 		.4byte	0x1c31
 8658 1c2d 3E1C0000 		.4byte	0x1c3e
 8659 1c31 3E       		.uleb128 0x3e
 8660 1c32 3A0E0000 		.4byte	.LASF376
 8661 1c36 51190000 		.4byte	0x1951
 8662 1c3a 02       		.uleb128 0x2
 8663 1c3b 91       		.byte	0x91
 8664 1c3c 74       		.sleb128 -12
 8665 1c3d 00       		.byte	0
 8666 1c3e 3D       		.uleb128 0x3d
 8667 1c3f E2120000 		.4byte	0x12e2
 8668 1c43 0C       		.byte	0xc
 8669 1c44 8502     		.2byte	0x285
 8670 1c46 5C1C0000 		.4byte	0x1c5c
 8671 1c4a 00000000 		.4byte	.LFB312
 8672 1c4e 32000000 		.4byte	.LFE312-.LFB312
 8673 1c52 01       		.uleb128 0x1
 8674 1c53 9C       		.byte	0x9c
 8675 1c54 5C1C0000 		.4byte	0x1c5c
 8676 1c58 851C0000 		.4byte	0x1c85
 8677 1c5c 3E       		.uleb128 0x3e
 8678 1c5d 3A0E0000 		.4byte	.LASF376
 8679 1c61 51190000 		.4byte	0x1951
 8680 1c65 02       		.uleb128 0x2
 8681 1c66 91       		.byte	0x91
 8682 1c67 74       		.sleb128 -12
 8683 1c68 40       		.uleb128 0x40
 8684 1c69 6200     		.ascii	"b\000"
 8685 1c6b 0C       		.byte	0xc
 8686 1c6c 8502     		.2byte	0x285
 8687 1c6e BE000000 		.4byte	0xbe
 8688 1c72 02       		.uleb128 0x2
 8689 1c73 91       		.byte	0x91
 8690 1c74 73       		.sleb128 -13
 8691 1c75 3F       		.uleb128 0x3f
 8692 1c76 05190000 		.4byte	.LASF382
 8693 1c7a 0C       		.byte	0xc
ARM GAS  /tmp/ccvPPVYB.s 			page 154


 8694 1c7b 8502     		.2byte	0x285
 8695 1c7d 5D010000 		.4byte	0x15d
 8696 1c81 02       		.uleb128 0x2
 8697 1c82 91       		.byte	0x91
 8698 1c83 70       		.sleb128 -16
 8699 1c84 00       		.byte	0
 8700 1c85 3D       		.uleb128 0x3d
 8701 1c86 BE120000 		.4byte	0x12be
 8702 1c8a 0C       		.byte	0xc
 8703 1c8b 8002     		.2byte	0x280
 8704 1c8d A31C0000 		.4byte	0x1ca3
 8705 1c91 00000000 		.4byte	.LFB311
 8706 1c95 26000000 		.4byte	.LFE311-.LFB311
 8707 1c99 01       		.uleb128 0x1
 8708 1c9a 9C       		.byte	0x9c
 8709 1c9b A31C0000 		.4byte	0x1ca3
 8710 1c9f BD1C0000 		.4byte	0x1cbd
 8711 1ca3 3E       		.uleb128 0x3e
 8712 1ca4 3A0E0000 		.4byte	.LASF376
 8713 1ca8 51190000 		.4byte	0x1951
 8714 1cac 02       		.uleb128 0x2
 8715 1cad 91       		.byte	0x91
 8716 1cae 74       		.sleb128 -12
 8717 1caf 40       		.uleb128 0x40
 8718 1cb0 6200     		.ascii	"b\000"
 8719 1cb2 0C       		.byte	0xc
 8720 1cb3 8002     		.2byte	0x280
 8721 1cb5 BE000000 		.4byte	0xbe
 8722 1cb9 02       		.uleb128 0x2
 8723 1cba 91       		.byte	0x91
 8724 1cbb 73       		.sleb128 -13
 8725 1cbc 00       		.byte	0
 8726 1cbd 3D       		.uleb128 0x3d
 8727 1cbe A3120000 		.4byte	0x12a3
 8728 1cc2 0C       		.byte	0xc
 8729 1cc3 7B02     		.2byte	0x27b
 8730 1cc5 DB1C0000 		.4byte	0x1cdb
 8731 1cc9 00000000 		.4byte	.LFB310
 8732 1ccd 14000000 		.4byte	.LFE310-.LFB310
 8733 1cd1 01       		.uleb128 0x1
 8734 1cd2 9C       		.byte	0x9c
 8735 1cd3 DB1C0000 		.4byte	0x1cdb
 8736 1cd7 E81C0000 		.4byte	0x1ce8
 8737 1cdb 3E       		.uleb128 0x3e
 8738 1cdc 3A0E0000 		.4byte	.LASF376
 8739 1ce0 51190000 		.4byte	0x1951
 8740 1ce4 02       		.uleb128 0x2
 8741 1ce5 91       		.byte	0x91
 8742 1ce6 74       		.sleb128 -12
 8743 1ce7 00       		.byte	0
 8744 1ce8 3D       		.uleb128 0x3d
 8745 1ce9 84120000 		.4byte	0x1284
 8746 1ced 0C       		.byte	0xc
 8747 1cee 7602     		.2byte	0x276
 8748 1cf0 061D0000 		.4byte	0x1d06
 8749 1cf4 00000000 		.4byte	.LFB309
 8750 1cf8 16000000 		.4byte	.LFE309-.LFB309
ARM GAS  /tmp/ccvPPVYB.s 			page 155


 8751 1cfc 01       		.uleb128 0x1
 8752 1cfd 9C       		.byte	0x9c
 8753 1cfe 061D0000 		.4byte	0x1d06
 8754 1d02 131D0000 		.4byte	0x1d13
 8755 1d06 3E       		.uleb128 0x3e
 8756 1d07 3A0E0000 		.4byte	.LASF376
 8757 1d0b 51190000 		.4byte	0x1951
 8758 1d0f 02       		.uleb128 0x2
 8759 1d10 91       		.byte	0x91
 8760 1d11 74       		.sleb128 -12
 8761 1d12 00       		.byte	0
 8762 1d13 3D       		.uleb128 0x3d
 8763 1d14 65120000 		.4byte	0x1265
 8764 1d18 0C       		.byte	0xc
 8765 1d19 7102     		.2byte	0x271
 8766 1d1b 311D0000 		.4byte	0x1d31
 8767 1d1f 00000000 		.4byte	.LFB308
 8768 1d23 16000000 		.4byte	.LFE308-.LFB308
 8769 1d27 01       		.uleb128 0x1
 8770 1d28 9C       		.byte	0x9c
 8771 1d29 311D0000 		.4byte	0x1d31
 8772 1d2d 3E1D0000 		.4byte	0x1d3e
 8773 1d31 3E       		.uleb128 0x3e
 8774 1d32 3A0E0000 		.4byte	.LASF376
 8775 1d36 51190000 		.4byte	0x1951
 8776 1d3a 02       		.uleb128 0x2
 8777 1d3b 91       		.byte	0x91
 8778 1d3c 74       		.sleb128 -12
 8779 1d3d 00       		.byte	0
 8780 1d3e 3D       		.uleb128 0x3d
 8781 1d3f 46120000 		.4byte	0x1246
 8782 1d43 0C       		.byte	0xc
 8783 1d44 6C02     		.2byte	0x26c
 8784 1d46 5C1D0000 		.4byte	0x1d5c
 8785 1d4a 00000000 		.4byte	.LFB307
 8786 1d4e 16000000 		.4byte	.LFE307-.LFB307
 8787 1d52 01       		.uleb128 0x1
 8788 1d53 9C       		.byte	0x9c
 8789 1d54 5C1D0000 		.4byte	0x1d5c
 8790 1d58 691D0000 		.4byte	0x1d69
 8791 1d5c 3E       		.uleb128 0x3e
 8792 1d5d 3A0E0000 		.4byte	.LASF376
 8793 1d61 51190000 		.4byte	0x1951
 8794 1d65 02       		.uleb128 0x2
 8795 1d66 91       		.byte	0x91
 8796 1d67 74       		.sleb128 -12
 8797 1d68 00       		.byte	0
 8798 1d69 3D       		.uleb128 0x3d
 8799 1d6a 27120000 		.4byte	0x1227
 8800 1d6e 0C       		.byte	0xc
 8801 1d6f 6702     		.2byte	0x267
 8802 1d71 871D0000 		.4byte	0x1d87
 8803 1d75 00000000 		.4byte	.LFB306
 8804 1d79 16000000 		.4byte	.LFE306-.LFB306
 8805 1d7d 01       		.uleb128 0x1
 8806 1d7e 9C       		.byte	0x9c
 8807 1d7f 871D0000 		.4byte	0x1d87
ARM GAS  /tmp/ccvPPVYB.s 			page 156


 8808 1d83 941D0000 		.4byte	0x1d94
 8809 1d87 3E       		.uleb128 0x3e
 8810 1d88 3A0E0000 		.4byte	.LASF376
 8811 1d8c 51190000 		.4byte	0x1951
 8812 1d90 02       		.uleb128 0x2
 8813 1d91 91       		.byte	0x91
 8814 1d92 74       		.sleb128 -12
 8815 1d93 00       		.byte	0
 8816 1d94 41       		.uleb128 0x41
 8817 1d95 F4110000 		.4byte	0x11f4
 8818 1d99 0C       		.byte	0xc
 8819 1d9a 6202     		.2byte	0x262
 8820 1d9c 00       		.byte	0
 8821 1d9d A51D0000 		.4byte	0x1da5
 8822 1da1 DE1D0000 		.4byte	0x1dde
 8823 1da5 42       		.uleb128 0x42
 8824 1da6 3A0E0000 		.4byte	.LASF376
 8825 1daa 51190000 		.4byte	0x1951
 8826 1dae 44       		.uleb128 0x44
 8827 1daf 627000   		.ascii	"bp\000"
 8828 1db2 0C       		.byte	0xc
 8829 1db3 6202     		.2byte	0x262
 8830 1db5 2E0A0000 		.4byte	0xa2e
 8831 1db9 43       		.uleb128 0x43
 8832 1dba 16160000 		.4byte	.LASF378
 8833 1dbe 0C       		.byte	0xc
 8834 1dbf 6202     		.2byte	0x262
 8835 1dc1 2C000000 		.4byte	0x2c
 8836 1dc5 43       		.uleb128 0x43
 8837 1dc6 05170000 		.4byte	.LASF383
 8838 1dca 0C       		.byte	0xc
 8839 1dcb 6202     		.2byte	0x262
 8840 1dcd 0C0A0000 		.4byte	0xa0c
 8841 1dd1 43       		.uleb128 0x43
 8842 1dd2 350E0000 		.4byte	.LASF384
 8843 1dd6 0C       		.byte	0xc
 8844 1dd7 6202     		.2byte	0x262
 8845 1dd9 B1030000 		.4byte	0x3b1
 8846 1ddd 00       		.byte	0
 8847 1dde 45       		.uleb128 0x45
 8848 1ddf 941D0000 		.4byte	0x1d94
 8849 1de3 FD130000 		.4byte	.LASF385
 8850 1de7 FD1D0000 		.4byte	0x1dfd
 8851 1deb 00000000 		.4byte	.LFB304
 8852 1def 26000000 		.4byte	.LFE304-.LFB304
 8853 1df3 01       		.uleb128 0x1
 8854 1df4 9C       		.byte	0x9c
 8855 1df5 FD1D0000 		.4byte	0x1dfd
 8856 1df9 261E0000 		.4byte	0x1e26
 8857 1dfd 46       		.uleb128 0x46
 8858 1dfe A51D0000 		.4byte	0x1da5
 8859 1e02 02       		.uleb128 0x2
 8860 1e03 91       		.byte	0x91
 8861 1e04 74       		.sleb128 -12
 8862 1e05 46       		.uleb128 0x46
 8863 1e06 AE1D0000 		.4byte	0x1dae
 8864 1e0a 02       		.uleb128 0x2
ARM GAS  /tmp/ccvPPVYB.s 			page 157


 8865 1e0b 91       		.byte	0x91
 8866 1e0c 70       		.sleb128 -16
 8867 1e0d 46       		.uleb128 0x46
 8868 1e0e B91D0000 		.4byte	0x1db9
 8869 1e12 02       		.uleb128 0x2
 8870 1e13 91       		.byte	0x91
 8871 1e14 6C       		.sleb128 -20
 8872 1e15 46       		.uleb128 0x46
 8873 1e16 C51D0000 		.4byte	0x1dc5
 8874 1e1a 02       		.uleb128 0x2
 8875 1e1b 91       		.byte	0x91
 8876 1e1c 68       		.sleb128 -24
 8877 1e1d 46       		.uleb128 0x46
 8878 1e1e D11D0000 		.4byte	0x1dd1
 8879 1e22 02       		.uleb128 0x2
 8880 1e23 91       		.byte	0x91
 8881 1e24 00       		.sleb128 0
 8882 1e25 00       		.byte	0
 8883 1e26 3D       		.uleb128 0x3d
 8884 1e27 B0110000 		.4byte	0x11b0
 8885 1e2b 0C       		.byte	0xc
 8886 1e2c 5A02     		.2byte	0x25a
 8887 1e2e 441E0000 		.4byte	0x1e44
 8888 1e32 00000000 		.4byte	.LFB302
 8889 1e36 2A000000 		.4byte	.LFE302-.LFB302
 8890 1e3a 01       		.uleb128 0x1
 8891 1e3b 9C       		.byte	0x9c
 8892 1e3c 441E0000 		.4byte	0x1e44
 8893 1e40 7B1E0000 		.4byte	0x1e7b
 8894 1e44 3E       		.uleb128 0x3e
 8895 1e45 3A0E0000 		.4byte	.LASF376
 8896 1e49 46190000 		.4byte	0x1946
 8897 1e4d 02       		.uleb128 0x2
 8898 1e4e 91       		.byte	0x91
 8899 1e4f 74       		.sleb128 -12
 8900 1e50 40       		.uleb128 0x40
 8901 1e51 627000   		.ascii	"bp\000"
 8902 1e54 0C       		.byte	0xc
 8903 1e55 5A02     		.2byte	0x25a
 8904 1e57 2E0A0000 		.4byte	0xa2e
 8905 1e5b 02       		.uleb128 0x2
 8906 1e5c 91       		.byte	0x91
 8907 1e5d 70       		.sleb128 -16
 8908 1e5e 40       		.uleb128 0x40
 8909 1e5f 6E00     		.ascii	"n\000"
 8910 1e61 0C       		.byte	0xc
 8911 1e62 5A02     		.2byte	0x25a
 8912 1e64 2C000000 		.4byte	0x2c
 8913 1e68 02       		.uleb128 0x2
 8914 1e69 91       		.byte	0x91
 8915 1e6a 6C       		.sleb128 -20
 8916 1e6b 3F       		.uleb128 0x3f
 8917 1e6c 05190000 		.4byte	.LASF382
 8918 1e70 0C       		.byte	0xc
 8919 1e71 5A02     		.2byte	0x25a
 8920 1e73 5D010000 		.4byte	0x15d
 8921 1e77 02       		.uleb128 0x2
ARM GAS  /tmp/ccvPPVYB.s 			page 158


 8922 1e78 91       		.byte	0x91
 8923 1e79 6A       		.sleb128 -22
 8924 1e7a 00       		.byte	0
 8925 1e7b 3D       		.uleb128 0x3d
 8926 1e7c 8C110000 		.4byte	0x118c
 8927 1e80 0C       		.byte	0xc
 8928 1e81 5502     		.2byte	0x255
 8929 1e83 991E0000 		.4byte	0x1e99
 8930 1e87 00000000 		.4byte	.LFB301
 8931 1e8b 26000000 		.4byte	.LFE301-.LFB301
 8932 1e8f 01       		.uleb128 0x1
 8933 1e90 9C       		.byte	0x9c
 8934 1e91 991E0000 		.4byte	0x1e99
 8935 1e95 B51E0000 		.4byte	0x1eb5
 8936 1e99 3E       		.uleb128 0x3e
 8937 1e9a 3A0E0000 		.4byte	.LASF376
 8938 1e9e 46190000 		.4byte	0x1946
 8939 1ea2 02       		.uleb128 0x2
 8940 1ea3 91       		.byte	0x91
 8941 1ea4 74       		.sleb128 -12
 8942 1ea5 3F       		.uleb128 0x3f
 8943 1ea6 05190000 		.4byte	.LASF382
 8944 1eaa 0C       		.byte	0xc
 8945 1eab 5502     		.2byte	0x255
 8946 1ead 5D010000 		.4byte	0x15d
 8947 1eb1 02       		.uleb128 0x2
 8948 1eb2 91       		.byte	0x91
 8949 1eb3 72       		.sleb128 -14
 8950 1eb4 00       		.byte	0
 8951 1eb5 3D       		.uleb128 0x3d
 8952 1eb6 6D110000 		.4byte	0x116d
 8953 1eba 0C       		.byte	0xc
 8954 1ebb 5002     		.2byte	0x250
 8955 1ebd D31E0000 		.4byte	0x1ed3
 8956 1ec1 00000000 		.4byte	.LFB300
 8957 1ec5 16000000 		.4byte	.LFE300-.LFB300
 8958 1ec9 01       		.uleb128 0x1
 8959 1eca 9C       		.byte	0x9c
 8960 1ecb D31E0000 		.4byte	0x1ed3
 8961 1ecf E01E0000 		.4byte	0x1ee0
 8962 1ed3 3E       		.uleb128 0x3e
 8963 1ed4 3A0E0000 		.4byte	.LASF376
 8964 1ed8 46190000 		.4byte	0x1946
 8965 1edc 02       		.uleb128 0x2
 8966 1edd 91       		.byte	0x91
 8967 1ede 74       		.sleb128 -12
 8968 1edf 00       		.byte	0
 8969 1ee0 3D       		.uleb128 0x3d
 8970 1ee1 49110000 		.4byte	0x1149
 8971 1ee5 0C       		.byte	0xc
 8972 1ee6 4B02     		.2byte	0x24b
 8973 1ee8 FE1E0000 		.4byte	0x1efe
 8974 1eec 00000000 		.4byte	.LFB299
 8975 1ef0 26000000 		.4byte	.LFE299-.LFB299
 8976 1ef4 01       		.uleb128 0x1
 8977 1ef5 9C       		.byte	0x9c
 8978 1ef6 FE1E0000 		.4byte	0x1efe
ARM GAS  /tmp/ccvPPVYB.s 			page 159


 8979 1efa 181F0000 		.4byte	0x1f18
 8980 1efe 3E       		.uleb128 0x3e
 8981 1eff 3A0E0000 		.4byte	.LASF376
 8982 1f03 46190000 		.4byte	0x1946
 8983 1f07 02       		.uleb128 0x2
 8984 1f08 91       		.byte	0x91
 8985 1f09 74       		.sleb128 -12
 8986 1f0a 40       		.uleb128 0x40
 8987 1f0b 6200     		.ascii	"b\000"
 8988 1f0d 0C       		.byte	0xc
 8989 1f0e 4B02     		.2byte	0x24b
 8990 1f10 BE000000 		.4byte	0xbe
 8991 1f14 02       		.uleb128 0x2
 8992 1f15 91       		.byte	0x91
 8993 1f16 73       		.sleb128 -13
 8994 1f17 00       		.byte	0
 8995 1f18 3D       		.uleb128 0x3d
 8996 1f19 2E110000 		.4byte	0x112e
 8997 1f1d 0C       		.byte	0xc
 8998 1f1e 4602     		.2byte	0x246
 8999 1f20 361F0000 		.4byte	0x1f36
 9000 1f24 00000000 		.4byte	.LFB298
 9001 1f28 14000000 		.4byte	.LFE298-.LFB298
 9002 1f2c 01       		.uleb128 0x1
 9003 1f2d 9C       		.byte	0x9c
 9004 1f2e 361F0000 		.4byte	0x1f36
 9005 1f32 431F0000 		.4byte	0x1f43
 9006 1f36 3E       		.uleb128 0x3e
 9007 1f37 3A0E0000 		.4byte	.LASF376
 9008 1f3b 46190000 		.4byte	0x1946
 9009 1f3f 02       		.uleb128 0x2
 9010 1f40 91       		.byte	0x91
 9011 1f41 74       		.sleb128 -12
 9012 1f42 00       		.byte	0
 9013 1f43 3D       		.uleb128 0x3d
 9014 1f44 0F110000 		.4byte	0x110f
 9015 1f48 0C       		.byte	0xc
 9016 1f49 4102     		.2byte	0x241
 9017 1f4b 611F0000 		.4byte	0x1f61
 9018 1f4f 00000000 		.4byte	.LFB297
 9019 1f53 16000000 		.4byte	.LFE297-.LFB297
 9020 1f57 01       		.uleb128 0x1
 9021 1f58 9C       		.byte	0x9c
 9022 1f59 611F0000 		.4byte	0x1f61
 9023 1f5d 6E1F0000 		.4byte	0x1f6e
 9024 1f61 3E       		.uleb128 0x3e
 9025 1f62 3A0E0000 		.4byte	.LASF376
 9026 1f66 46190000 		.4byte	0x1946
 9027 1f6a 02       		.uleb128 0x2
 9028 1f6b 91       		.byte	0x91
 9029 1f6c 74       		.sleb128 -12
 9030 1f6d 00       		.byte	0
 9031 1f6e 3D       		.uleb128 0x3d
 9032 1f6f F0100000 		.4byte	0x10f0
 9033 1f73 0C       		.byte	0xc
 9034 1f74 3C02     		.2byte	0x23c
 9035 1f76 8C1F0000 		.4byte	0x1f8c
ARM GAS  /tmp/ccvPPVYB.s 			page 160


 9036 1f7a 00000000 		.4byte	.LFB296
 9037 1f7e 16000000 		.4byte	.LFE296-.LFB296
 9038 1f82 01       		.uleb128 0x1
 9039 1f83 9C       		.byte	0x9c
 9040 1f84 8C1F0000 		.4byte	0x1f8c
 9041 1f88 991F0000 		.4byte	0x1f99
 9042 1f8c 3E       		.uleb128 0x3e
 9043 1f8d 3A0E0000 		.4byte	.LASF376
 9044 1f91 46190000 		.4byte	0x1946
 9045 1f95 02       		.uleb128 0x2
 9046 1f96 91       		.byte	0x91
 9047 1f97 74       		.sleb128 -12
 9048 1f98 00       		.byte	0
 9049 1f99 3D       		.uleb128 0x3d
 9050 1f9a D1100000 		.4byte	0x10d1
 9051 1f9e 0C       		.byte	0xc
 9052 1f9f 3702     		.2byte	0x237
 9053 1fa1 B71F0000 		.4byte	0x1fb7
 9054 1fa5 00000000 		.4byte	.LFB295
 9055 1fa9 16000000 		.4byte	.LFE295-.LFB295
 9056 1fad 01       		.uleb128 0x1
 9057 1fae 9C       		.byte	0x9c
 9058 1faf B71F0000 		.4byte	0x1fb7
 9059 1fb3 C41F0000 		.4byte	0x1fc4
 9060 1fb7 3E       		.uleb128 0x3e
 9061 1fb8 3A0E0000 		.4byte	.LASF376
 9062 1fbc 46190000 		.4byte	0x1946
 9063 1fc0 02       		.uleb128 0x2
 9064 1fc1 91       		.byte	0x91
 9065 1fc2 74       		.sleb128 -12
 9066 1fc3 00       		.byte	0
 9067 1fc4 3D       		.uleb128 0x3d
 9068 1fc5 B2100000 		.4byte	0x10b2
 9069 1fc9 0C       		.byte	0xc
 9070 1fca 3202     		.2byte	0x232
 9071 1fcc E21F0000 		.4byte	0x1fe2
 9072 1fd0 00000000 		.4byte	.LFB294
 9073 1fd4 16000000 		.4byte	.LFE294-.LFB294
 9074 1fd8 01       		.uleb128 0x1
 9075 1fd9 9C       		.byte	0x9c
 9076 1fda E21F0000 		.4byte	0x1fe2
 9077 1fde EF1F0000 		.4byte	0x1fef
 9078 1fe2 3E       		.uleb128 0x3e
 9079 1fe3 3A0E0000 		.4byte	.LASF376
 9080 1fe7 46190000 		.4byte	0x1946
 9081 1feb 02       		.uleb128 0x2
 9082 1fec 91       		.byte	0x91
 9083 1fed 74       		.sleb128 -12
 9084 1fee 00       		.byte	0
 9085 1fef 41       		.uleb128 0x41
 9086 1ff0 7F100000 		.4byte	0x107f
 9087 1ff4 0C       		.byte	0xc
 9088 1ff5 2D02     		.2byte	0x22d
 9089 1ff7 00       		.byte	0
 9090 1ff8 00200000 		.4byte	0x2000
 9091 1ffc 39200000 		.4byte	0x2039
 9092 2000 42       		.uleb128 0x42
ARM GAS  /tmp/ccvPPVYB.s 			page 161


 9093 2001 3A0E0000 		.4byte	.LASF376
 9094 2005 46190000 		.4byte	0x1946
 9095 2009 44       		.uleb128 0x44
 9096 200a 627000   		.ascii	"bp\000"
 9097 200d 0C       		.byte	0xc
 9098 200e 2D02     		.2byte	0x22d
 9099 2010 2E0A0000 		.4byte	0xa2e
 9100 2014 43       		.uleb128 0x43
 9101 2015 16160000 		.4byte	.LASF378
 9102 2019 0C       		.byte	0xc
 9103 201a 2D02     		.2byte	0x22d
 9104 201c 2C000000 		.4byte	0x2c
 9105 2020 43       		.uleb128 0x43
 9106 2021 A5150000 		.4byte	.LASF386
 9107 2025 0C       		.byte	0xc
 9108 2026 2D02     		.2byte	0x22d
 9109 2028 0C0A0000 		.4byte	0xa0c
 9110 202c 43       		.uleb128 0x43
 9111 202d 350E0000 		.4byte	.LASF384
 9112 2031 0C       		.byte	0xc
 9113 2032 2D02     		.2byte	0x22d
 9114 2034 B1030000 		.4byte	0x3b1
 9115 2038 00       		.byte	0
 9116 2039 45       		.uleb128 0x45
 9117 203a EF1F0000 		.4byte	0x1fef
 9118 203e EE190000 		.4byte	.LASF387
 9119 2042 58200000 		.4byte	0x2058
 9120 2046 00000000 		.4byte	.LFB292
 9121 204a 26000000 		.4byte	.LFE292-.LFB292
 9122 204e 01       		.uleb128 0x1
 9123 204f 9C       		.byte	0x9c
 9124 2050 58200000 		.4byte	0x2058
 9125 2054 81200000 		.4byte	0x2081
 9126 2058 46       		.uleb128 0x46
 9127 2059 00200000 		.4byte	0x2000
 9128 205d 02       		.uleb128 0x2
 9129 205e 91       		.byte	0x91
 9130 205f 74       		.sleb128 -12
 9131 2060 46       		.uleb128 0x46
 9132 2061 09200000 		.4byte	0x2009
 9133 2065 02       		.uleb128 0x2
 9134 2066 91       		.byte	0x91
 9135 2067 70       		.sleb128 -16
 9136 2068 46       		.uleb128 0x46
 9137 2069 14200000 		.4byte	0x2014
 9138 206d 02       		.uleb128 0x2
 9139 206e 91       		.byte	0x91
 9140 206f 6C       		.sleb128 -20
 9141 2070 46       		.uleb128 0x46
 9142 2071 20200000 		.4byte	0x2020
 9143 2075 02       		.uleb128 0x2
 9144 2076 91       		.byte	0x91
 9145 2077 68       		.sleb128 -24
 9146 2078 46       		.uleb128 0x46
 9147 2079 2C200000 		.4byte	0x202c
 9148 207d 02       		.uleb128 0x2
 9149 207e 91       		.byte	0x91
ARM GAS  /tmp/ccvPPVYB.s 			page 162


 9150 207f 00       		.sleb128 0
 9151 2080 00       		.byte	0
 9152 2081 3D       		.uleb128 0x3d
 9153 2082 49100000 		.4byte	0x1049
 9154 2086 0C       		.byte	0xc
 9155 2087 2302     		.2byte	0x223
 9156 2089 9F200000 		.4byte	0x209f
 9157 208d 00000000 		.4byte	.LFB290
 9158 2091 1A000000 		.4byte	.LFE290-.LFB290
 9159 2095 01       		.uleb128 0x1
 9160 2096 9C       		.byte	0x9c
 9161 2097 9F200000 		.4byte	0x209f
 9162 209b BB200000 		.4byte	0x20bb
 9163 209f 3E       		.uleb128 0x3e
 9164 20a0 3A0E0000 		.4byte	.LASF376
 9165 20a4 3B190000 		.4byte	0x193b
 9166 20a8 02       		.uleb128 0x2
 9167 20a9 91       		.byte	0x91
 9168 20aa 74       		.sleb128 -12
 9169 20ab 3F       		.uleb128 0x3f
 9170 20ac E20A0000 		.4byte	.LASF388
 9171 20b0 0C       		.byte	0xc
 9172 20b1 2302     		.2byte	0x223
 9173 20b3 47010000 		.4byte	0x147
 9174 20b7 02       		.uleb128 0x2
 9175 20b8 91       		.byte	0x91
 9176 20b9 70       		.sleb128 -16
 9177 20ba 00       		.byte	0
 9178 20bb 3D       		.uleb128 0x3d
 9179 20bc 29100000 		.4byte	0x1029
 9180 20c0 0C       		.byte	0xc
 9181 20c1 1E02     		.2byte	0x21e
 9182 20c3 D9200000 		.4byte	0x20d9
 9183 20c7 00000000 		.4byte	.LFB289
 9184 20cb 1A000000 		.4byte	.LFE289-.LFB289
 9185 20cf 01       		.uleb128 0x1
 9186 20d0 9C       		.byte	0x9c
 9187 20d1 D9200000 		.4byte	0x20d9
 9188 20d5 F5200000 		.4byte	0x20f5
 9189 20d9 3E       		.uleb128 0x3e
 9190 20da 3A0E0000 		.4byte	.LASF376
 9191 20de 3B190000 		.4byte	0x193b
 9192 20e2 02       		.uleb128 0x2
 9193 20e3 91       		.byte	0x91
 9194 20e4 74       		.sleb128 -12
 9195 20e5 3F       		.uleb128 0x3f
 9196 20e6 E20A0000 		.4byte	.LASF388
 9197 20ea 0C       		.byte	0xc
 9198 20eb 1E02     		.2byte	0x21e
 9199 20ed 47010000 		.4byte	0x147
 9200 20f1 02       		.uleb128 0x2
 9201 20f2 91       		.byte	0x91
 9202 20f3 70       		.sleb128 -16
 9203 20f4 00       		.byte	0
 9204 20f5 3D       		.uleb128 0x3d
 9205 20f6 09100000 		.4byte	0x1009
 9206 20fa 0C       		.byte	0xc
ARM GAS  /tmp/ccvPPVYB.s 			page 163


 9207 20fb 1902     		.2byte	0x219
 9208 20fd 13210000 		.4byte	0x2113
 9209 2101 00000000 		.4byte	.LFB288
 9210 2105 1A000000 		.4byte	.LFE288-.LFB288
 9211 2109 01       		.uleb128 0x1
 9212 210a 9C       		.byte	0x9c
 9213 210b 13210000 		.4byte	0x2113
 9214 210f 2F210000 		.4byte	0x212f
 9215 2113 3E       		.uleb128 0x3e
 9216 2114 3A0E0000 		.4byte	.LASF376
 9217 2118 3B190000 		.4byte	0x193b
 9218 211c 02       		.uleb128 0x2
 9219 211d 91       		.byte	0x91
 9220 211e 74       		.sleb128 -12
 9221 211f 40       		.uleb128 0x40
 9222 2120 656C7000 		.ascii	"elp\000"
 9223 2124 0C       		.byte	0xc
 9224 2125 1902     		.2byte	0x219
 9225 2127 2A190000 		.4byte	0x192a
 9226 212b 02       		.uleb128 0x2
 9227 212c 91       		.byte	0x91
 9228 212d 70       		.sleb128 -16
 9229 212e 00       		.byte	0
 9230 212f 3D       		.uleb128 0x3d
 9231 2130 E40F0000 		.4byte	0xfe4
 9232 2134 0C       		.byte	0xc
 9233 2135 1302     		.2byte	0x213
 9234 2137 4D210000 		.4byte	0x214d
 9235 213b 00000000 		.4byte	.LFB287
 9236 213f 1C000000 		.4byte	.LFE287-.LFB287
 9237 2143 01       		.uleb128 0x1
 9238 2144 9C       		.byte	0x9c
 9239 2145 4D210000 		.4byte	0x214d
 9240 2149 78210000 		.4byte	0x2178
 9241 214d 3E       		.uleb128 0x3e
 9242 214e 3A0E0000 		.4byte	.LASF376
 9243 2152 3B190000 		.4byte	0x193b
 9244 2156 02       		.uleb128 0x2
 9245 2157 91       		.byte	0x91
 9246 2158 74       		.sleb128 -12
 9247 2159 40       		.uleb128 0x40
 9248 215a 656C7000 		.ascii	"elp\000"
 9249 215e 0C       		.byte	0xc
 9250 215f 1302     		.2byte	0x213
 9251 2161 2A190000 		.4byte	0x192a
 9252 2165 02       		.uleb128 0x2
 9253 2166 91       		.byte	0x91
 9254 2167 70       		.sleb128 -16
 9255 2168 3F       		.uleb128 0x3f
 9256 2169 DE0B0000 		.4byte	.LASF389
 9257 216d 0C       		.byte	0xc
 9258 216e 1402     		.2byte	0x214
 9259 2170 3C010000 		.4byte	0x13c
 9260 2174 02       		.uleb128 0x2
 9261 2175 91       		.byte	0x91
 9262 2176 6C       		.sleb128 -20
 9263 2177 00       		.byte	0
ARM GAS  /tmp/ccvPPVYB.s 			page 164


 9264 2178 3D       		.uleb128 0x3d
 9265 2179 BF0F0000 		.4byte	0xfbf
 9266 217d 0C       		.byte	0xc
 9267 217e 0D02     		.2byte	0x20d
 9268 2180 96210000 		.4byte	0x2196
 9269 2184 00000000 		.4byte	.LFB286
 9270 2188 1C000000 		.4byte	.LFE286-.LFB286
 9271 218c 01       		.uleb128 0x1
 9272 218d 9C       		.byte	0x9c
 9273 218e 96210000 		.4byte	0x2196
 9274 2192 C1210000 		.4byte	0x21c1
 9275 2196 3E       		.uleb128 0x3e
 9276 2197 3A0E0000 		.4byte	.LASF376
 9277 219b 3B190000 		.4byte	0x193b
 9278 219f 02       		.uleb128 0x2
 9279 21a0 91       		.byte	0x91
 9280 21a1 74       		.sleb128 -12
 9281 21a2 40       		.uleb128 0x40
 9282 21a3 656C7000 		.ascii	"elp\000"
 9283 21a7 0C       		.byte	0xc
 9284 21a8 0D02     		.2byte	0x20d
 9285 21aa 2A190000 		.4byte	0x192a
 9286 21ae 02       		.uleb128 0x2
 9287 21af 91       		.byte	0x91
 9288 21b0 70       		.sleb128 -16
 9289 21b1 40       		.uleb128 0x40
 9290 21b2 65696400 		.ascii	"eid\000"
 9291 21b6 0C       		.byte	0xc
 9292 21b7 0E02     		.2byte	0x20e
 9293 21b9 31010000 		.4byte	0x131
 9294 21bd 02       		.uleb128 0x2
 9295 21be 91       		.byte	0x91
 9296 21bf 6C       		.sleb128 -20
 9297 21c0 00       		.byte	0
 9298 21c1 41       		.uleb128 0x41
 9299 21c2 A00F0000 		.4byte	0xfa0
 9300 21c6 0C       		.byte	0xc
 9301 21c7 0802     		.2byte	0x208
 9302 21c9 00       		.byte	0
 9303 21ca D2210000 		.4byte	0x21d2
 9304 21ce DC210000 		.4byte	0x21dc
 9305 21d2 42       		.uleb128 0x42
 9306 21d3 3A0E0000 		.4byte	.LASF376
 9307 21d7 3B190000 		.4byte	0x193b
 9308 21db 00       		.byte	0
 9309 21dc 45       		.uleb128 0x45
 9310 21dd C1210000 		.4byte	0x21c1
 9311 21e1 08070000 		.4byte	.LASF390
 9312 21e5 FB210000 		.4byte	0x21fb
 9313 21e9 00000000 		.4byte	.LFB284
 9314 21ed 16000000 		.4byte	.LFE284-.LFB284
 9315 21f1 01       		.uleb128 0x1
 9316 21f2 9C       		.byte	0x9c
 9317 21f3 FB210000 		.4byte	0x21fb
 9318 21f7 04220000 		.4byte	0x2204
 9319 21fb 46       		.uleb128 0x46
 9320 21fc D2210000 		.4byte	0x21d2
ARM GAS  /tmp/ccvPPVYB.s 			page 165


 9321 2200 02       		.uleb128 0x2
 9322 2201 91       		.byte	0x91
 9323 2202 74       		.sleb128 -12
 9324 2203 00       		.byte	0
 9325 2204 3D       		.uleb128 0x3d
 9326 2205 690F0000 		.4byte	0xf69
 9327 2209 0C       		.byte	0xc
 9328 220a 0002     		.2byte	0x200
 9329 220c 22220000 		.4byte	0x2222
 9330 2210 00000000 		.4byte	.LFB282
 9331 2214 16000000 		.4byte	.LFE282-.LFB282
 9332 2218 01       		.uleb128 0x1
 9333 2219 9C       		.byte	0x9c
 9334 221a 22220000 		.4byte	0x2222
 9335 221e 2F220000 		.4byte	0x222f
 9336 2222 3E       		.uleb128 0x3e
 9337 2223 3A0E0000 		.4byte	.LASF376
 9338 2227 30190000 		.4byte	0x1930
 9339 222b 02       		.uleb128 0x2
 9340 222c 91       		.byte	0x91
 9341 222d 74       		.sleb128 -12
 9342 222e 00       		.byte	0
 9343 222f 3D       		.uleb128 0x3d
 9344 2230 4A0F0000 		.4byte	0xf4a
 9345 2234 0C       		.byte	0xc
 9346 2235 FB01     		.2byte	0x1fb
 9347 2237 4D220000 		.4byte	0x224d
 9348 223b 00000000 		.4byte	.LFB281
 9349 223f 16000000 		.4byte	.LFE281-.LFB281
 9350 2243 01       		.uleb128 0x1
 9351 2244 9C       		.byte	0x9c
 9352 2245 4D220000 		.4byte	0x224d
 9353 2249 5A220000 		.4byte	0x225a
 9354 224d 3E       		.uleb128 0x3e
 9355 224e 3A0E0000 		.4byte	.LASF376
 9356 2252 30190000 		.4byte	0x1930
 9357 2256 02       		.uleb128 0x2
 9358 2257 91       		.byte	0x91
 9359 2258 74       		.sleb128 -12
 9360 2259 00       		.byte	0
 9361 225a 3D       		.uleb128 0x3d
 9362 225b 0E0F0000 		.4byte	0xf0e
 9363 225f 0C       		.byte	0xc
 9364 2260 EF01     		.2byte	0x1ef
 9365 2262 78220000 		.4byte	0x2278
 9366 2266 00000000 		.4byte	.LFB280
 9367 226a 26000000 		.4byte	.LFE280-.LFB280
 9368 226e 01       		.uleb128 0x1
 9369 226f 9C       		.byte	0x9c
 9370 2270 78220000 		.4byte	0x2278
 9371 2274 94220000 		.4byte	0x2294
 9372 2278 3E       		.uleb128 0x3e
 9373 2279 3A0E0000 		.4byte	.LASF376
 9374 227d 25190000 		.4byte	0x1925
 9375 2281 02       		.uleb128 0x2
 9376 2282 91       		.byte	0x91
 9377 2283 74       		.sleb128 -12
ARM GAS  /tmp/ccvPPVYB.s 			page 166


 9378 2284 3F       		.uleb128 0x3f
 9379 2285 05190000 		.4byte	.LASF382
 9380 2289 0C       		.byte	0xc
 9381 228a EF01     		.2byte	0x1ef
 9382 228c 5D010000 		.4byte	0x15d
 9383 2290 02       		.uleb128 0x2
 9384 2291 91       		.byte	0x91
 9385 2292 72       		.sleb128 -14
 9386 2293 00       		.byte	0
 9387 2294 3D       		.uleb128 0x3d
 9388 2295 EF0E0000 		.4byte	0xeef
 9389 2299 0C       		.byte	0xc
 9390 229a E901     		.2byte	0x1e9
 9391 229c B2220000 		.4byte	0x22b2
 9392 22a0 00000000 		.4byte	.LFB279
 9393 22a4 16000000 		.4byte	.LFE279-.LFB279
 9394 22a8 01       		.uleb128 0x1
 9395 22a9 9C       		.byte	0x9c
 9396 22aa B2220000 		.4byte	0x22b2
 9397 22ae BF220000 		.4byte	0x22bf
 9398 22b2 3E       		.uleb128 0x3e
 9399 22b3 3A0E0000 		.4byte	.LASF376
 9400 22b7 25190000 		.4byte	0x1925
 9401 22bb 02       		.uleb128 0x2
 9402 22bc 91       		.byte	0x91
 9403 22bd 74       		.sleb128 -12
 9404 22be 00       		.byte	0
 9405 22bf 3D       		.uleb128 0x3d
 9406 22c0 D00E0000 		.4byte	0xed0
 9407 22c4 0C       		.byte	0xc
 9408 22c5 E401     		.2byte	0x1e4
 9409 22c7 DD220000 		.4byte	0x22dd
 9410 22cb 00000000 		.4byte	.LFB278
 9411 22cf 16000000 		.4byte	.LFE278-.LFB278
 9412 22d3 01       		.uleb128 0x1
 9413 22d4 9C       		.byte	0x9c
 9414 22d5 DD220000 		.4byte	0x22dd
 9415 22d9 EA220000 		.4byte	0x22ea
 9416 22dd 3E       		.uleb128 0x3e
 9417 22de 3A0E0000 		.4byte	.LASF376
 9418 22e2 25190000 		.4byte	0x1925
 9419 22e6 02       		.uleb128 0x2
 9420 22e7 91       		.byte	0x91
 9421 22e8 74       		.sleb128 -12
 9422 22e9 00       		.byte	0
 9423 22ea 3D       		.uleb128 0x3d
 9424 22eb B50E0000 		.4byte	0xeb5
 9425 22ef 0C       		.byte	0xc
 9426 22f0 DF01     		.2byte	0x1df
 9427 22f2 08230000 		.4byte	0x2308
 9428 22f6 00000000 		.4byte	.LFB277
 9429 22fa 14000000 		.4byte	.LFE277-.LFB277
 9430 22fe 01       		.uleb128 0x1
 9431 22ff 9C       		.byte	0x9c
 9432 2300 08230000 		.4byte	0x2308
 9433 2304 15230000 		.4byte	0x2315
 9434 2308 3E       		.uleb128 0x3e
ARM GAS  /tmp/ccvPPVYB.s 			page 167


 9435 2309 3A0E0000 		.4byte	.LASF376
 9436 230d 25190000 		.4byte	0x1925
 9437 2311 02       		.uleb128 0x2
 9438 2312 91       		.byte	0x91
 9439 2313 74       		.sleb128 -12
 9440 2314 00       		.byte	0
 9441 2315 3D       		.uleb128 0x3d
 9442 2316 9A0E0000 		.4byte	0xe9a
 9443 231a 0C       		.byte	0xc
 9444 231b DA01     		.2byte	0x1da
 9445 231d 33230000 		.4byte	0x2333
 9446 2321 00000000 		.4byte	.LFB276
 9447 2325 14000000 		.4byte	.LFE276-.LFB276
 9448 2329 01       		.uleb128 0x1
 9449 232a 9C       		.byte	0x9c
 9450 232b 33230000 		.4byte	0x2333
 9451 232f 40230000 		.4byte	0x2340
 9452 2333 3E       		.uleb128 0x3e
 9453 2334 3A0E0000 		.4byte	.LASF376
 9454 2338 25190000 		.4byte	0x1925
 9455 233c 02       		.uleb128 0x2
 9456 233d 91       		.byte	0x91
 9457 233e 74       		.sleb128 -12
 9458 233f 00       		.byte	0
 9459 2340 3D       		.uleb128 0x3d
 9460 2341 7F0E0000 		.4byte	0xe7f
 9461 2345 0C       		.byte	0xc
 9462 2346 D501     		.2byte	0x1d5
 9463 2348 5E230000 		.4byte	0x235e
 9464 234c 00000000 		.4byte	.LFB275
 9465 2350 14000000 		.4byte	.LFE275-.LFB275
 9466 2354 01       		.uleb128 0x1
 9467 2355 9C       		.byte	0x9c
 9468 2356 5E230000 		.4byte	0x235e
 9469 235a 6B230000 		.4byte	0x236b
 9470 235e 3E       		.uleb128 0x3e
 9471 235f 3A0E0000 		.4byte	.LASF376
 9472 2363 25190000 		.4byte	0x1925
 9473 2367 02       		.uleb128 0x2
 9474 2368 91       		.byte	0x91
 9475 2369 74       		.sleb128 -12
 9476 236a 00       		.byte	0
 9477 236b 3D       		.uleb128 0x3d
 9478 236c 640E0000 		.4byte	0xe64
 9479 2370 0C       		.byte	0xc
 9480 2371 D001     		.2byte	0x1d0
 9481 2373 89230000 		.4byte	0x2389
 9482 2377 00000000 		.4byte	.LFB274
 9483 237b 14000000 		.4byte	.LFE274-.LFB274
 9484 237f 01       		.uleb128 0x1
 9485 2380 9C       		.byte	0x9c
 9486 2381 89230000 		.4byte	0x2389
 9487 2385 96230000 		.4byte	0x2396
 9488 2389 3E       		.uleb128 0x3e
 9489 238a 3A0E0000 		.4byte	.LASF376
 9490 238e 25190000 		.4byte	0x1925
 9491 2392 02       		.uleb128 0x2
ARM GAS  /tmp/ccvPPVYB.s 			page 168


 9492 2393 91       		.byte	0x91
 9493 2394 74       		.sleb128 -12
 9494 2395 00       		.byte	0
 9495 2396 41       		.uleb128 0x41
 9496 2397 450E0000 		.4byte	0xe45
 9497 239b 0C       		.byte	0xc
 9498 239c CB01     		.2byte	0x1cb
 9499 239e 00       		.byte	0
 9500 239f A7230000 		.4byte	0x23a7
 9501 23a3 B1230000 		.4byte	0x23b1
 9502 23a7 42       		.uleb128 0x42
 9503 23a8 3A0E0000 		.4byte	.LASF376
 9504 23ac 25190000 		.4byte	0x1925
 9505 23b0 00       		.byte	0
 9506 23b1 45       		.uleb128 0x45
 9507 23b2 96230000 		.4byte	0x2396
 9508 23b6 9E0F0000 		.4byte	.LASF391
 9509 23ba D0230000 		.4byte	0x23d0
 9510 23be 00000000 		.4byte	.LFB272
 9511 23c2 16000000 		.4byte	.LFE272-.LFB272
 9512 23c6 01       		.uleb128 0x1
 9513 23c7 9C       		.byte	0x9c
 9514 23c8 D0230000 		.4byte	0x23d0
 9515 23cc D9230000 		.4byte	0x23d9
 9516 23d0 46       		.uleb128 0x46
 9517 23d1 A7230000 		.4byte	0x23a7
 9518 23d5 02       		.uleb128 0x2
 9519 23d6 91       		.byte	0x91
 9520 23d7 74       		.sleb128 -12
 9521 23d8 00       		.byte	0
 9522 23d9 3D       		.uleb128 0x3d
 9523 23da 120E0000 		.4byte	0xe12
 9524 23de 0C       		.byte	0xc
 9525 23df C201     		.2byte	0x1c2
 9526 23e1 F7230000 		.4byte	0x23f7
 9527 23e5 00000000 		.4byte	.LFB270
 9528 23e9 14000000 		.4byte	.LFE270-.LFB270
 9529 23ed 01       		.uleb128 0x1
 9530 23ee 9C       		.byte	0x9c
 9531 23ef F7230000 		.4byte	0x23f7
 9532 23f3 04240000 		.4byte	0x2404
 9533 23f7 3E       		.uleb128 0x3e
 9534 23f8 3A0E0000 		.4byte	.LASF376
 9535 23fc 1A190000 		.4byte	0x191a
 9536 2400 02       		.uleb128 0x2
 9537 2401 91       		.byte	0x91
 9538 2402 74       		.sleb128 -12
 9539 2403 00       		.byte	0
 9540 2404 3D       		.uleb128 0x3d
 9541 2405 F70D0000 		.4byte	0xdf7
 9542 2409 0C       		.byte	0xc
 9543 240a BD01     		.2byte	0x1bd
 9544 240c 22240000 		.4byte	0x2422
 9545 2410 00000000 		.4byte	.LFB269
 9546 2414 14000000 		.4byte	.LFE269-.LFB269
 9547 2418 01       		.uleb128 0x1
 9548 2419 9C       		.byte	0x9c
ARM GAS  /tmp/ccvPPVYB.s 			page 169


 9549 241a 22240000 		.4byte	0x2422
 9550 241e 2F240000 		.4byte	0x242f
 9551 2422 3E       		.uleb128 0x3e
 9552 2423 3A0E0000 		.4byte	.LASF376
 9553 2427 1A190000 		.4byte	0x191a
 9554 242b 02       		.uleb128 0x2
 9555 242c 91       		.byte	0x91
 9556 242d 74       		.sleb128 -12
 9557 242e 00       		.byte	0
 9558 242f 3D       		.uleb128 0x3d
 9559 2430 DC0D0000 		.4byte	0xddc
 9560 2434 0C       		.byte	0xc
 9561 2435 B801     		.2byte	0x1b8
 9562 2437 4D240000 		.4byte	0x244d
 9563 243b 00000000 		.4byte	.LFB268
 9564 243f 14000000 		.4byte	.LFE268-.LFB268
 9565 2443 01       		.uleb128 0x1
 9566 2444 9C       		.byte	0x9c
 9567 2445 4D240000 		.4byte	0x244d
 9568 2449 5A240000 		.4byte	0x245a
 9569 244d 3E       		.uleb128 0x3e
 9570 244e 3A0E0000 		.4byte	.LASF376
 9571 2452 1A190000 		.4byte	0x191a
 9572 2456 02       		.uleb128 0x2
 9573 2457 91       		.byte	0x91
 9574 2458 74       		.sleb128 -12
 9575 2459 00       		.byte	0
 9576 245a 3D       		.uleb128 0x3d
 9577 245b C10D0000 		.4byte	0xdc1
 9578 245f 0C       		.byte	0xc
 9579 2460 B301     		.2byte	0x1b3
 9580 2462 78240000 		.4byte	0x2478
 9581 2466 00000000 		.4byte	.LFB267
 9582 246a 14000000 		.4byte	.LFE267-.LFB267
 9583 246e 01       		.uleb128 0x1
 9584 246f 9C       		.byte	0x9c
 9585 2470 78240000 		.4byte	0x2478
 9586 2474 85240000 		.4byte	0x2485
 9587 2478 3E       		.uleb128 0x3e
 9588 2479 3A0E0000 		.4byte	.LASF376
 9589 247d 1A190000 		.4byte	0x191a
 9590 2481 02       		.uleb128 0x2
 9591 2482 91       		.byte	0x91
 9592 2483 74       		.sleb128 -12
 9593 2484 00       		.byte	0
 9594 2485 3D       		.uleb128 0x3d
 9595 2486 A20D0000 		.4byte	0xda2
 9596 248a 0C       		.byte	0xc
 9597 248b AE01     		.2byte	0x1ae
 9598 248d A3240000 		.4byte	0x24a3
 9599 2491 00000000 		.4byte	.LFB266
 9600 2495 16000000 		.4byte	.LFE266-.LFB266
 9601 2499 01       		.uleb128 0x1
 9602 249a 9C       		.byte	0x9c
 9603 249b A3240000 		.4byte	0x24a3
 9604 249f B0240000 		.4byte	0x24b0
 9605 24a3 3E       		.uleb128 0x3e
ARM GAS  /tmp/ccvPPVYB.s 			page 170


 9606 24a4 3A0E0000 		.4byte	.LASF376
 9607 24a8 1A190000 		.4byte	0x191a
 9608 24ac 02       		.uleb128 0x2
 9609 24ad 91       		.byte	0x91
 9610 24ae 74       		.sleb128 -12
 9611 24af 00       		.byte	0
 9612 24b0 3D       		.uleb128 0x3d
 9613 24b1 830D0000 		.4byte	0xd83
 9614 24b5 0C       		.byte	0xc
 9615 24b6 A901     		.2byte	0x1a9
 9616 24b8 CE240000 		.4byte	0x24ce
 9617 24bc 00000000 		.4byte	.LFB265
 9618 24c0 16000000 		.4byte	.LFE265-.LFB265
 9619 24c4 01       		.uleb128 0x1
 9620 24c5 9C       		.byte	0x9c
 9621 24c6 CE240000 		.4byte	0x24ce
 9622 24ca DB240000 		.4byte	0x24db
 9623 24ce 3E       		.uleb128 0x3e
 9624 24cf 3A0E0000 		.4byte	.LASF376
 9625 24d3 1A190000 		.4byte	0x191a
 9626 24d7 02       		.uleb128 0x2
 9627 24d8 91       		.byte	0x91
 9628 24d9 74       		.sleb128 -12
 9629 24da 00       		.byte	0
 9630 24db 41       		.uleb128 0x41
 9631 24dc 640D0000 		.4byte	0xd64
 9632 24e0 0C       		.byte	0xc
 9633 24e1 A401     		.2byte	0x1a4
 9634 24e3 00       		.byte	0
 9635 24e4 EC240000 		.4byte	0x24ec
 9636 24e8 F6240000 		.4byte	0x24f6
 9637 24ec 42       		.uleb128 0x42
 9638 24ed 3A0E0000 		.4byte	.LASF376
 9639 24f1 1A190000 		.4byte	0x191a
 9640 24f5 00       		.byte	0
 9641 24f6 45       		.uleb128 0x45
 9642 24f7 DB240000 		.4byte	0x24db
 9643 24fb EE0E0000 		.4byte	.LASF392
 9644 24ff 15250000 		.4byte	0x2515
 9645 2503 00000000 		.4byte	.LFB263
 9646 2507 16000000 		.4byte	.LFE263-.LFB263
 9647 250b 01       		.uleb128 0x1
 9648 250c 9C       		.byte	0x9c
 9649 250d 15250000 		.4byte	0x2515
 9650 2511 1E250000 		.4byte	0x251e
 9651 2515 46       		.uleb128 0x46
 9652 2516 EC240000 		.4byte	0x24ec
 9653 251a 02       		.uleb128 0x2
 9654 251b 91       		.byte	0x91
 9655 251c 74       		.sleb128 -12
 9656 251d 00       		.byte	0
 9657 251e 3D       		.uleb128 0x3d
 9658 251f 2D0D0000 		.4byte	0xd2d
 9659 2523 0C       		.byte	0xc
 9660 2524 9A01     		.2byte	0x19a
 9661 2526 3C250000 		.4byte	0x253c
 9662 252a 00000000 		.4byte	.LFB261
ARM GAS  /tmp/ccvPPVYB.s 			page 171


 9663 252e 16000000 		.4byte	.LFE261-.LFB261
 9664 2532 01       		.uleb128 0x1
 9665 2533 9C       		.byte	0x9c
 9666 2534 3C250000 		.4byte	0x253c
 9667 2538 49250000 		.4byte	0x2549
 9668 253c 3E       		.uleb128 0x3e
 9669 253d 3A0E0000 		.4byte	.LASF376
 9670 2541 0F190000 		.4byte	0x190f
 9671 2545 02       		.uleb128 0x2
 9672 2546 91       		.byte	0x91
 9673 2547 74       		.sleb128 -12
 9674 2548 00       		.byte	0
 9675 2549 3D       		.uleb128 0x3d
 9676 254a 120D0000 		.4byte	0xd12
 9677 254e 0C       		.byte	0xc
 9678 254f 9501     		.2byte	0x195
 9679 2551 67250000 		.4byte	0x2567
 9680 2555 00000000 		.4byte	.LFB260
 9681 2559 14000000 		.4byte	.LFE260-.LFB260
 9682 255d 01       		.uleb128 0x1
 9683 255e 9C       		.byte	0x9c
 9684 255f 67250000 		.4byte	0x2567
 9685 2563 74250000 		.4byte	0x2574
 9686 2567 3E       		.uleb128 0x3e
 9687 2568 3A0E0000 		.4byte	.LASF376
 9688 256c 0F190000 		.4byte	0x190f
 9689 2570 02       		.uleb128 0x2
 9690 2571 91       		.byte	0x91
 9691 2572 74       		.sleb128 -12
 9692 2573 00       		.byte	0
 9693 2574 3D       		.uleb128 0x3d
 9694 2575 F70C0000 		.4byte	0xcf7
 9695 2579 0C       		.byte	0xc
 9696 257a 9001     		.2byte	0x190
 9697 257c 92250000 		.4byte	0x2592
 9698 2580 00000000 		.4byte	.LFB259
 9699 2584 14000000 		.4byte	.LFE259-.LFB259
 9700 2588 01       		.uleb128 0x1
 9701 2589 9C       		.byte	0x9c
 9702 258a 92250000 		.4byte	0x2592
 9703 258e 9F250000 		.4byte	0x259f
 9704 2592 3E       		.uleb128 0x3e
 9705 2593 3A0E0000 		.4byte	.LASF376
 9706 2597 0F190000 		.4byte	0x190f
 9707 259b 02       		.uleb128 0x2
 9708 259c 91       		.byte	0x91
 9709 259d 74       		.sleb128 -12
 9710 259e 00       		.byte	0
 9711 259f 3D       		.uleb128 0x3d
 9712 25a0 D70C0000 		.4byte	0xcd7
 9713 25a4 0C       		.byte	0xc
 9714 25a5 8B01     		.2byte	0x18b
 9715 25a7 BD250000 		.4byte	0x25bd
 9716 25ab 00000000 		.4byte	.LFB258
 9717 25af 24000000 		.4byte	.LFE258-.LFB258
 9718 25b3 01       		.uleb128 0x1
 9719 25b4 9C       		.byte	0x9c
ARM GAS  /tmp/ccvPPVYB.s 			page 172


 9720 25b5 BD250000 		.4byte	0x25bd
 9721 25b9 D9250000 		.4byte	0x25d9
 9722 25bd 3E       		.uleb128 0x3e
 9723 25be 3A0E0000 		.4byte	.LASF376
 9724 25c2 0F190000 		.4byte	0x190f
 9725 25c6 02       		.uleb128 0x2
 9726 25c7 91       		.byte	0x91
 9727 25c8 74       		.sleb128 -12
 9728 25c9 3F       		.uleb128 0x3f
 9729 25ca 7D1C0000 		.4byte	.LASF393
 9730 25ce 0C       		.byte	0xc
 9731 25cf 8B01     		.2byte	0x18b
 9732 25d1 12090000 		.4byte	0x912
 9733 25d5 02       		.uleb128 0x2
 9734 25d6 91       		.byte	0x91
 9735 25d7 73       		.sleb128 -13
 9736 25d8 00       		.byte	0
 9737 25d9 3D       		.uleb128 0x3d
 9738 25da B70C0000 		.4byte	0xcb7
 9739 25de 0C       		.byte	0xc
 9740 25df 8601     		.2byte	0x186
 9741 25e1 F7250000 		.4byte	0x25f7
 9742 25e5 00000000 		.4byte	.LFB257
 9743 25e9 24000000 		.4byte	.LFE257-.LFB257
 9744 25ed 01       		.uleb128 0x1
 9745 25ee 9C       		.byte	0x9c
 9746 25ef F7250000 		.4byte	0x25f7
 9747 25f3 13260000 		.4byte	0x2613
 9748 25f7 3E       		.uleb128 0x3e
 9749 25f8 3A0E0000 		.4byte	.LASF376
 9750 25fc 0F190000 		.4byte	0x190f
 9751 2600 02       		.uleb128 0x2
 9752 2601 91       		.byte	0x91
 9753 2602 74       		.sleb128 -12
 9754 2603 3F       		.uleb128 0x3f
 9755 2604 7D1C0000 		.4byte	.LASF393
 9756 2608 0C       		.byte	0xc
 9757 2609 8601     		.2byte	0x186
 9758 260b 12090000 		.4byte	0x912
 9759 260f 02       		.uleb128 0x2
 9760 2610 91       		.byte	0x91
 9761 2611 73       		.sleb128 -13
 9762 2612 00       		.byte	0
 9763 2613 3D       		.uleb128 0x3d
 9764 2614 930C0000 		.4byte	0xc93
 9765 2618 0C       		.byte	0xc
 9766 2619 8101     		.2byte	0x181
 9767 261b 31260000 		.4byte	0x2631
 9768 261f 00000000 		.4byte	.LFB256
 9769 2623 26000000 		.4byte	.LFE256-.LFB256
 9770 2627 01       		.uleb128 0x1
 9771 2628 9C       		.byte	0x9c
 9772 2629 31260000 		.4byte	0x2631
 9773 262d 4D260000 		.4byte	0x264d
 9774 2631 3E       		.uleb128 0x3e
 9775 2632 3A0E0000 		.4byte	.LASF376
 9776 2636 0F190000 		.4byte	0x190f
ARM GAS  /tmp/ccvPPVYB.s 			page 173


 9777 263a 02       		.uleb128 0x2
 9778 263b 91       		.byte	0x91
 9779 263c 74       		.sleb128 -12
 9780 263d 3F       		.uleb128 0x3f
 9781 263e 05190000 		.4byte	.LASF382
 9782 2642 0C       		.byte	0xc
 9783 2643 8101     		.2byte	0x181
 9784 2645 5D010000 		.4byte	0x15d
 9785 2649 02       		.uleb128 0x2
 9786 264a 91       		.byte	0x91
 9787 264b 72       		.sleb128 -14
 9788 264c 00       		.byte	0
 9789 264d 3D       		.uleb128 0x3d
 9790 264e 6F0C0000 		.4byte	0xc6f
 9791 2652 0C       		.byte	0xc
 9792 2653 7C01     		.2byte	0x17c
 9793 2655 6B260000 		.4byte	0x266b
 9794 2659 00000000 		.4byte	.LFB255
 9795 265d 26000000 		.4byte	.LFE255-.LFB255
 9796 2661 01       		.uleb128 0x1
 9797 2662 9C       		.byte	0x9c
 9798 2663 6B260000 		.4byte	0x266b
 9799 2667 87260000 		.4byte	0x2687
 9800 266b 3E       		.uleb128 0x3e
 9801 266c 3A0E0000 		.4byte	.LASF376
 9802 2670 0F190000 		.4byte	0x190f
 9803 2674 02       		.uleb128 0x2
 9804 2675 91       		.byte	0x91
 9805 2676 74       		.sleb128 -12
 9806 2677 3F       		.uleb128 0x3f
 9807 2678 05190000 		.4byte	.LASF382
 9808 267c 0C       		.byte	0xc
 9809 267d 7C01     		.2byte	0x17c
 9810 267f 5D010000 		.4byte	0x15d
 9811 2683 02       		.uleb128 0x2
 9812 2684 91       		.byte	0x91
 9813 2685 72       		.sleb128 -14
 9814 2686 00       		.byte	0
 9815 2687 3D       		.uleb128 0x3d
 9816 2688 500C0000 		.4byte	0xc50
 9817 268c 0C       		.byte	0xc
 9818 268d 7701     		.2byte	0x177
 9819 268f A5260000 		.4byte	0x26a5
 9820 2693 00000000 		.4byte	.LFB254
 9821 2697 16000000 		.4byte	.LFE254-.LFB254
 9822 269b 01       		.uleb128 0x1
 9823 269c 9C       		.byte	0x9c
 9824 269d A5260000 		.4byte	0x26a5
 9825 26a1 B2260000 		.4byte	0x26b2
 9826 26a5 3E       		.uleb128 0x3e
 9827 26a6 3A0E0000 		.4byte	.LASF376
 9828 26aa 0F190000 		.4byte	0x190f
 9829 26ae 02       		.uleb128 0x2
 9830 26af 91       		.byte	0x91
 9831 26b0 74       		.sleb128 -12
 9832 26b1 00       		.byte	0
 9833 26b2 3D       		.uleb128 0x3d
ARM GAS  /tmp/ccvPPVYB.s 			page 174


 9834 26b3 310C0000 		.4byte	0xc31
 9835 26b7 0C       		.byte	0xc
 9836 26b8 7201     		.2byte	0x172
 9837 26ba D0260000 		.4byte	0x26d0
 9838 26be 00000000 		.4byte	.LFB253
 9839 26c2 16000000 		.4byte	.LFE253-.LFB253
 9840 26c6 01       		.uleb128 0x1
 9841 26c7 9C       		.byte	0x9c
 9842 26c8 D0260000 		.4byte	0x26d0
 9843 26cc DD260000 		.4byte	0x26dd
 9844 26d0 3E       		.uleb128 0x3e
 9845 26d1 3A0E0000 		.4byte	.LASF376
 9846 26d5 0F190000 		.4byte	0x190f
 9847 26d9 02       		.uleb128 0x2
 9848 26da 91       		.byte	0x91
 9849 26db 74       		.sleb128 -12
 9850 26dc 00       		.byte	0
 9851 26dd 41       		.uleb128 0x41
 9852 26de 0D0C0000 		.4byte	0xc0d
 9853 26e2 0C       		.byte	0xc
 9854 26e3 6D01     		.2byte	0x16d
 9855 26e5 00       		.byte	0
 9856 26e6 EE260000 		.4byte	0x26ee
 9857 26ea 04270000 		.4byte	0x2704
 9858 26ee 42       		.uleb128 0x42
 9859 26ef 3A0E0000 		.4byte	.LASF376
 9860 26f3 0F190000 		.4byte	0x190f
 9861 26f7 43       		.uleb128 0x43
 9862 26f8 7D1C0000 		.4byte	.LASF393
 9863 26fc 0C       		.byte	0xc
 9864 26fd 6D01     		.2byte	0x16d
 9865 26ff 12090000 		.4byte	0x912
 9866 2703 00       		.byte	0
 9867 2704 45       		.uleb128 0x45
 9868 2705 DD260000 		.4byte	0x26dd
 9869 2709 7F190000 		.4byte	.LASF394
 9870 270d 23270000 		.4byte	0x2723
 9871 2711 00000000 		.4byte	.LFB251
 9872 2715 26000000 		.4byte	.LFE251-.LFB251
 9873 2719 01       		.uleb128 0x1
 9874 271a 9C       		.byte	0x9c
 9875 271b 23270000 		.4byte	0x2723
 9876 271f 34270000 		.4byte	0x2734
 9877 2723 46       		.uleb128 0x46
 9878 2724 EE260000 		.4byte	0x26ee
 9879 2728 02       		.uleb128 0x2
 9880 2729 91       		.byte	0x91
 9881 272a 74       		.sleb128 -12
 9882 272b 46       		.uleb128 0x46
 9883 272c F7260000 		.4byte	0x26f7
 9884 2730 02       		.uleb128 0x2
 9885 2731 91       		.byte	0x91
 9886 2732 73       		.sleb128 -13
 9887 2733 00       		.byte	0
 9888 2734 47       		.uleb128 0x47
 9889 2735 D50B0000 		.4byte	0xbd5
 9890 2739 0C       		.byte	0xc
ARM GAS  /tmp/ccvPPVYB.s 			page 175


 9891 273a 6401     		.2byte	0x164
 9892 273c 00000000 		.4byte	.LFB249
 9893 2740 1C000000 		.4byte	.LFE249-.LFB249
 9894 2744 01       		.uleb128 0x1
 9895 2745 9C       		.byte	0x9c
 9896 2746 69270000 		.4byte	0x2769
 9897 274a 3F       		.uleb128 0x3f
 9898 274b 54000000 		.4byte	.LASF395
 9899 274f 0C       		.byte	0xc
 9900 2750 6401     		.2byte	0x164
 9901 2752 FE180000 		.4byte	0x18fe
 9902 2756 02       		.uleb128 0x2
 9903 2757 91       		.byte	0x91
 9904 2758 74       		.sleb128 -12
 9905 2759 3F       		.uleb128 0x3f
 9906 275a EA000000 		.4byte	.LASF396
 9907 275e 0C       		.byte	0xc
 9908 275f 6501     		.2byte	0x165
 9909 2761 FE180000 		.4byte	0x18fe
 9910 2765 02       		.uleb128 0x2
 9911 2766 91       		.byte	0x91
 9912 2767 70       		.sleb128 -16
 9913 2768 00       		.byte	0
 9914 2769 3D       		.uleb128 0x3d
 9915 276a B60B0000 		.4byte	0xbb6
 9916 276e 0C       		.byte	0xc
 9917 276f 5F01     		.2byte	0x15f
 9918 2771 87270000 		.4byte	0x2787
 9919 2775 00000000 		.4byte	.LFB248
 9920 2779 16000000 		.4byte	.LFE248-.LFB248
 9921 277d 01       		.uleb128 0x1
 9922 277e 9C       		.byte	0x9c
 9923 277f 87270000 		.4byte	0x2787
 9924 2783 94270000 		.4byte	0x2794
 9925 2787 3E       		.uleb128 0x3e
 9926 2788 3A0E0000 		.4byte	.LASF376
 9927 278c 04190000 		.4byte	0x1904
 9928 2790 02       		.uleb128 0x2
 9929 2791 91       		.byte	0x91
 9930 2792 74       		.sleb128 -12
 9931 2793 00       		.byte	0
 9932 2794 3D       		.uleb128 0x3d
 9933 2795 960B0000 		.4byte	0xb96
 9934 2799 0C       		.byte	0xc
 9935 279a 5A01     		.2byte	0x15a
 9936 279c B2270000 		.4byte	0x27b2
 9937 27a0 00000000 		.4byte	.LFB247
 9938 27a4 1A000000 		.4byte	.LFE247-.LFB247
 9939 27a8 01       		.uleb128 0x1
 9940 27a9 9C       		.byte	0x9c
 9941 27aa B2270000 		.4byte	0x27b2
 9942 27ae CC270000 		.4byte	0x27cc
 9943 27b2 3E       		.uleb128 0x3e
 9944 27b3 3A0E0000 		.4byte	.LASF376
 9945 27b7 04190000 		.4byte	0x1904
 9946 27bb 02       		.uleb128 0x2
 9947 27bc 91       		.byte	0x91
ARM GAS  /tmp/ccvPPVYB.s 			page 176


 9948 27bd 74       		.sleb128 -12
 9949 27be 40       		.uleb128 0x40
 9950 27bf 6E00     		.ascii	"n\000"
 9951 27c1 0C       		.byte	0xc
 9952 27c2 5A01     		.2byte	0x15a
 9953 27c4 52010000 		.4byte	0x152
 9954 27c8 02       		.uleb128 0x2
 9955 27c9 91       		.byte	0x91
 9956 27ca 70       		.sleb128 -16
 9957 27cb 00       		.byte	0
 9958 27cc 3D       		.uleb128 0x3d
 9959 27cd 7B0B0000 		.4byte	0xb7b
 9960 27d1 0C       		.byte	0xc
 9961 27d2 5501     		.2byte	0x155
 9962 27d4 EA270000 		.4byte	0x27ea
 9963 27d8 00000000 		.4byte	.LFB246
 9964 27dc 14000000 		.4byte	.LFE246-.LFB246
 9965 27e0 01       		.uleb128 0x1
 9966 27e1 9C       		.byte	0x9c
 9967 27e2 EA270000 		.4byte	0x27ea
 9968 27e6 F7270000 		.4byte	0x27f7
 9969 27ea 3E       		.uleb128 0x3e
 9970 27eb 3A0E0000 		.4byte	.LASF376
 9971 27ef 04190000 		.4byte	0x1904
 9972 27f3 02       		.uleb128 0x2
 9973 27f4 91       		.byte	0x91
 9974 27f5 74       		.sleb128 -12
 9975 27f6 00       		.byte	0
 9976 27f7 3D       		.uleb128 0x3d
 9977 27f8 600B0000 		.4byte	0xb60
 9978 27fc 0C       		.byte	0xc
 9979 27fd 5001     		.2byte	0x150
 9980 27ff 15280000 		.4byte	0x2815
 9981 2803 00000000 		.4byte	.LFB245
 9982 2807 14000000 		.4byte	.LFE245-.LFB245
 9983 280b 01       		.uleb128 0x1
 9984 280c 9C       		.byte	0x9c
 9985 280d 15280000 		.4byte	0x2815
 9986 2811 22280000 		.4byte	0x2822
 9987 2815 3E       		.uleb128 0x3e
 9988 2816 3A0E0000 		.4byte	.LASF376
 9989 281a 04190000 		.4byte	0x1904
 9990 281e 02       		.uleb128 0x2
 9991 281f 91       		.byte	0x91
 9992 2820 74       		.sleb128 -12
 9993 2821 00       		.byte	0
 9994 2822 3D       		.uleb128 0x3d
 9995 2823 3C0B0000 		.4byte	0xb3c
 9996 2827 0C       		.byte	0xc
 9997 2828 4B01     		.2byte	0x14b
 9998 282a 40280000 		.4byte	0x2840
 9999 282e 00000000 		.4byte	.LFB244
 10000 2832 26000000 		.4byte	.LFE244-.LFB244
 10001 2836 01       		.uleb128 0x1
 10002 2837 9C       		.byte	0x9c
 10003 2838 40280000 		.4byte	0x2840
 10004 283c 5C280000 		.4byte	0x285c
ARM GAS  /tmp/ccvPPVYB.s 			page 177


 10005 2840 3E       		.uleb128 0x3e
 10006 2841 3A0E0000 		.4byte	.LASF376
 10007 2845 04190000 		.4byte	0x1904
 10008 2849 02       		.uleb128 0x2
 10009 284a 91       		.byte	0x91
 10010 284b 74       		.sleb128 -12
 10011 284c 3F       		.uleb128 0x3f
 10012 284d 05190000 		.4byte	.LASF382
 10013 2851 0C       		.byte	0xc
 10014 2852 4B01     		.2byte	0x14b
 10015 2854 5D010000 		.4byte	0x15d
 10016 2858 02       		.uleb128 0x2
 10017 2859 91       		.byte	0x91
 10018 285a 72       		.sleb128 -14
 10019 285b 00       		.byte	0
 10020 285c 3D       		.uleb128 0x3d
 10021 285d 180B0000 		.4byte	0xb18
 10022 2861 0C       		.byte	0xc
 10023 2862 4601     		.2byte	0x146
 10024 2864 7A280000 		.4byte	0x287a
 10025 2868 00000000 		.4byte	.LFB243
 10026 286c 26000000 		.4byte	.LFE243-.LFB243
 10027 2870 01       		.uleb128 0x1
 10028 2871 9C       		.byte	0x9c
 10029 2872 7A280000 		.4byte	0x287a
 10030 2876 96280000 		.4byte	0x2896
 10031 287a 3E       		.uleb128 0x3e
 10032 287b 3A0E0000 		.4byte	.LASF376
 10033 287f 04190000 		.4byte	0x1904
 10034 2883 02       		.uleb128 0x2
 10035 2884 91       		.byte	0x91
 10036 2885 74       		.sleb128 -12
 10037 2886 3F       		.uleb128 0x3f
 10038 2887 05190000 		.4byte	.LASF382
 10039 288b 0C       		.byte	0xc
 10040 288c 4601     		.2byte	0x146
 10041 288e 5D010000 		.4byte	0x15d
 10042 2892 02       		.uleb128 0x2
 10043 2893 91       		.byte	0x91
 10044 2894 72       		.sleb128 -14
 10045 2895 00       		.byte	0
 10046 2896 3D       		.uleb128 0x3d
 10047 2897 F90A0000 		.4byte	0xaf9
 10048 289b 0C       		.byte	0xc
 10049 289c 4101     		.2byte	0x141
 10050 289e B4280000 		.4byte	0x28b4
 10051 28a2 00000000 		.4byte	.LFB242
 10052 28a6 16000000 		.4byte	.LFE242-.LFB242
 10053 28aa 01       		.uleb128 0x1
 10054 28ab 9C       		.byte	0x9c
 10055 28ac B4280000 		.4byte	0x28b4
 10056 28b0 C1280000 		.4byte	0x28c1
 10057 28b4 3E       		.uleb128 0x3e
 10058 28b5 3A0E0000 		.4byte	.LASF376
 10059 28b9 04190000 		.4byte	0x1904
 10060 28bd 02       		.uleb128 0x2
 10061 28be 91       		.byte	0x91
ARM GAS  /tmp/ccvPPVYB.s 			page 178


 10062 28bf 74       		.sleb128 -12
 10063 28c0 00       		.byte	0
 10064 28c1 3D       		.uleb128 0x3d
 10065 28c2 DA0A0000 		.4byte	0xada
 10066 28c6 0C       		.byte	0xc
 10067 28c7 3C01     		.2byte	0x13c
 10068 28c9 DF280000 		.4byte	0x28df
 10069 28cd 00000000 		.4byte	.LFB241
 10070 28d1 16000000 		.4byte	.LFE241-.LFB241
 10071 28d5 01       		.uleb128 0x1
 10072 28d6 9C       		.byte	0x9c
 10073 28d7 DF280000 		.4byte	0x28df
 10074 28db EC280000 		.4byte	0x28ec
 10075 28df 3E       		.uleb128 0x3e
 10076 28e0 3A0E0000 		.4byte	.LASF376
 10077 28e4 04190000 		.4byte	0x1904
 10078 28e8 02       		.uleb128 0x2
 10079 28e9 91       		.byte	0x91
 10080 28ea 74       		.sleb128 -12
 10081 28eb 00       		.byte	0
 10082 28ec 3D       		.uleb128 0x3d
 10083 28ed BA0A0000 		.4byte	0xaba
 10084 28f1 0C       		.byte	0xc
 10085 28f2 3701     		.2byte	0x137
 10086 28f4 0A290000 		.4byte	0x290a
 10087 28f8 00000000 		.4byte	.LFB240
 10088 28fc 1A000000 		.4byte	.LFE240-.LFB240
 10089 2900 01       		.uleb128 0x1
 10090 2901 9C       		.byte	0x9c
 10091 2902 0A290000 		.4byte	0x290a
 10092 2906 24290000 		.4byte	0x2924
 10093 290a 3E       		.uleb128 0x3e
 10094 290b 3A0E0000 		.4byte	.LASF376
 10095 290f 04190000 		.4byte	0x1904
 10096 2913 02       		.uleb128 0x2
 10097 2914 91       		.byte	0x91
 10098 2915 74       		.sleb128 -12
 10099 2916 40       		.uleb128 0x40
 10100 2917 6E00     		.ascii	"n\000"
 10101 2919 0C       		.byte	0xc
 10102 291a 3701     		.2byte	0x137
 10103 291c 52010000 		.4byte	0x152
 10104 2920 02       		.uleb128 0x2
 10105 2921 91       		.byte	0x91
 10106 2922 70       		.sleb128 -16
 10107 2923 00       		.byte	0
 10108 2924 3D       		.uleb128 0x3d
 10109 2925 9A0A0000 		.4byte	0xa9a
 10110 2929 0C       		.byte	0xc
 10111 292a 3201     		.2byte	0x132
 10112 292c 42290000 		.4byte	0x2942
 10113 2930 00000000 		.4byte	.LFB239
 10114 2934 1A000000 		.4byte	.LFE239-.LFB239
 10115 2938 01       		.uleb128 0x1
 10116 2939 9C       		.byte	0x9c
 10117 293a 42290000 		.4byte	0x2942
 10118 293e 5C290000 		.4byte	0x295c
ARM GAS  /tmp/ccvPPVYB.s 			page 179


 10119 2942 3E       		.uleb128 0x3e
 10120 2943 3A0E0000 		.4byte	.LASF376
 10121 2947 04190000 		.4byte	0x1904
 10122 294b 02       		.uleb128 0x2
 10123 294c 91       		.byte	0x91
 10124 294d 74       		.sleb128 -12
 10125 294e 40       		.uleb128 0x40
 10126 294f 6E00     		.ascii	"n\000"
 10127 2951 0C       		.byte	0xc
 10128 2952 3201     		.2byte	0x132
 10129 2954 52010000 		.4byte	0x152
 10130 2958 02       		.uleb128 0x2
 10131 2959 91       		.byte	0x91
 10132 295a 70       		.sleb128 -16
 10133 295b 00       		.byte	0
 10134 295c 41       		.uleb128 0x41
 10135 295d 760A0000 		.4byte	0xa76
 10136 2961 0C       		.byte	0xc
 10137 2962 2D01     		.2byte	0x12d
 10138 2964 00       		.byte	0
 10139 2965 6D290000 		.4byte	0x296d
 10140 2969 81290000 		.4byte	0x2981
 10141 296d 42       		.uleb128 0x42
 10142 296e 3A0E0000 		.4byte	.LASF376
 10143 2972 04190000 		.4byte	0x1904
 10144 2976 44       		.uleb128 0x44
 10145 2977 6E00     		.ascii	"n\000"
 10146 2979 0C       		.byte	0xc
 10147 297a 2D01     		.2byte	0x12d
 10148 297c 52010000 		.4byte	0x152
 10149 2980 00       		.byte	0
 10150 2981 45       		.uleb128 0x45
 10151 2982 5C290000 		.4byte	0x295c
 10152 2986 86120000 		.4byte	.LASF397
 10153 298a A0290000 		.4byte	0x29a0
 10154 298e 00000000 		.4byte	.LFB237
 10155 2992 1C000000 		.4byte	.LFE237-.LFB237
 10156 2996 01       		.uleb128 0x1
 10157 2997 9C       		.byte	0x9c
 10158 2998 A0290000 		.4byte	0x29a0
 10159 299c B1290000 		.4byte	0x29b1
 10160 29a0 46       		.uleb128 0x46
 10161 29a1 6D290000 		.4byte	0x296d
 10162 29a5 02       		.uleb128 0x2
 10163 29a6 91       		.byte	0x91
 10164 29a7 74       		.sleb128 -12
 10165 29a8 46       		.uleb128 0x46
 10166 29a9 76290000 		.4byte	0x2976
 10167 29ad 02       		.uleb128 0x2
 10168 29ae 91       		.byte	0x91
 10169 29af 70       		.sleb128 -16
 10170 29b0 00       		.byte	0
 10171 29b1 48       		.uleb128 0x48
 10172 29b2 10170000 		.4byte	0x1710
 10173 29b6 00000000 		.4byte	.LFB235
 10174 29ba 0A000000 		.4byte	.LFE235-.LFB235
 10175 29be 01       		.uleb128 0x1
ARM GAS  /tmp/ccvPPVYB.s 			page 180


 10176 29bf 9C       		.byte	0x9c
 10177 29c0 49       		.uleb128 0x49
 10178 29c1 F9160000 		.4byte	0x16f9
 10179 29c5 00000000 		.4byte	.LFB234
 10180 29c9 14000000 		.4byte	.LFE234-.LFB234
 10181 29cd 01       		.uleb128 0x1
 10182 29ce 9C       		.byte	0x9c
 10183 29cf E2290000 		.4byte	0x29e2
 10184 29d3 40       		.uleb128 0x40
 10185 29d4 6D7000   		.ascii	"mp\000"
 10186 29d7 0C       		.byte	0xc
 10187 29d8 1E01     		.2byte	0x11e
 10188 29da 14190000 		.4byte	0x1914
 10189 29de 02       		.uleb128 0x2
 10190 29df 91       		.byte	0x91
 10191 29e0 74       		.sleb128 -12
 10192 29e1 00       		.byte	0
 10193 29e2 49       		.uleb128 0x49
 10194 29e3 E2160000 		.4byte	0x16e2
 10195 29e7 00000000 		.4byte	.LFB233
 10196 29eb 14000000 		.4byte	.LFE233-.LFB233
 10197 29ef 01       		.uleb128 0x1
 10198 29f0 9C       		.byte	0x9c
 10199 29f1 042A0000 		.4byte	0x2a04
 10200 29f5 40       		.uleb128 0x40
 10201 29f6 6D7000   		.ascii	"mp\000"
 10202 29f9 0C       		.byte	0xc
 10203 29fa 1901     		.2byte	0x119
 10204 29fc 14190000 		.4byte	0x1914
 10205 2a00 02       		.uleb128 0x2
 10206 2a01 91       		.byte	0x91
 10207 2a02 74       		.sleb128 -12
 10208 2a03 00       		.byte	0
 10209 2a04 49       		.uleb128 0x49
 10210 2a05 C6160000 		.4byte	0x16c6
 10211 2a09 00000000 		.4byte	.LFB232
 10212 2a0d 1A000000 		.4byte	.LFE232-.LFB232
 10213 2a11 01       		.uleb128 0x1
 10214 2a12 9C       		.byte	0x9c
 10215 2a13 362A0000 		.4byte	0x2a36
 10216 2a17 3F       		.uleb128 0x3f
 10217 2a18 3F0E0000 		.4byte	.LASF398
 10218 2a1c 0C       		.byte	0xc
 10219 2a1d 1101     		.2byte	0x111
 10220 2a1f 78190000 		.4byte	0x1978
 10221 2a23 02       		.uleb128 0x2
 10222 2a24 91       		.byte	0x91
 10223 2a25 74       		.sleb128 -12
 10224 2a26 3F       		.uleb128 0x3f
 10225 2a27 31110000 		.4byte	.LASF399
 10226 2a2b 0C       		.byte	0xc
 10227 2a2c 1201     		.2byte	0x112
 10228 2a2e 3C010000 		.4byte	0x13c
 10229 2a32 02       		.uleb128 0x2
 10230 2a33 91       		.byte	0x91
 10231 2a34 70       		.sleb128 -16
 10232 2a35 00       		.byte	0
ARM GAS  /tmp/ccvPPVYB.s 			page 181


 10233 2a36 49       		.uleb128 0x49
 10234 2a37 A6160000 		.4byte	0x16a6
 10235 2a3b 00000000 		.4byte	.LFB231
 10236 2a3f 26000000 		.4byte	.LFE231-.LFB231
 10237 2a43 01       		.uleb128 0x1
 10238 2a44 9C       		.byte	0x9c
 10239 2a45 682A0000 		.4byte	0x2a68
 10240 2a49 3F       		.uleb128 0x3f
 10241 2a4a F9060000 		.4byte	.LASF38
 10242 2a4e 0C       		.byte	0xc
 10243 2a4f 0A01     		.2byte	0x10a
 10244 2a51 3C010000 		.4byte	0x13c
 10245 2a55 02       		.uleb128 0x2
 10246 2a56 91       		.byte	0x91
 10247 2a57 74       		.sleb128 -12
 10248 2a58 3F       		.uleb128 0x3f
 10249 2a59 05190000 		.4byte	.LASF382
 10250 2a5d 0C       		.byte	0xc
 10251 2a5e 0B01     		.2byte	0x10b
 10252 2a60 5D010000 		.4byte	0x15d
 10253 2a64 02       		.uleb128 0x2
 10254 2a65 91       		.byte	0x91
 10255 2a66 72       		.sleb128 -14
 10256 2a67 00       		.byte	0
 10257 2a68 49       		.uleb128 0x49
 10258 2a69 86160000 		.4byte	0x1686
 10259 2a6d 00000000 		.4byte	.LFB230
 10260 2a71 26000000 		.4byte	.LFE230-.LFB230
 10261 2a75 01       		.uleb128 0x1
 10262 2a76 9C       		.byte	0x9c
 10263 2a77 9A2A0000 		.4byte	0x2a9a
 10264 2a7b 3F       		.uleb128 0x3f
 10265 2a7c F9060000 		.4byte	.LASF38
 10266 2a80 0C       		.byte	0xc
 10267 2a81 0401     		.2byte	0x104
 10268 2a83 3C010000 		.4byte	0x13c
 10269 2a87 02       		.uleb128 0x2
 10270 2a88 91       		.byte	0x91
 10271 2a89 74       		.sleb128 -12
 10272 2a8a 3F       		.uleb128 0x3f
 10273 2a8b 05190000 		.4byte	.LASF382
 10274 2a8f 0C       		.byte	0xc
 10275 2a90 0501     		.2byte	0x105
 10276 2a92 5D010000 		.4byte	0x15d
 10277 2a96 02       		.uleb128 0x2
 10278 2a97 91       		.byte	0x91
 10279 2a98 72       		.sleb128 -14
 10280 2a99 00       		.byte	0
 10281 2a9a 49       		.uleb128 0x49
 10282 2a9b 67160000 		.4byte	0x1667
 10283 2a9f 00000000 		.4byte	.LFB229
 10284 2aa3 26000000 		.4byte	.LFE229-.LFB229
 10285 2aa7 01       		.uleb128 0x1
 10286 2aa8 9C       		.byte	0x9c
 10287 2aa9 CA2A0000 		.4byte	0x2aca
 10288 2aad 4A       		.uleb128 0x4a
 10289 2aae F9060000 		.4byte	.LASF38
ARM GAS  /tmp/ccvPPVYB.s 			page 182


 10290 2ab2 0C       		.byte	0xc
 10291 2ab3 FE       		.byte	0xfe
 10292 2ab4 3C010000 		.4byte	0x13c
 10293 2ab8 02       		.uleb128 0x2
 10294 2ab9 91       		.byte	0x91
 10295 2aba 74       		.sleb128 -12
 10296 2abb 4A       		.uleb128 0x4a
 10297 2abc 05190000 		.4byte	.LASF382
 10298 2ac0 0C       		.byte	0xc
 10299 2ac1 FF       		.byte	0xff
 10300 2ac2 5D010000 		.4byte	0x15d
 10301 2ac6 02       		.uleb128 0x2
 10302 2ac7 91       		.byte	0x91
 10303 2ac8 72       		.sleb128 -14
 10304 2ac9 00       		.byte	0
 10305 2aca 49       		.uleb128 0x49
 10306 2acb 4D160000 		.4byte	0x164d
 10307 2acf 00000000 		.4byte	.LFB228
 10308 2ad3 16000000 		.4byte	.LFE228-.LFB228
 10309 2ad7 01       		.uleb128 0x1
 10310 2ad8 9C       		.byte	0x9c
 10311 2ad9 EC2A0000 		.4byte	0x2aec
 10312 2add 4A       		.uleb128 0x4a
 10313 2ade F9060000 		.4byte	.LASF38
 10314 2ae2 0C       		.byte	0xc
 10315 2ae3 F8       		.byte	0xf8
 10316 2ae4 3C010000 		.4byte	0x13c
 10317 2ae8 02       		.uleb128 0x2
 10318 2ae9 91       		.byte	0x91
 10319 2aea 74       		.sleb128 -12
 10320 2aeb 00       		.byte	0
 10321 2aec 49       		.uleb128 0x49
 10322 2aed 33160000 		.4byte	0x1633
 10323 2af1 00000000 		.4byte	.LFB227
 10324 2af5 16000000 		.4byte	.LFE227-.LFB227
 10325 2af9 01       		.uleb128 0x1
 10326 2afa 9C       		.byte	0x9c
 10327 2afb 0E2B0000 		.4byte	0x2b0e
 10328 2aff 4A       		.uleb128 0x4a
 10329 2b00 F9060000 		.4byte	.LASF38
 10330 2b04 0C       		.byte	0xc
 10331 2b05 F3       		.byte	0xf3
 10332 2b06 3C010000 		.4byte	0x13c
 10333 2b0a 02       		.uleb128 0x2
 10334 2b0b 91       		.byte	0x91
 10335 2b0c 74       		.sleb128 -12
 10336 2b0d 00       		.byte	0
 10337 2b0e 49       		.uleb128 0x49
 10338 2b0f 19160000 		.4byte	0x1619
 10339 2b13 00000000 		.4byte	.LFB226
 10340 2b17 16000000 		.4byte	.LFE226-.LFB226
 10341 2b1b 01       		.uleb128 0x1
 10342 2b1c 9C       		.byte	0x9c
 10343 2b1d 302B0000 		.4byte	0x2b30
 10344 2b21 4A       		.uleb128 0x4a
 10345 2b22 F9060000 		.4byte	.LASF38
 10346 2b26 0C       		.byte	0xc
ARM GAS  /tmp/ccvPPVYB.s 			page 183


 10347 2b27 EE       		.byte	0xee
 10348 2b28 3C010000 		.4byte	0x13c
 10349 2b2c 02       		.uleb128 0x2
 10350 2b2d 91       		.byte	0x91
 10351 2b2e 74       		.sleb128 -12
 10352 2b2f 00       		.byte	0
 10353 2b30 49       		.uleb128 0x49
 10354 2b31 FF150000 		.4byte	0x15ff
 10355 2b35 00000000 		.4byte	.LFB225
 10356 2b39 16000000 		.4byte	.LFE225-.LFB225
 10357 2b3d 01       		.uleb128 0x1
 10358 2b3e 9C       		.byte	0x9c
 10359 2b3f 522B0000 		.4byte	0x2b52
 10360 2b43 4A       		.uleb128 0x4a
 10361 2b44 31110000 		.4byte	.LASF399
 10362 2b48 0C       		.byte	0xc
 10363 2b49 E9       		.byte	0xe9
 10364 2b4a 3C010000 		.4byte	0x13c
 10365 2b4e 02       		.uleb128 0x2
 10366 2b4f 91       		.byte	0x91
 10367 2b50 74       		.sleb128 -12
 10368 2b51 00       		.byte	0
 10369 2b52 49       		.uleb128 0x49
 10370 2b53 E5150000 		.4byte	0x15e5
 10371 2b57 00000000 		.4byte	.LFB224
 10372 2b5b 16000000 		.4byte	.LFE224-.LFB224
 10373 2b5f 01       		.uleb128 0x1
 10374 2b60 9C       		.byte	0x9c
 10375 2b61 742B0000 		.4byte	0x2b74
 10376 2b65 4A       		.uleb128 0x4a
 10377 2b66 31110000 		.4byte	.LASF399
 10378 2b6a 0C       		.byte	0xc
 10379 2b6b E4       		.byte	0xe4
 10380 2b6c 3C010000 		.4byte	0x13c
 10381 2b70 02       		.uleb128 0x2
 10382 2b71 91       		.byte	0x91
 10383 2b72 74       		.sleb128 -12
 10384 2b73 00       		.byte	0
 10385 2b74 49       		.uleb128 0x49
 10386 2b75 D5150000 		.4byte	0x15d5
 10387 2b79 00000000 		.4byte	.LFB220
 10388 2b7d 1E000000 		.4byte	.LFE220-.LFB220
 10389 2b81 01       		.uleb128 0x1
 10390 2b82 9C       		.byte	0x9c
 10391 2b83 962B0000 		.4byte	0x2b96
 10392 2b87 4B       		.uleb128 0x4b
 10393 2b88 747200   		.ascii	"tr\000"
 10394 2b8b 0C       		.byte	0xc
 10395 2b8c DE       		.byte	0xde
 10396 2b8d 23170000 		.4byte	0x1723
 10397 2b91 03       		.uleb128 0x3
 10398 2b92 91       		.byte	0x91
 10399 2b93 74       		.sleb128 -12
 10400 2b94 06       		.byte	0x6
 10401 2b95 00       		.byte	0
 10402 2b96 48       		.uleb128 0x48
 10403 2b97 C9150000 		.4byte	0x15c9
ARM GAS  /tmp/ccvPPVYB.s 			page 184


 10404 2b9b 00000000 		.4byte	.LFB219
 10405 2b9f 0A000000 		.4byte	.LFE219-.LFB219
 10406 2ba3 01       		.uleb128 0x1
 10407 2ba4 9C       		.byte	0x9c
 10408 2ba5 49       		.uleb128 0x49
 10409 2ba6 B3150000 		.4byte	0x15b3
 10410 2baa 00000000 		.4byte	.LFB218
 10411 2bae 1E000000 		.4byte	.LFE218-.LFB218
 10412 2bb2 01       		.uleb128 0x1
 10413 2bb3 9C       		.byte	0x9c
 10414 2bb4 C72B0000 		.4byte	0x2bc7
 10415 2bb8 4A       		.uleb128 0x4a
 10416 2bb9 05190000 		.4byte	.LASF382
 10417 2bbd 0C       		.byte	0xc
 10418 2bbe D1       		.byte	0xd1
 10419 2bbf 5D010000 		.4byte	0x15d
 10420 2bc3 02       		.uleb128 0x2
 10421 2bc4 91       		.byte	0x91
 10422 2bc5 76       		.sleb128 -10
 10423 2bc6 00       		.byte	0
 10424 2bc7 49       		.uleb128 0x49
 10425 2bc8 9D150000 		.4byte	0x159d
 10426 2bcc 00000000 		.4byte	.LFB217
 10427 2bd0 1E000000 		.4byte	.LFE217-.LFB217
 10428 2bd4 01       		.uleb128 0x1
 10429 2bd5 9C       		.byte	0x9c
 10430 2bd6 E92B0000 		.4byte	0x2be9
 10431 2bda 4A       		.uleb128 0x4a
 10432 2bdb 6E1A0000 		.4byte	.LASF400
 10433 2bdf 0C       		.byte	0xc
 10434 2be0 CC       		.byte	0xcc
 10435 2be1 5D010000 		.4byte	0x15d
 10436 2be5 02       		.uleb128 0x2
 10437 2be6 91       		.byte	0x91
 10438 2be7 76       		.sleb128 -10
 10439 2be8 00       		.byte	0
 10440 2be9 48       		.uleb128 0x48
 10441 2bea 8D150000 		.4byte	0x158d
 10442 2bee 00000000 		.4byte	.LFB216
 10443 2bf2 0C000000 		.4byte	.LFE216-.LFB216
 10444 2bf6 01       		.uleb128 0x1
 10445 2bf7 9C       		.byte	0x9c
 10446 2bf8 49       		.uleb128 0x49
 10447 2bf9 77150000 		.4byte	0x1577
 10448 2bfd 00000000 		.4byte	.LFB215
 10449 2c01 14000000 		.4byte	.LFE215-.LFB215
 10450 2c05 01       		.uleb128 0x1
 10451 2c06 9C       		.byte	0x9c
 10452 2c07 1A2C0000 		.4byte	0x2c1a
 10453 2c0b 4C       		.uleb128 0x4c
 10454 2c0c 6D736700 		.ascii	"msg\000"
 10455 2c10 0C       		.byte	0xc
 10456 2c11 C2       		.byte	0xc2
 10457 2c12 26010000 		.4byte	0x126
 10458 2c16 02       		.uleb128 0x2
 10459 2c17 91       		.byte	0x91
 10460 2c18 74       		.sleb128 -12
ARM GAS  /tmp/ccvPPVYB.s 			page 185


 10461 2c19 00       		.byte	0
 10462 2c1a 49       		.uleb128 0x49
 10463 2c1b 61150000 		.4byte	0x1561
 10464 2c1f 00000000 		.4byte	.LFB214
 10465 2c23 14000000 		.4byte	.LFE214-.LFB214
 10466 2c27 01       		.uleb128 0x1
 10467 2c28 9C       		.byte	0x9c
 10468 2c29 3C2C0000 		.4byte	0x2c3c
 10469 2c2d 4C       		.uleb128 0x4c
 10470 2c2e 6D736700 		.ascii	"msg\000"
 10471 2c32 0C       		.byte	0xc
 10472 2c33 BD       		.byte	0xbd
 10473 2c34 26010000 		.4byte	0x126
 10474 2c38 02       		.uleb128 0x2
 10475 2c39 91       		.byte	0x91
 10476 2c3a 74       		.sleb128 -12
 10477 2c3b 00       		.byte	0
 10478 2c3c 49       		.uleb128 0x49
 10479 2c3d 47150000 		.4byte	0x1547
 10480 2c41 00000000 		.4byte	.LFB213
 10481 2c45 16000000 		.4byte	.LFE213-.LFB213
 10482 2c49 01       		.uleb128 0x1
 10483 2c4a 9C       		.byte	0x9c
 10484 2c4b 5E2C0000 		.4byte	0x2c5e
 10485 2c4f 4A       		.uleb128 0x4a
 10486 2c50 7D150000 		.4byte	.LASF401
 10487 2c54 0C       		.byte	0xc
 10488 2c55 B8       		.byte	0xb8
 10489 2c56 1B010000 		.4byte	0x11b
 10490 2c5a 02       		.uleb128 0x2
 10491 2c5b 91       		.byte	0x91
 10492 2c5c 74       		.sleb128 -12
 10493 2c5d 00       		.byte	0
 10494 2c5e 49       		.uleb128 0x49
 10495 2c5f 31150000 		.4byte	0x1531
 10496 2c63 00000000 		.4byte	.LFB212
 10497 2c67 14000000 		.4byte	.LFE212-.LFB212
 10498 2c6b 01       		.uleb128 0x1
 10499 2c6c 9C       		.byte	0x9c
 10500 2c6d 802C0000 		.4byte	0x2c80
 10501 2c71 4A       		.uleb128 0x4a
 10502 2c72 63210000 		.4byte	.LASF402
 10503 2c76 0C       		.byte	0xc
 10504 2c77 B3       		.byte	0xb3
 10505 2c78 C1060000 		.4byte	0x6c1
 10506 2c7c 02       		.uleb128 0x2
 10507 2c7d 91       		.byte	0x91
 10508 2c7e 74       		.sleb128 -12
 10509 2c7f 00       		.byte	0
 10510 2c80 49       		.uleb128 0x49
 10511 2c81 EC180000 		.4byte	0x18ec
 10512 2c85 00000000 		.4byte	.LFB211
 10513 2c89 1A000000 		.4byte	.LFE211-.LFB211
 10514 2c8d 01       		.uleb128 0x1
 10515 2c8e 9C       		.byte	0x9c
 10516 2c8f A22C0000 		.4byte	0x2ca2
 10517 2c93 4C       		.uleb128 0x4c
ARM GAS  /tmp/ccvPPVYB.s 			page 186


 10518 2c94 61726700 		.ascii	"arg\000"
 10519 2c98 0C       		.byte	0xc
 10520 2c99 AE       		.byte	0xae
 10521 2c9a B1030000 		.4byte	0x3b1
 10522 2c9e 02       		.uleb128 0x2
 10523 2c9f 91       		.byte	0x91
 10524 2ca0 74       		.sleb128 -12
 10525 2ca1 00       		.byte	0
 10526 2ca2 4D       		.uleb128 0x4d
 10527 2ca3 06150000 		.4byte	0x1506
 10528 2ca7 BD2C0000 		.4byte	0x2cbd
 10529 2cab 00000000 		.4byte	.LFB207
 10530 2caf 1C000000 		.4byte	.LFE207-.LFB207
 10531 2cb3 01       		.uleb128 0x1
 10532 2cb4 9C       		.byte	0x9c
 10533 2cb5 BD2C0000 		.4byte	0x2cbd
 10534 2cb9 D82C0000 		.4byte	0x2cd8
 10535 2cbd 3E       		.uleb128 0x3e
 10536 2cbe 3A0E0000 		.4byte	.LASF376
 10537 2cc2 67190000 		.4byte	0x1967
 10538 2cc6 02       		.uleb128 0x2
 10539 2cc7 91       		.byte	0x91
 10540 2cc8 70       		.sleb128 -16
 10541 2cc9 4A       		.uleb128 0x4a
 10542 2cca CC070000 		.4byte	.LASF403
 10543 2cce 0C       		.byte	0xc
 10544 2ccf A7       		.byte	0xa7
 10545 2cd0 1B010000 		.4byte	0x11b
 10546 2cd4 02       		.uleb128 0x2
 10547 2cd5 91       		.byte	0x91
 10548 2cd6 6C       		.sleb128 -20
 10549 2cd7 00       		.byte	0
 10550 2cd8 41       		.uleb128 0x41
 10551 2cd9 8F170000 		.4byte	0x178f
 10552 2cdd 0B       		.byte	0xb
 10553 2cde 8D01     		.2byte	0x18d
 10554 2ce0 02       		.byte	0x2
 10555 2ce1 E92C0000 		.4byte	0x2ce9
 10556 2ce5 F82C0000 		.4byte	0x2cf8
 10557 2ce9 42       		.uleb128 0x42
 10558 2cea 3A0E0000 		.4byte	.LASF376
 10559 2cee 9F190000 		.4byte	0x199f
 10560 2cf2 11       		.uleb128 0x11
 10561 2cf3 B0190000 		.4byte	0x19b0
 10562 2cf7 00       		.byte	0
 10563 2cf8 4E       		.uleb128 0x4e
 10564 2cf9 D82C0000 		.4byte	0x2cd8
 10565 2cfd 76180000 		.4byte	.LASF404
 10566 2d01 172D0000 		.4byte	0x2d17
 10567 2d05 00000000 		.4byte	.LFB209
 10568 2d09 20000000 		.4byte	.LFE209-.LFB209
 10569 2d0d 01       		.uleb128 0x1
 10570 2d0e 9C       		.byte	0x9c
 10571 2d0f 172D0000 		.4byte	0x2d17
 10572 2d13 282D0000 		.4byte	0x2d28
 10573 2d17 46       		.uleb128 0x46
 10574 2d18 E92C0000 		.4byte	0x2ce9
ARM GAS  /tmp/ccvPPVYB.s 			page 187


 10575 2d1c 02       		.uleb128 0x2
 10576 2d1d 91       		.byte	0x91
 10577 2d1e 7C       		.sleb128 -4
 10578 2d1f 46       		.uleb128 0x46
 10579 2d20 F22C0000 		.4byte	0x2cf2
 10580 2d24 02       		.uleb128 0x2
 10581 2d25 91       		.byte	0x91
 10582 2d26 78       		.sleb128 -8
 10583 2d27 00       		.byte	0
 10584 2d28 4F       		.uleb128 0x4f
 10585 2d29 E4140000 		.4byte	0x14e4
 10586 2d2d 432D0000 		.4byte	0x2d43
 10587 2d31 00000000 		.4byte	.LFB206
 10588 2d35 0A000000 		.4byte	.LFE206-.LFB206
 10589 2d39 01       		.uleb128 0x1
 10590 2d3a 9C       		.byte	0x9c
 10591 2d3b 432D0000 		.4byte	0x2d43
 10592 2d3f 502D0000 		.4byte	0x2d50
 10593 2d43 3E       		.uleb128 0x3e
 10594 2d44 3A0E0000 		.4byte	.LASF376
 10595 2d48 67190000 		.4byte	0x1967
 10596 2d4c 02       		.uleb128 0x2
 10597 2d4d 91       		.byte	0x91
 10598 2d4e 7C       		.sleb128 -4
 10599 2d4f 00       		.byte	0
 10600 2d50 50       		.uleb128 0x50
 10601 2d51 C6140000 		.4byte	0x14c6
 10602 2d55 00       		.byte	0
 10603 2d56 5E2D0000 		.4byte	0x2d5e
 10604 2d5a 682D0000 		.4byte	0x2d68
 10605 2d5e 42       		.uleb128 0x42
 10606 2d5f 3A0E0000 		.4byte	.LASF376
 10607 2d63 67190000 		.4byte	0x1967
 10608 2d67 00       		.byte	0
 10609 2d68 45       		.uleb128 0x45
 10610 2d69 502D0000 		.4byte	0x2d50
 10611 2d6d 5D150000 		.4byte	.LASF405
 10612 2d71 872D0000 		.4byte	0x2d87
 10613 2d75 00000000 		.4byte	.LFB204
 10614 2d79 24000000 		.4byte	.LFE204-.LFB204
 10615 2d7d 01       		.uleb128 0x1
 10616 2d7e 9C       		.byte	0x9c
 10617 2d7f 872D0000 		.4byte	0x2d87
 10618 2d83 902D0000 		.4byte	0x2d90
 10619 2d87 46       		.uleb128 0x46
 10620 2d88 5E2D0000 		.4byte	0x2d5e
 10621 2d8c 02       		.uleb128 0x2
 10622 2d8d 91       		.byte	0x91
 10623 2d8e 74       		.sleb128 -12
 10624 2d8f 00       		.byte	0
 10625 2d90 4D       		.uleb128 0x4d
 10626 2d91 CB180000 		.4byte	0x18cb
 10627 2d95 AB2D0000 		.4byte	0x2dab
 10628 2d99 00000000 		.4byte	.LFB202
 10629 2d9d 30000000 		.4byte	.LFE202-.LFB202
 10630 2da1 01       		.uleb128 0x1
 10631 2da2 9C       		.byte	0x9c
ARM GAS  /tmp/ccvPPVYB.s 			page 188


 10632 2da3 AB2D0000 		.4byte	0x2dab
 10633 2da7 D52D0000 		.4byte	0x2dd5
 10634 2dab 3E       		.uleb128 0x3e
 10635 2dac 3A0E0000 		.4byte	.LASF376
 10636 2db0 9F190000 		.4byte	0x199f
 10637 2db4 02       		.uleb128 0x2
 10638 2db5 91       		.byte	0x91
 10639 2db6 74       		.sleb128 -12
 10640 2db7 4A       		.uleb128 0x4a
 10641 2db8 31110000 		.4byte	.LASF399
 10642 2dbc 0C       		.byte	0xc
 10643 2dbd 90       		.byte	0x90
 10644 2dbe 3C010000 		.4byte	0x13c
 10645 2dc2 02       		.uleb128 0x2
 10646 2dc3 91       		.byte	0x91
 10647 2dc4 70       		.sleb128 -16
 10648 2dc5 51       		.uleb128 0x51
 10649 2dc6 88010000 		.4byte	.LASF406
 10650 2dca E52D0000 		.4byte	0x2de5
 10651 2dce 05       		.uleb128 0x5
 10652 2dcf 03       		.byte	0x3
 10653 2dd0 00000000 		.4byte	_ZZN10chibios_rt15ThreadReference13signalEventsIEmE8__func__
 10654 2dd4 00       		.byte	0
 10655 2dd5 19       		.uleb128 0x19
 10656 2dd6 D3060000 		.4byte	0x6d3
 10657 2dda E52D0000 		.4byte	0x2de5
 10658 2dde 1A       		.uleb128 0x1a
 10659 2ddf 05050000 		.4byte	0x505
 10660 2de3 0D       		.byte	0xd
 10661 2de4 00       		.byte	0
 10662 2de5 07       		.uleb128 0x7
 10663 2de6 D52D0000 		.4byte	0x2dd5
 10664 2dea 4D       		.uleb128 0x4d
 10665 2deb AC180000 		.4byte	0x18ac
 10666 2def 052E0000 		.4byte	0x2e05
 10667 2df3 00000000 		.4byte	.LFB201
 10668 2df7 30000000 		.4byte	.LFE201-.LFB201
 10669 2dfb 01       		.uleb128 0x1
 10670 2dfc 9C       		.byte	0x9c
 10671 2dfd 052E0000 		.4byte	0x2e05
 10672 2e01 2F2E0000 		.4byte	0x2e2f
 10673 2e05 3E       		.uleb128 0x3e
 10674 2e06 3A0E0000 		.4byte	.LASF376
 10675 2e0a 9F190000 		.4byte	0x199f
 10676 2e0e 02       		.uleb128 0x2
 10677 2e0f 91       		.byte	0x91
 10678 2e10 74       		.sleb128 -12
 10679 2e11 4A       		.uleb128 0x4a
 10680 2e12 31110000 		.4byte	.LASF399
 10681 2e16 0C       		.byte	0xc
 10682 2e17 88       		.byte	0x88
 10683 2e18 3C010000 		.4byte	0x13c
 10684 2e1c 02       		.uleb128 0x2
 10685 2e1d 91       		.byte	0x91
 10686 2e1e 70       		.sleb128 -16
 10687 2e1f 51       		.uleb128 0x51
 10688 2e20 88010000 		.4byte	.LASF406
ARM GAS  /tmp/ccvPPVYB.s 			page 189


 10689 2e24 3F2E0000 		.4byte	0x2e3f
 10690 2e28 05       		.uleb128 0x5
 10691 2e29 03       		.byte	0x3
 10692 2e2a 00000000 		.4byte	_ZZN10chibios_rt15ThreadReference12signalEventsEmE8__func__
 10693 2e2e 00       		.byte	0
 10694 2e2f 19       		.uleb128 0x19
 10695 2e30 D3060000 		.4byte	0x6d3
 10696 2e34 3F2E0000 		.4byte	0x2e3f
 10697 2e38 1A       		.uleb128 0x1a
 10698 2e39 05050000 		.4byte	0x505
 10699 2e3d 0C       		.byte	0xc
 10700 2e3e 00       		.byte	0
 10701 2e3f 07       		.uleb128 0x7
 10702 2e40 2F2E0000 		.4byte	0x2e2f
 10703 2e44 4D       		.uleb128 0x4d
 10704 2e45 8D180000 		.4byte	0x188d
 10705 2e49 5F2E0000 		.4byte	0x2e5f
 10706 2e4d 00000000 		.4byte	.LFB200
 10707 2e51 30000000 		.4byte	.LFE200-.LFB200
 10708 2e55 01       		.uleb128 0x1
 10709 2e56 9C       		.byte	0x9c
 10710 2e57 5F2E0000 		.4byte	0x2e5f
 10711 2e5b 892E0000 		.4byte	0x2e89
 10712 2e5f 3E       		.uleb128 0x3e
 10713 2e60 3A0E0000 		.4byte	.LASF376
 10714 2e64 9F190000 		.4byte	0x199f
 10715 2e68 02       		.uleb128 0x2
 10716 2e69 91       		.byte	0x91
 10717 2e6a 74       		.sleb128 -12
 10718 2e6b 4C       		.uleb128 0x4c
 10719 2e6c 6D736700 		.ascii	"msg\000"
 10720 2e70 0C       		.byte	0xc
 10721 2e71 7E       		.byte	0x7e
 10722 2e72 26010000 		.4byte	0x126
 10723 2e76 02       		.uleb128 0x2
 10724 2e77 91       		.byte	0x91
 10725 2e78 70       		.sleb128 -16
 10726 2e79 51       		.uleb128 0x51
 10727 2e7a 88010000 		.4byte	.LASF406
 10728 2e7e 992E0000 		.4byte	0x2e99
 10729 2e82 05       		.uleb128 0x5
 10730 2e83 03       		.byte	0x3
 10731 2e84 00000000 		.4byte	_ZZN10chibios_rt15ThreadReference14releaseMessageElE8__func__
 10732 2e88 00       		.byte	0
 10733 2e89 19       		.uleb128 0x19
 10734 2e8a D3060000 		.4byte	0x6d3
 10735 2e8e 992E0000 		.4byte	0x2e99
 10736 2e92 1A       		.uleb128 0x1a
 10737 2e93 05050000 		.4byte	0x505
 10738 2e97 0E       		.byte	0xe
 10739 2e98 00       		.byte	0
 10740 2e99 07       		.uleb128 0x7
 10741 2e9a 892E0000 		.4byte	0x2e89
 10742 2e9e 4D       		.uleb128 0x4d
 10743 2e9f 6F180000 		.4byte	0x186f
 10744 2ea3 B92E0000 		.4byte	0x2eb9
 10745 2ea7 00000000 		.4byte	.LFB199
ARM GAS  /tmp/ccvPPVYB.s 			page 190


 10746 2eab 2C000000 		.4byte	.LFE199-.LFB199
 10747 2eaf 01       		.uleb128 0x1
 10748 2eb0 9C       		.byte	0x9c
 10749 2eb1 B92E0000 		.4byte	0x2eb9
 10750 2eb5 D52E0000 		.4byte	0x2ed5
 10751 2eb9 3E       		.uleb128 0x3e
 10752 2eba 3A0E0000 		.4byte	.LASF376
 10753 2ebe 9F190000 		.4byte	0x199f
 10754 2ec2 02       		.uleb128 0x2
 10755 2ec3 91       		.byte	0x91
 10756 2ec4 74       		.sleb128 -12
 10757 2ec5 51       		.uleb128 0x51
 10758 2ec6 88010000 		.4byte	.LASF406
 10759 2eca E52E0000 		.4byte	0x2ee5
 10760 2ece 05       		.uleb128 0x5
 10761 2ecf 03       		.byte	0x3
 10762 2ed0 00000000 		.4byte	_ZZN10chibios_rt15ThreadReference10getMessageEvE8__func__
 10763 2ed4 00       		.byte	0
 10764 2ed5 19       		.uleb128 0x19
 10765 2ed6 D3060000 		.4byte	0x6d3
 10766 2eda E52E0000 		.4byte	0x2ee5
 10767 2ede 1A       		.uleb128 0x1a
 10768 2edf 05050000 		.4byte	0x505
 10769 2ee3 0A       		.byte	0xa
 10770 2ee4 00       		.byte	0
 10771 2ee5 07       		.uleb128 0x7
 10772 2ee6 D52E0000 		.4byte	0x2ed5
 10773 2eea 4D       		.uleb128 0x4d
 10774 2eeb 51180000 		.4byte	0x1851
 10775 2eef 052F0000 		.4byte	0x2f05
 10776 2ef3 00000000 		.4byte	.LFB198
 10777 2ef7 2C000000 		.4byte	.LFE198-.LFB198
 10778 2efb 01       		.uleb128 0x1
 10779 2efc 9C       		.byte	0x9c
 10780 2efd 052F0000 		.4byte	0x2f05
 10781 2f01 212F0000 		.4byte	0x2f21
 10782 2f05 3E       		.uleb128 0x3e
 10783 2f06 3A0E0000 		.4byte	.LASF376
 10784 2f0a 9F190000 		.4byte	0x199f
 10785 2f0e 02       		.uleb128 0x2
 10786 2f0f 91       		.byte	0x91
 10787 2f10 74       		.sleb128 -12
 10788 2f11 51       		.uleb128 0x51
 10789 2f12 88010000 		.4byte	.LASF406
 10790 2f16 312F0000 		.4byte	0x2f31
 10791 2f1a 05       		.uleb128 0x5
 10792 2f1b 03       		.byte	0x3
 10793 2f1c 00000000 		.4byte	_ZZN10chibios_rt15ThreadReference16isPendingMessageEvE8__func__
 10794 2f20 00       		.byte	0
 10795 2f21 19       		.uleb128 0x19
 10796 2f22 D3060000 		.4byte	0x6d3
 10797 2f26 312F0000 		.4byte	0x2f31
 10798 2f2a 1A       		.uleb128 0x1a
 10799 2f2b 05050000 		.4byte	0x505
 10800 2f2f 10       		.byte	0x10
 10801 2f30 00       		.byte	0
 10802 2f31 07       		.uleb128 0x7
ARM GAS  /tmp/ccvPPVYB.s 			page 191


 10803 2f32 212F0000 		.4byte	0x2f21
 10804 2f36 4D       		.uleb128 0x4d
 10805 2f37 2E180000 		.4byte	0x182e
 10806 2f3b 512F0000 		.4byte	0x2f51
 10807 2f3f 00000000 		.4byte	.LFB197
 10808 2f43 34000000 		.4byte	.LFE197-.LFB197
 10809 2f47 01       		.uleb128 0x1
 10810 2f48 9C       		.byte	0x9c
 10811 2f49 512F0000 		.4byte	0x2f51
 10812 2f4d 7B2F0000 		.4byte	0x2f7b
 10813 2f51 3E       		.uleb128 0x3e
 10814 2f52 3A0E0000 		.4byte	.LASF376
 10815 2f56 9F190000 		.4byte	0x199f
 10816 2f5a 02       		.uleb128 0x2
 10817 2f5b 91       		.byte	0x91
 10818 2f5c 74       		.sleb128 -12
 10819 2f5d 4C       		.uleb128 0x4c
 10820 2f5e 6D736700 		.ascii	"msg\000"
 10821 2f62 0C       		.byte	0xc
 10822 2f63 66       		.byte	0x66
 10823 2f64 26010000 		.4byte	0x126
 10824 2f68 02       		.uleb128 0x2
 10825 2f69 91       		.byte	0x91
 10826 2f6a 70       		.sleb128 -16
 10827 2f6b 51       		.uleb128 0x51
 10828 2f6c 88010000 		.4byte	.LASF406
 10829 2f70 8B2F0000 		.4byte	0x2f8b
 10830 2f74 05       		.uleb128 0x5
 10831 2f75 03       		.byte	0x3
 10832 2f76 00000000 		.4byte	_ZZN10chibios_rt15ThreadReference11sendMessageElE8__func__
 10833 2f7a 00       		.byte	0
 10834 2f7b 19       		.uleb128 0x19
 10835 2f7c D3060000 		.4byte	0x6d3
 10836 2f80 8B2F0000 		.4byte	0x2f8b
 10837 2f84 1A       		.uleb128 0x1a
 10838 2f85 05050000 		.4byte	0x505
 10839 2f89 0B       		.byte	0xb
 10840 2f8a 00       		.byte	0
 10841 2f8b 07       		.uleb128 0x7
 10842 2f8c 7B2F0000 		.4byte	0x2f7b
 10843 2f90 4D       		.uleb128 0x4d
 10844 2f91 10180000 		.4byte	0x1810
 10845 2f95 AB2F0000 		.4byte	0x2fab
 10846 2f99 00000000 		.4byte	.LFB196
 10847 2f9d 38000000 		.4byte	.LFE196-.LFB196
 10848 2fa1 01       		.uleb128 0x1
 10849 2fa2 9C       		.byte	0x9c
 10850 2fa3 AB2F0000 		.4byte	0x2fab
 10851 2fa7 D52F0000 		.4byte	0x2fd5
 10852 2fab 3E       		.uleb128 0x3e
 10853 2fac 3A0E0000 		.4byte	.LASF376
 10854 2fb0 9F190000 		.4byte	0x199f
 10855 2fb4 02       		.uleb128 0x2
 10856 2fb5 91       		.byte	0x91
 10857 2fb6 6C       		.sleb128 -20
 10858 2fb7 51       		.uleb128 0x51
 10859 2fb8 88010000 		.4byte	.LASF406
ARM GAS  /tmp/ccvPPVYB.s 			page 192


 10860 2fbc E52F0000 		.4byte	0x2fe5
 10861 2fc0 05       		.uleb128 0x5
 10862 2fc1 03       		.byte	0x3
 10863 2fc2 00000000 		.4byte	_ZZN10chibios_rt15ThreadReference4waitEvE8__func__
 10864 2fc6 4B       		.uleb128 0x4b
 10865 2fc7 6D736700 		.ascii	"msg\000"
 10866 2fcb 0C       		.byte	0xc
 10867 2fcc 5F       		.byte	0x5f
 10868 2fcd 26010000 		.4byte	0x126
 10869 2fd1 02       		.uleb128 0x2
 10870 2fd2 91       		.byte	0x91
 10871 2fd3 74       		.sleb128 -12
 10872 2fd4 00       		.byte	0
 10873 2fd5 19       		.uleb128 0x19
 10874 2fd6 D3060000 		.4byte	0x6d3
 10875 2fda E52F0000 		.4byte	0x2fe5
 10876 2fde 1A       		.uleb128 0x1a
 10877 2fdf 05050000 		.4byte	0x505
 10878 2fe3 04       		.byte	0x4
 10879 2fe4 00       		.byte	0
 10880 2fe5 07       		.uleb128 0x7
 10881 2fe6 D52F0000 		.4byte	0x2fd5
 10882 2fea 4D       		.uleb128 0x4d
 10883 2feb F6170000 		.4byte	0x17f6
 10884 2fef 05300000 		.4byte	0x3005
 10885 2ff3 00000000 		.4byte	.LFB195
 10886 2ff7 2C000000 		.4byte	.LFE195-.LFB195
 10887 2ffb 01       		.uleb128 0x1
 10888 2ffc 9C       		.byte	0x9c
 10889 2ffd 05300000 		.4byte	0x3005
 10890 3001 21300000 		.4byte	0x3021
 10891 3005 3E       		.uleb128 0x3e
 10892 3006 3A0E0000 		.4byte	.LASF376
 10893 300a 9F190000 		.4byte	0x199f
 10894 300e 02       		.uleb128 0x2
 10895 300f 91       		.byte	0x91
 10896 3010 74       		.sleb128 -12
 10897 3011 51       		.uleb128 0x51
 10898 3012 88010000 		.4byte	.LASF406
 10899 3016 312F0000 		.4byte	0x2f31
 10900 301a 05       		.uleb128 0x5
 10901 301b 03       		.byte	0x3
 10902 301c 00000000 		.4byte	_ZZN10chibios_rt15ThreadReference16requestTerminateEvE8__func__
 10903 3020 00       		.byte	0
 10904 3021 4D       		.uleb128 0x4d
 10905 3022 D4170000 		.4byte	0x17d4
 10906 3026 3C300000 		.4byte	0x303c
 10907 302a 00000000 		.4byte	.LFB194
 10908 302e 18000000 		.4byte	.LFE194-.LFB194
 10909 3032 01       		.uleb128 0x1
 10910 3033 9C       		.byte	0x9c
 10911 3034 3C300000 		.4byte	0x303c
 10912 3038 49300000 		.4byte	0x3049
 10913 303c 3E       		.uleb128 0x3e
 10914 303d 3A0E0000 		.4byte	.LASF376
 10915 3041 9F190000 		.4byte	0x199f
 10916 3045 02       		.uleb128 0x2
ARM GAS  /tmp/ccvPPVYB.s 			page 193


 10917 3046 91       		.byte	0x91
 10918 3047 74       		.sleb128 -12
 10919 3048 00       		.byte	0
 10920 3049 50       		.uleb128 0x50
 10921 304a B0170000 		.4byte	0x17b0
 10922 304e 02       		.byte	0x2
 10923 304f 57300000 		.4byte	0x3057
 10924 3053 6C300000 		.4byte	0x306c
 10925 3057 42       		.uleb128 0x42
 10926 3058 3A0E0000 		.4byte	.LASF376
 10927 305c 9F190000 		.4byte	0x199f
 10928 3060 44       		.uleb128 0x44
 10929 3061 747000   		.ascii	"tp\000"
 10930 3064 0B       		.byte	0xb
 10931 3065 9D01     		.2byte	0x19d
 10932 3067 D4020000 		.4byte	0x2d4
 10933 306b 00       		.byte	0
 10934 306c 4E       		.uleb128 0x4e
 10935 306d 49300000 		.4byte	0x3049
 10936 3071 C5050000 		.4byte	.LASF407
 10937 3075 8B300000 		.4byte	0x308b
 10938 3079 00000000 		.4byte	.LFB166
 10939 307d 20000000 		.4byte	.LFE166-.LFB166
 10940 3081 01       		.uleb128 0x1
 10941 3082 9C       		.byte	0x9c
 10942 3083 8B300000 		.4byte	0x308b
 10943 3087 9C300000 		.4byte	0x309c
 10944 308b 46       		.uleb128 0x46
 10945 308c 57300000 		.4byte	0x3057
 10946 3090 02       		.uleb128 0x2
 10947 3091 91       		.byte	0x91
 10948 3092 7C       		.sleb128 -4
 10949 3093 46       		.uleb128 0x46
 10950 3094 60300000 		.4byte	0x3060
 10951 3098 02       		.uleb128 0x2
 10952 3099 91       		.byte	0x91
 10953 309a 78       		.sleb128 -8
 10954 309b 00       		.byte	0
 10955 309c 52       		.uleb128 0x52
 10956 309d 70010000 		.4byte	.LASF408
 10957 30a1 0A       		.byte	0xa
 10958 30a2 AC01     		.2byte	0x1ac
 10959 30a4 26010000 		.4byte	0x126
 10960 30a8 00000000 		.4byte	.LFB151
 10961 30ac 2C000000 		.4byte	.LFE151-.LFB151
 10962 30b0 01       		.uleb128 0x1
 10963 30b1 9C       		.byte	0x9c
 10964 30b2 D3300000 		.4byte	0x30d3
 10965 30b6 40       		.uleb128 0x40
 10966 30b7 6F717000 		.ascii	"oqp\000"
 10967 30bb 0A       		.byte	0xa
 10968 30bc AC01     		.2byte	0x1ac
 10969 30be D3300000 		.4byte	0x30d3
 10970 30c2 02       		.uleb128 0x2
 10971 30c3 91       		.byte	0x91
 10972 30c4 74       		.sleb128 -12
 10973 30c5 40       		.uleb128 0x40
ARM GAS  /tmp/ccvPPVYB.s 			page 194


 10974 30c6 6200     		.ascii	"b\000"
 10975 30c8 0A       		.byte	0xa
 10976 30c9 AC01     		.2byte	0x1ac
 10977 30cb BE000000 		.4byte	0xbe
 10978 30cf 02       		.uleb128 0x2
 10979 30d0 91       		.byte	0x91
 10980 30d1 73       		.sleb128 -13
 10981 30d2 00       		.byte	0
 10982 30d3 0E       		.uleb128 0xe
 10983 30d4 04       		.byte	0x4
 10984 30d5 3F0A0000 		.4byte	0xa3f
 10985 30d9 52       		.uleb128 0x52
 10986 30da 8B100000 		.4byte	.LASF409
 10987 30de 0A       		.byte	0xa
 10988 30df 9701     		.2byte	0x197
 10989 30e1 12090000 		.4byte	0x912
 10990 30e5 00000000 		.4byte	.LFB150
 10991 30e9 1A000000 		.4byte	.LFE150-.LFB150
 10992 30ed 01       		.uleb128 0x1
 10993 30ee 9C       		.byte	0x9c
 10994 30ef 03310000 		.4byte	0x3103
 10995 30f3 40       		.uleb128 0x40
 10996 30f4 6F717000 		.ascii	"oqp\000"
 10997 30f8 0A       		.byte	0xa
 10998 30f9 9701     		.2byte	0x197
 10999 30fb D3300000 		.4byte	0x30d3
 11000 30ff 02       		.uleb128 0x2
 11001 3100 91       		.byte	0x91
 11002 3101 74       		.sleb128 -12
 11003 3102 00       		.byte	0
 11004 3103 52       		.uleb128 0x52
 11005 3104 36110000 		.4byte	.LASF410
 11006 3108 0A       		.byte	0xa
 11007 3109 8401     		.2byte	0x184
 11008 310b 12090000 		.4byte	0x912
 11009 310f 00000000 		.4byte	.LFB149
 11010 3113 2A000000 		.4byte	.LFE149-.LFB149
 11011 3117 01       		.uleb128 0x1
 11012 3118 9C       		.byte	0x9c
 11013 3119 2D310000 		.4byte	0x312d
 11014 311d 40       		.uleb128 0x40
 11015 311e 6F717000 		.ascii	"oqp\000"
 11016 3122 0A       		.byte	0xa
 11017 3123 8401     		.2byte	0x184
 11018 3125 D3300000 		.4byte	0x30d3
 11019 3129 02       		.uleb128 0x2
 11020 312a 91       		.byte	0x91
 11021 312b 74       		.sleb128 -12
 11022 312c 00       		.byte	0
 11023 312d 52       		.uleb128 0x52
 11024 312e 16020000 		.4byte	.LASF411
 11025 3132 0A       		.byte	0xa
 11026 3133 7301     		.2byte	0x173
 11027 3135 2C000000 		.4byte	0x2c
 11028 3139 00000000 		.4byte	.LFB148
 11029 313d 14000000 		.4byte	.LFE148-.LFB148
 11030 3141 01       		.uleb128 0x1
ARM GAS  /tmp/ccvPPVYB.s 			page 195


 11031 3142 9C       		.byte	0x9c
 11032 3143 57310000 		.4byte	0x3157
 11033 3147 40       		.uleb128 0x40
 11034 3148 6F717000 		.ascii	"oqp\000"
 11035 314c 0A       		.byte	0xa
 11036 314d 7301     		.2byte	0x173
 11037 314f D3300000 		.4byte	0x30d3
 11038 3153 02       		.uleb128 0x2
 11039 3154 91       		.byte	0x91
 11040 3155 74       		.sleb128 -12
 11041 3156 00       		.byte	0
 11042 3157 52       		.uleb128 0x52
 11043 3158 D8070000 		.4byte	.LASF412
 11044 315c 0A       		.byte	0xa
 11045 315d 6301     		.2byte	0x163
 11046 315f 2C000000 		.4byte	0x2c
 11047 3163 00000000 		.4byte	.LFB147
 11048 3167 24000000 		.4byte	.LFE147-.LFB147
 11049 316b 01       		.uleb128 0x1
 11050 316c 9C       		.byte	0x9c
 11051 316d 81310000 		.4byte	0x3181
 11052 3171 40       		.uleb128 0x40
 11053 3172 6F717000 		.ascii	"oqp\000"
 11054 3176 0A       		.byte	0xa
 11055 3177 6301     		.2byte	0x163
 11056 3179 D3300000 		.4byte	0x30d3
 11057 317d 02       		.uleb128 0x2
 11058 317e 91       		.byte	0x91
 11059 317f 74       		.sleb128 -12
 11060 3180 00       		.byte	0
 11061 3181 52       		.uleb128 0x52
 11062 3182 88140000 		.4byte	.LASF413
 11063 3186 0A       		.byte	0xa
 11064 3187 5501     		.2byte	0x155
 11065 3189 26010000 		.4byte	0x126
 11066 318d 00000000 		.4byte	.LFB146
 11067 3191 20000000 		.4byte	.LFE146-.LFB146
 11068 3195 01       		.uleb128 0x1
 11069 3196 9C       		.byte	0x9c
 11070 3197 AB310000 		.4byte	0x31ab
 11071 319b 40       		.uleb128 0x40
 11072 319c 69717000 		.ascii	"iqp\000"
 11073 31a0 0A       		.byte	0xa
 11074 31a1 5501     		.2byte	0x155
 11075 31a3 AB310000 		.4byte	0x31ab
 11076 31a7 02       		.uleb128 0x2
 11077 31a8 91       		.byte	0x91
 11078 31a9 74       		.sleb128 -12
 11079 31aa 00       		.byte	0
 11080 31ab 0E       		.uleb128 0xe
 11081 31ac 04       		.byte	0x4
 11082 31ad 340A0000 		.4byte	0xa34
 11083 31b1 52       		.uleb128 0x52
 11084 31b2 5E060000 		.4byte	.LASF414
 11085 31b6 0A       		.byte	0xa
 11086 31b7 4001     		.2byte	0x140
 11087 31b9 12090000 		.4byte	0x912
ARM GAS  /tmp/ccvPPVYB.s 			page 196


 11088 31bd 00000000 		.4byte	.LFB145
 11089 31c1 2A000000 		.4byte	.LFE145-.LFB145
 11090 31c5 01       		.uleb128 0x1
 11091 31c6 9C       		.byte	0x9c
 11092 31c7 DB310000 		.4byte	0x31db
 11093 31cb 40       		.uleb128 0x40
 11094 31cc 69717000 		.ascii	"iqp\000"
 11095 31d0 0A       		.byte	0xa
 11096 31d1 4001     		.2byte	0x140
 11097 31d3 AB310000 		.4byte	0x31ab
 11098 31d7 02       		.uleb128 0x2
 11099 31d8 91       		.byte	0x91
 11100 31d9 74       		.sleb128 -12
 11101 31da 00       		.byte	0
 11102 31db 52       		.uleb128 0x52
 11103 31dc 9A0E0000 		.4byte	.LASF415
 11104 31e0 0A       		.byte	0xa
 11105 31e1 2F01     		.2byte	0x12f
 11106 31e3 12090000 		.4byte	0x912
 11107 31e7 00000000 		.4byte	.LFB144
 11108 31eb 1A000000 		.4byte	.LFE144-.LFB144
 11109 31ef 01       		.uleb128 0x1
 11110 31f0 9C       		.byte	0x9c
 11111 31f1 05320000 		.4byte	0x3205
 11112 31f5 40       		.uleb128 0x40
 11113 31f6 69717000 		.ascii	"iqp\000"
 11114 31fa 0A       		.byte	0xa
 11115 31fb 2F01     		.2byte	0x12f
 11116 31fd AB310000 		.4byte	0x31ab
 11117 3201 02       		.uleb128 0x2
 11118 3202 91       		.byte	0x91
 11119 3203 74       		.sleb128 -12
 11120 3204 00       		.byte	0
 11121 3205 52       		.uleb128 0x52
 11122 3206 7E1D0000 		.4byte	.LASF416
 11123 320a 0A       		.byte	0xa
 11124 320b 1E01     		.2byte	0x11e
 11125 320d 2C000000 		.4byte	0x2c
 11126 3211 00000000 		.4byte	.LFB143
 11127 3215 24000000 		.4byte	.LFE143-.LFB143
 11128 3219 01       		.uleb128 0x1
 11129 321a 9C       		.byte	0x9c
 11130 321b 2F320000 		.4byte	0x322f
 11131 321f 40       		.uleb128 0x40
 11132 3220 69717000 		.ascii	"iqp\000"
 11133 3224 0A       		.byte	0xa
 11134 3225 1E01     		.2byte	0x11e
 11135 3227 AB310000 		.4byte	0x31ab
 11136 322b 02       		.uleb128 0x2
 11137 322c 91       		.byte	0x91
 11138 322d 74       		.sleb128 -12
 11139 322e 00       		.byte	0
 11140 322f 52       		.uleb128 0x52
 11141 3230 7B140000 		.4byte	.LASF417
 11142 3234 0A       		.byte	0xa
 11143 3235 0E01     		.2byte	0x10e
 11144 3237 2C000000 		.4byte	0x2c
ARM GAS  /tmp/ccvPPVYB.s 			page 197


 11145 323b 00000000 		.4byte	.LFB142
 11146 323f 14000000 		.4byte	.LFE142-.LFB142
 11147 3243 01       		.uleb128 0x1
 11148 3244 9C       		.byte	0x9c
 11149 3245 59320000 		.4byte	0x3259
 11150 3249 40       		.uleb128 0x40
 11151 324a 69717000 		.ascii	"iqp\000"
 11152 324e 0A       		.byte	0xa
 11153 324f 0E01     		.2byte	0x10e
 11154 3251 AB310000 		.4byte	0x31ab
 11155 3255 02       		.uleb128 0x2
 11156 3256 91       		.byte	0x91
 11157 3257 74       		.sleb128 -12
 11158 3258 00       		.byte	0
 11159 3259 53       		.uleb128 0x53
 11160 325a EB170000 		.4byte	.LASF418
 11161 325e 09       		.byte	0x9
 11162 325f 60       		.byte	0x60
 11163 3260 26010000 		.4byte	0x126
 11164 3264 00000000 		.4byte	.LFB133
 11165 3268 0E000000 		.4byte	.LFE133-.LFB133
 11166 326c 01       		.uleb128 0x1
 11167 326d 9C       		.byte	0x9c
 11168 326e 80320000 		.4byte	0x3280
 11169 3272 4C       		.uleb128 0x4c
 11170 3273 747000   		.ascii	"tp\000"
 11171 3276 09       		.byte	0x9
 11172 3277 60       		.byte	0x60
 11173 3278 D4020000 		.4byte	0x2d4
 11174 327c 02       		.uleb128 0x2
 11175 327d 91       		.byte	0x91
 11176 327e 7C       		.sleb128 -4
 11177 327f 00       		.byte	0
 11178 3280 54       		.uleb128 0x54
 11179 3281 66180000 		.4byte	.LASF419
 11180 3285 09       		.byte	0x9
 11181 3286 4F       		.byte	0x4f
 11182 3287 12090000 		.4byte	0x912
 11183 328b 00000000 		.4byte	.LFB132
 11184 328f 20000000 		.4byte	.LFE132-.LFB132
 11185 3293 01       		.uleb128 0x1
 11186 3294 9C       		.byte	0x9c
 11187 3295 A7320000 		.4byte	0x32a7
 11188 3299 4C       		.uleb128 0x4c
 11189 329a 747000   		.ascii	"tp\000"
 11190 329d 09       		.byte	0x9
 11191 329e 4F       		.byte	0x4f
 11192 329f D4020000 		.4byte	0x2d4
 11193 32a3 02       		.uleb128 0x2
 11194 32a4 91       		.byte	0x91
 11195 32a5 74       		.sleb128 -12
 11196 32a6 00       		.byte	0
 11197 32a7 55       		.uleb128 0x55
 11198 32a8 42090000 		.4byte	.LASF421
 11199 32ac 08       		.byte	0x8
 11200 32ad D1       		.byte	0xd1
 11201 32ae 00000000 		.4byte	.LFB128
ARM GAS  /tmp/ccvPPVYB.s 			page 198


 11202 32b2 24000000 		.4byte	.LFE128-.LFB128
 11203 32b6 01       		.uleb128 0x1
 11204 32b7 9C       		.byte	0x9c
 11205 32b8 E7320000 		.4byte	0x32e7
 11206 32bc 4C       		.uleb128 0x4c
 11207 32bd 65737000 		.ascii	"esp\000"
 11208 32c1 08       		.byte	0x8
 11209 32c2 D1       		.byte	0xd1
 11210 32c3 E7320000 		.4byte	0x32e7
 11211 32c7 02       		.uleb128 0x2
 11212 32c8 91       		.byte	0x91
 11213 32c9 74       		.sleb128 -12
 11214 32ca 4C       		.uleb128 0x4c
 11215 32cb 656C7000 		.ascii	"elp\000"
 11216 32cf 08       		.byte	0x8
 11217 32d0 D2       		.byte	0xd2
 11218 32d1 C7080000 		.4byte	0x8c7
 11219 32d5 02       		.uleb128 0x2
 11220 32d6 91       		.byte	0x91
 11221 32d7 70       		.sleb128 -16
 11222 32d8 4A       		.uleb128 0x4a
 11223 32d9 E9110000 		.4byte	.LASF420
 11224 32dd 08       		.byte	0x8
 11225 32de D3       		.byte	0xd3
 11226 32df 31010000 		.4byte	0x131
 11227 32e3 02       		.uleb128 0x2
 11228 32e4 91       		.byte	0x91
 11229 32e5 6C       		.sleb128 -20
 11230 32e6 00       		.byte	0
 11231 32e7 0E       		.uleb128 0xe
 11232 32e8 04       		.byte	0x4
 11233 32e9 E6080000 		.4byte	0x8e6
 11234 32ed 55       		.uleb128 0x55
 11235 32ee 52200000 		.4byte	.LASF422
 11236 32f2 08       		.byte	0x8
 11237 32f3 BD       		.byte	0xbd
 11238 32f4 00000000 		.4byte	.LFB127
 11239 32f8 1E000000 		.4byte	.LFE127-.LFB127
 11240 32fc 01       		.uleb128 0x1
 11241 32fd 9C       		.byte	0x9c
 11242 32fe 2D330000 		.4byte	0x332d
 11243 3302 4C       		.uleb128 0x4c
 11244 3303 65737000 		.ascii	"esp\000"
 11245 3307 08       		.byte	0x8
 11246 3308 BD       		.byte	0xbd
 11247 3309 E7320000 		.4byte	0x32e7
 11248 330d 02       		.uleb128 0x2
 11249 330e 91       		.byte	0x91
 11250 330f 74       		.sleb128 -12
 11251 3310 4C       		.uleb128 0x4c
 11252 3311 656C7000 		.ascii	"elp\000"
 11253 3315 08       		.byte	0x8
 11254 3316 BE       		.byte	0xbe
 11255 3317 C7080000 		.4byte	0x8c7
 11256 331b 02       		.uleb128 0x2
 11257 331c 91       		.byte	0x91
 11258 331d 70       		.sleb128 -16
ARM GAS  /tmp/ccvPPVYB.s 			page 199


 11259 331e 4A       		.uleb128 0x4a
 11260 331f E4210000 		.4byte	.LASF423
 11261 3323 08       		.byte	0x8
 11262 3324 BF       		.byte	0xbf
 11263 3325 3C010000 		.4byte	0x13c
 11264 3329 02       		.uleb128 0x2
 11265 332a 91       		.byte	0x91
 11266 332b 6C       		.sleb128 -20
 11267 332c 00       		.byte	0
 11268 332d 56       		.uleb128 0x56
 11269 332e 5B090000 		.4byte	.LASF424
 11270 3332 08       		.byte	0x8
 11271 3333 AA       		.byte	0xaa
 11272 3334 00000000 		.4byte	.LFB126
 11273 3338 10000000 		.4byte	.LFE126-.LFB126
 11274 333c 01       		.uleb128 0x1
 11275 333d 9C       		.byte	0x9c
 11276 333e 51330000 		.4byte	0x3351
 11277 3342 4C       		.uleb128 0x4c
 11278 3343 65737000 		.ascii	"esp\000"
 11279 3347 08       		.byte	0x8
 11280 3348 AA       		.byte	0xaa
 11281 3349 E7320000 		.4byte	0x32e7
 11282 334d 02       		.uleb128 0x2
 11283 334e 91       		.byte	0x91
 11284 334f 7C       		.sleb128 -4
 11285 3350 00       		.byte	0
 11286 3351 52       		.uleb128 0x52
 11287 3352 4A190000 		.4byte	.LASF425
 11288 3356 07       		.byte	0x7
 11289 3357 2C01     		.2byte	0x12c
 11290 3359 12090000 		.4byte	0x912
 11291 335d 00000000 		.4byte	.LFB123
 11292 3361 1C000000 		.4byte	.LFE123-.LFB123
 11293 3365 01       		.uleb128 0x1
 11294 3366 9C       		.byte	0x9c
 11295 3367 7B330000 		.4byte	0x337b
 11296 336b 40       		.uleb128 0x40
 11297 336c 62737000 		.ascii	"bsp\000"
 11298 3370 07       		.byte	0x7
 11299 3371 2C01     		.2byte	0x12c
 11300 3373 7B330000 		.4byte	0x337b
 11301 3377 02       		.uleb128 0x2
 11302 3378 91       		.byte	0x91
 11303 3379 74       		.sleb128 -12
 11304 337a 00       		.byte	0
 11305 337b 0E       		.uleb128 0xe
 11306 337c 04       		.byte	0x4
 11307 337d 33080000 		.4byte	0x833
 11308 3381 57       		.uleb128 0x57
 11309 3382 60040000 		.4byte	.LASF426
 11310 3386 07       		.byte	0x7
 11311 3387 1A01     		.2byte	0x11a
 11312 3389 00000000 		.4byte	.LFB122
 11313 338d 20000000 		.4byte	.LFE122-.LFB122
 11314 3391 01       		.uleb128 0x1
 11315 3392 9C       		.byte	0x9c
ARM GAS  /tmp/ccvPPVYB.s 			page 200


 11316 3393 A7330000 		.4byte	0x33a7
 11317 3397 40       		.uleb128 0x40
 11318 3398 62737000 		.ascii	"bsp\000"
 11319 339c 07       		.byte	0x7
 11320 339d 1A01     		.2byte	0x11a
 11321 339f 7B330000 		.4byte	0x337b
 11322 33a3 02       		.uleb128 0x2
 11323 33a4 91       		.byte	0x91
 11324 33a5 74       		.sleb128 -12
 11325 33a6 00       		.byte	0
 11326 33a7 57       		.uleb128 0x57
 11327 33a8 521C0000 		.4byte	.LASF427
 11328 33ac 07       		.byte	0x7
 11329 33ad 0A01     		.2byte	0x10a
 11330 33af 00000000 		.4byte	.LFB121
 11331 33b3 20000000 		.4byte	.LFE121-.LFB121
 11332 33b7 01       		.uleb128 0x1
 11333 33b8 9C       		.byte	0x9c
 11334 33b9 CD330000 		.4byte	0x33cd
 11335 33bd 40       		.uleb128 0x40
 11336 33be 62737000 		.ascii	"bsp\000"
 11337 33c2 07       		.byte	0x7
 11338 33c3 0A01     		.2byte	0x10a
 11339 33c5 7B330000 		.4byte	0x337b
 11340 33c9 02       		.uleb128 0x2
 11341 33ca 91       		.byte	0x91
 11342 33cb 74       		.sleb128 -12
 11343 33cc 00       		.byte	0
 11344 33cd 55       		.uleb128 0x55
 11345 33ce 971D0000 		.4byte	.LASF428
 11346 33d2 07       		.byte	0x7
 11347 33d3 FD       		.byte	0xfd
 11348 33d4 00000000 		.4byte	.LFB120
 11349 33d8 2E000000 		.4byte	.LFE120-.LFB120
 11350 33dc 01       		.uleb128 0x1
 11351 33dd 9C       		.byte	0x9c
 11352 33de FF330000 		.4byte	0x33ff
 11353 33e2 4C       		.uleb128 0x4c
 11354 33e3 62737000 		.ascii	"bsp\000"
 11355 33e7 07       		.byte	0x7
 11356 33e8 FD       		.byte	0xfd
 11357 33e9 7B330000 		.4byte	0x337b
 11358 33ed 02       		.uleb128 0x2
 11359 33ee 91       		.byte	0x91
 11360 33ef 74       		.sleb128 -12
 11361 33f0 4A       		.uleb128 0x4a
 11362 33f1 7D1C0000 		.4byte	.LASF393
 11363 33f5 07       		.byte	0x7
 11364 33f6 FD       		.byte	0xfd
 11365 33f7 12090000 		.4byte	0x912
 11366 33fb 02       		.uleb128 0x2
 11367 33fc 91       		.byte	0x91
 11368 33fd 73       		.sleb128 -13
 11369 33fe 00       		.byte	0
 11370 33ff 55       		.uleb128 0x55
 11371 3400 65220000 		.4byte	.LASF429
 11372 3404 07       		.byte	0x7
ARM GAS  /tmp/ccvPPVYB.s 			page 201


 11373 3405 E8       		.byte	0xe8
 11374 3406 00000000 		.4byte	.LFB119
 11375 340a 32000000 		.4byte	.LFE119-.LFB119
 11376 340e 01       		.uleb128 0x1
 11377 340f 9C       		.byte	0x9c
 11378 3410 31340000 		.4byte	0x3431
 11379 3414 4C       		.uleb128 0x4c
 11380 3415 62737000 		.ascii	"bsp\000"
 11381 3419 07       		.byte	0x7
 11382 341a E8       		.byte	0xe8
 11383 341b 7B330000 		.4byte	0x337b
 11384 341f 02       		.uleb128 0x2
 11385 3420 91       		.byte	0x91
 11386 3421 74       		.sleb128 -12
 11387 3422 4A       		.uleb128 0x4a
 11388 3423 7D1C0000 		.4byte	.LASF393
 11389 3427 07       		.byte	0x7
 11390 3428 E8       		.byte	0xe8
 11391 3429 12090000 		.4byte	0x912
 11392 342d 02       		.uleb128 0x2
 11393 342e 91       		.byte	0x91
 11394 342f 73       		.sleb128 -13
 11395 3430 00       		.byte	0
 11396 3431 54       		.uleb128 0x54
 11397 3432 8B050000 		.4byte	.LASF430
 11398 3436 07       		.byte	0x7
 11399 3437 D3       		.byte	0xd3
 11400 3438 26010000 		.4byte	0x126
 11401 343c 00000000 		.4byte	.LFB118
 11402 3440 26000000 		.4byte	.LFE118-.LFB118
 11403 3444 01       		.uleb128 0x1
 11404 3445 9C       		.byte	0x9c
 11405 3446 67340000 		.4byte	0x3467
 11406 344a 4C       		.uleb128 0x4c
 11407 344b 62737000 		.ascii	"bsp\000"
 11408 344f 07       		.byte	0x7
 11409 3450 D3       		.byte	0xd3
 11410 3451 7B330000 		.4byte	0x337b
 11411 3455 02       		.uleb128 0x2
 11412 3456 91       		.byte	0x91
 11413 3457 74       		.sleb128 -12
 11414 3458 4A       		.uleb128 0x4a
 11415 3459 05190000 		.4byte	.LASF382
 11416 345d 07       		.byte	0x7
 11417 345e D4       		.byte	0xd4
 11418 345f 5D010000 		.4byte	0x15d
 11419 3463 02       		.uleb128 0x2
 11420 3464 91       		.byte	0x91
 11421 3465 72       		.sleb128 -14
 11422 3466 00       		.byte	0
 11423 3467 54       		.uleb128 0x54
 11424 3468 51170000 		.4byte	.LASF431
 11425 346c 07       		.byte	0x7
 11426 346d B8       		.byte	0xb8
 11427 346e 26010000 		.4byte	0x126
 11428 3472 00000000 		.4byte	.LFB117
 11429 3476 2A000000 		.4byte	.LFE117-.LFB117
ARM GAS  /tmp/ccvPPVYB.s 			page 202


 11430 347a 01       		.uleb128 0x1
 11431 347b 9C       		.byte	0x9c
 11432 347c 9D340000 		.4byte	0x349d
 11433 3480 4C       		.uleb128 0x4c
 11434 3481 62737000 		.ascii	"bsp\000"
 11435 3485 07       		.byte	0x7
 11436 3486 B8       		.byte	0xb8
 11437 3487 7B330000 		.4byte	0x337b
 11438 348b 02       		.uleb128 0x2
 11439 348c 91       		.byte	0x91
 11440 348d 74       		.sleb128 -12
 11441 348e 4A       		.uleb128 0x4a
 11442 348f 05190000 		.4byte	.LASF382
 11443 3493 07       		.byte	0x7
 11444 3494 B9       		.byte	0xb9
 11445 3495 5D010000 		.4byte	0x15d
 11446 3499 02       		.uleb128 0x2
 11447 349a 91       		.byte	0x91
 11448 349b 72       		.sleb128 -14
 11449 349c 00       		.byte	0
 11450 349d 54       		.uleb128 0x54
 11451 349e C6040000 		.4byte	.LASF432
 11452 34a2 07       		.byte	0x7
 11453 34a3 9E       		.byte	0x9e
 11454 34a4 26010000 		.4byte	0x126
 11455 34a8 00000000 		.4byte	.LFB116
 11456 34ac 1A000000 		.4byte	.LFE116-.LFB116
 11457 34b0 01       		.uleb128 0x1
 11458 34b1 9C       		.byte	0x9c
 11459 34b2 C5340000 		.4byte	0x34c5
 11460 34b6 4C       		.uleb128 0x4c
 11461 34b7 62737000 		.ascii	"bsp\000"
 11462 34bb 07       		.byte	0x7
 11463 34bc 9E       		.byte	0x9e
 11464 34bd 7B330000 		.4byte	0x337b
 11465 34c1 02       		.uleb128 0x2
 11466 34c2 91       		.byte	0x91
 11467 34c3 74       		.sleb128 -12
 11468 34c4 00       		.byte	0
 11469 34c5 54       		.uleb128 0x54
 11470 34c6 78210000 		.4byte	.LASF433
 11471 34ca 07       		.byte	0x7
 11472 34cb 8D       		.byte	0x8d
 11473 34cc 26010000 		.4byte	0x126
 11474 34d0 00000000 		.4byte	.LFB115
 11475 34d4 16000000 		.4byte	.LFE115-.LFB115
 11476 34d8 01       		.uleb128 0x1
 11477 34d9 9C       		.byte	0x9c
 11478 34da ED340000 		.4byte	0x34ed
 11479 34de 4C       		.uleb128 0x4c
 11480 34df 62737000 		.ascii	"bsp\000"
 11481 34e3 07       		.byte	0x7
 11482 34e4 8D       		.byte	0x8d
 11483 34e5 7B330000 		.4byte	0x337b
 11484 34e9 02       		.uleb128 0x2
 11485 34ea 91       		.byte	0x91
 11486 34eb 74       		.sleb128 -12
ARM GAS  /tmp/ccvPPVYB.s 			page 203


 11487 34ec 00       		.byte	0
 11488 34ed 55       		.uleb128 0x55
 11489 34ee 95110000 		.4byte	.LASF434
 11490 34f2 07       		.byte	0x7
 11491 34f3 7C       		.byte	0x7c
 11492 34f4 00000000 		.4byte	.LFB114
 11493 34f8 2E000000 		.4byte	.LFE114-.LFB114
 11494 34fc 01       		.uleb128 0x1
 11495 34fd 9C       		.byte	0x9c
 11496 34fe 1F350000 		.4byte	0x351f
 11497 3502 4C       		.uleb128 0x4c
 11498 3503 62737000 		.ascii	"bsp\000"
 11499 3507 07       		.byte	0x7
 11500 3508 7C       		.byte	0x7c
 11501 3509 7B330000 		.4byte	0x337b
 11502 350d 02       		.uleb128 0x2
 11503 350e 91       		.byte	0x91
 11504 350f 74       		.sleb128 -12
 11505 3510 4A       		.uleb128 0x4a
 11506 3511 7D1C0000 		.4byte	.LASF393
 11507 3515 07       		.byte	0x7
 11508 3516 7C       		.byte	0x7c
 11509 3517 12090000 		.4byte	0x912
 11510 351b 02       		.uleb128 0x2
 11511 351c 91       		.byte	0x91
 11512 351d 73       		.sleb128 -13
 11513 351e 00       		.byte	0
 11514 351f 54       		.uleb128 0x54
 11515 3520 CB010000 		.4byte	.LASF435
 11516 3524 06       		.byte	0x6
 11517 3525 95       		.byte	0x95
 11518 3526 52010000 		.4byte	0x152
 11519 352a 00000000 		.4byte	.LFB113
 11520 352e 14000000 		.4byte	.LFE113-.LFB113
 11521 3532 01       		.uleb128 0x1
 11522 3533 9C       		.byte	0x9c
 11523 3534 46350000 		.4byte	0x3546
 11524 3538 4C       		.uleb128 0x4c
 11525 3539 737000   		.ascii	"sp\000"
 11526 353c 06       		.byte	0x6
 11527 353d 95       		.byte	0x95
 11528 353e 46350000 		.4byte	0x3546
 11529 3542 02       		.uleb128 0x2
 11530 3543 91       		.byte	0x91
 11531 3544 74       		.sleb128 -12
 11532 3545 00       		.byte	0
 11533 3546 0E       		.uleb128 0xe
 11534 3547 04       		.byte	0x4
 11535 3548 0F080000 		.4byte	0x80f
 11536 354c 56       		.uleb128 0x56
 11537 354d 8D210000 		.4byte	.LASF436
 11538 3551 05       		.byte	0x5
 11539 3552 84       		.byte	0x84
 11540 3553 00000000 		.4byte	.LFB108
 11541 3557 18000000 		.4byte	.LFE108-.LFB108
 11542 355b 01       		.uleb128 0x1
 11543 355c 9C       		.byte	0x9c
ARM GAS  /tmp/ccvPPVYB.s 			page 204


 11544 355d 70350000 		.4byte	0x3570
 11545 3561 4A       		.uleb128 0x4a
 11546 3562 071B0000 		.4byte	.LASF437
 11547 3566 05       		.byte	0x5
 11548 3567 84       		.byte	0x84
 11549 3568 C1060000 		.4byte	0x6c1
 11550 356c 02       		.uleb128 0x2
 11551 356d 91       		.byte	0x91
 11552 356e 7C       		.sleb128 -4
 11553 356f 00       		.byte	0
 11554 3570 58       		.uleb128 0x58
 11555 3571 A1080000 		.4byte	.LASF438
 11556 3575 04       		.byte	0x4
 11557 3576 E7       		.byte	0xe7
 11558 3577 12090000 		.4byte	0x912
 11559 357b 00000000 		.4byte	.LFB102
 11560 357f 1C000000 		.4byte	.LFE102-.LFB102
 11561 3583 01       		.uleb128 0x1
 11562 3584 9C       		.byte	0x9c
 11563 3585 59       		.uleb128 0x59
 11564 3586 E3090000 		.4byte	.LASF439
 11565 358a 04       		.byte	0x4
 11566 358b AE       		.byte	0xae
 11567 358c D4020000 		.4byte	0x2d4
 11568 3590 00000000 		.4byte	.LFB99
 11569 3594 0C000000 		.4byte	.LFE99-.LFB99
 11570 3598 01       		.uleb128 0x1
 11571 3599 9C       		.byte	0x9c
 11572 359a 57       		.uleb128 0x57
 11573 359b 780D0000 		.4byte	.LASF440
 11574 359f 03       		.byte	0x3
 11575 35a0 6601     		.2byte	0x166
 11576 35a2 00000000 		.4byte	.LFB78
 11577 35a6 38000000 		.4byte	.LFE78-.LFB78
 11578 35aa 01       		.uleb128 0x1
 11579 35ab 9C       		.byte	0x9c
 11580 35ac C0350000 		.4byte	0x35c0
 11581 35b0 51       		.uleb128 0x51
 11582 35b1 88010000 		.4byte	.LASF406
 11583 35b5 8B2F0000 		.4byte	0x2f8b
 11584 35b9 05       		.uleb128 0x5
 11585 35ba 03       		.byte	0x3
 11586 35bb 00000000 		.4byte	_ZZL11chSysUnlockvE8__func__
 11587 35bf 00       		.byte	0
 11588 35c0 5A       		.uleb128 0x5a
 11589 35c1 9E0D0000 		.4byte	.LASF458
 11590 35c5 03       		.byte	0x3
 11591 35c6 5A01     		.2byte	0x15a
 11592 35c8 00000000 		.4byte	.LFB77
 11593 35cc 0E000000 		.4byte	.LFE77-.LFB77
 11594 35d0 01       		.uleb128 0x1
 11595 35d1 9C       		.byte	0x9c
 11596 35d2 5B       		.uleb128 0x5b
 11597 35d3 24050000 		.4byte	.LASF441
 11598 35d7 01       		.byte	0x1
 11599 35d8 5301     		.2byte	0x153
 11600 35da 00000000 		.4byte	.LFB39
ARM GAS  /tmp/ccvPPVYB.s 			page 205


 11601 35de 06000000 		.4byte	.LFE39-.LFB39
 11602 35e2 01       		.uleb128 0x1
 11603 35e3 9C       		.byte	0x9c
 11604 35e4 F9350000 		.4byte	0x35f9
 11605 35e8 5C       		.uleb128 0x5c
 11606 35e9 29360000 		.4byte	0x3629
 11607 35ed 00000000 		.4byte	.LBB8
 11608 35f1 02000000 		.4byte	.LBE8-.LBB8
 11609 35f5 01       		.byte	0x1
 11610 35f6 5501     		.2byte	0x155
 11611 35f8 00       		.byte	0
 11612 35f9 5B       		.uleb128 0x5b
 11613 35fa 0C1B0000 		.4byte	.LASF442
 11614 35fe 01       		.byte	0x1
 11615 35ff 4A01     		.2byte	0x14a
 11616 3601 00000000 		.4byte	.LFB38
 11617 3605 06000000 		.4byte	.LFE38-.LFB38
 11618 3609 01       		.uleb128 0x1
 11619 360a 9C       		.byte	0x9c
 11620 360b 20360000 		.4byte	0x3620
 11621 360f 5C       		.uleb128 0x5c
 11622 3610 20360000 		.4byte	0x3620
 11623 3614 00000000 		.4byte	.LBB6
 11624 3618 02000000 		.4byte	.LBE6-.LBB6
 11625 361c 01       		.byte	0x1
 11626 361d 4C01     		.2byte	0x14c
 11627 361f 00       		.byte	0
 11628 3620 5D       		.uleb128 0x5d
 11629 3621 D80E0000 		.4byte	.LASF443
 11630 3625 02       		.byte	0x2
 11631 3626 5601     		.2byte	0x156
 11632 3628 03       		.byte	0x3
 11633 3629 5D       		.uleb128 0x5d
 11634 362a 300B0000 		.4byte	.LASF444
 11635 362e 02       		.byte	0x2
 11636 362f 4B01     		.2byte	0x14b
 11637 3631 03       		.byte	0x3
 11638 3632 00       		.byte	0
 11639              		.section	.debug_abbrev,"",%progbits
 11640              	.Ldebug_abbrev0:
 11641 0000 01       		.uleb128 0x1
 11642 0001 11       		.uleb128 0x11
 11643 0002 01       		.byte	0x1
 11644 0003 25       		.uleb128 0x25
 11645 0004 0E       		.uleb128 0xe
 11646 0005 13       		.uleb128 0x13
 11647 0006 0B       		.uleb128 0xb
 11648 0007 03       		.uleb128 0x3
 11649 0008 0E       		.uleb128 0xe
 11650 0009 1B       		.uleb128 0x1b
 11651 000a 0E       		.uleb128 0xe
 11652 000b 55       		.uleb128 0x55
 11653 000c 17       		.uleb128 0x17
 11654 000d 11       		.uleb128 0x11
 11655 000e 01       		.uleb128 0x1
 11656 000f 10       		.uleb128 0x10
 11657 0010 17       		.uleb128 0x17
ARM GAS  /tmp/ccvPPVYB.s 			page 206


 11658 0011 00       		.byte	0
 11659 0012 00       		.byte	0
 11660 0013 02       		.uleb128 0x2
 11661 0014 24       		.uleb128 0x24
 11662 0015 00       		.byte	0
 11663 0016 0B       		.uleb128 0xb
 11664 0017 0B       		.uleb128 0xb
 11665 0018 3E       		.uleb128 0x3e
 11666 0019 0B       		.uleb128 0xb
 11667 001a 03       		.uleb128 0x3
 11668 001b 08       		.uleb128 0x8
 11669 001c 00       		.byte	0
 11670 001d 00       		.byte	0
 11671 001e 03       		.uleb128 0x3
 11672 001f 16       		.uleb128 0x16
 11673 0020 00       		.byte	0
 11674 0021 03       		.uleb128 0x3
 11675 0022 0E       		.uleb128 0xe
 11676 0023 3A       		.uleb128 0x3a
 11677 0024 0B       		.uleb128 0xb
 11678 0025 3B       		.uleb128 0x3b
 11679 0026 0B       		.uleb128 0xb
 11680 0027 49       		.uleb128 0x49
 11681 0028 13       		.uleb128 0x13
 11682 0029 00       		.byte	0
 11683 002a 00       		.byte	0
 11684 002b 04       		.uleb128 0x4
 11685 002c 35       		.uleb128 0x35
 11686 002d 00       		.byte	0
 11687 002e 49       		.uleb128 0x49
 11688 002f 13       		.uleb128 0x13
 11689 0030 00       		.byte	0
 11690 0031 00       		.byte	0
 11691 0032 05       		.uleb128 0x5
 11692 0033 24       		.uleb128 0x24
 11693 0034 00       		.byte	0
 11694 0035 0B       		.uleb128 0xb
 11695 0036 0B       		.uleb128 0xb
 11696 0037 3E       		.uleb128 0x3e
 11697 0038 0B       		.uleb128 0xb
 11698 0039 03       		.uleb128 0x3
 11699 003a 0E       		.uleb128 0xe
 11700 003b 00       		.byte	0
 11701 003c 00       		.byte	0
 11702 003d 06       		.uleb128 0x6
 11703 003e 3B       		.uleb128 0x3b
 11704 003f 00       		.byte	0
 11705 0040 03       		.uleb128 0x3
 11706 0041 0E       		.uleb128 0xe
 11707 0042 00       		.byte	0
 11708 0043 00       		.byte	0
 11709 0044 07       		.uleb128 0x7
 11710 0045 26       		.uleb128 0x26
 11711 0046 00       		.byte	0
 11712 0047 49       		.uleb128 0x49
 11713 0048 13       		.uleb128 0x13
 11714 0049 00       		.byte	0
ARM GAS  /tmp/ccvPPVYB.s 			page 207


 11715 004a 00       		.byte	0
 11716 004b 08       		.uleb128 0x8
 11717 004c 13       		.uleb128 0x13
 11718 004d 01       		.byte	0x1
 11719 004e 03       		.uleb128 0x3
 11720 004f 0E       		.uleb128 0xe
 11721 0050 0B       		.uleb128 0xb
 11722 0051 0B       		.uleb128 0xb
 11723 0052 3A       		.uleb128 0x3a
 11724 0053 0B       		.uleb128 0xb
 11725 0054 3B       		.uleb128 0x3b
 11726 0055 0B       		.uleb128 0xb
 11727 0056 01       		.uleb128 0x1
 11728 0057 13       		.uleb128 0x13
 11729 0058 00       		.byte	0
 11730 0059 00       		.byte	0
 11731 005a 09       		.uleb128 0x9
 11732 005b 17       		.uleb128 0x17
 11733 005c 01       		.byte	0x1
 11734 005d 0B       		.uleb128 0xb
 11735 005e 0B       		.uleb128 0xb
 11736 005f 3A       		.uleb128 0x3a
 11737 0060 0B       		.uleb128 0xb
 11738 0061 3B       		.uleb128 0x3b
 11739 0062 0B       		.uleb128 0xb
 11740 0063 01       		.uleb128 0x1
 11741 0064 13       		.uleb128 0x13
 11742 0065 00       		.byte	0
 11743 0066 00       		.byte	0
 11744 0067 0A       		.uleb128 0xa
 11745 0068 0D       		.uleb128 0xd
 11746 0069 00       		.byte	0
 11747 006a 03       		.uleb128 0x3
 11748 006b 0E       		.uleb128 0xe
 11749 006c 3A       		.uleb128 0x3a
 11750 006d 0B       		.uleb128 0xb
 11751 006e 3B       		.uleb128 0x3b
 11752 006f 05       		.uleb128 0x5
 11753 0070 49       		.uleb128 0x49
 11754 0071 13       		.uleb128 0x13
 11755 0072 00       		.byte	0
 11756 0073 00       		.byte	0
 11757 0074 0B       		.uleb128 0xb
 11758 0075 0D       		.uleb128 0xd
 11759 0076 00       		.byte	0
 11760 0077 03       		.uleb128 0x3
 11761 0078 0E       		.uleb128 0xe
 11762 0079 3A       		.uleb128 0x3a
 11763 007a 0B       		.uleb128 0xb
 11764 007b 3B       		.uleb128 0x3b
 11765 007c 0B       		.uleb128 0xb
 11766 007d 49       		.uleb128 0x49
 11767 007e 13       		.uleb128 0x13
 11768 007f 38       		.uleb128 0x38
 11769 0080 0B       		.uleb128 0xb
 11770 0081 00       		.byte	0
 11771 0082 00       		.byte	0
ARM GAS  /tmp/ccvPPVYB.s 			page 208


 11772 0083 0C       		.uleb128 0xc
 11773 0084 0D       		.uleb128 0xd
 11774 0085 00       		.byte	0
 11775 0086 03       		.uleb128 0x3
 11776 0087 08       		.uleb128 0x8
 11777 0088 3A       		.uleb128 0x3a
 11778 0089 0B       		.uleb128 0xb
 11779 008a 3B       		.uleb128 0x3b
 11780 008b 05       		.uleb128 0x5
 11781 008c 49       		.uleb128 0x49
 11782 008d 13       		.uleb128 0x13
 11783 008e 38       		.uleb128 0x38
 11784 008f 0B       		.uleb128 0xb
 11785 0090 00       		.byte	0
 11786 0091 00       		.byte	0
 11787 0092 0D       		.uleb128 0xd
 11788 0093 0D       		.uleb128 0xd
 11789 0094 00       		.byte	0
 11790 0095 03       		.uleb128 0x3
 11791 0096 0E       		.uleb128 0xe
 11792 0097 3A       		.uleb128 0x3a
 11793 0098 0B       		.uleb128 0xb
 11794 0099 3B       		.uleb128 0x3b
 11795 009a 05       		.uleb128 0x5
 11796 009b 49       		.uleb128 0x49
 11797 009c 13       		.uleb128 0x13
 11798 009d 38       		.uleb128 0x38
 11799 009e 0B       		.uleb128 0xb
 11800 009f 00       		.byte	0
 11801 00a0 00       		.byte	0
 11802 00a1 0E       		.uleb128 0xe
 11803 00a2 0F       		.uleb128 0xf
 11804 00a3 00       		.byte	0
 11805 00a4 0B       		.uleb128 0xb
 11806 00a5 0B       		.uleb128 0xb
 11807 00a6 49       		.uleb128 0x49
 11808 00a7 13       		.uleb128 0x13
 11809 00a8 00       		.byte	0
 11810 00a9 00       		.byte	0
 11811 00aa 0F       		.uleb128 0xf
 11812 00ab 13       		.uleb128 0x13
 11813 00ac 01       		.byte	0x1
 11814 00ad 03       		.uleb128 0x3
 11815 00ae 0E       		.uleb128 0xe
 11816 00af 0B       		.uleb128 0xb
 11817 00b0 0B       		.uleb128 0xb
 11818 00b1 3A       		.uleb128 0x3a
 11819 00b2 0B       		.uleb128 0xb
 11820 00b3 3B       		.uleb128 0x3b
 11821 00b4 05       		.uleb128 0x5
 11822 00b5 01       		.uleb128 0x1
 11823 00b6 13       		.uleb128 0x13
 11824 00b7 00       		.byte	0
 11825 00b8 00       		.byte	0
 11826 00b9 10       		.uleb128 0x10
 11827 00ba 15       		.uleb128 0x15
 11828 00bb 01       		.byte	0x1
ARM GAS  /tmp/ccvPPVYB.s 			page 209


 11829 00bc 01       		.uleb128 0x1
 11830 00bd 13       		.uleb128 0x13
 11831 00be 00       		.byte	0
 11832 00bf 00       		.byte	0
 11833 00c0 11       		.uleb128 0x11
 11834 00c1 05       		.uleb128 0x5
 11835 00c2 00       		.byte	0
 11836 00c3 49       		.uleb128 0x49
 11837 00c4 13       		.uleb128 0x13
 11838 00c5 00       		.byte	0
 11839 00c6 00       		.byte	0
 11840 00c7 12       		.uleb128 0x12
 11841 00c8 0F       		.uleb128 0xf
 11842 00c9 00       		.byte	0
 11843 00ca 0B       		.uleb128 0xb
 11844 00cb 0B       		.uleb128 0xb
 11845 00cc 00       		.byte	0
 11846 00cd 00       		.byte	0
 11847 00ce 13       		.uleb128 0x13
 11848 00cf 13       		.uleb128 0x13
 11849 00d0 01       		.byte	0x1
 11850 00d1 03       		.uleb128 0x3
 11851 00d2 0E       		.uleb128 0xe
 11852 00d3 0B       		.uleb128 0xb
 11853 00d4 05       		.uleb128 0x5
 11854 00d5 3A       		.uleb128 0x3a
 11855 00d6 0B       		.uleb128 0xb
 11856 00d7 3B       		.uleb128 0x3b
 11857 00d8 05       		.uleb128 0x5
 11858 00d9 01       		.uleb128 0x1
 11859 00da 13       		.uleb128 0x13
 11860 00db 00       		.byte	0
 11861 00dc 00       		.byte	0
 11862 00dd 14       		.uleb128 0x14
 11863 00de 0D       		.uleb128 0xd
 11864 00df 00       		.byte	0
 11865 00e0 03       		.uleb128 0x3
 11866 00e1 0E       		.uleb128 0xe
 11867 00e2 3A       		.uleb128 0x3a
 11868 00e3 0B       		.uleb128 0xb
 11869 00e4 3B       		.uleb128 0x3b
 11870 00e5 05       		.uleb128 0x5
 11871 00e6 49       		.uleb128 0x49
 11872 00e7 13       		.uleb128 0x13
 11873 00e8 38       		.uleb128 0x38
 11874 00e9 05       		.uleb128 0x5
 11875 00ea 00       		.byte	0
 11876 00eb 00       		.byte	0
 11877 00ec 15       		.uleb128 0x15
 11878 00ed 34       		.uleb128 0x34
 11879 00ee 00       		.byte	0
 11880 00ef 03       		.uleb128 0x3
 11881 00f0 0E       		.uleb128 0xe
 11882 00f1 3A       		.uleb128 0x3a
 11883 00f2 0B       		.uleb128 0xb
 11884 00f3 3B       		.uleb128 0x3b
 11885 00f4 0B       		.uleb128 0xb
ARM GAS  /tmp/ccvPPVYB.s 			page 210


 11886 00f5 49       		.uleb128 0x49
 11887 00f6 13       		.uleb128 0x13
 11888 00f7 3F       		.uleb128 0x3f
 11889 00f8 19       		.uleb128 0x19
 11890 00f9 3C       		.uleb128 0x3c
 11891 00fa 19       		.uleb128 0x19
 11892 00fb 00       		.byte	0
 11893 00fc 00       		.byte	0
 11894 00fd 16       		.uleb128 0x16
 11895 00fe 0D       		.uleb128 0xd
 11896 00ff 00       		.byte	0
 11897 0100 03       		.uleb128 0x3
 11898 0101 08       		.uleb128 0x8
 11899 0102 3A       		.uleb128 0x3a
 11900 0103 0B       		.uleb128 0xb
 11901 0104 3B       		.uleb128 0x3b
 11902 0105 0B       		.uleb128 0xb
 11903 0106 49       		.uleb128 0x49
 11904 0107 13       		.uleb128 0x13
 11905 0108 38       		.uleb128 0x38
 11906 0109 0B       		.uleb128 0xb
 11907 010a 00       		.byte	0
 11908 010b 00       		.byte	0
 11909 010c 17       		.uleb128 0x17
 11910 010d 13       		.uleb128 0x13
 11911 010e 01       		.byte	0x1
 11912 010f 0B       		.uleb128 0xb
 11913 0110 0B       		.uleb128 0xb
 11914 0111 3A       		.uleb128 0x3a
 11915 0112 0B       		.uleb128 0xb
 11916 0113 3B       		.uleb128 0x3b
 11917 0114 0B       		.uleb128 0xb
 11918 0115 6E       		.uleb128 0x6e
 11919 0116 0E       		.uleb128 0xe
 11920 0117 01       		.uleb128 0x1
 11921 0118 13       		.uleb128 0x13
 11922 0119 00       		.byte	0
 11923 011a 00       		.byte	0
 11924 011b 18       		.uleb128 0x18
 11925 011c 13       		.uleb128 0x13
 11926 011d 01       		.byte	0x1
 11927 011e 0B       		.uleb128 0xb
 11928 011f 05       		.uleb128 0x5
 11929 0120 3A       		.uleb128 0x3a
 11930 0121 0B       		.uleb128 0xb
 11931 0122 3B       		.uleb128 0x3b
 11932 0123 0B       		.uleb128 0xb
 11933 0124 6E       		.uleb128 0x6e
 11934 0125 0E       		.uleb128 0xe
 11935 0126 01       		.uleb128 0x1
 11936 0127 13       		.uleb128 0x13
 11937 0128 00       		.byte	0
 11938 0129 00       		.byte	0
 11939 012a 19       		.uleb128 0x19
 11940 012b 01       		.uleb128 0x1
 11941 012c 01       		.byte	0x1
 11942 012d 49       		.uleb128 0x49
ARM GAS  /tmp/ccvPPVYB.s 			page 211


 11943 012e 13       		.uleb128 0x13
 11944 012f 01       		.uleb128 0x1
 11945 0130 13       		.uleb128 0x13
 11946 0131 00       		.byte	0
 11947 0132 00       		.byte	0
 11948 0133 1A       		.uleb128 0x1a
 11949 0134 21       		.uleb128 0x21
 11950 0135 00       		.byte	0
 11951 0136 49       		.uleb128 0x49
 11952 0137 13       		.uleb128 0x13
 11953 0138 2F       		.uleb128 0x2f
 11954 0139 0B       		.uleb128 0xb
 11955 013a 00       		.byte	0
 11956 013b 00       		.byte	0
 11957 013c 1B       		.uleb128 0x1b
 11958 013d 34       		.uleb128 0x34
 11959 013e 00       		.byte	0
 11960 013f 03       		.uleb128 0x3
 11961 0140 08       		.uleb128 0x8
 11962 0141 3A       		.uleb128 0x3a
 11963 0142 0B       		.uleb128 0xb
 11964 0143 3B       		.uleb128 0x3b
 11965 0144 05       		.uleb128 0x5
 11966 0145 49       		.uleb128 0x49
 11967 0146 13       		.uleb128 0x13
 11968 0147 3F       		.uleb128 0x3f
 11969 0148 19       		.uleb128 0x19
 11970 0149 3C       		.uleb128 0x3c
 11971 014a 19       		.uleb128 0x19
 11972 014b 00       		.byte	0
 11973 014c 00       		.byte	0
 11974 014d 1C       		.uleb128 0x1c
 11975 014e 15       		.uleb128 0x15
 11976 014f 01       		.byte	0x1
 11977 0150 49       		.uleb128 0x49
 11978 0151 13       		.uleb128 0x13
 11979 0152 01       		.uleb128 0x1
 11980 0153 13       		.uleb128 0x13
 11981 0154 00       		.byte	0
 11982 0155 00       		.byte	0
 11983 0156 1D       		.uleb128 0x1d
 11984 0157 39       		.uleb128 0x39
 11985 0158 01       		.byte	0x1
 11986 0159 03       		.uleb128 0x3
 11987 015a 0E       		.uleb128 0xe
 11988 015b 3A       		.uleb128 0x3a
 11989 015c 0B       		.uleb128 0xb
 11990 015d 3B       		.uleb128 0x3b
 11991 015e 0B       		.uleb128 0xb
 11992 015f 01       		.uleb128 0x1
 11993 0160 13       		.uleb128 0x13
 11994 0161 00       		.byte	0
 11995 0162 00       		.byte	0
 11996 0163 1E       		.uleb128 0x1e
 11997 0164 02       		.uleb128 0x2
 11998 0165 01       		.byte	0x1
 11999 0166 03       		.uleb128 0x3
ARM GAS  /tmp/ccvPPVYB.s 			page 212


 12000 0167 0E       		.uleb128 0xe
 12001 0168 0B       		.uleb128 0xb
 12002 0169 0B       		.uleb128 0xb
 12003 016a 3A       		.uleb128 0x3a
 12004 016b 0B       		.uleb128 0xb
 12005 016c 3B       		.uleb128 0x3b
 12006 016d 05       		.uleb128 0x5
 12007 016e 01       		.uleb128 0x1
 12008 016f 13       		.uleb128 0x13
 12009 0170 00       		.byte	0
 12010 0171 00       		.byte	0
 12011 0172 1F       		.uleb128 0x1f
 12012 0173 0D       		.uleb128 0xd
 12013 0174 00       		.byte	0
 12014 0175 03       		.uleb128 0x3
 12015 0176 08       		.uleb128 0x8
 12016 0177 3A       		.uleb128 0x3a
 12017 0178 0B       		.uleb128 0xb
 12018 0179 3B       		.uleb128 0x3b
 12019 017a 05       		.uleb128 0x5
 12020 017b 49       		.uleb128 0x49
 12021 017c 13       		.uleb128 0x13
 12022 017d 38       		.uleb128 0x38
 12023 017e 0B       		.uleb128 0xb
 12024 017f 32       		.uleb128 0x32
 12025 0180 0B       		.uleb128 0xb
 12026 0181 00       		.byte	0
 12027 0182 00       		.byte	0
 12028 0183 20       		.uleb128 0x20
 12029 0184 2E       		.uleb128 0x2e
 12030 0185 01       		.byte	0x1
 12031 0186 3F       		.uleb128 0x3f
 12032 0187 19       		.uleb128 0x19
 12033 0188 03       		.uleb128 0x3
 12034 0189 0E       		.uleb128 0xe
 12035 018a 3A       		.uleb128 0x3a
 12036 018b 0B       		.uleb128 0xb
 12037 018c 3B       		.uleb128 0x3b
 12038 018d 05       		.uleb128 0x5
 12039 018e 6E       		.uleb128 0x6e
 12040 018f 0E       		.uleb128 0xe
 12041 0190 49       		.uleb128 0x49
 12042 0191 13       		.uleb128 0x13
 12043 0192 32       		.uleb128 0x32
 12044 0193 0B       		.uleb128 0xb
 12045 0194 3C       		.uleb128 0x3c
 12046 0195 19       		.uleb128 0x19
 12047 0196 64       		.uleb128 0x64
 12048 0197 13       		.uleb128 0x13
 12049 0198 01       		.uleb128 0x1
 12050 0199 13       		.uleb128 0x13
 12051 019a 00       		.byte	0
 12052 019b 00       		.byte	0
 12053 019c 21       		.uleb128 0x21
 12054 019d 05       		.uleb128 0x5
 12055 019e 00       		.byte	0
 12056 019f 49       		.uleb128 0x49
ARM GAS  /tmp/ccvPPVYB.s 			page 213


 12057 01a0 13       		.uleb128 0x13
 12058 01a1 34       		.uleb128 0x34
 12059 01a2 19       		.uleb128 0x19
 12060 01a3 00       		.byte	0
 12061 01a4 00       		.byte	0
 12062 01a5 22       		.uleb128 0x22
 12063 01a6 2E       		.uleb128 0x2e
 12064 01a7 01       		.byte	0x1
 12065 01a8 3F       		.uleb128 0x3f
 12066 01a9 19       		.uleb128 0x19
 12067 01aa 03       		.uleb128 0x3
 12068 01ab 0E       		.uleb128 0xe
 12069 01ac 3A       		.uleb128 0x3a
 12070 01ad 0B       		.uleb128 0xb
 12071 01ae 3B       		.uleb128 0x3b
 12072 01af 05       		.uleb128 0x5
 12073 01b0 6E       		.uleb128 0x6e
 12074 01b1 0E       		.uleb128 0xe
 12075 01b2 32       		.uleb128 0x32
 12076 01b3 0B       		.uleb128 0xb
 12077 01b4 3C       		.uleb128 0x3c
 12078 01b5 19       		.uleb128 0x19
 12079 01b6 64       		.uleb128 0x64
 12080 01b7 13       		.uleb128 0x13
 12081 01b8 01       		.uleb128 0x1
 12082 01b9 13       		.uleb128 0x13
 12083 01ba 00       		.byte	0
 12084 01bb 00       		.byte	0
 12085 01bc 23       		.uleb128 0x23
 12086 01bd 2E       		.uleb128 0x2e
 12087 01be 01       		.byte	0x1
 12088 01bf 3F       		.uleb128 0x3f
 12089 01c0 19       		.uleb128 0x19
 12090 01c1 03       		.uleb128 0x3
 12091 01c2 0E       		.uleb128 0xe
 12092 01c3 3A       		.uleb128 0x3a
 12093 01c4 0B       		.uleb128 0xb
 12094 01c5 3B       		.uleb128 0x3b
 12095 01c6 05       		.uleb128 0x5
 12096 01c7 6E       		.uleb128 0x6e
 12097 01c8 0E       		.uleb128 0xe
 12098 01c9 49       		.uleb128 0x49
 12099 01ca 13       		.uleb128 0x13
 12100 01cb 32       		.uleb128 0x32
 12101 01cc 0B       		.uleb128 0xb
 12102 01cd 3C       		.uleb128 0x3c
 12103 01ce 19       		.uleb128 0x19
 12104 01cf 00       		.byte	0
 12105 01d0 00       		.byte	0
 12106 01d1 24       		.uleb128 0x24
 12107 01d2 0D       		.uleb128 0xd
 12108 01d3 00       		.byte	0
 12109 01d4 03       		.uleb128 0x3
 12110 01d5 0E       		.uleb128 0xe
 12111 01d6 3A       		.uleb128 0x3a
 12112 01d7 0B       		.uleb128 0xb
 12113 01d8 3B       		.uleb128 0x3b
ARM GAS  /tmp/ccvPPVYB.s 			page 214


 12114 01d9 05       		.uleb128 0x5
 12115 01da 49       		.uleb128 0x49
 12116 01db 13       		.uleb128 0x13
 12117 01dc 38       		.uleb128 0x38
 12118 01dd 0B       		.uleb128 0xb
 12119 01de 32       		.uleb128 0x32
 12120 01df 0B       		.uleb128 0xb
 12121 01e0 00       		.byte	0
 12122 01e1 00       		.byte	0
 12123 01e2 25       		.uleb128 0x25
 12124 01e3 2E       		.uleb128 0x2e
 12125 01e4 01       		.byte	0x1
 12126 01e5 3F       		.uleb128 0x3f
 12127 01e6 19       		.uleb128 0x19
 12128 01e7 03       		.uleb128 0x3
 12129 01e8 0E       		.uleb128 0xe
 12130 01e9 3A       		.uleb128 0x3a
 12131 01ea 0B       		.uleb128 0xb
 12132 01eb 3B       		.uleb128 0x3b
 12133 01ec 05       		.uleb128 0x5
 12134 01ed 6E       		.uleb128 0x6e
 12135 01ee 0E       		.uleb128 0xe
 12136 01ef 49       		.uleb128 0x49
 12137 01f0 13       		.uleb128 0x13
 12138 01f1 32       		.uleb128 0x32
 12139 01f2 0B       		.uleb128 0xb
 12140 01f3 3C       		.uleb128 0x3c
 12141 01f4 19       		.uleb128 0x19
 12142 01f5 64       		.uleb128 0x64
 12143 01f6 13       		.uleb128 0x13
 12144 01f7 00       		.byte	0
 12145 01f8 00       		.byte	0
 12146 01f9 26       		.uleb128 0x26
 12147 01fa 2E       		.uleb128 0x2e
 12148 01fb 01       		.byte	0x1
 12149 01fc 3F       		.uleb128 0x3f
 12150 01fd 19       		.uleb128 0x19
 12151 01fe 03       		.uleb128 0x3
 12152 01ff 0E       		.uleb128 0xe
 12153 0200 3A       		.uleb128 0x3a
 12154 0201 0B       		.uleb128 0xb
 12155 0202 3B       		.uleb128 0x3b
 12156 0203 05       		.uleb128 0x5
 12157 0204 6E       		.uleb128 0x6e
 12158 0205 0E       		.uleb128 0xe
 12159 0206 32       		.uleb128 0x32
 12160 0207 0B       		.uleb128 0xb
 12161 0208 3C       		.uleb128 0x3c
 12162 0209 19       		.uleb128 0x19
 12163 020a 64       		.uleb128 0x64
 12164 020b 13       		.uleb128 0x13
 12165 020c 00       		.byte	0
 12166 020d 00       		.byte	0
 12167 020e 27       		.uleb128 0x27
 12168 020f 2E       		.uleb128 0x2e
 12169 0210 01       		.byte	0x1
 12170 0211 3F       		.uleb128 0x3f
ARM GAS  /tmp/ccvPPVYB.s 			page 215


 12171 0212 19       		.uleb128 0x19
 12172 0213 03       		.uleb128 0x3
 12173 0214 08       		.uleb128 0x8
 12174 0215 3A       		.uleb128 0x3a
 12175 0216 0B       		.uleb128 0xb
 12176 0217 3B       		.uleb128 0x3b
 12177 0218 05       		.uleb128 0x5
 12178 0219 6E       		.uleb128 0x6e
 12179 021a 0E       		.uleb128 0xe
 12180 021b 49       		.uleb128 0x49
 12181 021c 13       		.uleb128 0x13
 12182 021d 32       		.uleb128 0x32
 12183 021e 0B       		.uleb128 0xb
 12184 021f 3C       		.uleb128 0x3c
 12185 0220 19       		.uleb128 0x19
 12186 0221 64       		.uleb128 0x64
 12187 0222 13       		.uleb128 0x13
 12188 0223 01       		.uleb128 0x1
 12189 0224 13       		.uleb128 0x13
 12190 0225 00       		.byte	0
 12191 0226 00       		.byte	0
 12192 0227 28       		.uleb128 0x28
 12193 0228 02       		.uleb128 0x2
 12194 0229 01       		.byte	0x1
 12195 022a 03       		.uleb128 0x3
 12196 022b 0E       		.uleb128 0xe
 12197 022c 0B       		.uleb128 0xb
 12198 022d 0B       		.uleb128 0xb
 12199 022e 3A       		.uleb128 0x3a
 12200 022f 0B       		.uleb128 0xb
 12201 0230 3B       		.uleb128 0x3b
 12202 0231 05       		.uleb128 0x5
 12203 0232 1D       		.uleb128 0x1d
 12204 0233 13       		.uleb128 0x13
 12205 0234 01       		.uleb128 0x1
 12206 0235 13       		.uleb128 0x13
 12207 0236 00       		.byte	0
 12208 0237 00       		.byte	0
 12209 0238 29       		.uleb128 0x29
 12210 0239 1C       		.uleb128 0x1c
 12211 023a 00       		.byte	0
 12212 023b 49       		.uleb128 0x49
 12213 023c 13       		.uleb128 0x13
 12214 023d 38       		.uleb128 0x38
 12215 023e 0B       		.uleb128 0xb
 12216 023f 32       		.uleb128 0x32
 12217 0240 0B       		.uleb128 0xb
 12218 0241 00       		.byte	0
 12219 0242 00       		.byte	0
 12220 0243 2A       		.uleb128 0x2a
 12221 0244 2E       		.uleb128 0x2e
 12222 0245 01       		.byte	0x1
 12223 0246 3F       		.uleb128 0x3f
 12224 0247 19       		.uleb128 0x19
 12225 0248 03       		.uleb128 0x3
 12226 0249 0E       		.uleb128 0xe
 12227 024a 6E       		.uleb128 0x6e
ARM GAS  /tmp/ccvPPVYB.s 			page 216


 12228 024b 0E       		.uleb128 0xe
 12229 024c 49       		.uleb128 0x49
 12230 024d 13       		.uleb128 0x13
 12231 024e 34       		.uleb128 0x34
 12232 024f 19       		.uleb128 0x19
 12233 0250 32       		.uleb128 0x32
 12234 0251 0B       		.uleb128 0xb
 12235 0252 3C       		.uleb128 0x3c
 12236 0253 19       		.uleb128 0x19
 12237 0254 64       		.uleb128 0x64
 12238 0255 13       		.uleb128 0x13
 12239 0256 01       		.uleb128 0x1
 12240 0257 13       		.uleb128 0x13
 12241 0258 00       		.byte	0
 12242 0259 00       		.byte	0
 12243 025a 2B       		.uleb128 0x2b
 12244 025b 2E       		.uleb128 0x2e
 12245 025c 01       		.byte	0x1
 12246 025d 3F       		.uleb128 0x3f
 12247 025e 19       		.uleb128 0x19
 12248 025f 03       		.uleb128 0x3
 12249 0260 0E       		.uleb128 0xe
 12250 0261 3A       		.uleb128 0x3a
 12251 0262 0B       		.uleb128 0xb
 12252 0263 3B       		.uleb128 0x3b
 12253 0264 0B       		.uleb128 0xb
 12254 0265 6E       		.uleb128 0x6e
 12255 0266 0E       		.uleb128 0xe
 12256 0267 49       		.uleb128 0x49
 12257 0268 13       		.uleb128 0x13
 12258 0269 32       		.uleb128 0x32
 12259 026a 0B       		.uleb128 0xb
 12260 026b 3C       		.uleb128 0x3c
 12261 026c 19       		.uleb128 0x19
 12262 026d 64       		.uleb128 0x64
 12263 026e 13       		.uleb128 0x13
 12264 026f 01       		.uleb128 0x1
 12265 0270 13       		.uleb128 0x13
 12266 0271 00       		.byte	0
 12267 0272 00       		.byte	0
 12268 0273 2C       		.uleb128 0x2c
 12269 0274 2E       		.uleb128 0x2e
 12270 0275 01       		.byte	0x1
 12271 0276 3F       		.uleb128 0x3f
 12272 0277 19       		.uleb128 0x19
 12273 0278 03       		.uleb128 0x3
 12274 0279 0E       		.uleb128 0xe
 12275 027a 3A       		.uleb128 0x3a
 12276 027b 0B       		.uleb128 0xb
 12277 027c 3B       		.uleb128 0x3b
 12278 027d 0B       		.uleb128 0xb
 12279 027e 6E       		.uleb128 0x6e
 12280 027f 0E       		.uleb128 0xe
 12281 0280 4C       		.uleb128 0x4c
 12282 0281 0B       		.uleb128 0xb
 12283 0282 4D       		.uleb128 0x4d
 12284 0283 18       		.uleb128 0x18
ARM GAS  /tmp/ccvPPVYB.s 			page 217


 12285 0284 1D       		.uleb128 0x1d
 12286 0285 13       		.uleb128 0x13
 12287 0286 32       		.uleb128 0x32
 12288 0287 0B       		.uleb128 0xb
 12289 0288 3C       		.uleb128 0x3c
 12290 0289 19       		.uleb128 0x19
 12291 028a 64       		.uleb128 0x64
 12292 028b 13       		.uleb128 0x13
 12293 028c 01       		.uleb128 0x1
 12294 028d 13       		.uleb128 0x13
 12295 028e 00       		.byte	0
 12296 028f 00       		.byte	0
 12297 0290 2D       		.uleb128 0x2d
 12298 0291 2E       		.uleb128 0x2e
 12299 0292 01       		.byte	0x1
 12300 0293 3F       		.uleb128 0x3f
 12301 0294 19       		.uleb128 0x19
 12302 0295 03       		.uleb128 0x3
 12303 0296 0E       		.uleb128 0xe
 12304 0297 3A       		.uleb128 0x3a
 12305 0298 0B       		.uleb128 0xb
 12306 0299 3B       		.uleb128 0x3b
 12307 029a 0B       		.uleb128 0xb
 12308 029b 6E       		.uleb128 0x6e
 12309 029c 0E       		.uleb128 0xe
 12310 029d 49       		.uleb128 0x49
 12311 029e 13       		.uleb128 0x13
 12312 029f 4C       		.uleb128 0x4c
 12313 02a0 0B       		.uleb128 0xb
 12314 02a1 4D       		.uleb128 0x4d
 12315 02a2 18       		.uleb128 0x18
 12316 02a3 1D       		.uleb128 0x1d
 12317 02a4 13       		.uleb128 0x13
 12318 02a5 32       		.uleb128 0x32
 12319 02a6 0B       		.uleb128 0xb
 12320 02a7 3C       		.uleb128 0x3c
 12321 02a8 19       		.uleb128 0x19
 12322 02a9 64       		.uleb128 0x64
 12323 02aa 13       		.uleb128 0x13
 12324 02ab 01       		.uleb128 0x1
 12325 02ac 13       		.uleb128 0x13
 12326 02ad 00       		.byte	0
 12327 02ae 00       		.byte	0
 12328 02af 2E       		.uleb128 0x2e
 12329 02b0 2E       		.uleb128 0x2e
 12330 02b1 01       		.byte	0x1
 12331 02b2 3F       		.uleb128 0x3f
 12332 02b3 19       		.uleb128 0x19
 12333 02b4 03       		.uleb128 0x3
 12334 02b5 0E       		.uleb128 0xe
 12335 02b6 3A       		.uleb128 0x3a
 12336 02b7 0B       		.uleb128 0xb
 12337 02b8 3B       		.uleb128 0x3b
 12338 02b9 0B       		.uleb128 0xb
 12339 02ba 6E       		.uleb128 0x6e
 12340 02bb 0E       		.uleb128 0xe
 12341 02bc 32       		.uleb128 0x32
ARM GAS  /tmp/ccvPPVYB.s 			page 218


 12342 02bd 0B       		.uleb128 0xb
 12343 02be 3C       		.uleb128 0x3c
 12344 02bf 19       		.uleb128 0x19
 12345 02c0 01       		.uleb128 0x1
 12346 02c1 13       		.uleb128 0x13
 12347 02c2 00       		.byte	0
 12348 02c3 00       		.byte	0
 12349 02c4 2F       		.uleb128 0x2f
 12350 02c5 2E       		.uleb128 0x2e
 12351 02c6 01       		.byte	0x1
 12352 02c7 3F       		.uleb128 0x3f
 12353 02c8 19       		.uleb128 0x19
 12354 02c9 03       		.uleb128 0x3
 12355 02ca 0E       		.uleb128 0xe
 12356 02cb 3A       		.uleb128 0x3a
 12357 02cc 0B       		.uleb128 0xb
 12358 02cd 3B       		.uleb128 0x3b
 12359 02ce 0B       		.uleb128 0xb
 12360 02cf 6E       		.uleb128 0x6e
 12361 02d0 0E       		.uleb128 0xe
 12362 02d1 49       		.uleb128 0x49
 12363 02d2 13       		.uleb128 0x13
 12364 02d3 32       		.uleb128 0x32
 12365 02d4 0B       		.uleb128 0xb
 12366 02d5 3C       		.uleb128 0x3c
 12367 02d6 19       		.uleb128 0x19
 12368 02d7 01       		.uleb128 0x1
 12369 02d8 13       		.uleb128 0x13
 12370 02d9 00       		.byte	0
 12371 02da 00       		.byte	0
 12372 02db 30       		.uleb128 0x30
 12373 02dc 2E       		.uleb128 0x2e
 12374 02dd 00       		.byte	0
 12375 02de 3F       		.uleb128 0x3f
 12376 02df 19       		.uleb128 0x19
 12377 02e0 03       		.uleb128 0x3
 12378 02e1 0E       		.uleb128 0xe
 12379 02e2 3A       		.uleb128 0x3a
 12380 02e3 0B       		.uleb128 0xb
 12381 02e4 3B       		.uleb128 0x3b
 12382 02e5 0B       		.uleb128 0xb
 12383 02e6 6E       		.uleb128 0x6e
 12384 02e7 0E       		.uleb128 0xe
 12385 02e8 49       		.uleb128 0x49
 12386 02e9 13       		.uleb128 0x13
 12387 02ea 32       		.uleb128 0x32
 12388 02eb 0B       		.uleb128 0xb
 12389 02ec 3C       		.uleb128 0x3c
 12390 02ed 19       		.uleb128 0x19
 12391 02ee 00       		.byte	0
 12392 02ef 00       		.byte	0
 12393 02f0 31       		.uleb128 0x31
 12394 02f1 2E       		.uleb128 0x2e
 12395 02f2 00       		.byte	0
 12396 02f3 3F       		.uleb128 0x3f
 12397 02f4 19       		.uleb128 0x19
 12398 02f5 03       		.uleb128 0x3
ARM GAS  /tmp/ccvPPVYB.s 			page 219


 12399 02f6 0E       		.uleb128 0xe
 12400 02f7 3A       		.uleb128 0x3a
 12401 02f8 0B       		.uleb128 0xb
 12402 02f9 3B       		.uleb128 0x3b
 12403 02fa 0B       		.uleb128 0xb
 12404 02fb 6E       		.uleb128 0x6e
 12405 02fc 0E       		.uleb128 0xe
 12406 02fd 32       		.uleb128 0x32
 12407 02fe 0B       		.uleb128 0xb
 12408 02ff 3C       		.uleb128 0x3c
 12409 0300 19       		.uleb128 0x19
 12410 0301 00       		.byte	0
 12411 0302 00       		.byte	0
 12412 0303 32       		.uleb128 0x32
 12413 0304 2E       		.uleb128 0x2e
 12414 0305 01       		.byte	0x1
 12415 0306 3F       		.uleb128 0x3f
 12416 0307 19       		.uleb128 0x19
 12417 0308 03       		.uleb128 0x3
 12418 0309 0E       		.uleb128 0xe
 12419 030a 3A       		.uleb128 0x3a
 12420 030b 0B       		.uleb128 0xb
 12421 030c 3B       		.uleb128 0x3b
 12422 030d 05       		.uleb128 0x5
 12423 030e 6E       		.uleb128 0x6e
 12424 030f 0E       		.uleb128 0xe
 12425 0310 49       		.uleb128 0x49
 12426 0311 13       		.uleb128 0x13
 12427 0312 32       		.uleb128 0x32
 12428 0313 0B       		.uleb128 0xb
 12429 0314 3C       		.uleb128 0x3c
 12430 0315 19       		.uleb128 0x19
 12431 0316 01       		.uleb128 0x1
 12432 0317 13       		.uleb128 0x13
 12433 0318 00       		.byte	0
 12434 0319 00       		.byte	0
 12435 031a 33       		.uleb128 0x33
 12436 031b 2E       		.uleb128 0x2e
 12437 031c 01       		.byte	0x1
 12438 031d 3F       		.uleb128 0x3f
 12439 031e 19       		.uleb128 0x19
 12440 031f 03       		.uleb128 0x3
 12441 0320 0E       		.uleb128 0xe
 12442 0321 3A       		.uleb128 0x3a
 12443 0322 0B       		.uleb128 0xb
 12444 0323 3B       		.uleb128 0x3b
 12445 0324 05       		.uleb128 0x5
 12446 0325 6E       		.uleb128 0x6e
 12447 0326 0E       		.uleb128 0xe
 12448 0327 32       		.uleb128 0x32
 12449 0328 0B       		.uleb128 0xb
 12450 0329 3C       		.uleb128 0x3c
 12451 032a 19       		.uleb128 0x19
 12452 032b 01       		.uleb128 0x1
 12453 032c 13       		.uleb128 0x13
 12454 032d 00       		.byte	0
 12455 032e 00       		.byte	0
ARM GAS  /tmp/ccvPPVYB.s 			page 220


 12456 032f 34       		.uleb128 0x34
 12457 0330 2E       		.uleb128 0x2e
 12458 0331 00       		.byte	0
 12459 0332 3F       		.uleb128 0x3f
 12460 0333 19       		.uleb128 0x19
 12461 0334 03       		.uleb128 0x3
 12462 0335 0E       		.uleb128 0xe
 12463 0336 3A       		.uleb128 0x3a
 12464 0337 0B       		.uleb128 0xb
 12465 0338 3B       		.uleb128 0x3b
 12466 0339 05       		.uleb128 0x5
 12467 033a 6E       		.uleb128 0x6e
 12468 033b 0E       		.uleb128 0xe
 12469 033c 32       		.uleb128 0x32
 12470 033d 0B       		.uleb128 0xb
 12471 033e 3C       		.uleb128 0x3c
 12472 033f 19       		.uleb128 0x19
 12473 0340 00       		.byte	0
 12474 0341 00       		.byte	0
 12475 0342 35       		.uleb128 0x35
 12476 0343 0D       		.uleb128 0xd
 12477 0344 00       		.byte	0
 12478 0345 03       		.uleb128 0x3
 12479 0346 0E       		.uleb128 0xe
 12480 0347 49       		.uleb128 0x49
 12481 0348 13       		.uleb128 0x13
 12482 0349 38       		.uleb128 0x38
 12483 034a 0B       		.uleb128 0xb
 12484 034b 34       		.uleb128 0x34
 12485 034c 19       		.uleb128 0x19
 12486 034d 32       		.uleb128 0x32
 12487 034e 0B       		.uleb128 0xb
 12488 034f 00       		.byte	0
 12489 0350 00       		.byte	0
 12490 0351 36       		.uleb128 0x36
 12491 0352 2E       		.uleb128 0x2e
 12492 0353 01       		.byte	0x1
 12493 0354 3F       		.uleb128 0x3f
 12494 0355 19       		.uleb128 0x19
 12495 0356 03       		.uleb128 0x3
 12496 0357 0E       		.uleb128 0xe
 12497 0358 3A       		.uleb128 0x3a
 12498 0359 0B       		.uleb128 0xb
 12499 035a 3B       		.uleb128 0x3b
 12500 035b 0B       		.uleb128 0xb
 12501 035c 6E       		.uleb128 0x6e
 12502 035d 0E       		.uleb128 0xe
 12503 035e 32       		.uleb128 0x32
 12504 035f 0B       		.uleb128 0xb
 12505 0360 3C       		.uleb128 0x3c
 12506 0361 19       		.uleb128 0x19
 12507 0362 64       		.uleb128 0x64
 12508 0363 13       		.uleb128 0x13
 12509 0364 01       		.uleb128 0x1
 12510 0365 13       		.uleb128 0x13
 12511 0366 00       		.byte	0
 12512 0367 00       		.byte	0
ARM GAS  /tmp/ccvPPVYB.s 			page 221


 12513 0368 37       		.uleb128 0x37
 12514 0369 2E       		.uleb128 0x2e
 12515 036a 01       		.byte	0x1
 12516 036b 3F       		.uleb128 0x3f
 12517 036c 19       		.uleb128 0x19
 12518 036d 03       		.uleb128 0x3
 12519 036e 0E       		.uleb128 0xe
 12520 036f 3A       		.uleb128 0x3a
 12521 0370 0B       		.uleb128 0xb
 12522 0371 3B       		.uleb128 0x3b
 12523 0372 0B       		.uleb128 0xb
 12524 0373 6E       		.uleb128 0x6e
 12525 0374 0E       		.uleb128 0xe
 12526 0375 32       		.uleb128 0x32
 12527 0376 0B       		.uleb128 0xb
 12528 0377 3C       		.uleb128 0x3c
 12529 0378 19       		.uleb128 0x19
 12530 0379 64       		.uleb128 0x64
 12531 037a 13       		.uleb128 0x13
 12532 037b 00       		.byte	0
 12533 037c 00       		.byte	0
 12534 037d 38       		.uleb128 0x38
 12535 037e 2E       		.uleb128 0x2e
 12536 037f 01       		.byte	0x1
 12537 0380 3F       		.uleb128 0x3f
 12538 0381 19       		.uleb128 0x19
 12539 0382 03       		.uleb128 0x3
 12540 0383 0E       		.uleb128 0xe
 12541 0384 3A       		.uleb128 0x3a
 12542 0385 0B       		.uleb128 0xb
 12543 0386 3B       		.uleb128 0x3b
 12544 0387 0B       		.uleb128 0xb
 12545 0388 6E       		.uleb128 0x6e
 12546 0389 0E       		.uleb128 0xe
 12547 038a 3C       		.uleb128 0x3c
 12548 038b 19       		.uleb128 0x19
 12549 038c 00       		.byte	0
 12550 038d 00       		.byte	0
 12551 038e 39       		.uleb128 0x39
 12552 038f 42       		.uleb128 0x42
 12553 0390 00       		.byte	0
 12554 0391 0B       		.uleb128 0xb
 12555 0392 0B       		.uleb128 0xb
 12556 0393 49       		.uleb128 0x49
 12557 0394 13       		.uleb128 0x13
 12558 0395 00       		.byte	0
 12559 0396 00       		.byte	0
 12560 0397 3A       		.uleb128 0x3a
 12561 0398 10       		.uleb128 0x10
 12562 0399 00       		.byte	0
 12563 039a 0B       		.uleb128 0xb
 12564 039b 0B       		.uleb128 0xb
 12565 039c 49       		.uleb128 0x49
 12566 039d 13       		.uleb128 0x13
 12567 039e 00       		.byte	0
 12568 039f 00       		.byte	0
 12569 03a0 3B       		.uleb128 0x3b
ARM GAS  /tmp/ccvPPVYB.s 			page 222


 12570 03a1 18       		.uleb128 0x18
 12571 03a2 00       		.byte	0
 12572 03a3 00       		.byte	0
 12573 03a4 00       		.byte	0
 12574 03a5 3C       		.uleb128 0x3c
 12575 03a6 0F       		.uleb128 0xf
 12576 03a7 00       		.byte	0
 12577 03a8 0B       		.uleb128 0xb
 12578 03a9 0B       		.uleb128 0xb
 12579 03aa 03       		.uleb128 0x3
 12580 03ab 0E       		.uleb128 0xe
 12581 03ac 49       		.uleb128 0x49
 12582 03ad 13       		.uleb128 0x13
 12583 03ae 00       		.byte	0
 12584 03af 00       		.byte	0
 12585 03b0 3D       		.uleb128 0x3d
 12586 03b1 2E       		.uleb128 0x2e
 12587 03b2 01       		.byte	0x1
 12588 03b3 47       		.uleb128 0x47
 12589 03b4 13       		.uleb128 0x13
 12590 03b5 3A       		.uleb128 0x3a
 12591 03b6 0B       		.uleb128 0xb
 12592 03b7 3B       		.uleb128 0x3b
 12593 03b8 05       		.uleb128 0x5
 12594 03b9 64       		.uleb128 0x64
 12595 03ba 13       		.uleb128 0x13
 12596 03bb 11       		.uleb128 0x11
 12597 03bc 01       		.uleb128 0x1
 12598 03bd 12       		.uleb128 0x12
 12599 03be 06       		.uleb128 0x6
 12600 03bf 40       		.uleb128 0x40
 12601 03c0 18       		.uleb128 0x18
 12602 03c1 64       		.uleb128 0x64
 12603 03c2 13       		.uleb128 0x13
 12604 03c3 9642     		.uleb128 0x2116
 12605 03c5 19       		.uleb128 0x19
 12606 03c6 01       		.uleb128 0x1
 12607 03c7 13       		.uleb128 0x13
 12608 03c8 00       		.byte	0
 12609 03c9 00       		.byte	0
 12610 03ca 3E       		.uleb128 0x3e
 12611 03cb 05       		.uleb128 0x5
 12612 03cc 00       		.byte	0
 12613 03cd 03       		.uleb128 0x3
 12614 03ce 0E       		.uleb128 0xe
 12615 03cf 49       		.uleb128 0x49
 12616 03d0 13       		.uleb128 0x13
 12617 03d1 34       		.uleb128 0x34
 12618 03d2 19       		.uleb128 0x19
 12619 03d3 02       		.uleb128 0x2
 12620 03d4 18       		.uleb128 0x18
 12621 03d5 00       		.byte	0
 12622 03d6 00       		.byte	0
 12623 03d7 3F       		.uleb128 0x3f
 12624 03d8 05       		.uleb128 0x5
 12625 03d9 00       		.byte	0
 12626 03da 03       		.uleb128 0x3
ARM GAS  /tmp/ccvPPVYB.s 			page 223


 12627 03db 0E       		.uleb128 0xe
 12628 03dc 3A       		.uleb128 0x3a
 12629 03dd 0B       		.uleb128 0xb
 12630 03de 3B       		.uleb128 0x3b
 12631 03df 05       		.uleb128 0x5
 12632 03e0 49       		.uleb128 0x49
 12633 03e1 13       		.uleb128 0x13
 12634 03e2 02       		.uleb128 0x2
 12635 03e3 18       		.uleb128 0x18
 12636 03e4 00       		.byte	0
 12637 03e5 00       		.byte	0
 12638 03e6 40       		.uleb128 0x40
 12639 03e7 05       		.uleb128 0x5
 12640 03e8 00       		.byte	0
 12641 03e9 03       		.uleb128 0x3
 12642 03ea 08       		.uleb128 0x8
 12643 03eb 3A       		.uleb128 0x3a
 12644 03ec 0B       		.uleb128 0xb
 12645 03ed 3B       		.uleb128 0x3b
 12646 03ee 05       		.uleb128 0x5
 12647 03ef 49       		.uleb128 0x49
 12648 03f0 13       		.uleb128 0x13
 12649 03f1 02       		.uleb128 0x2
 12650 03f2 18       		.uleb128 0x18
 12651 03f3 00       		.byte	0
 12652 03f4 00       		.byte	0
 12653 03f5 41       		.uleb128 0x41
 12654 03f6 2E       		.uleb128 0x2e
 12655 03f7 01       		.byte	0x1
 12656 03f8 47       		.uleb128 0x47
 12657 03f9 13       		.uleb128 0x13
 12658 03fa 3A       		.uleb128 0x3a
 12659 03fb 0B       		.uleb128 0xb
 12660 03fc 3B       		.uleb128 0x3b
 12661 03fd 05       		.uleb128 0x5
 12662 03fe 20       		.uleb128 0x20
 12663 03ff 0B       		.uleb128 0xb
 12664 0400 64       		.uleb128 0x64
 12665 0401 13       		.uleb128 0x13
 12666 0402 01       		.uleb128 0x1
 12667 0403 13       		.uleb128 0x13
 12668 0404 00       		.byte	0
 12669 0405 00       		.byte	0
 12670 0406 42       		.uleb128 0x42
 12671 0407 05       		.uleb128 0x5
 12672 0408 00       		.byte	0
 12673 0409 03       		.uleb128 0x3
 12674 040a 0E       		.uleb128 0xe
 12675 040b 49       		.uleb128 0x49
 12676 040c 13       		.uleb128 0x13
 12677 040d 34       		.uleb128 0x34
 12678 040e 19       		.uleb128 0x19
 12679 040f 00       		.byte	0
 12680 0410 00       		.byte	0
 12681 0411 43       		.uleb128 0x43
 12682 0412 05       		.uleb128 0x5
 12683 0413 00       		.byte	0
ARM GAS  /tmp/ccvPPVYB.s 			page 224


 12684 0414 03       		.uleb128 0x3
 12685 0415 0E       		.uleb128 0xe
 12686 0416 3A       		.uleb128 0x3a
 12687 0417 0B       		.uleb128 0xb
 12688 0418 3B       		.uleb128 0x3b
 12689 0419 05       		.uleb128 0x5
 12690 041a 49       		.uleb128 0x49
 12691 041b 13       		.uleb128 0x13
 12692 041c 00       		.byte	0
 12693 041d 00       		.byte	0
 12694 041e 44       		.uleb128 0x44
 12695 041f 05       		.uleb128 0x5
 12696 0420 00       		.byte	0
 12697 0421 03       		.uleb128 0x3
 12698 0422 08       		.uleb128 0x8
 12699 0423 3A       		.uleb128 0x3a
 12700 0424 0B       		.uleb128 0xb
 12701 0425 3B       		.uleb128 0x3b
 12702 0426 05       		.uleb128 0x5
 12703 0427 49       		.uleb128 0x49
 12704 0428 13       		.uleb128 0x13
 12705 0429 00       		.byte	0
 12706 042a 00       		.byte	0
 12707 042b 45       		.uleb128 0x45
 12708 042c 2E       		.uleb128 0x2e
 12709 042d 01       		.byte	0x1
 12710 042e 31       		.uleb128 0x31
 12711 042f 13       		.uleb128 0x13
 12712 0430 6E       		.uleb128 0x6e
 12713 0431 0E       		.uleb128 0xe
 12714 0432 64       		.uleb128 0x64
 12715 0433 13       		.uleb128 0x13
 12716 0434 11       		.uleb128 0x11
 12717 0435 01       		.uleb128 0x1
 12718 0436 12       		.uleb128 0x12
 12719 0437 06       		.uleb128 0x6
 12720 0438 40       		.uleb128 0x40
 12721 0439 18       		.uleb128 0x18
 12722 043a 64       		.uleb128 0x64
 12723 043b 13       		.uleb128 0x13
 12724 043c 9642     		.uleb128 0x2116
 12725 043e 19       		.uleb128 0x19
 12726 043f 01       		.uleb128 0x1
 12727 0440 13       		.uleb128 0x13
 12728 0441 00       		.byte	0
 12729 0442 00       		.byte	0
 12730 0443 46       		.uleb128 0x46
 12731 0444 05       		.uleb128 0x5
 12732 0445 00       		.byte	0
 12733 0446 31       		.uleb128 0x31
 12734 0447 13       		.uleb128 0x13
 12735 0448 02       		.uleb128 0x2
 12736 0449 18       		.uleb128 0x18
 12737 044a 00       		.byte	0
 12738 044b 00       		.byte	0
 12739 044c 47       		.uleb128 0x47
 12740 044d 2E       		.uleb128 0x2e
ARM GAS  /tmp/ccvPPVYB.s 			page 225


 12741 044e 01       		.byte	0x1
 12742 044f 47       		.uleb128 0x47
 12743 0450 13       		.uleb128 0x13
 12744 0451 3A       		.uleb128 0x3a
 12745 0452 0B       		.uleb128 0xb
 12746 0453 3B       		.uleb128 0x3b
 12747 0454 05       		.uleb128 0x5
 12748 0455 11       		.uleb128 0x11
 12749 0456 01       		.uleb128 0x1
 12750 0457 12       		.uleb128 0x12
 12751 0458 06       		.uleb128 0x6
 12752 0459 40       		.uleb128 0x40
 12753 045a 18       		.uleb128 0x18
 12754 045b 9642     		.uleb128 0x2116
 12755 045d 19       		.uleb128 0x19
 12756 045e 01       		.uleb128 0x1
 12757 045f 13       		.uleb128 0x13
 12758 0460 00       		.byte	0
 12759 0461 00       		.byte	0
 12760 0462 48       		.uleb128 0x48
 12761 0463 2E       		.uleb128 0x2e
 12762 0464 00       		.byte	0
 12763 0465 47       		.uleb128 0x47
 12764 0466 13       		.uleb128 0x13
 12765 0467 11       		.uleb128 0x11
 12766 0468 01       		.uleb128 0x1
 12767 0469 12       		.uleb128 0x12
 12768 046a 06       		.uleb128 0x6
 12769 046b 40       		.uleb128 0x40
 12770 046c 18       		.uleb128 0x18
 12771 046d 9642     		.uleb128 0x2116
 12772 046f 19       		.uleb128 0x19
 12773 0470 00       		.byte	0
 12774 0471 00       		.byte	0
 12775 0472 49       		.uleb128 0x49
 12776 0473 2E       		.uleb128 0x2e
 12777 0474 01       		.byte	0x1
 12778 0475 47       		.uleb128 0x47
 12779 0476 13       		.uleb128 0x13
 12780 0477 11       		.uleb128 0x11
 12781 0478 01       		.uleb128 0x1
 12782 0479 12       		.uleb128 0x12
 12783 047a 06       		.uleb128 0x6
 12784 047b 40       		.uleb128 0x40
 12785 047c 18       		.uleb128 0x18
 12786 047d 9642     		.uleb128 0x2116
 12787 047f 19       		.uleb128 0x19
 12788 0480 01       		.uleb128 0x1
 12789 0481 13       		.uleb128 0x13
 12790 0482 00       		.byte	0
 12791 0483 00       		.byte	0
 12792 0484 4A       		.uleb128 0x4a
 12793 0485 05       		.uleb128 0x5
 12794 0486 00       		.byte	0
 12795 0487 03       		.uleb128 0x3
 12796 0488 0E       		.uleb128 0xe
 12797 0489 3A       		.uleb128 0x3a
ARM GAS  /tmp/ccvPPVYB.s 			page 226


 12798 048a 0B       		.uleb128 0xb
 12799 048b 3B       		.uleb128 0x3b
 12800 048c 0B       		.uleb128 0xb
 12801 048d 49       		.uleb128 0x49
 12802 048e 13       		.uleb128 0x13
 12803 048f 02       		.uleb128 0x2
 12804 0490 18       		.uleb128 0x18
 12805 0491 00       		.byte	0
 12806 0492 00       		.byte	0
 12807 0493 4B       		.uleb128 0x4b
 12808 0494 34       		.uleb128 0x34
 12809 0495 00       		.byte	0
 12810 0496 03       		.uleb128 0x3
 12811 0497 08       		.uleb128 0x8
 12812 0498 3A       		.uleb128 0x3a
 12813 0499 0B       		.uleb128 0xb
 12814 049a 3B       		.uleb128 0x3b
 12815 049b 0B       		.uleb128 0xb
 12816 049c 49       		.uleb128 0x49
 12817 049d 13       		.uleb128 0x13
 12818 049e 02       		.uleb128 0x2
 12819 049f 18       		.uleb128 0x18
 12820 04a0 00       		.byte	0
 12821 04a1 00       		.byte	0
 12822 04a2 4C       		.uleb128 0x4c
 12823 04a3 05       		.uleb128 0x5
 12824 04a4 00       		.byte	0
 12825 04a5 03       		.uleb128 0x3
 12826 04a6 08       		.uleb128 0x8
 12827 04a7 3A       		.uleb128 0x3a
 12828 04a8 0B       		.uleb128 0xb
 12829 04a9 3B       		.uleb128 0x3b
 12830 04aa 0B       		.uleb128 0xb
 12831 04ab 49       		.uleb128 0x49
 12832 04ac 13       		.uleb128 0x13
 12833 04ad 02       		.uleb128 0x2
 12834 04ae 18       		.uleb128 0x18
 12835 04af 00       		.byte	0
 12836 04b0 00       		.byte	0
 12837 04b1 4D       		.uleb128 0x4d
 12838 04b2 2E       		.uleb128 0x2e
 12839 04b3 01       		.byte	0x1
 12840 04b4 47       		.uleb128 0x47
 12841 04b5 13       		.uleb128 0x13
 12842 04b6 64       		.uleb128 0x64
 12843 04b7 13       		.uleb128 0x13
 12844 04b8 11       		.uleb128 0x11
 12845 04b9 01       		.uleb128 0x1
 12846 04ba 12       		.uleb128 0x12
 12847 04bb 06       		.uleb128 0x6
 12848 04bc 40       		.uleb128 0x40
 12849 04bd 18       		.uleb128 0x18
 12850 04be 64       		.uleb128 0x64
 12851 04bf 13       		.uleb128 0x13
 12852 04c0 9642     		.uleb128 0x2116
 12853 04c2 19       		.uleb128 0x19
 12854 04c3 01       		.uleb128 0x1
ARM GAS  /tmp/ccvPPVYB.s 			page 227


 12855 04c4 13       		.uleb128 0x13
 12856 04c5 00       		.byte	0
 12857 04c6 00       		.byte	0
 12858 04c7 4E       		.uleb128 0x4e
 12859 04c8 2E       		.uleb128 0x2e
 12860 04c9 01       		.byte	0x1
 12861 04ca 31       		.uleb128 0x31
 12862 04cb 13       		.uleb128 0x13
 12863 04cc 6E       		.uleb128 0x6e
 12864 04cd 0E       		.uleb128 0xe
 12865 04ce 64       		.uleb128 0x64
 12866 04cf 13       		.uleb128 0x13
 12867 04d0 11       		.uleb128 0x11
 12868 04d1 01       		.uleb128 0x1
 12869 04d2 12       		.uleb128 0x12
 12870 04d3 06       		.uleb128 0x6
 12871 04d4 40       		.uleb128 0x40
 12872 04d5 18       		.uleb128 0x18
 12873 04d6 64       		.uleb128 0x64
 12874 04d7 13       		.uleb128 0x13
 12875 04d8 9742     		.uleb128 0x2117
 12876 04da 19       		.uleb128 0x19
 12877 04db 01       		.uleb128 0x1
 12878 04dc 13       		.uleb128 0x13
 12879 04dd 00       		.byte	0
 12880 04de 00       		.byte	0
 12881 04df 4F       		.uleb128 0x4f
 12882 04e0 2E       		.uleb128 0x2e
 12883 04e1 01       		.byte	0x1
 12884 04e2 47       		.uleb128 0x47
 12885 04e3 13       		.uleb128 0x13
 12886 04e4 64       		.uleb128 0x64
 12887 04e5 13       		.uleb128 0x13
 12888 04e6 11       		.uleb128 0x11
 12889 04e7 01       		.uleb128 0x1
 12890 04e8 12       		.uleb128 0x12
 12891 04e9 06       		.uleb128 0x6
 12892 04ea 40       		.uleb128 0x40
 12893 04eb 18       		.uleb128 0x18
 12894 04ec 64       		.uleb128 0x64
 12895 04ed 13       		.uleb128 0x13
 12896 04ee 9742     		.uleb128 0x2117
 12897 04f0 19       		.uleb128 0x19
 12898 04f1 01       		.uleb128 0x1
 12899 04f2 13       		.uleb128 0x13
 12900 04f3 00       		.byte	0
 12901 04f4 00       		.byte	0
 12902 04f5 50       		.uleb128 0x50
 12903 04f6 2E       		.uleb128 0x2e
 12904 04f7 01       		.byte	0x1
 12905 04f8 47       		.uleb128 0x47
 12906 04f9 13       		.uleb128 0x13
 12907 04fa 20       		.uleb128 0x20
 12908 04fb 0B       		.uleb128 0xb
 12909 04fc 64       		.uleb128 0x64
 12910 04fd 13       		.uleb128 0x13
 12911 04fe 01       		.uleb128 0x1
ARM GAS  /tmp/ccvPPVYB.s 			page 228


 12912 04ff 13       		.uleb128 0x13
 12913 0500 00       		.byte	0
 12914 0501 00       		.byte	0
 12915 0502 51       		.uleb128 0x51
 12916 0503 34       		.uleb128 0x34
 12917 0504 00       		.byte	0
 12918 0505 03       		.uleb128 0x3
 12919 0506 0E       		.uleb128 0xe
 12920 0507 49       		.uleb128 0x49
 12921 0508 13       		.uleb128 0x13
 12922 0509 34       		.uleb128 0x34
 12923 050a 19       		.uleb128 0x19
 12924 050b 02       		.uleb128 0x2
 12925 050c 18       		.uleb128 0x18
 12926 050d 00       		.byte	0
 12927 050e 00       		.byte	0
 12928 050f 52       		.uleb128 0x52
 12929 0510 2E       		.uleb128 0x2e
 12930 0511 01       		.byte	0x1
 12931 0512 03       		.uleb128 0x3
 12932 0513 0E       		.uleb128 0xe
 12933 0514 3A       		.uleb128 0x3a
 12934 0515 0B       		.uleb128 0xb
 12935 0516 3B       		.uleb128 0x3b
 12936 0517 05       		.uleb128 0x5
 12937 0518 49       		.uleb128 0x49
 12938 0519 13       		.uleb128 0x13
 12939 051a 11       		.uleb128 0x11
 12940 051b 01       		.uleb128 0x1
 12941 051c 12       		.uleb128 0x12
 12942 051d 06       		.uleb128 0x6
 12943 051e 40       		.uleb128 0x40
 12944 051f 18       		.uleb128 0x18
 12945 0520 9642     		.uleb128 0x2116
 12946 0522 19       		.uleb128 0x19
 12947 0523 01       		.uleb128 0x1
 12948 0524 13       		.uleb128 0x13
 12949 0525 00       		.byte	0
 12950 0526 00       		.byte	0
 12951 0527 53       		.uleb128 0x53
 12952 0528 2E       		.uleb128 0x2e
 12953 0529 01       		.byte	0x1
 12954 052a 03       		.uleb128 0x3
 12955 052b 0E       		.uleb128 0xe
 12956 052c 3A       		.uleb128 0x3a
 12957 052d 0B       		.uleb128 0xb
 12958 052e 3B       		.uleb128 0x3b
 12959 052f 0B       		.uleb128 0xb
 12960 0530 49       		.uleb128 0x49
 12961 0531 13       		.uleb128 0x13
 12962 0532 11       		.uleb128 0x11
 12963 0533 01       		.uleb128 0x1
 12964 0534 12       		.uleb128 0x12
 12965 0535 06       		.uleb128 0x6
 12966 0536 40       		.uleb128 0x40
 12967 0537 18       		.uleb128 0x18
 12968 0538 9742     		.uleb128 0x2117
ARM GAS  /tmp/ccvPPVYB.s 			page 229


 12969 053a 19       		.uleb128 0x19
 12970 053b 01       		.uleb128 0x1
 12971 053c 13       		.uleb128 0x13
 12972 053d 00       		.byte	0
 12973 053e 00       		.byte	0
 12974 053f 54       		.uleb128 0x54
 12975 0540 2E       		.uleb128 0x2e
 12976 0541 01       		.byte	0x1
 12977 0542 03       		.uleb128 0x3
 12978 0543 0E       		.uleb128 0xe
 12979 0544 3A       		.uleb128 0x3a
 12980 0545 0B       		.uleb128 0xb
 12981 0546 3B       		.uleb128 0x3b
 12982 0547 0B       		.uleb128 0xb
 12983 0548 49       		.uleb128 0x49
 12984 0549 13       		.uleb128 0x13
 12985 054a 11       		.uleb128 0x11
 12986 054b 01       		.uleb128 0x1
 12987 054c 12       		.uleb128 0x12
 12988 054d 06       		.uleb128 0x6
 12989 054e 40       		.uleb128 0x40
 12990 054f 18       		.uleb128 0x18
 12991 0550 9642     		.uleb128 0x2116
 12992 0552 19       		.uleb128 0x19
 12993 0553 01       		.uleb128 0x1
 12994 0554 13       		.uleb128 0x13
 12995 0555 00       		.byte	0
 12996 0556 00       		.byte	0
 12997 0557 55       		.uleb128 0x55
 12998 0558 2E       		.uleb128 0x2e
 12999 0559 01       		.byte	0x1
 13000 055a 03       		.uleb128 0x3
 13001 055b 0E       		.uleb128 0xe
 13002 055c 3A       		.uleb128 0x3a
 13003 055d 0B       		.uleb128 0xb
 13004 055e 3B       		.uleb128 0x3b
 13005 055f 0B       		.uleb128 0xb
 13006 0560 11       		.uleb128 0x11
 13007 0561 01       		.uleb128 0x1
 13008 0562 12       		.uleb128 0x12
 13009 0563 06       		.uleb128 0x6
 13010 0564 40       		.uleb128 0x40
 13011 0565 18       		.uleb128 0x18
 13012 0566 9642     		.uleb128 0x2116
 13013 0568 19       		.uleb128 0x19
 13014 0569 01       		.uleb128 0x1
 13015 056a 13       		.uleb128 0x13
 13016 056b 00       		.byte	0
 13017 056c 00       		.byte	0
 13018 056d 56       		.uleb128 0x56
 13019 056e 2E       		.uleb128 0x2e
 13020 056f 01       		.byte	0x1
 13021 0570 03       		.uleb128 0x3
 13022 0571 0E       		.uleb128 0xe
 13023 0572 3A       		.uleb128 0x3a
 13024 0573 0B       		.uleb128 0xb
 13025 0574 3B       		.uleb128 0x3b
ARM GAS  /tmp/ccvPPVYB.s 			page 230


 13026 0575 0B       		.uleb128 0xb
 13027 0576 11       		.uleb128 0x11
 13028 0577 01       		.uleb128 0x1
 13029 0578 12       		.uleb128 0x12
 13030 0579 06       		.uleb128 0x6
 13031 057a 40       		.uleb128 0x40
 13032 057b 18       		.uleb128 0x18
 13033 057c 9742     		.uleb128 0x2117
 13034 057e 19       		.uleb128 0x19
 13035 057f 01       		.uleb128 0x1
 13036 0580 13       		.uleb128 0x13
 13037 0581 00       		.byte	0
 13038 0582 00       		.byte	0
 13039 0583 57       		.uleb128 0x57
 13040 0584 2E       		.uleb128 0x2e
 13041 0585 01       		.byte	0x1
 13042 0586 03       		.uleb128 0x3
 13043 0587 0E       		.uleb128 0xe
 13044 0588 3A       		.uleb128 0x3a
 13045 0589 0B       		.uleb128 0xb
 13046 058a 3B       		.uleb128 0x3b
 13047 058b 05       		.uleb128 0x5
 13048 058c 11       		.uleb128 0x11
 13049 058d 01       		.uleb128 0x1
 13050 058e 12       		.uleb128 0x12
 13051 058f 06       		.uleb128 0x6
 13052 0590 40       		.uleb128 0x40
 13053 0591 18       		.uleb128 0x18
 13054 0592 9642     		.uleb128 0x2116
 13055 0594 19       		.uleb128 0x19
 13056 0595 01       		.uleb128 0x1
 13057 0596 13       		.uleb128 0x13
 13058 0597 00       		.byte	0
 13059 0598 00       		.byte	0
 13060 0599 58       		.uleb128 0x58
 13061 059a 2E       		.uleb128 0x2e
 13062 059b 00       		.byte	0
 13063 059c 03       		.uleb128 0x3
 13064 059d 0E       		.uleb128 0xe
 13065 059e 3A       		.uleb128 0x3a
 13066 059f 0B       		.uleb128 0xb
 13067 05a0 3B       		.uleb128 0x3b
 13068 05a1 0B       		.uleb128 0xb
 13069 05a2 49       		.uleb128 0x49
 13070 05a3 13       		.uleb128 0x13
 13071 05a4 11       		.uleb128 0x11
 13072 05a5 01       		.uleb128 0x1
 13073 05a6 12       		.uleb128 0x12
 13074 05a7 06       		.uleb128 0x6
 13075 05a8 40       		.uleb128 0x40
 13076 05a9 18       		.uleb128 0x18
 13077 05aa 9642     		.uleb128 0x2116
 13078 05ac 19       		.uleb128 0x19
 13079 05ad 00       		.byte	0
 13080 05ae 00       		.byte	0
 13081 05af 59       		.uleb128 0x59
 13082 05b0 2E       		.uleb128 0x2e
ARM GAS  /tmp/ccvPPVYB.s 			page 231


 13083 05b1 00       		.byte	0
 13084 05b2 03       		.uleb128 0x3
 13085 05b3 0E       		.uleb128 0xe
 13086 05b4 3A       		.uleb128 0x3a
 13087 05b5 0B       		.uleb128 0xb
 13088 05b6 3B       		.uleb128 0x3b
 13089 05b7 0B       		.uleb128 0xb
 13090 05b8 49       		.uleb128 0x49
 13091 05b9 13       		.uleb128 0x13
 13092 05ba 11       		.uleb128 0x11
 13093 05bb 01       		.uleb128 0x1
 13094 05bc 12       		.uleb128 0x12
 13095 05bd 06       		.uleb128 0x6
 13096 05be 40       		.uleb128 0x40
 13097 05bf 18       		.uleb128 0x18
 13098 05c0 9742     		.uleb128 0x2117
 13099 05c2 19       		.uleb128 0x19
 13100 05c3 00       		.byte	0
 13101 05c4 00       		.byte	0
 13102 05c5 5A       		.uleb128 0x5a
 13103 05c6 2E       		.uleb128 0x2e
 13104 05c7 00       		.byte	0
 13105 05c8 03       		.uleb128 0x3
 13106 05c9 0E       		.uleb128 0xe
 13107 05ca 3A       		.uleb128 0x3a
 13108 05cb 0B       		.uleb128 0xb
 13109 05cc 3B       		.uleb128 0x3b
 13110 05cd 05       		.uleb128 0x5
 13111 05ce 11       		.uleb128 0x11
 13112 05cf 01       		.uleb128 0x1
 13113 05d0 12       		.uleb128 0x12
 13114 05d1 06       		.uleb128 0x6
 13115 05d2 40       		.uleb128 0x40
 13116 05d3 18       		.uleb128 0x18
 13117 05d4 9642     		.uleb128 0x2116
 13118 05d6 19       		.uleb128 0x19
 13119 05d7 00       		.byte	0
 13120 05d8 00       		.byte	0
 13121 05d9 5B       		.uleb128 0x5b
 13122 05da 2E       		.uleb128 0x2e
 13123 05db 01       		.byte	0x1
 13124 05dc 03       		.uleb128 0x3
 13125 05dd 0E       		.uleb128 0xe
 13126 05de 3A       		.uleb128 0x3a
 13127 05df 0B       		.uleb128 0xb
 13128 05e0 3B       		.uleb128 0x3b
 13129 05e1 05       		.uleb128 0x5
 13130 05e2 11       		.uleb128 0x11
 13131 05e3 01       		.uleb128 0x1
 13132 05e4 12       		.uleb128 0x12
 13133 05e5 06       		.uleb128 0x6
 13134 05e6 40       		.uleb128 0x40
 13135 05e7 18       		.uleb128 0x18
 13136 05e8 9742     		.uleb128 0x2117
 13137 05ea 19       		.uleb128 0x19
 13138 05eb 01       		.uleb128 0x1
 13139 05ec 13       		.uleb128 0x13
ARM GAS  /tmp/ccvPPVYB.s 			page 232


 13140 05ed 00       		.byte	0
 13141 05ee 00       		.byte	0
 13142 05ef 5C       		.uleb128 0x5c
 13143 05f0 1D       		.uleb128 0x1d
 13144 05f1 00       		.byte	0
 13145 05f2 31       		.uleb128 0x31
 13146 05f3 13       		.uleb128 0x13
 13147 05f4 11       		.uleb128 0x11
 13148 05f5 01       		.uleb128 0x1
 13149 05f6 12       		.uleb128 0x12
 13150 05f7 06       		.uleb128 0x6
 13151 05f8 58       		.uleb128 0x58
 13152 05f9 0B       		.uleb128 0xb
 13153 05fa 59       		.uleb128 0x59
 13154 05fb 05       		.uleb128 0x5
 13155 05fc 00       		.byte	0
 13156 05fd 00       		.byte	0
 13157 05fe 5D       		.uleb128 0x5d
 13158 05ff 2E       		.uleb128 0x2e
 13159 0600 00       		.byte	0
 13160 0601 03       		.uleb128 0x3
 13161 0602 0E       		.uleb128 0xe
 13162 0603 3A       		.uleb128 0x3a
 13163 0604 0B       		.uleb128 0xb
 13164 0605 3B       		.uleb128 0x3b
 13165 0606 05       		.uleb128 0x5
 13166 0607 20       		.uleb128 0x20
 13167 0608 0B       		.uleb128 0xb
 13168 0609 00       		.byte	0
 13169 060a 00       		.byte	0
 13170 060b 00       		.byte	0
 13171              		.section	.debug_aranges,"",%progbits
 13172 0000 7C040000 		.4byte	0x47c
 13173 0004 0200     		.2byte	0x2
 13174 0006 00000000 		.4byte	.Ldebug_info0
 13175 000a 04       		.byte	0x4
 13176 000b 00       		.byte	0
 13177 000c 0000     		.2byte	0
 13178 000e 0000     		.2byte	0
 13179 0010 00000000 		.4byte	.LFB38
 13180 0014 06000000 		.4byte	.LFE38-.LFB38
 13181 0018 00000000 		.4byte	.LFB39
 13182 001c 06000000 		.4byte	.LFE39-.LFB39
 13183 0020 00000000 		.4byte	.LFB77
 13184 0024 0E000000 		.4byte	.LFE77-.LFB77
 13185 0028 00000000 		.4byte	.LFB78
 13186 002c 38000000 		.4byte	.LFE78-.LFB78
 13187 0030 00000000 		.4byte	.LFB99
 13188 0034 0C000000 		.4byte	.LFE99-.LFB99
 13189 0038 00000000 		.4byte	.LFB102
 13190 003c 1C000000 		.4byte	.LFE102-.LFB102
 13191 0040 00000000 		.4byte	.LFB108
 13192 0044 18000000 		.4byte	.LFE108-.LFB108
 13193 0048 00000000 		.4byte	.LFB113
 13194 004c 14000000 		.4byte	.LFE113-.LFB113
 13195 0050 00000000 		.4byte	.LFB114
 13196 0054 2E000000 		.4byte	.LFE114-.LFB114
ARM GAS  /tmp/ccvPPVYB.s 			page 233


 13197 0058 00000000 		.4byte	.LFB115
 13198 005c 16000000 		.4byte	.LFE115-.LFB115
 13199 0060 00000000 		.4byte	.LFB116
 13200 0064 1A000000 		.4byte	.LFE116-.LFB116
 13201 0068 00000000 		.4byte	.LFB117
 13202 006c 2A000000 		.4byte	.LFE117-.LFB117
 13203 0070 00000000 		.4byte	.LFB118
 13204 0074 26000000 		.4byte	.LFE118-.LFB118
 13205 0078 00000000 		.4byte	.LFB119
 13206 007c 32000000 		.4byte	.LFE119-.LFB119
 13207 0080 00000000 		.4byte	.LFB120
 13208 0084 2E000000 		.4byte	.LFE120-.LFB120
 13209 0088 00000000 		.4byte	.LFB121
 13210 008c 20000000 		.4byte	.LFE121-.LFB121
 13211 0090 00000000 		.4byte	.LFB122
 13212 0094 20000000 		.4byte	.LFE122-.LFB122
 13213 0098 00000000 		.4byte	.LFB123
 13214 009c 1C000000 		.4byte	.LFE123-.LFB123
 13215 00a0 00000000 		.4byte	.LFB126
 13216 00a4 10000000 		.4byte	.LFE126-.LFB126
 13217 00a8 00000000 		.4byte	.LFB127
 13218 00ac 1E000000 		.4byte	.LFE127-.LFB127
 13219 00b0 00000000 		.4byte	.LFB128
 13220 00b4 24000000 		.4byte	.LFE128-.LFB128
 13221 00b8 00000000 		.4byte	.LFB132
 13222 00bc 20000000 		.4byte	.LFE132-.LFB132
 13223 00c0 00000000 		.4byte	.LFB133
 13224 00c4 0E000000 		.4byte	.LFE133-.LFB133
 13225 00c8 00000000 		.4byte	.LFB142
 13226 00cc 14000000 		.4byte	.LFE142-.LFB142
 13227 00d0 00000000 		.4byte	.LFB143
 13228 00d4 24000000 		.4byte	.LFE143-.LFB143
 13229 00d8 00000000 		.4byte	.LFB144
 13230 00dc 1A000000 		.4byte	.LFE144-.LFB144
 13231 00e0 00000000 		.4byte	.LFB145
 13232 00e4 2A000000 		.4byte	.LFE145-.LFB145
 13233 00e8 00000000 		.4byte	.LFB146
 13234 00ec 20000000 		.4byte	.LFE146-.LFB146
 13235 00f0 00000000 		.4byte	.LFB147
 13236 00f4 24000000 		.4byte	.LFE147-.LFB147
 13237 00f8 00000000 		.4byte	.LFB148
 13238 00fc 14000000 		.4byte	.LFE148-.LFB148
 13239 0100 00000000 		.4byte	.LFB149
 13240 0104 2A000000 		.4byte	.LFE149-.LFB149
 13241 0108 00000000 		.4byte	.LFB150
 13242 010c 1A000000 		.4byte	.LFE150-.LFB150
 13243 0110 00000000 		.4byte	.LFB151
 13244 0114 2C000000 		.4byte	.LFE151-.LFB151
 13245 0118 00000000 		.4byte	.LFB166
 13246 011c 20000000 		.4byte	.LFE166-.LFB166
 13247 0120 00000000 		.4byte	.LFB194
 13248 0124 18000000 		.4byte	.LFE194-.LFB194
 13249 0128 00000000 		.4byte	.LFB195
 13250 012c 2C000000 		.4byte	.LFE195-.LFB195
 13251 0130 00000000 		.4byte	.LFB196
 13252 0134 38000000 		.4byte	.LFE196-.LFB196
 13253 0138 00000000 		.4byte	.LFB197
ARM GAS  /tmp/ccvPPVYB.s 			page 234


 13254 013c 34000000 		.4byte	.LFE197-.LFB197
 13255 0140 00000000 		.4byte	.LFB198
 13256 0144 2C000000 		.4byte	.LFE198-.LFB198
 13257 0148 00000000 		.4byte	.LFB199
 13258 014c 2C000000 		.4byte	.LFE199-.LFB199
 13259 0150 00000000 		.4byte	.LFB200
 13260 0154 30000000 		.4byte	.LFE200-.LFB200
 13261 0158 00000000 		.4byte	.LFB201
 13262 015c 30000000 		.4byte	.LFE201-.LFB201
 13263 0160 00000000 		.4byte	.LFB202
 13264 0164 30000000 		.4byte	.LFE202-.LFB202
 13265 0168 00000000 		.4byte	.LFB204
 13266 016c 24000000 		.4byte	.LFE204-.LFB204
 13267 0170 00000000 		.4byte	.LFB206
 13268 0174 0A000000 		.4byte	.LFE206-.LFB206
 13269 0178 00000000 		.4byte	.LFB209
 13270 017c 20000000 		.4byte	.LFE209-.LFB209
 13271 0180 00000000 		.4byte	.LFB207
 13272 0184 1C000000 		.4byte	.LFE207-.LFB207
 13273 0188 00000000 		.4byte	.LFB211
 13274 018c 1A000000 		.4byte	.LFE211-.LFB211
 13275 0190 00000000 		.4byte	.LFB212
 13276 0194 14000000 		.4byte	.LFE212-.LFB212
 13277 0198 00000000 		.4byte	.LFB213
 13278 019c 16000000 		.4byte	.LFE213-.LFB213
 13279 01a0 00000000 		.4byte	.LFB214
 13280 01a4 14000000 		.4byte	.LFE214-.LFB214
 13281 01a8 00000000 		.4byte	.LFB215
 13282 01ac 14000000 		.4byte	.LFE215-.LFB215
 13283 01b0 00000000 		.4byte	.LFB216
 13284 01b4 0C000000 		.4byte	.LFE216-.LFB216
 13285 01b8 00000000 		.4byte	.LFB217
 13286 01bc 1E000000 		.4byte	.LFE217-.LFB217
 13287 01c0 00000000 		.4byte	.LFB218
 13288 01c4 1E000000 		.4byte	.LFE218-.LFB218
 13289 01c8 00000000 		.4byte	.LFB219
 13290 01cc 0A000000 		.4byte	.LFE219-.LFB219
 13291 01d0 00000000 		.4byte	.LFB220
 13292 01d4 1E000000 		.4byte	.LFE220-.LFB220
 13293 01d8 00000000 		.4byte	.LFB224
 13294 01dc 16000000 		.4byte	.LFE224-.LFB224
 13295 01e0 00000000 		.4byte	.LFB225
 13296 01e4 16000000 		.4byte	.LFE225-.LFB225
 13297 01e8 00000000 		.4byte	.LFB226
 13298 01ec 16000000 		.4byte	.LFE226-.LFB226
 13299 01f0 00000000 		.4byte	.LFB227
 13300 01f4 16000000 		.4byte	.LFE227-.LFB227
 13301 01f8 00000000 		.4byte	.LFB228
 13302 01fc 16000000 		.4byte	.LFE228-.LFB228
 13303 0200 00000000 		.4byte	.LFB229
 13304 0204 26000000 		.4byte	.LFE229-.LFB229
 13305 0208 00000000 		.4byte	.LFB230
 13306 020c 26000000 		.4byte	.LFE230-.LFB230
 13307 0210 00000000 		.4byte	.LFB231
 13308 0214 26000000 		.4byte	.LFE231-.LFB231
 13309 0218 00000000 		.4byte	.LFB232
 13310 021c 1A000000 		.4byte	.LFE232-.LFB232
ARM GAS  /tmp/ccvPPVYB.s 			page 235


 13311 0220 00000000 		.4byte	.LFB233
 13312 0224 14000000 		.4byte	.LFE233-.LFB233
 13313 0228 00000000 		.4byte	.LFB234
 13314 022c 14000000 		.4byte	.LFE234-.LFB234
 13315 0230 00000000 		.4byte	.LFB235
 13316 0234 0A000000 		.4byte	.LFE235-.LFB235
 13317 0238 00000000 		.4byte	.LFB237
 13318 023c 1C000000 		.4byte	.LFE237-.LFB237
 13319 0240 00000000 		.4byte	.LFB239
 13320 0244 1A000000 		.4byte	.LFE239-.LFB239
 13321 0248 00000000 		.4byte	.LFB240
 13322 024c 1A000000 		.4byte	.LFE240-.LFB240
 13323 0250 00000000 		.4byte	.LFB241
 13324 0254 16000000 		.4byte	.LFE241-.LFB241
 13325 0258 00000000 		.4byte	.LFB242
 13326 025c 16000000 		.4byte	.LFE242-.LFB242
 13327 0260 00000000 		.4byte	.LFB243
 13328 0264 26000000 		.4byte	.LFE243-.LFB243
 13329 0268 00000000 		.4byte	.LFB244
 13330 026c 26000000 		.4byte	.LFE244-.LFB244
 13331 0270 00000000 		.4byte	.LFB245
 13332 0274 14000000 		.4byte	.LFE245-.LFB245
 13333 0278 00000000 		.4byte	.LFB246
 13334 027c 14000000 		.4byte	.LFE246-.LFB246
 13335 0280 00000000 		.4byte	.LFB247
 13336 0284 1A000000 		.4byte	.LFE247-.LFB247
 13337 0288 00000000 		.4byte	.LFB248
 13338 028c 16000000 		.4byte	.LFE248-.LFB248
 13339 0290 00000000 		.4byte	.LFB249
 13340 0294 1C000000 		.4byte	.LFE249-.LFB249
 13341 0298 00000000 		.4byte	.LFB251
 13342 029c 26000000 		.4byte	.LFE251-.LFB251
 13343 02a0 00000000 		.4byte	.LFB253
 13344 02a4 16000000 		.4byte	.LFE253-.LFB253
 13345 02a8 00000000 		.4byte	.LFB254
 13346 02ac 16000000 		.4byte	.LFE254-.LFB254
 13347 02b0 00000000 		.4byte	.LFB255
 13348 02b4 26000000 		.4byte	.LFE255-.LFB255
 13349 02b8 00000000 		.4byte	.LFB256
 13350 02bc 26000000 		.4byte	.LFE256-.LFB256
 13351 02c0 00000000 		.4byte	.LFB257
 13352 02c4 24000000 		.4byte	.LFE257-.LFB257
 13353 02c8 00000000 		.4byte	.LFB258
 13354 02cc 24000000 		.4byte	.LFE258-.LFB258
 13355 02d0 00000000 		.4byte	.LFB259
 13356 02d4 14000000 		.4byte	.LFE259-.LFB259
 13357 02d8 00000000 		.4byte	.LFB260
 13358 02dc 14000000 		.4byte	.LFE260-.LFB260
 13359 02e0 00000000 		.4byte	.LFB261
 13360 02e4 16000000 		.4byte	.LFE261-.LFB261
 13361 02e8 00000000 		.4byte	.LFB263
 13362 02ec 16000000 		.4byte	.LFE263-.LFB263
 13363 02f0 00000000 		.4byte	.LFB265
 13364 02f4 16000000 		.4byte	.LFE265-.LFB265
 13365 02f8 00000000 		.4byte	.LFB266
 13366 02fc 16000000 		.4byte	.LFE266-.LFB266
 13367 0300 00000000 		.4byte	.LFB267
ARM GAS  /tmp/ccvPPVYB.s 			page 236


 13368 0304 14000000 		.4byte	.LFE267-.LFB267
 13369 0308 00000000 		.4byte	.LFB268
 13370 030c 14000000 		.4byte	.LFE268-.LFB268
 13371 0310 00000000 		.4byte	.LFB269
 13372 0314 14000000 		.4byte	.LFE269-.LFB269
 13373 0318 00000000 		.4byte	.LFB270
 13374 031c 14000000 		.4byte	.LFE270-.LFB270
 13375 0320 00000000 		.4byte	.LFB272
 13376 0324 16000000 		.4byte	.LFE272-.LFB272
 13377 0328 00000000 		.4byte	.LFB274
 13378 032c 14000000 		.4byte	.LFE274-.LFB274
 13379 0330 00000000 		.4byte	.LFB275
 13380 0334 14000000 		.4byte	.LFE275-.LFB275
 13381 0338 00000000 		.4byte	.LFB276
 13382 033c 14000000 		.4byte	.LFE276-.LFB276
 13383 0340 00000000 		.4byte	.LFB277
 13384 0344 14000000 		.4byte	.LFE277-.LFB277
 13385 0348 00000000 		.4byte	.LFB278
 13386 034c 16000000 		.4byte	.LFE278-.LFB278
 13387 0350 00000000 		.4byte	.LFB279
 13388 0354 16000000 		.4byte	.LFE279-.LFB279
 13389 0358 00000000 		.4byte	.LFB280
 13390 035c 26000000 		.4byte	.LFE280-.LFB280
 13391 0360 00000000 		.4byte	.LFB281
 13392 0364 16000000 		.4byte	.LFE281-.LFB281
 13393 0368 00000000 		.4byte	.LFB282
 13394 036c 16000000 		.4byte	.LFE282-.LFB282
 13395 0370 00000000 		.4byte	.LFB284
 13396 0374 16000000 		.4byte	.LFE284-.LFB284
 13397 0378 00000000 		.4byte	.LFB286
 13398 037c 1C000000 		.4byte	.LFE286-.LFB286
 13399 0380 00000000 		.4byte	.LFB287
 13400 0384 1C000000 		.4byte	.LFE287-.LFB287
 13401 0388 00000000 		.4byte	.LFB288
 13402 038c 1A000000 		.4byte	.LFE288-.LFB288
 13403 0390 00000000 		.4byte	.LFB289
 13404 0394 1A000000 		.4byte	.LFE289-.LFB289
 13405 0398 00000000 		.4byte	.LFB290
 13406 039c 1A000000 		.4byte	.LFE290-.LFB290
 13407 03a0 00000000 		.4byte	.LFB292
 13408 03a4 26000000 		.4byte	.LFE292-.LFB292
 13409 03a8 00000000 		.4byte	.LFB294
 13410 03ac 16000000 		.4byte	.LFE294-.LFB294
 13411 03b0 00000000 		.4byte	.LFB295
 13412 03b4 16000000 		.4byte	.LFE295-.LFB295
 13413 03b8 00000000 		.4byte	.LFB296
 13414 03bc 16000000 		.4byte	.LFE296-.LFB296
 13415 03c0 00000000 		.4byte	.LFB297
 13416 03c4 16000000 		.4byte	.LFE297-.LFB297
 13417 03c8 00000000 		.4byte	.LFB298
 13418 03cc 14000000 		.4byte	.LFE298-.LFB298
 13419 03d0 00000000 		.4byte	.LFB299
 13420 03d4 26000000 		.4byte	.LFE299-.LFB299
 13421 03d8 00000000 		.4byte	.LFB300
 13422 03dc 16000000 		.4byte	.LFE300-.LFB300
 13423 03e0 00000000 		.4byte	.LFB301
 13424 03e4 26000000 		.4byte	.LFE301-.LFB301
ARM GAS  /tmp/ccvPPVYB.s 			page 237


 13425 03e8 00000000 		.4byte	.LFB302
 13426 03ec 2A000000 		.4byte	.LFE302-.LFB302
 13427 03f0 00000000 		.4byte	.LFB304
 13428 03f4 26000000 		.4byte	.LFE304-.LFB304
 13429 03f8 00000000 		.4byte	.LFB306
 13430 03fc 16000000 		.4byte	.LFE306-.LFB306
 13431 0400 00000000 		.4byte	.LFB307
 13432 0404 16000000 		.4byte	.LFE307-.LFB307
 13433 0408 00000000 		.4byte	.LFB308
 13434 040c 16000000 		.4byte	.LFE308-.LFB308
 13435 0410 00000000 		.4byte	.LFB309
 13436 0414 16000000 		.4byte	.LFE309-.LFB309
 13437 0418 00000000 		.4byte	.LFB310
 13438 041c 14000000 		.4byte	.LFE310-.LFB310
 13439 0420 00000000 		.4byte	.LFB311
 13440 0424 26000000 		.4byte	.LFE311-.LFB311
 13441 0428 00000000 		.4byte	.LFB312
 13442 042c 32000000 		.4byte	.LFE312-.LFB312
 13443 0430 00000000 		.4byte	.LFB313
 13444 0434 16000000 		.4byte	.LFE313-.LFB313
 13445 0438 00000000 		.4byte	.LFB314
 13446 043c 2A000000 		.4byte	.LFE314-.LFB314
 13447 0440 00000000 		.4byte	.LFB316
 13448 0444 1E000000 		.4byte	.LFE316-.LFB316
 13449 0448 00000000 		.4byte	.LFB319
 13450 044c 2C000000 		.4byte	.LFE319-.LFB319
 13451 0450 00000000 		.4byte	.LFB321
 13452 0454 1C000000 		.4byte	.LFE321-.LFB321
 13453 0458 00000000 		.4byte	.LFB322
 13454 045c 16000000 		.4byte	.LFE322-.LFB322
 13455 0460 00000000 		.4byte	.LFB323
 13456 0464 16000000 		.4byte	.LFE323-.LFB323
 13457 0468 00000000 		.4byte	.LFB324
 13458 046c 1A000000 		.4byte	.LFE324-.LFB324
 13459 0470 00000000 		.4byte	.LFB325
 13460 0474 1A000000 		.4byte	.LFE325-.LFB325
 13461 0478 00000000 		.4byte	0
 13462 047c 00000000 		.4byte	0
 13463              		.section	.debug_ranges,"",%progbits
 13464              	.Ldebug_ranges0:
 13465 0000 00000000 		.4byte	.LFB38
 13466 0004 06000000 		.4byte	.LFE38
 13467 0008 00000000 		.4byte	.LFB39
 13468 000c 06000000 		.4byte	.LFE39
 13469 0010 00000000 		.4byte	.LFB77
 13470 0014 0E000000 		.4byte	.LFE77
 13471 0018 00000000 		.4byte	.LFB78
 13472 001c 38000000 		.4byte	.LFE78
 13473 0020 00000000 		.4byte	.LFB99
 13474 0024 0C000000 		.4byte	.LFE99
 13475 0028 00000000 		.4byte	.LFB102
 13476 002c 1C000000 		.4byte	.LFE102
 13477 0030 00000000 		.4byte	.LFB108
 13478 0034 18000000 		.4byte	.LFE108
 13479 0038 00000000 		.4byte	.LFB113
 13480 003c 14000000 		.4byte	.LFE113
 13481 0040 00000000 		.4byte	.LFB114
ARM GAS  /tmp/ccvPPVYB.s 			page 238


 13482 0044 2E000000 		.4byte	.LFE114
 13483 0048 00000000 		.4byte	.LFB115
 13484 004c 16000000 		.4byte	.LFE115
 13485 0050 00000000 		.4byte	.LFB116
 13486 0054 1A000000 		.4byte	.LFE116
 13487 0058 00000000 		.4byte	.LFB117
 13488 005c 2A000000 		.4byte	.LFE117
 13489 0060 00000000 		.4byte	.LFB118
 13490 0064 26000000 		.4byte	.LFE118
 13491 0068 00000000 		.4byte	.LFB119
 13492 006c 32000000 		.4byte	.LFE119
 13493 0070 00000000 		.4byte	.LFB120
 13494 0074 2E000000 		.4byte	.LFE120
 13495 0078 00000000 		.4byte	.LFB121
 13496 007c 20000000 		.4byte	.LFE121
 13497 0080 00000000 		.4byte	.LFB122
 13498 0084 20000000 		.4byte	.LFE122
 13499 0088 00000000 		.4byte	.LFB123
 13500 008c 1C000000 		.4byte	.LFE123
 13501 0090 00000000 		.4byte	.LFB126
 13502 0094 10000000 		.4byte	.LFE126
 13503 0098 00000000 		.4byte	.LFB127
 13504 009c 1E000000 		.4byte	.LFE127
 13505 00a0 00000000 		.4byte	.LFB128
 13506 00a4 24000000 		.4byte	.LFE128
 13507 00a8 00000000 		.4byte	.LFB132
 13508 00ac 20000000 		.4byte	.LFE132
 13509 00b0 00000000 		.4byte	.LFB133
 13510 00b4 0E000000 		.4byte	.LFE133
 13511 00b8 00000000 		.4byte	.LFB142
 13512 00bc 14000000 		.4byte	.LFE142
 13513 00c0 00000000 		.4byte	.LFB143
 13514 00c4 24000000 		.4byte	.LFE143
 13515 00c8 00000000 		.4byte	.LFB144
 13516 00cc 1A000000 		.4byte	.LFE144
 13517 00d0 00000000 		.4byte	.LFB145
 13518 00d4 2A000000 		.4byte	.LFE145
 13519 00d8 00000000 		.4byte	.LFB146
 13520 00dc 20000000 		.4byte	.LFE146
 13521 00e0 00000000 		.4byte	.LFB147
 13522 00e4 24000000 		.4byte	.LFE147
 13523 00e8 00000000 		.4byte	.LFB148
 13524 00ec 14000000 		.4byte	.LFE148
 13525 00f0 00000000 		.4byte	.LFB149
 13526 00f4 2A000000 		.4byte	.LFE149
 13527 00f8 00000000 		.4byte	.LFB150
 13528 00fc 1A000000 		.4byte	.LFE150
 13529 0100 00000000 		.4byte	.LFB151
 13530 0104 2C000000 		.4byte	.LFE151
 13531 0108 00000000 		.4byte	.LFB166
 13532 010c 20000000 		.4byte	.LFE166
 13533 0110 00000000 		.4byte	.LFB194
 13534 0114 18000000 		.4byte	.LFE194
 13535 0118 00000000 		.4byte	.LFB195
 13536 011c 2C000000 		.4byte	.LFE195
 13537 0120 00000000 		.4byte	.LFB196
 13538 0124 38000000 		.4byte	.LFE196
ARM GAS  /tmp/ccvPPVYB.s 			page 239


 13539 0128 00000000 		.4byte	.LFB197
 13540 012c 34000000 		.4byte	.LFE197
 13541 0130 00000000 		.4byte	.LFB198
 13542 0134 2C000000 		.4byte	.LFE198
 13543 0138 00000000 		.4byte	.LFB199
 13544 013c 2C000000 		.4byte	.LFE199
 13545 0140 00000000 		.4byte	.LFB200
 13546 0144 30000000 		.4byte	.LFE200
 13547 0148 00000000 		.4byte	.LFB201
 13548 014c 30000000 		.4byte	.LFE201
 13549 0150 00000000 		.4byte	.LFB202
 13550 0154 30000000 		.4byte	.LFE202
 13551 0158 00000000 		.4byte	.LFB204
 13552 015c 24000000 		.4byte	.LFE204
 13553 0160 00000000 		.4byte	.LFB206
 13554 0164 0A000000 		.4byte	.LFE206
 13555 0168 00000000 		.4byte	.LFB209
 13556 016c 20000000 		.4byte	.LFE209
 13557 0170 00000000 		.4byte	.LFB207
 13558 0174 1C000000 		.4byte	.LFE207
 13559 0178 00000000 		.4byte	.LFB211
 13560 017c 1A000000 		.4byte	.LFE211
 13561 0180 00000000 		.4byte	.LFB212
 13562 0184 14000000 		.4byte	.LFE212
 13563 0188 00000000 		.4byte	.LFB213
 13564 018c 16000000 		.4byte	.LFE213
 13565 0190 00000000 		.4byte	.LFB214
 13566 0194 14000000 		.4byte	.LFE214
 13567 0198 00000000 		.4byte	.LFB215
 13568 019c 14000000 		.4byte	.LFE215
 13569 01a0 00000000 		.4byte	.LFB216
 13570 01a4 0C000000 		.4byte	.LFE216
 13571 01a8 00000000 		.4byte	.LFB217
 13572 01ac 1E000000 		.4byte	.LFE217
 13573 01b0 00000000 		.4byte	.LFB218
 13574 01b4 1E000000 		.4byte	.LFE218
 13575 01b8 00000000 		.4byte	.LFB219
 13576 01bc 0A000000 		.4byte	.LFE219
 13577 01c0 00000000 		.4byte	.LFB220
 13578 01c4 1E000000 		.4byte	.LFE220
 13579 01c8 00000000 		.4byte	.LFB224
 13580 01cc 16000000 		.4byte	.LFE224
 13581 01d0 00000000 		.4byte	.LFB225
 13582 01d4 16000000 		.4byte	.LFE225
 13583 01d8 00000000 		.4byte	.LFB226
 13584 01dc 16000000 		.4byte	.LFE226
 13585 01e0 00000000 		.4byte	.LFB227
 13586 01e4 16000000 		.4byte	.LFE227
 13587 01e8 00000000 		.4byte	.LFB228
 13588 01ec 16000000 		.4byte	.LFE228
 13589 01f0 00000000 		.4byte	.LFB229
 13590 01f4 26000000 		.4byte	.LFE229
 13591 01f8 00000000 		.4byte	.LFB230
 13592 01fc 26000000 		.4byte	.LFE230
 13593 0200 00000000 		.4byte	.LFB231
 13594 0204 26000000 		.4byte	.LFE231
 13595 0208 00000000 		.4byte	.LFB232
ARM GAS  /tmp/ccvPPVYB.s 			page 240


 13596 020c 1A000000 		.4byte	.LFE232
 13597 0210 00000000 		.4byte	.LFB233
 13598 0214 14000000 		.4byte	.LFE233
 13599 0218 00000000 		.4byte	.LFB234
 13600 021c 14000000 		.4byte	.LFE234
 13601 0220 00000000 		.4byte	.LFB235
 13602 0224 0A000000 		.4byte	.LFE235
 13603 0228 00000000 		.4byte	.LFB237
 13604 022c 1C000000 		.4byte	.LFE237
 13605 0230 00000000 		.4byte	.LFB239
 13606 0234 1A000000 		.4byte	.LFE239
 13607 0238 00000000 		.4byte	.LFB240
 13608 023c 1A000000 		.4byte	.LFE240
 13609 0240 00000000 		.4byte	.LFB241
 13610 0244 16000000 		.4byte	.LFE241
 13611 0248 00000000 		.4byte	.LFB242
 13612 024c 16000000 		.4byte	.LFE242
 13613 0250 00000000 		.4byte	.LFB243
 13614 0254 26000000 		.4byte	.LFE243
 13615 0258 00000000 		.4byte	.LFB244
 13616 025c 26000000 		.4byte	.LFE244
 13617 0260 00000000 		.4byte	.LFB245
 13618 0264 14000000 		.4byte	.LFE245
 13619 0268 00000000 		.4byte	.LFB246
 13620 026c 14000000 		.4byte	.LFE246
 13621 0270 00000000 		.4byte	.LFB247
 13622 0274 1A000000 		.4byte	.LFE247
 13623 0278 00000000 		.4byte	.LFB248
 13624 027c 16000000 		.4byte	.LFE248
 13625 0280 00000000 		.4byte	.LFB249
 13626 0284 1C000000 		.4byte	.LFE249
 13627 0288 00000000 		.4byte	.LFB251
 13628 028c 26000000 		.4byte	.LFE251
 13629 0290 00000000 		.4byte	.LFB253
 13630 0294 16000000 		.4byte	.LFE253
 13631 0298 00000000 		.4byte	.LFB254
 13632 029c 16000000 		.4byte	.LFE254
 13633 02a0 00000000 		.4byte	.LFB255
 13634 02a4 26000000 		.4byte	.LFE255
 13635 02a8 00000000 		.4byte	.LFB256
 13636 02ac 26000000 		.4byte	.LFE256
 13637 02b0 00000000 		.4byte	.LFB257
 13638 02b4 24000000 		.4byte	.LFE257
 13639 02b8 00000000 		.4byte	.LFB258
 13640 02bc 24000000 		.4byte	.LFE258
 13641 02c0 00000000 		.4byte	.LFB259
 13642 02c4 14000000 		.4byte	.LFE259
 13643 02c8 00000000 		.4byte	.LFB260
 13644 02cc 14000000 		.4byte	.LFE260
 13645 02d0 00000000 		.4byte	.LFB261
 13646 02d4 16000000 		.4byte	.LFE261
 13647 02d8 00000000 		.4byte	.LFB263
 13648 02dc 16000000 		.4byte	.LFE263
 13649 02e0 00000000 		.4byte	.LFB265
 13650 02e4 16000000 		.4byte	.LFE265
 13651 02e8 00000000 		.4byte	.LFB266
 13652 02ec 16000000 		.4byte	.LFE266
ARM GAS  /tmp/ccvPPVYB.s 			page 241


 13653 02f0 00000000 		.4byte	.LFB267
 13654 02f4 14000000 		.4byte	.LFE267
 13655 02f8 00000000 		.4byte	.LFB268
 13656 02fc 14000000 		.4byte	.LFE268
 13657 0300 00000000 		.4byte	.LFB269
 13658 0304 14000000 		.4byte	.LFE269
 13659 0308 00000000 		.4byte	.LFB270
 13660 030c 14000000 		.4byte	.LFE270
 13661 0310 00000000 		.4byte	.LFB272
 13662 0314 16000000 		.4byte	.LFE272
 13663 0318 00000000 		.4byte	.LFB274
 13664 031c 14000000 		.4byte	.LFE274
 13665 0320 00000000 		.4byte	.LFB275
 13666 0324 14000000 		.4byte	.LFE275
 13667 0328 00000000 		.4byte	.LFB276
 13668 032c 14000000 		.4byte	.LFE276
 13669 0330 00000000 		.4byte	.LFB277
 13670 0334 14000000 		.4byte	.LFE277
 13671 0338 00000000 		.4byte	.LFB278
 13672 033c 16000000 		.4byte	.LFE278
 13673 0340 00000000 		.4byte	.LFB279
 13674 0344 16000000 		.4byte	.LFE279
 13675 0348 00000000 		.4byte	.LFB280
 13676 034c 26000000 		.4byte	.LFE280
 13677 0350 00000000 		.4byte	.LFB281
 13678 0354 16000000 		.4byte	.LFE281
 13679 0358 00000000 		.4byte	.LFB282
 13680 035c 16000000 		.4byte	.LFE282
 13681 0360 00000000 		.4byte	.LFB284
 13682 0364 16000000 		.4byte	.LFE284
 13683 0368 00000000 		.4byte	.LFB286
 13684 036c 1C000000 		.4byte	.LFE286
 13685 0370 00000000 		.4byte	.LFB287
 13686 0374 1C000000 		.4byte	.LFE287
 13687 0378 00000000 		.4byte	.LFB288
 13688 037c 1A000000 		.4byte	.LFE288
 13689 0380 00000000 		.4byte	.LFB289
 13690 0384 1A000000 		.4byte	.LFE289
 13691 0388 00000000 		.4byte	.LFB290
 13692 038c 1A000000 		.4byte	.LFE290
 13693 0390 00000000 		.4byte	.LFB292
 13694 0394 26000000 		.4byte	.LFE292
 13695 0398 00000000 		.4byte	.LFB294
 13696 039c 16000000 		.4byte	.LFE294
 13697 03a0 00000000 		.4byte	.LFB295
 13698 03a4 16000000 		.4byte	.LFE295
 13699 03a8 00000000 		.4byte	.LFB296
 13700 03ac 16000000 		.4byte	.LFE296
 13701 03b0 00000000 		.4byte	.LFB297
 13702 03b4 16000000 		.4byte	.LFE297
 13703 03b8 00000000 		.4byte	.LFB298
 13704 03bc 14000000 		.4byte	.LFE298
 13705 03c0 00000000 		.4byte	.LFB299
 13706 03c4 26000000 		.4byte	.LFE299
 13707 03c8 00000000 		.4byte	.LFB300
 13708 03cc 16000000 		.4byte	.LFE300
 13709 03d0 00000000 		.4byte	.LFB301
ARM GAS  /tmp/ccvPPVYB.s 			page 242


 13710 03d4 26000000 		.4byte	.LFE301
 13711 03d8 00000000 		.4byte	.LFB302
 13712 03dc 2A000000 		.4byte	.LFE302
 13713 03e0 00000000 		.4byte	.LFB304
 13714 03e4 26000000 		.4byte	.LFE304
 13715 03e8 00000000 		.4byte	.LFB306
 13716 03ec 16000000 		.4byte	.LFE306
 13717 03f0 00000000 		.4byte	.LFB307
 13718 03f4 16000000 		.4byte	.LFE307
 13719 03f8 00000000 		.4byte	.LFB308
 13720 03fc 16000000 		.4byte	.LFE308
 13721 0400 00000000 		.4byte	.LFB309
 13722 0404 16000000 		.4byte	.LFE309
 13723 0408 00000000 		.4byte	.LFB310
 13724 040c 14000000 		.4byte	.LFE310
 13725 0410 00000000 		.4byte	.LFB311
 13726 0414 26000000 		.4byte	.LFE311
 13727 0418 00000000 		.4byte	.LFB312
 13728 041c 32000000 		.4byte	.LFE312
 13729 0420 00000000 		.4byte	.LFB313
 13730 0424 16000000 		.4byte	.LFE313
 13731 0428 00000000 		.4byte	.LFB314
 13732 042c 2A000000 		.4byte	.LFE314
 13733 0430 00000000 		.4byte	.LFB316
 13734 0434 1E000000 		.4byte	.LFE316
 13735 0438 00000000 		.4byte	.LFB319
 13736 043c 2C000000 		.4byte	.LFE319
 13737 0440 00000000 		.4byte	.LFB321
 13738 0444 1C000000 		.4byte	.LFE321
 13739 0448 00000000 		.4byte	.LFB322
 13740 044c 16000000 		.4byte	.LFE322
 13741 0450 00000000 		.4byte	.LFB323
 13742 0454 16000000 		.4byte	.LFE323
 13743 0458 00000000 		.4byte	.LFB324
 13744 045c 1A000000 		.4byte	.LFE324
 13745 0460 00000000 		.4byte	.LFB325
 13746 0464 1A000000 		.4byte	.LFE325
 13747 0468 00000000 		.4byte	0
 13748 046c 00000000 		.4byte	0
 13749              		.section	.debug_line,"",%progbits
 13750              	.Ldebug_line0:
 13751 0000 FC0E0000 		.section	.debug_str,"MS",%progbits,1
 13751      02001903 
 13751      00000201 
 13751      FB0E0D00 
 13751      01010101 
 13752              	.LASF184:
 13753 0000 436F756E 		.ascii	"CounterSemaphore\000"
 13753      74657253 
 13753      656D6170 
 13753      686F7265 
 13753      00
 13754              	.LASF4:
 13755 0011 73697A65 		.ascii	"size_t\000"
 13755      5F7400
 13756              	.LASF94:
 13757 0018 73697A65 		.ascii	"sizetype\000"
ARM GAS  /tmp/ccvPPVYB.s 			page 243


 13757      74797065 
 13757      00
 13758              	.LASF447:
 13759 0021 2F686F6D 		.ascii	"/home/felix/esho/Ultrasound/\000"
 13759      652F6665 
 13759      6C69782F 
 13759      6573686F 
 13759      2F556C74 
 13760              	.LASF130:
 13761 003e 63665F6F 		.ascii	"cf_off_name\000"
 13761      66665F6E 
 13761      616D6500 
 13762              	.LASF30:
 13763 004a 73797374 		.ascii	"systime_t\000"
 13763      696D655F 
 13763      7400
 13764              	.LASF395:
 13765 0054 7373656D 		.ascii	"ssem\000"
 13765      00
 13766              	.LASF119:
 13767 0059 63685F69 		.ascii	"ch_identifier\000"
 13767      64656E74 
 13767      69666965 
 13767      7200
 13768              	.LASF42:
 13769 0067 705F6374 		.ascii	"p_ctx\000"
 13769      7800
 13770              	.LASF24:
 13771 006d 74707269 		.ascii	"tprio_t\000"
 13771      6F5F7400 
 13772              	.LASF267:
 13773 0075 6973456D 		.ascii	"isEmptyI\000"
 13773      70747949 
 13773      00
 13774              	.LASF138:
 13775 007e 63685F64 		.ascii	"ch_debug\000"
 13775      65627567 
 13775      00
 13776              	.LASF379:
 13777 0087 70726F76 		.ascii	"provider\000"
 13777      69646572 
 13777      00
 13778              	.LASF51:
 13779 0090 705F6D73 		.ascii	"p_msgqueue\000"
 13779      67717565 
 13779      756500
 13780              	.LASF284:
 13781 009b 5F5A4E31 		.ascii	"_ZN10chibios_rt8OutQueue6resetIEv\000"
 13781      30636869 
 13781      62696F73 
 13781      5F727438 
 13781      4F757451 
 13782              	.LASF67:
 13783 00bd 725F6374 		.ascii	"r_ctx\000"
 13783      7800
 13784              	.LASF18:
 13785 00c3 696E7433 		.ascii	"int32_t\000"
ARM GAS  /tmp/ccvPPVYB.s 			page 244


 13785      325F7400 
 13786              	.LASF225:
 13787 00cb 5F5A4E31 		.ascii	"_ZN10chibios_rt5Mutex6unlockEv\000"
 13787      30636869 
 13787      62696F73 
 13787      5F727435 
 13787      4D757465 
 13788              	.LASF396:
 13789 00ea 7773656D 		.ascii	"wsem\000"
 13789      00
 13790              	.LASF127:
 13791 00ef 63665F6F 		.ascii	"cf_off_ctx\000"
 13791      66665F63 
 13791      747800
 13792              	.LASF71:
 13793 00fa 76746675 		.ascii	"vtfunc_t\000"
 13793      6E635F74 
 13793      00
 13794              	.LASF446:
 13795 0103 43686962 		.ascii	"ChibiOS/os/various/cpp_wrappers/ch.cpp\000"
 13795      694F532F 
 13795      6F732F76 
 13795      6172696F 
 13795      75732F63 
 13796              	.LASF80:
 13797 012a 63685F76 		.ascii	"ch_virtual_timers_list\000"
 13797      69727475 
 13797      616C5F74 
 13797      696D6572 
 13797      735F6C69 
 13798              	.LASF279:
 13799 0141 5F5A4E31 		.ascii	"_ZN10chibios_rt8OutQueueC4EPhjPFvP8io_queueEPv\000"
 13799      30636869 
 13799      62696F73 
 13799      5F727438 
 13799      4F757451 
 13800              	.LASF408:
 13801 0170 63684F51 		.ascii	"chOQPut\000"
 13801      50757400 
 13802              	.LASF457:
 13803 0178 5F5F7674 		.ascii	"__vtbl_ptr_type\000"
 13803      626C5F70 
 13803      74725F74 
 13803      79706500 
 13804              	.LASF406:
 13805 0188 5F5F6675 		.ascii	"__func__\000"
 13805      6E635F5F 
 13805      00
 13806              	.LASF289:
 13807 0191 77726974 		.ascii	"write\000"
 13807      6500
 13808              	.LASF303:
 13809 0197 66726565 		.ascii	"freeI\000"
 13809      4900
 13810              	.LASF272:
 13811 019d 70757449 		.ascii	"putI\000"
 13811      00
ARM GAS  /tmp/ccvPPVYB.s 			page 245


 13812              	.LASF152:
 13813 01a2 656C5F66 		.ascii	"el_flags\000"
 13813      6C616773 
 13813      00
 13814              	.LASF362:
 13815 01ab 5F5A4E31 		.ascii	"_ZN10chibios_rt10BaseThreadC4Ev\000"
 13815      30636869 
 13815      62696F73 
 13815      5F727431 
 13815      30426173 
 13816              	.LASF435:
 13817 01cb 63685365 		.ascii	"chSemGetCounterI\000"
 13817      6D476574 
 13817      436F756E 
 13817      74657249 
 13817      00
 13818              	.LASF291:
 13819 01dc 4D656D6F 		.ascii	"MemoryPool\000"
 13819      7279506F 
 13819      6F6C00
 13820              	.LASF86:
 13821 01e7 6C6F636B 		.ascii	"lock_cnt\000"
 13821      5F636E74 
 13821      00
 13822              	.LASF381:
 13823 01f0 5F5A4E31 		.ascii	"_ZN10chibios_rt10MemoryPoolC2EjPFPvjE\000"
 13823      30636869 
 13823      62696F73 
 13823      5F727431 
 13823      304D656D 
 13824              	.LASF411:
 13825 0216 63684F51 		.ascii	"chOQGetEmptyI\000"
 13825      47657445 
 13825      6D707479 
 13825      4900
 13826              	.LASF298:
 13827 0224 5F5A4E31 		.ascii	"_ZN10chibios_rt10MemoryPool6allocIEv\000"
 13827      30636869 
 13827      62696F73 
 13827      5F727431 
 13827      304D656D 
 13828              	.LASF340:
 13829 0249 64697370 		.ascii	"dispatchEvents\000"
 13829      61746368 
 13829      4576656E 
 13829      747300
 13830              	.LASF324:
 13831 0258 5F5A4E31 		.ascii	"_ZN10chibios_rt10BaseThread11setPriorityEm\000"
 13831      30636869 
 13831      62696F73 
 13831      5F727431 
 13831      30426173 
 13832              	.LASF206:
 13833 0283 5F5A4E31 		.ascii	"_ZN10chibios_rt15BinarySemaphore5waitSEt\000"
 13833      30636869 
 13833      62696F73 
 13833      5F727431 
ARM GAS  /tmp/ccvPPVYB.s 			page 246


 13833      3542696E 
 13834              	.LASF123:
 13835 02ac 63685F70 		.ascii	"ch_ptrsize\000"
 13835      74727369 
 13835      7A6500
 13836              	.LASF273:
 13837 02b7 5F5A4E31 		.ascii	"_ZN10chibios_rt7InQueue4putIEh\000"
 13837      30636869 
 13837      62696F73 
 13837      5F727437 
 13837      496E5175 
 13838              	.LASF100:
 13839 02d6 73655F74 		.ascii	"se_tp\000"
 13839      7000
 13840              	.LASF300:
 13841 02dc 5F5A4E31 		.ascii	"_ZN10chibios_rt10MemoryPool5allocEv\000"
 13841      30636869 
 13841      62696F73 
 13841      5F727431 
 13841      304D656D 
 13842              	.LASF371:
 13843 0300 5F5A4E31 		.ascii	"_ZN10chibios_rt15ThreadReference14releaseMessageEl\000"
 13843      30636869 
 13843      62696F73 
 13843      5F727431 
 13843      35546872 
 13844              	.LASF375:
 13845 0333 5F5A4E31 		.ascii	"_ZN10chibios_rt15ThreadReference13signalEventsIEm\000"
 13845      30636869 
 13845      62696F73 
 13845      5F727431 
 13845      35546872 
 13846              	.LASF205:
 13847 0365 5F5A4E31 		.ascii	"_ZN10chibios_rt15BinarySemaphore4waitEt\000"
 13847      30636869 
 13847      62696F73 
 13847      5F727431 
 13847      3542696E 
 13848              	.LASF203:
 13849 038d 5F5A4E31 		.ascii	"_ZN10chibios_rt15BinarySemaphore4waitEv\000"
 13849      30636869 
 13849      62696F73 
 13849      5F727431 
 13849      3542696E 
 13850              	.LASF208:
 13851 03b5 5F5A4E31 		.ascii	"_ZN10chibios_rt15BinarySemaphore6resetIEb\000"
 13851      30636869 
 13851      62696F73 
 13851      5F727431 
 13851      3542696E 
 13852              	.LASF201:
 13853 03df 6273656D 		.ascii	"bsem\000"
 13853      00
 13854              	.LASF230:
 13855 03e4 436F6E64 		.ascii	"CondVar\000"
 13855      56617200 
 13856              	.LASF113:
ARM GAS  /tmp/ccvPPVYB.s 			page 247


 13857 03ec 6D5F6F77 		.ascii	"m_owner\000"
 13857      6E657200 
 13858              	.LASF266:
 13859 03f4 5F5A4E31 		.ascii	"_ZN10chibios_rt7InQueue9getEmptyIEv\000"
 13859      30636869 
 13859      62696F73 
 13859      5F727437 
 13859      496E5175 
 13860              	.LASF78:
 13861 0418 76745F70 		.ascii	"vt_par\000"
 13861      617200
 13862              	.LASF33:
 13863 041f 65786974 		.ascii	"exitcode\000"
 13863      636F6465 
 13863      00
 13864              	.LASF336:
 13865 0428 77616974 		.ascii	"waitAnyEventTimeout\000"
 13865      416E7945 
 13865      76656E74 
 13865      54696D65 
 13865      6F757400 
 13866              	.LASF5:
 13867 043c 5F5F7569 		.ascii	"__uint8_t\000"
 13867      6E74385F 
 13867      7400
 13868              	.LASF172:
 13869 0446 715F746F 		.ascii	"q_top\000"
 13869      7000
 13870              	.LASF125:
 13871 044c 63685F74 		.ascii	"ch_threadsize\000"
 13871      68726561 
 13871      6473697A 
 13871      6500
 13872              	.LASF222:
 13873 045a 6C6F636B 		.ascii	"lockS\000"
 13873      5300
 13874              	.LASF426:
 13875 0460 63684253 		.ascii	"chBSemSignal\000"
 13875      656D5369 
 13875      676E616C 
 13875      00
 13876              	.LASF377:
 13877 046d 6F626A70 		.ascii	"objp\000"
 13877      00
 13878              	.LASF117:
 13879 0472 31346368 		.ascii	"14ch_swc_event_t\000"
 13879      5F737763 
 13879      5F657665 
 13879      6E745F74 
 13879      00
 13880              	.LASF171:
 13881 0483 715F6275 		.ascii	"q_buffer\000"
 13881      66666572 
 13881      00
 13882              	.LASF207:
 13883 048c 5F5A4E31 		.ascii	"_ZN10chibios_rt15BinarySemaphore5resetEb\000"
 13883      30636869 
ARM GAS  /tmp/ccvPPVYB.s 			page 248


 13883      62696F73 
 13883      5F727431 
 13883      3542696E 
 13884              	.LASF175:
 13885 04b5 715F6E6F 		.ascii	"q_notify\000"
 13885      74696679 
 13885      00
 13886              	.LASF43:
 13887 04be 705F6E65 		.ascii	"p_newer\000"
 13887      77657200 
 13888              	.LASF432:
 13889 04c6 63684253 		.ascii	"chBSemWaitS\000"
 13889      656D5761 
 13889      69745300 
 13890              	.LASF181:
 13891 04d2 72657365 		.ascii	"resetI\000"
 13891      744900
 13892              	.LASF11:
 13893 04d9 6C6F6E67 		.ascii	"long int\000"
 13893      20696E74 
 13893      00
 13894              	.LASF252:
 13895 04e2 5F5A4E31 		.ascii	"_ZN10chibios_rt9EvtSource11registerOneEPNS_11EvtLis"
 13895      30636869 
 13895      62696F73 
 13895      5F727439 
 13895      45767453 
 13896 0515 74656E65 		.ascii	"tenerEl\000"
 13896      72456C00 
 13897              	.LASF39:
 13898 051d 705F6E65 		.ascii	"p_next\000"
 13898      787400
 13899              	.LASF441:
 13900 0524 706F7274 		.ascii	"port_unlock\000"
 13900      5F756E6C 
 13900      6F636B00 
 13901              	.LASF328:
 13902 0530 77616974 		.ascii	"waitOneEvent\000"
 13902      4F6E6545 
 13902      76656E74 
 13902      00
 13903              	.LASF174:
 13904 053d 715F7264 		.ascii	"q_rdptr\000"
 13904      70747200 
 13905              	.LASF132:
 13906 0545 63665F6F 		.ascii	"cf_off_state\000"
 13906      66665F73 
 13906      74617465 
 13906      00
 13907              	.LASF372:
 13908 0552 7369676E 		.ascii	"signalEvents\000"
 13908      616C4576 
 13908      656E7473 
 13908      00
 13909              	.LASF40:
 13910 055f 705F7072 		.ascii	"p_prev\000"
 13910      657600
ARM GAS  /tmp/ccvPPVYB.s 			page 249


 13911              	.LASF290:
 13912 0566 5F5A4E31 		.ascii	"_ZN10chibios_rt8OutQueue5writeEPKhjt\000"
 13912      30636869 
 13912      62696F73 
 13912      5F727438 
 13912      4F757451 
 13913              	.LASF430:
 13914 058b 63684253 		.ascii	"chBSemWaitTimeout\000"
 13914      656D5761 
 13914      69745469 
 13914      6D656F75 
 13914      7400
 13915              	.LASF22:
 13916 059d 74737461 		.ascii	"tstate_t\000"
 13916      74655F74 
 13916      00
 13917              	.LASF356:
 13918 05a6 6D61696E 		.ascii	"main\000"
 13918      00
 13919              	.LASF61:
 13920 05ab 74687265 		.ascii	"threads_queue_t\000"
 13920      6164735F 
 13920      71756575 
 13920      655F7400 
 13921              	.LASF54:
 13922 05bb 705F6D74 		.ascii	"p_mtxlist\000"
 13922      786C6973 
 13922      7400
 13923              	.LASF407:
 13924 05c5 5F5A4E31 		.ascii	"_ZN10chibios_rt15ThreadReferenceC2EP9ch_thread\000"
 13924      30636869 
 13924      62696F73 
 13924      5F727431 
 13924      35546872 
 13925              	.LASF95:
 13926 05f4 72656761 		.ascii	"regarm_t\000"
 13926      726D5F74 
 13926      00
 13927              	.LASF277:
 13928 05fd 5F5A4E31 		.ascii	"_ZN10chibios_rt7InQueue4readEPhjt\000"
 13928      30636869 
 13928      62696F73 
 13928      5F727437 
 13928      496E5175 
 13929              	.LASF228:
 13930 061f 5F5A4E31 		.ascii	"_ZN10chibios_rt16CounterSemaphore10signalWaitEPS0_S"
 13930      30636869 
 13930      62696F73 
 13930      5F727431 
 13930      36436F75 
 13931 0652 315F00   		.ascii	"1_\000"
 13932              	.LASF168:
 13933 0655 696F5F71 		.ascii	"io_queue\000"
 13933      75657565 
 13933      00
 13934              	.LASF414:
 13935 065e 63684951 		.ascii	"chIQIsFullI\000"
ARM GAS  /tmp/ccvPPVYB.s 			page 250


 13935      49734675 
 13935      6C6C4900 
 13936              	.LASF234:
 13937 066a 5F5A4E31 		.ascii	"_ZN10chibios_rt7CondVar7signalIEv\000"
 13937      30636869 
 13937      62696F73 
 13937      5F727437 
 13937      436F6E64 
 13938              	.LASF363:
 13939 068c 5F5A4E31 		.ascii	"_ZN10chibios_rt15ThreadReference4waitEv\000"
 13939      30636869 
 13939      62696F73 
 13939      5F727431 
 13939      35546872 
 13940              	.LASF262:
 13941 06b4 5F5A4E31 		.ascii	"_ZN10chibios_rt7InQueueC4EPhjPFvP8io_queueEPv\000"
 13941      30636869 
 13941      62696F73 
 13941      5F727437 
 13941      496E5175 
 13942              	.LASF450:
 13943 06e2 63686962 		.ascii	"chibios_rt\000"
 13943      696F735F 
 13943      727400
 13944              	.LASF3:
 13945 06ed 7369676E 		.ascii	"signed char\000"
 13945      65642063 
 13945      68617200 
 13946              	.LASF38:
 13947 06f9 65776D61 		.ascii	"ewmask\000"
 13947      736B00
 13948              	.LASF16:
 13949 0700 75696E74 		.ascii	"uint8_t\000"
 13949      385F7400 
 13950              	.LASF390:
 13951 0708 5F5A4E31 		.ascii	"_ZN10chibios_rt9EvtSourceC2Ev\000"
 13951      30636869 
 13951      62696F73 
 13951      5F727439 
 13951      45767453 
 13952              	.LASF294:
 13953 0726 5F5A4E31 		.ascii	"_ZN10chibios_rt10MemoryPoolC4EjPFPvjES1_j\000"
 13953      30636869 
 13953      62696F73 
 13953      5F727431 
 13953      304D656D 
 13954              	.LASF235:
 13955 0750 62726F61 		.ascii	"broadcast\000"
 13955      64636173 
 13955      7400
 13956              	.LASF355:
 13957 075a 5F5A4E31 		.ascii	"_ZN10chibios_rt15ThreadReferenceC4EP9ch_thread\000"
 13957      30636869 
 13957      62696F73 
 13957      5F727431 
 13957      35546872 
 13958              	.LASF323:
ARM GAS  /tmp/ccvPPVYB.s 			page 251


 13959 0789 67657441 		.ascii	"getAndClearEvents\000"
 13959      6E64436C 
 13959      65617245 
 13959      76656E74 
 13959      7300
 13960              	.LASF27:
 13961 079b 6576656E 		.ascii	"eventmask_t\000"
 13961      746D6173 
 13961      6B5F7400 
 13962              	.LASF97:
 13963 07a7 636F6E74 		.ascii	"context\000"
 13963      65787400 
 13964              	.LASF35:
 13965 07af 77747472 		.ascii	"wttrp\000"
 13965      7000
 13966              	.LASF218:
 13967 07b5 7472794C 		.ascii	"tryLockS\000"
 13967      6F636B53 
 13967      00
 13968              	.LASF6:
 13969 07be 756E7369 		.ascii	"unsigned char\000"
 13969      676E6564 
 13969      20636861 
 13969      7200
 13970              	.LASF403:
 13971 07cc 7072696F 		.ascii	"prio\000"
 13971      00
 13972              	.LASF176:
 13973 07d1 715F6C69 		.ascii	"q_link\000"
 13973      6E6B00
 13974              	.LASF412:
 13975 07d8 63684F51 		.ascii	"chOQGetFullI\000"
 13975      47657446 
 13975      756C6C49 
 13975      00
 13976              	.LASF84:
 13977 07e5 70616E69 		.ascii	"panic_msg\000"
 13977      635F6D73 
 13977      6700
 13978              	.LASF87:
 13979 07ef 74726163 		.ascii	"trace_buffer\000"
 13979      655F6275 
 13979      66666572 
 13979      00
 13980              	.LASF68:
 13981 07fc 725F6E65 		.ascii	"r_newer\000"
 13981      77657200 
 13982              	.LASF348:
 13983 0804 54687265 		.ascii	"ThreadReference\000"
 13983      61645265 
 13983      66657265 
 13983      6E636500 
 13984              	.LASF361:
 13985 0814 5F5A4E31 		.ascii	"_ZN10chibios_rt15ThreadReference16requestTerminateE"
 13985      30636869 
 13985      62696F73 
 13985      5F727431 
ARM GAS  /tmp/ccvPPVYB.s 			page 252


 13985      35546872 
 13986 0847 7600     		.ascii	"v\000"
 13987              	.LASF82:
 13988 0849 73797374 		.ascii	"system_debug_t\000"
 13988      656D5F64 
 13988      65627567 
 13988      5F7400
 13989              	.LASF270:
 13990 0858 5F5A4E31 		.ascii	"_ZN10chibios_rt7InQueue7isFullIEv\000"
 13990      30636869 
 13990      62696F73 
 13990      5F727437 
 13990      496E5175 
 13991              	.LASF319:
 13992 087a 73686F75 		.ascii	"shouldTerminate\000"
 13992      6C645465 
 13992      726D696E 
 13992      61746500 
 13993              	.LASF308:
 13994 088a 7365744E 		.ascii	"setName\000"
 13994      616D6500 
 13995              	.LASF257:
 13996 0892 62726F61 		.ascii	"broadcastFlags\000"
 13996      64636173 
 13996      74466C61 
 13996      677300
 13997              	.LASF438:
 13998 08a1 63685468 		.ascii	"chThdShouldTerminateX\000"
 13998      6453686F 
 13998      756C6454 
 13998      65726D69 
 13998      6E617465 
 13999              	.LASF162:
 14000 08b7 31336D65 		.ascii	"13memory_pool_t\000"
 14000      6D6F7279 
 14000      5F706F6F 
 14000      6C5F7400 
 14001              	.LASF190:
 14002 08c7 5F5A4E31 		.ascii	"_ZN10chibios_rt16CounterSemaphore4waitEt\000"
 14002      30636869 
 14002      62696F73 
 14002      5F727431 
 14002      36436F75 
 14003              	.LASF187:
 14004 08f0 5F5A4E31 		.ascii	"_ZN10chibios_rt16CounterSemaphore4waitEv\000"
 14004      30636869 
 14004      62696F73 
 14004      5F727431 
 14004      36436F75 
 14005              	.LASF354:
 14006 0919 5F5A4E31 		.ascii	"_ZN10chibios_rt15ThreadReferenceC4ERKS0_\000"
 14006      30636869 
 14006      62696F73 
 14006      5F727431 
 14006      35546872 
 14007              	.LASF421:
 14008 0942 63684576 		.ascii	"chEvtRegister\000"
ARM GAS  /tmp/ccvPPVYB.s 			page 253


 14008      74526567 
 14008      69737465 
 14008      7200
 14009              	.LASF299:
 14010 0950 616C6C6F 		.ascii	"alloc\000"
 14010      6300
 14011              	.LASF115:
 14012 0956 63686172 		.ascii	"char\000"
 14012      00
 14013              	.LASF424:
 14014 095b 63684576 		.ascii	"chEvtObjectInit\000"
 14014      744F626A 
 14014      65637449 
 14014      6E697400 
 14015              	.LASF343:
 14016 096b 5F5A4E31 		.ascii	"_ZN10chibios_rt10BaseThread11unlockMutexEPNS_5Mutex"
 14016      30636869 
 14016      62696F73 
 14016      5F727431 
 14016      30426173 
 14017 099e 4500     		.ascii	"E\000"
 14018              	.LASF342:
 14019 09a0 756E6C6F 		.ascii	"unlockMutex\000"
 14019      636B4D75 
 14019      74657800 
 14020              	.LASF242:
 14021 09ac 4576744C 		.ascii	"EvtListener\000"
 14021      69737465 
 14021      6E657200 
 14022              	.LASF183:
 14023 09b8 5F5A4E31 		.ascii	"_ZN10chibios_rt16CounterSemaphore6resetIEl\000"
 14023      30636869 
 14023      62696F73 
 14023      5F727431 
 14023      36436F75 
 14024              	.LASF439:
 14025 09e3 63685468 		.ascii	"chThdGetSelfX\000"
 14025      64476574 
 14025      53656C66 
 14025      5800
 14026              	.LASF288:
 14027 09f1 5F5A4E31 		.ascii	"_ZN10chibios_rt8OutQueue4getIEv\000"
 14027      30636869 
 14027      62696F73 
 14027      5F727438 
 14027      4F757451 
 14028              	.LASF248:
 14029 0a11 45767453 		.ascii	"EvtSource\000"
 14029      6F757263 
 14029      6500
 14030              	.LASF238:
 14031 0a1b 5F5A4E31 		.ascii	"_ZN10chibios_rt7CondVar10broadcastIEv\000"
 14031      30636869 
 14031      62696F73 
 14031      5F727437 
 14031      436F6E64 
 14032              	.LASF329:
ARM GAS  /tmp/ccvPPVYB.s 			page 254


 14033 0a41 5F5A4E31 		.ascii	"_ZN10chibios_rt10BaseThread12waitOneEventEm\000"
 14033      30636869 
 14033      62696F73 
 14033      5F727431 
 14033      30426173 
 14034              	.LASF41:
 14035 0a6d 705F7072 		.ascii	"p_prio\000"
 14035      696F00
 14036              	.LASF8:
 14037 0a74 5F5F7569 		.ascii	"__uint16_t\000"
 14037      6E743136 
 14037      5F7400
 14038              	.LASF287:
 14039 0a7f 67657449 		.ascii	"getI\000"
 14039      00
 14040              	.LASF192:
 14041 0a84 7369676E 		.ascii	"signal\000"
 14041      616C00
 14042              	.LASF34:
 14043 0a8b 77746F62 		.ascii	"wtobjp\000"
 14043      6A7000
 14044              	.LASF219:
 14045 0a92 5F5A4E31 		.ascii	"_ZN10chibios_rt5Mutex8tryLockSEv\000"
 14045      30636869 
 14045      62696F73 
 14045      5F727435 
 14045      4D757465 
 14046              	.LASF366:
 14047 0ab3 69735065 		.ascii	"isPendingMessage\000"
 14047      6E64696E 
 14047      674D6573 
 14047      73616765 
 14047      00
 14048              	.LASF128:
 14049 0ac4 63665F6F 		.ascii	"cf_off_newer\000"
 14049      66665F6E 
 14049      65776572 
 14049      00
 14050              	.LASF244:
 14051 0ad1 67657441 		.ascii	"getAndClearFlags\000"
 14051      6E64436C 
 14051      65617246 
 14051      6C616773 
 14051      00
 14052              	.LASF388:
 14053 0ae2 666C6167 		.ascii	"flags\000"
 14053      7300
 14054              	.LASF448:
 14055 0ae8 6465636C 		.ascii	"decltype(nullptr)\000"
 14055      74797065 
 14055      286E756C 
 14055      6C707472 
 14055      2900
 14056              	.LASF96:
 14057 0afa 73746B61 		.ascii	"stkalign_t\000"
 14057      6C69676E 
 14057      5F7400
ARM GAS  /tmp/ccvPPVYB.s 			page 255


 14058              	.LASF374:
 14059 0b05 7369676E 		.ascii	"signalEventsI\000"
 14059      616C4576 
 14059      656E7473 
 14059      4900
 14060              	.LASF347:
 14061 0b13 756E6C6F 		.ascii	"unlockAllMutexes\000"
 14061      636B416C 
 14061      6C4D7574 
 14061      65786573 
 14061      00
 14062              	.LASF126:
 14063 0b24 63665F6F 		.ascii	"cf_off_prio\000"
 14063      66665F70 
 14063      72696F00 
 14064              	.LASF444:
 14065 0b30 5F5F656E 		.ascii	"__enable_irq\000"
 14065      61626C65 
 14065      5F697271 
 14065      00
 14066              	.LASF147:
 14067 0b3d 6576656E 		.ascii	"event_listener_t\000"
 14067      745F6C69 
 14067      7374656E 
 14067      65725F74 
 14067      00
 14068              	.LASF364:
 14069 0b4e 73656E64 		.ascii	"sendMessage\000"
 14069      4D657373 
 14069      61676500 
 14070              	.LASF255:
 14071 0b5a 756E7265 		.ascii	"unregister\000"
 14071      67697374 
 14071      657200
 14072              	.LASF191:
 14073 0b65 5F5A4E31 		.ascii	"_ZN10chibios_rt16CounterSemaphore5waitSEt\000"
 14073      30636869 
 14073      62696F73 
 14073      5F727431 
 14073      36436F75 
 14074              	.LASF189:
 14075 0b8f 5F5A4E31 		.ascii	"_ZN10chibios_rt16CounterSemaphore5waitSEv\000"
 14075      30636869 
 14075      62696F73 
 14075      5F727431 
 14075      36436F75 
 14076              	.LASF29:
 14077 0bb9 636E745F 		.ascii	"cnt_t\000"
 14077      7400
 14078              	.LASF351:
 14079 0bbf 7E546872 		.ascii	"~ThreadReference\000"
 14079      65616452 
 14079      65666572 
 14079      656E6365 
 14079      00
 14080              	.LASF315:
 14081 0bd0 736C6565 		.ascii	"sleep\000"
ARM GAS  /tmp/ccvPPVYB.s 			page 256


 14081      7000
 14082              	.LASF77:
 14083 0bd6 76745F66 		.ascii	"vt_func\000"
 14083      756E6300 
 14084              	.LASF389:
 14085 0bde 656D6173 		.ascii	"emask\000"
 14085      6B00
 14086              	.LASF282:
 14087 0be4 5F5A4E31 		.ascii	"_ZN10chibios_rt8OutQueue8isEmptyIEv\000"
 14087      30636869 
 14087      62696F73 
 14087      5F727438 
 14087      4F757451 
 14088              	.LASF322:
 14089 0c08 5F5A4E31 		.ascii	"_ZN10chibios_rt10BaseThread11waitMessageEv\000"
 14089      30636869 
 14089      62696F73 
 14089      5F727431 
 14089      30426173 
 14090              	.LASF107:
 14091 0c33 63685F74 		.ascii	"ch_trace_buffer_t\000"
 14091      72616365 
 14091      5F627566 
 14091      6665725F 
 14091      7400
 14092              	.LASF53:
 14093 0c45 705F6570 		.ascii	"p_epending\000"
 14093      656E6469 
 14093      6E6700
 14094              	.LASF37:
 14095 0c50 77746D74 		.ascii	"wtmtxp\000"
 14095      787000
 14096              	.LASF380:
 14097 0c57 5F5A4E31 		.ascii	"_ZN10chibios_rt10MemoryPoolC2EjPFPvjES1_j\000"
 14097      30636869 
 14097      62696F73 
 14097      5F727431 
 14097      304D656D 
 14098              	.LASF64:
 14099 0c81 63685F72 		.ascii	"ch_ready_list\000"
 14099      65616479 
 14099      5F6C6973 
 14099      7400
 14100              	.LASF321:
 14101 0c8f 5F5A4E31 		.ascii	"_ZN10chibios_rt10BaseThread15shouldTerminateEv\000"
 14101      30636869 
 14101      62696F73 
 14101      5F727431 
 14101      30426173 
 14102              	.LASF85:
 14103 0cbe 6973725F 		.ascii	"isr_cnt\000"
 14103      636E7400 
 14104              	.LASF226:
 14105 0cc6 7369676E 		.ascii	"signalWait\000"
 14105      616C5761 
 14105      697400
 14106              	.LASF368:
ARM GAS  /tmp/ccvPPVYB.s 			page 257


 14107 0cd1 6765744D 		.ascii	"getMessage\000"
 14107      65737361 
 14107      676500
 14108              	.LASF155:
 14109 0cdc 65735F6E 		.ascii	"es_next\000"
 14109      65787400 
 14110              	.LASF170:
 14111 0ce4 715F636F 		.ascii	"q_counter\000"
 14111      756E7465 
 14111      7200
 14112              	.LASF102:
 14113 0cee 73655F73 		.ascii	"se_state\000"
 14113      74617465 
 14113      00
 14114              	.LASF240:
 14115 0cf7 5F5A4E31 		.ascii	"_ZN10chibios_rt7CondVar5waitSEv\000"
 14115      30636869 
 14115      62696F73 
 14115      5F727437 
 14115      436F6E64 
 14116              	.LASF258:
 14117 0d17 5F5A4E31 		.ascii	"_ZN10chibios_rt9EvtSource14broadcastFlagsEm\000"
 14117      30636869 
 14117      62696F73 
 14117      5F727439 
 14117      45767453 
 14118              	.LASF182:
 14119 0d43 5F5A4E31 		.ascii	"_ZN10chibios_rt16CounterSemaphore5resetEl\000"
 14119      30636869 
 14119      62696F73 
 14119      5F727431 
 14119      36436F75 
 14120              	.LASF14:
 14121 0d6d 5F5F7569 		.ascii	"__uint64_t\000"
 14121      6E743634 
 14121      5F7400
 14122              	.LASF440:
 14123 0d78 63685379 		.ascii	"chSysUnlock\000"
 14123      73556E6C 
 14123      6F636B00 
 14124              	.LASF13:
 14125 0d84 6C6F6E67 		.ascii	"long unsigned int\000"
 14125      20756E73 
 14125      69676E65 
 14125      6420696E 
 14125      7400
 14126              	.LASF120:
 14127 0d96 63685F7A 		.ascii	"ch_zero\000"
 14127      65726F00 
 14128              	.LASF458:
 14129 0d9e 63685379 		.ascii	"chSysLock\000"
 14129      734C6F63 
 14129      6B00
 14130              	.LASF146:
 14131 0da8 636F6E64 		.ascii	"condition_variable_t\000"
 14131      6974696F 
 14131      6E5F7661 
ARM GAS  /tmp/ccvPPVYB.s 			page 258


 14131      72696162 
 14131      6C655F74 
 14132              	.LASF314:
 14133 0dbd 5F5A4E31 		.ascii	"_ZN10chibios_rt10BaseThread5exitSEl\000"
 14133      30636869 
 14133      62696F73 
 14133      5F727431 
 14133      30426173 
 14134              	.LASF116:
 14135 0de1 53797374 		.ascii	"SystemCoreClock\000"
 14135      656D436F 
 14135      7265436C 
 14135      6F636B00 
 14136              	.LASF108:
 14137 0df1 63685F73 		.ascii	"ch_semaphore\000"
 14137      656D6170 
 14137      686F7265 
 14137      00
 14138              	.LASF59:
 14139 0dfe 63685F74 		.ascii	"ch_thread\000"
 14139      68726561 
 14139      6400
 14140              	.LASF198:
 14141 0e08 67657443 		.ascii	"getCounterI\000"
 14141      6F756E74 
 14141      65724900 
 14142              	.LASF79:
 14143 0e14 76697274 		.ascii	"virtual_timers_list_t\000"
 14143      75616C5F 
 14143      74696D65 
 14143      72735F6C 
 14143      6973745F 
 14144              	.LASF350:
 14145 0e2a 74687265 		.ascii	"thread_ref\000"
 14145      61645F72 
 14145      656600
 14146              	.LASF384:
 14147 0e35 6C696E6B 		.ascii	"link\000"
 14147      00
 14148              	.LASF376:
 14149 0e3a 74686973 		.ascii	"this\000"
 14149      00
 14150              	.LASF398:
 14151 0e3f 68616E64 		.ascii	"handlers\000"
 14151      6C657273 
 14151      00
 14152              	.LASF149:
 14153 0e48 656C5F6E 		.ascii	"el_next\000"
 14153      65787400 
 14154              	.LASF281:
 14155 0e50 5F5A4E31 		.ascii	"_ZN10chibios_rt8OutQueue9getEmptyIEv\000"
 14155      30636869 
 14155      62696F73 
 14155      5F727438 
 14155      4F757451 
 14156              	.LASF72:
 14157 0e75 76697274 		.ascii	"virtual_timer_t\000"
ARM GAS  /tmp/ccvPPVYB.s 			page 259


 14157      75616C5F 
 14157      74696D65 
 14157      725F7400 
 14158              	.LASF63:
 14159 0e85 72656164 		.ascii	"ready_list_t\000"
 14159      795F6C69 
 14159      73745F74 
 14159      00
 14160              	.LASF173:
 14161 0e92 715F7772 		.ascii	"q_wrptr\000"
 14161      70747200 
 14162              	.LASF415:
 14163 0e9a 63684951 		.ascii	"chIQIsEmptyI\000"
 14163      4973456D 
 14163      70747949 
 14163      00
 14164              	.LASF188:
 14165 0ea7 77616974 		.ascii	"waitS\000"
 14165      5300
 14166              	.LASF160:
 14167 0ead 706F6F6C 		.ascii	"pool_header\000"
 14167      5F686561 
 14167      64657200 
 14168              	.LASF60:
 14169 0eb9 63685F74 		.ascii	"ch_threads_list\000"
 14169      68726561 
 14169      64735F6C 
 14169      69737400 
 14170              	.LASF103:
 14171 0ec9 63685F73 		.ascii	"ch_swc_event_t\000"
 14171      77635F65 
 14171      76656E74 
 14171      5F7400
 14172              	.LASF443:
 14173 0ed8 5F5F6469 		.ascii	"__disable_irq\000"
 14173      7361626C 
 14173      655F6972 
 14173      7100
 14174              	.LASF269:
 14175 0ee6 69734675 		.ascii	"isFullI\000"
 14175      6C6C4900 
 14176              	.LASF392:
 14177 0eee 5F5A4E31 		.ascii	"_ZN10chibios_rt5MutexC2Ev\000"
 14177      30636869 
 14177      62696F73 
 14177      5F727435 
 14177      4D757465 
 14178              	.LASF135:
 14179 0f08 63665F6F 		.ascii	"cf_off_preempt\000"
 14179      66665F70 
 14179      7265656D 
 14179      707400
 14180              	.LASF337:
 14181 0f17 5F5A4E31 		.ascii	"_ZN10chibios_rt10BaseThread19waitAnyEventTimeoutEmt"
 14181      30636869 
 14181      62696F73 
 14181      5F727431 
ARM GAS  /tmp/ccvPPVYB.s 			page 260


 14181      30426173 
 14182 0f4a 00       		.ascii	"\000"
 14183              	.LASF358:
 14184 0f4b 5F5A4E31 		.ascii	"_ZN10chibios_rt10BaseThread4mainEv\000"
 14184      30636869 
 14184      62696F73 
 14184      5F727431 
 14184      30426173 
 14185              	.LASF365:
 14186 0f6e 5F5A4E31 		.ascii	"_ZN10chibios_rt15ThreadReference11sendMessageEl\000"
 14186      30636869 
 14186      62696F73 
 14186      5F727431 
 14186      35546872 
 14187              	.LASF391:
 14188 0f9e 5F5A4E31 		.ascii	"_ZN10chibios_rt7CondVarC2Ev\000"
 14188      30636869 
 14188      62696F73 
 14188      5F727437 
 14188      436F6E64 
 14189              	.LASF12:
 14190 0fba 5F5F7569 		.ascii	"__uint32_t\000"
 14190      6E743332 
 14190      5F7400
 14191              	.LASF213:
 14192 0fc5 4D757465 		.ascii	"Mutex\000"
 14192      7800
 14193              	.LASF1:
 14194 0fcb 6C6F6E67 		.ascii	"long long int\000"
 14194      206C6F6E 
 14194      6720696E 
 14194      7400
 14195              	.LASF193:
 14196 0fd9 5F5A4E31 		.ascii	"_ZN10chibios_rt16CounterSemaphore6signalEv\000"
 14196      30636869 
 14196      62696F73 
 14196      5F727431 
 14196      36436F75 
 14197              	.LASF122:
 14198 1004 63685F76 		.ascii	"ch_version\000"
 14198      65727369 
 14198      6F6E00
 14199              	.LASF295:
 14200 100f 6C6F6164 		.ascii	"loadArray\000"
 14200      41727261 
 14200      7900
 14201              	.LASF112:
 14202 1019 6D5F7175 		.ascii	"m_queue\000"
 14202      65756500 
 14203              	.LASF144:
 14204 1021 636F6E64 		.ascii	"condition_variable\000"
 14204      6974696F 
 14204      6E5F7661 
 14204      72696162 
 14204      6C6500
 14205              	.LASF264:
 14206 1034 5F5A4E31 		.ascii	"_ZN10chibios_rt7InQueue8getFullIEv\000"
ARM GAS  /tmp/ccvPPVYB.s 			page 261


 14206      30636869 
 14206      62696F73 
 14206      5F727437 
 14206      496E5175 
 14207              	.LASF74:
 14208 1057 76745F6E 		.ascii	"vt_next\000"
 14208      65787400 
 14209              	.LASF195:
 14210 105f 5F5A4E31 		.ascii	"_ZN10chibios_rt16CounterSemaphore7signalIEv\000"
 14210      30636869 
 14210      62696F73 
 14210      5F727431 
 14210      36436F75 
 14211              	.LASF409:
 14212 108b 63684F51 		.ascii	"chOQIsFullI\000"
 14212      49734675 
 14212      6C6C4900 
 14213              	.LASF75:
 14214 1097 76745F70 		.ascii	"vt_prev\000"
 14214      72657600 
 14215              	.LASF251:
 14216 109f 72656769 		.ascii	"registerOne\000"
 14216      73746572 
 14216      4F6E6500 
 14217              	.LASF104:
 14218 10ab 74625F73 		.ascii	"tb_size\000"
 14218      697A6500 
 14219              	.LASF293:
 14220 10b3 5F5A4E31 		.ascii	"_ZN10chibios_rt10MemoryPoolC4EjPFPvjE\000"
 14220      30636869 
 14220      62696F73 
 14220      5F727431 
 14220      304D656D 
 14221              	.LASF296:
 14222 10d9 5F5A4E31 		.ascii	"_ZN10chibios_rt10MemoryPool9loadArrayEPvj\000"
 14222      30636869 
 14222      62696F73 
 14222      5F727431 
 14222      304D656D 
 14223              	.LASF196:
 14224 1103 61646443 		.ascii	"addCounterI\000"
 14224      6F756E74 
 14224      65724900 
 14225              	.LASF455:
 14226 110f 5F746864 		.ascii	"_thd_start\000"
 14226      5F737461 
 14226      727400
 14227              	.LASF156:
 14228 111a 6576656E 		.ascii	"event_source_t\000"
 14228      745F736F 
 14228      75726365 
 14228      5F7400
 14229              	.LASF161:
 14230 1129 70685F6E 		.ascii	"ph_next\000"
 14230      65787400 
 14231              	.LASF399:
 14232 1131 6D61736B 		.ascii	"mask\000"
ARM GAS  /tmp/ccvPPVYB.s 			page 262


 14232      00
 14233              	.LASF410:
 14234 1136 63684F51 		.ascii	"chOQIsEmptyI\000"
 14234      4973456D 
 14234      70747949 
 14234      00
 14235              	.LASF332:
 14236 1143 77616974 		.ascii	"waitAllEvents\000"
 14236      416C6C45 
 14236      76656E74 
 14236      7300
 14237              	.LASF214:
 14238 1151 6D757465 		.ascii	"mutex\000"
 14238      7800
 14239              	.LASF241:
 14240 1157 5F5A4E31 		.ascii	"_ZN10chibios_rt7CondVar4waitEt\000"
 14240      30636869 
 14240      62696F73 
 14240      5F727437 
 14240      436F6E64 
 14241              	.LASF239:
 14242 1176 5F5A4E31 		.ascii	"_ZN10chibios_rt7CondVar4waitEv\000"
 14242      30636869 
 14242      62696F73 
 14242      5F727437 
 14242      436F6E64 
 14243              	.LASF434:
 14244 1195 63684253 		.ascii	"chBSemObjectInit\000"
 14244      656D4F62 
 14244      6A656374 
 14244      496E6974 
 14244      00
 14245              	.LASF452:
 14246 11a6 5F5A4E31 		.ascii	"_ZN10chibios_rt10BaseThread5startEm\000"
 14246      30636869 
 14246      62696F73 
 14246      5F727431 
 14246      30426173 
 14247              	.LASF185:
 14248 11ca 77616974 		.ascii	"wait\000"
 14248      00
 14249              	.LASF177:
 14250 11cf 716E6F74 		.ascii	"qnotify_t\000"
 14250      6966795F 
 14250      7400
 14251              	.LASF313:
 14252 11d9 65786974 		.ascii	"exitS\000"
 14252      5300
 14253              	.LASF50:
 14254 11df 705F7761 		.ascii	"p_waiting\000"
 14254      6974696E 
 14254      6700
 14255              	.LASF420:
 14256 11e9 6576656E 		.ascii	"event\000"
 14256      7400
 14257              	.LASF357:
 14258 11ef 73746F70 		.ascii	"stop\000"
ARM GAS  /tmp/ccvPPVYB.s 			page 263


 14258      00
 14259              	.LASF101:
 14260 11f4 73655F77 		.ascii	"se_wtobjp\000"
 14260      746F626A 
 14260      7000
 14261              	.LASF312:
 14262 11fe 5F5A4E31 		.ascii	"_ZN10chibios_rt10BaseThread4exitEl\000"
 14262      30636869 
 14262      62696F73 
 14262      5F727431 
 14262      30426173 
 14263              	.LASF48:
 14264 1221 705F666C 		.ascii	"p_flags\000"
 14264      61677300 
 14265              	.LASF276:
 14266 1229 72656164 		.ascii	"read\000"
 14266      00
 14267              	.LASF93:
 14268 122e 69646C65 		.ascii	"idle_thread_wa\000"
 14268      5F746872 
 14268      6561645F 
 14268      776100
 14269              	.LASF0:
 14270 123d 756E7369 		.ascii	"unsigned int\000"
 14270      676E6564 
 14270      20696E74 
 14270      00
 14271              	.LASF335:
 14272 124a 5F5A4E31 		.ascii	"_ZN10chibios_rt10BaseThread19waitOneEventTimeoutEmt"
 14272      30636869 
 14272      62696F73 
 14272      5F727431 
 14272      30426173 
 14273 127d 00       		.ascii	"\000"
 14274              	.LASF56:
 14275 127e 705F6D70 		.ascii	"p_mpool\000"
 14275      6F6F6C00 
 14276              	.LASF397:
 14277 1286 5F5A4E31 		.ascii	"_ZN10chibios_rt16CounterSemaphoreC2El\000"
 14277      30636869 
 14277      62696F73 
 14277      5F727431 
 14277      36436F75 
 14278              	.LASF297:
 14279 12ac 616C6C6F 		.ascii	"allocI\000"
 14279      634900
 14280              	.LASF49:
 14281 12b3 705F7265 		.ascii	"p_refs\000"
 14281      667300
 14282              	.LASF247:
 14283 12ba 5F5A4E31 		.ascii	"_ZN10chibios_rt11EvtListener17getAndClearFlagsIEv\000"
 14283      30636869 
 14283      62696F73 
 14283      5F727431 
 14283      31457674 
 14284              	.LASF124:
 14285 12ec 63685F74 		.ascii	"ch_timesize\000"
ARM GAS  /tmp/ccvPPVYB.s 			page 264


 14285      696D6573 
 14285      697A6500 
 14286              	.LASF202:
 14287 12f8 5F5A4E31 		.ascii	"_ZN10chibios_rt15BinarySemaphoreC4Eb\000"
 14287      30636869 
 14287      62696F73 
 14287      5F727431 
 14287      3542696E 
 14288              	.LASF153:
 14289 131d 656C5F77 		.ascii	"el_wflags\000"
 14289      666C6167 
 14289      7300
 14290              	.LASF449:
 14291 1327 31376368 		.ascii	"17ch_trace_buffer_t\000"
 14291      5F747261 
 14291      63655F62 
 14291      75666665 
 14291      725F7400 
 14292              	.LASF151:
 14293 133b 656C5F65 		.ascii	"el_events\000"
 14293      76656E74 
 14293      7300
 14294              	.LASF309:
 14295 1345 73657450 		.ascii	"setPriority\000"
 14295      72696F72 
 14295      69747900 
 14296              	.LASF286:
 14297 1351 5F5A4E31 		.ascii	"_ZN10chibios_rt8OutQueue3putEht\000"
 14297      30636869 
 14297      62696F73 
 14297      5F727438 
 14297      4F757451 
 14298              	.LASF326:
 14299 1371 61646445 		.ascii	"addEvents\000"
 14299      76656E74 
 14299      7300
 14300              	.LASF106:
 14301 137b 74625F62 		.ascii	"tb_buffer\000"
 14301      75666665 
 14301      7200
 14302              	.LASF250:
 14303 1385 5F5A4E31 		.ascii	"_ZN10chibios_rt9EvtSourceC4Ev\000"
 14303      30636869 
 14303      62696F73 
 14303      5F727439 
 14303      45767453 
 14304              	.LASF140:
 14305 13a3 31386269 		.ascii	"18binary_semaphore_t\000"
 14305      6E617279 
 14305      5F73656D 
 14305      6170686F 
 14305      72655F74 
 14306              	.LASF334:
 14307 13b8 77616974 		.ascii	"waitOneEventTimeout\000"
 14307      4F6E6545 
 14307      76656E74 
 14307      54696D65 
ARM GAS  /tmp/ccvPPVYB.s 			page 265


 14307      6F757400 
 14308              	.LASF134:
 14309 13cc 63665F6F 		.ascii	"cf_off_refs\000"
 14309      66665F72 
 14309      65667300 
 14310              	.LASF352:
 14311 13d8 5F5A4E31 		.ascii	"_ZN10chibios_rt15ThreadReferenceD4Ev\000"
 14311      30636869 
 14311      62696F73 
 14311      5F727431 
 14311      35546872 
 14312              	.LASF385:
 14313 13fd 5F5A4E31 		.ascii	"_ZN10chibios_rt8OutQueueC2EPhjPFvP8io_queueEPv\000"
 14313      30636869 
 14313      62696F73 
 14313      5F727438 
 14313      4F757451 
 14314              	.LASF259:
 14315 142c 62726F61 		.ascii	"broadcastFlagsI\000"
 14315      64636173 
 14315      74466C61 
 14315      67734900 
 14316              	.LASF158:
 14317 143c 626F6F6C 		.ascii	"bool\000"
 14317      00
 14318              	.LASF159:
 14319 1441 6D656D67 		.ascii	"memgetfunc_t\000"
 14319      65746675 
 14319      6E635F74 
 14319      00
 14320              	.LASF212:
 14321 144e 5F5A4E31 		.ascii	"_ZN10chibios_rt15BinarySemaphore9getStateIEv\000"
 14321      30636869 
 14321      62696F73 
 14321      5F727431 
 14321      3542696E 
 14322              	.LASF417:
 14323 147b 63684951 		.ascii	"chIQGetFullI\000"
 14323      47657446 
 14323      756C6C49 
 14323      00
 14324              	.LASF413:
 14325 1488 63684951 		.ascii	"chIQGet\000"
 14325      47657400 
 14326              	.LASF31:
 14327 1490 74687265 		.ascii	"thread_t\000"
 14327      61645F74 
 14327      00
 14328              	.LASF2:
 14329 1499 6C6F6E67 		.ascii	"long double\000"
 14329      20646F75 
 14329      626C6500 
 14330              	.LASF57:
 14331 14a5 74687265 		.ascii	"thread_reference_t\000"
 14331      61645F72 
 14331      65666572 
 14331      656E6365 
ARM GAS  /tmp/ccvPPVYB.s 			page 266


 14331      5F7400
 14332              	.LASF118:
 14333 14b8 39636864 		.ascii	"9chdebug_t\000"
 14333      65627567 
 14333      5F7400
 14334              	.LASF55:
 14335 14c3 705F7265 		.ascii	"p_realprio\000"
 14335      616C7072 
 14335      696F00
 14336              	.LASF98:
 14337 14ce 706F7274 		.ascii	"port_intctx\000"
 14337      5F696E74 
 14337      63747800 
 14338              	.LASF236:
 14339 14da 5F5A4E31 		.ascii	"_ZN10chibios_rt7CondVar9broadcastEv\000"
 14339      30636869 
 14339      62696F73 
 14339      5F727437 
 14339      436F6E64 
 14340              	.LASF316:
 14341 14fe 5F5A4E31 		.ascii	"_ZN10chibios_rt10BaseThread5sleepEt\000"
 14341      30636869 
 14341      62696F73 
 14341      5F727431 
 14341      30426173 
 14342              	.LASF261:
 14343 1522 496E5175 		.ascii	"InQueue\000"
 14343      65756500 
 14344              	.LASF136:
 14345 152a 63665F6F 		.ascii	"cf_off_time\000"
 14345      66665F74 
 14345      696D6500 
 14346              	.LASF76:
 14347 1536 76745F64 		.ascii	"vt_delta\000"
 14347      656C7461 
 14347      00
 14348              	.LASF223:
 14349 153f 5F5A4E31 		.ascii	"_ZN10chibios_rt5Mutex5lockSEv\000"
 14349      30636869 
 14349      62696F73 
 14349      5F727435 
 14349      4D757465 
 14350              	.LASF405:
 14351 155d 5F5A4E31 		.ascii	"_ZN10chibios_rt10BaseThreadC2Ev\000"
 14351      30636869 
 14351      62696F73 
 14351      5F727431 
 14351      30426173 
 14352              	.LASF401:
 14353 157d 6E657770 		.ascii	"newprio\000"
 14353      72696F00 
 14354              	.LASF229:
 14355 1585 5F5A4E31 		.ascii	"_ZN10chibios_rt5Mutex7unlockSEv\000"
 14355      30636869 
 14355      62696F73 
 14355      5F727435 
 14355      4D757465 
ARM GAS  /tmp/ccvPPVYB.s 			page 267


 14356              	.LASF386:
 14357 15a5 696E6679 		.ascii	"infy\000"
 14357      00
 14358              	.LASF73:
 14359 15aa 63685F76 		.ascii	"ch_virtual_timer\000"
 14359      69727475 
 14359      616C5F74 
 14359      696D6572 
 14359      00
 14360              	.LASF110:
 14361 15bb 735F636E 		.ascii	"s_cnt\000"
 14361      7400
 14362              	.LASF304:
 14363 15c1 5F5A4E31 		.ascii	"_ZN10chibios_rt10MemoryPool5freeIEPv\000"
 14363      30636869 
 14363      62696F73 
 14363      5F727431 
 14363      304D656D 
 14364              	.LASF145:
 14365 15e6 635F7175 		.ascii	"c_queue\000"
 14365      65756500 
 14366              	.LASF353:
 14367 15ee 5F5A4E31 		.ascii	"_ZN10chibios_rt15ThreadReferenceC4EOS0_\000"
 14367      30636869 
 14367      62696F73 
 14367      5F727431 
 14367      35546872 
 14368              	.LASF378:
 14369 1616 73697A65 		.ascii	"size\000"
 14369      00
 14370              	.LASF15:
 14371 161b 6C6F6E67 		.ascii	"long long unsigned int\000"
 14371      206C6F6E 
 14371      6720756E 
 14371      7369676E 
 14371      65642069 
 14372              	.LASF318:
 14373 1632 5F5A4E31 		.ascii	"_ZN10chibios_rt10BaseThread10sleepUntilEt\000"
 14373      30636869 
 14373      62696F73 
 14373      5F727431 
 14373      30426173 
 14374              	.LASF359:
 14375 165c 5F5A4E31 		.ascii	"_ZN10chibios_rt15ThreadReference4stopEv\000"
 14375      30636869 
 14375      62696F73 
 14375      5F727431 
 14375      35546872 
 14376              	.LASF44:
 14377 1684 705F6F6C 		.ascii	"p_older\000"
 14377      64657200 
 14378              	.LASF306:
 14379 168c 5F5A4E31 		.ascii	"_ZN10chibios_rt10BaseThreadC4EOS0_\000"
 14379      30636869 
 14379      62696F73 
 14379      5F727431 
 14379      30426173 
ARM GAS  /tmp/ccvPPVYB.s 			page 268


 14380              	.LASF17:
 14381 16af 75696E74 		.ascii	"uint16_t\000"
 14381      31365F74 
 14381      00
 14382              	.LASF346:
 14383 16b8 7969656C 		.ascii	"yield\000"
 14383      6400
 14384              	.LASF292:
 14385 16be 706F6F6C 		.ascii	"pool\000"
 14385      00
 14386              	.LASF25:
 14387 16c3 6D73675F 		.ascii	"msg_t\000"
 14387      7400
 14388              	.LASF210:
 14389 16c9 5F5A4E31 		.ascii	"_ZN10chibios_rt15BinarySemaphore7signalIEv\000"
 14389      30636869 
 14389      62696F73 
 14389      5F727431 
 14389      3542696E 
 14390              	.LASF62:
 14391 16f4 63685F74 		.ascii	"ch_threads_queue\000"
 14391      68726561 
 14391      64735F71 
 14391      75657565 
 14391      00
 14392              	.LASF383:
 14393 1705 6F6E6679 		.ascii	"onfy\000"
 14393      00
 14394              	.LASF28:
 14395 170a 6576656E 		.ascii	"eventflags_t\000"
 14395      74666C61 
 14395      67735F74 
 14395      00
 14396              	.LASF133:
 14397 1717 63665F6F 		.ascii	"cf_off_flags\000"
 14397      66665F66 
 14397      6C616773 
 14397      00
 14398              	.LASF260:
 14399 1724 5F5A4E31 		.ascii	"_ZN10chibios_rt9EvtSource15broadcastFlagsIEm\000"
 14399      30636869 
 14399      62696F73 
 14399      5F727439 
 14399      45767453 
 14400              	.LASF431:
 14401 1751 63684253 		.ascii	"chBSemWaitTimeoutS\000"
 14401      656D5761 
 14401      69745469 
 14401      6D656F75 
 14401      745300
 14402              	.LASF344:
 14403 1764 756E6C6F 		.ascii	"unlockMutexS\000"
 14403      636B4D75 
 14403      74657853 
 14403      00
 14404              	.LASF341:
 14405 1771 5F5A4E31 		.ascii	"_ZN10chibios_rt10BaseThread14dispatchEventsEPKPFvlE"
ARM GAS  /tmp/ccvPPVYB.s 			page 269


 14405      30636869 
 14405      62696F73 
 14405      5F727431 
 14405      30426173 
 14406 17a4 6D00     		.ascii	"m\000"
 14407              	.LASF142:
 14408 17a6 62696E61 		.ascii	"binary_semaphore_t\000"
 14408      72795F73 
 14408      656D6170 
 14408      686F7265 
 14408      5F7400
 14409              	.LASF327:
 14410 17b9 5F5A4E31 		.ascii	"_ZN10chibios_rt10BaseThread9addEventsEm\000"
 14410      30636869 
 14410      62696F73 
 14410      5F727431 
 14410      30426173 
 14411              	.LASF26:
 14412 17e1 6576656E 		.ascii	"eventid_t\000"
 14412      7469645F 
 14412      7400
 14413              	.LASF418:
 14414 17eb 63684D73 		.ascii	"chMsgGet\000"
 14414      67476574 
 14414      00
 14415              	.LASF204:
 14416 17f4 5F5A4E31 		.ascii	"_ZN10chibios_rt15BinarySemaphore5waitSEv\000"
 14416      30636869 
 14416      62696F73 
 14416      5F727431 
 14416      3542696E 
 14417              	.LASF263:
 14418 181d 67657446 		.ascii	"getFullI\000"
 14418      756C6C49 
 14418      00
 14419              	.LASF92:
 14420 1826 6D61696E 		.ascii	"mainthread\000"
 14420      74687265 
 14420      616400
 14421              	.LASF367:
 14422 1831 5F5A4E31 		.ascii	"_ZN10chibios_rt15ThreadReference16isPendingMessageE"
 14422      30636869 
 14422      62696F73 
 14422      5F727431 
 14422      35546872 
 14423 1864 7600     		.ascii	"v\000"
 14424              	.LASF419:
 14425 1866 63684D73 		.ascii	"chMsgIsPendingI\000"
 14425      67497350 
 14425      656E6469 
 14425      6E674900 
 14426              	.LASF404:
 14427 1876 5F5A4E31 		.ascii	"_ZN10chibios_rt15ThreadReferenceC2ERKS0_\000"
 14427      30636869 
 14427      62696F73 
 14427      5F727431 
 14427      35546872 
ARM GAS  /tmp/ccvPPVYB.s 			page 270


 14428              	.LASF141:
 14429 189f 62735F73 		.ascii	"bs_sem\000"
 14429      656D00
 14430              	.LASF65:
 14431 18a6 725F7175 		.ascii	"r_queue\000"
 14431      65756500 
 14432              	.LASF227:
 14433 18ae 756E6C6F 		.ascii	"unlockS\000"
 14433      636B5300 
 14434              	.LASF245:
 14435 18b6 5F5A4E31 		.ascii	"_ZN10chibios_rt11EvtListener16getAndClearFlagsEv\000"
 14435      30636869 
 14435      62696F73 
 14435      5F727431 
 14435      31457674 
 14436              	.LASF166:
 14437 18e7 6D656D6F 		.ascii	"memory_pool_t\000"
 14437      72795F70 
 14437      6F6F6C5F 
 14437      7400
 14438              	.LASF200:
 14439 18f5 42696E61 		.ascii	"BinarySemaphore\000"
 14439      72795365 
 14439      6D617068 
 14439      6F726500 
 14440              	.LASF382:
 14441 1905 74696D65 		.ascii	"time\000"
 14441      00
 14442              	.LASF310:
 14443 190a 65786974 		.ascii	"exit\000"
 14443      00
 14444              	.LASF169:
 14445 190f 715F7761 		.ascii	"q_waiting\000"
 14445      6974696E 
 14445      6700
 14446              	.LASF325:
 14447 1919 5F5A4E31 		.ascii	"_ZN10chibios_rt10BaseThread17getAndClearEventsEm\000"
 14447      30636869 
 14447      62696F73 
 14447      5F727431 
 14447      30426173 
 14448              	.LASF425:
 14449 194a 63684253 		.ascii	"chBSemGetStateI\000"
 14449      656D4765 
 14449      74537461 
 14449      74654900 
 14450              	.LASF456:
 14451 195a 5F5A4E31 		.ascii	"_ZN10chibios_rt10_thd_startEPv\000"
 14451      30636869 
 14451      62696F73 
 14451      5F727431 
 14451      305F7468 
 14452              	.LASF90:
 14453 1979 726C6973 		.ascii	"rlist\000"
 14453      7400
 14454              	.LASF394:
 14455 197f 5F5A4E31 		.ascii	"_ZN10chibios_rt15BinarySemaphoreC2Eb\000"
ARM GAS  /tmp/ccvPPVYB.s 			page 271


 14455      30636869 
 14455      62696F73 
 14455      5F727431 
 14455      3542696E 
 14456              	.LASF21:
 14457 19a4 746D6F64 		.ascii	"tmode_t\000"
 14457      655F7400 
 14458              	.LASF345:
 14459 19ac 5F5A4E31 		.ascii	"_ZN10chibios_rt10BaseThread12unlockMutexSEPNS_5Mute"
 14459      30636869 
 14459      62696F73 
 14459      5F727431 
 14459      30426173 
 14460 19df 784500   		.ascii	"xE\000"
 14461              	.LASF157:
 14462 19e2 65766861 		.ascii	"evhandler_t\000"
 14462      6E646C65 
 14462      725F7400 
 14463              	.LASF387:
 14464 19ee 5F5A4E31 		.ascii	"_ZN10chibios_rt7InQueueC2EPhjPFvP8io_queueEPv\000"
 14464      30636869 
 14464      62696F73 
 14464      5F727437 
 14464      496E5175 
 14465              	.LASF221:
 14466 1a1c 5F5A4E31 		.ascii	"_ZN10chibios_rt5Mutex4lockEv\000"
 14466      30636869 
 14466      62696F73 
 14466      5F727435 
 14466      4D757465 
 14467              	.LASF339:
 14468 1a39 5F5A4E31 		.ascii	"_ZN10chibios_rt10BaseThread20waitAllEventsTimeoutEm"
 14468      30636869 
 14468      62696F73 
 14468      5F727431 
 14468      30426173 
 14469 1a6c 7400     		.ascii	"t\000"
 14470              	.LASF400:
 14471 1a6e 696E7465 		.ascii	"interval\000"
 14471      7276616C 
 14471      00
 14472              	.LASF180:
 14473 1a77 72657365 		.ascii	"reset\000"
 14473      7400
 14474              	.LASF373:
 14475 1a7d 5F5A4E31 		.ascii	"_ZN10chibios_rt15ThreadReference12signalEventsEm\000"
 14475      30636869 
 14475      62696F73 
 14475      5F727431 
 14475      35546872 
 14476              	.LASF69:
 14477 1aae 725F6F6C 		.ascii	"r_older\000"
 14477      64657200 
 14478              	.LASF217:
 14479 1ab6 5F5A4E31 		.ascii	"_ZN10chibios_rt5Mutex7tryLockEv\000"
 14479      30636869 
 14479      62696F73 
ARM GAS  /tmp/ccvPPVYB.s 			page 272


 14479      5F727435 
 14479      4D757465 
 14480              	.LASF199:
 14481 1ad6 5F5A4E31 		.ascii	"_ZN10chibios_rt16CounterSemaphore11getCounterIEv\000"
 14481      30636869 
 14481      62696F73 
 14481      5F727431 
 14481      36436F75 
 14482              	.LASF437:
 14483 1b07 6E616D65 		.ascii	"name\000"
 14483      00
 14484              	.LASF442:
 14485 1b0c 706F7274 		.ascii	"port_lock\000"
 14485      5F6C6F63 
 14485      6B00
 14486              	.LASF109:
 14487 1b16 735F7175 		.ascii	"s_queue\000"
 14487      65756500 
 14488              	.LASF237:
 14489 1b1e 62726F61 		.ascii	"broadcastI\000"
 14489      64636173 
 14489      744900
 14490              	.LASF274:
 14491 1b29 5F5A4E31 		.ascii	"_ZN10chibios_rt7InQueue3getEv\000"
 14491      30636869 
 14491      62696F73 
 14491      5F727437 
 14491      496E5175 
 14492              	.LASF231:
 14493 1b47 636F6E64 		.ascii	"condvar\000"
 14493      76617200 
 14494              	.LASF278:
 14495 1b4f 4F757451 		.ascii	"OutQueue\000"
 14495      75657565 
 14495      00
 14496              	.LASF360:
 14497 1b58 72657175 		.ascii	"requestTerminate\000"
 14497      65737454 
 14497      65726D69 
 14497      6E617465 
 14497      00
 14498              	.LASF7:
 14499 1b69 73686F72 		.ascii	"short int\000"
 14499      7420696E 
 14499      7400
 14500              	.LASF154:
 14501 1b73 6576656E 		.ascii	"event_source\000"
 14501      745F736F 
 14501      75726365 
 14501      00
 14502              	.LASF209:
 14503 1b80 5F5A4E31 		.ascii	"_ZN10chibios_rt15BinarySemaphore6signalEv\000"
 14503      30636869 
 14503      62696F73 
 14503      5F727431 
 14503      3542696E 
 14504              	.LASF20:
ARM GAS  /tmp/ccvPPVYB.s 			page 273


 14505 1baa 75696E74 		.ascii	"uint64_t\000"
 14505      36345F74 
 14505      00
 14506              	.LASF307:
 14507 1bb3 5F5A4E31 		.ascii	"_ZN10chibios_rt10BaseThreadC4ERKS0_\000"
 14507      30636869 
 14507      62696F73 
 14507      5F727431 
 14507      30426173 
 14508              	.LASF111:
 14509 1bd7 63685F6D 		.ascii	"ch_mutex\000"
 14509      75746578 
 14509      00
 14510              	.LASF331:
 14511 1be0 5F5A4E31 		.ascii	"_ZN10chibios_rt10BaseThread12waitAnyEventEm\000"
 14511      30636869 
 14511      62696F73 
 14511      5F727431 
 14511      30426173 
 14512              	.LASF349:
 14513 1c0c 5F767074 		.ascii	"_vptr.ThreadReference\000"
 14513      722E5468 
 14513      72656164 
 14513      52656665 
 14513      72656E63 
 14514              	.LASF194:
 14515 1c22 7369676E 		.ascii	"signalI\000"
 14515      616C4900 
 14516              	.LASF311:
 14517 1c2a 5F5A4E31 		.ascii	"_ZN10chibios_rt10BaseThread7setNameEPKc\000"
 14517      30636869 
 14517      62696F73 
 14517      5F727431 
 14517      30426173 
 14518              	.LASF427:
 14519 1c52 63684253 		.ascii	"chBSemSignalI\000"
 14519      656D5369 
 14519      676E616C 
 14519      4900
 14520              	.LASF451:
 14521 1c60 73746172 		.ascii	"start\000"
 14521      7400
 14522              	.LASF66:
 14523 1c66 725F7072 		.ascii	"r_prio\000"
 14523      696F00
 14524              	.LASF83:
 14525 1c6d 63685F73 		.ascii	"ch_system_debug\000"
 14525      79737465 
 14525      6D5F6465 
 14525      62756700 
 14526              	.LASF393:
 14527 1c7d 74616B65 		.ascii	"taken\000"
 14527      6E00
 14528              	.LASF369:
 14529 1c83 5F5A4E31 		.ascii	"_ZN10chibios_rt15ThreadReference10getMessageEv\000"
 14529      30636869 
 14529      62696F73 
ARM GAS  /tmp/ccvPPVYB.s 			page 274


 14529      5F727431 
 14529      35546872 
 14530              	.LASF254:
 14531 1cb2 5F5A4E31 		.ascii	"_ZN10chibios_rt9EvtSource12registerMaskEPNS_11EvtLi"
 14531      30636869 
 14531      62696F73 
 14531      5F727439 
 14531      45767453 
 14532 1ce5 7374656E 		.ascii	"stenerEm\000"
 14532      6572456D 
 14532      00
 14533              	.LASF129:
 14534 1cee 63665F6F 		.ascii	"cf_off_older\000"
 14534      66665F6F 
 14534      6C646572 
 14534      00
 14535              	.LASF330:
 14536 1cfb 77616974 		.ascii	"waitAnyEvent\000"
 14536      416E7945 
 14536      76656E74 
 14536      00
 14537              	.LASF167:
 14538 1d08 696F5F71 		.ascii	"io_queue_t\000"
 14538      75657565 
 14538      5F7400
 14539              	.LASF338:
 14540 1d13 77616974 		.ascii	"waitAllEventsTimeout\000"
 14540      416C6C45 
 14540      76656E74 
 14540      7354696D 
 14540      656F7574 
 14541              	.LASF283:
 14542 1d28 5F5A4E31 		.ascii	"_ZN10chibios_rt8OutQueue7isFullIEv\000"
 14542      30636869 
 14542      62696F73 
 14542      5F727438 
 14542      4F757451 
 14543              	.LASF224:
 14544 1d4b 756E6C6F 		.ascii	"unlock\000"
 14544      636B00
 14545              	.LASF91:
 14546 1d52 76746C69 		.ascii	"vtlist\000"
 14546      737400
 14547              	.LASF211:
 14548 1d59 67657453 		.ascii	"getStateI\000"
 14548      74617465 
 14548      4900
 14549              	.LASF243:
 14550 1d63 65765F6C 		.ascii	"ev_listener\000"
 14550      69737465 
 14550      6E657200 
 14551              	.LASF164:
 14552 1d6f 6D705F6F 		.ascii	"mp_object_size\000"
 14552      626A6563 
 14552      745F7369 
 14552      7A6500
 14553              	.LASF416:
ARM GAS  /tmp/ccvPPVYB.s 			page 275


 14554 1d7e 63684951 		.ascii	"chIQGetEmptyI\000"
 14554      47657445 
 14554      6D707479 
 14554      4900
 14555              	.LASF317:
 14556 1d8c 736C6565 		.ascii	"sleepUntil\000"
 14556      70556E74 
 14556      696C00
 14557              	.LASF428:
 14558 1d97 63684253 		.ascii	"chBSemReset\000"
 14558      656D5265 
 14558      73657400 
 14559              	.LASF143:
 14560 1da3 6D757465 		.ascii	"mutex_t\000"
 14560      785F7400 
 14561              	.LASF23:
 14562 1dab 74726566 		.ascii	"trefs_t\000"
 14562      735F7400 
 14563              	.LASF215:
 14564 1db3 5F5A4E31 		.ascii	"_ZN10chibios_rt5MutexC4Ev\000"
 14564      30636869 
 14564      62696F73 
 14564      5F727435 
 14564      4D757465 
 14565              	.LASF445:
 14566 1dcd 474E5520 		.ascii	"GNU C++14 6.3.1 20170215 (release) [ARM/embedded-6-"
 14566      432B2B31 
 14566      3420362E 
 14566      332E3120 
 14566      32303137 
 14567 1e00 6272616E 		.ascii	"branch revision 245512] -mcpu=cortex-m0 -mno-thumb-"
 14567      63682072 
 14567      65766973 
 14567      696F6E20 
 14567      32343535 
 14568 1e33 696E7465 		.ascii	"interwork -mthumb -ggdb -O0 -fomit-frame-pointer -f"
 14568      72776F72 
 14568      6B202D6D 
 14568      7468756D 
 14568      62202D67 
 14569 1e66 616C6967 		.ascii	"align-functions=16 -ffunction-sections -fdata-secti"
 14569      6E2D6675 
 14569      6E637469 
 14569      6F6E733D 
 14569      3136202D 
 14570 1e99 6F6E7320 		.ascii	"ons -fno-rtti -fno-exceptions\000"
 14570      2D666E6F 
 14570      2D727474 
 14570      69202D66 
 14570      6E6F2D65 
 14571              	.LASF131:
 14572 1eb7 63665F6F 		.ascii	"cf_off_stklimit\000"
 14572      66665F73 
 14572      746B6C69 
 14572      6D697400 
 14573              	.LASF58:
 14574 1ec7 74687265 		.ascii	"threads_list_t\000"
ARM GAS  /tmp/ccvPPVYB.s 			page 276


 14574      6164735F 
 14574      6C697374 
 14574      5F7400
 14575              	.LASF320:
 14576 1ed6 77616974 		.ascii	"waitMessage\000"
 14576      4D657373 
 14576      61676500 
 14577              	.LASF232:
 14578 1ee2 5F5A4E31 		.ascii	"_ZN10chibios_rt7CondVarC4Ev\000"
 14578      30636869 
 14578      62696F73 
 14578      5F727437 
 14578      436F6E64 
 14579              	.LASF256:
 14580 1efe 5F5A4E31 		.ascii	"_ZN10chibios_rt9EvtSource10unregisterEPNS_11EvtList"
 14580      30636869 
 14580      62696F73 
 14580      5F727439 
 14580      45767453 
 14581 1f31 656E6572 		.ascii	"enerE\000"
 14581      4500
 14582              	.LASF89:
 14583 1f37 63685F73 		.ascii	"ch_system\000"
 14583      79737465 
 14583      6D00
 14584              	.LASF233:
 14585 1f41 5F5A4E31 		.ascii	"_ZN10chibios_rt7CondVar6signalEv\000"
 14585      30636869 
 14585      62696F73 
 14585      5F727437 
 14585      436F6E64 
 14586              	.LASF246:
 14587 1f62 67657441 		.ascii	"getAndClearFlagsI\000"
 14587      6E64436C 
 14587      65617246 
 14587      6C616773 
 14587      4900
 14588              	.LASF19:
 14589 1f74 75696E74 		.ascii	"uint32_t\000"
 14589      33325F74 
 14589      00
 14590              	.LASF453:
 14591 1f7d 5F5A4E31 		.ascii	"_ZN10chibios_rt10BaseThread5yieldEv\000"
 14591      30636869 
 14591      62696F73 
 14591      5F727431 
 14591      30426173 
 14592              	.LASF178:
 14593 1fa1 696E7075 		.ascii	"input_queue_t\000"
 14593      745F7175 
 14593      6575655F 
 14593      7400
 14594              	.LASF268:
 14595 1faf 5F5A4E31 		.ascii	"_ZN10chibios_rt7InQueue8isEmptyIEv\000"
 14595      30636869 
 14595      62696F73 
 14595      5F727437 
ARM GAS  /tmp/ccvPPVYB.s 			page 277


 14595      496E5175 
 14596              	.LASF197:
 14597 1fd2 5F5A4E31 		.ascii	"_ZN10chibios_rt16CounterSemaphore11addCounterIEl\000"
 14597      30636869 
 14597      62696F73 
 14597      5F727431 
 14597      36436F75 
 14598              	.LASF305:
 14599 2003 42617365 		.ascii	"BaseThread\000"
 14599      54687265 
 14599      616400
 14600              	.LASF301:
 14601 200e 66726565 		.ascii	"free\000"
 14601      00
 14602              	.LASF148:
 14603 2013 6576656E 		.ascii	"event_listener\000"
 14603      745F6C69 
 14603      7374656E 
 14603      657200
 14604              	.LASF285:
 14605 2022 5F5A4E31 		.ascii	"_ZN10chibios_rt8OutQueue3putEh\000"
 14605      30636869 
 14605      62696F73 
 14605      5F727438 
 14605      4F757451 
 14606              	.LASF32:
 14607 2041 7264796D 		.ascii	"rdymsg\000"
 14607      736700
 14608              	.LASF249:
 14609 2048 65765F73 		.ascii	"ev_source\000"
 14609      6F757263 
 14609      6500
 14610              	.LASF422:
 14611 2052 63684576 		.ascii	"chEvtRegisterMask\000"
 14611      74526567 
 14611      69737465 
 14611      724D6173 
 14611      6B00
 14612              	.LASF81:
 14613 2064 76745F6C 		.ascii	"vt_lasttime\000"
 14613      61737474 
 14613      696D6500 
 14614              	.LASF9:
 14615 2070 73686F72 		.ascii	"short unsigned int\000"
 14615      7420756E 
 14615      7369676E 
 14615      65642069 
 14615      6E7400
 14616              	.LASF275:
 14617 2083 5F5A4E31 		.ascii	"_ZN10chibios_rt7InQueue3getEt\000"
 14617      30636869 
 14617      62696F73 
 14617      5F727437 
 14617      496E5175 
 14618              	.LASF88:
 14619 20a1 63685F73 		.ascii	"ch_system_t\000"
 14619      79737465 
ARM GAS  /tmp/ccvPPVYB.s 			page 278


 14619      6D5F7400 
 14620              	.LASF137:
 14621 20ad 63686465 		.ascii	"chdebug_t\000"
 14621      6275675F 
 14621      7400
 14622              	.LASF302:
 14623 20b7 5F5A4E31 		.ascii	"_ZN10chibios_rt10MemoryPool4freeEPv\000"
 14623      30636869 
 14623      62696F73 
 14623      5F727431 
 14623      304D656D 
 14624              	.LASF121:
 14625 20db 63685F73 		.ascii	"ch_size\000"
 14625      697A6500 
 14626              	.LASF454:
 14627 20e3 5F5A4E31 		.ascii	"_ZN10chibios_rt10BaseThread16unlockAllMutexesEv\000"
 14627      30636869 
 14627      62696F73 
 14627      5F727431 
 14627      30426173 
 14628              	.LASF179:
 14629 2113 6F757470 		.ascii	"output_queue_t\000"
 14629      75745F71 
 14629      75657565 
 14629      5F7400
 14630              	.LASF46:
 14631 2122 705F7374 		.ascii	"p_stklimit\000"
 14631      6B6C696D 
 14631      697400
 14632              	.LASF163:
 14633 212d 6D705F6E 		.ascii	"mp_next\000"
 14633      65787400 
 14634              	.LASF280:
 14635 2135 5F5A4E31 		.ascii	"_ZN10chibios_rt8OutQueue8getFullIEv\000"
 14635      30636869 
 14635      62696F73 
 14635      5F727438 
 14635      4F757451 
 14636              	.LASF10:
 14637 2159 5F5F696E 		.ascii	"__int32_t\000"
 14637      7433325F 
 14637      7400
 14638              	.LASF402:
 14639 2163 746E616D 		.ascii	"tname\000"
 14639      6500
 14640              	.LASF370:
 14641 2169 72656C65 		.ascii	"releaseMessage\000"
 14641      6173654D 
 14641      65737361 
 14641      676500
 14642              	.LASF433:
 14643 2178 63684253 		.ascii	"chBSemWait\000"
 14643      656D5761 
 14643      697400
 14644              	.LASF70:
 14645 2183 725F6375 		.ascii	"r_current\000"
 14645      7272656E 
ARM GAS  /tmp/ccvPPVYB.s 			page 279


 14645      7400
 14646              	.LASF436:
 14647 218d 63685265 		.ascii	"chRegSetThreadName\000"
 14647      67536574 
 14647      54687265 
 14647      61644E61 
 14647      6D6500
 14648              	.LASF216:
 14649 21a0 7472794C 		.ascii	"tryLock\000"
 14649      6F636B00 
 14650              	.LASF333:
 14651 21a8 5F5A4E31 		.ascii	"_ZN10chibios_rt10BaseThread13waitAllEventsEm\000"
 14651      30636869 
 14651      62696F73 
 14651      5F727431 
 14651      30426173 
 14652              	.LASF99:
 14653 21d5 73655F74 		.ascii	"se_time\000"
 14653      696D6500 
 14654              	.LASF45:
 14655 21dd 705F6E61 		.ascii	"p_name\000"
 14655      6D6500
 14656              	.LASF423:
 14657 21e4 6576656E 		.ascii	"events\000"
 14657      747300
 14658              	.LASF253:
 14659 21eb 72656769 		.ascii	"registerMask\000"
 14659      73746572 
 14659      4D61736B 
 14659      00
 14660              	.LASF186:
 14661 21f8 5F5A4E31 		.ascii	"_ZN10chibios_rt16CounterSemaphoreC4El\000"
 14661      30636869 
 14661      62696F73 
 14661      5F727431 
 14661      36436F75 
 14662              	.LASF114:
 14663 221e 6D5F6E65 		.ascii	"m_next\000"
 14663      787400
 14664              	.LASF105:
 14665 2225 74625F70 		.ascii	"tb_ptr\000"
 14665      747200
 14666              	.LASF139:
 14667 222c 73656D61 		.ascii	"semaphore_t\000"
 14667      70686F72 
 14667      655F7400 
 14668              	.LASF271:
 14669 2238 5F5A4E31 		.ascii	"_ZN10chibios_rt7InQueue6resetIEv\000"
 14669      30636869 
 14669      62696F73 
 14669      5F727437 
 14669      496E5175 
 14670              	.LASF165:
 14671 2259 6D705F70 		.ascii	"mp_provider\000"
 14671      726F7669 
 14671      64657200 
 14672              	.LASF429:
ARM GAS  /tmp/ccvPPVYB.s 			page 280


 14673 2265 63684253 		.ascii	"chBSemResetI\000"
 14673      656D5265 
 14673      73657449 
 14673      00
 14674              	.LASF220:
 14675 2272 6C6F636B 		.ascii	"lock\000"
 14675      00
 14676              	.LASF36:
 14677 2277 77747365 		.ascii	"wtsemp\000"
 14677      6D7000
 14678              	.LASF52:
 14679 227e 705F6D73 		.ascii	"p_msg\000"
 14679      6700
 14680              	.LASF150:
 14681 2284 656C5F6C 		.ascii	"el_listener\000"
 14681      69737465 
 14681      6E657200 
 14682              	.LASF265:
 14683 2290 67657445 		.ascii	"getEmptyI\000"
 14683      6D707479 
 14683      4900
 14684              	.LASF47:
 14685 229a 705F7374 		.ascii	"p_state\000"
 14685      61746500 
 14686              		.ident	"GCC: (GNU Tools for ARM Embedded Processors 6-2017-q1-update) 6.3.1 20170215 (release) [AR
ARM GAS  /tmp/ccvPPVYB.s 			page 281


DEFINED SYMBOLS
                            *ABS*:0000000000000000 ch.cpp
     /tmp/ccvPPVYB.s:16     .text._ZL9port_lockv:0000000000000000 $t
     /tmp/ccvPPVYB.s:23     .text._ZL9port_lockv:0000000000000000 _ZL9port_lockv
     /tmp/ccvPPVYB.s:51     .text._ZL11port_unlockv:0000000000000000 $t
     /tmp/ccvPPVYB.s:58     .text._ZL11port_unlockv:0000000000000000 _ZL11port_unlockv
     /tmp/ccvPPVYB.s:84     .text._ZL9chSysLockv:0000000000000000 $t
     /tmp/ccvPPVYB.s:91     .text._ZL9chSysLockv:0000000000000000 _ZL9chSysLockv
     /tmp/ccvPPVYB.s:114    .text._ZL11chSysUnlockv:0000000000000000 $t
     /tmp/ccvPPVYB.s:121    .text._ZL11chSysUnlockv:0000000000000000 _ZL11chSysUnlockv
     /tmp/ccvPPVYB.s:162    .text._ZL11chSysUnlockv:0000000000000030 $d
     /tmp/ccvPPVYB.s:5445   .rodata._ZZL11chSysUnlockvE8__func__:0000000000000000 _ZZL11chSysUnlockvE8__func__
     /tmp/ccvPPVYB.s:168    .text._ZL13chThdGetSelfXv:0000000000000000 $t
     /tmp/ccvPPVYB.s:175    .text._ZL13chThdGetSelfXv:0000000000000000 _ZL13chThdGetSelfXv
     /tmp/ccvPPVYB.s:193    .text._ZL13chThdGetSelfXv:0000000000000008 $d
     /tmp/ccvPPVYB.s:198    .text._ZL21chThdShouldTerminateXv:0000000000000000 $t
     /tmp/ccvPPVYB.s:205    .text._ZL21chThdShouldTerminateXv:0000000000000000 _ZL21chThdShouldTerminateXv
     /tmp/ccvPPVYB.s:234    .text._ZL18chRegSetThreadNamePKc:0000000000000000 $t
     /tmp/ccvPPVYB.s:241    .text._ZL18chRegSetThreadNamePKc:0000000000000000 _ZL18chRegSetThreadNamePKc
     /tmp/ccvPPVYB.s:265    .text._ZL18chRegSetThreadNamePKc:0000000000000014 $d
     /tmp/ccvPPVYB.s:270    .text._ZL16chSemGetCounterIP12ch_semaphore:0000000000000000 $t
     /tmp/ccvPPVYB.s:277    .text._ZL16chSemGetCounterIP12ch_semaphore:0000000000000000 _ZL16chSemGetCounterIP12ch_semaphore
     /tmp/ccvPPVYB.s:304    .text._ZL16chBSemObjectInitP18binary_semaphore_tb:0000000000000000 $t
     /tmp/ccvPPVYB.s:311    .text._ZL16chBSemObjectInitP18binary_semaphore_tb:0000000000000000 _ZL16chBSemObjectInitP18binary_semaphore_tb
     /tmp/ccvPPVYB.s:355    .text._ZL10chBSemWaitP18binary_semaphore_t:0000000000000000 $t
     /tmp/ccvPPVYB.s:362    .text._ZL10chBSemWaitP18binary_semaphore_t:0000000000000000 _ZL10chBSemWaitP18binary_semaphore_t
     /tmp/ccvPPVYB.s:388    .text._ZL11chBSemWaitSP18binary_semaphore_t:0000000000000000 $t
     /tmp/ccvPPVYB.s:395    .text._ZL11chBSemWaitSP18binary_semaphore_t:0000000000000000 _ZL11chBSemWaitSP18binary_semaphore_t
     /tmp/ccvPPVYB.s:423    .text._ZL18chBSemWaitTimeoutSP18binary_semaphore_tt:0000000000000000 $t
     /tmp/ccvPPVYB.s:430    .text._ZL18chBSemWaitTimeoutSP18binary_semaphore_tt:0000000000000000 _ZL18chBSemWaitTimeoutSP18binary_semaphore_tt
     /tmp/ccvPPVYB.s:466    .text._ZL17chBSemWaitTimeoutP18binary_semaphore_tt:0000000000000000 $t
     /tmp/ccvPPVYB.s:473    .text._ZL17chBSemWaitTimeoutP18binary_semaphore_tt:0000000000000000 _ZL17chBSemWaitTimeoutP18binary_semaphore_tt
     /tmp/ccvPPVYB.s:507    .text._ZL12chBSemResetIP18binary_semaphore_tb:0000000000000000 $t
     /tmp/ccvPPVYB.s:514    .text._ZL12chBSemResetIP18binary_semaphore_tb:0000000000000000 _ZL12chBSemResetIP18binary_semaphore_tb
     /tmp/ccvPPVYB.s:559    .text._ZL11chBSemResetP18binary_semaphore_tb:0000000000000000 $t
     /tmp/ccvPPVYB.s:566    .text._ZL11chBSemResetP18binary_semaphore_tb:0000000000000000 _ZL11chBSemResetP18binary_semaphore_tb
     /tmp/ccvPPVYB.s:609    .text._ZL13chBSemSignalIP18binary_semaphore_t:0000000000000000 $t
     /tmp/ccvPPVYB.s:616    .text._ZL13chBSemSignalIP18binary_semaphore_t:0000000000000000 _ZL13chBSemSignalIP18binary_semaphore_t
     /tmp/ccvPPVYB.s:649    .text._ZL12chBSemSignalP18binary_semaphore_t:0000000000000000 $t
     /tmp/ccvPPVYB.s:656    .text._ZL12chBSemSignalP18binary_semaphore_t:0000000000000000 _ZL12chBSemSignalP18binary_semaphore_t
     /tmp/ccvPPVYB.s:687    .text._ZL15chBSemGetStateIP18binary_semaphore_t:0000000000000000 $t
     /tmp/ccvPPVYB.s:694    .text._ZL15chBSemGetStateIP18binary_semaphore_t:0000000000000000 _ZL15chBSemGetStateIP18binary_semaphore_t
     /tmp/ccvPPVYB.s:724    .text._ZL15chEvtObjectInitP12event_source:0000000000000000 $t
     /tmp/ccvPPVYB.s:731    .text._ZL15chEvtObjectInitP12event_source:0000000000000000 _ZL15chEvtObjectInitP12event_source
     /tmp/ccvPPVYB.s:755    .text._ZL17chEvtRegisterMaskP12event_sourceP14event_listenerm:0000000000000000 $t
     /tmp/ccvPPVYB.s:762    .text._ZL17chEvtRegisterMaskP12event_sourceP14event_listenerm:0000000000000000 _ZL17chEvtRegisterMaskP12event_sourceP14event_listenerm
     /tmp/ccvPPVYB.s:792    .text._ZL13chEvtRegisterP12event_sourceP14event_listenerl:0000000000000000 $t
     /tmp/ccvPPVYB.s:799    .text._ZL13chEvtRegisterP12event_sourceP14event_listenerl:0000000000000000 _ZL13chEvtRegisterP12event_sourceP14event_listenerl
     /tmp/ccvPPVYB.s:832    .text._ZL15chMsgIsPendingIP9ch_thread:0000000000000000 $t
     /tmp/ccvPPVYB.s:839    .text._ZL15chMsgIsPendingIP9ch_thread:0000000000000000 _ZL15chMsgIsPendingIP9ch_thread
     /tmp/ccvPPVYB.s:872    .text._ZL8chMsgGetP9ch_thread:0000000000000000 $t
     /tmp/ccvPPVYB.s:879    .text._ZL8chMsgGetP9ch_thread:0000000000000000 _ZL8chMsgGetP9ch_thread
     /tmp/ccvPPVYB.s:901    .text._ZL12chIQGetFullIP8io_queue:0000000000000000 $t
     /tmp/ccvPPVYB.s:908    .text._ZL12chIQGetFullIP8io_queue:0000000000000000 _ZL12chIQGetFullIP8io_queue
     /tmp/ccvPPVYB.s:935    .text._ZL13chIQGetEmptyIP8io_queue:0000000000000000 $t
     /tmp/ccvPPVYB.s:942    .text._ZL13chIQGetEmptyIP8io_queue:0000000000000000 _ZL13chIQGetEmptyIP8io_queue
     /tmp/ccvPPVYB.s:976    .text._ZL12chIQIsEmptyIP8io_queue:0000000000000000 $t
ARM GAS  /tmp/ccvPPVYB.s 			page 282


     /tmp/ccvPPVYB.s:983    .text._ZL12chIQIsEmptyIP8io_queue:0000000000000000 _ZL12chIQIsEmptyIP8io_queue
     /tmp/ccvPPVYB.s:1012   .text._ZL11chIQIsFullIP8io_queue:0000000000000000 $t
     /tmp/ccvPPVYB.s:1019   .text._ZL11chIQIsFullIP8io_queue:0000000000000000 _ZL11chIQIsFullIP8io_queue
     /tmp/ccvPPVYB.s:1061   .text._ZL7chIQGetP8io_queue:0000000000000000 $t
     /tmp/ccvPPVYB.s:1068   .text._ZL7chIQGetP8io_queue:0000000000000000 _ZL7chIQGetP8io_queue
     /tmp/ccvPPVYB.s:1095   .text._ZL7chIQGetP8io_queue:000000000000001c $d
     /tmp/ccvPPVYB.s:1100   .text._ZL12chOQGetFullIP8io_queue:0000000000000000 $t
     /tmp/ccvPPVYB.s:1107   .text._ZL12chOQGetFullIP8io_queue:0000000000000000 _ZL12chOQGetFullIP8io_queue
     /tmp/ccvPPVYB.s:1141   .text._ZL13chOQGetEmptyIP8io_queue:0000000000000000 $t
     /tmp/ccvPPVYB.s:1148   .text._ZL13chOQGetEmptyIP8io_queue:0000000000000000 _ZL13chOQGetEmptyIP8io_queue
     /tmp/ccvPPVYB.s:1174   .text._ZL12chOQIsEmptyIP8io_queue:0000000000000000 $t
     /tmp/ccvPPVYB.s:1181   .text._ZL12chOQIsEmptyIP8io_queue:0000000000000000 _ZL12chOQIsEmptyIP8io_queue
     /tmp/ccvPPVYB.s:1223   .text._ZL11chOQIsFullIP8io_queue:0000000000000000 $t
     /tmp/ccvPPVYB.s:1230   .text._ZL11chOQIsFullIP8io_queue:0000000000000000 _ZL11chOQIsFullIP8io_queue
     /tmp/ccvPPVYB.s:1259   .text._ZL7chOQPutP8io_queueh:0000000000000000 $t
     /tmp/ccvPPVYB.s:1266   .text._ZL7chOQPutP8io_queueh:0000000000000000 _ZL7chOQPutP8io_queueh
     /tmp/ccvPPVYB.s:1299   .text._ZL7chOQPutP8io_queueh:0000000000000028 $d
     /tmp/ccvPPVYB.s:1304   .text._ZN10chibios_rt15ThreadReferenceC2EP9ch_thread:0000000000000000 $t
     /tmp/ccvPPVYB.s:1312   .text._ZN10chibios_rt15ThreadReferenceC2EP9ch_thread:0000000000000000 _ZN10chibios_rt15ThreadReferenceC2EP9ch_thread
     /tmp/ccvPPVYB.s:1342   .text._ZN10chibios_rt15ThreadReferenceC2EP9ch_thread:000000000000001c $d
     /tmp/ccvPPVYB.s:5389   .rodata._ZTVN10chibios_rt15ThreadReferenceE:0000000000000000 _ZTVN10chibios_rt15ThreadReferenceE
     /tmp/ccvPPVYB.s:1312   .text._ZN10chibios_rt15ThreadReferenceC2EP9ch_thread:0000000000000000 _ZN10chibios_rt15ThreadReferenceC1EP9ch_thread
     /tmp/ccvPPVYB.s:1349   .rodata:0000000000000000 $d
     /tmp/ccvPPVYB.s:1353   .text._ZN10chibios_rt15ThreadReference4stopEv:0000000000000000 $t
     /tmp/ccvPPVYB.s:1361   .text._ZN10chibios_rt15ThreadReference4stopEv:0000000000000000 _ZN10chibios_rt15ThreadReference4stopEv
     /tmp/ccvPPVYB.s:1386   .text._ZN10chibios_rt15ThreadReference4stopEv:0000000000000014 $d
     /tmp/ccvPPVYB.s:1391   .text._ZN10chibios_rt15ThreadReference16requestTerminateEv:0000000000000000 $t
     /tmp/ccvPPVYB.s:1399   .text._ZN10chibios_rt15ThreadReference16requestTerminateEv:0000000000000000 _ZN10chibios_rt15ThreadReference16requestTerminateEv
     /tmp/ccvPPVYB.s:1434   .text._ZN10chibios_rt15ThreadReference16requestTerminateEv:0000000000000028 $d
     /tmp/ccvPPVYB.s:5397   .rodata._ZZN10chibios_rt15ThreadReference16requestTerminateEvE8__func__:0000000000000000 _ZZN10chibios_rt15ThreadReference16requestTerminateEvE8__func__
     /tmp/ccvPPVYB.s:1439   .text._ZN10chibios_rt15ThreadReference4waitEv:0000000000000000 $t
     /tmp/ccvPPVYB.s:1447   .text._ZN10chibios_rt15ThreadReference4waitEv:0000000000000000 _ZN10chibios_rt15ThreadReference4waitEv
     /tmp/ccvPPVYB.s:1490   .text._ZN10chibios_rt15ThreadReference4waitEv:0000000000000034 $d
     /tmp/ccvPPVYB.s:5403   .rodata._ZZN10chibios_rt15ThreadReference4waitEvE8__func__:0000000000000000 _ZZN10chibios_rt15ThreadReference4waitEvE8__func__
     /tmp/ccvPPVYB.s:1495   .text._ZN10chibios_rt15ThreadReference11sendMessageEl:0000000000000000 $t
     /tmp/ccvPPVYB.s:1503   .text._ZN10chibios_rt15ThreadReference11sendMessageEl:0000000000000000 _ZN10chibios_rt15ThreadReference11sendMessageEl
     /tmp/ccvPPVYB.s:1542   .text._ZN10chibios_rt15ThreadReference11sendMessageEl:0000000000000030 $d
     /tmp/ccvPPVYB.s:5409   .rodata._ZZN10chibios_rt15ThreadReference11sendMessageElE8__func__:0000000000000000 _ZZN10chibios_rt15ThreadReference11sendMessageElE8__func__
     /tmp/ccvPPVYB.s:1547   .text._ZN10chibios_rt15ThreadReference16isPendingMessageEv:0000000000000000 $t
     /tmp/ccvPPVYB.s:1555   .text._ZN10chibios_rt15ThreadReference16isPendingMessageEv:0000000000000000 _ZN10chibios_rt15ThreadReference16isPendingMessageEv
     /tmp/ccvPPVYB.s:1591   .text._ZN10chibios_rt15ThreadReference16isPendingMessageEv:0000000000000028 $d
     /tmp/ccvPPVYB.s:5415   .rodata._ZZN10chibios_rt15ThreadReference16isPendingMessageEvE8__func__:0000000000000000 _ZZN10chibios_rt15ThreadReference16isPendingMessageEvE8__func__
     /tmp/ccvPPVYB.s:1596   .text._ZN10chibios_rt15ThreadReference10getMessageEv:0000000000000000 $t
     /tmp/ccvPPVYB.s:1604   .text._ZN10chibios_rt15ThreadReference10getMessageEv:0000000000000000 _ZN10chibios_rt15ThreadReference10getMessageEv
     /tmp/ccvPPVYB.s:1640   .text._ZN10chibios_rt15ThreadReference10getMessageEv:0000000000000028 $d
     /tmp/ccvPPVYB.s:5421   .rodata._ZZN10chibios_rt15ThreadReference10getMessageEvE8__func__:0000000000000000 _ZZN10chibios_rt15ThreadReference10getMessageEvE8__func__
     /tmp/ccvPPVYB.s:1645   .text._ZN10chibios_rt15ThreadReference14releaseMessageEl:0000000000000000 $t
     /tmp/ccvPPVYB.s:1653   .text._ZN10chibios_rt15ThreadReference14releaseMessageEl:0000000000000000 _ZN10chibios_rt15ThreadReference14releaseMessageEl
     /tmp/ccvPPVYB.s:1691   .text._ZN10chibios_rt15ThreadReference14releaseMessageEl:000000000000002c $d
     /tmp/ccvPPVYB.s:5427   .rodata._ZZN10chibios_rt15ThreadReference14releaseMessageElE8__func__:0000000000000000 _ZZN10chibios_rt15ThreadReference14releaseMessageElE8__func__
     /tmp/ccvPPVYB.s:1696   .text._ZN10chibios_rt15ThreadReference12signalEventsEm:0000000000000000 $t
     /tmp/ccvPPVYB.s:1704   .text._ZN10chibios_rt15ThreadReference12signalEventsEm:0000000000000000 _ZN10chibios_rt15ThreadReference12signalEventsEm
     /tmp/ccvPPVYB.s:1742   .text._ZN10chibios_rt15ThreadReference12signalEventsEm:000000000000002c $d
     /tmp/ccvPPVYB.s:5433   .rodata._ZZN10chibios_rt15ThreadReference12signalEventsEmE8__func__:0000000000000000 _ZZN10chibios_rt15ThreadReference12signalEventsEmE8__func__
     /tmp/ccvPPVYB.s:1747   .text._ZN10chibios_rt15ThreadReference13signalEventsIEm:0000000000000000 $t
     /tmp/ccvPPVYB.s:1755   .text._ZN10chibios_rt15ThreadReference13signalEventsIEm:0000000000000000 _ZN10chibios_rt15ThreadReference13signalEventsIEm
     /tmp/ccvPPVYB.s:1793   .text._ZN10chibios_rt15ThreadReference13signalEventsIEm:000000000000002c $d
ARM GAS  /tmp/ccvPPVYB.s 			page 283


     /tmp/ccvPPVYB.s:5439   .rodata._ZZN10chibios_rt15ThreadReference13signalEventsIEmE8__func__:0000000000000000 _ZZN10chibios_rt15ThreadReference13signalEventsIEmE8__func__
     /tmp/ccvPPVYB.s:1798   .text._ZN10chibios_rt10BaseThreadC2Ev:0000000000000000 $t
     /tmp/ccvPPVYB.s:1806   .text._ZN10chibios_rt10BaseThreadC2Ev:0000000000000000 _ZN10chibios_rt10BaseThreadC2Ev
     /tmp/ccvPPVYB.s:1837   .text._ZN10chibios_rt10BaseThreadC2Ev:0000000000000020 $d
     /tmp/ccvPPVYB.s:5378   .rodata._ZTVN10chibios_rt10BaseThreadE:0000000000000000 _ZTVN10chibios_rt10BaseThreadE
     /tmp/ccvPPVYB.s:1806   .text._ZN10chibios_rt10BaseThreadC2Ev:0000000000000000 _ZN10chibios_rt10BaseThreadC1Ev
     /tmp/ccvPPVYB.s:1844   .text._ZN10chibios_rt10BaseThread4mainEv:0000000000000000 $t
     /tmp/ccvPPVYB.s:1852   .text._ZN10chibios_rt10BaseThread4mainEv:0000000000000000 _ZN10chibios_rt10BaseThread4mainEv
     /tmp/ccvPPVYB.s:1871   .text._ZN10chibios_rt15ThreadReferenceC2ERKS0_:0000000000000000 $t
     /tmp/ccvPPVYB.s:1879   .text._ZN10chibios_rt15ThreadReferenceC2ERKS0_:0000000000000000 _ZN10chibios_rt15ThreadReferenceC2ERKS0_
     /tmp/ccvPPVYB.s:1908   .text._ZN10chibios_rt15ThreadReferenceC2ERKS0_:000000000000001c $d
     /tmp/ccvPPVYB.s:1879   .text._ZN10chibios_rt15ThreadReferenceC2ERKS0_:0000000000000000 _ZN10chibios_rt15ThreadReferenceC1ERKS0_
     /tmp/ccvPPVYB.s:1915   .text._ZN10chibios_rt10BaseThread5startEm:0000000000000000 $t
     /tmp/ccvPPVYB.s:1923   .text._ZN10chibios_rt10BaseThread5startEm:0000000000000000 _ZN10chibios_rt10BaseThread5startEm
     /tmp/ccvPPVYB.s:1952   .text._ZN10chibios_rt10_thd_startEPv:0000000000000000 $t
     /tmp/ccvPPVYB.s:1960   .text._ZN10chibios_rt10_thd_startEPv:0000000000000000 _ZN10chibios_rt10_thd_startEPv
     /tmp/ccvPPVYB.s:1990   .text._ZN10chibios_rt10BaseThread7setNameEPKc:0000000000000000 $t
     /tmp/ccvPPVYB.s:1998   .text._ZN10chibios_rt10BaseThread7setNameEPKc:0000000000000000 _ZN10chibios_rt10BaseThread7setNameEPKc
     /tmp/ccvPPVYB.s:2023   .text._ZN10chibios_rt10BaseThread11setPriorityEm:0000000000000000 $t
     /tmp/ccvPPVYB.s:2031   .text._ZN10chibios_rt10BaseThread11setPriorityEm:0000000000000000 _ZN10chibios_rt10BaseThread11setPriorityEm
     /tmp/ccvPPVYB.s:2057   .text._ZN10chibios_rt10BaseThread4exitEl:0000000000000000 $t
     /tmp/ccvPPVYB.s:2065   .text._ZN10chibios_rt10BaseThread4exitEl:0000000000000000 _ZN10chibios_rt10BaseThread4exitEl
     /tmp/ccvPPVYB.s:2090   .text._ZN10chibios_rt10BaseThread5exitSEl:0000000000000000 $t
     /tmp/ccvPPVYB.s:2098   .text._ZN10chibios_rt10BaseThread5exitSEl:0000000000000000 _ZN10chibios_rt10BaseThread5exitSEl
     /tmp/ccvPPVYB.s:2123   .text._ZN10chibios_rt10BaseThread15shouldTerminateEv:0000000000000000 $t
     /tmp/ccvPPVYB.s:2131   .text._ZN10chibios_rt10BaseThread15shouldTerminateEv:0000000000000000 _ZN10chibios_rt10BaseThread15shouldTerminateEv
     /tmp/ccvPPVYB.s:2152   .text._ZN10chibios_rt10BaseThread5sleepEt:0000000000000000 $t
     /tmp/ccvPPVYB.s:2160   .text._ZN10chibios_rt10BaseThread5sleepEt:0000000000000000 _ZN10chibios_rt10BaseThread5sleepEt
     /tmp/ccvPPVYB.s:2190   .text._ZN10chibios_rt10BaseThread10sleepUntilEt:0000000000000000 $t
     /tmp/ccvPPVYB.s:2198   .text._ZN10chibios_rt10BaseThread10sleepUntilEt:0000000000000000 _ZN10chibios_rt10BaseThread10sleepUntilEt
     /tmp/ccvPPVYB.s:2228   .text._ZN10chibios_rt10BaseThread5yieldEv:0000000000000000 $t
     /tmp/ccvPPVYB.s:2236   .text._ZN10chibios_rt10BaseThread5yieldEv:0000000000000000 _ZN10chibios_rt10BaseThread5yieldEv
     /tmp/ccvPPVYB.s:2256   .text._ZN10chibios_rt10BaseThread11waitMessageEv:0000000000000000 $t
     /tmp/ccvPPVYB.s:2264   .text._ZN10chibios_rt10BaseThread11waitMessageEv:0000000000000000 _ZN10chibios_rt10BaseThread11waitMessageEv
     /tmp/ccvPPVYB.s:2294   .text._ZN10chibios_rt10BaseThread17getAndClearEventsEm:0000000000000000 $t
     /tmp/ccvPPVYB.s:2302   .text._ZN10chibios_rt10BaseThread17getAndClearEventsEm:0000000000000000 _ZN10chibios_rt10BaseThread17getAndClearEventsEm
     /tmp/ccvPPVYB.s:2328   .text._ZN10chibios_rt10BaseThread9addEventsEm:0000000000000000 $t
     /tmp/ccvPPVYB.s:2336   .text._ZN10chibios_rt10BaseThread9addEventsEm:0000000000000000 _ZN10chibios_rt10BaseThread9addEventsEm
     /tmp/ccvPPVYB.s:2362   .text._ZN10chibios_rt10BaseThread12waitOneEventEm:0000000000000000 $t
     /tmp/ccvPPVYB.s:2370   .text._ZN10chibios_rt10BaseThread12waitOneEventEm:0000000000000000 _ZN10chibios_rt10BaseThread12waitOneEventEm
     /tmp/ccvPPVYB.s:2396   .text._ZN10chibios_rt10BaseThread12waitAnyEventEm:0000000000000000 $t
     /tmp/ccvPPVYB.s:2404   .text._ZN10chibios_rt10BaseThread12waitAnyEventEm:0000000000000000 _ZN10chibios_rt10BaseThread12waitAnyEventEm
     /tmp/ccvPPVYB.s:2430   .text._ZN10chibios_rt10BaseThread13waitAllEventsEm:0000000000000000 $t
     /tmp/ccvPPVYB.s:2438   .text._ZN10chibios_rt10BaseThread13waitAllEventsEm:0000000000000000 _ZN10chibios_rt10BaseThread13waitAllEventsEm
     /tmp/ccvPPVYB.s:2464   .text._ZN10chibios_rt10BaseThread19waitOneEventTimeoutEmt:0000000000000000 $t
     /tmp/ccvPPVYB.s:2472   .text._ZN10chibios_rt10BaseThread19waitOneEventTimeoutEmt:0000000000000000 _ZN10chibios_rt10BaseThread19waitOneEventTimeoutEmt
     /tmp/ccvPPVYB.s:2506   .text._ZN10chibios_rt10BaseThread19waitAnyEventTimeoutEmt:0000000000000000 $t
     /tmp/ccvPPVYB.s:2514   .text._ZN10chibios_rt10BaseThread19waitAnyEventTimeoutEmt:0000000000000000 _ZN10chibios_rt10BaseThread19waitAnyEventTimeoutEmt
     /tmp/ccvPPVYB.s:2548   .text._ZN10chibios_rt10BaseThread20waitAllEventsTimeoutEmt:0000000000000000 $t
     /tmp/ccvPPVYB.s:2556   .text._ZN10chibios_rt10BaseThread20waitAllEventsTimeoutEmt:0000000000000000 _ZN10chibios_rt10BaseThread20waitAllEventsTimeoutEmt
     /tmp/ccvPPVYB.s:2590   .text._ZN10chibios_rt10BaseThread14dispatchEventsEPKPFvlEm:0000000000000000 $t
     /tmp/ccvPPVYB.s:2598   .text._ZN10chibios_rt10BaseThread14dispatchEventsEPKPFvlEm:0000000000000000 _ZN10chibios_rt10BaseThread14dispatchEventsEPKPFvlEm
     /tmp/ccvPPVYB.s:2626   .text._ZN10chibios_rt10BaseThread11unlockMutexEPNS_5MutexE:0000000000000000 $t
     /tmp/ccvPPVYB.s:2634   .text._ZN10chibios_rt10BaseThread11unlockMutexEPNS_5MutexE:0000000000000000 _ZN10chibios_rt10BaseThread11unlockMutexEPNS_5MutexE
     /tmp/ccvPPVYB.s:2659   .text._ZN10chibios_rt10BaseThread12unlockMutexSEPNS_5MutexE:0000000000000000 $t
     /tmp/ccvPPVYB.s:2667   .text._ZN10chibios_rt10BaseThread12unlockMutexSEPNS_5MutexE:0000000000000000 _ZN10chibios_rt10BaseThread12unlockMutexSEPNS_5MutexE
     /tmp/ccvPPVYB.s:2692   .text._ZN10chibios_rt10BaseThread16unlockAllMutexesEv:0000000000000000 $t
ARM GAS  /tmp/ccvPPVYB.s 			page 284


     /tmp/ccvPPVYB.s:2700   .text._ZN10chibios_rt10BaseThread16unlockAllMutexesEv:0000000000000000 _ZN10chibios_rt10BaseThread16unlockAllMutexesEv
     /tmp/ccvPPVYB.s:2720   .text._ZN10chibios_rt16CounterSemaphoreC2El:0000000000000000 $t
     /tmp/ccvPPVYB.s:2728   .text._ZN10chibios_rt16CounterSemaphoreC2El:0000000000000000 _ZN10chibios_rt16CounterSemaphoreC2El
     /tmp/ccvPPVYB.s:2728   .text._ZN10chibios_rt16CounterSemaphoreC2El:0000000000000000 _ZN10chibios_rt16CounterSemaphoreC1El
     /tmp/ccvPPVYB.s:2761   .text._ZN10chibios_rt16CounterSemaphore5resetEl:0000000000000000 $t
     /tmp/ccvPPVYB.s:2769   .text._ZN10chibios_rt16CounterSemaphore5resetEl:0000000000000000 _ZN10chibios_rt16CounterSemaphore5resetEl
     /tmp/ccvPPVYB.s:2797   .text._ZN10chibios_rt16CounterSemaphore6resetIEl:0000000000000000 $t
     /tmp/ccvPPVYB.s:2805   .text._ZN10chibios_rt16CounterSemaphore6resetIEl:0000000000000000 _ZN10chibios_rt16CounterSemaphore6resetIEl
     /tmp/ccvPPVYB.s:2833   .text._ZN10chibios_rt16CounterSemaphore4waitEv:0000000000000000 $t
     /tmp/ccvPPVYB.s:2841   .text._ZN10chibios_rt16CounterSemaphore4waitEv:0000000000000000 _ZN10chibios_rt16CounterSemaphore4waitEv
     /tmp/ccvPPVYB.s:2867   .text._ZN10chibios_rt16CounterSemaphore5waitSEv:0000000000000000 $t
     /tmp/ccvPPVYB.s:2875   .text._ZN10chibios_rt16CounterSemaphore5waitSEv:0000000000000000 _ZN10chibios_rt16CounterSemaphore5waitSEv
     /tmp/ccvPPVYB.s:2901   .text._ZN10chibios_rt16CounterSemaphore4waitEt:0000000000000000 $t
     /tmp/ccvPPVYB.s:2909   .text._ZN10chibios_rt16CounterSemaphore4waitEt:0000000000000000 _ZN10chibios_rt16CounterSemaphore4waitEt
     /tmp/ccvPPVYB.s:2943   .text._ZN10chibios_rt16CounterSemaphore5waitSEt:0000000000000000 $t
     /tmp/ccvPPVYB.s:2951   .text._ZN10chibios_rt16CounterSemaphore5waitSEt:0000000000000000 _ZN10chibios_rt16CounterSemaphore5waitSEt
     /tmp/ccvPPVYB.s:2985   .text._ZN10chibios_rt16CounterSemaphore6signalEv:0000000000000000 $t
     /tmp/ccvPPVYB.s:2993   .text._ZN10chibios_rt16CounterSemaphore6signalEv:0000000000000000 _ZN10chibios_rt16CounterSemaphore6signalEv
     /tmp/ccvPPVYB.s:3018   .text._ZN10chibios_rt16CounterSemaphore7signalIEv:0000000000000000 $t
     /tmp/ccvPPVYB.s:3026   .text._ZN10chibios_rt16CounterSemaphore7signalIEv:0000000000000000 _ZN10chibios_rt16CounterSemaphore7signalIEv
     /tmp/ccvPPVYB.s:3051   .text._ZN10chibios_rt16CounterSemaphore11addCounterIEl:0000000000000000 $t
     /tmp/ccvPPVYB.s:3059   .text._ZN10chibios_rt16CounterSemaphore11addCounterIEl:0000000000000000 _ZN10chibios_rt16CounterSemaphore11addCounterIEl
     /tmp/ccvPPVYB.s:3087   .text._ZN10chibios_rt16CounterSemaphore11getCounterIEv:0000000000000000 $t
     /tmp/ccvPPVYB.s:3095   .text._ZN10chibios_rt16CounterSemaphore11getCounterIEv:0000000000000000 _ZN10chibios_rt16CounterSemaphore11getCounterIEv
     /tmp/ccvPPVYB.s:3121   .text._ZN10chibios_rt16CounterSemaphore10signalWaitEPS0_S1_:0000000000000000 $t
     /tmp/ccvPPVYB.s:3129   .text._ZN10chibios_rt16CounterSemaphore10signalWaitEPS0_S1_:0000000000000000 _ZN10chibios_rt16CounterSemaphore10signalWaitEPS0_S1_
     /tmp/ccvPPVYB.s:3158   .text._ZN10chibios_rt15BinarySemaphoreC2Eb:0000000000000000 $t
     /tmp/ccvPPVYB.s:3166   .text._ZN10chibios_rt15BinarySemaphoreC2Eb:0000000000000000 _ZN10chibios_rt15BinarySemaphoreC2Eb
     /tmp/ccvPPVYB.s:3166   .text._ZN10chibios_rt15BinarySemaphoreC2Eb:0000000000000000 _ZN10chibios_rt15BinarySemaphoreC1Eb
     /tmp/ccvPPVYB.s:3204   .text._ZN10chibios_rt15BinarySemaphore4waitEv:0000000000000000 $t
     /tmp/ccvPPVYB.s:3212   .text._ZN10chibios_rt15BinarySemaphore4waitEv:0000000000000000 _ZN10chibios_rt15BinarySemaphore4waitEv
     /tmp/ccvPPVYB.s:3238   .text._ZN10chibios_rt15BinarySemaphore5waitSEv:0000000000000000 $t
     /tmp/ccvPPVYB.s:3246   .text._ZN10chibios_rt15BinarySemaphore5waitSEv:0000000000000000 _ZN10chibios_rt15BinarySemaphore5waitSEv
     /tmp/ccvPPVYB.s:3272   .text._ZN10chibios_rt15BinarySemaphore4waitEt:0000000000000000 $t
     /tmp/ccvPPVYB.s:3280   .text._ZN10chibios_rt15BinarySemaphore4waitEt:0000000000000000 _ZN10chibios_rt15BinarySemaphore4waitEt
     /tmp/ccvPPVYB.s:3314   .text._ZN10chibios_rt15BinarySemaphore5waitSEt:0000000000000000 $t
     /tmp/ccvPPVYB.s:3322   .text._ZN10chibios_rt15BinarySemaphore5waitSEt:0000000000000000 _ZN10chibios_rt15BinarySemaphore5waitSEt
     /tmp/ccvPPVYB.s:3356   .text._ZN10chibios_rt15BinarySemaphore5resetEb:0000000000000000 $t
     /tmp/ccvPPVYB.s:3364   .text._ZN10chibios_rt15BinarySemaphore5resetEb:0000000000000000 _ZN10chibios_rt15BinarySemaphore5resetEb
     /tmp/ccvPPVYB.s:3397   .text._ZN10chibios_rt15BinarySemaphore6resetIEb:0000000000000000 $t
     /tmp/ccvPPVYB.s:3405   .text._ZN10chibios_rt15BinarySemaphore6resetIEb:0000000000000000 _ZN10chibios_rt15BinarySemaphore6resetIEb
     /tmp/ccvPPVYB.s:3438   .text._ZN10chibios_rt15BinarySemaphore6signalEv:0000000000000000 $t
     /tmp/ccvPPVYB.s:3446   .text._ZN10chibios_rt15BinarySemaphore6signalEv:0000000000000000 _ZN10chibios_rt15BinarySemaphore6signalEv
     /tmp/ccvPPVYB.s:3471   .text._ZN10chibios_rt15BinarySemaphore7signalIEv:0000000000000000 $t
     /tmp/ccvPPVYB.s:3479   .text._ZN10chibios_rt15BinarySemaphore7signalIEv:0000000000000000 _ZN10chibios_rt15BinarySemaphore7signalIEv
     /tmp/ccvPPVYB.s:3504   .text._ZN10chibios_rt15BinarySemaphore9getStateIEv:0000000000000000 $t
     /tmp/ccvPPVYB.s:3512   .text._ZN10chibios_rt15BinarySemaphore9getStateIEv:0000000000000000 _ZN10chibios_rt15BinarySemaphore9getStateIEv
     /tmp/ccvPPVYB.s:3538   .text._ZN10chibios_rt5MutexC2Ev:0000000000000000 $t
     /tmp/ccvPPVYB.s:3546   .text._ZN10chibios_rt5MutexC2Ev:0000000000000000 _ZN10chibios_rt5MutexC2Ev
     /tmp/ccvPPVYB.s:3546   .text._ZN10chibios_rt5MutexC2Ev:0000000000000000 _ZN10chibios_rt5MutexC1Ev
     /tmp/ccvPPVYB.s:3576   .text._ZN10chibios_rt5Mutex7tryLockEv:0000000000000000 $t
     /tmp/ccvPPVYB.s:3584   .text._ZN10chibios_rt5Mutex7tryLockEv:0000000000000000 _ZN10chibios_rt5Mutex7tryLockEv
     /tmp/ccvPPVYB.s:3610   .text._ZN10chibios_rt5Mutex8tryLockSEv:0000000000000000 $t
     /tmp/ccvPPVYB.s:3618   .text._ZN10chibios_rt5Mutex8tryLockSEv:0000000000000000 _ZN10chibios_rt5Mutex8tryLockSEv
     /tmp/ccvPPVYB.s:3644   .text._ZN10chibios_rt5Mutex4lockEv:0000000000000000 $t
     /tmp/ccvPPVYB.s:3652   .text._ZN10chibios_rt5Mutex4lockEv:0000000000000000 _ZN10chibios_rt5Mutex4lockEv
     /tmp/ccvPPVYB.s:3677   .text._ZN10chibios_rt5Mutex5lockSEv:0000000000000000 $t
ARM GAS  /tmp/ccvPPVYB.s 			page 285


     /tmp/ccvPPVYB.s:3685   .text._ZN10chibios_rt5Mutex5lockSEv:0000000000000000 _ZN10chibios_rt5Mutex5lockSEv
     /tmp/ccvPPVYB.s:3710   .text._ZN10chibios_rt5Mutex6unlockEv:0000000000000000 $t
     /tmp/ccvPPVYB.s:3718   .text._ZN10chibios_rt5Mutex6unlockEv:0000000000000000 _ZN10chibios_rt5Mutex6unlockEv
     /tmp/ccvPPVYB.s:3743   .text._ZN10chibios_rt5Mutex7unlockSEv:0000000000000000 $t
     /tmp/ccvPPVYB.s:3751   .text._ZN10chibios_rt5Mutex7unlockSEv:0000000000000000 _ZN10chibios_rt5Mutex7unlockSEv
     /tmp/ccvPPVYB.s:3776   .text._ZN10chibios_rt7CondVarC2Ev:0000000000000000 $t
     /tmp/ccvPPVYB.s:3784   .text._ZN10chibios_rt7CondVarC2Ev:0000000000000000 _ZN10chibios_rt7CondVarC2Ev
     /tmp/ccvPPVYB.s:3784   .text._ZN10chibios_rt7CondVarC2Ev:0000000000000000 _ZN10chibios_rt7CondVarC1Ev
     /tmp/ccvPPVYB.s:3814   .text._ZN10chibios_rt7CondVar6signalEv:0000000000000000 $t
     /tmp/ccvPPVYB.s:3822   .text._ZN10chibios_rt7CondVar6signalEv:0000000000000000 _ZN10chibios_rt7CondVar6signalEv
     /tmp/ccvPPVYB.s:3847   .text._ZN10chibios_rt7CondVar7signalIEv:0000000000000000 $t
     /tmp/ccvPPVYB.s:3855   .text._ZN10chibios_rt7CondVar7signalIEv:0000000000000000 _ZN10chibios_rt7CondVar7signalIEv
     /tmp/ccvPPVYB.s:3880   .text._ZN10chibios_rt7CondVar9broadcastEv:0000000000000000 $t
     /tmp/ccvPPVYB.s:3888   .text._ZN10chibios_rt7CondVar9broadcastEv:0000000000000000 _ZN10chibios_rt7CondVar9broadcastEv
     /tmp/ccvPPVYB.s:3913   .text._ZN10chibios_rt7CondVar10broadcastIEv:0000000000000000 $t
     /tmp/ccvPPVYB.s:3921   .text._ZN10chibios_rt7CondVar10broadcastIEv:0000000000000000 _ZN10chibios_rt7CondVar10broadcastIEv
     /tmp/ccvPPVYB.s:3946   .text._ZN10chibios_rt7CondVar4waitEv:0000000000000000 $t
     /tmp/ccvPPVYB.s:3954   .text._ZN10chibios_rt7CondVar4waitEv:0000000000000000 _ZN10chibios_rt7CondVar4waitEv
     /tmp/ccvPPVYB.s:3980   .text._ZN10chibios_rt7CondVar5waitSEv:0000000000000000 $t
     /tmp/ccvPPVYB.s:3988   .text._ZN10chibios_rt7CondVar5waitSEv:0000000000000000 _ZN10chibios_rt7CondVar5waitSEv
     /tmp/ccvPPVYB.s:4014   .text._ZN10chibios_rt7CondVar4waitEt:0000000000000000 $t
     /tmp/ccvPPVYB.s:4022   .text._ZN10chibios_rt7CondVar4waitEt:0000000000000000 _ZN10chibios_rt7CondVar4waitEt
     /tmp/ccvPPVYB.s:4056   .text._ZN10chibios_rt11EvtListener16getAndClearFlagsEv:0000000000000000 $t
     /tmp/ccvPPVYB.s:4064   .text._ZN10chibios_rt11EvtListener16getAndClearFlagsEv:0000000000000000 _ZN10chibios_rt11EvtListener16getAndClearFlagsEv
     /tmp/ccvPPVYB.s:4090   .text._ZN10chibios_rt11EvtListener17getAndClearFlagsIEv:0000000000000000 $t
     /tmp/ccvPPVYB.s:4098   .text._ZN10chibios_rt11EvtListener17getAndClearFlagsIEv:0000000000000000 _ZN10chibios_rt11EvtListener17getAndClearFlagsIEv
     /tmp/ccvPPVYB.s:4124   .text._ZN10chibios_rt9EvtSourceC2Ev:0000000000000000 $t
     /tmp/ccvPPVYB.s:4132   .text._ZN10chibios_rt9EvtSourceC2Ev:0000000000000000 _ZN10chibios_rt9EvtSourceC2Ev
     /tmp/ccvPPVYB.s:4132   .text._ZN10chibios_rt9EvtSourceC2Ev:0000000000000000 _ZN10chibios_rt9EvtSourceC1Ev
     /tmp/ccvPPVYB.s:4162   .text._ZN10chibios_rt9EvtSource11registerOneEPNS_11EvtListenerEl:0000000000000000 $t
     /tmp/ccvPPVYB.s:4170   .text._ZN10chibios_rt9EvtSource11registerOneEPNS_11EvtListenerEl:0000000000000000 _ZN10chibios_rt9EvtSource11registerOneEPNS_11EvtListenerEl
     /tmp/ccvPPVYB.s:4199   .text._ZN10chibios_rt9EvtSource12registerMaskEPNS_11EvtListenerEm:0000000000000000 $t
     /tmp/ccvPPVYB.s:4207   .text._ZN10chibios_rt9EvtSource12registerMaskEPNS_11EvtListenerEm:0000000000000000 _ZN10chibios_rt9EvtSource12registerMaskEPNS_11EvtListenerEm
     /tmp/ccvPPVYB.s:4236   .text._ZN10chibios_rt9EvtSource10unregisterEPNS_11EvtListenerE:0000000000000000 $t
     /tmp/ccvPPVYB.s:4244   .text._ZN10chibios_rt9EvtSource10unregisterEPNS_11EvtListenerE:0000000000000000 _ZN10chibios_rt9EvtSource10unregisterEPNS_11EvtListenerE
     /tmp/ccvPPVYB.s:4272   .text._ZN10chibios_rt9EvtSource14broadcastFlagsEm:0000000000000000 $t
     /tmp/ccvPPVYB.s:4280   .text._ZN10chibios_rt9EvtSource14broadcastFlagsEm:0000000000000000 _ZN10chibios_rt9EvtSource14broadcastFlagsEm
     /tmp/ccvPPVYB.s:4308   .text._ZN10chibios_rt9EvtSource15broadcastFlagsIEm:0000000000000000 $t
     /tmp/ccvPPVYB.s:4316   .text._ZN10chibios_rt9EvtSource15broadcastFlagsIEm:0000000000000000 _ZN10chibios_rt9EvtSource15broadcastFlagsIEm
     /tmp/ccvPPVYB.s:4344   .text._ZN10chibios_rt7InQueueC2EPhjPFvP8io_queueEPv:0000000000000000 $t
     /tmp/ccvPPVYB.s:4352   .text._ZN10chibios_rt7InQueueC2EPhjPFvP8io_queueEPv:0000000000000000 _ZN10chibios_rt7InQueueC2EPhjPFvP8io_queueEPv
     /tmp/ccvPPVYB.s:4352   .text._ZN10chibios_rt7InQueueC2EPhjPFvP8io_queueEPv:0000000000000000 _ZN10chibios_rt7InQueueC1EPhjPFvP8io_queueEPv
     /tmp/ccvPPVYB.s:4391   .text._ZN10chibios_rt7InQueue8getFullIEv:0000000000000000 $t
     /tmp/ccvPPVYB.s:4399   .text._ZN10chibios_rt7InQueue8getFullIEv:0000000000000000 _ZN10chibios_rt7InQueue8getFullIEv
     /tmp/ccvPPVYB.s:4425   .text._ZN10chibios_rt7InQueue9getEmptyIEv:0000000000000000 $t
     /tmp/ccvPPVYB.s:4433   .text._ZN10chibios_rt7InQueue9getEmptyIEv:0000000000000000 _ZN10chibios_rt7InQueue9getEmptyIEv
     /tmp/ccvPPVYB.s:4459   .text._ZN10chibios_rt7InQueue8isEmptyIEv:0000000000000000 $t
     /tmp/ccvPPVYB.s:4467   .text._ZN10chibios_rt7InQueue8isEmptyIEv:0000000000000000 _ZN10chibios_rt7InQueue8isEmptyIEv
     /tmp/ccvPPVYB.s:4493   .text._ZN10chibios_rt7InQueue7isFullIEv:0000000000000000 $t
     /tmp/ccvPPVYB.s:4501   .text._ZN10chibios_rt7InQueue7isFullIEv:0000000000000000 _ZN10chibios_rt7InQueue7isFullIEv
     /tmp/ccvPPVYB.s:4527   .text._ZN10chibios_rt7InQueue6resetIEv:0000000000000000 $t
     /tmp/ccvPPVYB.s:4535   .text._ZN10chibios_rt7InQueue6resetIEv:0000000000000000 _ZN10chibios_rt7InQueue6resetIEv
     /tmp/ccvPPVYB.s:4560   .text._ZN10chibios_rt7InQueue4putIEh:0000000000000000 $t
     /tmp/ccvPPVYB.s:4568   .text._ZN10chibios_rt7InQueue4putIEh:0000000000000000 _ZN10chibios_rt7InQueue4putIEh
     /tmp/ccvPPVYB.s:4602   .text._ZN10chibios_rt7InQueue3getEv:0000000000000000 $t
     /tmp/ccvPPVYB.s:4610   .text._ZN10chibios_rt7InQueue3getEv:0000000000000000 _ZN10chibios_rt7InQueue3getEv
     /tmp/ccvPPVYB.s:4636   .text._ZN10chibios_rt7InQueue3getEt:0000000000000000 $t
ARM GAS  /tmp/ccvPPVYB.s 			page 286


     /tmp/ccvPPVYB.s:4644   .text._ZN10chibios_rt7InQueue3getEt:0000000000000000 _ZN10chibios_rt7InQueue3getEt
     /tmp/ccvPPVYB.s:4678   .text._ZN10chibios_rt7InQueue4readEPhjt:0000000000000000 $t
     /tmp/ccvPPVYB.s:4686   .text._ZN10chibios_rt7InQueue4readEPhjt:0000000000000000 _ZN10chibios_rt7InQueue4readEPhjt
     /tmp/ccvPPVYB.s:4722   .text._ZN10chibios_rt8OutQueueC2EPhjPFvP8io_queueEPv:0000000000000000 $t
     /tmp/ccvPPVYB.s:4730   .text._ZN10chibios_rt8OutQueueC2EPhjPFvP8io_queueEPv:0000000000000000 _ZN10chibios_rt8OutQueueC2EPhjPFvP8io_queueEPv
     /tmp/ccvPPVYB.s:4730   .text._ZN10chibios_rt8OutQueueC2EPhjPFvP8io_queueEPv:0000000000000000 _ZN10chibios_rt8OutQueueC1EPhjPFvP8io_queueEPv
     /tmp/ccvPPVYB.s:4769   .text._ZN10chibios_rt8OutQueue8getFullIEv:0000000000000000 $t
     /tmp/ccvPPVYB.s:4777   .text._ZN10chibios_rt8OutQueue8getFullIEv:0000000000000000 _ZN10chibios_rt8OutQueue8getFullIEv
     /tmp/ccvPPVYB.s:4803   .text._ZN10chibios_rt8OutQueue9getEmptyIEv:0000000000000000 $t
     /tmp/ccvPPVYB.s:4811   .text._ZN10chibios_rt8OutQueue9getEmptyIEv:0000000000000000 _ZN10chibios_rt8OutQueue9getEmptyIEv
     /tmp/ccvPPVYB.s:4837   .text._ZN10chibios_rt8OutQueue8isEmptyIEv:0000000000000000 $t
     /tmp/ccvPPVYB.s:4845   .text._ZN10chibios_rt8OutQueue8isEmptyIEv:0000000000000000 _ZN10chibios_rt8OutQueue8isEmptyIEv
     /tmp/ccvPPVYB.s:4871   .text._ZN10chibios_rt8OutQueue7isFullIEv:0000000000000000 $t
     /tmp/ccvPPVYB.s:4879   .text._ZN10chibios_rt8OutQueue7isFullIEv:0000000000000000 _ZN10chibios_rt8OutQueue7isFullIEv
     /tmp/ccvPPVYB.s:4905   .text._ZN10chibios_rt8OutQueue6resetIEv:0000000000000000 $t
     /tmp/ccvPPVYB.s:4913   .text._ZN10chibios_rt8OutQueue6resetIEv:0000000000000000 _ZN10chibios_rt8OutQueue6resetIEv
     /tmp/ccvPPVYB.s:4938   .text._ZN10chibios_rt8OutQueue3putEh:0000000000000000 $t
     /tmp/ccvPPVYB.s:4946   .text._ZN10chibios_rt8OutQueue3putEh:0000000000000000 _ZN10chibios_rt8OutQueue3putEh
     /tmp/ccvPPVYB.s:4980   .text._ZN10chibios_rt8OutQueue3putEht:0000000000000000 $t
     /tmp/ccvPPVYB.s:4988   .text._ZN10chibios_rt8OutQueue3putEht:0000000000000000 _ZN10chibios_rt8OutQueue3putEht
     /tmp/ccvPPVYB.s:5028   .text._ZN10chibios_rt8OutQueue4getIEv:0000000000000000 $t
     /tmp/ccvPPVYB.s:5036   .text._ZN10chibios_rt8OutQueue4getIEv:0000000000000000 _ZN10chibios_rt8OutQueue4getIEv
     /tmp/ccvPPVYB.s:5062   .text._ZN10chibios_rt8OutQueue5writeEPKhjt:0000000000000000 $t
     /tmp/ccvPPVYB.s:5070   .text._ZN10chibios_rt8OutQueue5writeEPKhjt:0000000000000000 _ZN10chibios_rt8OutQueue5writeEPKhjt
     /tmp/ccvPPVYB.s:5106   .text._ZN10chibios_rt10MemoryPoolC2EjPFPvjE:0000000000000000 $t
     /tmp/ccvPPVYB.s:5114   .text._ZN10chibios_rt10MemoryPoolC2EjPFPvjE:0000000000000000 _ZN10chibios_rt10MemoryPoolC2EjPFPvjE
     /tmp/ccvPPVYB.s:5114   .text._ZN10chibios_rt10MemoryPoolC2EjPFPvjE:0000000000000000 _ZN10chibios_rt10MemoryPoolC1EjPFPvjE
     /tmp/ccvPPVYB.s:5148   .text._ZN10chibios_rt10MemoryPoolC2EjPFPvjES1_j:0000000000000000 $t
     /tmp/ccvPPVYB.s:5156   .text._ZN10chibios_rt10MemoryPoolC2EjPFPvjES1_j:0000000000000000 _ZN10chibios_rt10MemoryPoolC2EjPFPvjES1_j
     /tmp/ccvPPVYB.s:5156   .text._ZN10chibios_rt10MemoryPoolC2EjPFPvjES1_j:0000000000000000 _ZN10chibios_rt10MemoryPoolC1EjPFPvjES1_j
     /tmp/ccvPPVYB.s:5197   .text._ZN10chibios_rt10MemoryPool9loadArrayEPvj:0000000000000000 $t
     /tmp/ccvPPVYB.s:5205   .text._ZN10chibios_rt10MemoryPool9loadArrayEPvj:0000000000000000 _ZN10chibios_rt10MemoryPool9loadArrayEPvj
     /tmp/ccvPPVYB.s:5234   .text._ZN10chibios_rt10MemoryPool6allocIEv:0000000000000000 $t
     /tmp/ccvPPVYB.s:5242   .text._ZN10chibios_rt10MemoryPool6allocIEv:0000000000000000 _ZN10chibios_rt10MemoryPool6allocIEv
     /tmp/ccvPPVYB.s:5268   .text._ZN10chibios_rt10MemoryPool5allocEv:0000000000000000 $t
     /tmp/ccvPPVYB.s:5276   .text._ZN10chibios_rt10MemoryPool5allocEv:0000000000000000 _ZN10chibios_rt10MemoryPool5allocEv
     /tmp/ccvPPVYB.s:5302   .text._ZN10chibios_rt10MemoryPool4freeEPv:0000000000000000 $t
     /tmp/ccvPPVYB.s:5310   .text._ZN10chibios_rt10MemoryPool4freeEPv:0000000000000000 _ZN10chibios_rt10MemoryPool4freeEPv
     /tmp/ccvPPVYB.s:5338   .text._ZN10chibios_rt10MemoryPool5freeIEPv:0000000000000000 $t
     /tmp/ccvPPVYB.s:5346   .text._ZN10chibios_rt10MemoryPool5freeIEPv:0000000000000000 _ZN10chibios_rt10MemoryPool5freeIEPv
     /tmp/ccvPPVYB.s:5375   .rodata._ZTVN10chibios_rt10BaseThreadE:0000000000000000 $d
     /tmp/ccvPPVYB.s:5386   .rodata._ZTVN10chibios_rt15ThreadReferenceE:0000000000000000 $d
     /tmp/ccvPPVYB.s:5394   .rodata._ZZN10chibios_rt15ThreadReference16requestTerminateEvE8__func__:0000000000000000 $d
     /tmp/ccvPPVYB.s:5400   .rodata._ZZN10chibios_rt15ThreadReference4waitEvE8__func__:0000000000000000 $d
     /tmp/ccvPPVYB.s:5406   .rodata._ZZN10chibios_rt15ThreadReference11sendMessageElE8__func__:0000000000000000 $d
     /tmp/ccvPPVYB.s:5412   .rodata._ZZN10chibios_rt15ThreadReference16isPendingMessageEvE8__func__:0000000000000000 $d
     /tmp/ccvPPVYB.s:5418   .rodata._ZZN10chibios_rt15ThreadReference10getMessageEvE8__func__:0000000000000000 $d
     /tmp/ccvPPVYB.s:5424   .rodata._ZZN10chibios_rt15ThreadReference14releaseMessageElE8__func__:0000000000000000 $d
     /tmp/ccvPPVYB.s:5430   .rodata._ZZN10chibios_rt15ThreadReference12signalEventsEmE8__func__:0000000000000000 $d
     /tmp/ccvPPVYB.s:5436   .rodata._ZZN10chibios_rt15ThreadReference13signalEventsIEmE8__func__:0000000000000000 $d
     /tmp/ccvPPVYB.s:5442   .rodata._ZZL11chSysUnlockvE8__func__:0000000000000000 $d
                     .debug_frame:0000000000000010 $d
                           .group:0000000000000000 _ZN10chibios_rt15ThreadReferenceC5EP9ch_thread
                           .group:0000000000000000 _ZN10chibios_rt15ThreadReferenceC5ERKS0_

UNDEFINED SYMBOLS
_dbg_check_lock
ARM GAS  /tmp/ccvPPVYB.s 			page 287


_dbg_check_unlock
chSysHalt
ch
chDbgCheckClassI
chSemObjectInit
chSemWait
chDbgCheckClassS
chSemWaitS
chSemWaitTimeoutS
chSemWaitTimeout
chSemResetI
chSemReset
chSemSignalI
chSchRescheduleS
chEvtRegisterMaskWithFlags
chIQGetTimeout
chOQPutTimeout
chThdTerminate
chThdWait
chMsgSend
chMsgRelease
chEvtSignal
chEvtSignalI
chThdSetPriority
chThdExit
chThdExitS
chThdSleep
chThdSleepUntil
chThdYield
chMsgWait
chEvtGetAndClearEvents
chEvtAddEvents
chEvtWaitOne
chEvtWaitAny
chEvtWaitAll
chEvtWaitOneTimeout
chEvtWaitAnyTimeout
chEvtWaitAllTimeout
chEvtDispatch
chMtxUnlock
chMtxUnlockS
chMtxUnlockAll
chSemSignal
chSemAddCounterI
chSemSignalWait
chMtxObjectInit
chMtxTryLock
chMtxTryLockS
chMtxLock
chMtxLockS
chCondObjectInit
chCondSignal
chCondSignalI
chCondBroadcast
chCondBroadcastI
chCondWait
chCondWaitS
ARM GAS  /tmp/ccvPPVYB.s 			page 288


chCondWaitTimeout
chEvtGetAndClearFlags
chEvtGetAndClearFlagsI
chEvtUnregister
chEvtBroadcastFlags
chEvtBroadcastFlagsI
chIQObjectInit
chIQResetI
chIQPutI
chIQReadTimeout
chOQObjectInit
chOQResetI
chOQGetI
chOQWriteTimeout
chPoolObjectInit
chPoolLoadArray
chPoolAllocI
chPoolAlloc
chPoolFree
chPoolFreeI
