ARM GAS  /tmp/ccvPPVYB.s 			page 1


   1              		.cpu cortex-m0
   2              		.eabi_attribute 20, 1
   3              		.eabi_attribute 21, 1
   4              		.eabi_attribute 23, 3
   5              		.eabi_attribute 24, 1
   6              		.eabi_attribute 25, 1
   7              		.eabi_attribute 26, 1
   8              		.eabi_attribute 30, 6
   9              		.eabi_attribute 34, 0
  10              		.eabi_attribute 18, 4
  11              		.file	"ch.cpp"
  12              		.text
  13              	.Ltext0:
  14              		.cfi_sections	.debug_frame
  15              		.section	.text._ZL9port_lockv,"ax",%progbits
  16              		.align	1
  17              		.p2align 4,,15
  18              		.syntax unified
  19              		.code	16
  20              		.thumb_func
  21              		.fpu softvfp
  22              		.type	_ZL9port_lockv, %function
  23              	_ZL9port_lockv:
  24              	.LFB38:
  25              		.file 1 "ChibiOS/os/rt/ports/ARMCMx/chcore_v6m.h"
  26              		.loc 1 330 0
  27              		.cfi_startproc
  28              		@ args = 0, pretend = 0, frame = 0
  29              		@ frame_needed = 0, uses_anonymous_args = 0
  30              		@ link register save eliminated.
  31              	.LBB6:
  32              	.LBB7:
  33              		.file 2 "ChibiOS/os/ext/CMSIS/include/core_cmFunc.h"
  34              		.loc 2 344 0
  35              		.syntax divided
  36              	@ 344 "ChibiOS/os/ext/CMSIS/include/core_cmFunc.h" 1
  37 0000 72B6     		cpsid i
  38              	@ 0 "" 2
  39              		.thumb
  40              		.syntax unified
  41              	.LBE7:
  42              	.LBE6:
  43              		.loc 1 333 0
  44 0002 C046     		nop
  45              		@ sp needed
  46 0004 7047     		bx	lr
  47              		.cfi_endproc
  48              	.LFE38:
  49              		.size	_ZL9port_lockv, .-_ZL9port_lockv
  50 0006 C046     		.section	.text._ZL11port_unlockv,"ax",%progbits
  51              		.align	1
  52              		.p2align 4,,15
  53              		.syntax unified
  54              		.code	16
  55              		.thumb_func
  56              		.fpu softvfp
  57              		.type	_ZL11port_unlockv, %function
ARM GAS  /tmp/ccvPPVYB.s 			page 2


  58              	_ZL11port_unlockv:
  59              	.LFB39:
  60              		.loc 1 339 0
  61              		.cfi_startproc
  62              		@ args = 0, pretend = 0, frame = 0
  63              		@ frame_needed = 0, uses_anonymous_args = 0
  64              		@ link register save eliminated.
  65              	.LBB8:
  66              	.LBB9:
  67              		.loc 2 333 0
  68              		.syntax divided
  69              	@ 333 "ChibiOS/os/ext/CMSIS/include/core_cmFunc.h" 1
  70 0000 62B6     		cpsie i
  71              	@ 0 "" 2
  72              		.thumb
  73              		.syntax unified
  74              	.LBE9:
  75              	.LBE8:
  76              		.loc 1 342 0
  77 0002 C046     		nop
  78              		@ sp needed
  79 0004 7047     		bx	lr
  80              		.cfi_endproc
  81              	.LFE39:
  82              		.size	_ZL11port_unlockv, .-_ZL11port_unlockv
  83 0006 C046     		.section	.text._ZL9chSysLockv,"ax",%progbits
  84              		.align	1
  85              		.p2align 4,,15
  86              		.syntax unified
  87              		.code	16
  88              		.thumb_func
  89              		.fpu softvfp
  90              		.type	_ZL9chSysLockv, %function
  91              	_ZL9chSysLockv:
  92              	.LFB77:
  93              		.file 3 "ChibiOS/os/rt/include/chsys.h"
  94              		.loc 3 346 0
  95              		.cfi_startproc
  96              		@ args = 0, pretend = 0, frame = 0
  97              		@ frame_needed = 0, uses_anonymous_args = 0
  98 0000 10B5     		push	{r4, lr}
  99              		.cfi_def_cfa_offset 8
 100              		.cfi_offset 4, -8
 101              		.cfi_offset 14, -4
 102              		.loc 3 348 0
 103 0002 FFF7FEFF 		bl	_ZL9port_lockv
 104              		.loc 3 350 0
 105 0006 FFF7FEFF 		bl	_dbg_check_lock
 106              		.loc 3 351 0
 107 000a C046     		nop
 108              		@ sp needed
 109 000c 10BD     		pop	{r4, pc}
 110              		.cfi_endproc
 111              	.LFE77:
 112              		.size	_ZL9chSysLockv, .-_ZL9chSysLockv
 113 000e C046     		.section	.text._ZL11chSysUnlockv,"ax",%progbits
 114              		.align	1
ARM GAS  /tmp/ccvPPVYB.s 			page 3


 115              		.p2align 4,,15
 116              		.syntax unified
 117              		.code	16
 118              		.thumb_func
 119              		.fpu softvfp
 120              		.type	_ZL11chSysUnlockv, %function
 121              	_ZL11chSysUnlockv:
 122              	.LFB78:
 123              		.loc 3 358 0
 124              		.cfi_startproc
 125              		@ args = 0, pretend = 0, frame = 0
 126              		@ frame_needed = 0, uses_anonymous_args = 0
 127 0000 10B5     		push	{r4, lr}
 128              		.cfi_def_cfa_offset 8
 129              		.cfi_offset 4, -8
 130              		.cfi_offset 14, -4
 131              		.loc 3 360 0
 132 0002 FFF7FEFF 		bl	_dbg_check_unlock
 133              		.loc 3 367 0
 134 0006 0A4B     		ldr	r3, .L6
 135 0008 1A68     		ldr	r2, [r3]
 136 000a 094B     		ldr	r3, .L6
 137 000c 9A42     		cmp	r2, r3
 138 000e 0BD0     		beq	.L5
 139              		.loc 3 367 0 is_stmt 0 discriminator 1
 140 0010 074B     		ldr	r3, .L6
 141 0012 9B69     		ldr	r3, [r3, #24]
 142 0014 9A68     		ldr	r2, [r3, #8]
 143 0016 064B     		ldr	r3, .L6
 144 0018 1B68     		ldr	r3, [r3]
 145 001a 9B68     		ldr	r3, [r3, #8]
 146 001c 9A42     		cmp	r2, r3
 147 001e 03D2     		bcs	.L5
 148              		.loc 3 367 0 discriminator 2
 149 0020 044B     		ldr	r3, .L6+4
 150 0022 1800     		movs	r0, r3
 151 0024 FFF7FEFF 		bl	chSysHalt
 152              	.L5:
 153              		.loc 3 371 0 is_stmt 1
 154 0028 FFF7FEFF 		bl	_ZL11port_unlockv
 155              		.loc 3 372 0
 156 002c C046     		nop
 157              		@ sp needed
 158 002e 10BD     		pop	{r4, pc}
 159              	.L7:
 160              		.align	2
 161              	.L6:
 162 0030 00000000 		.word	ch
 163 0034 00000000 		.word	_ZZL11chSysUnlockvE8__func__
 164              		.cfi_endproc
 165              	.LFE78:
 166              		.size	_ZL11chSysUnlockv, .-_ZL11chSysUnlockv
 167              		.section	.text._ZL13chThdGetSelfXv,"ax",%progbits
 168              		.align	1
 169              		.p2align 4,,15
 170              		.syntax unified
 171              		.code	16
ARM GAS  /tmp/ccvPPVYB.s 			page 4


 172              		.thumb_func
 173              		.fpu softvfp
 174              		.type	_ZL13chThdGetSelfXv, %function
 175              	_ZL13chThdGetSelfXv:
 176              	.LFB99:
 177              		.file 4 "ChibiOS/os/rt/include/chthreads.h"
 178              		.loc 4 174 0
 179              		.cfi_startproc
 180              		@ args = 0, pretend = 0, frame = 0
 181              		@ frame_needed = 0, uses_anonymous_args = 0
 182              		@ link register save eliminated.
 183              		.loc 4 176 0
 184 0000 014B     		ldr	r3, .L10
 185 0002 9B69     		ldr	r3, [r3, #24]
 186              		.loc 4 177 0
 187 0004 1800     		movs	r0, r3
 188              		@ sp needed
 189 0006 7047     		bx	lr
 190              	.L11:
 191              		.align	2
 192              	.L10:
 193 0008 00000000 		.word	ch
 194              		.cfi_endproc
 195              	.LFE99:
 196              		.size	_ZL13chThdGetSelfXv, .-_ZL13chThdGetSelfXv
 197              		.section	.text._ZL21chThdShouldTerminateXv,"ax",%progbits
 198              		.align	1
 199              		.p2align 4,,15
 200              		.syntax unified
 201              		.code	16
 202              		.thumb_func
 203              		.fpu softvfp
 204              		.type	_ZL21chThdShouldTerminateXv, %function
 205              	_ZL21chThdShouldTerminateXv:
 206              	.LFB102:
 207              		.loc 4 231 0
 208              		.cfi_startproc
 209              		@ args = 0, pretend = 0, frame = 0
 210              		@ frame_needed = 0, uses_anonymous_args = 0
 211 0000 10B5     		push	{r4, lr}
 212              		.cfi_def_cfa_offset 8
 213              		.cfi_offset 4, -8
 214              		.cfi_offset 14, -4
 215              		.loc 4 233 0
 216 0002 FFF7FEFF 		bl	_ZL13chThdGetSelfXv
 217 0006 0200     		movs	r2, r0
 218 0008 2123     		movs	r3, #33
 219 000a D35C     		ldrb	r3, [r2, r3]
 220 000c 1A00     		movs	r2, r3
 221 000e 0423     		movs	r3, #4
 222 0010 1340     		ands	r3, r2
 223 0012 5A1E     		subs	r2, r3, #1
 224 0014 9341     		sbcs	r3, r3, r2
 225 0016 DBB2     		uxtb	r3, r3
 226              		.loc 4 234 0
 227 0018 1800     		movs	r0, r3
 228              		@ sp needed
ARM GAS  /tmp/ccvPPVYB.s 			page 5


 229 001a 10BD     		pop	{r4, pc}
 230              		.cfi_endproc
 231              	.LFE102:
 232              		.size	_ZL21chThdShouldTerminateXv, .-_ZL21chThdShouldTerminateXv
 233              		.section	.text._ZL18chRegSetThreadNamePKc,"ax",%progbits
 234              		.align	1
 235              		.p2align 4,,15
 236              		.syntax unified
 237              		.code	16
 238              		.thumb_func
 239              		.fpu softvfp
 240              		.type	_ZL18chRegSetThreadNamePKc, %function
 241              	_ZL18chRegSetThreadNamePKc:
 242              	.LFB108:
 243              		.file 5 "ChibiOS/os/rt/include/chregistry.h"
 244              		.loc 5 132 0
 245              		.cfi_startproc
 246              		@ args = 0, pretend = 0, frame = 8
 247              		@ frame_needed = 0, uses_anonymous_args = 0
 248              		@ link register save eliminated.
 249 0000 82B0     		sub	sp, sp, #8
 250              		.cfi_def_cfa_offset 8
 251 0002 0190     		str	r0, [sp, #4]
 252              		.loc 5 135 0
 253 0004 034B     		ldr	r3, .L15
 254 0006 9B69     		ldr	r3, [r3, #24]
 255 0008 019A     		ldr	r2, [sp, #4]
 256 000a 9A61     		str	r2, [r3, #24]
 257              		.loc 5 139 0
 258 000c C046     		nop
 259 000e 02B0     		add	sp, sp, #8
 260              		@ sp needed
 261 0010 7047     		bx	lr
 262              	.L16:
 263 0012 C046     		.align	2
 264              	.L15:
 265 0014 00000000 		.word	ch
 266              		.cfi_endproc
 267              	.LFE108:
 268              		.size	_ZL18chRegSetThreadNamePKc, .-_ZL18chRegSetThreadNamePKc
 269              		.section	.text._ZL16chSemGetCounterIP12ch_semaphore,"ax",%progbits
 270              		.align	1
 271              		.p2align 4,,15
 272              		.syntax unified
 273              		.code	16
 274              		.thumb_func
 275              		.fpu softvfp
 276              		.type	_ZL16chSemGetCounterIP12ch_semaphore, %function
 277              	_ZL16chSemGetCounterIP12ch_semaphore:
 278              	.LFB113:
 279              		.file 6 "ChibiOS/os/rt/include/chsem.h"
 280              		.loc 6 149 0
 281              		.cfi_startproc
 282              		@ args = 0, pretend = 0, frame = 8
 283              		@ frame_needed = 0, uses_anonymous_args = 0
 284 0000 00B5     		push	{lr}
 285              		.cfi_def_cfa_offset 4
ARM GAS  /tmp/ccvPPVYB.s 			page 6


 286              		.cfi_offset 14, -4
 287 0002 83B0     		sub	sp, sp, #12
 288              		.cfi_def_cfa_offset 16
 289 0004 0190     		str	r0, [sp, #4]
 290              		.loc 6 151 0
 291 0006 FFF7FEFF 		bl	chDbgCheckClassI
 292              		.loc 6 153 0
 293 000a 019B     		ldr	r3, [sp, #4]
 294 000c 9B68     		ldr	r3, [r3, #8]
 295              		.loc 6 154 0
 296 000e 1800     		movs	r0, r3
 297 0010 03B0     		add	sp, sp, #12
 298              		@ sp needed
 299 0012 00BD     		pop	{pc}
 300              		.cfi_endproc
 301              	.LFE113:
 302              		.size	_ZL16chSemGetCounterIP12ch_semaphore, .-_ZL16chSemGetCounterIP12ch_semaphore
 303              		.section	.text._ZL16chBSemObjectInitP18binary_semaphore_tb,"ax",%progbits
 304              		.align	1
 305              		.p2align 4,,15
 306              		.syntax unified
 307              		.code	16
 308              		.thumb_func
 309              		.fpu softvfp
 310              		.type	_ZL16chBSemObjectInitP18binary_semaphore_tb, %function
 311              	_ZL16chBSemObjectInitP18binary_semaphore_tb:
 312              	.LFB114:
 313              		.file 7 "ChibiOS/os/rt/include/chbsem.h"
 314              		.loc 7 124 0
 315              		.cfi_startproc
 316              		@ args = 0, pretend = 0, frame = 8
 317              		@ frame_needed = 0, uses_anonymous_args = 0
 318 0000 00B5     		push	{lr}
 319              		.cfi_def_cfa_offset 4
 320              		.cfi_offset 14, -4
 321 0002 83B0     		sub	sp, sp, #12
 322              		.cfi_def_cfa_offset 16
 323 0004 0190     		str	r0, [sp, #4]
 324 0006 0A00     		movs	r2, r1
 325 0008 6B46     		mov	r3, sp
 326 000a 0333     		adds	r3, r3, #3
 327 000c 1A70     		strb	r2, [r3]
 328              		.loc 7 126 0
 329 000e 019A     		ldr	r2, [sp, #4]
 330 0010 6B46     		mov	r3, sp
 331 0012 0333     		adds	r3, r3, #3
 332 0014 1B78     		ldrb	r3, [r3]
 333 0016 002B     		cmp	r3, #0
 334 0018 01D0     		beq	.L20
 335              		.loc 7 126 0 is_stmt 0 discriminator 1
 336 001a 0023     		movs	r3, #0
 337 001c 00E0     		b	.L21
 338              	.L20:
 339              		.loc 7 126 0 discriminator 2
 340 001e 0123     		movs	r3, #1
 341              	.L21:
 342              		.loc 7 126 0 discriminator 4
ARM GAS  /tmp/ccvPPVYB.s 			page 7


 343 0020 1900     		movs	r1, r3
 344 0022 1000     		movs	r0, r2
 345 0024 FFF7FEFF 		bl	chSemObjectInit
 346              		.loc 7 127 0 is_stmt 1 discriminator 4
 347 0028 C046     		nop
 348 002a 03B0     		add	sp, sp, #12
 349              		@ sp needed
 350 002c 00BD     		pop	{pc}
 351              		.cfi_endproc
 352              	.LFE114:
 353              		.size	_ZL16chBSemObjectInitP18binary_semaphore_tb, .-_ZL16chBSemObjectInitP18binary_semaphore_tb
 354 002e C046     		.section	.text._ZL10chBSemWaitP18binary_semaphore_t,"ax",%progbits
 355              		.align	1
 356              		.p2align 4,,15
 357              		.syntax unified
 358              		.code	16
 359              		.thumb_func
 360              		.fpu softvfp
 361              		.type	_ZL10chBSemWaitP18binary_semaphore_t, %function
 362              	_ZL10chBSemWaitP18binary_semaphore_t:
 363              	.LFB115:
 364              		.loc 7 141 0
 365              		.cfi_startproc
 366              		@ args = 0, pretend = 0, frame = 8
 367              		@ frame_needed = 0, uses_anonymous_args = 0
 368 0000 00B5     		push	{lr}
 369              		.cfi_def_cfa_offset 4
 370              		.cfi_offset 14, -4
 371 0002 83B0     		sub	sp, sp, #12
 372              		.cfi_def_cfa_offset 16
 373 0004 0190     		str	r0, [sp, #4]
 374              		.loc 7 143 0
 375 0006 019B     		ldr	r3, [sp, #4]
 376 0008 1800     		movs	r0, r3
 377 000a FFF7FEFF 		bl	chSemWait
 378 000e 0300     		movs	r3, r0
 379              		.loc 7 144 0
 380 0010 1800     		movs	r0, r3
 381 0012 03B0     		add	sp, sp, #12
 382              		@ sp needed
 383 0014 00BD     		pop	{pc}
 384              		.cfi_endproc
 385              	.LFE115:
 386              		.size	_ZL10chBSemWaitP18binary_semaphore_t, .-_ZL10chBSemWaitP18binary_semaphore_t
 387 0016 C046     		.section	.text._ZL11chBSemWaitSP18binary_semaphore_t,"ax",%progbits
 388              		.align	1
 389              		.p2align 4,,15
 390              		.syntax unified
 391              		.code	16
 392              		.thumb_func
 393              		.fpu softvfp
 394              		.type	_ZL11chBSemWaitSP18binary_semaphore_t, %function
 395              	_ZL11chBSemWaitSP18binary_semaphore_t:
 396              	.LFB116:
 397              		.loc 7 158 0
 398              		.cfi_startproc
 399              		@ args = 0, pretend = 0, frame = 8
ARM GAS  /tmp/ccvPPVYB.s 			page 8


 400              		@ frame_needed = 0, uses_anonymous_args = 0
 401 0000 00B5     		push	{lr}
 402              		.cfi_def_cfa_offset 4
 403              		.cfi_offset 14, -4
 404 0002 83B0     		sub	sp, sp, #12
 405              		.cfi_def_cfa_offset 16
 406 0004 0190     		str	r0, [sp, #4]
 407              		.loc 7 160 0
 408 0006 FFF7FEFF 		bl	chDbgCheckClassS
 409              		.loc 7 162 0
 410 000a 019B     		ldr	r3, [sp, #4]
 411 000c 1800     		movs	r0, r3
 412 000e FFF7FEFF 		bl	chSemWaitS
 413 0012 0300     		movs	r3, r0
 414              		.loc 7 163 0
 415 0014 1800     		movs	r0, r3
 416 0016 03B0     		add	sp, sp, #12
 417              		@ sp needed
 418 0018 00BD     		pop	{pc}
 419              		.cfi_endproc
 420              	.LFE116:
 421              		.size	_ZL11chBSemWaitSP18binary_semaphore_t, .-_ZL11chBSemWaitSP18binary_semaphore_t
 422 001a C046     		.section	.text._ZL18chBSemWaitTimeoutSP18binary_semaphore_tt,"ax",%progbits
 423              		.align	1
 424              		.p2align 4,,15
 425              		.syntax unified
 426              		.code	16
 427              		.thumb_func
 428              		.fpu softvfp
 429              		.type	_ZL18chBSemWaitTimeoutSP18binary_semaphore_tt, %function
 430              	_ZL18chBSemWaitTimeoutSP18binary_semaphore_tt:
 431              	.LFB117:
 432              		.loc 7 185 0
 433              		.cfi_startproc
 434              		@ args = 0, pretend = 0, frame = 8
 435              		@ frame_needed = 0, uses_anonymous_args = 0
 436 0000 00B5     		push	{lr}
 437              		.cfi_def_cfa_offset 4
 438              		.cfi_offset 14, -4
 439 0002 83B0     		sub	sp, sp, #12
 440              		.cfi_def_cfa_offset 16
 441 0004 0190     		str	r0, [sp, #4]
 442 0006 0A00     		movs	r2, r1
 443 0008 6B46     		mov	r3, sp
 444 000a 0233     		adds	r3, r3, #2
 445 000c 1A80     		strh	r2, [r3]
 446              		.loc 7 187 0
 447 000e FFF7FEFF 		bl	chDbgCheckClassS
 448              		.loc 7 189 0
 449 0012 019A     		ldr	r2, [sp, #4]
 450 0014 6B46     		mov	r3, sp
 451 0016 0233     		adds	r3, r3, #2
 452 0018 1B88     		ldrh	r3, [r3]
 453 001a 1900     		movs	r1, r3
 454 001c 1000     		movs	r0, r2
 455 001e FFF7FEFF 		bl	chSemWaitTimeoutS
 456 0022 0300     		movs	r3, r0
ARM GAS  /tmp/ccvPPVYB.s 			page 9


 457              		.loc 7 190 0
 458 0024 1800     		movs	r0, r3
 459 0026 03B0     		add	sp, sp, #12
 460              		@ sp needed
 461 0028 00BD     		pop	{pc}
 462              		.cfi_endproc
 463              	.LFE117:
 464              		.size	_ZL18chBSemWaitTimeoutSP18binary_semaphore_tt, .-_ZL18chBSemWaitTimeoutSP18binary_semaphore_
 465 002a C046     		.section	.text._ZL17chBSemWaitTimeoutP18binary_semaphore_tt,"ax",%progbits
 466              		.align	1
 467              		.p2align 4,,15
 468              		.syntax unified
 469              		.code	16
 470              		.thumb_func
 471              		.fpu softvfp
 472              		.type	_ZL17chBSemWaitTimeoutP18binary_semaphore_tt, %function
 473              	_ZL17chBSemWaitTimeoutP18binary_semaphore_tt:
 474              	.LFB118:
 475              		.loc 7 212 0
 476              		.cfi_startproc
 477              		@ args = 0, pretend = 0, frame = 8
 478              		@ frame_needed = 0, uses_anonymous_args = 0
 479 0000 00B5     		push	{lr}
 480              		.cfi_def_cfa_offset 4
 481              		.cfi_offset 14, -4
 482 0002 83B0     		sub	sp, sp, #12
 483              		.cfi_def_cfa_offset 16
 484 0004 0190     		str	r0, [sp, #4]
 485 0006 0A00     		movs	r2, r1
 486 0008 6B46     		mov	r3, sp
 487 000a 0233     		adds	r3, r3, #2
 488 000c 1A80     		strh	r2, [r3]
 489              		.loc 7 214 0
 490 000e 019A     		ldr	r2, [sp, #4]
 491 0010 6B46     		mov	r3, sp
 492 0012 0233     		adds	r3, r3, #2
 493 0014 1B88     		ldrh	r3, [r3]
 494 0016 1900     		movs	r1, r3
 495 0018 1000     		movs	r0, r2
 496 001a FFF7FEFF 		bl	chSemWaitTimeout
 497 001e 0300     		movs	r3, r0
 498              		.loc 7 215 0
 499 0020 1800     		movs	r0, r3
 500 0022 03B0     		add	sp, sp, #12
 501              		@ sp needed
 502 0024 00BD     		pop	{pc}
 503              		.cfi_endproc
 504              	.LFE118:
 505              		.size	_ZL17chBSemWaitTimeoutP18binary_semaphore_tt, .-_ZL17chBSemWaitTimeoutP18binary_semaphore_tt
 506 0026 C046     		.section	.text._ZL12chBSemResetIP18binary_semaphore_tb,"ax",%progbits
 507              		.align	1
 508              		.p2align 4,,15
 509              		.syntax unified
 510              		.code	16
 511              		.thumb_func
 512              		.fpu softvfp
 513              		.type	_ZL12chBSemResetIP18binary_semaphore_tb, %function
ARM GAS  /tmp/ccvPPVYB.s 			page 10


 514              	_ZL12chBSemResetIP18binary_semaphore_tb:
 515              	.LFB119:
 516              		.loc 7 232 0
 517              		.cfi_startproc
 518              		@ args = 0, pretend = 0, frame = 8
 519              		@ frame_needed = 0, uses_anonymous_args = 0
 520 0000 00B5     		push	{lr}
 521              		.cfi_def_cfa_offset 4
 522              		.cfi_offset 14, -4
 523 0002 83B0     		sub	sp, sp, #12
 524              		.cfi_def_cfa_offset 16
 525 0004 0190     		str	r0, [sp, #4]
 526 0006 0A00     		movs	r2, r1
 527 0008 6B46     		mov	r3, sp
 528 000a 0333     		adds	r3, r3, #3
 529 000c 1A70     		strb	r2, [r3]
 530              		.loc 7 234 0
 531 000e FFF7FEFF 		bl	chDbgCheckClassI
 532              		.loc 7 236 0
 533 0012 019A     		ldr	r2, [sp, #4]
 534 0014 6B46     		mov	r3, sp
 535 0016 0333     		adds	r3, r3, #3
 536 0018 1B78     		ldrb	r3, [r3]
 537 001a 002B     		cmp	r3, #0
 538 001c 01D0     		beq	.L31
 539              		.loc 7 236 0 is_stmt 0 discriminator 1
 540 001e 0023     		movs	r3, #0
 541 0020 00E0     		b	.L32
 542              	.L31:
 543              		.loc 7 236 0 discriminator 2
 544 0022 0123     		movs	r3, #1
 545              	.L32:
 546              		.loc 7 236 0 discriminator 4
 547 0024 1900     		movs	r1, r3
 548 0026 1000     		movs	r0, r2
 549 0028 FFF7FEFF 		bl	chSemResetI
 550              		.loc 7 237 0 is_stmt 1 discriminator 4
 551 002c C046     		nop
 552 002e 03B0     		add	sp, sp, #12
 553              		@ sp needed
 554 0030 00BD     		pop	{pc}
 555              		.cfi_endproc
 556              	.LFE119:
 557              		.size	_ZL12chBSemResetIP18binary_semaphore_tb, .-_ZL12chBSemResetIP18binary_semaphore_tb
 558 0032 C046     		.section	.text._ZL11chBSemResetP18binary_semaphore_tb,"ax",%progbits
 559              		.align	1
 560              		.p2align 4,,15
 561              		.syntax unified
 562              		.code	16
 563              		.thumb_func
 564              		.fpu softvfp
 565              		.type	_ZL11chBSemResetP18binary_semaphore_tb, %function
 566              	_ZL11chBSemResetP18binary_semaphore_tb:
 567              	.LFB120:
 568              		.loc 7 253 0
 569              		.cfi_startproc
 570              		@ args = 0, pretend = 0, frame = 8
ARM GAS  /tmp/ccvPPVYB.s 			page 11


 571              		@ frame_needed = 0, uses_anonymous_args = 0
 572 0000 00B5     		push	{lr}
 573              		.cfi_def_cfa_offset 4
 574              		.cfi_offset 14, -4
 575 0002 83B0     		sub	sp, sp, #12
 576              		.cfi_def_cfa_offset 16
 577 0004 0190     		str	r0, [sp, #4]
 578 0006 0A00     		movs	r2, r1
 579 0008 6B46     		mov	r3, sp
 580 000a 0333     		adds	r3, r3, #3
 581 000c 1A70     		strb	r2, [r3]
 582              		.loc 7 255 0
 583 000e 019A     		ldr	r2, [sp, #4]
 584 0010 6B46     		mov	r3, sp
 585 0012 0333     		adds	r3, r3, #3
 586 0014 1B78     		ldrb	r3, [r3]
 587 0016 002B     		cmp	r3, #0
 588 0018 01D0     		beq	.L34
 589              		.loc 7 255 0 is_stmt 0 discriminator 1
 590 001a 0023     		movs	r3, #0
 591 001c 00E0     		b	.L35
 592              	.L34:
 593              		.loc 7 255 0 discriminator 2
 594 001e 0123     		movs	r3, #1
 595              	.L35:
 596              		.loc 7 255 0 discriminator 4
 597 0020 1900     		movs	r1, r3
 598 0022 1000     		movs	r0, r2
 599 0024 FFF7FEFF 		bl	chSemReset
 600              		.loc 7 256 0 is_stmt 1 discriminator 4
 601 0028 C046     		nop
 602 002a 03B0     		add	sp, sp, #12
 603              		@ sp needed
 604 002c 00BD     		pop	{pc}
 605              		.cfi_endproc
 606              	.LFE120:
 607              		.size	_ZL11chBSemResetP18binary_semaphore_tb, .-_ZL11chBSemResetP18binary_semaphore_tb
 608 002e C046     		.section	.text._ZL13chBSemSignalIP18binary_semaphore_t,"ax",%progbits
 609              		.align	1
 610              		.p2align 4,,15
 611              		.syntax unified
 612              		.code	16
 613              		.thumb_func
 614              		.fpu softvfp
 615              		.type	_ZL13chBSemSignalIP18binary_semaphore_t, %function
 616              	_ZL13chBSemSignalIP18binary_semaphore_t:
 617              	.LFB121:
 618              		.loc 7 266 0
 619              		.cfi_startproc
 620              		@ args = 0, pretend = 0, frame = 8
 621              		@ frame_needed = 0, uses_anonymous_args = 0
 622 0000 00B5     		push	{lr}
 623              		.cfi_def_cfa_offset 4
 624              		.cfi_offset 14, -4
 625 0002 83B0     		sub	sp, sp, #12
 626              		.cfi_def_cfa_offset 16
 627 0004 0190     		str	r0, [sp, #4]
ARM GAS  /tmp/ccvPPVYB.s 			page 12


 628              		.loc 7 268 0
 629 0006 FFF7FEFF 		bl	chDbgCheckClassI
 630              		.loc 7 270 0
 631 000a 019B     		ldr	r3, [sp, #4]
 632 000c 9B68     		ldr	r3, [r3, #8]
 633 000e 002B     		cmp	r3, #0
 634 0010 03DC     		bgt	.L38
 635              		.loc 7 271 0
 636 0012 019B     		ldr	r3, [sp, #4]
 637 0014 1800     		movs	r0, r3
 638 0016 FFF7FEFF 		bl	chSemSignalI
 639              	.L38:
 640              		.loc 7 273 0
 641 001a C046     		nop
 642 001c 03B0     		add	sp, sp, #12
 643              		@ sp needed
 644 001e 00BD     		pop	{pc}
 645              		.cfi_endproc
 646              	.LFE121:
 647              		.size	_ZL13chBSemSignalIP18binary_semaphore_t, .-_ZL13chBSemSignalIP18binary_semaphore_t
 648              		.section	.text._ZL12chBSemSignalP18binary_semaphore_t,"ax",%progbits
 649              		.align	1
 650              		.p2align 4,,15
 651              		.syntax unified
 652              		.code	16
 653              		.thumb_func
 654              		.fpu softvfp
 655              		.type	_ZL12chBSemSignalP18binary_semaphore_t, %function
 656              	_ZL12chBSemSignalP18binary_semaphore_t:
 657              	.LFB122:
 658              		.loc 7 282 0
 659              		.cfi_startproc
 660              		@ args = 0, pretend = 0, frame = 8
 661              		@ frame_needed = 0, uses_anonymous_args = 0
 662 0000 00B5     		push	{lr}
 663              		.cfi_def_cfa_offset 4
 664              		.cfi_offset 14, -4
 665 0002 83B0     		sub	sp, sp, #12
 666              		.cfi_def_cfa_offset 16
 667 0004 0190     		str	r0, [sp, #4]
 668              		.loc 7 284 0
 669 0006 FFF7FEFF 		bl	_ZL9chSysLockv
 670              		.loc 7 285 0
 671 000a 019B     		ldr	r3, [sp, #4]
 672 000c 1800     		movs	r0, r3
 673 000e FFF7FEFF 		bl	_ZL13chBSemSignalIP18binary_semaphore_t
 674              		.loc 7 286 0
 675 0012 FFF7FEFF 		bl	chSchRescheduleS
 676              		.loc 7 287 0
 677 0016 FFF7FEFF 		bl	_ZL11chSysUnlockv
 678              		.loc 7 288 0
 679 001a C046     		nop
 680 001c 03B0     		add	sp, sp, #12
 681              		@ sp needed
 682 001e 00BD     		pop	{pc}
 683              		.cfi_endproc
 684              	.LFE122:
ARM GAS  /tmp/ccvPPVYB.s 			page 13


 685              		.size	_ZL12chBSemSignalP18binary_semaphore_t, .-_ZL12chBSemSignalP18binary_semaphore_t
 686              		.section	.text._ZL15chBSemGetStateIP18binary_semaphore_t,"ax",%progbits
 687              		.align	1
 688              		.p2align 4,,15
 689              		.syntax unified
 690              		.code	16
 691              		.thumb_func
 692              		.fpu softvfp
 693              		.type	_ZL15chBSemGetStateIP18binary_semaphore_t, %function
 694              	_ZL15chBSemGetStateIP18binary_semaphore_t:
 695              	.LFB123:
 696              		.loc 7 300 0
 697              		.cfi_startproc
 698              		@ args = 0, pretend = 0, frame = 8
 699              		@ frame_needed = 0, uses_anonymous_args = 0
 700 0000 00B5     		push	{lr}
 701              		.cfi_def_cfa_offset 4
 702              		.cfi_offset 14, -4
 703 0002 83B0     		sub	sp, sp, #12
 704              		.cfi_def_cfa_offset 16
 705 0004 0190     		str	r0, [sp, #4]
 706              		.loc 7 302 0
 707 0006 FFF7FEFF 		bl	chDbgCheckClassI
 708              		.loc 7 304 0
 709 000a 019B     		ldr	r3, [sp, #4]
 710 000c 9B68     		ldr	r3, [r3, #8]
 711 000e 5A1E     		subs	r2, r3, #1
 712 0010 1343     		orrs	r3, r2
 713 0012 DB0F     		lsrs	r3, r3, #31
 714 0014 DBB2     		uxtb	r3, r3
 715              		.loc 7 305 0
 716 0016 1800     		movs	r0, r3
 717 0018 03B0     		add	sp, sp, #12
 718              		@ sp needed
 719 001a 00BD     		pop	{pc}
 720              		.cfi_endproc
 721              	.LFE123:
 722              		.size	_ZL15chBSemGetStateIP18binary_semaphore_t, .-_ZL15chBSemGetStateIP18binary_semaphore_t
 723              		.section	.text._ZL15chEvtObjectInitP12event_source,"ax",%progbits
 724              		.align	1
 725              		.p2align 4,,15
 726              		.syntax unified
 727              		.code	16
 728              		.thumb_func
 729              		.fpu softvfp
 730              		.type	_ZL15chEvtObjectInitP12event_source, %function
 731              	_ZL15chEvtObjectInitP12event_source:
 732              	.LFB126:
 733              		.file 8 "ChibiOS/os/rt/include/chevents.h"
 734              		.loc 8 170 0
 735              		.cfi_startproc
 736              		@ args = 0, pretend = 0, frame = 8
 737              		@ frame_needed = 0, uses_anonymous_args = 0
 738              		@ link register save eliminated.
 739 0000 82B0     		sub	sp, sp, #8
 740              		.cfi_def_cfa_offset 8
 741 0002 0190     		str	r0, [sp, #4]
ARM GAS  /tmp/ccvPPVYB.s 			page 14


 742              		.loc 8 172 0
 743 0004 019B     		ldr	r3, [sp, #4]
 744 0006 019A     		ldr	r2, [sp, #4]
 745 0008 1A60     		str	r2, [r3]
 746              		.loc 8 173 0
 747 000a C046     		nop
 748 000c 02B0     		add	sp, sp, #8
 749              		@ sp needed
 750 000e 7047     		bx	lr
 751              		.cfi_endproc
 752              	.LFE126:
 753              		.size	_ZL15chEvtObjectInitP12event_source, .-_ZL15chEvtObjectInitP12event_source
 754              		.section	.text._ZL17chEvtRegisterMaskP12event_sourceP14event_listenerm,"ax",%progbits
 755              		.align	1
 756              		.p2align 4,,15
 757              		.syntax unified
 758              		.code	16
 759              		.thumb_func
 760              		.fpu softvfp
 761              		.type	_ZL17chEvtRegisterMaskP12event_sourceP14event_listenerm, %function
 762              	_ZL17chEvtRegisterMaskP12event_sourceP14event_listenerm:
 763              	.LFB127:
 764              		.loc 8 191 0
 765              		.cfi_startproc
 766              		@ args = 0, pretend = 0, frame = 16
 767              		@ frame_needed = 0, uses_anonymous_args = 0
 768 0000 00B5     		push	{lr}
 769              		.cfi_def_cfa_offset 4
 770              		.cfi_offset 14, -4
 771 0002 85B0     		sub	sp, sp, #20
 772              		.cfi_def_cfa_offset 24
 773 0004 0390     		str	r0, [sp, #12]
 774 0006 0291     		str	r1, [sp, #8]
 775 0008 0192     		str	r2, [sp, #4]
 776              		.loc 8 193 0
 777 000a 0123     		movs	r3, #1
 778 000c 5B42     		rsbs	r3, r3, #0
 779 000e 019A     		ldr	r2, [sp, #4]
 780 0010 0299     		ldr	r1, [sp, #8]
 781 0012 0398     		ldr	r0, [sp, #12]
 782 0014 FFF7FEFF 		bl	chEvtRegisterMaskWithFlags
 783              		.loc 8 194 0
 784 0018 C046     		nop
 785 001a 05B0     		add	sp, sp, #20
 786              		@ sp needed
 787 001c 00BD     		pop	{pc}
 788              		.cfi_endproc
 789              	.LFE127:
 790              		.size	_ZL17chEvtRegisterMaskP12event_sourceP14event_listenerm, .-_ZL17chEvtRegisterMaskP12event_so
 791 001e C046     		.section	.text._ZL13chEvtRegisterP12event_sourceP14event_listenerl,"ax",%progbits
 792              		.align	1
 793              		.p2align 4,,15
 794              		.syntax unified
 795              		.code	16
 796              		.thumb_func
 797              		.fpu softvfp
 798              		.type	_ZL13chEvtRegisterP12event_sourceP14event_listenerl, %function
ARM GAS  /tmp/ccvPPVYB.s 			page 15


 799              	_ZL13chEvtRegisterP12event_sourceP14event_listenerl:
 800              	.LFB128:
 801              		.loc 8 211 0
 802              		.cfi_startproc
 803              		@ args = 0, pretend = 0, frame = 16
 804              		@ frame_needed = 0, uses_anonymous_args = 0
 805 0000 00B5     		push	{lr}
 806              		.cfi_def_cfa_offset 4
 807              		.cfi_offset 14, -4
 808 0002 85B0     		sub	sp, sp, #20
 809              		.cfi_def_cfa_offset 24
 810 0004 0390     		str	r0, [sp, #12]
 811 0006 0291     		str	r1, [sp, #8]
 812 0008 0192     		str	r2, [sp, #4]
 813              		.loc 8 213 0
 814 000a 019B     		ldr	r3, [sp, #4]
 815 000c 1A00     		movs	r2, r3
 816 000e 0123     		movs	r3, #1
 817 0010 9340     		lsls	r3, r3, r2
 818 0012 1A00     		movs	r2, r3
 819 0014 0299     		ldr	r1, [sp, #8]
 820 0016 039B     		ldr	r3, [sp, #12]
 821 0018 1800     		movs	r0, r3
 822 001a FFF7FEFF 		bl	_ZL17chEvtRegisterMaskP12event_sourceP14event_listenerm
 823              		.loc 8 214 0
 824 001e C046     		nop
 825 0020 05B0     		add	sp, sp, #20
 826              		@ sp needed
 827 0022 00BD     		pop	{pc}
 828              		.cfi_endproc
 829              	.LFE128:
 830              		.size	_ZL13chEvtRegisterP12event_sourceP14event_listenerl, .-_ZL13chEvtRegisterP12event_sourceP14e
 831              		.section	.text._ZL15chMsgIsPendingIP9ch_thread,"ax",%progbits
 832              		.align	1
 833              		.p2align 4,,15
 834              		.syntax unified
 835              		.code	16
 836              		.thumb_func
 837              		.fpu softvfp
 838              		.type	_ZL15chMsgIsPendingIP9ch_thread, %function
 839              	_ZL15chMsgIsPendingIP9ch_thread:
 840              	.LFB132:
 841              		.file 9 "ChibiOS/os/rt/include/chmsg.h"
 842              		.loc 9 79 0
 843              		.cfi_startproc
 844              		@ args = 0, pretend = 0, frame = 8
 845              		@ frame_needed = 0, uses_anonymous_args = 0
 846 0000 00B5     		push	{lr}
 847              		.cfi_def_cfa_offset 4
 848              		.cfi_offset 14, -4
 849 0002 83B0     		sub	sp, sp, #12
 850              		.cfi_def_cfa_offset 16
 851 0004 0190     		str	r0, [sp, #4]
 852              		.loc 9 81 0
 853 0006 FFF7FEFF 		bl	chDbgCheckClassI
 854              		.loc 9 83 0
 855 000a 019B     		ldr	r3, [sp, #4]
ARM GAS  /tmp/ccvPPVYB.s 			page 16


 856 000c DA6A     		ldr	r2, [r3, #44]
 857 000e 019B     		ldr	r3, [sp, #4]
 858 0010 2C33     		adds	r3, r3, #44
 859 0012 D31A     		subs	r3, r2, r3
 860 0014 5A1E     		subs	r2, r3, #1
 861 0016 9341     		sbcs	r3, r3, r2
 862 0018 DBB2     		uxtb	r3, r3
 863              		.loc 9 84 0
 864 001a 1800     		movs	r0, r3
 865 001c 03B0     		add	sp, sp, #12
 866              		@ sp needed
 867 001e 00BD     		pop	{pc}
 868              		.cfi_endproc
 869              	.LFE132:
 870              		.size	_ZL15chMsgIsPendingIP9ch_thread, .-_ZL15chMsgIsPendingIP9ch_thread
 871              		.section	.text._ZL8chMsgGetP9ch_thread,"ax",%progbits
 872              		.align	1
 873              		.p2align 4,,15
 874              		.syntax unified
 875              		.code	16
 876              		.thumb_func
 877              		.fpu softvfp
 878              		.type	_ZL8chMsgGetP9ch_thread, %function
 879              	_ZL8chMsgGetP9ch_thread:
 880              	.LFB133:
 881              		.loc 9 96 0
 882              		.cfi_startproc
 883              		@ args = 0, pretend = 0, frame = 8
 884              		@ frame_needed = 0, uses_anonymous_args = 0
 885              		@ link register save eliminated.
 886 0000 82B0     		sub	sp, sp, #8
 887              		.cfi_def_cfa_offset 8
 888 0002 0190     		str	r0, [sp, #4]
 889              		.loc 9 98 0
 890 0004 019B     		ldr	r3, [sp, #4]
 891 0006 5B6B     		ldr	r3, [r3, #52]
 892              		.loc 9 99 0
 893 0008 1800     		movs	r0, r3
 894 000a 02B0     		add	sp, sp, #8
 895              		@ sp needed
 896 000c 7047     		bx	lr
 897              		.cfi_endproc
 898              	.LFE133:
 899              		.size	_ZL8chMsgGetP9ch_thread, .-_ZL8chMsgGetP9ch_thread
 900 000e C046     		.section	.text._ZL12chIQGetFullIP8io_queue,"ax",%progbits
 901              		.align	1
 902              		.p2align 4,,15
 903              		.syntax unified
 904              		.code	16
 905              		.thumb_func
 906              		.fpu softvfp
 907              		.type	_ZL12chIQGetFullIP8io_queue, %function
 908              	_ZL12chIQGetFullIP8io_queue:
 909              	.LFB142:
 910              		.file 10 "ChibiOS/os/rt/include/chqueues.h"
 911              		.loc 10 270 0
 912              		.cfi_startproc
ARM GAS  /tmp/ccvPPVYB.s 			page 17


 913              		@ args = 0, pretend = 0, frame = 8
 914              		@ frame_needed = 0, uses_anonymous_args = 0
 915 0000 00B5     		push	{lr}
 916              		.cfi_def_cfa_offset 4
 917              		.cfi_offset 14, -4
 918 0002 83B0     		sub	sp, sp, #12
 919              		.cfi_def_cfa_offset 16
 920 0004 0190     		str	r0, [sp, #4]
 921              		.loc 10 272 0
 922 0006 FFF7FEFF 		bl	chDbgCheckClassI
 923              		.loc 10 274 0
 924 000a 019B     		ldr	r3, [sp, #4]
 925 000c 9B68     		ldr	r3, [r3, #8]
 926              		.loc 10 275 0
 927 000e 1800     		movs	r0, r3
 928 0010 03B0     		add	sp, sp, #12
 929              		@ sp needed
 930 0012 00BD     		pop	{pc}
 931              		.cfi_endproc
 932              	.LFE142:
 933              		.size	_ZL12chIQGetFullIP8io_queue, .-_ZL12chIQGetFullIP8io_queue
 934              		.section	.text._ZL13chIQGetEmptyIP8io_queue,"ax",%progbits
 935              		.align	1
 936              		.p2align 4,,15
 937              		.syntax unified
 938              		.code	16
 939              		.thumb_func
 940              		.fpu softvfp
 941              		.type	_ZL13chIQGetEmptyIP8io_queue, %function
 942              	_ZL13chIQGetEmptyIP8io_queue:
 943              	.LFB143:
 944              		.loc 10 286 0
 945              		.cfi_startproc
 946              		@ args = 0, pretend = 0, frame = 8
 947              		@ frame_needed = 0, uses_anonymous_args = 0
 948 0000 00B5     		push	{lr}
 949              		.cfi_def_cfa_offset 4
 950              		.cfi_offset 14, -4
 951 0002 83B0     		sub	sp, sp, #12
 952              		.cfi_def_cfa_offset 16
 953 0004 0190     		str	r0, [sp, #4]
 954              		.loc 10 288 0
 955 0006 FFF7FEFF 		bl	chDbgCheckClassI
 956              		.loc 10 290 0
 957 000a 019B     		ldr	r3, [sp, #4]
 958 000c 1B69     		ldr	r3, [r3, #16]
 959 000e 1A00     		movs	r2, r3
 960 0010 019B     		ldr	r3, [sp, #4]
 961 0012 DB68     		ldr	r3, [r3, #12]
 962 0014 D31A     		subs	r3, r2, r3
 963 0016 1A00     		movs	r2, r3
 964 0018 019B     		ldr	r3, [sp, #4]
 965 001a 9B68     		ldr	r3, [r3, #8]
 966 001c D31A     		subs	r3, r2, r3
 967              		.loc 10 291 0
 968 001e 1800     		movs	r0, r3
 969 0020 03B0     		add	sp, sp, #12
ARM GAS  /tmp/ccvPPVYB.s 			page 18


 970              		@ sp needed
 971 0022 00BD     		pop	{pc}
 972              		.cfi_endproc
 973              	.LFE143:
 974              		.size	_ZL13chIQGetEmptyIP8io_queue, .-_ZL13chIQGetEmptyIP8io_queue
 975              		.section	.text._ZL12chIQIsEmptyIP8io_queue,"ax",%progbits
 976              		.align	1
 977              		.p2align 4,,15
 978              		.syntax unified
 979              		.code	16
 980              		.thumb_func
 981              		.fpu softvfp
 982              		.type	_ZL12chIQIsEmptyIP8io_queue, %function
 983              	_ZL12chIQIsEmptyIP8io_queue:
 984              	.LFB144:
 985              		.loc 10 303 0
 986              		.cfi_startproc
 987              		@ args = 0, pretend = 0, frame = 8
 988              		@ frame_needed = 0, uses_anonymous_args = 0
 989 0000 00B5     		push	{lr}
 990              		.cfi_def_cfa_offset 4
 991              		.cfi_offset 14, -4
 992 0002 83B0     		sub	sp, sp, #12
 993              		.cfi_def_cfa_offset 16
 994 0004 0190     		str	r0, [sp, #4]
 995              		.loc 10 305 0
 996 0006 FFF7FEFF 		bl	chDbgCheckClassI
 997              		.loc 10 307 0
 998 000a 019B     		ldr	r3, [sp, #4]
 999 000c 9B68     		ldr	r3, [r3, #8]
 1000 000e 5A42     		rsbs	r2, r3, #0
 1001 0010 5341     		adcs	r3, r3, r2
 1002 0012 DBB2     		uxtb	r3, r3
 1003              		.loc 10 308 0
 1004 0014 1800     		movs	r0, r3
 1005 0016 03B0     		add	sp, sp, #12
 1006              		@ sp needed
 1007 0018 00BD     		pop	{pc}
 1008              		.cfi_endproc
 1009              	.LFE144:
 1010              		.size	_ZL12chIQIsEmptyIP8io_queue, .-_ZL12chIQIsEmptyIP8io_queue
 1011 001a C046     		.section	.text._ZL11chIQIsFullIP8io_queue,"ax",%progbits
 1012              		.align	1
 1013              		.p2align 4,,15
 1014              		.syntax unified
 1015              		.code	16
 1016              		.thumb_func
 1017              		.fpu softvfp
 1018              		.type	_ZL11chIQIsFullIP8io_queue, %function
 1019              	_ZL11chIQIsFullIP8io_queue:
 1020              	.LFB145:
 1021              		.loc 10 320 0
 1022              		.cfi_startproc
 1023              		@ args = 0, pretend = 0, frame = 8
 1024              		@ frame_needed = 0, uses_anonymous_args = 0
 1025 0000 00B5     		push	{lr}
 1026              		.cfi_def_cfa_offset 4
ARM GAS  /tmp/ccvPPVYB.s 			page 19


 1027              		.cfi_offset 14, -4
 1028 0002 83B0     		sub	sp, sp, #12
 1029              		.cfi_def_cfa_offset 16
 1030 0004 0190     		str	r0, [sp, #4]
 1031              		.loc 10 322 0
 1032 0006 FFF7FEFF 		bl	chDbgCheckClassI
 1033              		.loc 10 325 0
 1034 000a 019B     		ldr	r3, [sp, #4]
 1035 000c 5A69     		ldr	r2, [r3, #20]
 1036 000e 019B     		ldr	r3, [sp, #4]
 1037 0010 9B69     		ldr	r3, [r3, #24]
 1038 0012 9A42     		cmp	r2, r3
 1039 0014 05D1     		bne	.L56
 1040              		.loc 10 325 0 is_stmt 0 discriminator 1
 1041 0016 019B     		ldr	r3, [sp, #4]
 1042 0018 9B68     		ldr	r3, [r3, #8]
 1043 001a 002B     		cmp	r3, #0
 1044 001c 01D0     		beq	.L56
 1045              		.loc 10 325 0 discriminator 3
 1046 001e 0123     		movs	r3, #1
 1047 0020 00E0     		b	.L57
 1048              	.L56:
 1049              		.loc 10 325 0 discriminator 4
 1050 0022 0023     		movs	r3, #0
 1051              	.L57:
 1052              		.loc 10 327 0 is_stmt 1 discriminator 6
 1053 0024 1800     		movs	r0, r3
 1054 0026 03B0     		add	sp, sp, #12
 1055              		@ sp needed
 1056 0028 00BD     		pop	{pc}
 1057              		.cfi_endproc
 1058              	.LFE145:
 1059              		.size	_ZL11chIQIsFullIP8io_queue, .-_ZL11chIQIsFullIP8io_queue
 1060 002a C046     		.section	.text._ZL7chIQGetP8io_queue,"ax",%progbits
 1061              		.align	1
 1062              		.p2align 4,,15
 1063              		.syntax unified
 1064              		.code	16
 1065              		.thumb_func
 1066              		.fpu softvfp
 1067              		.type	_ZL7chIQGetP8io_queue, %function
 1068              	_ZL7chIQGetP8io_queue:
 1069              	.LFB146:
 1070              		.loc 10 341 0
 1071              		.cfi_startproc
 1072              		@ args = 0, pretend = 0, frame = 8
 1073              		@ frame_needed = 0, uses_anonymous_args = 0
 1074 0000 00B5     		push	{lr}
 1075              		.cfi_def_cfa_offset 4
 1076              		.cfi_offset 14, -4
 1077 0002 83B0     		sub	sp, sp, #12
 1078              		.cfi_def_cfa_offset 16
 1079 0004 0190     		str	r0, [sp, #4]
 1080              		.loc 10 343 0
 1081 0006 054A     		ldr	r2, .L61
 1082 0008 019B     		ldr	r3, [sp, #4]
 1083 000a 1100     		movs	r1, r2
ARM GAS  /tmp/ccvPPVYB.s 			page 20


 1084 000c 1800     		movs	r0, r3
 1085 000e FFF7FEFF 		bl	chIQGetTimeout
 1086 0012 0300     		movs	r3, r0
 1087              		.loc 10 344 0
 1088 0014 1800     		movs	r0, r3
 1089 0016 03B0     		add	sp, sp, #12
 1090              		@ sp needed
 1091 0018 00BD     		pop	{pc}
 1092              	.L62:
 1093 001a C046     		.align	2
 1094              	.L61:
 1095 001c FFFF0000 		.word	65535
 1096              		.cfi_endproc
 1097              	.LFE146:
 1098              		.size	_ZL7chIQGetP8io_queue, .-_ZL7chIQGetP8io_queue
 1099              		.section	.text._ZL12chOQGetFullIP8io_queue,"ax",%progbits
 1100              		.align	1
 1101              		.p2align 4,,15
 1102              		.syntax unified
 1103              		.code	16
 1104              		.thumb_func
 1105              		.fpu softvfp
 1106              		.type	_ZL12chOQGetFullIP8io_queue, %function
 1107              	_ZL12chOQGetFullIP8io_queue:
 1108              	.LFB147:
 1109              		.loc 10 355 0
 1110              		.cfi_startproc
 1111              		@ args = 0, pretend = 0, frame = 8
 1112              		@ frame_needed = 0, uses_anonymous_args = 0
 1113 0000 00B5     		push	{lr}
 1114              		.cfi_def_cfa_offset 4
 1115              		.cfi_offset 14, -4
 1116 0002 83B0     		sub	sp, sp, #12
 1117              		.cfi_def_cfa_offset 16
 1118 0004 0190     		str	r0, [sp, #4]
 1119              		.loc 10 357 0
 1120 0006 FFF7FEFF 		bl	chDbgCheckClassI
 1121              		.loc 10 359 0
 1122 000a 019B     		ldr	r3, [sp, #4]
 1123 000c 1B69     		ldr	r3, [r3, #16]
 1124 000e 1A00     		movs	r2, r3
 1125 0010 019B     		ldr	r3, [sp, #4]
 1126 0012 DB68     		ldr	r3, [r3, #12]
 1127 0014 D31A     		subs	r3, r2, r3
 1128 0016 1A00     		movs	r2, r3
 1129 0018 019B     		ldr	r3, [sp, #4]
 1130 001a 9B68     		ldr	r3, [r3, #8]
 1131 001c D31A     		subs	r3, r2, r3
 1132              		.loc 10 360 0
 1133 001e 1800     		movs	r0, r3
 1134 0020 03B0     		add	sp, sp, #12
 1135              		@ sp needed
 1136 0022 00BD     		pop	{pc}
 1137              		.cfi_endproc
 1138              	.LFE147:
 1139              		.size	_ZL12chOQGetFullIP8io_queue, .-_ZL12chOQGetFullIP8io_queue
 1140              		.section	.text._ZL13chOQGetEmptyIP8io_queue,"ax",%progbits
ARM GAS  /tmp/ccvPPVYB.s 			page 21


 1141              		.align	1
 1142              		.p2align 4,,15
 1143              		.syntax unified
 1144              		.code	16
 1145              		.thumb_func
 1146              		.fpu softvfp
 1147              		.type	_ZL13chOQGetEmptyIP8io_queue, %function
 1148              	_ZL13chOQGetEmptyIP8io_queue:
 1149              	.LFB148:
 1150              		.loc 10 371 0
 1151              		.cfi_startproc
 1152              		@ args = 0, pretend = 0, frame = 8
 1153              		@ frame_needed = 0, uses_anonymous_args = 0
 1154 0000 00B5     		push	{lr}
 1155              		.cfi_def_cfa_offset 4
 1156              		.cfi_offset 14, -4
 1157 0002 83B0     		sub	sp, sp, #12
 1158              		.cfi_def_cfa_offset 16
 1159 0004 0190     		str	r0, [sp, #4]
 1160              		.loc 10 373 0
 1161 0006 FFF7FEFF 		bl	chDbgCheckClassI
 1162              		.loc 10 375 0
 1163 000a 019B     		ldr	r3, [sp, #4]
 1164 000c 9B68     		ldr	r3, [r3, #8]
 1165              		.loc 10 376 0
 1166 000e 1800     		movs	r0, r3
 1167 0010 03B0     		add	sp, sp, #12
 1168              		@ sp needed
 1169 0012 00BD     		pop	{pc}
 1170              		.cfi_endproc
 1171              	.LFE148:
 1172              		.size	_ZL13chOQGetEmptyIP8io_queue, .-_ZL13chOQGetEmptyIP8io_queue
 1173              		.section	.text._ZL12chOQIsEmptyIP8io_queue,"ax",%progbits
 1174              		.align	1
 1175              		.p2align 4,,15
 1176              		.syntax unified
 1177              		.code	16
 1178              		.thumb_func
 1179              		.fpu softvfp
 1180              		.type	_ZL12chOQIsEmptyIP8io_queue, %function
 1181              	_ZL12chOQIsEmptyIP8io_queue:
 1182              	.LFB149:
 1183              		.loc 10 388 0
 1184              		.cfi_startproc
 1185              		@ args = 0, pretend = 0, frame = 8
 1186              		@ frame_needed = 0, uses_anonymous_args = 0
 1187 0000 00B5     		push	{lr}
 1188              		.cfi_def_cfa_offset 4
 1189              		.cfi_offset 14, -4
 1190 0002 83B0     		sub	sp, sp, #12
 1191              		.cfi_def_cfa_offset 16
 1192 0004 0190     		str	r0, [sp, #4]
 1193              		.loc 10 390 0
 1194 0006 FFF7FEFF 		bl	chDbgCheckClassI
 1195              		.loc 10 393 0
 1196 000a 019B     		ldr	r3, [sp, #4]
 1197 000c 5A69     		ldr	r2, [r3, #20]
ARM GAS  /tmp/ccvPPVYB.s 			page 22


 1198 000e 019B     		ldr	r3, [sp, #4]
 1199 0010 9B69     		ldr	r3, [r3, #24]
 1200 0012 9A42     		cmp	r2, r3
 1201 0014 05D1     		bne	.L68
 1202              		.loc 10 393 0 is_stmt 0 discriminator 1
 1203 0016 019B     		ldr	r3, [sp, #4]
 1204 0018 9B68     		ldr	r3, [r3, #8]
 1205 001a 002B     		cmp	r3, #0
 1206 001c 01D0     		beq	.L68
 1207              		.loc 10 393 0 discriminator 3
 1208 001e 0123     		movs	r3, #1
 1209 0020 00E0     		b	.L69
 1210              	.L68:
 1211              		.loc 10 393 0 discriminator 4
 1212 0022 0023     		movs	r3, #0
 1213              	.L69:
 1214              		.loc 10 395 0 is_stmt 1 discriminator 6
 1215 0024 1800     		movs	r0, r3
 1216 0026 03B0     		add	sp, sp, #12
 1217              		@ sp needed
 1218 0028 00BD     		pop	{pc}
 1219              		.cfi_endproc
 1220              	.LFE149:
 1221              		.size	_ZL12chOQIsEmptyIP8io_queue, .-_ZL12chOQIsEmptyIP8io_queue
 1222 002a C046     		.section	.text._ZL11chOQIsFullIP8io_queue,"ax",%progbits
 1223              		.align	1
 1224              		.p2align 4,,15
 1225              		.syntax unified
 1226              		.code	16
 1227              		.thumb_func
 1228              		.fpu softvfp
 1229              		.type	_ZL11chOQIsFullIP8io_queue, %function
 1230              	_ZL11chOQIsFullIP8io_queue:
 1231              	.LFB150:
 1232              		.loc 10 407 0
 1233              		.cfi_startproc
 1234              		@ args = 0, pretend = 0, frame = 8
 1235              		@ frame_needed = 0, uses_anonymous_args = 0
 1236 0000 00B5     		push	{lr}
 1237              		.cfi_def_cfa_offset 4
 1238              		.cfi_offset 14, -4
 1239 0002 83B0     		sub	sp, sp, #12
 1240              		.cfi_def_cfa_offset 16
 1241 0004 0190     		str	r0, [sp, #4]
 1242              		.loc 10 409 0
 1243 0006 FFF7FEFF 		bl	chDbgCheckClassI
 1244              		.loc 10 411 0
 1245 000a 019B     		ldr	r3, [sp, #4]
 1246 000c 9B68     		ldr	r3, [r3, #8]
 1247 000e 5A42     		rsbs	r2, r3, #0
 1248 0010 5341     		adcs	r3, r3, r2
 1249 0012 DBB2     		uxtb	r3, r3
 1250              		.loc 10 412 0
 1251 0014 1800     		movs	r0, r3
 1252 0016 03B0     		add	sp, sp, #12
 1253              		@ sp needed
 1254 0018 00BD     		pop	{pc}
ARM GAS  /tmp/ccvPPVYB.s 			page 23


 1255              		.cfi_endproc
 1256              	.LFE150:
 1257              		.size	_ZL11chOQIsFullIP8io_queue, .-_ZL11chOQIsFullIP8io_queue
 1258 001a C046     		.section	.text._ZL7chOQPutP8io_queueh,"ax",%progbits
 1259              		.align	1
 1260              		.p2align 4,,15
 1261              		.syntax unified
 1262              		.code	16
 1263              		.thumb_func
 1264              		.fpu softvfp
 1265              		.type	_ZL7chOQPutP8io_queueh, %function
 1266              	_ZL7chOQPutP8io_queueh:
 1267              	.LFB151:
 1268              		.loc 10 428 0
 1269              		.cfi_startproc
 1270              		@ args = 0, pretend = 0, frame = 8
 1271              		@ frame_needed = 0, uses_anonymous_args = 0
 1272 0000 00B5     		push	{lr}
 1273              		.cfi_def_cfa_offset 4
 1274              		.cfi_offset 14, -4
 1275 0002 83B0     		sub	sp, sp, #12
 1276              		.cfi_def_cfa_offset 16
 1277 0004 0190     		str	r0, [sp, #4]
 1278 0006 0A00     		movs	r2, r1
 1279 0008 6B46     		mov	r3, sp
 1280 000a 0333     		adds	r3, r3, #3
 1281 000c 1A70     		strb	r2, [r3]
 1282              		.loc 10 430 0
 1283 000e 064A     		ldr	r2, .L75
 1284 0010 6B46     		mov	r3, sp
 1285 0012 0333     		adds	r3, r3, #3
 1286 0014 1978     		ldrb	r1, [r3]
 1287 0016 019B     		ldr	r3, [sp, #4]
 1288 0018 1800     		movs	r0, r3
 1289 001a FFF7FEFF 		bl	chOQPutTimeout
 1290 001e 0300     		movs	r3, r0
 1291              		.loc 10 431 0
 1292 0020 1800     		movs	r0, r3
 1293 0022 03B0     		add	sp, sp, #12
 1294              		@ sp needed
 1295 0024 00BD     		pop	{pc}
 1296              	.L76:
 1297 0026 C046     		.align	2
 1298              	.L75:
 1299 0028 FFFF0000 		.word	65535
 1300              		.cfi_endproc
 1301              	.LFE151:
 1302              		.size	_ZL7chOQPutP8io_queueh, .-_ZL7chOQPutP8io_queueh
 1303              		.section	.text._ZN10chibios_rt15ThreadReferenceC2EP9ch_thread,"axG",%progbits,_ZN10chibios_rt15Thr
 1304              		.align	1
 1305              		.p2align 4,,15
 1306              		.weak	_ZN10chibios_rt15ThreadReferenceC2EP9ch_thread
 1307              		.syntax unified
 1308              		.code	16
 1309              		.thumb_func
 1310              		.fpu softvfp
 1311              		.type	_ZN10chibios_rt15ThreadReferenceC2EP9ch_thread, %function
ARM GAS  /tmp/ccvPPVYB.s 			page 24


 1312              	_ZN10chibios_rt15ThreadReferenceC2EP9ch_thread:
 1313              	.LFB166:
 1314              		.file 11 "ChibiOS/os/various/cpp_wrappers/ch.hpp"
 1315              		.loc 11 413 0
 1316              		.cfi_startproc
 1317              		@ args = 0, pretend = 0, frame = 8
 1318              		@ frame_needed = 0, uses_anonymous_args = 0
 1319              		@ link register save eliminated.
 1320 0000 82B0     		sub	sp, sp, #8
 1321              		.cfi_def_cfa_offset 8
 1322 0002 0190     		str	r0, [sp, #4]
 1323 0004 0091     		str	r1, [sp]
 1324              	.LBB10:
 1325              		.loc 11 413 0
 1326 0006 054A     		ldr	r2, .L79
 1327 0008 019B     		ldr	r3, [sp, #4]
 1328 000a 1A60     		str	r2, [r3]
 1329 000c 019B     		ldr	r3, [sp, #4]
 1330 000e 009A     		ldr	r2, [sp]
 1331 0010 5A60     		str	r2, [r3, #4]
 1332              	.LBE10:
 1333              		.loc 11 415 0
 1334 0012 019B     		ldr	r3, [sp, #4]
 1335 0014 1800     		movs	r0, r3
 1336 0016 02B0     		add	sp, sp, #8
 1337              		@ sp needed
 1338 0018 7047     		bx	lr
 1339              	.L80:
 1340 001a C046     		.align	2
 1341              	.L79:
 1342 001c 08000000 		.word	_ZTVN10chibios_rt15ThreadReferenceE+8
 1343              		.cfi_endproc
 1344              	.LFE166:
 1345              		.size	_ZN10chibios_rt15ThreadReferenceC2EP9ch_thread, .-_ZN10chibios_rt15ThreadReferenceC2EP9ch_th
 1346              		.weak	_ZN10chibios_rt15ThreadReferenceC1EP9ch_thread
 1347              		.thumb_set _ZN10chibios_rt15ThreadReferenceC1EP9ch_thread,_ZN10chibios_rt15ThreadReferenceC2EP9ch_
 1348              		.section	.rodata
 1349              		.align	2
 1350              	.LC5:
 1351 0000 696E766F 		.ascii	"invoked unimplemented method stop()\000"
 1351      6B656420 
 1351      756E696D 
 1351      706C656D 
 1351      656E7465 
 1352              		.section	.text._ZN10chibios_rt15ThreadReference4stopEv,"ax",%progbits
 1353              		.align	1
 1354              		.p2align 4,,15
 1355              		.global	_ZN10chibios_rt15ThreadReference4stopEv
 1356              		.syntax unified
 1357              		.code	16
 1358              		.thumb_func
 1359              		.fpu softvfp
 1360              		.type	_ZN10chibios_rt15ThreadReference4stopEv, %function
 1361              	_ZN10chibios_rt15ThreadReference4stopEv:
 1362              	.LFB194:
 1363              		.file 12 "ChibiOS/os/various/cpp_wrappers/ch.cpp"
 1364              		.loc 12 76 0
ARM GAS  /tmp/ccvPPVYB.s 			page 25


 1365              		.cfi_startproc
 1366              		@ args = 0, pretend = 0, frame = 8
 1367              		@ frame_needed = 0, uses_anonymous_args = 0
 1368 0000 00B5     		push	{lr}
 1369              		.cfi_def_cfa_offset 4
 1370              		.cfi_offset 14, -4
 1371 0002 83B0     		sub	sp, sp, #12
 1372              		.cfi_def_cfa_offset 16
 1373 0004 0190     		str	r0, [sp, #4]
 1374              		.loc 12 78 0
 1375 0006 034B     		ldr	r3, .L82
 1376 0008 1800     		movs	r0, r3
 1377 000a FFF7FEFF 		bl	chSysHalt
 1378              		.loc 12 79 0
 1379 000e C046     		nop
 1380 0010 03B0     		add	sp, sp, #12
 1381              		@ sp needed
 1382 0012 00BD     		pop	{pc}
 1383              	.L83:
 1384              		.align	2
 1385              	.L82:
 1386 0014 00000000 		.word	.LC5
 1387              		.cfi_endproc
 1388              	.LFE194:
 1389              		.size	_ZN10chibios_rt15ThreadReference4stopEv, .-_ZN10chibios_rt15ThreadReference4stopEv
 1390              		.section	.text._ZN10chibios_rt15ThreadReference16requestTerminateEv,"ax",%progbits
 1391              		.align	1
 1392              		.p2align 4,,15
 1393              		.global	_ZN10chibios_rt15ThreadReference16requestTerminateEv
 1394              		.syntax unified
 1395              		.code	16
 1396              		.thumb_func
 1397              		.fpu softvfp
 1398              		.type	_ZN10chibios_rt15ThreadReference16requestTerminateEv, %function
 1399              	_ZN10chibios_rt15ThreadReference16requestTerminateEv:
 1400              	.LFB195:
 1401              		.loc 12 81 0
 1402              		.cfi_startproc
 1403              		@ args = 0, pretend = 0, frame = 8
 1404              		@ frame_needed = 0, uses_anonymous_args = 0
 1405 0000 00B5     		push	{lr}
 1406              		.cfi_def_cfa_offset 4
 1407              		.cfi_offset 14, -4
 1408 0002 83B0     		sub	sp, sp, #12
 1409              		.cfi_def_cfa_offset 16
 1410 0004 0190     		str	r0, [sp, #4]
 1411              		.loc 12 83 0
 1412 0006 019B     		ldr	r3, [sp, #4]
 1413 0008 5B68     		ldr	r3, [r3, #4]
 1414 000a 002B     		cmp	r3, #0
 1415 000c 03D1     		bne	.L85
 1416              		.loc 12 83 0 is_stmt 0 discriminator 1
 1417 000e 064B     		ldr	r3, .L86
 1418 0010 1800     		movs	r0, r3
 1419 0012 FFF7FEFF 		bl	chSysHalt
 1420              	.L85:
 1421              		.loc 12 86 0 is_stmt 1
ARM GAS  /tmp/ccvPPVYB.s 			page 26


 1422 0016 019B     		ldr	r3, [sp, #4]
 1423 0018 5B68     		ldr	r3, [r3, #4]
 1424 001a 1800     		movs	r0, r3
 1425 001c FFF7FEFF 		bl	chThdTerminate
 1426              		.loc 12 87 0
 1427 0020 C046     		nop
 1428 0022 03B0     		add	sp, sp, #12
 1429              		@ sp needed
 1430 0024 00BD     		pop	{pc}
 1431              	.L87:
 1432 0026 C046     		.align	2
 1433              	.L86:
 1434 0028 00000000 		.word	_ZZN10chibios_rt15ThreadReference16requestTerminateEvE8__func__
 1435              		.cfi_endproc
 1436              	.LFE195:
 1437              		.size	_ZN10chibios_rt15ThreadReference16requestTerminateEv, .-_ZN10chibios_rt15ThreadReference16re
 1438              		.section	.text._ZN10chibios_rt15ThreadReference4waitEv,"ax",%progbits
 1439              		.align	1
 1440              		.p2align 4,,15
 1441              		.global	_ZN10chibios_rt15ThreadReference4waitEv
 1442              		.syntax unified
 1443              		.code	16
 1444              		.thumb_func
 1445              		.fpu softvfp
 1446              		.type	_ZN10chibios_rt15ThreadReference4waitEv, %function
 1447              	_ZN10chibios_rt15ThreadReference4waitEv:
 1448              	.LFB196:
 1449              		.loc 12 90 0
 1450              		.cfi_startproc
 1451              		@ args = 0, pretend = 0, frame = 16
 1452              		@ frame_needed = 0, uses_anonymous_args = 0
 1453 0000 00B5     		push	{lr}
 1454              		.cfi_def_cfa_offset 4
 1455              		.cfi_offset 14, -4
 1456 0002 85B0     		sub	sp, sp, #20
 1457              		.cfi_def_cfa_offset 24
 1458 0004 0190     		str	r0, [sp, #4]
 1459              		.loc 12 92 0
 1460 0006 019B     		ldr	r3, [sp, #4]
 1461 0008 5B68     		ldr	r3, [r3, #4]
 1462 000a 002B     		cmp	r3, #0
 1463 000c 03D1     		bne	.L89
 1464              		.loc 12 92 0 is_stmt 0 discriminator 1
 1465 000e 094B     		ldr	r3, .L91
 1466 0010 1800     		movs	r0, r3
 1467 0012 FFF7FEFF 		bl	chSysHalt
 1468              	.L89:
 1469              		.loc 12 95 0 is_stmt 1
 1470 0016 019B     		ldr	r3, [sp, #4]
 1471 0018 5B68     		ldr	r3, [r3, #4]
 1472 001a 1800     		movs	r0, r3
 1473 001c FFF7FEFF 		bl	chThdWait
 1474 0020 0300     		movs	r3, r0
 1475 0022 0393     		str	r3, [sp, #12]
 1476              		.loc 12 96 0
 1477 0024 019B     		ldr	r3, [sp, #4]
 1478 0026 0022     		movs	r2, #0
ARM GAS  /tmp/ccvPPVYB.s 			page 27


 1479 0028 5A60     		str	r2, [r3, #4]
 1480              		.loc 12 97 0
 1481 002a 039B     		ldr	r3, [sp, #12]
 1482              		.loc 12 98 0
 1483 002c 1800     		movs	r0, r3
 1484 002e 05B0     		add	sp, sp, #20
 1485              		@ sp needed
 1486 0030 00BD     		pop	{pc}
 1487              	.L92:
 1488 0032 C046     		.align	2
 1489              	.L91:
 1490 0034 00000000 		.word	_ZZN10chibios_rt15ThreadReference4waitEvE8__func__
 1491              		.cfi_endproc
 1492              	.LFE196:
 1493              		.size	_ZN10chibios_rt15ThreadReference4waitEv, .-_ZN10chibios_rt15ThreadReference4waitEv
 1494              		.section	.text._ZN10chibios_rt15ThreadReference11sendMessageEl,"ax",%progbits
 1495              		.align	1
 1496              		.p2align 4,,15
 1497              		.global	_ZN10chibios_rt15ThreadReference11sendMessageEl
 1498              		.syntax unified
 1499              		.code	16
 1500              		.thumb_func
 1501              		.fpu softvfp
 1502              		.type	_ZN10chibios_rt15ThreadReference11sendMessageEl, %function
 1503              	_ZN10chibios_rt15ThreadReference11sendMessageEl:
 1504              	.LFB197:
 1505              		.loc 12 102 0
 1506              		.cfi_startproc
 1507              		@ args = 0, pretend = 0, frame = 8
 1508              		@ frame_needed = 0, uses_anonymous_args = 0
 1509 0000 00B5     		push	{lr}
 1510              		.cfi_def_cfa_offset 4
 1511              		.cfi_offset 14, -4
 1512 0002 83B0     		sub	sp, sp, #12
 1513              		.cfi_def_cfa_offset 16
 1514 0004 0190     		str	r0, [sp, #4]
 1515 0006 0091     		str	r1, [sp]
 1516              		.loc 12 104 0
 1517 0008 019B     		ldr	r3, [sp, #4]
 1518 000a 5B68     		ldr	r3, [r3, #4]
 1519 000c 002B     		cmp	r3, #0
 1520 000e 03D1     		bne	.L94
 1521              		.loc 12 104 0 is_stmt 0 discriminator 1
 1522 0010 074B     		ldr	r3, .L96
 1523 0012 1800     		movs	r0, r3
 1524 0014 FFF7FEFF 		bl	chSysHalt
 1525              	.L94:
 1526              		.loc 12 107 0 is_stmt 1
 1527 0018 019B     		ldr	r3, [sp, #4]
 1528 001a 5B68     		ldr	r3, [r3, #4]
 1529 001c 009A     		ldr	r2, [sp]
 1530 001e 1100     		movs	r1, r2
 1531 0020 1800     		movs	r0, r3
 1532 0022 FFF7FEFF 		bl	chMsgSend
 1533 0026 0300     		movs	r3, r0
 1534              		.loc 12 108 0
 1535 0028 1800     		movs	r0, r3
ARM GAS  /tmp/ccvPPVYB.s 			page 28


 1536 002a 03B0     		add	sp, sp, #12
 1537              		@ sp needed
 1538 002c 00BD     		pop	{pc}
 1539              	.L97:
 1540 002e C046     		.align	2
 1541              	.L96:
 1542 0030 00000000 		.word	_ZZN10chibios_rt15ThreadReference11sendMessageElE8__func__
 1543              		.cfi_endproc
 1544              	.LFE197:
 1545              		.size	_ZN10chibios_rt15ThreadReference11sendMessageEl, .-_ZN10chibios_rt15ThreadReference11sendMes
 1546              		.section	.text._ZN10chibios_rt15ThreadReference16isPendingMessageEv,"ax",%progbits
 1547              		.align	1
 1548              		.p2align 4,,15
 1549              		.global	_ZN10chibios_rt15ThreadReference16isPendingMessageEv
 1550              		.syntax unified
 1551              		.code	16
 1552              		.thumb_func
 1553              		.fpu softvfp
 1554              		.type	_ZN10chibios_rt15ThreadReference16isPendingMessageEv, %function
 1555              	_ZN10chibios_rt15ThreadReference16isPendingMessageEv:
 1556              	.LFB198:
 1557              		.loc 12 110 0
 1558              		.cfi_startproc
 1559              		@ args = 0, pretend = 0, frame = 8
 1560              		@ frame_needed = 0, uses_anonymous_args = 0
 1561 0000 00B5     		push	{lr}
 1562              		.cfi_def_cfa_offset 4
 1563              		.cfi_offset 14, -4
 1564 0002 83B0     		sub	sp, sp, #12
 1565              		.cfi_def_cfa_offset 16
 1566 0004 0190     		str	r0, [sp, #4]
 1567              		.loc 12 112 0
 1568 0006 019B     		ldr	r3, [sp, #4]
 1569 0008 5B68     		ldr	r3, [r3, #4]
 1570 000a 002B     		cmp	r3, #0
 1571 000c 03D1     		bne	.L99
 1572              		.loc 12 112 0 is_stmt 0 discriminator 1
 1573 000e 064B     		ldr	r3, .L101
 1574 0010 1800     		movs	r0, r3
 1575 0012 FFF7FEFF 		bl	chSysHalt
 1576              	.L99:
 1577              		.loc 12 115 0 is_stmt 1
 1578 0016 019B     		ldr	r3, [sp, #4]
 1579 0018 5B68     		ldr	r3, [r3, #4]
 1580 001a 1800     		movs	r0, r3
 1581 001c FFF7FEFF 		bl	_ZL15chMsgIsPendingIP9ch_thread
 1582 0020 0300     		movs	r3, r0
 1583              		.loc 12 116 0
 1584 0022 1800     		movs	r0, r3
 1585 0024 03B0     		add	sp, sp, #12
 1586              		@ sp needed
 1587 0026 00BD     		pop	{pc}
 1588              	.L102:
 1589              		.align	2
 1590              	.L101:
 1591 0028 00000000 		.word	_ZZN10chibios_rt15ThreadReference16isPendingMessageEvE8__func__
 1592              		.cfi_endproc
ARM GAS  /tmp/ccvPPVYB.s 			page 29


 1593              	.LFE198:
 1594              		.size	_ZN10chibios_rt15ThreadReference16isPendingMessageEv, .-_ZN10chibios_rt15ThreadReference16is
 1595              		.section	.text._ZN10chibios_rt15ThreadReference10getMessageEv,"ax",%progbits
 1596              		.align	1
 1597              		.p2align 4,,15
 1598              		.global	_ZN10chibios_rt15ThreadReference10getMessageEv
 1599              		.syntax unified
 1600              		.code	16
 1601              		.thumb_func
 1602              		.fpu softvfp
 1603              		.type	_ZN10chibios_rt15ThreadReference10getMessageEv, %function
 1604              	_ZN10chibios_rt15ThreadReference10getMessageEv:
 1605              	.LFB199:
 1606              		.loc 12 118 0
 1607              		.cfi_startproc
 1608              		@ args = 0, pretend = 0, frame = 8
 1609              		@ frame_needed = 0, uses_anonymous_args = 0
 1610 0000 00B5     		push	{lr}
 1611              		.cfi_def_cfa_offset 4
 1612              		.cfi_offset 14, -4
 1613 0002 83B0     		sub	sp, sp, #12
 1614              		.cfi_def_cfa_offset 16
 1615 0004 0190     		str	r0, [sp, #4]
 1616              		.loc 12 120 0
 1617 0006 019B     		ldr	r3, [sp, #4]
 1618 0008 5B68     		ldr	r3, [r3, #4]
 1619 000a 002B     		cmp	r3, #0
 1620 000c 03D1     		bne	.L104
 1621              		.loc 12 120 0 is_stmt 0 discriminator 1
 1622 000e 064B     		ldr	r3, .L106
 1623 0010 1800     		movs	r0, r3
 1624 0012 FFF7FEFF 		bl	chSysHalt
 1625              	.L104:
 1626              		.loc 12 123 0 is_stmt 1
 1627 0016 019B     		ldr	r3, [sp, #4]
 1628 0018 5B68     		ldr	r3, [r3, #4]
 1629 001a 1800     		movs	r0, r3
 1630 001c FFF7FEFF 		bl	_ZL8chMsgGetP9ch_thread
 1631 0020 0300     		movs	r3, r0
 1632              		.loc 12 124 0
 1633 0022 1800     		movs	r0, r3
 1634 0024 03B0     		add	sp, sp, #12
 1635              		@ sp needed
 1636 0026 00BD     		pop	{pc}
 1637              	.L107:
 1638              		.align	2
 1639              	.L106:
 1640 0028 00000000 		.word	_ZZN10chibios_rt15ThreadReference10getMessageEvE8__func__
 1641              		.cfi_endproc
 1642              	.LFE199:
 1643              		.size	_ZN10chibios_rt15ThreadReference10getMessageEv, .-_ZN10chibios_rt15ThreadReference10getMessa
 1644              		.section	.text._ZN10chibios_rt15ThreadReference14releaseMessageEl,"ax",%progbits
 1645              		.align	1
 1646              		.p2align 4,,15
 1647              		.global	_ZN10chibios_rt15ThreadReference14releaseMessageEl
 1648              		.syntax unified
 1649              		.code	16
ARM GAS  /tmp/ccvPPVYB.s 			page 30


 1650              		.thumb_func
 1651              		.fpu softvfp
 1652              		.type	_ZN10chibios_rt15ThreadReference14releaseMessageEl, %function
 1653              	_ZN10chibios_rt15ThreadReference14releaseMessageEl:
 1654              	.LFB200:
 1655              		.loc 12 126 0
 1656              		.cfi_startproc
 1657              		@ args = 0, pretend = 0, frame = 8
 1658              		@ frame_needed = 0, uses_anonymous_args = 0
 1659 0000 00B5     		push	{lr}
 1660              		.cfi_def_cfa_offset 4
 1661              		.cfi_offset 14, -4
 1662 0002 83B0     		sub	sp, sp, #12
 1663              		.cfi_def_cfa_offset 16
 1664 0004 0190     		str	r0, [sp, #4]
 1665 0006 0091     		str	r1, [sp]
 1666              		.loc 12 128 0
 1667 0008 019B     		ldr	r3, [sp, #4]
 1668 000a 5B68     		ldr	r3, [r3, #4]
 1669 000c 002B     		cmp	r3, #0
 1670 000e 03D1     		bne	.L109
 1671              		.loc 12 128 0 is_stmt 0 discriminator 1
 1672 0010 064B     		ldr	r3, .L110
 1673 0012 1800     		movs	r0, r3
 1674 0014 FFF7FEFF 		bl	chSysHalt
 1675              	.L109:
 1676              		.loc 12 131 0 is_stmt 1
 1677 0018 019B     		ldr	r3, [sp, #4]
 1678 001a 5B68     		ldr	r3, [r3, #4]
 1679 001c 009A     		ldr	r2, [sp]
 1680 001e 1100     		movs	r1, r2
 1681 0020 1800     		movs	r0, r3
 1682 0022 FFF7FEFF 		bl	chMsgRelease
 1683              		.loc 12 132 0
 1684 0026 C046     		nop
 1685 0028 03B0     		add	sp, sp, #12
 1686              		@ sp needed
 1687 002a 00BD     		pop	{pc}
 1688              	.L111:
 1689              		.align	2
 1690              	.L110:
 1691 002c 00000000 		.word	_ZZN10chibios_rt15ThreadReference14releaseMessageElE8__func__
 1692              		.cfi_endproc
 1693              	.LFE200:
 1694              		.size	_ZN10chibios_rt15ThreadReference14releaseMessageEl, .-_ZN10chibios_rt15ThreadReference14rele
 1695              		.section	.text._ZN10chibios_rt15ThreadReference12signalEventsEm,"ax",%progbits
 1696              		.align	1
 1697              		.p2align 4,,15
 1698              		.global	_ZN10chibios_rt15ThreadReference12signalEventsEm
 1699              		.syntax unified
 1700              		.code	16
 1701              		.thumb_func
 1702              		.fpu softvfp
 1703              		.type	_ZN10chibios_rt15ThreadReference12signalEventsEm, %function
 1704              	_ZN10chibios_rt15ThreadReference12signalEventsEm:
 1705              	.LFB201:
 1706              		.loc 12 136 0
ARM GAS  /tmp/ccvPPVYB.s 			page 31


 1707              		.cfi_startproc
 1708              		@ args = 0, pretend = 0, frame = 8
 1709              		@ frame_needed = 0, uses_anonymous_args = 0
 1710 0000 00B5     		push	{lr}
 1711              		.cfi_def_cfa_offset 4
 1712              		.cfi_offset 14, -4
 1713 0002 83B0     		sub	sp, sp, #12
 1714              		.cfi_def_cfa_offset 16
 1715 0004 0190     		str	r0, [sp, #4]
 1716 0006 0091     		str	r1, [sp]
 1717              		.loc 12 138 0
 1718 0008 019B     		ldr	r3, [sp, #4]
 1719 000a 5B68     		ldr	r3, [r3, #4]
 1720 000c 002B     		cmp	r3, #0
 1721 000e 03D1     		bne	.L113
 1722              		.loc 12 138 0 is_stmt 0 discriminator 1
 1723 0010 064B     		ldr	r3, .L114
 1724 0012 1800     		movs	r0, r3
 1725 0014 FFF7FEFF 		bl	chSysHalt
 1726              	.L113:
 1727              		.loc 12 141 0 is_stmt 1
 1728 0018 019B     		ldr	r3, [sp, #4]
 1729 001a 5B68     		ldr	r3, [r3, #4]
 1730 001c 009A     		ldr	r2, [sp]
 1731 001e 1100     		movs	r1, r2
 1732 0020 1800     		movs	r0, r3
 1733 0022 FFF7FEFF 		bl	chEvtSignal
 1734              		.loc 12 142 0
 1735 0026 C046     		nop
 1736 0028 03B0     		add	sp, sp, #12
 1737              		@ sp needed
 1738 002a 00BD     		pop	{pc}
 1739              	.L115:
 1740              		.align	2
 1741              	.L114:
 1742 002c 00000000 		.word	_ZZN10chibios_rt15ThreadReference12signalEventsEmE8__func__
 1743              		.cfi_endproc
 1744              	.LFE201:
 1745              		.size	_ZN10chibios_rt15ThreadReference12signalEventsEm, .-_ZN10chibios_rt15ThreadReference12signal
 1746              		.section	.text._ZN10chibios_rt15ThreadReference13signalEventsIEm,"ax",%progbits
 1747              		.align	1
 1748              		.p2align 4,,15
 1749              		.global	_ZN10chibios_rt15ThreadReference13signalEventsIEm
 1750              		.syntax unified
 1751              		.code	16
 1752              		.thumb_func
 1753              		.fpu softvfp
 1754              		.type	_ZN10chibios_rt15ThreadReference13signalEventsIEm, %function
 1755              	_ZN10chibios_rt15ThreadReference13signalEventsIEm:
 1756              	.LFB202:
 1757              		.loc 12 144 0
 1758              		.cfi_startproc
 1759              		@ args = 0, pretend = 0, frame = 8
 1760              		@ frame_needed = 0, uses_anonymous_args = 0
 1761 0000 00B5     		push	{lr}
 1762              		.cfi_def_cfa_offset 4
 1763              		.cfi_offset 14, -4
ARM GAS  /tmp/ccvPPVYB.s 			page 32


 1764 0002 83B0     		sub	sp, sp, #12
 1765              		.cfi_def_cfa_offset 16
 1766 0004 0190     		str	r0, [sp, #4]
 1767 0006 0091     		str	r1, [sp]
 1768              		.loc 12 146 0
 1769 0008 019B     		ldr	r3, [sp, #4]
 1770 000a 5B68     		ldr	r3, [r3, #4]
 1771 000c 002B     		cmp	r3, #0
 1772 000e 03D1     		bne	.L117
 1773              		.loc 12 146 0 is_stmt 0 discriminator 1
 1774 0010 064B     		ldr	r3, .L118
 1775 0012 1800     		movs	r0, r3
 1776 0014 FFF7FEFF 		bl	chSysHalt
 1777              	.L117:
 1778              		.loc 12 149 0 is_stmt 1
 1779 0018 019B     		ldr	r3, [sp, #4]
 1780 001a 5B68     		ldr	r3, [r3, #4]
 1781 001c 009A     		ldr	r2, [sp]
 1782 001e 1100     		movs	r1, r2
 1783 0020 1800     		movs	r0, r3
 1784 0022 FFF7FEFF 		bl	chEvtSignalI
 1785              		.loc 12 150 0
 1786 0026 C046     		nop
 1787 0028 03B0     		add	sp, sp, #12
 1788              		@ sp needed
 1789 002a 00BD     		pop	{pc}
 1790              	.L119:
 1791              		.align	2
 1792              	.L118:
 1793 002c 00000000 		.word	_ZZN10chibios_rt15ThreadReference13signalEventsIEmE8__func__
 1794              		.cfi_endproc
 1795              	.LFE202:
 1796              		.size	_ZN10chibios_rt15ThreadReference13signalEventsIEm, .-_ZN10chibios_rt15ThreadReference13signa
 1797              		.section	.text._ZN10chibios_rt10BaseThreadC2Ev,"ax",%progbits
 1798              		.align	1
 1799              		.p2align 4,,15
 1800              		.global	_ZN10chibios_rt10BaseThreadC2Ev
 1801              		.syntax unified
 1802              		.code	16
 1803              		.thumb_func
 1804              		.fpu softvfp
 1805              		.type	_ZN10chibios_rt10BaseThreadC2Ev, %function
 1806              	_ZN10chibios_rt10BaseThreadC2Ev:
 1807              	.LFB204:
 1808              		.loc 12 159 0
 1809              		.cfi_startproc
 1810              		@ args = 0, pretend = 0, frame = 8
 1811              		@ frame_needed = 0, uses_anonymous_args = 0
 1812 0000 00B5     		push	{lr}
 1813              		.cfi_def_cfa_offset 4
 1814              		.cfi_offset 14, -4
 1815 0002 83B0     		sub	sp, sp, #12
 1816              		.cfi_def_cfa_offset 16
 1817 0004 0190     		str	r0, [sp, #4]
 1818              	.LBB11:
 1819              		.loc 12 159 0
 1820 0006 019B     		ldr	r3, [sp, #4]
ARM GAS  /tmp/ccvPPVYB.s 			page 33


 1821 0008 0021     		movs	r1, #0
 1822 000a 1800     		movs	r0, r3
 1823 000c FFF7FEFF 		bl	_ZN10chibios_rt15ThreadReferenceC2EP9ch_thread
 1824 0010 034A     		ldr	r2, .L122
 1825 0012 019B     		ldr	r3, [sp, #4]
 1826 0014 1A60     		str	r2, [r3]
 1827              	.LBE11:
 1828              		.loc 12 161 0
 1829 0016 019B     		ldr	r3, [sp, #4]
 1830 0018 1800     		movs	r0, r3
 1831 001a 03B0     		add	sp, sp, #12
 1832              		@ sp needed
 1833 001c 00BD     		pop	{pc}
 1834              	.L123:
 1835 001e C046     		.align	2
 1836              	.L122:
 1837 0020 08000000 		.word	_ZTVN10chibios_rt10BaseThreadE+8
 1838              		.cfi_endproc
 1839              	.LFE204:
 1840              		.size	_ZN10chibios_rt10BaseThreadC2Ev, .-_ZN10chibios_rt10BaseThreadC2Ev
 1841              		.global	_ZN10chibios_rt10BaseThreadC1Ev
 1842              		.thumb_set _ZN10chibios_rt10BaseThreadC1Ev,_ZN10chibios_rt10BaseThreadC2Ev
 1843              		.section	.text._ZN10chibios_rt10BaseThread4mainEv,"ax",%progbits
 1844              		.align	1
 1845              		.p2align 4,,15
 1846              		.global	_ZN10chibios_rt10BaseThread4mainEv
 1847              		.syntax unified
 1848              		.code	16
 1849              		.thumb_func
 1850              		.fpu softvfp
 1851              		.type	_ZN10chibios_rt10BaseThread4mainEv, %function
 1852              	_ZN10chibios_rt10BaseThread4mainEv:
 1853              	.LFB206:
 1854              		.loc 12 163 0
 1855              		.cfi_startproc
 1856              		@ args = 0, pretend = 0, frame = 8
 1857              		@ frame_needed = 0, uses_anonymous_args = 0
 1858              		@ link register save eliminated.
 1859 0000 82B0     		sub	sp, sp, #8
 1860              		.cfi_def_cfa_offset 8
 1861 0002 0190     		str	r0, [sp, #4]
 1862              		.loc 12 165 0
 1863 0004 C046     		nop
 1864 0006 02B0     		add	sp, sp, #8
 1865              		@ sp needed
 1866 0008 7047     		bx	lr
 1867              		.cfi_endproc
 1868              	.LFE206:
 1869              		.size	_ZN10chibios_rt10BaseThread4mainEv, .-_ZN10chibios_rt10BaseThread4mainEv
 1870              		.section	.text._ZN10chibios_rt15ThreadReferenceC2ERKS0_,"axG",%progbits,_ZN10chibios_rt15ThreadRef
 1871              		.align	1
 1872              		.p2align 4,,15
 1873              		.weak	_ZN10chibios_rt15ThreadReferenceC2ERKS0_
 1874              		.syntax unified
 1875              		.code	16
 1876              		.thumb_func
 1877              		.fpu softvfp
ARM GAS  /tmp/ccvPPVYB.s 			page 34


 1878              		.type	_ZN10chibios_rt15ThreadReferenceC2ERKS0_, %function
 1879              	_ZN10chibios_rt15ThreadReferenceC2ERKS0_:
 1880              	.LFB209:
 1881              		.loc 11 397 0
 1882              		.cfi_startproc
 1883              		@ args = 0, pretend = 0, frame = 8
 1884              		@ frame_needed = 0, uses_anonymous_args = 0
 1885              		@ link register save eliminated.
 1886 0000 82B0     		sub	sp, sp, #8
 1887              		.cfi_def_cfa_offset 8
 1888 0002 0190     		str	r0, [sp, #4]
 1889 0004 0091     		str	r1, [sp]
 1890              	.LBB12:
 1891              		.loc 11 397 0
 1892 0006 054A     		ldr	r2, .L127
 1893 0008 019B     		ldr	r3, [sp, #4]
 1894 000a 1A60     		str	r2, [r3]
 1895 000c 009B     		ldr	r3, [sp]
 1896 000e 5A68     		ldr	r2, [r3, #4]
 1897 0010 019B     		ldr	r3, [sp, #4]
 1898 0012 5A60     		str	r2, [r3, #4]
 1899              	.LBE12:
 1900 0014 019B     		ldr	r3, [sp, #4]
 1901 0016 1800     		movs	r0, r3
 1902 0018 02B0     		add	sp, sp, #8
 1903              		@ sp needed
 1904 001a 7047     		bx	lr
 1905              	.L128:
 1906              		.align	2
 1907              	.L127:
 1908 001c 08000000 		.word	_ZTVN10chibios_rt15ThreadReferenceE+8
 1909              		.cfi_endproc
 1910              	.LFE209:
 1911              		.size	_ZN10chibios_rt15ThreadReferenceC2ERKS0_, .-_ZN10chibios_rt15ThreadReferenceC2ERKS0_
 1912              		.weak	_ZN10chibios_rt15ThreadReferenceC1ERKS0_
 1913              		.thumb_set _ZN10chibios_rt15ThreadReferenceC1ERKS0_,_ZN10chibios_rt15ThreadReferenceC2ERKS0_
 1914              		.section	.text._ZN10chibios_rt10BaseThread5startEm,"ax",%progbits
 1915              		.align	1
 1916              		.p2align 4,,15
 1917              		.global	_ZN10chibios_rt10BaseThread5startEm
 1918              		.syntax unified
 1919              		.code	16
 1920              		.thumb_func
 1921              		.fpu softvfp
 1922              		.type	_ZN10chibios_rt10BaseThread5startEm, %function
 1923              	_ZN10chibios_rt10BaseThread5startEm:
 1924              	.LFB207:
 1925              		.loc 12 167 0
 1926              		.cfi_startproc
 1927              		@ args = 0, pretend = 0, frame = 16
 1928              		@ frame_needed = 0, uses_anonymous_args = 0
 1929 0000 00B5     		push	{lr}
 1930              		.cfi_def_cfa_offset 4
 1931              		.cfi_offset 14, -4
 1932 0002 85B0     		sub	sp, sp, #20
 1933              		.cfi_def_cfa_offset 24
 1934 0004 0390     		str	r0, [sp, #12]
ARM GAS  /tmp/ccvPPVYB.s 			page 35


 1935 0006 0291     		str	r1, [sp, #8]
 1936 0008 0192     		str	r2, [sp, #4]
 1937              		.loc 12 171 0
 1938 000a 029A     		ldr	r2, [sp, #8]
 1939 000c 039B     		ldr	r3, [sp, #12]
 1940 000e 1100     		movs	r1, r2
 1941 0010 1800     		movs	r0, r3
 1942 0012 FFF7FEFF 		bl	_ZN10chibios_rt15ThreadReferenceC1ERKS0_
 1943              		.loc 12 172 0
 1944 0016 0398     		ldr	r0, [sp, #12]
 1945 0018 05B0     		add	sp, sp, #20
 1946              		@ sp needed
 1947 001a 00BD     		pop	{pc}
 1948              		.cfi_endproc
 1949              	.LFE207:
 1950              		.size	_ZN10chibios_rt10BaseThread5startEm, .-_ZN10chibios_rt10BaseThread5startEm
 1951              		.section	.text._ZN10chibios_rt10_thd_startEPv,"ax",%progbits
 1952              		.align	1
 1953              		.p2align 4,,15
 1954              		.global	_ZN10chibios_rt10_thd_startEPv
 1955              		.syntax unified
 1956              		.code	16
 1957              		.thumb_func
 1958              		.fpu softvfp
 1959              		.type	_ZN10chibios_rt10_thd_startEPv, %function
 1960              	_ZN10chibios_rt10_thd_startEPv:
 1961              	.LFB211:
 1962              		.loc 12 174 0
 1963              		.cfi_startproc
 1964              		@ args = 0, pretend = 0, frame = 8
 1965              		@ frame_needed = 0, uses_anonymous_args = 0
 1966 0000 00B5     		push	{lr}
 1967              		.cfi_def_cfa_offset 4
 1968              		.cfi_offset 14, -4
 1969 0002 83B0     		sub	sp, sp, #12
 1970              		.cfi_def_cfa_offset 16
 1971 0004 0190     		str	r0, [sp, #4]
 1972              		.loc 12 176 0
 1973 0006 019B     		ldr	r3, [sp, #4]
 1974 0008 1B68     		ldr	r3, [r3]
 1975 000a 0433     		adds	r3, r3, #4
 1976 000c 1B68     		ldr	r3, [r3]
 1977 000e 019A     		ldr	r2, [sp, #4]
 1978 0010 1000     		movs	r0, r2
 1979 0012 9847     		blx	r3
 1980              	.LVL0:
 1981              		.loc 12 177 0
 1982 0014 C046     		nop
 1983 0016 03B0     		add	sp, sp, #12
 1984              		@ sp needed
 1985 0018 00BD     		pop	{pc}
 1986              		.cfi_endproc
 1987              	.LFE211:
 1988              		.size	_ZN10chibios_rt10_thd_startEPv, .-_ZN10chibios_rt10_thd_startEPv
 1989 001a C046     		.section	.text._ZN10chibios_rt10BaseThread7setNameEPKc,"ax",%progbits
 1990              		.align	1
 1991              		.p2align 4,,15
ARM GAS  /tmp/ccvPPVYB.s 			page 36


 1992              		.global	_ZN10chibios_rt10BaseThread7setNameEPKc
 1993              		.syntax unified
 1994              		.code	16
 1995              		.thumb_func
 1996              		.fpu softvfp
 1997              		.type	_ZN10chibios_rt10BaseThread7setNameEPKc, %function
 1998              	_ZN10chibios_rt10BaseThread7setNameEPKc:
 1999              	.LFB212:
 2000              		.loc 12 179 0
 2001              		.cfi_startproc
 2002              		@ args = 0, pretend = 0, frame = 8
 2003              		@ frame_needed = 0, uses_anonymous_args = 0
 2004 0000 00B5     		push	{lr}
 2005              		.cfi_def_cfa_offset 4
 2006              		.cfi_offset 14, -4
 2007 0002 83B0     		sub	sp, sp, #12
 2008              		.cfi_def_cfa_offset 16
 2009 0004 0190     		str	r0, [sp, #4]
 2010              		.loc 12 181 0
 2011 0006 019B     		ldr	r3, [sp, #4]
 2012 0008 1800     		movs	r0, r3
 2013 000a FFF7FEFF 		bl	_ZL18chRegSetThreadNamePKc
 2014              		.loc 12 182 0
 2015 000e C046     		nop
 2016 0010 03B0     		add	sp, sp, #12
 2017              		@ sp needed
 2018 0012 00BD     		pop	{pc}
 2019              		.cfi_endproc
 2020              	.LFE212:
 2021              		.size	_ZN10chibios_rt10BaseThread7setNameEPKc, .-_ZN10chibios_rt10BaseThread7setNameEPKc
 2022              		.section	.text._ZN10chibios_rt10BaseThread11setPriorityEm,"ax",%progbits
 2023              		.align	1
 2024              		.p2align 4,,15
 2025              		.global	_ZN10chibios_rt10BaseThread11setPriorityEm
 2026              		.syntax unified
 2027              		.code	16
 2028              		.thumb_func
 2029              		.fpu softvfp
 2030              		.type	_ZN10chibios_rt10BaseThread11setPriorityEm, %function
 2031              	_ZN10chibios_rt10BaseThread11setPriorityEm:
 2032              	.LFB213:
 2033              		.loc 12 184 0
 2034              		.cfi_startproc
 2035              		@ args = 0, pretend = 0, frame = 8
 2036              		@ frame_needed = 0, uses_anonymous_args = 0
 2037 0000 00B5     		push	{lr}
 2038              		.cfi_def_cfa_offset 4
 2039              		.cfi_offset 14, -4
 2040 0002 83B0     		sub	sp, sp, #12
 2041              		.cfi_def_cfa_offset 16
 2042 0004 0190     		str	r0, [sp, #4]
 2043              		.loc 12 186 0
 2044 0006 019B     		ldr	r3, [sp, #4]
 2045 0008 1800     		movs	r0, r3
 2046 000a FFF7FEFF 		bl	chThdSetPriority
 2047 000e 0300     		movs	r3, r0
 2048              		.loc 12 187 0
ARM GAS  /tmp/ccvPPVYB.s 			page 37


 2049 0010 1800     		movs	r0, r3
 2050 0012 03B0     		add	sp, sp, #12
 2051              		@ sp needed
 2052 0014 00BD     		pop	{pc}
 2053              		.cfi_endproc
 2054              	.LFE213:
 2055              		.size	_ZN10chibios_rt10BaseThread11setPriorityEm, .-_ZN10chibios_rt10BaseThread11setPriorityEm
 2056 0016 C046     		.section	.text._ZN10chibios_rt10BaseThread4exitEl,"ax",%progbits
 2057              		.align	1
 2058              		.p2align 4,,15
 2059              		.global	_ZN10chibios_rt10BaseThread4exitEl
 2060              		.syntax unified
 2061              		.code	16
 2062              		.thumb_func
 2063              		.fpu softvfp
 2064              		.type	_ZN10chibios_rt10BaseThread4exitEl, %function
 2065              	_ZN10chibios_rt10BaseThread4exitEl:
 2066              	.LFB214:
 2067              		.loc 12 189 0
 2068              		.cfi_startproc
 2069              		@ args = 0, pretend = 0, frame = 8
 2070              		@ frame_needed = 0, uses_anonymous_args = 0
 2071 0000 00B5     		push	{lr}
 2072              		.cfi_def_cfa_offset 4
 2073              		.cfi_offset 14, -4
 2074 0002 83B0     		sub	sp, sp, #12
 2075              		.cfi_def_cfa_offset 16
 2076 0004 0190     		str	r0, [sp, #4]
 2077              		.loc 12 191 0
 2078 0006 019B     		ldr	r3, [sp, #4]
 2079 0008 1800     		movs	r0, r3
 2080 000a FFF7FEFF 		bl	chThdExit
 2081              		.loc 12 192 0
 2082 000e C046     		nop
 2083 0010 03B0     		add	sp, sp, #12
 2084              		@ sp needed
 2085 0012 00BD     		pop	{pc}
 2086              		.cfi_endproc
 2087              	.LFE214:
 2088              		.size	_ZN10chibios_rt10BaseThread4exitEl, .-_ZN10chibios_rt10BaseThread4exitEl
 2089              		.section	.text._ZN10chibios_rt10BaseThread5exitSEl,"ax",%progbits
 2090              		.align	1
 2091              		.p2align 4,,15
 2092              		.global	_ZN10chibios_rt10BaseThread5exitSEl
 2093              		.syntax unified
 2094              		.code	16
 2095              		.thumb_func
 2096              		.fpu softvfp
 2097              		.type	_ZN10chibios_rt10BaseThread5exitSEl, %function
 2098              	_ZN10chibios_rt10BaseThread5exitSEl:
 2099              	.LFB215:
 2100              		.loc 12 194 0
 2101              		.cfi_startproc
 2102              		@ args = 0, pretend = 0, frame = 8
 2103              		@ frame_needed = 0, uses_anonymous_args = 0
 2104 0000 00B5     		push	{lr}
 2105              		.cfi_def_cfa_offset 4
ARM GAS  /tmp/ccvPPVYB.s 			page 38


 2106              		.cfi_offset 14, -4
 2107 0002 83B0     		sub	sp, sp, #12
 2108              		.cfi_def_cfa_offset 16
 2109 0004 0190     		str	r0, [sp, #4]
 2110              		.loc 12 196 0
 2111 0006 019B     		ldr	r3, [sp, #4]
 2112 0008 1800     		movs	r0, r3
 2113 000a FFF7FEFF 		bl	chThdExitS
 2114              		.loc 12 197 0
 2115 000e C046     		nop
 2116 0010 03B0     		add	sp, sp, #12
 2117              		@ sp needed
 2118 0012 00BD     		pop	{pc}
 2119              		.cfi_endproc
 2120              	.LFE215:
 2121              		.size	_ZN10chibios_rt10BaseThread5exitSEl, .-_ZN10chibios_rt10BaseThread5exitSEl
 2122              		.section	.text._ZN10chibios_rt10BaseThread15shouldTerminateEv,"ax",%progbits
 2123              		.align	1
 2124              		.p2align 4,,15
 2125              		.global	_ZN10chibios_rt10BaseThread15shouldTerminateEv
 2126              		.syntax unified
 2127              		.code	16
 2128              		.thumb_func
 2129              		.fpu softvfp
 2130              		.type	_ZN10chibios_rt10BaseThread15shouldTerminateEv, %function
 2131              	_ZN10chibios_rt10BaseThread15shouldTerminateEv:
 2132              	.LFB216:
 2133              		.loc 12 199 0
 2134              		.cfi_startproc
 2135              		@ args = 0, pretend = 0, frame = 0
 2136              		@ frame_needed = 0, uses_anonymous_args = 0
 2137 0000 10B5     		push	{r4, lr}
 2138              		.cfi_def_cfa_offset 8
 2139              		.cfi_offset 4, -8
 2140              		.cfi_offset 14, -4
 2141              		.loc 12 201 0
 2142 0002 FFF7FEFF 		bl	_ZL21chThdShouldTerminateXv
 2143 0006 0300     		movs	r3, r0
 2144              		.loc 12 202 0
 2145 0008 1800     		movs	r0, r3
 2146              		@ sp needed
 2147 000a 10BD     		pop	{r4, pc}
 2148              		.cfi_endproc
 2149              	.LFE216:
 2150              		.size	_ZN10chibios_rt10BaseThread15shouldTerminateEv, .-_ZN10chibios_rt10BaseThread15shouldTermina
 2151              		.section	.text._ZN10chibios_rt10BaseThread5sleepEt,"ax",%progbits
 2152              		.align	1
 2153              		.p2align 4,,15
 2154              		.global	_ZN10chibios_rt10BaseThread5sleepEt
 2155              		.syntax unified
 2156              		.code	16
 2157              		.thumb_func
 2158              		.fpu softvfp
 2159              		.type	_ZN10chibios_rt10BaseThread5sleepEt, %function
 2160              	_ZN10chibios_rt10BaseThread5sleepEt:
 2161              	.LFB217:
 2162              		.loc 12 204 0
ARM GAS  /tmp/ccvPPVYB.s 			page 39


 2163              		.cfi_startproc
 2164              		@ args = 0, pretend = 0, frame = 8
 2165              		@ frame_needed = 0, uses_anonymous_args = 0
 2166 0000 00B5     		push	{lr}
 2167              		.cfi_def_cfa_offset 4
 2168              		.cfi_offset 14, -4
 2169 0002 83B0     		sub	sp, sp, #12
 2170              		.cfi_def_cfa_offset 16
 2171 0004 0200     		movs	r2, r0
 2172 0006 6B46     		mov	r3, sp
 2173 0008 0633     		adds	r3, r3, #6
 2174 000a 1A80     		strh	r2, [r3]
 2175              		.loc 12 206 0
 2176 000c 6B46     		mov	r3, sp
 2177 000e 0633     		adds	r3, r3, #6
 2178 0010 1B88     		ldrh	r3, [r3]
 2179 0012 1800     		movs	r0, r3
 2180 0014 FFF7FEFF 		bl	chThdSleep
 2181              		.loc 12 207 0
 2182 0018 C046     		nop
 2183 001a 03B0     		add	sp, sp, #12
 2184              		@ sp needed
 2185 001c 00BD     		pop	{pc}
 2186              		.cfi_endproc
 2187              	.LFE217:
 2188              		.size	_ZN10chibios_rt10BaseThread5sleepEt, .-_ZN10chibios_rt10BaseThread5sleepEt
 2189 001e C046     		.section	.text._ZN10chibios_rt10BaseThread10sleepUntilEt,"ax",%progbits
 2190              		.align	1
 2191              		.p2align 4,,15
 2192              		.global	_ZN10chibios_rt10BaseThread10sleepUntilEt
 2193              		.syntax unified
 2194              		.code	16
 2195              		.thumb_func
 2196              		.fpu softvfp
 2197              		.type	_ZN10chibios_rt10BaseThread10sleepUntilEt, %function
 2198              	_ZN10chibios_rt10BaseThread10sleepUntilEt:
 2199              	.LFB218:
 2200              		.loc 12 209 0
 2201              		.cfi_startproc
 2202              		@ args = 0, pretend = 0, frame = 8
 2203              		@ frame_needed = 0, uses_anonymous_args = 0
 2204 0000 00B5     		push	{lr}
 2205              		.cfi_def_cfa_offset 4
 2206              		.cfi_offset 14, -4
 2207 0002 83B0     		sub	sp, sp, #12
 2208              		.cfi_def_cfa_offset 16
 2209 0004 0200     		movs	r2, r0
 2210 0006 6B46     		mov	r3, sp
 2211 0008 0633     		adds	r3, r3, #6
 2212 000a 1A80     		strh	r2, [r3]
 2213              		.loc 12 211 0
 2214 000c 6B46     		mov	r3, sp
 2215 000e 0633     		adds	r3, r3, #6
 2216 0010 1B88     		ldrh	r3, [r3]
 2217 0012 1800     		movs	r0, r3
 2218 0014 FFF7FEFF 		bl	chThdSleepUntil
 2219              		.loc 12 212 0
ARM GAS  /tmp/ccvPPVYB.s 			page 40


 2220 0018 C046     		nop
 2221 001a 03B0     		add	sp, sp, #12
 2222              		@ sp needed
 2223 001c 00BD     		pop	{pc}
 2224              		.cfi_endproc
 2225              	.LFE218:
 2226              		.size	_ZN10chibios_rt10BaseThread10sleepUntilEt, .-_ZN10chibios_rt10BaseThread10sleepUntilEt
 2227 001e C046     		.section	.text._ZN10chibios_rt10BaseThread5yieldEv,"ax",%progbits
 2228              		.align	1
 2229              		.p2align 4,,15
 2230              		.global	_ZN10chibios_rt10BaseThread5yieldEv
 2231              		.syntax unified
 2232              		.code	16
 2233              		.thumb_func
 2234              		.fpu softvfp
 2235              		.type	_ZN10chibios_rt10BaseThread5yieldEv, %function
 2236              	_ZN10chibios_rt10BaseThread5yieldEv:
 2237              	.LFB219:
 2238              		.loc 12 214 0
 2239              		.cfi_startproc
 2240              		@ args = 0, pretend = 0, frame = 0
 2241              		@ frame_needed = 0, uses_anonymous_args = 0
 2242 0000 10B5     		push	{r4, lr}
 2243              		.cfi_def_cfa_offset 8
 2244              		.cfi_offset 4, -8
 2245              		.cfi_offset 14, -4
 2246              		.loc 12 216 0
 2247 0002 FFF7FEFF 		bl	chThdYield
 2248              		.loc 12 217 0
 2249 0006 C046     		nop
 2250              		@ sp needed
 2251 0008 10BD     		pop	{r4, pc}
 2252              		.cfi_endproc
 2253              	.LFE219:
 2254              		.size	_ZN10chibios_rt10BaseThread5yieldEv, .-_ZN10chibios_rt10BaseThread5yieldEv
 2255 000a C046     		.section	.text._ZN10chibios_rt10BaseThread11waitMessageEv,"ax",%progbits
 2256              		.align	1
 2257              		.p2align 4,,15
 2258              		.global	_ZN10chibios_rt10BaseThread11waitMessageEv
 2259              		.syntax unified
 2260              		.code	16
 2261              		.thumb_func
 2262              		.fpu softvfp
 2263              		.type	_ZN10chibios_rt10BaseThread11waitMessageEv, %function
 2264              	_ZN10chibios_rt10BaseThread11waitMessageEv:
 2265              	.LFB220:
 2266              		.loc 12 220 0
 2267              		.cfi_startproc
 2268              		@ args = 0, pretend = 0, frame = 8
 2269              		@ frame_needed = 0, uses_anonymous_args = 0
 2270 0000 00B5     		push	{lr}
 2271              		.cfi_def_cfa_offset 4
 2272              		.cfi_offset 14, -4
 2273 0002 83B0     		sub	sp, sp, #12
 2274              		.cfi_def_cfa_offset 16
 2275 0004 0190     		str	r0, [sp, #4]
 2276              		.loc 12 222 0
ARM GAS  /tmp/ccvPPVYB.s 			page 41


 2277 0006 FFF7FEFF 		bl	chMsgWait
 2278 000a 0200     		movs	r2, r0
 2279 000c 019B     		ldr	r3, [sp, #4]
 2280 000e 1100     		movs	r1, r2
 2281 0010 1800     		movs	r0, r3
 2282 0012 FFF7FEFF 		bl	_ZN10chibios_rt15ThreadReferenceC1EP9ch_thread
 2283              		.loc 12 223 0
 2284 0016 C046     		nop
 2285              		.loc 12 224 0
 2286 0018 0198     		ldr	r0, [sp, #4]
 2287 001a 03B0     		add	sp, sp, #12
 2288              		@ sp needed
 2289 001c 00BD     		pop	{pc}
 2290              		.cfi_endproc
 2291              	.LFE220:
 2292              		.size	_ZN10chibios_rt10BaseThread11waitMessageEv, .-_ZN10chibios_rt10BaseThread11waitMessageEv
 2293 001e C046     		.section	.text._ZN10chibios_rt10BaseThread17getAndClearEventsEm,"ax",%progbits
 2294              		.align	1
 2295              		.p2align 4,,15
 2296              		.global	_ZN10chibios_rt10BaseThread17getAndClearEventsEm
 2297              		.syntax unified
 2298              		.code	16
 2299              		.thumb_func
 2300              		.fpu softvfp
 2301              		.type	_ZN10chibios_rt10BaseThread17getAndClearEventsEm, %function
 2302              	_ZN10chibios_rt10BaseThread17getAndClearEventsEm:
 2303              	.LFB224:
 2304              		.loc 12 228 0
 2305              		.cfi_startproc
 2306              		@ args = 0, pretend = 0, frame = 8
 2307              		@ frame_needed = 0, uses_anonymous_args = 0
 2308 0000 00B5     		push	{lr}
 2309              		.cfi_def_cfa_offset 4
 2310              		.cfi_offset 14, -4
 2311 0002 83B0     		sub	sp, sp, #12
 2312              		.cfi_def_cfa_offset 16
 2313 0004 0190     		str	r0, [sp, #4]
 2314              		.loc 12 230 0
 2315 0006 019B     		ldr	r3, [sp, #4]
 2316 0008 1800     		movs	r0, r3
 2317 000a FFF7FEFF 		bl	chEvtGetAndClearEvents
 2318 000e 0300     		movs	r3, r0
 2319              		.loc 12 231 0
 2320 0010 1800     		movs	r0, r3
 2321 0012 03B0     		add	sp, sp, #12
 2322              		@ sp needed
 2323 0014 00BD     		pop	{pc}
 2324              		.cfi_endproc
 2325              	.LFE224:
 2326              		.size	_ZN10chibios_rt10BaseThread17getAndClearEventsEm, .-_ZN10chibios_rt10BaseThread17getAndClear
 2327 0016 C046     		.section	.text._ZN10chibios_rt10BaseThread9addEventsEm,"ax",%progbits
 2328              		.align	1
 2329              		.p2align 4,,15
 2330              		.global	_ZN10chibios_rt10BaseThread9addEventsEm
 2331              		.syntax unified
 2332              		.code	16
 2333              		.thumb_func
ARM GAS  /tmp/ccvPPVYB.s 			page 42


 2334              		.fpu softvfp
 2335              		.type	_ZN10chibios_rt10BaseThread9addEventsEm, %function
 2336              	_ZN10chibios_rt10BaseThread9addEventsEm:
 2337              	.LFB225:
 2338              		.loc 12 233 0
 2339              		.cfi_startproc
 2340              		@ args = 0, pretend = 0, frame = 8
 2341              		@ frame_needed = 0, uses_anonymous_args = 0
 2342 0000 00B5     		push	{lr}
 2343              		.cfi_def_cfa_offset 4
 2344              		.cfi_offset 14, -4
 2345 0002 83B0     		sub	sp, sp, #12
 2346              		.cfi_def_cfa_offset 16
 2347 0004 0190     		str	r0, [sp, #4]
 2348              		.loc 12 235 0
 2349 0006 019B     		ldr	r3, [sp, #4]
 2350 0008 1800     		movs	r0, r3
 2351 000a FFF7FEFF 		bl	chEvtAddEvents
 2352 000e 0300     		movs	r3, r0
 2353              		.loc 12 236 0
 2354 0010 1800     		movs	r0, r3
 2355 0012 03B0     		add	sp, sp, #12
 2356              		@ sp needed
 2357 0014 00BD     		pop	{pc}
 2358              		.cfi_endproc
 2359              	.LFE225:
 2360              		.size	_ZN10chibios_rt10BaseThread9addEventsEm, .-_ZN10chibios_rt10BaseThread9addEventsEm
 2361 0016 C046     		.section	.text._ZN10chibios_rt10BaseThread12waitOneEventEm,"ax",%progbits
 2362              		.align	1
 2363              		.p2align 4,,15
 2364              		.global	_ZN10chibios_rt10BaseThread12waitOneEventEm
 2365              		.syntax unified
 2366              		.code	16
 2367              		.thumb_func
 2368              		.fpu softvfp
 2369              		.type	_ZN10chibios_rt10BaseThread12waitOneEventEm, %function
 2370              	_ZN10chibios_rt10BaseThread12waitOneEventEm:
 2371              	.LFB226:
 2372              		.loc 12 238 0
 2373              		.cfi_startproc
 2374              		@ args = 0, pretend = 0, frame = 8
 2375              		@ frame_needed = 0, uses_anonymous_args = 0
 2376 0000 00B5     		push	{lr}
 2377              		.cfi_def_cfa_offset 4
 2378              		.cfi_offset 14, -4
 2379 0002 83B0     		sub	sp, sp, #12
 2380              		.cfi_def_cfa_offset 16
 2381 0004 0190     		str	r0, [sp, #4]
 2382              		.loc 12 240 0
 2383 0006 019B     		ldr	r3, [sp, #4]
 2384 0008 1800     		movs	r0, r3
 2385 000a FFF7FEFF 		bl	chEvtWaitOne
 2386 000e 0300     		movs	r3, r0
 2387              		.loc 12 241 0
 2388 0010 1800     		movs	r0, r3
 2389 0012 03B0     		add	sp, sp, #12
 2390              		@ sp needed
ARM GAS  /tmp/ccvPPVYB.s 			page 43


 2391 0014 00BD     		pop	{pc}
 2392              		.cfi_endproc
 2393              	.LFE226:
 2394              		.size	_ZN10chibios_rt10BaseThread12waitOneEventEm, .-_ZN10chibios_rt10BaseThread12waitOneEventEm
 2395 0016 C046     		.section	.text._ZN10chibios_rt10BaseThread12waitAnyEventEm,"ax",%progbits
 2396              		.align	1
 2397              		.p2align 4,,15
 2398              		.global	_ZN10chibios_rt10BaseThread12waitAnyEventEm
 2399              		.syntax unified
 2400              		.code	16
 2401              		.thumb_func
 2402              		.fpu softvfp
 2403              		.type	_ZN10chibios_rt10BaseThread12waitAnyEventEm, %function
 2404              	_ZN10chibios_rt10BaseThread12waitAnyEventEm:
 2405              	.LFB227:
 2406              		.loc 12 243 0
 2407              		.cfi_startproc
 2408              		@ args = 0, pretend = 0, frame = 8
 2409              		@ frame_needed = 0, uses_anonymous_args = 0
 2410 0000 00B5     		push	{lr}
 2411              		.cfi_def_cfa_offset 4
 2412              		.cfi_offset 14, -4
 2413 0002 83B0     		sub	sp, sp, #12
 2414              		.cfi_def_cfa_offset 16
 2415 0004 0190     		str	r0, [sp, #4]
 2416              		.loc 12 245 0
 2417 0006 019B     		ldr	r3, [sp, #4]
 2418 0008 1800     		movs	r0, r3
 2419 000a FFF7FEFF 		bl	chEvtWaitAny
 2420 000e 0300     		movs	r3, r0
 2421              		.loc 12 246 0
 2422 0010 1800     		movs	r0, r3
 2423 0012 03B0     		add	sp, sp, #12
 2424              		@ sp needed
 2425 0014 00BD     		pop	{pc}
 2426              		.cfi_endproc
 2427              	.LFE227:
 2428              		.size	_ZN10chibios_rt10BaseThread12waitAnyEventEm, .-_ZN10chibios_rt10BaseThread12waitAnyEventEm
 2429 0016 C046     		.section	.text._ZN10chibios_rt10BaseThread13waitAllEventsEm,"ax",%progbits
 2430              		.align	1
 2431              		.p2align 4,,15
 2432              		.global	_ZN10chibios_rt10BaseThread13waitAllEventsEm
 2433              		.syntax unified
 2434              		.code	16
 2435              		.thumb_func
 2436              		.fpu softvfp
 2437              		.type	_ZN10chibios_rt10BaseThread13waitAllEventsEm, %function
 2438              	_ZN10chibios_rt10BaseThread13waitAllEventsEm:
 2439              	.LFB228:
 2440              		.loc 12 248 0
 2441              		.cfi_startproc
 2442              		@ args = 0, pretend = 0, frame = 8
 2443              		@ frame_needed = 0, uses_anonymous_args = 0
 2444 0000 00B5     		push	{lr}
 2445              		.cfi_def_cfa_offset 4
 2446              		.cfi_offset 14, -4
 2447 0002 83B0     		sub	sp, sp, #12
ARM GAS  /tmp/ccvPPVYB.s 			page 44


 2448              		.cfi_def_cfa_offset 16
 2449 0004 0190     		str	r0, [sp, #4]
 2450              		.loc 12 250 0
 2451 0006 019B     		ldr	r3, [sp, #4]
 2452 0008 1800     		movs	r0, r3
 2453 000a FFF7FEFF 		bl	chEvtWaitAll
 2454 000e 0300     		movs	r3, r0
 2455              		.loc 12 251 0
 2456 0010 1800     		movs	r0, r3
 2457 0012 03B0     		add	sp, sp, #12
 2458              		@ sp needed
 2459 0014 00BD     		pop	{pc}
 2460              		.cfi_endproc
 2461              	.LFE228:
 2462              		.size	_ZN10chibios_rt10BaseThread13waitAllEventsEm, .-_ZN10chibios_rt10BaseThread13waitAllEventsEm
 2463 0016 C046     		.section	.text._ZN10chibios_rt10BaseThread19waitOneEventTimeoutEmt,"ax",%progbits
 2464              		.align	1
 2465              		.p2align 4,,15
 2466              		.global	_ZN10chibios_rt10BaseThread19waitOneEventTimeoutEmt
 2467              		.syntax unified
 2468              		.code	16
 2469              		.thumb_func
 2470              		.fpu softvfp
 2471              		.type	_ZN10chibios_rt10BaseThread19waitOneEventTimeoutEmt, %function
 2472              	_ZN10chibios_rt10BaseThread19waitOneEventTimeoutEmt:
 2473              	.LFB229:
 2474              		.loc 12 255 0
 2475              		.cfi_startproc
 2476              		@ args = 0, pretend = 0, frame = 8
 2477              		@ frame_needed = 0, uses_anonymous_args = 0
 2478 0000 00B5     		push	{lr}
 2479              		.cfi_def_cfa_offset 4
 2480              		.cfi_offset 14, -4
 2481 0002 83B0     		sub	sp, sp, #12
 2482              		.cfi_def_cfa_offset 16
 2483 0004 0190     		str	r0, [sp, #4]
 2484 0006 0A00     		movs	r2, r1
 2485 0008 6B46     		mov	r3, sp
 2486 000a 0233     		adds	r3, r3, #2
 2487 000c 1A80     		strh	r2, [r3]
 2488              		.loc 12 257 0
 2489 000e 6B46     		mov	r3, sp
 2490 0010 0233     		adds	r3, r3, #2
 2491 0012 1A88     		ldrh	r2, [r3]
 2492 0014 019B     		ldr	r3, [sp, #4]
 2493 0016 1100     		movs	r1, r2
 2494 0018 1800     		movs	r0, r3
 2495 001a FFF7FEFF 		bl	chEvtWaitOneTimeout
 2496 001e 0300     		movs	r3, r0
 2497              		.loc 12 258 0
 2498 0020 1800     		movs	r0, r3
 2499 0022 03B0     		add	sp, sp, #12
 2500              		@ sp needed
 2501 0024 00BD     		pop	{pc}
 2502              		.cfi_endproc
 2503              	.LFE229:
 2504              		.size	_ZN10chibios_rt10BaseThread19waitOneEventTimeoutEmt, .-_ZN10chibios_rt10BaseThread19waitOneE
ARM GAS  /tmp/ccvPPVYB.s 			page 45


 2505 0026 C046     		.section	.text._ZN10chibios_rt10BaseThread19waitAnyEventTimeoutEmt,"ax",%progbits
 2506              		.align	1
 2507              		.p2align 4,,15
 2508              		.global	_ZN10chibios_rt10BaseThread19waitAnyEventTimeoutEmt
 2509              		.syntax unified
 2510              		.code	16
 2511              		.thumb_func
 2512              		.fpu softvfp
 2513              		.type	_ZN10chibios_rt10BaseThread19waitAnyEventTimeoutEmt, %function
 2514              	_ZN10chibios_rt10BaseThread19waitAnyEventTimeoutEmt:
 2515              	.LFB230:
 2516              		.loc 12 261 0
 2517              		.cfi_startproc
 2518              		@ args = 0, pretend = 0, frame = 8
 2519              		@ frame_needed = 0, uses_anonymous_args = 0
 2520 0000 00B5     		push	{lr}
 2521              		.cfi_def_cfa_offset 4
 2522              		.cfi_offset 14, -4
 2523 0002 83B0     		sub	sp, sp, #12
 2524              		.cfi_def_cfa_offset 16
 2525 0004 0190     		str	r0, [sp, #4]
 2526 0006 0A00     		movs	r2, r1
 2527 0008 6B46     		mov	r3, sp
 2528 000a 0233     		adds	r3, r3, #2
 2529 000c 1A80     		strh	r2, [r3]
 2530              		.loc 12 263 0
 2531 000e 6B46     		mov	r3, sp
 2532 0010 0233     		adds	r3, r3, #2
 2533 0012 1A88     		ldrh	r2, [r3]
 2534 0014 019B     		ldr	r3, [sp, #4]
 2535 0016 1100     		movs	r1, r2
 2536 0018 1800     		movs	r0, r3
 2537 001a FFF7FEFF 		bl	chEvtWaitAnyTimeout
 2538 001e 0300     		movs	r3, r0
 2539              		.loc 12 264 0
 2540 0020 1800     		movs	r0, r3
 2541 0022 03B0     		add	sp, sp, #12
 2542              		@ sp needed
 2543 0024 00BD     		pop	{pc}
 2544              		.cfi_endproc
 2545              	.LFE230:
 2546              		.size	_ZN10chibios_rt10BaseThread19waitAnyEventTimeoutEmt, .-_ZN10chibios_rt10BaseThread19waitAnyE
 2547 0026 C046     		.section	.text._ZN10chibios_rt10BaseThread20waitAllEventsTimeoutEmt,"ax",%progbits
 2548              		.align	1
 2549              		.p2align 4,,15
 2550              		.global	_ZN10chibios_rt10BaseThread20waitAllEventsTimeoutEmt
 2551              		.syntax unified
 2552              		.code	16
 2553              		.thumb_func
 2554              		.fpu softvfp
 2555              		.type	_ZN10chibios_rt10BaseThread20waitAllEventsTimeoutEmt, %function
 2556              	_ZN10chibios_rt10BaseThread20waitAllEventsTimeoutEmt:
 2557              	.LFB231:
 2558              		.loc 12 267 0
 2559              		.cfi_startproc
 2560              		@ args = 0, pretend = 0, frame = 8
 2561              		@ frame_needed = 0, uses_anonymous_args = 0
ARM GAS  /tmp/ccvPPVYB.s 			page 46


 2562 0000 00B5     		push	{lr}
 2563              		.cfi_def_cfa_offset 4
 2564              		.cfi_offset 14, -4
 2565 0002 83B0     		sub	sp, sp, #12
 2566              		.cfi_def_cfa_offset 16
 2567 0004 0190     		str	r0, [sp, #4]
 2568 0006 0A00     		movs	r2, r1
 2569 0008 6B46     		mov	r3, sp
 2570 000a 0233     		adds	r3, r3, #2
 2571 000c 1A80     		strh	r2, [r3]
 2572              		.loc 12 269 0
 2573 000e 6B46     		mov	r3, sp
 2574 0010 0233     		adds	r3, r3, #2
 2575 0012 1A88     		ldrh	r2, [r3]
 2576 0014 019B     		ldr	r3, [sp, #4]
 2577 0016 1100     		movs	r1, r2
 2578 0018 1800     		movs	r0, r3
 2579 001a FFF7FEFF 		bl	chEvtWaitAllTimeout
 2580 001e 0300     		movs	r3, r0
 2581              		.loc 12 270 0
 2582 0020 1800     		movs	r0, r3
 2583 0022 03B0     		add	sp, sp, #12
 2584              		@ sp needed
 2585 0024 00BD     		pop	{pc}
 2586              		.cfi_endproc
 2587              	.LFE231:
 2588              		.size	_ZN10chibios_rt10BaseThread20waitAllEventsTimeoutEmt, .-_ZN10chibios_rt10BaseThread20waitAll
 2589 0026 C046     		.section	.text._ZN10chibios_rt10BaseThread14dispatchEventsEPKPFvlEm,"ax",%progbits
 2590              		.align	1
 2591              		.p2align 4,,15
 2592              		.global	_ZN10chibios_rt10BaseThread14dispatchEventsEPKPFvlEm
 2593              		.syntax unified
 2594              		.code	16
 2595              		.thumb_func
 2596              		.fpu softvfp
 2597              		.type	_ZN10chibios_rt10BaseThread14dispatchEventsEPKPFvlEm, %function
 2598              	_ZN10chibios_rt10BaseThread14dispatchEventsEPKPFvlEm:
 2599              	.LFB232:
 2600              		.loc 12 274 0
 2601              		.cfi_startproc
 2602              		@ args = 0, pretend = 0, frame = 8
 2603              		@ frame_needed = 0, uses_anonymous_args = 0
 2604 0000 00B5     		push	{lr}
 2605              		.cfi_def_cfa_offset 4
 2606              		.cfi_offset 14, -4
 2607 0002 83B0     		sub	sp, sp, #12
 2608              		.cfi_def_cfa_offset 16
 2609 0004 0190     		str	r0, [sp, #4]
 2610 0006 0091     		str	r1, [sp]
 2611              		.loc 12 276 0
 2612 0008 009A     		ldr	r2, [sp]
 2613 000a 019B     		ldr	r3, [sp, #4]
 2614 000c 1100     		movs	r1, r2
 2615 000e 1800     		movs	r0, r3
 2616 0010 FFF7FEFF 		bl	chEvtDispatch
 2617              		.loc 12 277 0
 2618 0014 C046     		nop
ARM GAS  /tmp/ccvPPVYB.s 			page 47


 2619 0016 03B0     		add	sp, sp, #12
 2620              		@ sp needed
 2621 0018 00BD     		pop	{pc}
 2622              		.cfi_endproc
 2623              	.LFE232:
 2624              		.size	_ZN10chibios_rt10BaseThread14dispatchEventsEPKPFvlEm, .-_ZN10chibios_rt10BaseThread14dispatc
 2625 001a C046     		.section	.text._ZN10chibios_rt10BaseThread11unlockMutexEPNS_5MutexE,"ax",%progbits
 2626              		.align	1
 2627              		.p2align 4,,15
 2628              		.global	_ZN10chibios_rt10BaseThread11unlockMutexEPNS_5MutexE
 2629              		.syntax unified
 2630              		.code	16
 2631              		.thumb_func
 2632              		.fpu softvfp
 2633              		.type	_ZN10chibios_rt10BaseThread11unlockMutexEPNS_5MutexE, %function
 2634              	_ZN10chibios_rt10BaseThread11unlockMutexEPNS_5MutexE:
 2635              	.LFB233:
 2636              		.loc 12 281 0
 2637              		.cfi_startproc
 2638              		@ args = 0, pretend = 0, frame = 8
 2639              		@ frame_needed = 0, uses_anonymous_args = 0
 2640 0000 00B5     		push	{lr}
 2641              		.cfi_def_cfa_offset 4
 2642              		.cfi_offset 14, -4
 2643 0002 83B0     		sub	sp, sp, #12
 2644              		.cfi_def_cfa_offset 16
 2645 0004 0190     		str	r0, [sp, #4]
 2646              		.loc 12 283 0
 2647 0006 019B     		ldr	r3, [sp, #4]
 2648 0008 1800     		movs	r0, r3
 2649 000a FFF7FEFF 		bl	chMtxUnlock
 2650              		.loc 12 284 0
 2651 000e C046     		nop
 2652 0010 03B0     		add	sp, sp, #12
 2653              		@ sp needed
 2654 0012 00BD     		pop	{pc}
 2655              		.cfi_endproc
 2656              	.LFE233:
 2657              		.size	_ZN10chibios_rt10BaseThread11unlockMutexEPNS_5MutexE, .-_ZN10chibios_rt10BaseThread11unlockM
 2658              		.section	.text._ZN10chibios_rt10BaseThread12unlockMutexSEPNS_5MutexE,"ax",%progbits
 2659              		.align	1
 2660              		.p2align 4,,15
 2661              		.global	_ZN10chibios_rt10BaseThread12unlockMutexSEPNS_5MutexE
 2662              		.syntax unified
 2663              		.code	16
 2664              		.thumb_func
 2665              		.fpu softvfp
 2666              		.type	_ZN10chibios_rt10BaseThread12unlockMutexSEPNS_5MutexE, %function
 2667              	_ZN10chibios_rt10BaseThread12unlockMutexSEPNS_5MutexE:
 2668              	.LFB234:
 2669              		.loc 12 286 0
 2670              		.cfi_startproc
 2671              		@ args = 0, pretend = 0, frame = 8
 2672              		@ frame_needed = 0, uses_anonymous_args = 0
 2673 0000 00B5     		push	{lr}
 2674              		.cfi_def_cfa_offset 4
 2675              		.cfi_offset 14, -4
ARM GAS  /tmp/ccvPPVYB.s 			page 48


 2676 0002 83B0     		sub	sp, sp, #12
 2677              		.cfi_def_cfa_offset 16
 2678 0004 0190     		str	r0, [sp, #4]
 2679              		.loc 12 288 0
 2680 0006 019B     		ldr	r3, [sp, #4]
 2681 0008 1800     		movs	r0, r3
 2682 000a FFF7FEFF 		bl	chMtxUnlockS
 2683              		.loc 12 289 0
 2684 000e C046     		nop
 2685 0010 03B0     		add	sp, sp, #12
 2686              		@ sp needed
 2687 0012 00BD     		pop	{pc}
 2688              		.cfi_endproc
 2689              	.LFE234:
 2690              		.size	_ZN10chibios_rt10BaseThread12unlockMutexSEPNS_5MutexE, .-_ZN10chibios_rt10BaseThread12unlock
 2691              		.section	.text._ZN10chibios_rt10BaseThread16unlockAllMutexesEv,"ax",%progbits
 2692              		.align	1
 2693              		.p2align 4,,15
 2694              		.global	_ZN10chibios_rt10BaseThread16unlockAllMutexesEv
 2695              		.syntax unified
 2696              		.code	16
 2697              		.thumb_func
 2698              		.fpu softvfp
 2699              		.type	_ZN10chibios_rt10BaseThread16unlockAllMutexesEv, %function
 2700              	_ZN10chibios_rt10BaseThread16unlockAllMutexesEv:
 2701              	.LFB235:
 2702              		.loc 12 291 0
 2703              		.cfi_startproc
 2704              		@ args = 0, pretend = 0, frame = 0
 2705              		@ frame_needed = 0, uses_anonymous_args = 0
 2706 0000 10B5     		push	{r4, lr}
 2707              		.cfi_def_cfa_offset 8
 2708              		.cfi_offset 4, -8
 2709              		.cfi_offset 14, -4
 2710              		.loc 12 293 0
 2711 0002 FFF7FEFF 		bl	chMtxUnlockAll
 2712              		.loc 12 294 0
 2713 0006 C046     		nop
 2714              		@ sp needed
 2715 0008 10BD     		pop	{r4, pc}
 2716              		.cfi_endproc
 2717              	.LFE235:
 2718              		.size	_ZN10chibios_rt10BaseThread16unlockAllMutexesEv, .-_ZN10chibios_rt10BaseThread16unlockAllMut
 2719 000a C046     		.section	.text._ZN10chibios_rt16CounterSemaphoreC2El,"ax",%progbits
 2720              		.align	1
 2721              		.p2align 4,,15
 2722              		.global	_ZN10chibios_rt16CounterSemaphoreC2El
 2723              		.syntax unified
 2724              		.code	16
 2725              		.thumb_func
 2726              		.fpu softvfp
 2727              		.type	_ZN10chibios_rt16CounterSemaphoreC2El, %function
 2728              	_ZN10chibios_rt16CounterSemaphoreC2El:
 2729              	.LFB237:
 2730              		.loc 12 301 0
 2731              		.cfi_startproc
 2732              		@ args = 0, pretend = 0, frame = 8
ARM GAS  /tmp/ccvPPVYB.s 			page 49


 2733              		@ frame_needed = 0, uses_anonymous_args = 0
 2734 0000 00B5     		push	{lr}
 2735              		.cfi_def_cfa_offset 4
 2736              		.cfi_offset 14, -4
 2737 0002 83B0     		sub	sp, sp, #12
 2738              		.cfi_def_cfa_offset 16
 2739 0004 0190     		str	r0, [sp, #4]
 2740 0006 0091     		str	r1, [sp]
 2741              	.LBB13:
 2742              		.loc 12 303 0
 2743 0008 019B     		ldr	r3, [sp, #4]
 2744 000a 009A     		ldr	r2, [sp]
 2745 000c 1100     		movs	r1, r2
 2746 000e 1800     		movs	r0, r3
 2747 0010 FFF7FEFF 		bl	chSemObjectInit
 2748              	.LBE13:
 2749              		.loc 12 304 0
 2750 0014 019B     		ldr	r3, [sp, #4]
 2751 0016 1800     		movs	r0, r3
 2752 0018 03B0     		add	sp, sp, #12
 2753              		@ sp needed
 2754 001a 00BD     		pop	{pc}
 2755              		.cfi_endproc
 2756              	.LFE237:
 2757              		.size	_ZN10chibios_rt16CounterSemaphoreC2El, .-_ZN10chibios_rt16CounterSemaphoreC2El
 2758              		.global	_ZN10chibios_rt16CounterSemaphoreC1El
 2759              		.thumb_set _ZN10chibios_rt16CounterSemaphoreC1El,_ZN10chibios_rt16CounterSemaphoreC2El
 2760              		.section	.text._ZN10chibios_rt16CounterSemaphore5resetEl,"ax",%progbits
 2761              		.align	1
 2762              		.p2align 4,,15
 2763              		.global	_ZN10chibios_rt16CounterSemaphore5resetEl
 2764              		.syntax unified
 2765              		.code	16
 2766              		.thumb_func
 2767              		.fpu softvfp
 2768              		.type	_ZN10chibios_rt16CounterSemaphore5resetEl, %function
 2769              	_ZN10chibios_rt16CounterSemaphore5resetEl:
 2770              	.LFB239:
 2771              		.loc 12 306 0
 2772              		.cfi_startproc
 2773              		@ args = 0, pretend = 0, frame = 8
 2774              		@ frame_needed = 0, uses_anonymous_args = 0
 2775 0000 00B5     		push	{lr}
 2776              		.cfi_def_cfa_offset 4
 2777              		.cfi_offset 14, -4
 2778 0002 83B0     		sub	sp, sp, #12
 2779              		.cfi_def_cfa_offset 16
 2780 0004 0190     		str	r0, [sp, #4]
 2781 0006 0091     		str	r1, [sp]
 2782              		.loc 12 308 0
 2783 0008 019B     		ldr	r3, [sp, #4]
 2784 000a 009A     		ldr	r2, [sp]
 2785 000c 1100     		movs	r1, r2
 2786 000e 1800     		movs	r0, r3
 2787 0010 FFF7FEFF 		bl	chSemReset
 2788              		.loc 12 309 0
 2789 0014 C046     		nop
ARM GAS  /tmp/ccvPPVYB.s 			page 50


 2790 0016 03B0     		add	sp, sp, #12
 2791              		@ sp needed
 2792 0018 00BD     		pop	{pc}
 2793              		.cfi_endproc
 2794              	.LFE239:
 2795              		.size	_ZN10chibios_rt16CounterSemaphore5resetEl, .-_ZN10chibios_rt16CounterSemaphore5resetEl
 2796 001a C046     		.section	.text._ZN10chibios_rt16CounterSemaphore6resetIEl,"ax",%progbits
 2797              		.align	1
 2798              		.p2align 4,,15
 2799              		.global	_ZN10chibios_rt16CounterSemaphore6resetIEl
 2800              		.syntax unified
 2801              		.code	16
 2802              		.thumb_func
 2803              		.fpu softvfp
 2804              		.type	_ZN10chibios_rt16CounterSemaphore6resetIEl, %function
 2805              	_ZN10chibios_rt16CounterSemaphore6resetIEl:
 2806              	.LFB240:
 2807              		.loc 12 311 0
 2808              		.cfi_startproc
 2809              		@ args = 0, pretend = 0, frame = 8
 2810              		@ frame_needed = 0, uses_anonymous_args = 0
 2811 0000 00B5     		push	{lr}
 2812              		.cfi_def_cfa_offset 4
 2813              		.cfi_offset 14, -4
 2814 0002 83B0     		sub	sp, sp, #12
 2815              		.cfi_def_cfa_offset 16
 2816 0004 0190     		str	r0, [sp, #4]
 2817 0006 0091     		str	r1, [sp]
 2818              		.loc 12 313 0
 2819 0008 019B     		ldr	r3, [sp, #4]
 2820 000a 009A     		ldr	r2, [sp]
 2821 000c 1100     		movs	r1, r2
 2822 000e 1800     		movs	r0, r3
 2823 0010 FFF7FEFF 		bl	chSemResetI
 2824              		.loc 12 314 0
 2825 0014 C046     		nop
 2826 0016 03B0     		add	sp, sp, #12
 2827              		@ sp needed
 2828 0018 00BD     		pop	{pc}
 2829              		.cfi_endproc
 2830              	.LFE240:
 2831              		.size	_ZN10chibios_rt16CounterSemaphore6resetIEl, .-_ZN10chibios_rt16CounterSemaphore6resetIEl
 2832 001a C046     		.section	.text._ZN10chibios_rt16CounterSemaphore4waitEv,"ax",%progbits
 2833              		.align	1
 2834              		.p2align 4,,15
 2835              		.global	_ZN10chibios_rt16CounterSemaphore4waitEv
 2836              		.syntax unified
 2837              		.code	16
 2838              		.thumb_func
 2839              		.fpu softvfp
 2840              		.type	_ZN10chibios_rt16CounterSemaphore4waitEv, %function
 2841              	_ZN10chibios_rt16CounterSemaphore4waitEv:
 2842              	.LFB241:
 2843              		.loc 12 316 0
 2844              		.cfi_startproc
 2845              		@ args = 0, pretend = 0, frame = 8
 2846              		@ frame_needed = 0, uses_anonymous_args = 0
ARM GAS  /tmp/ccvPPVYB.s 			page 51


 2847 0000 00B5     		push	{lr}
 2848              		.cfi_def_cfa_offset 4
 2849              		.cfi_offset 14, -4
 2850 0002 83B0     		sub	sp, sp, #12
 2851              		.cfi_def_cfa_offset 16
 2852 0004 0190     		str	r0, [sp, #4]
 2853              		.loc 12 318 0
 2854 0006 019B     		ldr	r3, [sp, #4]
 2855 0008 1800     		movs	r0, r3
 2856 000a FFF7FEFF 		bl	chSemWait
 2857 000e 0300     		movs	r3, r0
 2858              		.loc 12 319 0
 2859 0010 1800     		movs	r0, r3
 2860 0012 03B0     		add	sp, sp, #12
 2861              		@ sp needed
 2862 0014 00BD     		pop	{pc}
 2863              		.cfi_endproc
 2864              	.LFE241:
 2865              		.size	_ZN10chibios_rt16CounterSemaphore4waitEv, .-_ZN10chibios_rt16CounterSemaphore4waitEv
 2866 0016 C046     		.section	.text._ZN10chibios_rt16CounterSemaphore5waitSEv,"ax",%progbits
 2867              		.align	1
 2868              		.p2align 4,,15
 2869              		.global	_ZN10chibios_rt16CounterSemaphore5waitSEv
 2870              		.syntax unified
 2871              		.code	16
 2872              		.thumb_func
 2873              		.fpu softvfp
 2874              		.type	_ZN10chibios_rt16CounterSemaphore5waitSEv, %function
 2875              	_ZN10chibios_rt16CounterSemaphore5waitSEv:
 2876              	.LFB242:
 2877              		.loc 12 321 0
 2878              		.cfi_startproc
 2879              		@ args = 0, pretend = 0, frame = 8
 2880              		@ frame_needed = 0, uses_anonymous_args = 0
 2881 0000 00B5     		push	{lr}
 2882              		.cfi_def_cfa_offset 4
 2883              		.cfi_offset 14, -4
 2884 0002 83B0     		sub	sp, sp, #12
 2885              		.cfi_def_cfa_offset 16
 2886 0004 0190     		str	r0, [sp, #4]
 2887              		.loc 12 323 0
 2888 0006 019B     		ldr	r3, [sp, #4]
 2889 0008 1800     		movs	r0, r3
 2890 000a FFF7FEFF 		bl	chSemWaitS
 2891 000e 0300     		movs	r3, r0
 2892              		.loc 12 324 0
 2893 0010 1800     		movs	r0, r3
 2894 0012 03B0     		add	sp, sp, #12
 2895              		@ sp needed
 2896 0014 00BD     		pop	{pc}
 2897              		.cfi_endproc
 2898              	.LFE242:
 2899              		.size	_ZN10chibios_rt16CounterSemaphore5waitSEv, .-_ZN10chibios_rt16CounterSemaphore5waitSEv
 2900 0016 C046     		.section	.text._ZN10chibios_rt16CounterSemaphore4waitEt,"ax",%progbits
 2901              		.align	1
 2902              		.p2align 4,,15
 2903              		.global	_ZN10chibios_rt16CounterSemaphore4waitEt
ARM GAS  /tmp/ccvPPVYB.s 			page 52


 2904              		.syntax unified
 2905              		.code	16
 2906              		.thumb_func
 2907              		.fpu softvfp
 2908              		.type	_ZN10chibios_rt16CounterSemaphore4waitEt, %function
 2909              	_ZN10chibios_rt16CounterSemaphore4waitEt:
 2910              	.LFB243:
 2911              		.loc 12 326 0
 2912              		.cfi_startproc
 2913              		@ args = 0, pretend = 0, frame = 8
 2914              		@ frame_needed = 0, uses_anonymous_args = 0
 2915 0000 00B5     		push	{lr}
 2916              		.cfi_def_cfa_offset 4
 2917              		.cfi_offset 14, -4
 2918 0002 83B0     		sub	sp, sp, #12
 2919              		.cfi_def_cfa_offset 16
 2920 0004 0190     		str	r0, [sp, #4]
 2921 0006 0A00     		movs	r2, r1
 2922 0008 6B46     		mov	r3, sp
 2923 000a 0233     		adds	r3, r3, #2
 2924 000c 1A80     		strh	r2, [r3]
 2925              		.loc 12 328 0
 2926 000e 019A     		ldr	r2, [sp, #4]
 2927 0010 6B46     		mov	r3, sp
 2928 0012 0233     		adds	r3, r3, #2
 2929 0014 1B88     		ldrh	r3, [r3]
 2930 0016 1900     		movs	r1, r3
 2931 0018 1000     		movs	r0, r2
 2932 001a FFF7FEFF 		bl	chSemWaitTimeout
 2933 001e 0300     		movs	r3, r0
 2934              		.loc 12 329 0
 2935 0020 1800     		movs	r0, r3
 2936 0022 03B0     		add	sp, sp, #12
 2937              		@ sp needed
 2938 0024 00BD     		pop	{pc}
 2939              		.cfi_endproc
 2940              	.LFE243:
 2941              		.size	_ZN10chibios_rt16CounterSemaphore4waitEt, .-_ZN10chibios_rt16CounterSemaphore4waitEt
 2942 0026 C046     		.section	.text._ZN10chibios_rt16CounterSemaphore5waitSEt,"ax",%progbits
 2943              		.align	1
 2944              		.p2align 4,,15
 2945              		.global	_ZN10chibios_rt16CounterSemaphore5waitSEt
 2946              		.syntax unified
 2947              		.code	16
 2948              		.thumb_func
 2949              		.fpu softvfp
 2950              		.type	_ZN10chibios_rt16CounterSemaphore5waitSEt, %function
 2951              	_ZN10chibios_rt16CounterSemaphore5waitSEt:
 2952              	.LFB244:
 2953              		.loc 12 331 0
 2954              		.cfi_startproc
 2955              		@ args = 0, pretend = 0, frame = 8
 2956              		@ frame_needed = 0, uses_anonymous_args = 0
 2957 0000 00B5     		push	{lr}
 2958              		.cfi_def_cfa_offset 4
 2959              		.cfi_offset 14, -4
 2960 0002 83B0     		sub	sp, sp, #12
ARM GAS  /tmp/ccvPPVYB.s 			page 53


 2961              		.cfi_def_cfa_offset 16
 2962 0004 0190     		str	r0, [sp, #4]
 2963 0006 0A00     		movs	r2, r1
 2964 0008 6B46     		mov	r3, sp
 2965 000a 0233     		adds	r3, r3, #2
 2966 000c 1A80     		strh	r2, [r3]
 2967              		.loc 12 333 0
 2968 000e 019A     		ldr	r2, [sp, #4]
 2969 0010 6B46     		mov	r3, sp
 2970 0012 0233     		adds	r3, r3, #2
 2971 0014 1B88     		ldrh	r3, [r3]
 2972 0016 1900     		movs	r1, r3
 2973 0018 1000     		movs	r0, r2
 2974 001a FFF7FEFF 		bl	chSemWaitTimeoutS
 2975 001e 0300     		movs	r3, r0
 2976              		.loc 12 334 0
 2977 0020 1800     		movs	r0, r3
 2978 0022 03B0     		add	sp, sp, #12
 2979              		@ sp needed
 2980 0024 00BD     		pop	{pc}
 2981              		.cfi_endproc
 2982              	.LFE244:
 2983              		.size	_ZN10chibios_rt16CounterSemaphore5waitSEt, .-_ZN10chibios_rt16CounterSemaphore5waitSEt
 2984 0026 C046     		.section	.text._ZN10chibios_rt16CounterSemaphore6signalEv,"ax",%progbits
 2985              		.align	1
 2986              		.p2align 4,,15
 2987              		.global	_ZN10chibios_rt16CounterSemaphore6signalEv
 2988              		.syntax unified
 2989              		.code	16
 2990              		.thumb_func
 2991              		.fpu softvfp
 2992              		.type	_ZN10chibios_rt16CounterSemaphore6signalEv, %function
 2993              	_ZN10chibios_rt16CounterSemaphore6signalEv:
 2994              	.LFB245:
 2995              		.loc 12 336 0
 2996              		.cfi_startproc
 2997              		@ args = 0, pretend = 0, frame = 8
 2998              		@ frame_needed = 0, uses_anonymous_args = 0
 2999 0000 00B5     		push	{lr}
 3000              		.cfi_def_cfa_offset 4
 3001              		.cfi_offset 14, -4
 3002 0002 83B0     		sub	sp, sp, #12
 3003              		.cfi_def_cfa_offset 16
 3004 0004 0190     		str	r0, [sp, #4]
 3005              		.loc 12 338 0
 3006 0006 019B     		ldr	r3, [sp, #4]
 3007 0008 1800     		movs	r0, r3
 3008 000a FFF7FEFF 		bl	chSemSignal
 3009              		.loc 12 339 0
 3010 000e C046     		nop
 3011 0010 03B0     		add	sp, sp, #12
 3012              		@ sp needed
 3013 0012 00BD     		pop	{pc}
 3014              		.cfi_endproc
 3015              	.LFE245:
 3016              		.size	_ZN10chibios_rt16CounterSemaphore6signalEv, .-_ZN10chibios_rt16CounterSemaphore6signalEv
 3017              		.section	.text._ZN10chibios_rt16CounterSemaphore7signalIEv,"ax",%progbits
ARM GAS  /tmp/ccvPPVYB.s 			page 54


 3018              		.align	1
 3019              		.p2align 4,,15
 3020              		.global	_ZN10chibios_rt16CounterSemaphore7signalIEv
 3021              		.syntax unified
 3022              		.code	16
 3023              		.thumb_func
 3024              		.fpu softvfp
 3025              		.type	_ZN10chibios_rt16CounterSemaphore7signalIEv, %function
 3026              	_ZN10chibios_rt16CounterSemaphore7signalIEv:
 3027              	.LFB246:
 3028              		.loc 12 341 0
 3029              		.cfi_startproc
 3030              		@ args = 0, pretend = 0, frame = 8
 3031              		@ frame_needed = 0, uses_anonymous_args = 0
 3032 0000 00B5     		push	{lr}
 3033              		.cfi_def_cfa_offset 4
 3034              		.cfi_offset 14, -4
 3035 0002 83B0     		sub	sp, sp, #12
 3036              		.cfi_def_cfa_offset 16
 3037 0004 0190     		str	r0, [sp, #4]
 3038              		.loc 12 343 0
 3039 0006 019B     		ldr	r3, [sp, #4]
 3040 0008 1800     		movs	r0, r3
 3041 000a FFF7FEFF 		bl	chSemSignalI
 3042              		.loc 12 344 0
 3043 000e C046     		nop
 3044 0010 03B0     		add	sp, sp, #12
 3045              		@ sp needed
 3046 0012 00BD     		pop	{pc}
 3047              		.cfi_endproc
 3048              	.LFE246:
 3049              		.size	_ZN10chibios_rt16CounterSemaphore7signalIEv, .-_ZN10chibios_rt16CounterSemaphore7signalIEv
 3050              		.section	.text._ZN10chibios_rt16CounterSemaphore11addCounterIEl,"ax",%progbits
 3051              		.align	1
 3052              		.p2align 4,,15
 3053              		.global	_ZN10chibios_rt16CounterSemaphore11addCounterIEl
 3054              		.syntax unified
 3055              		.code	16
 3056              		.thumb_func
 3057              		.fpu softvfp
 3058              		.type	_ZN10chibios_rt16CounterSemaphore11addCounterIEl, %function
 3059              	_ZN10chibios_rt16CounterSemaphore11addCounterIEl:
 3060              	.LFB247:
 3061              		.loc 12 346 0
 3062              		.cfi_startproc
 3063              		@ args = 0, pretend = 0, frame = 8
 3064              		@ frame_needed = 0, uses_anonymous_args = 0
 3065 0000 00B5     		push	{lr}
 3066              		.cfi_def_cfa_offset 4
 3067              		.cfi_offset 14, -4
 3068 0002 83B0     		sub	sp, sp, #12
 3069              		.cfi_def_cfa_offset 16
 3070 0004 0190     		str	r0, [sp, #4]
 3071 0006 0091     		str	r1, [sp]
 3072              		.loc 12 348 0
 3073 0008 019B     		ldr	r3, [sp, #4]
 3074 000a 009A     		ldr	r2, [sp]
ARM GAS  /tmp/ccvPPVYB.s 			page 55


 3075 000c 1100     		movs	r1, r2
 3076 000e 1800     		movs	r0, r3
 3077 0010 FFF7FEFF 		bl	chSemAddCounterI
 3078              		.loc 12 349 0
 3079 0014 C046     		nop
 3080 0016 03B0     		add	sp, sp, #12
 3081              		@ sp needed
 3082 0018 00BD     		pop	{pc}
 3083              		.cfi_endproc
 3084              	.LFE247:
 3085              		.size	_ZN10chibios_rt16CounterSemaphore11addCounterIEl, .-_ZN10chibios_rt16CounterSemaphore11addCo
 3086 001a C046     		.section	.text._ZN10chibios_rt16CounterSemaphore11getCounterIEv,"ax",%progbits
 3087              		.align	1
 3088              		.p2align 4,,15
 3089              		.global	_ZN10chibios_rt16CounterSemaphore11getCounterIEv
 3090              		.syntax unified
 3091              		.code	16
 3092              		.thumb_func
 3093              		.fpu softvfp
 3094              		.type	_ZN10chibios_rt16CounterSemaphore11getCounterIEv, %function
 3095              	_ZN10chibios_rt16CounterSemaphore11getCounterIEv:
 3096              	.LFB248:
 3097              		.loc 12 351 0
 3098              		.cfi_startproc
 3099              		@ args = 0, pretend = 0, frame = 8
 3100              		@ frame_needed = 0, uses_anonymous_args = 0
 3101 0000 00B5     		push	{lr}
 3102              		.cfi_def_cfa_offset 4
 3103              		.cfi_offset 14, -4
 3104 0002 83B0     		sub	sp, sp, #12
 3105              		.cfi_def_cfa_offset 16
 3106 0004 0190     		str	r0, [sp, #4]
 3107              		.loc 12 353 0
 3108 0006 019B     		ldr	r3, [sp, #4]
 3109 0008 1800     		movs	r0, r3
 3110 000a FFF7FEFF 		bl	_ZL16chSemGetCounterIP12ch_semaphore
 3111 000e 0300     		movs	r3, r0
 3112              		.loc 12 354 0
 3113 0010 1800     		movs	r0, r3
 3114 0012 03B0     		add	sp, sp, #12
 3115              		@ sp needed
 3116 0014 00BD     		pop	{pc}
 3117              		.cfi_endproc
 3118              	.LFE248:
 3119              		.size	_ZN10chibios_rt16CounterSemaphore11getCounterIEv, .-_ZN10chibios_rt16CounterSemaphore11getCo
 3120 0016 C046     		.section	.text._ZN10chibios_rt16CounterSemaphore10signalWaitEPS0_S1_,"ax",%progbits
 3121              		.align	1
 3122              		.p2align 4,,15
 3123              		.global	_ZN10chibios_rt16CounterSemaphore10signalWaitEPS0_S1_
 3124              		.syntax unified
 3125              		.code	16
 3126              		.thumb_func
 3127              		.fpu softvfp
 3128              		.type	_ZN10chibios_rt16CounterSemaphore10signalWaitEPS0_S1_, %function
 3129              	_ZN10chibios_rt16CounterSemaphore10signalWaitEPS0_S1_:
 3130              	.LFB249:
 3131              		.loc 12 357 0
ARM GAS  /tmp/ccvPPVYB.s 			page 56


 3132              		.cfi_startproc
 3133              		@ args = 0, pretend = 0, frame = 8
 3134              		@ frame_needed = 0, uses_anonymous_args = 0
 3135 0000 00B5     		push	{lr}
 3136              		.cfi_def_cfa_offset 4
 3137              		.cfi_offset 14, -4
 3138 0002 83B0     		sub	sp, sp, #12
 3139              		.cfi_def_cfa_offset 16
 3140 0004 0190     		str	r0, [sp, #4]
 3141 0006 0091     		str	r1, [sp]
 3142              		.loc 12 359 0
 3143 0008 019B     		ldr	r3, [sp, #4]
 3144 000a 009A     		ldr	r2, [sp]
 3145 000c 1100     		movs	r1, r2
 3146 000e 1800     		movs	r0, r3
 3147 0010 FFF7FEFF 		bl	chSemSignalWait
 3148 0014 0300     		movs	r3, r0
 3149              		.loc 12 360 0
 3150 0016 1800     		movs	r0, r3
 3151 0018 03B0     		add	sp, sp, #12
 3152              		@ sp needed
 3153 001a 00BD     		pop	{pc}
 3154              		.cfi_endproc
 3155              	.LFE249:
 3156              		.size	_ZN10chibios_rt16CounterSemaphore10signalWaitEPS0_S1_, .-_ZN10chibios_rt16CounterSemaphore10
 3157              		.section	.text._ZN10chibios_rt15BinarySemaphoreC2Eb,"ax",%progbits
 3158              		.align	1
 3159              		.p2align 4,,15
 3160              		.global	_ZN10chibios_rt15BinarySemaphoreC2Eb
 3161              		.syntax unified
 3162              		.code	16
 3163              		.thumb_func
 3164              		.fpu softvfp
 3165              		.type	_ZN10chibios_rt15BinarySemaphoreC2Eb, %function
 3166              	_ZN10chibios_rt15BinarySemaphoreC2Eb:
 3167              	.LFB251:
 3168              		.loc 12 365 0
 3169              		.cfi_startproc
 3170              		@ args = 0, pretend = 0, frame = 8
 3171              		@ frame_needed = 0, uses_anonymous_args = 0
 3172 0000 00B5     		push	{lr}
 3173              		.cfi_def_cfa_offset 4
 3174              		.cfi_offset 14, -4
 3175 0002 83B0     		sub	sp, sp, #12
 3176              		.cfi_def_cfa_offset 16
 3177 0004 0190     		str	r0, [sp, #4]
 3178 0006 0A00     		movs	r2, r1
 3179 0008 6B46     		mov	r3, sp
 3180 000a 0333     		adds	r3, r3, #3
 3181 000c 1A70     		strb	r2, [r3]
 3182              	.LBB14:
 3183              		.loc 12 367 0
 3184 000e 019A     		ldr	r2, [sp, #4]
 3185 0010 6B46     		mov	r3, sp
 3186 0012 0333     		adds	r3, r3, #3
 3187 0014 1B78     		ldrb	r3, [r3]
 3188 0016 1900     		movs	r1, r3
ARM GAS  /tmp/ccvPPVYB.s 			page 57


 3189 0018 1000     		movs	r0, r2
 3190 001a FFF7FEFF 		bl	_ZL16chBSemObjectInitP18binary_semaphore_tb
 3191              	.LBE14:
 3192              		.loc 12 368 0
 3193 001e 019B     		ldr	r3, [sp, #4]
 3194 0020 1800     		movs	r0, r3
 3195 0022 03B0     		add	sp, sp, #12
 3196              		@ sp needed
 3197 0024 00BD     		pop	{pc}
 3198              		.cfi_endproc
 3199              	.LFE251:
 3200              		.size	_ZN10chibios_rt15BinarySemaphoreC2Eb, .-_ZN10chibios_rt15BinarySemaphoreC2Eb
 3201              		.global	_ZN10chibios_rt15BinarySemaphoreC1Eb
 3202              		.thumb_set _ZN10chibios_rt15BinarySemaphoreC1Eb,_ZN10chibios_rt15BinarySemaphoreC2Eb
 3203 0026 C046     		.section	.text._ZN10chibios_rt15BinarySemaphore4waitEv,"ax",%progbits
 3204              		.align	1
 3205              		.p2align 4,,15
 3206              		.global	_ZN10chibios_rt15BinarySemaphore4waitEv
 3207              		.syntax unified
 3208              		.code	16
 3209              		.thumb_func
 3210              		.fpu softvfp
 3211              		.type	_ZN10chibios_rt15BinarySemaphore4waitEv, %function
 3212              	_ZN10chibios_rt15BinarySemaphore4waitEv:
 3213              	.LFB253:
 3214              		.loc 12 370 0
 3215              		.cfi_startproc
 3216              		@ args = 0, pretend = 0, frame = 8
 3217              		@ frame_needed = 0, uses_anonymous_args = 0
 3218 0000 00B5     		push	{lr}
 3219              		.cfi_def_cfa_offset 4
 3220              		.cfi_offset 14, -4
 3221 0002 83B0     		sub	sp, sp, #12
 3222              		.cfi_def_cfa_offset 16
 3223 0004 0190     		str	r0, [sp, #4]
 3224              		.loc 12 372 0
 3225 0006 019B     		ldr	r3, [sp, #4]
 3226 0008 1800     		movs	r0, r3
 3227 000a FFF7FEFF 		bl	_ZL10chBSemWaitP18binary_semaphore_t
 3228 000e 0300     		movs	r3, r0
 3229              		.loc 12 373 0
 3230 0010 1800     		movs	r0, r3
 3231 0012 03B0     		add	sp, sp, #12
 3232              		@ sp needed
 3233 0014 00BD     		pop	{pc}
 3234              		.cfi_endproc
 3235              	.LFE253:
 3236              		.size	_ZN10chibios_rt15BinarySemaphore4waitEv, .-_ZN10chibios_rt15BinarySemaphore4waitEv
 3237 0016 C046     		.section	.text._ZN10chibios_rt15BinarySemaphore5waitSEv,"ax",%progbits
 3238              		.align	1
 3239              		.p2align 4,,15
 3240              		.global	_ZN10chibios_rt15BinarySemaphore5waitSEv
 3241              		.syntax unified
 3242              		.code	16
 3243              		.thumb_func
 3244              		.fpu softvfp
 3245              		.type	_ZN10chibios_rt15BinarySemaphore5waitSEv, %function
ARM GAS  /tmp/ccvPPVYB.s 			page 58


 3246              	_ZN10chibios_rt15BinarySemaphore5waitSEv:
 3247              	.LFB254:
 3248              		.loc 12 375 0
 3249              		.cfi_startproc
 3250              		@ args = 0, pretend = 0, frame = 8
 3251              		@ frame_needed = 0, uses_anonymous_args = 0
 3252 0000 00B5     		push	{lr}
 3253              		.cfi_def_cfa_offset 4
 3254              		.cfi_offset 14, -4
 3255 0002 83B0     		sub	sp, sp, #12
 3256              		.cfi_def_cfa_offset 16
 3257 0004 0190     		str	r0, [sp, #4]
 3258              		.loc 12 377 0
 3259 0006 019B     		ldr	r3, [sp, #4]
 3260 0008 1800     		movs	r0, r3
 3261 000a FFF7FEFF 		bl	_ZL11chBSemWaitSP18binary_semaphore_t
 3262 000e 0300     		movs	r3, r0
 3263              		.loc 12 378 0
 3264 0010 1800     		movs	r0, r3
 3265 0012 03B0     		add	sp, sp, #12
 3266              		@ sp needed
 3267 0014 00BD     		pop	{pc}
 3268              		.cfi_endproc
 3269              	.LFE254:
 3270              		.size	_ZN10chibios_rt15BinarySemaphore5waitSEv, .-_ZN10chibios_rt15BinarySemaphore5waitSEv
 3271 0016 C046     		.section	.text._ZN10chibios_rt15BinarySemaphore4waitEt,"ax",%progbits
 3272              		.align	1
 3273              		.p2align 4,,15
 3274              		.global	_ZN10chibios_rt15BinarySemaphore4waitEt
 3275              		.syntax unified
 3276              		.code	16
 3277              		.thumb_func
 3278              		.fpu softvfp
 3279              		.type	_ZN10chibios_rt15BinarySemaphore4waitEt, %function
 3280              	_ZN10chibios_rt15BinarySemaphore4waitEt:
 3281              	.LFB255:
 3282              		.loc 12 380 0
 3283              		.cfi_startproc
 3284              		@ args = 0, pretend = 0, frame = 8
 3285              		@ frame_needed = 0, uses_anonymous_args = 0
 3286 0000 00B5     		push	{lr}
 3287              		.cfi_def_cfa_offset 4
 3288              		.cfi_offset 14, -4
 3289 0002 83B0     		sub	sp, sp, #12
 3290              		.cfi_def_cfa_offset 16
 3291 0004 0190     		str	r0, [sp, #4]
 3292 0006 0A00     		movs	r2, r1
 3293 0008 6B46     		mov	r3, sp
 3294 000a 0233     		adds	r3, r3, #2
 3295 000c 1A80     		strh	r2, [r3]
 3296              		.loc 12 382 0
 3297 000e 019A     		ldr	r2, [sp, #4]
 3298 0010 6B46     		mov	r3, sp
 3299 0012 0233     		adds	r3, r3, #2
 3300 0014 1B88     		ldrh	r3, [r3]
 3301 0016 1900     		movs	r1, r3
 3302 0018 1000     		movs	r0, r2
ARM GAS  /tmp/ccvPPVYB.s 			page 59


 3303 001a FFF7FEFF 		bl	_ZL17chBSemWaitTimeoutP18binary_semaphore_tt
 3304 001e 0300     		movs	r3, r0
 3305              		.loc 12 383 0
 3306 0020 1800     		movs	r0, r3
 3307 0022 03B0     		add	sp, sp, #12
 3308              		@ sp needed
 3309 0024 00BD     		pop	{pc}
 3310              		.cfi_endproc
 3311              	.LFE255:
 3312              		.size	_ZN10chibios_rt15BinarySemaphore4waitEt, .-_ZN10chibios_rt15BinarySemaphore4waitEt
 3313 0026 C046     		.section	.text._ZN10chibios_rt15BinarySemaphore5waitSEt,"ax",%progbits
 3314              		.align	1
 3315              		.p2align 4,,15
 3316              		.global	_ZN10chibios_rt15BinarySemaphore5waitSEt
 3317              		.syntax unified
 3318              		.code	16
 3319              		.thumb_func
 3320              		.fpu softvfp
 3321              		.type	_ZN10chibios_rt15BinarySemaphore5waitSEt, %function
 3322              	_ZN10chibios_rt15BinarySemaphore5waitSEt:
 3323              	.LFB256:
 3324              		.loc 12 385 0
 3325              		.cfi_startproc
 3326              		@ args = 0, pretend = 0, frame = 8
 3327              		@ frame_needed = 0, uses_anonymous_args = 0
 3328 0000 00B5     		push	{lr}
 3329              		.cfi_def_cfa_offset 4
 3330              		.cfi_offset 14, -4
 3331 0002 83B0     		sub	sp, sp, #12
 3332              		.cfi_def_cfa_offset 16
 3333 0004 0190     		str	r0, [sp, #4]
 3334 0006 0A00     		movs	r2, r1
 3335 0008 6B46     		mov	r3, sp
 3336 000a 0233     		adds	r3, r3, #2
 3337 000c 1A80     		strh	r2, [r3]
 3338              		.loc 12 387 0
 3339 000e 019A     		ldr	r2, [sp, #4]
 3340 0010 6B46     		mov	r3, sp
 3341 0012 0233     		adds	r3, r3, #2
 3342 0014 1B88     		ldrh	r3, [r3]
 3343 0016 1900     		movs	r1, r3
 3344 0018 1000     		movs	r0, r2
 3345 001a FFF7FEFF 		bl	_ZL18chBSemWaitTimeoutSP18binary_semaphore_tt
 3346 001e 0300     		movs	r3, r0
 3347              		.loc 12 388 0
 3348 0020 1800     		movs	r0, r3
 3349 0022 03B0     		add	sp, sp, #12
 3350              		@ sp needed
 3351 0024 00BD     		pop	{pc}
 3352              		.cfi_endproc
 3353              	.LFE256:
 3354              		.size	_ZN10chibios_rt15BinarySemaphore5waitSEt, .-_ZN10chibios_rt15BinarySemaphore5waitSEt
 3355 0026 C046     		.section	.text._ZN10chibios_rt15BinarySemaphore5resetEb,"ax",%progbits
 3356              		.align	1
 3357              		.p2align 4,,15
 3358              		.global	_ZN10chibios_rt15BinarySemaphore5resetEb
 3359              		.syntax unified
ARM GAS  /tmp/ccvPPVYB.s 			page 60


 3360              		.code	16
 3361              		.thumb_func
 3362              		.fpu softvfp
 3363              		.type	_ZN10chibios_rt15BinarySemaphore5resetEb, %function
 3364              	_ZN10chibios_rt15BinarySemaphore5resetEb:
 3365              	.LFB257:
 3366              		.loc 12 390 0
 3367              		.cfi_startproc
 3368              		@ args = 0, pretend = 0, frame = 8
 3369              		@ frame_needed = 0, uses_anonymous_args = 0
 3370 0000 00B5     		push	{lr}
 3371              		.cfi_def_cfa_offset 4
 3372              		.cfi_offset 14, -4
 3373 0002 83B0     		sub	sp, sp, #12
 3374              		.cfi_def_cfa_offset 16
 3375 0004 0190     		str	r0, [sp, #4]
 3376 0006 0A00     		movs	r2, r1
 3377 0008 6B46     		mov	r3, sp
 3378 000a 0333     		adds	r3, r3, #3
 3379 000c 1A70     		strb	r2, [r3]
 3380              		.loc 12 392 0
 3381 000e 019A     		ldr	r2, [sp, #4]
 3382 0010 6B46     		mov	r3, sp
 3383 0012 0333     		adds	r3, r3, #3
 3384 0014 1B78     		ldrb	r3, [r3]
 3385 0016 1900     		movs	r1, r3
 3386 0018 1000     		movs	r0, r2
 3387 001a FFF7FEFF 		bl	_ZL11chBSemResetP18binary_semaphore_tb
 3388              		.loc 12 393 0
 3389 001e C046     		nop
 3390 0020 03B0     		add	sp, sp, #12
 3391              		@ sp needed
 3392 0022 00BD     		pop	{pc}
 3393              		.cfi_endproc
 3394              	.LFE257:
 3395              		.size	_ZN10chibios_rt15BinarySemaphore5resetEb, .-_ZN10chibios_rt15BinarySemaphore5resetEb
 3396              		.section	.text._ZN10chibios_rt15BinarySemaphore6resetIEb,"ax",%progbits
 3397              		.align	1
 3398              		.p2align 4,,15
 3399              		.global	_ZN10chibios_rt15BinarySemaphore6resetIEb
 3400              		.syntax unified
 3401              		.code	16
 3402              		.thumb_func
 3403              		.fpu softvfp
 3404              		.type	_ZN10chibios_rt15BinarySemaphore6resetIEb, %function
 3405              	_ZN10chibios_rt15BinarySemaphore6resetIEb:
 3406              	.LFB258:
 3407              		.loc 12 395 0
 3408              		.cfi_startproc
 3409              		@ args = 0, pretend = 0, frame = 8
 3410              		@ frame_needed = 0, uses_anonymous_args = 0
 3411 0000 00B5     		push	{lr}
 3412              		.cfi_def_cfa_offset 4
 3413              		.cfi_offset 14, -4
 3414 0002 83B0     		sub	sp, sp, #12
 3415              		.cfi_def_cfa_offset 16
 3416 0004 0190     		str	r0, [sp, #4]
ARM GAS  /tmp/ccvPPVYB.s 			page 61


 3417 0006 0A00     		movs	r2, r1
 3418 0008 6B46     		mov	r3, sp
 3419 000a 0333     		adds	r3, r3, #3
 3420 000c 1A70     		strb	r2, [r3]
 3421              		.loc 12 397 0
 3422 000e 019A     		ldr	r2, [sp, #4]
 3423 0010 6B46     		mov	r3, sp
 3424 0012 0333     		adds	r3, r3, #3
 3425 0014 1B78     		ldrb	r3, [r3]
 3426 0016 1900     		movs	r1, r3
 3427 0018 1000     		movs	r0, r2
 3428 001a FFF7FEFF 		bl	_ZL12chBSemResetIP18binary_semaphore_tb
 3429              		.loc 12 398 0
 3430 001e C046     		nop
 3431 0020 03B0     		add	sp, sp, #12
 3432              		@ sp needed
 3433 0022 00BD     		pop	{pc}
 3434              		.cfi_endproc
 3435              	.LFE258:
 3436              		.size	_ZN10chibios_rt15BinarySemaphore6resetIEb, .-_ZN10chibios_rt15BinarySemaphore6resetIEb
 3437              		.section	.text._ZN10chibios_rt15BinarySemaphore6signalEv,"ax",%progbits
 3438              		.align	1
 3439              		.p2align 4,,15
 3440              		.global	_ZN10chibios_rt15BinarySemaphore6signalEv
 3441              		.syntax unified
 3442              		.code	16
 3443              		.thumb_func
 3444              		.fpu softvfp
 3445              		.type	_ZN10chibios_rt15BinarySemaphore6signalEv, %function
 3446              	_ZN10chibios_rt15BinarySemaphore6signalEv:
 3447              	.LFB259:
 3448              		.loc 12 400 0
 3449              		.cfi_startproc
 3450              		@ args = 0, pretend = 0, frame = 8
 3451              		@ frame_needed = 0, uses_anonymous_args = 0
 3452 0000 00B5     		push	{lr}
 3453              		.cfi_def_cfa_offset 4
 3454              		.cfi_offset 14, -4
 3455 0002 83B0     		sub	sp, sp, #12
 3456              		.cfi_def_cfa_offset 16
 3457 0004 0190     		str	r0, [sp, #4]
 3458              		.loc 12 402 0
 3459 0006 019B     		ldr	r3, [sp, #4]
 3460 0008 1800     		movs	r0, r3
 3461 000a FFF7FEFF 		bl	_ZL12chBSemSignalP18binary_semaphore_t
 3462              		.loc 12 403 0
 3463 000e C046     		nop
 3464 0010 03B0     		add	sp, sp, #12
 3465              		@ sp needed
 3466 0012 00BD     		pop	{pc}
 3467              		.cfi_endproc
 3468              	.LFE259:
 3469              		.size	_ZN10chibios_rt15BinarySemaphore6signalEv, .-_ZN10chibios_rt15BinarySemaphore6signalEv
 3470              		.section	.text._ZN10chibios_rt15BinarySemaphore7signalIEv,"ax",%progbits
 3471              		.align	1
 3472              		.p2align 4,,15
 3473              		.global	_ZN10chibios_rt15BinarySemaphore7signalIEv
ARM GAS  /tmp/ccvPPVYB.s 			page 62


 3474              		.syntax unified
 3475              		.code	16
 3476              		.thumb_func
 3477              		.fpu softvfp
 3478              		.type	_ZN10chibios_rt15BinarySemaphore7signalIEv, %function
 3479              	_ZN10chibios_rt15BinarySemaphore7signalIEv:
 3480              	.LFB260:
 3481              		.loc 12 405 0
 3482              		.cfi_startproc
 3483              		@ args = 0, pretend = 0, frame = 8
 3484              		@ frame_needed = 0, uses_anonymous_args = 0
 3485 0000 00B5     		push	{lr}
 3486              		.cfi_def_cfa_offset 4
 3487              		.cfi_offset 14, -4
 3488 0002 83B0     		sub	sp, sp, #12
 3489              		.cfi_def_cfa_offset 16
 3490 0004 0190     		str	r0, [sp, #4]
 3491              		.loc 12 407 0
 3492 0006 019B     		ldr	r3, [sp, #4]
 3493 0008 1800     		movs	r0, r3
 3494 000a FFF7FEFF 		bl	_ZL13chBSemSignalIP18binary_semaphore_t
 3495              		.loc 12 408 0
 3496 000e C046     		nop
 3497 0010 03B0     		add	sp, sp, #12
 3498              		@ sp needed
 3499 0012 00BD     		pop	{pc}
 3500              		.cfi_endproc
 3501              	.LFE260:
 3502              		.size	_ZN10chibios_rt15BinarySemaphore7signalIEv, .-_ZN10chibios_rt15BinarySemaphore7signalIEv
 3503              		.section	.text._ZN10chibios_rt15BinarySemaphore9getStateIEv,"ax",%progbits
 3504              		.align	1
 3505              		.p2align 4,,15
 3506              		.global	_ZN10chibios_rt15BinarySemaphore9getStateIEv
 3507              		.syntax unified
 3508              		.code	16
 3509              		.thumb_func
 3510              		.fpu softvfp
 3511              		.type	_ZN10chibios_rt15BinarySemaphore9getStateIEv, %function
 3512              	_ZN10chibios_rt15BinarySemaphore9getStateIEv:
 3513              	.LFB261:
 3514              		.loc 12 410 0
 3515              		.cfi_startproc
 3516              		@ args = 0, pretend = 0, frame = 8
 3517              		@ frame_needed = 0, uses_anonymous_args = 0
 3518 0000 00B5     		push	{lr}
 3519              		.cfi_def_cfa_offset 4
 3520              		.cfi_offset 14, -4
 3521 0002 83B0     		sub	sp, sp, #12
 3522              		.cfi_def_cfa_offset 16
 3523 0004 0190     		str	r0, [sp, #4]
 3524              		.loc 12 412 0
 3525 0006 019B     		ldr	r3, [sp, #4]
 3526 0008 1800     		movs	r0, r3
 3527 000a FFF7FEFF 		bl	_ZL15chBSemGetStateIP18binary_semaphore_t
 3528 000e 0300     		movs	r3, r0
 3529              		.loc 12 413 0
 3530 0010 1800     		movs	r0, r3
ARM GAS  /tmp/ccvPPVYB.s 			page 63


 3531 0012 03B0     		add	sp, sp, #12
 3532              		@ sp needed
 3533 0014 00BD     		pop	{pc}
 3534              		.cfi_endproc
 3535              	.LFE261:
 3536              		.size	_ZN10chibios_rt15BinarySemaphore9getStateIEv, .-_ZN10chibios_rt15BinarySemaphore9getStateIEv
 3537 0016 C046     		.section	.text._ZN10chibios_rt5MutexC2Ev,"ax",%progbits
 3538              		.align	1
 3539              		.p2align 4,,15
 3540              		.global	_ZN10chibios_rt5MutexC2Ev
 3541              		.syntax unified
 3542              		.code	16
 3543              		.thumb_func
 3544              		.fpu softvfp
 3545              		.type	_ZN10chibios_rt5MutexC2Ev, %function
 3546              	_ZN10chibios_rt5MutexC2Ev:
 3547              	.LFB263:
 3548              		.loc 12 420 0
 3549              		.cfi_startproc
 3550              		@ args = 0, pretend = 0, frame = 8
 3551              		@ frame_needed = 0, uses_anonymous_args = 0
 3552 0000 00B5     		push	{lr}
 3553              		.cfi_def_cfa_offset 4
 3554              		.cfi_offset 14, -4
 3555 0002 83B0     		sub	sp, sp, #12
 3556              		.cfi_def_cfa_offset 16
 3557 0004 0190     		str	r0, [sp, #4]
 3558              	.LBB15:
 3559              		.loc 12 422 0
 3560 0006 019B     		ldr	r3, [sp, #4]
 3561 0008 1800     		movs	r0, r3
 3562 000a FFF7FEFF 		bl	chMtxObjectInit
 3563              	.LBE15:
 3564              		.loc 12 423 0
 3565 000e 019B     		ldr	r3, [sp, #4]
 3566 0010 1800     		movs	r0, r3
 3567 0012 03B0     		add	sp, sp, #12
 3568              		@ sp needed
 3569 0014 00BD     		pop	{pc}
 3570              		.cfi_endproc
 3571              	.LFE263:
 3572              		.size	_ZN10chibios_rt5MutexC2Ev, .-_ZN10chibios_rt5MutexC2Ev
 3573              		.global	_ZN10chibios_rt5MutexC1Ev
 3574              		.thumb_set _ZN10chibios_rt5MutexC1Ev,_ZN10chibios_rt5MutexC2Ev
 3575 0016 C046     		.section	.text._ZN10chibios_rt5Mutex7tryLockEv,"ax",%progbits
 3576              		.align	1
 3577              		.p2align 4,,15
 3578              		.global	_ZN10chibios_rt5Mutex7tryLockEv
 3579              		.syntax unified
 3580              		.code	16
 3581              		.thumb_func
 3582              		.fpu softvfp
 3583              		.type	_ZN10chibios_rt5Mutex7tryLockEv, %function
 3584              	_ZN10chibios_rt5Mutex7tryLockEv:
 3585              	.LFB265:
 3586              		.loc 12 425 0
 3587              		.cfi_startproc
ARM GAS  /tmp/ccvPPVYB.s 			page 64


 3588              		@ args = 0, pretend = 0, frame = 8
 3589              		@ frame_needed = 0, uses_anonymous_args = 0
 3590 0000 00B5     		push	{lr}
 3591              		.cfi_def_cfa_offset 4
 3592              		.cfi_offset 14, -4
 3593 0002 83B0     		sub	sp, sp, #12
 3594              		.cfi_def_cfa_offset 16
 3595 0004 0190     		str	r0, [sp, #4]
 3596              		.loc 12 427 0
 3597 0006 019B     		ldr	r3, [sp, #4]
 3598 0008 1800     		movs	r0, r3
 3599 000a FFF7FEFF 		bl	chMtxTryLock
 3600 000e 0300     		movs	r3, r0
 3601              		.loc 12 428 0
 3602 0010 1800     		movs	r0, r3
 3603 0012 03B0     		add	sp, sp, #12
 3604              		@ sp needed
 3605 0014 00BD     		pop	{pc}
 3606              		.cfi_endproc
 3607              	.LFE265:
 3608              		.size	_ZN10chibios_rt5Mutex7tryLockEv, .-_ZN10chibios_rt5Mutex7tryLockEv
 3609 0016 C046     		.section	.text._ZN10chibios_rt5Mutex8tryLockSEv,"ax",%progbits
 3610              		.align	1
 3611              		.p2align 4,,15
 3612              		.global	_ZN10chibios_rt5Mutex8tryLockSEv
 3613              		.syntax unified
 3614              		.code	16
 3615              		.thumb_func
 3616              		.fpu softvfp
 3617              		.type	_ZN10chibios_rt5Mutex8tryLockSEv, %function
 3618              	_ZN10chibios_rt5Mutex8tryLockSEv:
 3619              	.LFB266:
 3620              		.loc 12 430 0
 3621              		.cfi_startproc
 3622              		@ args = 0, pretend = 0, frame = 8
 3623              		@ frame_needed = 0, uses_anonymous_args = 0
 3624 0000 00B5     		push	{lr}
 3625              		.cfi_def_cfa_offset 4
 3626              		.cfi_offset 14, -4
 3627 0002 83B0     		sub	sp, sp, #12
 3628              		.cfi_def_cfa_offset 16
 3629 0004 0190     		str	r0, [sp, #4]
 3630              		.loc 12 432 0
 3631 0006 019B     		ldr	r3, [sp, #4]
 3632 0008 1800     		movs	r0, r3
 3633 000a FFF7FEFF 		bl	chMtxTryLockS
 3634 000e 0300     		movs	r3, r0
 3635              		.loc 12 433 0
 3636 0010 1800     		movs	r0, r3
 3637 0012 03B0     		add	sp, sp, #12
 3638              		@ sp needed
 3639 0014 00BD     		pop	{pc}
 3640              		.cfi_endproc
 3641              	.LFE266:
 3642              		.size	_ZN10chibios_rt5Mutex8tryLockSEv, .-_ZN10chibios_rt5Mutex8tryLockSEv
 3643 0016 C046     		.section	.text._ZN10chibios_rt5Mutex4lockEv,"ax",%progbits
 3644              		.align	1
ARM GAS  /tmp/ccvPPVYB.s 			page 65


 3645              		.p2align 4,,15
 3646              		.global	_ZN10chibios_rt5Mutex4lockEv
 3647              		.syntax unified
 3648              		.code	16
 3649              		.thumb_func
 3650              		.fpu softvfp
 3651              		.type	_ZN10chibios_rt5Mutex4lockEv, %function
 3652              	_ZN10chibios_rt5Mutex4lockEv:
 3653              	.LFB267:
 3654              		.loc 12 435 0
 3655              		.cfi_startproc
 3656              		@ args = 0, pretend = 0, frame = 8
 3657              		@ frame_needed = 0, uses_anonymous_args = 0
 3658 0000 00B5     		push	{lr}
 3659              		.cfi_def_cfa_offset 4
 3660              		.cfi_offset 14, -4
 3661 0002 83B0     		sub	sp, sp, #12
 3662              		.cfi_def_cfa_offset 16
 3663 0004 0190     		str	r0, [sp, #4]
 3664              		.loc 12 437 0
 3665 0006 019B     		ldr	r3, [sp, #4]
 3666 0008 1800     		movs	r0, r3
 3667 000a FFF7FEFF 		bl	chMtxLock
 3668              		.loc 12 438 0
 3669 000e C046     		nop
 3670 0010 03B0     		add	sp, sp, #12
 3671              		@ sp needed
 3672 0012 00BD     		pop	{pc}
 3673              		.cfi_endproc
 3674              	.LFE267:
 3675              		.size	_ZN10chibios_rt5Mutex4lockEv, .-_ZN10chibios_rt5Mutex4lockEv
 3676              		.section	.text._ZN10chibios_rt5Mutex5lockSEv,"ax",%progbits
 3677              		.align	1
 3678              		.p2align 4,,15
 3679              		.global	_ZN10chibios_rt5Mutex5lockSEv
 3680              		.syntax unified
 3681              		.code	16
 3682              		.thumb_func
 3683              		.fpu softvfp
 3684              		.type	_ZN10chibios_rt5Mutex5lockSEv, %function
 3685              	_ZN10chibios_rt5Mutex5lockSEv:
 3686              	.LFB268:
 3687              		.loc 12 440 0
 3688              		.cfi_startproc
 3689              		@ args = 0, pretend = 0, frame = 8
 3690              		@ frame_needed = 0, uses_anonymous_args = 0
 3691 0000 00B5     		push	{lr}
 3692              		.cfi_def_cfa_offset 4
 3693              		.cfi_offset 14, -4
 3694 0002 83B0     		sub	sp, sp, #12
 3695              		.cfi_def_cfa_offset 16
 3696 0004 0190     		str	r0, [sp, #4]
 3697              		.loc 12 442 0
 3698 0006 019B     		ldr	r3, [sp, #4]
 3699 0008 1800     		movs	r0, r3
 3700 000a FFF7FEFF 		bl	chMtxLockS
 3701              		.loc 12 443 0
ARM GAS  /tmp/ccvPPVYB.s 			page 66


 3702 000e C046     		nop
 3703 0010 03B0     		add	sp, sp, #12
 3704              		@ sp needed
 3705 0012 00BD     		pop	{pc}
 3706              		.cfi_endproc
 3707              	.LFE268:
 3708              		.size	_ZN10chibios_rt5Mutex5lockSEv, .-_ZN10chibios_rt5Mutex5lockSEv
 3709              		.section	.text._ZN10chibios_rt5Mutex6unlockEv,"ax",%progbits
 3710              		.align	1
 3711              		.p2align 4,,15
 3712              		.global	_ZN10chibios_rt5Mutex6unlockEv
 3713              		.syntax unified
 3714              		.code	16
 3715              		.thumb_func
 3716              		.fpu softvfp
 3717              		.type	_ZN10chibios_rt5Mutex6unlockEv, %function
 3718              	_ZN10chibios_rt5Mutex6unlockEv:
 3719              	.LFB269:
 3720              		.loc 12 445 0
 3721              		.cfi_startproc
 3722              		@ args = 0, pretend = 0, frame = 8
 3723              		@ frame_needed = 0, uses_anonymous_args = 0
 3724 0000 00B5     		push	{lr}
 3725              		.cfi_def_cfa_offset 4
 3726              		.cfi_offset 14, -4
 3727 0002 83B0     		sub	sp, sp, #12
 3728              		.cfi_def_cfa_offset 16
 3729 0004 0190     		str	r0, [sp, #4]
 3730              		.loc 12 447 0
 3731 0006 019B     		ldr	r3, [sp, #4]
 3732 0008 1800     		movs	r0, r3
 3733 000a FFF7FEFF 		bl	chMtxUnlock
 3734              		.loc 12 448 0
 3735 000e C046     		nop
 3736 0010 03B0     		add	sp, sp, #12
 3737              		@ sp needed
 3738 0012 00BD     		pop	{pc}
 3739              		.cfi_endproc
 3740              	.LFE269:
 3741              		.size	_ZN10chibios_rt5Mutex6unlockEv, .-_ZN10chibios_rt5Mutex6unlockEv
 3742              		.section	.text._ZN10chibios_rt5Mutex7unlockSEv,"ax",%progbits
 3743              		.align	1
 3744              		.p2align 4,,15
 3745              		.global	_ZN10chibios_rt5Mutex7unlockSEv
 3746              		.syntax unified
 3747              		.code	16
 3748              		.thumb_func
 3749              		.fpu softvfp
 3750              		.type	_ZN10chibios_rt5Mutex7unlockSEv, %function
 3751              	_ZN10chibios_rt5Mutex7unlockSEv:
 3752              	.LFB270:
 3753              		.loc 12 450 0
 3754              		.cfi_startproc
 3755              		@ args = 0, pretend = 0, frame = 8
 3756              		@ frame_needed = 0, uses_anonymous_args = 0
 3757 0000 00B5     		push	{lr}
 3758              		.cfi_def_cfa_offset 4
ARM GAS  /tmp/ccvPPVYB.s 			page 67


 3759              		.cfi_offset 14, -4
 3760 0002 83B0     		sub	sp, sp, #12
 3761              		.cfi_def_cfa_offset 16
 3762 0004 0190     		str	r0, [sp, #4]
 3763              		.loc 12 452 0
 3764 0006 019B     		ldr	r3, [sp, #4]
 3765 0008 1800     		movs	r0, r3
 3766 000a FFF7FEFF 		bl	chMtxUnlockS
 3767              		.loc 12 453 0
 3768 000e C046     		nop
 3769 0010 03B0     		add	sp, sp, #12
 3770              		@ sp needed
 3771 0012 00BD     		pop	{pc}
 3772              		.cfi_endproc
 3773              	.LFE270:
 3774              		.size	_ZN10chibios_rt5Mutex7unlockSEv, .-_ZN10chibios_rt5Mutex7unlockSEv
 3775              		.section	.text._ZN10chibios_rt7CondVarC2Ev,"ax",%progbits
 3776              		.align	1
 3777              		.p2align 4,,15
 3778              		.global	_ZN10chibios_rt7CondVarC2Ev
 3779              		.syntax unified
 3780              		.code	16
 3781              		.thumb_func
 3782              		.fpu softvfp
 3783              		.type	_ZN10chibios_rt7CondVarC2Ev, %function
 3784              	_ZN10chibios_rt7CondVarC2Ev:
 3785              	.LFB272:
 3786              		.loc 12 459 0
 3787              		.cfi_startproc
 3788              		@ args = 0, pretend = 0, frame = 8
 3789              		@ frame_needed = 0, uses_anonymous_args = 0
 3790 0000 00B5     		push	{lr}
 3791              		.cfi_def_cfa_offset 4
 3792              		.cfi_offset 14, -4
 3793 0002 83B0     		sub	sp, sp, #12
 3794              		.cfi_def_cfa_offset 16
 3795 0004 0190     		str	r0, [sp, #4]
 3796              	.LBB16:
 3797              		.loc 12 461 0
 3798 0006 019B     		ldr	r3, [sp, #4]
 3799 0008 1800     		movs	r0, r3
 3800 000a FFF7FEFF 		bl	chCondObjectInit
 3801              	.LBE16:
 3802              		.loc 12 462 0
 3803 000e 019B     		ldr	r3, [sp, #4]
 3804 0010 1800     		movs	r0, r3
 3805 0012 03B0     		add	sp, sp, #12
 3806              		@ sp needed
 3807 0014 00BD     		pop	{pc}
 3808              		.cfi_endproc
 3809              	.LFE272:
 3810              		.size	_ZN10chibios_rt7CondVarC2Ev, .-_ZN10chibios_rt7CondVarC2Ev
 3811              		.global	_ZN10chibios_rt7CondVarC1Ev
 3812              		.thumb_set _ZN10chibios_rt7CondVarC1Ev,_ZN10chibios_rt7CondVarC2Ev
 3813 0016 C046     		.section	.text._ZN10chibios_rt7CondVar6signalEv,"ax",%progbits
 3814              		.align	1
 3815              		.p2align 4,,15
ARM GAS  /tmp/ccvPPVYB.s 			page 68


 3816              		.global	_ZN10chibios_rt7CondVar6signalEv
 3817              		.syntax unified
 3818              		.code	16
 3819              		.thumb_func
 3820              		.fpu softvfp
 3821              		.type	_ZN10chibios_rt7CondVar6signalEv, %function
 3822              	_ZN10chibios_rt7CondVar6signalEv:
 3823              	.LFB274:
 3824              		.loc 12 464 0
 3825              		.cfi_startproc
 3826              		@ args = 0, pretend = 0, frame = 8
 3827              		@ frame_needed = 0, uses_anonymous_args = 0
 3828 0000 00B5     		push	{lr}
 3829              		.cfi_def_cfa_offset 4
 3830              		.cfi_offset 14, -4
 3831 0002 83B0     		sub	sp, sp, #12
 3832              		.cfi_def_cfa_offset 16
 3833 0004 0190     		str	r0, [sp, #4]
 3834              		.loc 12 466 0
 3835 0006 019B     		ldr	r3, [sp, #4]
 3836 0008 1800     		movs	r0, r3
 3837 000a FFF7FEFF 		bl	chCondSignal
 3838              		.loc 12 467 0
 3839 000e C046     		nop
 3840 0010 03B0     		add	sp, sp, #12
 3841              		@ sp needed
 3842 0012 00BD     		pop	{pc}
 3843              		.cfi_endproc
 3844              	.LFE274:
 3845              		.size	_ZN10chibios_rt7CondVar6signalEv, .-_ZN10chibios_rt7CondVar6signalEv
 3846              		.section	.text._ZN10chibios_rt7CondVar7signalIEv,"ax",%progbits
 3847              		.align	1
 3848              		.p2align 4,,15
 3849              		.global	_ZN10chibios_rt7CondVar7signalIEv
 3850              		.syntax unified
 3851              		.code	16
 3852              		.thumb_func
 3853              		.fpu softvfp
 3854              		.type	_ZN10chibios_rt7CondVar7signalIEv, %function
 3855              	_ZN10chibios_rt7CondVar7signalIEv:
 3856              	.LFB275:
 3857              		.loc 12 469 0
 3858              		.cfi_startproc
 3859              		@ args = 0, pretend = 0, frame = 8
 3860              		@ frame_needed = 0, uses_anonymous_args = 0
 3861 0000 00B5     		push	{lr}
 3862              		.cfi_def_cfa_offset 4
 3863              		.cfi_offset 14, -4
 3864 0002 83B0     		sub	sp, sp, #12
 3865              		.cfi_def_cfa_offset 16
 3866 0004 0190     		str	r0, [sp, #4]
 3867              		.loc 12 471 0
 3868 0006 019B     		ldr	r3, [sp, #4]
 3869 0008 1800     		movs	r0, r3
 3870 000a FFF7FEFF 		bl	chCondSignalI
 3871              		.loc 12 472 0
 3872 000e C046     		nop
ARM GAS  /tmp/ccvPPVYB.s 			page 69


 3873 0010 03B0     		add	sp, sp, #12
 3874              		@ sp needed
 3875 0012 00BD     		pop	{pc}
 3876              		.cfi_endproc
 3877              	.LFE275:
 3878              		.size	_ZN10chibios_rt7CondVar7signalIEv, .-_ZN10chibios_rt7CondVar7signalIEv
 3879              		.section	.text._ZN10chibios_rt7CondVar9broadcastEv,"ax",%progbits
 3880              		.align	1
 3881              		.p2align 4,,15
 3882              		.global	_ZN10chibios_rt7CondVar9broadcastEv
 3883              		.syntax unified
 3884              		.code	16
 3885              		.thumb_func
 3886              		.fpu softvfp
 3887              		.type	_ZN10chibios_rt7CondVar9broadcastEv, %function
 3888              	_ZN10chibios_rt7CondVar9broadcastEv:
 3889              	.LFB276:
 3890              		.loc 12 474 0
 3891              		.cfi_startproc
 3892              		@ args = 0, pretend = 0, frame = 8
 3893              		@ frame_needed = 0, uses_anonymous_args = 0
 3894 0000 00B5     		push	{lr}
 3895              		.cfi_def_cfa_offset 4
 3896              		.cfi_offset 14, -4
 3897 0002 83B0     		sub	sp, sp, #12
 3898              		.cfi_def_cfa_offset 16
 3899 0004 0190     		str	r0, [sp, #4]
 3900              		.loc 12 476 0
 3901 0006 019B     		ldr	r3, [sp, #4]
 3902 0008 1800     		movs	r0, r3
 3903 000a FFF7FEFF 		bl	chCondBroadcast
 3904              		.loc 12 477 0
 3905 000e C046     		nop
 3906 0010 03B0     		add	sp, sp, #12
 3907              		@ sp needed
 3908 0012 00BD     		pop	{pc}
 3909              		.cfi_endproc
 3910              	.LFE276:
 3911              		.size	_ZN10chibios_rt7CondVar9broadcastEv, .-_ZN10chibios_rt7CondVar9broadcastEv
 3912              		.section	.text._ZN10chibios_rt7CondVar10broadcastIEv,"ax",%progbits
 3913              		.align	1
 3914              		.p2align 4,,15
 3915              		.global	_ZN10chibios_rt7CondVar10broadcastIEv
 3916              		.syntax unified
 3917              		.code	16
 3918              		.thumb_func
 3919              		.fpu softvfp
 3920              		.type	_ZN10chibios_rt7CondVar10broadcastIEv, %function
 3921              	_ZN10chibios_rt7CondVar10broadcastIEv:
 3922              	.LFB277:
 3923              		.loc 12 479 0
 3924              		.cfi_startproc
 3925              		@ args = 0, pretend = 0, frame = 8
 3926              		@ frame_needed = 0, uses_anonymous_args = 0
 3927 0000 00B5     		push	{lr}
 3928              		.cfi_def_cfa_offset 4
 3929              		.cfi_offset 14, -4
ARM GAS  /tmp/ccvPPVYB.s 			page 70


 3930 0002 83B0     		sub	sp, sp, #12
 3931              		.cfi_def_cfa_offset 16
 3932 0004 0190     		str	r0, [sp, #4]
 3933              		.loc 12 481 0
 3934 0006 019B     		ldr	r3, [sp, #4]
 3935 0008 1800     		movs	r0, r3
 3936 000a FFF7FEFF 		bl	chCondBroadcastI
 3937              		.loc 12 482 0
 3938 000e C046     		nop
 3939 0010 03B0     		add	sp, sp, #12
 3940              		@ sp needed
 3941 0012 00BD     		pop	{pc}
 3942              		.cfi_endproc
 3943              	.LFE277:
 3944              		.size	_ZN10chibios_rt7CondVar10broadcastIEv, .-_ZN10chibios_rt7CondVar10broadcastIEv
 3945              		.section	.text._ZN10chibios_rt7CondVar4waitEv,"ax",%progbits
 3946              		.align	1
 3947              		.p2align 4,,15
 3948              		.global	_ZN10chibios_rt7CondVar4waitEv
 3949              		.syntax unified
 3950              		.code	16
 3951              		.thumb_func
 3952              		.fpu softvfp
 3953              		.type	_ZN10chibios_rt7CondVar4waitEv, %function
 3954              	_ZN10chibios_rt7CondVar4waitEv:
 3955              	.LFB278:
 3956              		.loc 12 484 0
 3957              		.cfi_startproc
 3958              		@ args = 0, pretend = 0, frame = 8
 3959              		@ frame_needed = 0, uses_anonymous_args = 0
 3960 0000 00B5     		push	{lr}
 3961              		.cfi_def_cfa_offset 4
 3962              		.cfi_offset 14, -4
 3963 0002 83B0     		sub	sp, sp, #12
 3964              		.cfi_def_cfa_offset 16
 3965 0004 0190     		str	r0, [sp, #4]
 3966              		.loc 12 486 0
 3967 0006 019B     		ldr	r3, [sp, #4]
 3968 0008 1800     		movs	r0, r3
 3969 000a FFF7FEFF 		bl	chCondWait
 3970 000e 0300     		movs	r3, r0
 3971              		.loc 12 487 0
 3972 0010 1800     		movs	r0, r3
 3973 0012 03B0     		add	sp, sp, #12
 3974              		@ sp needed
 3975 0014 00BD     		pop	{pc}
 3976              		.cfi_endproc
 3977              	.LFE278:
 3978              		.size	_ZN10chibios_rt7CondVar4waitEv, .-_ZN10chibios_rt7CondVar4waitEv
 3979 0016 C046     		.section	.text._ZN10chibios_rt7CondVar5waitSEv,"ax",%progbits
 3980              		.align	1
 3981              		.p2align 4,,15
 3982              		.global	_ZN10chibios_rt7CondVar5waitSEv
 3983              		.syntax unified
 3984              		.code	16
 3985              		.thumb_func
 3986              		.fpu softvfp
ARM GAS  /tmp/ccvPPVYB.s 			page 71


 3987              		.type	_ZN10chibios_rt7CondVar5waitSEv, %function
 3988              	_ZN10chibios_rt7CondVar5waitSEv:
 3989              	.LFB279:
 3990              		.loc 12 489 0
 3991              		.cfi_startproc
 3992              		@ args = 0, pretend = 0, frame = 8
 3993              		@ frame_needed = 0, uses_anonymous_args = 0
 3994 0000 00B5     		push	{lr}
 3995              		.cfi_def_cfa_offset 4
 3996              		.cfi_offset 14, -4
 3997 0002 83B0     		sub	sp, sp, #12
 3998              		.cfi_def_cfa_offset 16
 3999 0004 0190     		str	r0, [sp, #4]
 4000              		.loc 12 491 0
 4001 0006 019B     		ldr	r3, [sp, #4]
 4002 0008 1800     		movs	r0, r3
 4003 000a FFF7FEFF 		bl	chCondWaitS
 4004 000e 0300     		movs	r3, r0
 4005              		.loc 12 492 0
 4006 0010 1800     		movs	r0, r3
 4007 0012 03B0     		add	sp, sp, #12
 4008              		@ sp needed
 4009 0014 00BD     		pop	{pc}
 4010              		.cfi_endproc
 4011              	.LFE279:
 4012              		.size	_ZN10chibios_rt7CondVar5waitSEv, .-_ZN10chibios_rt7CondVar5waitSEv
 4013 0016 C046     		.section	.text._ZN10chibios_rt7CondVar4waitEt,"ax",%progbits
 4014              		.align	1
 4015              		.p2align 4,,15
 4016              		.global	_ZN10chibios_rt7CondVar4waitEt
 4017              		.syntax unified
 4018              		.code	16
 4019              		.thumb_func
 4020              		.fpu softvfp
 4021              		.type	_ZN10chibios_rt7CondVar4waitEt, %function
 4022              	_ZN10chibios_rt7CondVar4waitEt:
 4023              	.LFB280:
 4024              		.loc 12 495 0
 4025              		.cfi_startproc
 4026              		@ args = 0, pretend = 0, frame = 8
 4027              		@ frame_needed = 0, uses_anonymous_args = 0
 4028 0000 00B5     		push	{lr}
 4029              		.cfi_def_cfa_offset 4
 4030              		.cfi_offset 14, -4
 4031 0002 83B0     		sub	sp, sp, #12
 4032              		.cfi_def_cfa_offset 16
 4033 0004 0190     		str	r0, [sp, #4]
 4034 0006 0A00     		movs	r2, r1
 4035 0008 6B46     		mov	r3, sp
 4036 000a 0233     		adds	r3, r3, #2
 4037 000c 1A80     		strh	r2, [r3]
 4038              		.loc 12 497 0
 4039 000e 019A     		ldr	r2, [sp, #4]
 4040 0010 6B46     		mov	r3, sp
 4041 0012 0233     		adds	r3, r3, #2
 4042 0014 1B88     		ldrh	r3, [r3]
 4043 0016 1900     		movs	r1, r3
ARM GAS  /tmp/ccvPPVYB.s 			page 72


 4044 0018 1000     		movs	r0, r2
 4045 001a FFF7FEFF 		bl	chCondWaitTimeout
 4046 001e 0300     		movs	r3, r0
 4047              		.loc 12 498 0
 4048 0020 1800     		movs	r0, r3
 4049 0022 03B0     		add	sp, sp, #12
 4050              		@ sp needed
 4051 0024 00BD     		pop	{pc}
 4052              		.cfi_endproc
 4053              	.LFE280:
 4054              		.size	_ZN10chibios_rt7CondVar4waitEt, .-_ZN10chibios_rt7CondVar4waitEt
 4055 0026 C046     		.section	.text._ZN10chibios_rt11EvtListener16getAndClearFlagsEv,"ax",%progbits
 4056              		.align	1
 4057              		.p2align 4,,15
 4058              		.global	_ZN10chibios_rt11EvtListener16getAndClearFlagsEv
 4059              		.syntax unified
 4060              		.code	16
 4061              		.thumb_func
 4062              		.fpu softvfp
 4063              		.type	_ZN10chibios_rt11EvtListener16getAndClearFlagsEv, %function
 4064              	_ZN10chibios_rt11EvtListener16getAndClearFlagsEv:
 4065              	.LFB281:
 4066              		.loc 12 507 0
 4067              		.cfi_startproc
 4068              		@ args = 0, pretend = 0, frame = 8
 4069              		@ frame_needed = 0, uses_anonymous_args = 0
 4070 0000 00B5     		push	{lr}
 4071              		.cfi_def_cfa_offset 4
 4072              		.cfi_offset 14, -4
 4073 0002 83B0     		sub	sp, sp, #12
 4074              		.cfi_def_cfa_offset 16
 4075 0004 0190     		str	r0, [sp, #4]
 4076              		.loc 12 509 0
 4077 0006 019B     		ldr	r3, [sp, #4]
 4078 0008 1800     		movs	r0, r3
 4079 000a FFF7FEFF 		bl	chEvtGetAndClearFlags
 4080 000e 0300     		movs	r3, r0
 4081              		.loc 12 510 0
 4082 0010 1800     		movs	r0, r3
 4083 0012 03B0     		add	sp, sp, #12
 4084              		@ sp needed
 4085 0014 00BD     		pop	{pc}
 4086              		.cfi_endproc
 4087              	.LFE281:
 4088              		.size	_ZN10chibios_rt11EvtListener16getAndClearFlagsEv, .-_ZN10chibios_rt11EvtListener16getAndClea
 4089 0016 C046     		.section	.text._ZN10chibios_rt11EvtListener17getAndClearFlagsIEv,"ax",%progbits
 4090              		.align	1
 4091              		.p2align 4,,15
 4092              		.global	_ZN10chibios_rt11EvtListener17getAndClearFlagsIEv
 4093              		.syntax unified
 4094              		.code	16
 4095              		.thumb_func
 4096              		.fpu softvfp
 4097              		.type	_ZN10chibios_rt11EvtListener17getAndClearFlagsIEv, %function
 4098              	_ZN10chibios_rt11EvtListener17getAndClearFlagsIEv:
 4099              	.LFB282:
 4100              		.loc 12 512 0
ARM GAS  /tmp/ccvPPVYB.s 			page 73


 4101              		.cfi_startproc
 4102              		@ args = 0, pretend = 0, frame = 8
 4103              		@ frame_needed = 0, uses_anonymous_args = 0
 4104 0000 00B5     		push	{lr}
 4105              		.cfi_def_cfa_offset 4
 4106              		.cfi_offset 14, -4
 4107 0002 83B0     		sub	sp, sp, #12
 4108              		.cfi_def_cfa_offset 16
 4109 0004 0190     		str	r0, [sp, #4]
 4110              		.loc 12 514 0
 4111 0006 019B     		ldr	r3, [sp, #4]
 4112 0008 1800     		movs	r0, r3
 4113 000a FFF7FEFF 		bl	chEvtGetAndClearFlagsI
 4114 000e 0300     		movs	r3, r0
 4115              		.loc 12 515 0
 4116 0010 1800     		movs	r0, r3
 4117 0012 03B0     		add	sp, sp, #12
 4118              		@ sp needed
 4119 0014 00BD     		pop	{pc}
 4120              		.cfi_endproc
 4121              	.LFE282:
 4122              		.size	_ZN10chibios_rt11EvtListener17getAndClearFlagsIEv, .-_ZN10chibios_rt11EvtListener17getAndCle
 4123 0016 C046     		.section	.text._ZN10chibios_rt9EvtSourceC2Ev,"ax",%progbits
 4124              		.align	1
 4125              		.p2align 4,,15
 4126              		.global	_ZN10chibios_rt9EvtSourceC2Ev
 4127              		.syntax unified
 4128              		.code	16
 4129              		.thumb_func
 4130              		.fpu softvfp
 4131              		.type	_ZN10chibios_rt9EvtSourceC2Ev, %function
 4132              	_ZN10chibios_rt9EvtSourceC2Ev:
 4133              	.LFB284:
 4134              		.loc 12 520 0
 4135              		.cfi_startproc
 4136              		@ args = 0, pretend = 0, frame = 8
 4137              		@ frame_needed = 0, uses_anonymous_args = 0
 4138 0000 00B5     		push	{lr}
 4139              		.cfi_def_cfa_offset 4
 4140              		.cfi_offset 14, -4
 4141 0002 83B0     		sub	sp, sp, #12
 4142              		.cfi_def_cfa_offset 16
 4143 0004 0190     		str	r0, [sp, #4]
 4144              	.LBB17:
 4145              		.loc 12 522 0
 4146 0006 019B     		ldr	r3, [sp, #4]
 4147 0008 1800     		movs	r0, r3
 4148 000a FFF7FEFF 		bl	_ZL15chEvtObjectInitP12event_source
 4149              	.LBE17:
 4150              		.loc 12 523 0
 4151 000e 019B     		ldr	r3, [sp, #4]
 4152 0010 1800     		movs	r0, r3
 4153 0012 03B0     		add	sp, sp, #12
 4154              		@ sp needed
 4155 0014 00BD     		pop	{pc}
 4156              		.cfi_endproc
 4157              	.LFE284:
ARM GAS  /tmp/ccvPPVYB.s 			page 74


 4158              		.size	_ZN10chibios_rt9EvtSourceC2Ev, .-_ZN10chibios_rt9EvtSourceC2Ev
 4159              		.global	_ZN10chibios_rt9EvtSourceC1Ev
 4160              		.thumb_set _ZN10chibios_rt9EvtSourceC1Ev,_ZN10chibios_rt9EvtSourceC2Ev
 4161 0016 C046     		.section	.text._ZN10chibios_rt9EvtSource11registerOneEPNS_11EvtListenerEl,"ax",%progbits
 4162              		.align	1
 4163              		.p2align 4,,15
 4164              		.global	_ZN10chibios_rt9EvtSource11registerOneEPNS_11EvtListenerEl
 4165              		.syntax unified
 4166              		.code	16
 4167              		.thumb_func
 4168              		.fpu softvfp
 4169              		.type	_ZN10chibios_rt9EvtSource11registerOneEPNS_11EvtListenerEl, %function
 4170              	_ZN10chibios_rt9EvtSource11registerOneEPNS_11EvtListenerEl:
 4171              	.LFB286:
 4172              		.loc 12 526 0
 4173              		.cfi_startproc
 4174              		@ args = 0, pretend = 0, frame = 16
 4175              		@ frame_needed = 0, uses_anonymous_args = 0
 4176 0000 00B5     		push	{lr}
 4177              		.cfi_def_cfa_offset 4
 4178              		.cfi_offset 14, -4
 4179 0002 85B0     		sub	sp, sp, #20
 4180              		.cfi_def_cfa_offset 24
 4181 0004 0390     		str	r0, [sp, #12]
 4182 0006 0291     		str	r1, [sp, #8]
 4183 0008 0192     		str	r2, [sp, #4]
 4184              		.loc 12 528 0
 4185 000a 039B     		ldr	r3, [sp, #12]
 4186 000c 0299     		ldr	r1, [sp, #8]
 4187 000e 019A     		ldr	r2, [sp, #4]
 4188 0010 1800     		movs	r0, r3
 4189 0012 FFF7FEFF 		bl	_ZL13chEvtRegisterP12event_sourceP14event_listenerl
 4190              		.loc 12 529 0
 4191 0016 C046     		nop
 4192 0018 05B0     		add	sp, sp, #20
 4193              		@ sp needed
 4194 001a 00BD     		pop	{pc}
 4195              		.cfi_endproc
 4196              	.LFE286:
 4197              		.size	_ZN10chibios_rt9EvtSource11registerOneEPNS_11EvtListenerEl, .-_ZN10chibios_rt9EvtSource11reg
 4198              		.section	.text._ZN10chibios_rt9EvtSource12registerMaskEPNS_11EvtListenerEm,"ax",%progbits
 4199              		.align	1
 4200              		.p2align 4,,15
 4201              		.global	_ZN10chibios_rt9EvtSource12registerMaskEPNS_11EvtListenerEm
 4202              		.syntax unified
 4203              		.code	16
 4204              		.thumb_func
 4205              		.fpu softvfp
 4206              		.type	_ZN10chibios_rt9EvtSource12registerMaskEPNS_11EvtListenerEm, %function
 4207              	_ZN10chibios_rt9EvtSource12registerMaskEPNS_11EvtListenerEm:
 4208              	.LFB287:
 4209              		.loc 12 532 0
 4210              		.cfi_startproc
 4211              		@ args = 0, pretend = 0, frame = 16
 4212              		@ frame_needed = 0, uses_anonymous_args = 0
 4213 0000 00B5     		push	{lr}
 4214              		.cfi_def_cfa_offset 4
ARM GAS  /tmp/ccvPPVYB.s 			page 75


 4215              		.cfi_offset 14, -4
 4216 0002 85B0     		sub	sp, sp, #20
 4217              		.cfi_def_cfa_offset 24
 4218 0004 0390     		str	r0, [sp, #12]
 4219 0006 0291     		str	r1, [sp, #8]
 4220 0008 0192     		str	r2, [sp, #4]
 4221              		.loc 12 534 0
 4222 000a 039B     		ldr	r3, [sp, #12]
 4223 000c 0299     		ldr	r1, [sp, #8]
 4224 000e 019A     		ldr	r2, [sp, #4]
 4225 0010 1800     		movs	r0, r3
 4226 0012 FFF7FEFF 		bl	_ZL17chEvtRegisterMaskP12event_sourceP14event_listenerm
 4227              		.loc 12 535 0
 4228 0016 C046     		nop
 4229 0018 05B0     		add	sp, sp, #20
 4230              		@ sp needed
 4231 001a 00BD     		pop	{pc}
 4232              		.cfi_endproc
 4233              	.LFE287:
 4234              		.size	_ZN10chibios_rt9EvtSource12registerMaskEPNS_11EvtListenerEm, .-_ZN10chibios_rt9EvtSource12re
 4235              		.section	.text._ZN10chibios_rt9EvtSource10unregisterEPNS_11EvtListenerE,"ax",%progbits
 4236              		.align	1
 4237              		.p2align 4,,15
 4238              		.global	_ZN10chibios_rt9EvtSource10unregisterEPNS_11EvtListenerE
 4239              		.syntax unified
 4240              		.code	16
 4241              		.thumb_func
 4242              		.fpu softvfp
 4243              		.type	_ZN10chibios_rt9EvtSource10unregisterEPNS_11EvtListenerE, %function
 4244              	_ZN10chibios_rt9EvtSource10unregisterEPNS_11EvtListenerE:
 4245              	.LFB288:
 4246              		.loc 12 537 0
 4247              		.cfi_startproc
 4248              		@ args = 0, pretend = 0, frame = 8
 4249              		@ frame_needed = 0, uses_anonymous_args = 0
 4250 0000 00B5     		push	{lr}
 4251              		.cfi_def_cfa_offset 4
 4252              		.cfi_offset 14, -4
 4253 0002 83B0     		sub	sp, sp, #12
 4254              		.cfi_def_cfa_offset 16
 4255 0004 0190     		str	r0, [sp, #4]
 4256 0006 0091     		str	r1, [sp]
 4257              		.loc 12 539 0
 4258 0008 019B     		ldr	r3, [sp, #4]
 4259 000a 009A     		ldr	r2, [sp]
 4260 000c 1100     		movs	r1, r2
 4261 000e 1800     		movs	r0, r3
 4262 0010 FFF7FEFF 		bl	chEvtUnregister
 4263              		.loc 12 540 0
 4264 0014 C046     		nop
 4265 0016 03B0     		add	sp, sp, #12
 4266              		@ sp needed
 4267 0018 00BD     		pop	{pc}
 4268              		.cfi_endproc
 4269              	.LFE288:
 4270              		.size	_ZN10chibios_rt9EvtSource10unregisterEPNS_11EvtListenerE, .-_ZN10chibios_rt9EvtSource10unreg
 4271 001a C046     		.section	.text._ZN10chibios_rt9EvtSource14broadcastFlagsEm,"ax",%progbits
ARM GAS  /tmp/ccvPPVYB.s 			page 76


 4272              		.align	1
 4273              		.p2align 4,,15
 4274              		.global	_ZN10chibios_rt9EvtSource14broadcastFlagsEm
 4275              		.syntax unified
 4276              		.code	16
 4277              		.thumb_func
 4278              		.fpu softvfp
 4279              		.type	_ZN10chibios_rt9EvtSource14broadcastFlagsEm, %function
 4280              	_ZN10chibios_rt9EvtSource14broadcastFlagsEm:
 4281              	.LFB289:
 4282              		.loc 12 542 0
 4283              		.cfi_startproc
 4284              		@ args = 0, pretend = 0, frame = 8
 4285              		@ frame_needed = 0, uses_anonymous_args = 0
 4286 0000 00B5     		push	{lr}
 4287              		.cfi_def_cfa_offset 4
 4288              		.cfi_offset 14, -4
 4289 0002 83B0     		sub	sp, sp, #12
 4290              		.cfi_def_cfa_offset 16
 4291 0004 0190     		str	r0, [sp, #4]
 4292 0006 0091     		str	r1, [sp]
 4293              		.loc 12 544 0
 4294 0008 019B     		ldr	r3, [sp, #4]
 4295 000a 009A     		ldr	r2, [sp]
 4296 000c 1100     		movs	r1, r2
 4297 000e 1800     		movs	r0, r3
 4298 0010 FFF7FEFF 		bl	chEvtBroadcastFlags
 4299              		.loc 12 545 0
 4300 0014 C046     		nop
 4301 0016 03B0     		add	sp, sp, #12
 4302              		@ sp needed
 4303 0018 00BD     		pop	{pc}
 4304              		.cfi_endproc
 4305              	.LFE289:
 4306              		.size	_ZN10chibios_rt9EvtSource14broadcastFlagsEm, .-_ZN10chibios_rt9EvtSource14broadcastFlagsEm
 4307 001a C046     		.section	.text._ZN10chibios_rt9EvtSource15broadcastFlagsIEm,"ax",%progbits
 4308              		.align	1
 4309              		.p2align 4,,15
 4310              		.global	_ZN10chibios_rt9EvtSource15broadcastFlagsIEm
 4311              		.syntax unified
 4312              		.code	16
 4313              		.thumb_func
 4314              		.fpu softvfp
 4315              		.type	_ZN10chibios_rt9EvtSource15broadcastFlagsIEm, %function
 4316              	_ZN10chibios_rt9EvtSource15broadcastFlagsIEm:
 4317              	.LFB290:
 4318              		.loc 12 547 0
 4319              		.cfi_startproc
 4320              		@ args = 0, pretend = 0, frame = 8
 4321              		@ frame_needed = 0, uses_anonymous_args = 0
 4322 0000 00B5     		push	{lr}
 4323              		.cfi_def_cfa_offset 4
 4324              		.cfi_offset 14, -4
 4325 0002 83B0     		sub	sp, sp, #12
 4326              		.cfi_def_cfa_offset 16
 4327 0004 0190     		str	r0, [sp, #4]
 4328 0006 0091     		str	r1, [sp]
ARM GAS  /tmp/ccvPPVYB.s 			page 77


 4329              		.loc 12 549 0
 4330 0008 019B     		ldr	r3, [sp, #4]
 4331 000a 009A     		ldr	r2, [sp]
 4332 000c 1100     		movs	r1, r2
 4333 000e 1800     		movs	r0, r3
 4334 0010 FFF7FEFF 		bl	chEvtBroadcastFlagsI
 4335              		.loc 12 550 0
 4336 0014 C046     		nop
 4337 0016 03B0     		add	sp, sp, #12
 4338              		@ sp needed
 4339 0018 00BD     		pop	{pc}
 4340              		.cfi_endproc
 4341              	.LFE290:
 4342              		.size	_ZN10chibios_rt9EvtSource15broadcastFlagsIEm, .-_ZN10chibios_rt9EvtSource15broadcastFlagsIEm
 4343 001a C046     		.section	.text._ZN10chibios_rt7InQueueC2EPhjPFvP8io_queueEPv,"ax",%progbits
 4344              		.align	1
 4345              		.p2align 4,,15
 4346              		.global	_ZN10chibios_rt7InQueueC2EPhjPFvP8io_queueEPv
 4347              		.syntax unified
 4348              		.code	16
 4349              		.thumb_func
 4350              		.fpu softvfp
 4351              		.type	_ZN10chibios_rt7InQueueC2EPhjPFvP8io_queueEPv, %function
 4352              	_ZN10chibios_rt7InQueueC2EPhjPFvP8io_queueEPv:
 4353              	.LFB292:
 4354              		.loc 12 557 0
 4355              		.cfi_startproc
 4356              		@ args = 4, pretend = 0, frame = 16
 4357              		@ frame_needed = 0, uses_anonymous_args = 0
 4358 0000 10B5     		push	{r4, lr}
 4359              		.cfi_def_cfa_offset 8
 4360              		.cfi_offset 4, -8
 4361              		.cfi_offset 14, -4
 4362 0002 86B0     		sub	sp, sp, #24
 4363              		.cfi_def_cfa_offset 32
 4364 0004 0590     		str	r0, [sp, #20]
 4365 0006 0491     		str	r1, [sp, #16]
 4366 0008 0392     		str	r2, [sp, #12]
 4367 000a 0293     		str	r3, [sp, #8]
 4368              	.LBB18:
 4369              		.loc 12 559 0
 4370 000c 0598     		ldr	r0, [sp, #20]
 4371 000e 029C     		ldr	r4, [sp, #8]
 4372 0010 039A     		ldr	r2, [sp, #12]
 4373 0012 0499     		ldr	r1, [sp, #16]
 4374 0014 089B     		ldr	r3, [sp, #32]
 4375 0016 0093     		str	r3, [sp]
 4376 0018 2300     		movs	r3, r4
 4377 001a FFF7FEFF 		bl	chIQObjectInit
 4378              	.LBE18:
 4379              		.loc 12 560 0
 4380 001e 059B     		ldr	r3, [sp, #20]
 4381 0020 1800     		movs	r0, r3
 4382 0022 06B0     		add	sp, sp, #24
 4383              		@ sp needed
 4384 0024 10BD     		pop	{r4, pc}
 4385              		.cfi_endproc
ARM GAS  /tmp/ccvPPVYB.s 			page 78


 4386              	.LFE292:
 4387              		.size	_ZN10chibios_rt7InQueueC2EPhjPFvP8io_queueEPv, .-_ZN10chibios_rt7InQueueC2EPhjPFvP8io_queueE
 4388              		.global	_ZN10chibios_rt7InQueueC1EPhjPFvP8io_queueEPv
 4389              		.thumb_set _ZN10chibios_rt7InQueueC1EPhjPFvP8io_queueEPv,_ZN10chibios_rt7InQueueC2EPhjPFvP8io_queu
 4390 0026 C046     		.section	.text._ZN10chibios_rt7InQueue8getFullIEv,"ax",%progbits
 4391              		.align	1
 4392              		.p2align 4,,15
 4393              		.global	_ZN10chibios_rt7InQueue8getFullIEv
 4394              		.syntax unified
 4395              		.code	16
 4396              		.thumb_func
 4397              		.fpu softvfp
 4398              		.type	_ZN10chibios_rt7InQueue8getFullIEv, %function
 4399              	_ZN10chibios_rt7InQueue8getFullIEv:
 4400              	.LFB294:
 4401              		.loc 12 562 0
 4402              		.cfi_startproc
 4403              		@ args = 0, pretend = 0, frame = 8
 4404              		@ frame_needed = 0, uses_anonymous_args = 0
 4405 0000 00B5     		push	{lr}
 4406              		.cfi_def_cfa_offset 4
 4407              		.cfi_offset 14, -4
 4408 0002 83B0     		sub	sp, sp, #12
 4409              		.cfi_def_cfa_offset 16
 4410 0004 0190     		str	r0, [sp, #4]
 4411              		.loc 12 564 0
 4412 0006 019B     		ldr	r3, [sp, #4]
 4413 0008 1800     		movs	r0, r3
 4414 000a FFF7FEFF 		bl	_ZL12chIQGetFullIP8io_queue
 4415 000e 0300     		movs	r3, r0
 4416              		.loc 12 565 0
 4417 0010 1800     		movs	r0, r3
 4418 0012 03B0     		add	sp, sp, #12
 4419              		@ sp needed
 4420 0014 00BD     		pop	{pc}
 4421              		.cfi_endproc
 4422              	.LFE294:
 4423              		.size	_ZN10chibios_rt7InQueue8getFullIEv, .-_ZN10chibios_rt7InQueue8getFullIEv
 4424 0016 C046     		.section	.text._ZN10chibios_rt7InQueue9getEmptyIEv,"ax",%progbits
 4425              		.align	1
 4426              		.p2align 4,,15
 4427              		.global	_ZN10chibios_rt7InQueue9getEmptyIEv
 4428              		.syntax unified
 4429              		.code	16
 4430              		.thumb_func
 4431              		.fpu softvfp
 4432              		.type	_ZN10chibios_rt7InQueue9getEmptyIEv, %function
 4433              	_ZN10chibios_rt7InQueue9getEmptyIEv:
 4434              	.LFB295:
 4435              		.loc 12 567 0
 4436              		.cfi_startproc
 4437              		@ args = 0, pretend = 0, frame = 8
 4438              		@ frame_needed = 0, uses_anonymous_args = 0
 4439 0000 00B5     		push	{lr}
 4440              		.cfi_def_cfa_offset 4
 4441              		.cfi_offset 14, -4
 4442 0002 83B0     		sub	sp, sp, #12
ARM GAS  /tmp/ccvPPVYB.s 			page 79


 4443              		.cfi_def_cfa_offset 16
 4444 0004 0190     		str	r0, [sp, #4]
 4445              		.loc 12 569 0
 4446 0006 019B     		ldr	r3, [sp, #4]
 4447 0008 1800     		movs	r0, r3
 4448 000a FFF7FEFF 		bl	_ZL13chIQGetEmptyIP8io_queue
 4449 000e 0300     		movs	r3, r0
 4450              		.loc 12 570 0
 4451 0010 1800     		movs	r0, r3
 4452 0012 03B0     		add	sp, sp, #12
 4453              		@ sp needed
 4454 0014 00BD     		pop	{pc}
 4455              		.cfi_endproc
 4456              	.LFE295:
 4457              		.size	_ZN10chibios_rt7InQueue9getEmptyIEv, .-_ZN10chibios_rt7InQueue9getEmptyIEv
 4458 0016 C046     		.section	.text._ZN10chibios_rt7InQueue8isEmptyIEv,"ax",%progbits
 4459              		.align	1
 4460              		.p2align 4,,15
 4461              		.global	_ZN10chibios_rt7InQueue8isEmptyIEv
 4462              		.syntax unified
 4463              		.code	16
 4464              		.thumb_func
 4465              		.fpu softvfp
 4466              		.type	_ZN10chibios_rt7InQueue8isEmptyIEv, %function
 4467              	_ZN10chibios_rt7InQueue8isEmptyIEv:
 4468              	.LFB296:
 4469              		.loc 12 572 0
 4470              		.cfi_startproc
 4471              		@ args = 0, pretend = 0, frame = 8
 4472              		@ frame_needed = 0, uses_anonymous_args = 0
 4473 0000 00B5     		push	{lr}
 4474              		.cfi_def_cfa_offset 4
 4475              		.cfi_offset 14, -4
 4476 0002 83B0     		sub	sp, sp, #12
 4477              		.cfi_def_cfa_offset 16
 4478 0004 0190     		str	r0, [sp, #4]
 4479              		.loc 12 574 0
 4480 0006 019B     		ldr	r3, [sp, #4]
 4481 0008 1800     		movs	r0, r3
 4482 000a FFF7FEFF 		bl	_ZL12chIQIsEmptyIP8io_queue
 4483 000e 0300     		movs	r3, r0
 4484              		.loc 12 575 0
 4485 0010 1800     		movs	r0, r3
 4486 0012 03B0     		add	sp, sp, #12
 4487              		@ sp needed
 4488 0014 00BD     		pop	{pc}
 4489              		.cfi_endproc
 4490              	.LFE296:
 4491              		.size	_ZN10chibios_rt7InQueue8isEmptyIEv, .-_ZN10chibios_rt7InQueue8isEmptyIEv
 4492 0016 C046     		.section	.text._ZN10chibios_rt7InQueue7isFullIEv,"ax",%progbits
 4493              		.align	1
 4494              		.p2align 4,,15
 4495              		.global	_ZN10chibios_rt7InQueue7isFullIEv
 4496              		.syntax unified
 4497              		.code	16
 4498              		.thumb_func
 4499              		.fpu softvfp
ARM GAS  /tmp/ccvPPVYB.s 			page 80


 4500              		.type	_ZN10chibios_rt7InQueue7isFullIEv, %function
 4501              	_ZN10chibios_rt7InQueue7isFullIEv:
 4502              	.LFB297:
 4503              		.loc 12 577 0
 4504              		.cfi_startproc
 4505              		@ args = 0, pretend = 0, frame = 8
 4506              		@ frame_needed = 0, uses_anonymous_args = 0
 4507 0000 00B5     		push	{lr}
 4508              		.cfi_def_cfa_offset 4
 4509              		.cfi_offset 14, -4
 4510 0002 83B0     		sub	sp, sp, #12
 4511              		.cfi_def_cfa_offset 16
 4512 0004 0190     		str	r0, [sp, #4]
 4513              		.loc 12 579 0
 4514 0006 019B     		ldr	r3, [sp, #4]
 4515 0008 1800     		movs	r0, r3
 4516 000a FFF7FEFF 		bl	_ZL11chIQIsFullIP8io_queue
 4517 000e 0300     		movs	r3, r0
 4518              		.loc 12 580 0
 4519 0010 1800     		movs	r0, r3
 4520 0012 03B0     		add	sp, sp, #12
 4521              		@ sp needed
 4522 0014 00BD     		pop	{pc}
 4523              		.cfi_endproc
 4524              	.LFE297:
 4525              		.size	_ZN10chibios_rt7InQueue7isFullIEv, .-_ZN10chibios_rt7InQueue7isFullIEv
 4526 0016 C046     		.section	.text._ZN10chibios_rt7InQueue6resetIEv,"ax",%progbits
 4527              		.align	1
 4528              		.p2align 4,,15
 4529              		.global	_ZN10chibios_rt7InQueue6resetIEv
 4530              		.syntax unified
 4531              		.code	16
 4532              		.thumb_func
 4533              		.fpu softvfp
 4534              		.type	_ZN10chibios_rt7InQueue6resetIEv, %function
 4535              	_ZN10chibios_rt7InQueue6resetIEv:
 4536              	.LFB298:
 4537              		.loc 12 582 0
 4538              		.cfi_startproc
 4539              		@ args = 0, pretend = 0, frame = 8
 4540              		@ frame_needed = 0, uses_anonymous_args = 0
 4541 0000 00B5     		push	{lr}
 4542              		.cfi_def_cfa_offset 4
 4543              		.cfi_offset 14, -4
 4544 0002 83B0     		sub	sp, sp, #12
 4545              		.cfi_def_cfa_offset 16
 4546 0004 0190     		str	r0, [sp, #4]
 4547              		.loc 12 584 0
 4548 0006 019B     		ldr	r3, [sp, #4]
 4549 0008 1800     		movs	r0, r3
 4550 000a FFF7FEFF 		bl	chIQResetI
 4551              		.loc 12 585 0
 4552 000e C046     		nop
 4553 0010 03B0     		add	sp, sp, #12
 4554              		@ sp needed
 4555 0012 00BD     		pop	{pc}
 4556              		.cfi_endproc
ARM GAS  /tmp/ccvPPVYB.s 			page 81


 4557              	.LFE298:
 4558              		.size	_ZN10chibios_rt7InQueue6resetIEv, .-_ZN10chibios_rt7InQueue6resetIEv
 4559              		.section	.text._ZN10chibios_rt7InQueue4putIEh,"ax",%progbits
 4560              		.align	1
 4561              		.p2align 4,,15
 4562              		.global	_ZN10chibios_rt7InQueue4putIEh
 4563              		.syntax unified
 4564              		.code	16
 4565              		.thumb_func
 4566              		.fpu softvfp
 4567              		.type	_ZN10chibios_rt7InQueue4putIEh, %function
 4568              	_ZN10chibios_rt7InQueue4putIEh:
 4569              	.LFB299:
 4570              		.loc 12 587 0
 4571              		.cfi_startproc
 4572              		@ args = 0, pretend = 0, frame = 8
 4573              		@ frame_needed = 0, uses_anonymous_args = 0
 4574 0000 00B5     		push	{lr}
 4575              		.cfi_def_cfa_offset 4
 4576              		.cfi_offset 14, -4
 4577 0002 83B0     		sub	sp, sp, #12
 4578              		.cfi_def_cfa_offset 16
 4579 0004 0190     		str	r0, [sp, #4]
 4580 0006 0A00     		movs	r2, r1
 4581 0008 6B46     		mov	r3, sp
 4582 000a 0333     		adds	r3, r3, #3
 4583 000c 1A70     		strb	r2, [r3]
 4584              		.loc 12 589 0
 4585 000e 019A     		ldr	r2, [sp, #4]
 4586 0010 6B46     		mov	r3, sp
 4587 0012 0333     		adds	r3, r3, #3
 4588 0014 1B78     		ldrb	r3, [r3]
 4589 0016 1900     		movs	r1, r3
 4590 0018 1000     		movs	r0, r2
 4591 001a FFF7FEFF 		bl	chIQPutI
 4592 001e 0300     		movs	r3, r0
 4593              		.loc 12 590 0
 4594 0020 1800     		movs	r0, r3
 4595 0022 03B0     		add	sp, sp, #12
 4596              		@ sp needed
 4597 0024 00BD     		pop	{pc}
 4598              		.cfi_endproc
 4599              	.LFE299:
 4600              		.size	_ZN10chibios_rt7InQueue4putIEh, .-_ZN10chibios_rt7InQueue4putIEh
 4601 0026 C046     		.section	.text._ZN10chibios_rt7InQueue3getEv,"ax",%progbits
 4602              		.align	1
 4603              		.p2align 4,,15
 4604              		.global	_ZN10chibios_rt7InQueue3getEv
 4605              		.syntax unified
 4606              		.code	16
 4607              		.thumb_func
 4608              		.fpu softvfp
 4609              		.type	_ZN10chibios_rt7InQueue3getEv, %function
 4610              	_ZN10chibios_rt7InQueue3getEv:
 4611              	.LFB300:
 4612              		.loc 12 592 0
 4613              		.cfi_startproc
ARM GAS  /tmp/ccvPPVYB.s 			page 82


 4614              		@ args = 0, pretend = 0, frame = 8
 4615              		@ frame_needed = 0, uses_anonymous_args = 0
 4616 0000 00B5     		push	{lr}
 4617              		.cfi_def_cfa_offset 4
 4618              		.cfi_offset 14, -4
 4619 0002 83B0     		sub	sp, sp, #12
 4620              		.cfi_def_cfa_offset 16
 4621 0004 0190     		str	r0, [sp, #4]
 4622              		.loc 12 594 0
 4623 0006 019B     		ldr	r3, [sp, #4]
 4624 0008 1800     		movs	r0, r3
 4625 000a FFF7FEFF 		bl	_ZL7chIQGetP8io_queue
 4626 000e 0300     		movs	r3, r0
 4627              		.loc 12 595 0
 4628 0010 1800     		movs	r0, r3
 4629 0012 03B0     		add	sp, sp, #12
 4630              		@ sp needed
 4631 0014 00BD     		pop	{pc}
 4632              		.cfi_endproc
 4633              	.LFE300:
 4634              		.size	_ZN10chibios_rt7InQueue3getEv, .-_ZN10chibios_rt7InQueue3getEv
 4635 0016 C046     		.section	.text._ZN10chibios_rt7InQueue3getEt,"ax",%progbits
 4636              		.align	1
 4637              		.p2align 4,,15
 4638              		.global	_ZN10chibios_rt7InQueue3getEt
 4639              		.syntax unified
 4640              		.code	16
 4641              		.thumb_func
 4642              		.fpu softvfp
 4643              		.type	_ZN10chibios_rt7InQueue3getEt, %function
 4644              	_ZN10chibios_rt7InQueue3getEt:
 4645              	.LFB301:
 4646              		.loc 12 597 0
 4647              		.cfi_startproc
 4648              		@ args = 0, pretend = 0, frame = 8
 4649              		@ frame_needed = 0, uses_anonymous_args = 0
 4650 0000 00B5     		push	{lr}
 4651              		.cfi_def_cfa_offset 4
 4652              		.cfi_offset 14, -4
 4653 0002 83B0     		sub	sp, sp, #12
 4654              		.cfi_def_cfa_offset 16
 4655 0004 0190     		str	r0, [sp, #4]
 4656 0006 0A00     		movs	r2, r1
 4657 0008 6B46     		mov	r3, sp
 4658 000a 0233     		adds	r3, r3, #2
 4659 000c 1A80     		strh	r2, [r3]
 4660              		.loc 12 599 0
 4661 000e 019A     		ldr	r2, [sp, #4]
 4662 0010 6B46     		mov	r3, sp
 4663 0012 0233     		adds	r3, r3, #2
 4664 0014 1B88     		ldrh	r3, [r3]
 4665 0016 1900     		movs	r1, r3
 4666 0018 1000     		movs	r0, r2
 4667 001a FFF7FEFF 		bl	chIQGetTimeout
 4668 001e 0300     		movs	r3, r0
 4669              		.loc 12 600 0
 4670 0020 1800     		movs	r0, r3
ARM GAS  /tmp/ccvPPVYB.s 			page 83


 4671 0022 03B0     		add	sp, sp, #12
 4672              		@ sp needed
 4673 0024 00BD     		pop	{pc}
 4674              		.cfi_endproc
 4675              	.LFE301:
 4676              		.size	_ZN10chibios_rt7InQueue3getEt, .-_ZN10chibios_rt7InQueue3getEt
 4677 0026 C046     		.section	.text._ZN10chibios_rt7InQueue4readEPhjt,"ax",%progbits
 4678              		.align	1
 4679              		.p2align 4,,15
 4680              		.global	_ZN10chibios_rt7InQueue4readEPhjt
 4681              		.syntax unified
 4682              		.code	16
 4683              		.thumb_func
 4684              		.fpu softvfp
 4685              		.type	_ZN10chibios_rt7InQueue4readEPhjt, %function
 4686              	_ZN10chibios_rt7InQueue4readEPhjt:
 4687              	.LFB302:
 4688              		.loc 12 602 0
 4689              		.cfi_startproc
 4690              		@ args = 0, pretend = 0, frame = 16
 4691              		@ frame_needed = 0, uses_anonymous_args = 0
 4692 0000 00B5     		push	{lr}
 4693              		.cfi_def_cfa_offset 4
 4694              		.cfi_offset 14, -4
 4695 0002 85B0     		sub	sp, sp, #20
 4696              		.cfi_def_cfa_offset 24
 4697 0004 0390     		str	r0, [sp, #12]
 4698 0006 0291     		str	r1, [sp, #8]
 4699 0008 0192     		str	r2, [sp, #4]
 4700 000a 1A00     		movs	r2, r3
 4701 000c 6B46     		mov	r3, sp
 4702 000e 0233     		adds	r3, r3, #2
 4703 0010 1A80     		strh	r2, [r3]
 4704              		.loc 12 604 0
 4705 0012 0398     		ldr	r0, [sp, #12]
 4706 0014 6B46     		mov	r3, sp
 4707 0016 0233     		adds	r3, r3, #2
 4708 0018 1B88     		ldrh	r3, [r3]
 4709 001a 019A     		ldr	r2, [sp, #4]
 4710 001c 0299     		ldr	r1, [sp, #8]
 4711 001e FFF7FEFF 		bl	chIQReadTimeout
 4712 0022 0300     		movs	r3, r0
 4713              		.loc 12 605 0
 4714 0024 1800     		movs	r0, r3
 4715 0026 05B0     		add	sp, sp, #20
 4716              		@ sp needed
 4717 0028 00BD     		pop	{pc}
 4718              		.cfi_endproc
 4719              	.LFE302:
 4720              		.size	_ZN10chibios_rt7InQueue4readEPhjt, .-_ZN10chibios_rt7InQueue4readEPhjt
 4721 002a C046     		.section	.text._ZN10chibios_rt8OutQueueC2EPhjPFvP8io_queueEPv,"ax",%progbits
 4722              		.align	1
 4723              		.p2align 4,,15
 4724              		.global	_ZN10chibios_rt8OutQueueC2EPhjPFvP8io_queueEPv
 4725              		.syntax unified
 4726              		.code	16
 4727              		.thumb_func
ARM GAS  /tmp/ccvPPVYB.s 			page 84


 4728              		.fpu softvfp
 4729              		.type	_ZN10chibios_rt8OutQueueC2EPhjPFvP8io_queueEPv, %function
 4730              	_ZN10chibios_rt8OutQueueC2EPhjPFvP8io_queueEPv:
 4731              	.LFB304:
 4732              		.loc 12 610 0
 4733              		.cfi_startproc
 4734              		@ args = 4, pretend = 0, frame = 16
 4735              		@ frame_needed = 0, uses_anonymous_args = 0
 4736 0000 10B5     		push	{r4, lr}
 4737              		.cfi_def_cfa_offset 8
 4738              		.cfi_offset 4, -8
 4739              		.cfi_offset 14, -4
 4740 0002 86B0     		sub	sp, sp, #24
 4741              		.cfi_def_cfa_offset 32
 4742 0004 0590     		str	r0, [sp, #20]
 4743 0006 0491     		str	r1, [sp, #16]
 4744 0008 0392     		str	r2, [sp, #12]
 4745 000a 0293     		str	r3, [sp, #8]
 4746              	.LBB19:
 4747              		.loc 12 612 0
 4748 000c 0598     		ldr	r0, [sp, #20]
 4749 000e 029C     		ldr	r4, [sp, #8]
 4750 0010 039A     		ldr	r2, [sp, #12]
 4751 0012 0499     		ldr	r1, [sp, #16]
 4752 0014 089B     		ldr	r3, [sp, #32]
 4753 0016 0093     		str	r3, [sp]
 4754 0018 2300     		movs	r3, r4
 4755 001a FFF7FEFF 		bl	chOQObjectInit
 4756              	.LBE19:
 4757              		.loc 12 613 0
 4758 001e 059B     		ldr	r3, [sp, #20]
 4759 0020 1800     		movs	r0, r3
 4760 0022 06B0     		add	sp, sp, #24
 4761              		@ sp needed
 4762 0024 10BD     		pop	{r4, pc}
 4763              		.cfi_endproc
 4764              	.LFE304:
 4765              		.size	_ZN10chibios_rt8OutQueueC2EPhjPFvP8io_queueEPv, .-_ZN10chibios_rt8OutQueueC2EPhjPFvP8io_queu
 4766              		.global	_ZN10chibios_rt8OutQueueC1EPhjPFvP8io_queueEPv
 4767              		.thumb_set _ZN10chibios_rt8OutQueueC1EPhjPFvP8io_queueEPv,_ZN10chibios_rt8OutQueueC2EPhjPFvP8io_qu
 4768 0026 C046     		.section	.text._ZN10chibios_rt8OutQueue8getFullIEv,"ax",%progbits
 4769              		.align	1
 4770              		.p2align 4,,15
 4771              		.global	_ZN10chibios_rt8OutQueue8getFullIEv
 4772              		.syntax unified
 4773              		.code	16
 4774              		.thumb_func
 4775              		.fpu softvfp
 4776              		.type	_ZN10chibios_rt8OutQueue8getFullIEv, %function
 4777              	_ZN10chibios_rt8OutQueue8getFullIEv:
 4778              	.LFB306:
 4779              		.loc 12 615 0
 4780              		.cfi_startproc
 4781              		@ args = 0, pretend = 0, frame = 8
 4782              		@ frame_needed = 0, uses_anonymous_args = 0
 4783 0000 00B5     		push	{lr}
 4784              		.cfi_def_cfa_offset 4
ARM GAS  /tmp/ccvPPVYB.s 			page 85


 4785              		.cfi_offset 14, -4
 4786 0002 83B0     		sub	sp, sp, #12
 4787              		.cfi_def_cfa_offset 16
 4788 0004 0190     		str	r0, [sp, #4]
 4789              		.loc 12 617 0
 4790 0006 019B     		ldr	r3, [sp, #4]
 4791 0008 1800     		movs	r0, r3
 4792 000a FFF7FEFF 		bl	_ZL12chOQGetFullIP8io_queue
 4793 000e 0300     		movs	r3, r0
 4794              		.loc 12 618 0
 4795 0010 1800     		movs	r0, r3
 4796 0012 03B0     		add	sp, sp, #12
 4797              		@ sp needed
 4798 0014 00BD     		pop	{pc}
 4799              		.cfi_endproc
 4800              	.LFE306:
 4801              		.size	_ZN10chibios_rt8OutQueue8getFullIEv, .-_ZN10chibios_rt8OutQueue8getFullIEv
 4802 0016 C046     		.section	.text._ZN10chibios_rt8OutQueue9getEmptyIEv,"ax",%progbits
 4803              		.align	1
 4804              		.p2align 4,,15
 4805              		.global	_ZN10chibios_rt8OutQueue9getEmptyIEv
 4806              		.syntax unified
 4807              		.code	16
 4808              		.thumb_func
 4809              		.fpu softvfp
 4810              		.type	_ZN10chibios_rt8OutQueue9getEmptyIEv, %function
 4811              	_ZN10chibios_rt8OutQueue9getEmptyIEv:
 4812              	.LFB307:
 4813              		.loc 12 620 0
 4814              		.cfi_startproc
 4815              		@ args = 0, pretend = 0, frame = 8
 4816              		@ frame_needed = 0, uses_anonymous_args = 0
 4817 0000 00B5     		push	{lr}
 4818              		.cfi_def_cfa_offset 4
 4819              		.cfi_offset 14, -4
 4820 0002 83B0     		sub	sp, sp, #12
 4821              		.cfi_def_cfa_offset 16
 4822 0004 0190     		str	r0, [sp, #4]
 4823              		.loc 12 622 0
 4824 0006 019B     		ldr	r3, [sp, #4]
 4825 0008 1800     		movs	r0, r3
 4826 000a FFF7FEFF 		bl	_ZL13chOQGetEmptyIP8io_queue
 4827 000e 0300     		movs	r3, r0
 4828              		.loc 12 623 0
 4829 0010 1800     		movs	r0, r3
 4830 0012 03B0     		add	sp, sp, #12
 4831              		@ sp needed
 4832 0014 00BD     		pop	{pc}
 4833              		.cfi_endproc
 4834              	.LFE307:
 4835              		.size	_ZN10chibios_rt8OutQueue9getEmptyIEv, .-_ZN10chibios_rt8OutQueue9getEmptyIEv
 4836 0016 C046     		.section	.text._ZN10chibios_rt8OutQueue8isEmptyIEv,"ax",%progbits
 4837              		.align	1
 4838              		.p2align 4,,15
 4839              		.global	_ZN10chibios_rt8OutQueue8isEmptyIEv
 4840              		.syntax unified
 4841              		.code	16
ARM GAS  /tmp/ccvPPVYB.s 			page 86


 4842              		.thumb_func
 4843              		.fpu softvfp
 4844              		.type	_ZN10chibios_rt8OutQueue8isEmptyIEv, %function
 4845              	_ZN10chibios_rt8OutQueue8isEmptyIEv:
 4846              	.LFB308:
 4847              		.loc 12 625 0
 4848              		.cfi_startproc
 4849              		@ args = 0, pretend = 0, frame = 8
 4850              		@ frame_needed = 0, uses_anonymous_args = 0
 4851 0000 00B5     		push	{lr}
 4852              		.cfi_def_cfa_offset 4
 4853              		.cfi_offset 14, -4
 4854 0002 83B0     		sub	sp, sp, #12
 4855              		.cfi_def_cfa_offset 16
 4856 0004 0190     		str	r0, [sp, #4]
 4857              		.loc 12 627 0
 4858 0006 019B     		ldr	r3, [sp, #4]
 4859 0008 1800     		movs	r0, r3
 4860 000a FFF7FEFF 		bl	_ZL12chOQIsEmptyIP8io_queue
 4861 000e 0300     		movs	r3, r0
 4862              		.loc 12 628 0
 4863 0010 1800     		movs	r0, r3
 4864 0012 03B0     		add	sp, sp, #12
 4865              		@ sp needed
 4866 0014 00BD     		pop	{pc}
 4867              		.cfi_endproc
 4868              	.LFE308:
 4869              		.size	_ZN10chibios_rt8OutQueue8isEmptyIEv, .-_ZN10chibios_rt8OutQueue8isEmptyIEv
 4870 0016 C046     		.section	.text._ZN10chibios_rt8OutQueue7isFullIEv,"ax",%progbits
 4871              		.align	1
 4872              		.p2align 4,,15
 4873              		.global	_ZN10chibios_rt8OutQueue7isFullIEv
 4874              		.syntax unified
 4875              		.code	16
 4876              		.thumb_func
 4877              		.fpu softvfp
 4878              		.type	_ZN10chibios_rt8OutQueue7isFullIEv, %function
 4879              	_ZN10chibios_rt8OutQueue7isFullIEv:
 4880              	.LFB309:
 4881              		.loc 12 630 0
 4882              		.cfi_startproc
 4883              		@ args = 0, pretend = 0, frame = 8
 4884              		@ frame_needed = 0, uses_anonymous_args = 0
 4885 0000 00B5     		push	{lr}
 4886              		.cfi_def_cfa_offset 4
 4887              		.cfi_offset 14, -4
 4888 0002 83B0     		sub	sp, sp, #12
 4889              		.cfi_def_cfa_offset 16
 4890 0004 0190     		str	r0, [sp, #4]
 4891              		.loc 12 632 0
 4892 0006 019B     		ldr	r3, [sp, #4]
 4893 0008 1800     		movs	r0, r3
 4894 000a FFF7FEFF 		bl	_ZL11chOQIsFullIP8io_queue
 4895 000e 0300     		movs	r3, r0
 4896              		.loc 12 633 0
 4897 0010 1800     		movs	r0, r3
 4898 0012 03B0     		add	sp, sp, #12
ARM GAS  /tmp/ccvPPVYB.s 			page 87


 4899              		@ sp needed
 4900 0014 00BD     		pop	{pc}
 4901              		.cfi_endproc
 4902              	.LFE309:
 4903              		.size	_ZN10chibios_rt8OutQueue7isFullIEv, .-_ZN10chibios_rt8OutQueue7isFullIEv
 4904 0016 C046     		.section	.text._ZN10chibios_rt8OutQueue6resetIEv,"ax",%progbits
 4905              		.align	1
 4906              		.p2align 4,,15
 4907              		.global	_ZN10chibios_rt8OutQueue6resetIEv
 4908              		.syntax unified
 4909              		.code	16
 4910              		.thumb_func
 4911              		.fpu softvfp
 4912              		.type	_ZN10chibios_rt8OutQueue6resetIEv, %function
 4913              	_ZN10chibios_rt8OutQueue6resetIEv:
 4914              	.LFB310:
 4915              		.loc 12 635 0
 4916              		.cfi_startproc
 4917              		@ args = 0, pretend = 0, frame = 8
 4918              		@ frame_needed = 0, uses_anonymous_args = 0
 4919 0000 00B5     		push	{lr}
 4920              		.cfi_def_cfa_offset 4
 4921              		.cfi_offset 14, -4
 4922 0002 83B0     		sub	sp, sp, #12
 4923              		.cfi_def_cfa_offset 16
 4924 0004 0190     		str	r0, [sp, #4]
 4925              		.loc 12 637 0
 4926 0006 019B     		ldr	r3, [sp, #4]
 4927 0008 1800     		movs	r0, r3
 4928 000a FFF7FEFF 		bl	chOQResetI
 4929              		.loc 12 638 0
 4930 000e C046     		nop
 4931 0010 03B0     		add	sp, sp, #12
 4932              		@ sp needed
 4933 0012 00BD     		pop	{pc}
 4934              		.cfi_endproc
 4935              	.LFE310:
 4936              		.size	_ZN10chibios_rt8OutQueue6resetIEv, .-_ZN10chibios_rt8OutQueue6resetIEv
 4937              		.section	.text._ZN10chibios_rt8OutQueue3putEh,"ax",%progbits
 4938              		.align	1
 4939              		.p2align 4,,15
 4940              		.global	_ZN10chibios_rt8OutQueue3putEh
 4941              		.syntax unified
 4942              		.code	16
 4943              		.thumb_func
 4944              		.fpu softvfp
 4945              		.type	_ZN10chibios_rt8OutQueue3putEh, %function
 4946              	_ZN10chibios_rt8OutQueue3putEh:
 4947              	.LFB311:
 4948              		.loc 12 640 0
 4949              		.cfi_startproc
 4950              		@ args = 0, pretend = 0, frame = 8
 4951              		@ frame_needed = 0, uses_anonymous_args = 0
 4952 0000 00B5     		push	{lr}
 4953              		.cfi_def_cfa_offset 4
 4954              		.cfi_offset 14, -4
 4955 0002 83B0     		sub	sp, sp, #12
ARM GAS  /tmp/ccvPPVYB.s 			page 88


 4956              		.cfi_def_cfa_offset 16
 4957 0004 0190     		str	r0, [sp, #4]
 4958 0006 0A00     		movs	r2, r1
 4959 0008 6B46     		mov	r3, sp
 4960 000a 0333     		adds	r3, r3, #3
 4961 000c 1A70     		strb	r2, [r3]
 4962              		.loc 12 642 0
 4963 000e 019A     		ldr	r2, [sp, #4]
 4964 0010 6B46     		mov	r3, sp
 4965 0012 0333     		adds	r3, r3, #3
 4966 0014 1B78     		ldrb	r3, [r3]
 4967 0016 1900     		movs	r1, r3
 4968 0018 1000     		movs	r0, r2
 4969 001a FFF7FEFF 		bl	_ZL7chOQPutP8io_queueh
 4970 001e 0300     		movs	r3, r0
 4971              		.loc 12 643 0
 4972 0020 1800     		movs	r0, r3
 4973 0022 03B0     		add	sp, sp, #12
 4974              		@ sp needed
 4975 0024 00BD     		pop	{pc}
 4976              		.cfi_endproc
 4977              	.LFE311:
 4978              		.size	_ZN10chibios_rt8OutQueue3putEh, .-_ZN10chibios_rt8OutQueue3putEh
 4979 0026 C046     		.section	.text._ZN10chibios_rt8OutQueue3putEht,"ax",%progbits
 4980              		.align	1
 4981              		.p2align 4,,15
 4982              		.global	_ZN10chibios_rt8OutQueue3putEht
 4983              		.syntax unified
 4984              		.code	16
 4985              		.thumb_func
 4986              		.fpu softvfp
 4987              		.type	_ZN10chibios_rt8OutQueue3putEht, %function
 4988              	_ZN10chibios_rt8OutQueue3putEht:
 4989              	.LFB312:
 4990              		.loc 12 645 0
 4991              		.cfi_startproc
 4992              		@ args = 0, pretend = 0, frame = 8
 4993              		@ frame_needed = 0, uses_anonymous_args = 0
 4994 0000 00B5     		push	{lr}
 4995              		.cfi_def_cfa_offset 4
 4996              		.cfi_offset 14, -4
 4997 0002 83B0     		sub	sp, sp, #12
 4998              		.cfi_def_cfa_offset 16
 4999 0004 0190     		str	r0, [sp, #4]
 5000 0006 0800     		movs	r0, r1
 5001 0008 1100     		movs	r1, r2
 5002 000a 6B46     		mov	r3, sp
 5003 000c 0333     		adds	r3, r3, #3
 5004 000e 021C     		adds	r2, r0, #0
 5005 0010 1A70     		strb	r2, [r3]
 5006 0012 6B46     		mov	r3, sp
 5007 0014 0A1C     		adds	r2, r1, #0
 5008 0016 1A80     		strh	r2, [r3]
 5009              		.loc 12 647 0
 5010 0018 0198     		ldr	r0, [sp, #4]
 5011 001a 6B46     		mov	r3, sp
 5012 001c 1A88     		ldrh	r2, [r3]
ARM GAS  /tmp/ccvPPVYB.s 			page 89


 5013 001e 6B46     		mov	r3, sp
 5014 0020 0333     		adds	r3, r3, #3
 5015 0022 1B78     		ldrb	r3, [r3]
 5016 0024 1900     		movs	r1, r3
 5017 0026 FFF7FEFF 		bl	chOQPutTimeout
 5018 002a 0300     		movs	r3, r0
 5019              		.loc 12 648 0
 5020 002c 1800     		movs	r0, r3
 5021 002e 03B0     		add	sp, sp, #12
 5022              		@ sp needed
 5023 0030 00BD     		pop	{pc}
 5024              		.cfi_endproc
 5025              	.LFE312:
 5026              		.size	_ZN10chibios_rt8OutQueue3putEht, .-_ZN10chibios_rt8OutQueue3putEht
 5027 0032 C046     		.section	.text._ZN10chibios_rt8OutQueue4getIEv,"ax",%progbits
 5028              		.align	1
 5029              		.p2align 4,,15
 5030              		.global	_ZN10chibios_rt8OutQueue4getIEv
 5031              		.syntax unified
 5032              		.code	16
 5033              		.thumb_func
 5034              		.fpu softvfp
 5035              		.type	_ZN10chibios_rt8OutQueue4getIEv, %function
 5036              	_ZN10chibios_rt8OutQueue4getIEv:
 5037              	.LFB313:
 5038              		.loc 12 650 0
 5039              		.cfi_startproc
 5040              		@ args = 0, pretend = 0, frame = 8
 5041              		@ frame_needed = 0, uses_anonymous_args = 0
 5042 0000 00B5     		push	{lr}
 5043              		.cfi_def_cfa_offset 4
 5044              		.cfi_offset 14, -4
 5045 0002 83B0     		sub	sp, sp, #12
 5046              		.cfi_def_cfa_offset 16
 5047 0004 0190     		str	r0, [sp, #4]
 5048              		.loc 12 652 0
 5049 0006 019B     		ldr	r3, [sp, #4]
 5050 0008 1800     		movs	r0, r3
 5051 000a FFF7FEFF 		bl	chOQGetI
 5052 000e 0300     		movs	r3, r0
 5053              		.loc 12 653 0
 5054 0010 1800     		movs	r0, r3
 5055 0012 03B0     		add	sp, sp, #12
 5056              		@ sp needed
 5057 0014 00BD     		pop	{pc}
 5058              		.cfi_endproc
 5059              	.LFE313:
 5060              		.size	_ZN10chibios_rt8OutQueue4getIEv, .-_ZN10chibios_rt8OutQueue4getIEv
 5061 0016 C046     		.section	.text._ZN10chibios_rt8OutQueue5writeEPKhjt,"ax",%progbits
 5062              		.align	1
 5063              		.p2align 4,,15
 5064              		.global	_ZN10chibios_rt8OutQueue5writeEPKhjt
 5065              		.syntax unified
 5066              		.code	16
 5067              		.thumb_func
 5068              		.fpu softvfp
 5069              		.type	_ZN10chibios_rt8OutQueue5writeEPKhjt, %function
ARM GAS  /tmp/ccvPPVYB.s 			page 90


 5070              	_ZN10chibios_rt8OutQueue5writeEPKhjt:
 5071              	.LFB314:
 5072              		.loc 12 655 0
 5073              		.cfi_startproc
 5074              		@ args = 0, pretend = 0, frame = 16
 5075              		@ frame_needed = 0, uses_anonymous_args = 0
 5076 0000 00B5     		push	{lr}
 5077              		.cfi_def_cfa_offset 4
 5078              		.cfi_offset 14, -4
 5079 0002 85B0     		sub	sp, sp, #20
 5080              		.cfi_def_cfa_offset 24
 5081 0004 0390     		str	r0, [sp, #12]
 5082 0006 0291     		str	r1, [sp, #8]
 5083 0008 0192     		str	r2, [sp, #4]
 5084 000a 1A00     		movs	r2, r3
 5085 000c 6B46     		mov	r3, sp
 5086 000e 0233     		adds	r3, r3, #2
 5087 0010 1A80     		strh	r2, [r3]
 5088              		.loc 12 657 0
 5089 0012 0398     		ldr	r0, [sp, #12]
 5090 0014 6B46     		mov	r3, sp
 5091 0016 0233     		adds	r3, r3, #2
 5092 0018 1B88     		ldrh	r3, [r3]
 5093 001a 019A     		ldr	r2, [sp, #4]
 5094 001c 0299     		ldr	r1, [sp, #8]
 5095 001e FFF7FEFF 		bl	chOQWriteTimeout
 5096 0022 0300     		movs	r3, r0
 5097              		.loc 12 658 0
 5098 0024 1800     		movs	r0, r3
 5099 0026 05B0     		add	sp, sp, #20
 5100              		@ sp needed
 5101 0028 00BD     		pop	{pc}
 5102              		.cfi_endproc
 5103              	.LFE314:
 5104              		.size	_ZN10chibios_rt8OutQueue5writeEPKhjt, .-_ZN10chibios_rt8OutQueue5writeEPKhjt
 5105 002a C046     		.section	.text._ZN10chibios_rt10MemoryPoolC2EjPFPvjE,"ax",%progbits
 5106              		.align	1
 5107              		.p2align 4,,15
 5108              		.global	_ZN10chibios_rt10MemoryPoolC2EjPFPvjE
 5109              		.syntax unified
 5110              		.code	16
 5111              		.thumb_func
 5112              		.fpu softvfp
 5113              		.type	_ZN10chibios_rt10MemoryPoolC2EjPFPvjE, %function
 5114              	_ZN10chibios_rt10MemoryPoolC2EjPFPvjE:
 5115              	.LFB316:
 5116              		.loc 12 665 0
 5117              		.cfi_startproc
 5118              		@ args = 0, pretend = 0, frame = 16
 5119              		@ frame_needed = 0, uses_anonymous_args = 0
 5120 0000 00B5     		push	{lr}
 5121              		.cfi_def_cfa_offset 4
 5122              		.cfi_offset 14, -4
 5123 0002 85B0     		sub	sp, sp, #20
 5124              		.cfi_def_cfa_offset 24
 5125 0004 0390     		str	r0, [sp, #12]
 5126 0006 0291     		str	r1, [sp, #8]
ARM GAS  /tmp/ccvPPVYB.s 			page 91


 5127 0008 0192     		str	r2, [sp, #4]
 5128              	.LBB20:
 5129              		.loc 12 667 0
 5130 000a 039B     		ldr	r3, [sp, #12]
 5131 000c 019A     		ldr	r2, [sp, #4]
 5132 000e 0299     		ldr	r1, [sp, #8]
 5133 0010 1800     		movs	r0, r3
 5134 0012 FFF7FEFF 		bl	chPoolObjectInit
 5135              	.LBE20:
 5136              		.loc 12 668 0
 5137 0016 039B     		ldr	r3, [sp, #12]
 5138 0018 1800     		movs	r0, r3
 5139 001a 05B0     		add	sp, sp, #20
 5140              		@ sp needed
 5141 001c 00BD     		pop	{pc}
 5142              		.cfi_endproc
 5143              	.LFE316:
 5144              		.size	_ZN10chibios_rt10MemoryPoolC2EjPFPvjE, .-_ZN10chibios_rt10MemoryPoolC2EjPFPvjE
 5145              		.global	_ZN10chibios_rt10MemoryPoolC1EjPFPvjE
 5146              		.thumb_set _ZN10chibios_rt10MemoryPoolC1EjPFPvjE,_ZN10chibios_rt10MemoryPoolC2EjPFPvjE
 5147 001e C046     		.section	.text._ZN10chibios_rt10MemoryPoolC2EjPFPvjES1_j,"ax",%progbits
 5148              		.align	1
 5149              		.p2align 4,,15
 5150              		.global	_ZN10chibios_rt10MemoryPoolC2EjPFPvjES1_j
 5151              		.syntax unified
 5152              		.code	16
 5153              		.thumb_func
 5154              		.fpu softvfp
 5155              		.type	_ZN10chibios_rt10MemoryPoolC2EjPFPvjES1_j, %function
 5156              	_ZN10chibios_rt10MemoryPoolC2EjPFPvjES1_j:
 5157              	.LFB319:
 5158              		.loc 12 670 0
 5159              		.cfi_startproc
 5160              		@ args = 4, pretend = 0, frame = 16
 5161              		@ frame_needed = 0, uses_anonymous_args = 0
 5162 0000 00B5     		push	{lr}
 5163              		.cfi_def_cfa_offset 4
 5164              		.cfi_offset 14, -4
 5165 0002 85B0     		sub	sp, sp, #20
 5166              		.cfi_def_cfa_offset 24
 5167 0004 0390     		str	r0, [sp, #12]
 5168 0006 0291     		str	r1, [sp, #8]
 5169 0008 0192     		str	r2, [sp, #4]
 5170 000a 0093     		str	r3, [sp]
 5171              	.LBB21:
 5172              		.loc 12 672 0
 5173 000c 039B     		ldr	r3, [sp, #12]
 5174 000e 019A     		ldr	r2, [sp, #4]
 5175 0010 0299     		ldr	r1, [sp, #8]
 5176 0012 1800     		movs	r0, r3
 5177 0014 FFF7FEFF 		bl	chPoolObjectInit
 5178              		.loc 12 673 0
 5179 0018 039B     		ldr	r3, [sp, #12]
 5180 001a 069A     		ldr	r2, [sp, #24]
 5181 001c 0099     		ldr	r1, [sp]
 5182 001e 1800     		movs	r0, r3
 5183 0020 FFF7FEFF 		bl	chPoolLoadArray
ARM GAS  /tmp/ccvPPVYB.s 			page 92


 5184              	.LBE21:
 5185              		.loc 12 674 0
 5186 0024 039B     		ldr	r3, [sp, #12]
 5187 0026 1800     		movs	r0, r3
 5188 0028 05B0     		add	sp, sp, #20
 5189              		@ sp needed
 5190 002a 00BD     		pop	{pc}
 5191              		.cfi_endproc
 5192              	.LFE319:
 5193              		.size	_ZN10chibios_rt10MemoryPoolC2EjPFPvjES1_j, .-_ZN10chibios_rt10MemoryPoolC2EjPFPvjES1_j
 5194              		.global	_ZN10chibios_rt10MemoryPoolC1EjPFPvjES1_j
 5195              		.thumb_set _ZN10chibios_rt10MemoryPoolC1EjPFPvjES1_j,_ZN10chibios_rt10MemoryPoolC2EjPFPvjES1_j
 5196              		.section	.text._ZN10chibios_rt10MemoryPool9loadArrayEPvj,"ax",%progbits
 5197              		.align	1
 5198              		.p2align 4,,15
 5199              		.global	_ZN10chibios_rt10MemoryPool9loadArrayEPvj
 5200              		.syntax unified
 5201              		.code	16
 5202              		.thumb_func
 5203              		.fpu softvfp
 5204              		.type	_ZN10chibios_rt10MemoryPool9loadArrayEPvj, %function
 5205              	_ZN10chibios_rt10MemoryPool9loadArrayEPvj:
 5206              	.LFB321:
 5207              		.loc 12 677 0
 5208              		.cfi_startproc
 5209              		@ args = 0, pretend = 0, frame = 16
 5210              		@ frame_needed = 0, uses_anonymous_args = 0
 5211 0000 00B5     		push	{lr}
 5212              		.cfi_def_cfa_offset 4
 5213              		.cfi_offset 14, -4
 5214 0002 85B0     		sub	sp, sp, #20
 5215              		.cfi_def_cfa_offset 24
 5216 0004 0390     		str	r0, [sp, #12]
 5217 0006 0291     		str	r1, [sp, #8]
 5218 0008 0192     		str	r2, [sp, #4]
 5219              		.loc 12 679 0
 5220 000a 039B     		ldr	r3, [sp, #12]
 5221 000c 019A     		ldr	r2, [sp, #4]
 5222 000e 0299     		ldr	r1, [sp, #8]
 5223 0010 1800     		movs	r0, r3
 5224 0012 FFF7FEFF 		bl	chPoolLoadArray
 5225              		.loc 12 680 0
 5226 0016 C046     		nop
 5227 0018 05B0     		add	sp, sp, #20
 5228              		@ sp needed
 5229 001a 00BD     		pop	{pc}
 5230              		.cfi_endproc
 5231              	.LFE321:
 5232              		.size	_ZN10chibios_rt10MemoryPool9loadArrayEPvj, .-_ZN10chibios_rt10MemoryPool9loadArrayEPvj
 5233              		.section	.text._ZN10chibios_rt10MemoryPool6allocIEv,"ax",%progbits
 5234              		.align	1
 5235              		.p2align 4,,15
 5236              		.global	_ZN10chibios_rt10MemoryPool6allocIEv
 5237              		.syntax unified
 5238              		.code	16
 5239              		.thumb_func
 5240              		.fpu softvfp
ARM GAS  /tmp/ccvPPVYB.s 			page 93


 5241              		.type	_ZN10chibios_rt10MemoryPool6allocIEv, %function
 5242              	_ZN10chibios_rt10MemoryPool6allocIEv:
 5243              	.LFB322:
 5244              		.loc 12 682 0
 5245              		.cfi_startproc
 5246              		@ args = 0, pretend = 0, frame = 8
 5247              		@ frame_needed = 0, uses_anonymous_args = 0
 5248 0000 00B5     		push	{lr}
 5249              		.cfi_def_cfa_offset 4
 5250              		.cfi_offset 14, -4
 5251 0002 83B0     		sub	sp, sp, #12
 5252              		.cfi_def_cfa_offset 16
 5253 0004 0190     		str	r0, [sp, #4]
 5254              		.loc 12 684 0
 5255 0006 019B     		ldr	r3, [sp, #4]
 5256 0008 1800     		movs	r0, r3
 5257 000a FFF7FEFF 		bl	chPoolAllocI
 5258 000e 0300     		movs	r3, r0
 5259              		.loc 12 685 0
 5260 0010 1800     		movs	r0, r3
 5261 0012 03B0     		add	sp, sp, #12
 5262              		@ sp needed
 5263 0014 00BD     		pop	{pc}
 5264              		.cfi_endproc
 5265              	.LFE322:
 5266              		.size	_ZN10chibios_rt10MemoryPool6allocIEv, .-_ZN10chibios_rt10MemoryPool6allocIEv
 5267 0016 C046     		.section	.text._ZN10chibios_rt10MemoryPool5allocEv,"ax",%progbits
 5268              		.align	1
 5269              		.p2align 4,,15
 5270              		.global	_ZN10chibios_rt10MemoryPool5allocEv
 5271              		.syntax unified
 5272              		.code	16
 5273              		.thumb_func
 5274              		.fpu softvfp
 5275              		.type	_ZN10chibios_rt10MemoryPool5allocEv, %function
 5276              	_ZN10chibios_rt10MemoryPool5allocEv:
 5277              	.LFB323:
 5278              		.loc 12 687 0
 5279              		.cfi_startproc
 5280              		@ args = 0, pretend = 0, frame = 8
 5281              		@ frame_needed = 0, uses_anonymous_args = 0
 5282 0000 00B5     		push	{lr}
 5283              		.cfi_def_cfa_offset 4
 5284              		.cfi_offset 14, -4
 5285 0002 83B0     		sub	sp, sp, #12
 5286              		.cfi_def_cfa_offset 16
 5287 0004 0190     		str	r0, [sp, #4]
 5288              		.loc 12 689 0
 5289 0006 019B     		ldr	r3, [sp, #4]
 5290 0008 1800     		movs	r0, r3
 5291 000a FFF7FEFF 		bl	chPoolAlloc
 5292 000e 0300     		movs	r3, r0
 5293              		.loc 12 690 0
 5294 0010 1800     		movs	r0, r3
 5295 0012 03B0     		add	sp, sp, #12
 5296              		@ sp needed
 5297 0014 00BD     		pop	{pc}
ARM GAS  /tmp/ccvPPVYB.s 			page 94


 5298              		.cfi_endproc
 5299              	.LFE323:
 5300              		.size	_ZN10chibios_rt10MemoryPool5allocEv, .-_ZN10chibios_rt10MemoryPool5allocEv
 5301 0016 C046     		.section	.text._ZN10chibios_rt10MemoryPool4freeEPv,"ax",%progbits
 5302              		.align	1
 5303              		.p2align 4,,15
 5304              		.global	_ZN10chibios_rt10MemoryPool4freeEPv
 5305              		.syntax unified
 5306              		.code	16
 5307              		.thumb_func
 5308              		.fpu softvfp
 5309              		.type	_ZN10chibios_rt10MemoryPool4freeEPv, %function
 5310              	_ZN10chibios_rt10MemoryPool4freeEPv:
 5311              	.LFB324:
 5312              		.loc 12 692 0
 5313              		.cfi_startproc
 5314              		@ args = 0, pretend = 0, frame = 8
 5315              		@ frame_needed = 0, uses_anonymous_args = 0
 5316 0000 00B5     		push	{lr}
 5317              		.cfi_def_cfa_offset 4
 5318              		.cfi_offset 14, -4
 5319 0002 83B0     		sub	sp, sp, #12
 5320              		.cfi_def_cfa_offset 16
 5321 0004 0190     		str	r0, [sp, #4]
 5322 0006 0091     		str	r1, [sp]
 5323              		.loc 12 694 0
 5324 0008 019B     		ldr	r3, [sp, #4]
 5325 000a 009A     		ldr	r2, [sp]
 5326 000c 1100     		movs	r1, r2
 5327 000e 1800     		movs	r0, r3
 5328 0010 FFF7FEFF 		bl	chPoolFree
 5329              		.loc 12 695 0
 5330 0014 C046     		nop
 5331 0016 03B0     		add	sp, sp, #12
 5332              		@ sp needed
 5333 0018 00BD     		pop	{pc}
 5334              		.cfi_endproc
 5335              	.LFE324:
 5336              		.size	_ZN10chibios_rt10MemoryPool4freeEPv, .-_ZN10chibios_rt10MemoryPool4freeEPv
 5337 001a C046     		.section	.text._ZN10chibios_rt10MemoryPool5freeIEPv,"ax",%progbits
 5338              		.align	1
 5339              		.p2align 4,,15
 5340              		.global	_ZN10chibios_rt10MemoryPool5freeIEPv
 5341              		.syntax unified
 5342              		.code	16
 5343              		.thumb_func
 5344              		.fpu softvfp
 5345              		.type	_ZN10chibios_rt10MemoryPool5freeIEPv, %function
 5346              	_ZN10chibios_rt10MemoryPool5freeIEPv:
 5347              	.LFB325:
 5348              		.loc 12 697 0
 5349              		.cfi_startproc
 5350              		@ args = 0, pretend = 0, frame = 8
 5351              		@ frame_needed = 0, uses_anonymous_args = 0
 5352 0000 00B5     		push	{lr}
 5353              		.cfi_def_cfa_offset 4
 5354              		.cfi_offset 14, -4
ARM GAS  /tmp/ccvPPVYB.s 			page 95


 5355 0002 83B0     		sub	sp, sp, #12
 5356              		.cfi_def_cfa_offset 16
 5357 0004 0190     		str	r0, [sp, #4]
 5358 0006 0091     		str	r1, [sp]
 5359              		.loc 12 699 0
 5360 0008 019B     		ldr	r3, [sp, #4]
 5361 000a 009A     		ldr	r2, [sp]
 5362 000c 1100     		movs	r1, r2
 5363 000e 1800     		movs	r0, r3
 5364 0010 FFF7FEFF 		bl	chPoolFreeI
 5365              		.loc 12 700 0
 5366 0014 C046     		nop
 5367 0016 03B0     		add	sp, sp, #12
 5368              		@ sp needed
 5369 0018 00BD     		pop	{pc}
 5370              		.cfi_endproc
 5371              	.LFE325:
 5372              		.size	_ZN10chibios_rt10MemoryPool5freeIEPv, .-_ZN10chibios_rt10MemoryPool5freeIEPv
 5373              		.global	_ZTVN10chibios_rt10BaseThreadE
 5374 001a C046     		.section	.rodata._ZTVN10chibios_rt10BaseThreadE,"a",%progbits
 5375              		.align	2
 5376              		.type	_ZTVN10chibios_rt10BaseThreadE, %object
 5377              		.size	_ZTVN10chibios_rt10BaseThreadE, 20
 5378              	_ZTVN10chibios_rt10BaseThreadE:
 5379 0000 00000000 		.word	0
 5380 0004 00000000 		.word	0
 5381 0008 00000000 		.word	_ZN10chibios_rt15ThreadReference4stopEv
 5382 000c 00000000 		.word	_ZN10chibios_rt10BaseThread4mainEv
 5383 0010 00000000 		.word	_ZN10chibios_rt10BaseThread5startEm
 5384              		.global	_ZTVN10chibios_rt15ThreadReferenceE
 5385              		.section	.rodata._ZTVN10chibios_rt15ThreadReferenceE,"a",%progbits
 5386              		.align	2
 5387              		.type	_ZTVN10chibios_rt15ThreadReferenceE, %object
 5388              		.size	_ZTVN10chibios_rt15ThreadReferenceE, 12
 5389              	_ZTVN10chibios_rt15ThreadReferenceE:
 5390 0000 00000000 		.word	0
 5391 0004 00000000 		.word	0
 5392 0008 00000000 		.word	_ZN10chibios_rt15ThreadReference4stopEv
 5393              		.section	.rodata._ZZN10chibios_rt15ThreadReference16requestTerminateEvE8__func__,"a",%progbits
 5394              		.align	2
 5395              		.type	_ZZN10chibios_rt15ThreadReference16requestTerminateEvE8__func__, %object
 5396              		.size	_ZZN10chibios_rt15ThreadReference16requestTerminateEvE8__func__, 17
 5397              	_ZZN10chibios_rt15ThreadReference16requestTerminateEvE8__func__:
 5398 0000 72657175 		.ascii	"requestTerminate\000"
 5398      65737454 
 5398      65726D69 
 5398      6E617465 
 5398      00
 5399              		.section	.rodata._ZZN10chibios_rt15ThreadReference4waitEvE8__func__,"a",%progbits
 5400              		.align	2
 5401              		.type	_ZZN10chibios_rt15ThreadReference4waitEvE8__func__, %object
 5402              		.size	_ZZN10chibios_rt15ThreadReference4waitEvE8__func__, 5
 5403              	_ZZN10chibios_rt15ThreadReference4waitEvE8__func__:
 5404 0000 77616974 		.ascii	"wait\000"
 5404      00
 5405              		.section	.rodata._ZZN10chibios_rt15ThreadReference11sendMessageElE8__func__,"a",%progbits
 5406              		.align	2
ARM GAS  /tmp/ccvPPVYB.s 			page 96


 5407              		.type	_ZZN10chibios_rt15ThreadReference11sendMessageElE8__func__, %object
 5408              		.size	_ZZN10chibios_rt15ThreadReference11sendMessageElE8__func__, 12
 5409              	_ZZN10chibios_rt15ThreadReference11sendMessageElE8__func__:
 5410 0000 73656E64 		.ascii	"sendMessage\000"
 5410      4D657373 
 5410      61676500 
 5411              		.section	.rodata._ZZN10chibios_rt15ThreadReference16isPendingMessageEvE8__func__,"a",%progbits
 5412              		.align	2
 5413              		.type	_ZZN10chibios_rt15ThreadReference16isPendingMessageEvE8__func__, %object
 5414              		.size	_ZZN10chibios_rt15ThreadReference16isPendingMessageEvE8__func__, 17
 5415              	_ZZN10chibios_rt15ThreadReference16isPendingMessageEvE8__func__:
 5416 0000 69735065 		.ascii	"isPendingMessage\000"
 5416      6E64696E 
 5416      674D6573 
 5416      73616765 
 5416      00
 5417              		.section	.rodata._ZZN10chibios_rt15ThreadReference10getMessageEvE8__func__,"a",%progbits
 5418              		.align	2
 5419              		.type	_ZZN10chibios_rt15ThreadReference10getMessageEvE8__func__, %object
 5420              		.size	_ZZN10chibios_rt15ThreadReference10getMessageEvE8__func__, 11
 5421              	_ZZN10chibios_rt15ThreadReference10getMessageEvE8__func__:
 5422 0000 6765744D 		.ascii	"getMessage\000"
 5422      65737361 
 5422      676500
 5423              		.section	.rodata._ZZN10chibios_rt15ThreadReference14releaseMessageElE8__func__,"a",%progbits
 5424              		.align	2
 5425              		.type	_ZZN10chibios_rt15ThreadReference14releaseMessageElE8__func__, %object
 5426              		.size	_ZZN10chibios_rt15ThreadReference14releaseMessageElE8__func__, 15
 5427              	_ZZN10chibios_rt15ThreadReference14releaseMessageElE8__func__:
 5428 0000 72656C65 		.ascii	"releaseMessage\000"
 5428      6173654D 
 5428      65737361 
 5428      676500
 5429              		.section	.rodata._ZZN10chibios_rt15ThreadReference12signalEventsEmE8__func__,"a",%progbits
 5430              		.align	2
 5431              		.type	_ZZN10chibios_rt15ThreadReference12signalEventsEmE8__func__, %object
 5432              		.size	_ZZN10chibios_rt15ThreadReference12signalEventsEmE8__func__, 13
 5433              	_ZZN10chibios_rt15ThreadReference12signalEventsEmE8__func__:
 5434 0000 7369676E 		.ascii	"signalEvents\000"
 5434      616C4576 
 5434      656E7473 
 5434      00
 5435              		.section	.rodata._ZZN10chibios_rt15ThreadReference13signalEventsIEmE8__func__,"a",%progbits
 5436              		.align	2
 5437              		.type	_ZZN10chibios_rt15ThreadReference13signalEventsIEmE8__func__, %object
 5438              		.size	_ZZN10chibios_rt15ThreadReference13signalEventsIEmE8__func__, 14
 5439              	_ZZN10chibios_rt15ThreadReference13signalEventsIEmE8__func__:
 5440 0000 7369676E 		.ascii	"signalEventsI\000"
 5440      616C4576 
 5440      656E7473 
 5440      4900
 5441              		.section	.rodata._ZZL11chSysUnlockvE8__func__,"a",%progbits
 5442              		.align	2
 5443              		.type	_ZZL11chSysUnlockvE8__func__, %object
 5444              		.size	_ZZL11chSysUnlockvE8__func__, 12
 5445              	_ZZL11chSysUnlockvE8__func__:
 5446 0000 63685379 		.ascii	"chSysUnlock\000"
ARM GAS  /tmp/ccvPPVYB.s 			page 97


 5446      73556E6C 
 5446      6F636B00 
 5447              		.text
 5448              	.Letext0:
 5449              		.file 13 "/home/felix/opt/gcc-arm-none-eabi-6-2017-q1-update/lib/gcc/arm-none-eabi/6.3.1/include/s
 5450              		.file 14 "/home/felix/opt/gcc-arm-none-eabi-6-2017-q1-update/arm-none-eabi/include/machine/_defaul
 5451              		.file 15 "/home/felix/opt/gcc-arm-none-eabi-6-2017-q1-update/arm-none-eabi/include/sys/_stdint.h"
 5452              		.file 16 "ChibiOS/os/rt/ports/ARMCMx/compilers/GCC/chtypes.h"
 5453              		.file 17 "ChibiOS/os/rt/include/chsystypes.h"
 5454              		.file 18 "ChibiOS/os/rt/include/chschd.h"
 5455              		.file 19 "ChibiOS/os/rt/ports/ARMCMx/chcore.h"
 5456              		.file 20 "ChibiOS/os/rt/include/chdebug.h"
 5457              		.file 21 "ChibiOS/os/rt/include/chmtx.h"
 5458              		.file 22 "ChibiOS/os/ext/CMSIS/ST/STM32F0xx/system_stm32f0xx.h"
 5459              		.file 23 "ChibiOS/os/rt/include/chcond.h"
 5460              		.file 24 "ChibiOS/os/rt/include/chmemcore.h"
 5461              		.file 25 "ChibiOS/os/rt/include/chmempools.h"