ARM GAS  /tmp/cc9AKj6B.s 			page 1


   1              		.cpu cortex-m0
   2              		.eabi_attribute 20, 1
   3              		.eabi_attribute 21, 1
   4              		.eabi_attribute 23, 3
   5              		.eabi_attribute 24, 1
   6              		.eabi_attribute 25, 1
   7              		.eabi_attribute 26, 1
   8              		.eabi_attribute 30, 6
   9              		.eabi_attribute 34, 0
  10              		.eabi_attribute 18, 4
  11              		.file	"chcore_v6m.c"
  12              		.text
  13              	.Ltext0:
  14              		.cfi_sections	.debug_frame
  15              		.section	.text.port_lock,"ax",%progbits
  16              		.align	1
  17              		.p2align 4,,15
  18              		.syntax unified
  19              		.code	16
  20              		.thumb_func
  21              		.fpu softvfp
  22              		.type	port_lock, %function
  23              	port_lock:
  24              	.LFB38:
  25              		.file 1 "ChibiOS/os/rt/ports/ARMCMx/chcore_v6m.h"
  26              		.loc 1 330 0
  27              		.cfi_startproc
  28              		@ args = 0, pretend = 0, frame = 0
  29              		@ frame_needed = 0, uses_anonymous_args = 0
  30              		@ link register save eliminated.
  31              	.LBB15:
  32              	.LBB16:
  33              		.file 2 "ChibiOS/os/ext/CMSIS/include/core_cmFunc.h"
  34              		.loc 2 344 0
  35              		.syntax divided
  36              	@ 344 "ChibiOS/os/ext/CMSIS/include/core_cmFunc.h" 1
  37 0000 72B6     		cpsid i
  38              	@ 0 "" 2
  39              		.thumb
  40              		.syntax unified
  41              	.LBE16:
  42              	.LBE15:
  43              		.loc 1 333 0
  44 0002 C046     		nop
  45              		@ sp needed
  46 0004 7047     		bx	lr
  47              		.cfi_endproc
  48              	.LFE38:
  49              		.size	port_lock, .-port_lock
  50 0006 C046     		.section	.text.port_unlock,"ax",%progbits
  51              		.align	1
  52              		.p2align 4,,15
  53              		.syntax unified
  54              		.code	16
  55              		.thumb_func
  56              		.fpu softvfp
  57              		.type	port_unlock, %function
ARM GAS  /tmp/cc9AKj6B.s 			page 2


  58              	port_unlock:
  59              	.LFB39:
  60              		.loc 1 339 0
  61              		.cfi_startproc
  62              		@ args = 0, pretend = 0, frame = 0
  63              		@ frame_needed = 0, uses_anonymous_args = 0
  64              		@ link register save eliminated.
  65              	.LBB17:
  66              	.LBB18:
  67              		.loc 2 333 0
  68              		.syntax divided
  69              	@ 333 "ChibiOS/os/ext/CMSIS/include/core_cmFunc.h" 1
  70 0000 62B6     		cpsie i
  71              	@ 0 "" 2
  72              		.thumb
  73              		.syntax unified
  74              	.LBE18:
  75              	.LBE17:
  76              		.loc 1 342 0
  77 0002 C046     		nop
  78              		@ sp needed
  79 0004 7047     		bx	lr
  80              		.cfi_endproc
  81              	.LFE39:
  82              		.size	port_unlock, .-port_unlock
  83 0006 C046     		.section	.text.port_lock_from_isr,"ax",%progbits
  84              		.align	1
  85              		.p2align 4,,15
  86              		.syntax unified
  87              		.code	16
  88              		.thumb_func
  89              		.fpu softvfp
  90              		.type	port_lock_from_isr, %function
  91              	port_lock_from_isr:
  92              	.LFB40:
  93              		.loc 1 349 0
  94              		.cfi_startproc
  95              		@ args = 0, pretend = 0, frame = 0
  96              		@ frame_needed = 0, uses_anonymous_args = 0
  97 0000 10B5     		push	{r4, lr}
  98              		.cfi_def_cfa_offset 8
  99              		.cfi_offset 4, -8
 100              		.cfi_offset 14, -4
 101              		.loc 1 351 0
 102 0002 FFF7FEFF 		bl	port_lock
 103              		.loc 1 352 0
 104 0006 C046     		nop
 105              		@ sp needed
 106 0008 10BD     		pop	{r4, pc}
 107              		.cfi_endproc
 108              	.LFE40:
 109              		.size	port_lock_from_isr, .-port_lock_from_isr
 110 000a C046     		.section	.text.port_unlock_from_isr,"ax",%progbits
 111              		.align	1
 112              		.p2align 4,,15
 113              		.syntax unified
 114              		.code	16
ARM GAS  /tmp/cc9AKj6B.s 			page 3


 115              		.thumb_func
 116              		.fpu softvfp
 117              		.type	port_unlock_from_isr, %function
 118              	port_unlock_from_isr:
 119              	.LFB41:
 120              		.loc 1 359 0
 121              		.cfi_startproc
 122              		@ args = 0, pretend = 0, frame = 0
 123              		@ frame_needed = 0, uses_anonymous_args = 0
 124 0000 10B5     		push	{r4, lr}
 125              		.cfi_def_cfa_offset 8
 126              		.cfi_offset 4, -8
 127              		.cfi_offset 14, -4
 128              		.loc 1 361 0
 129 0002 FFF7FEFF 		bl	port_unlock
 130              		.loc 1 362 0
 131 0006 C046     		nop
 132              		@ sp needed
 133 0008 10BD     		pop	{r4, pc}
 134              		.cfi_endproc
 135              	.LFE41:
 136              		.size	port_unlock_from_isr, .-port_unlock_from_isr
 137 000a C046     		.section	.text.NMI_Handler,"ax",%progbits
 138              		.align	1
 139              		.p2align 4,,15
 140              		.global	NMI_Handler
 141              		.syntax unified
 142              		.code	16
 143              		.thumb_func
 144              		.fpu softvfp
 145              		.type	NMI_Handler, %function
 146              	NMI_Handler:
 147              	.LFB152:
 148              		.file 3 "ChibiOS/os/rt/ports/ARMCMx/chcore_v6m.c"
 149              		.loc 3 61 0
 150              		.cfi_startproc
 151              		@ args = 0, pretend = 0, frame = 8
 152              		@ frame_needed = 1, uses_anonymous_args = 0
 153 0000 90B5     		push	{r4, r7, lr}
 154              		.cfi_def_cfa_offset 12
 155              		.cfi_offset 4, -12
 156              		.cfi_offset 7, -8
 157              		.cfi_offset 14, -4
 158 0002 83B0     		sub	sp, sp, #12
 159              		.cfi_def_cfa_offset 24
 160 0004 00AF     		add	r7, sp, #0
 161              		.cfi_def_cfa_register 7
 162              	.LBB19:
 163              	.LBB20:
 164              		.loc 2 430 0
 165              		.syntax divided
 166              	@ 430 "ChibiOS/os/ext/CMSIS/include/core_cmFunc.h" 1
 167 0006 EFF30983 		MRS r3, psp
 168              	
 169              	@ 0 "" 2
 170              		.thumb
 171              		.syntax unified
ARM GAS  /tmp/cc9AKj6B.s 			page 4


 172 000a 1C00     		movs	r4, r3
 173              		.loc 2 431 0
 174 000c 2300     		movs	r3, r4
 175              	.LBE20:
 176              	.LBE19:
 177              		.loc 3 65 0
 178 000e 7B60     		str	r3, [r7, #4]
 179              		.loc 3 69 0
 180 0010 7B68     		ldr	r3, [r7, #4]
 181 0012 2033     		adds	r3, r3, #32
 182 0014 7B60     		str	r3, [r7, #4]
 183              		.loc 3 72 0
 184 0016 7B68     		ldr	r3, [r7, #4]
 185 0018 3B60     		str	r3, [r7]
 186              	.LBB21:
 187              	.LBB22:
 188              		.loc 2 443 0
 189 001a 3B68     		ldr	r3, [r7]
 190              		.syntax divided
 191              	@ 443 "ChibiOS/os/ext/CMSIS/include/core_cmFunc.h" 1
 192 001c 83F30988 		MSR psp, r3
 193              	
 194              	@ 0 "" 2
 195              		.thumb
 196              		.syntax unified
 197              	.LBE22:
 198              	.LBE21:
 199              		.loc 3 75 0
 200 0020 FFF7FEFF 		bl	port_unlock_from_isr
 201              		.loc 3 76 0
 202 0024 C046     		nop
 203 0026 BD46     		mov	sp, r7
 204 0028 03B0     		add	sp, sp, #12
 205              		@ sp needed
 206 002a 90BD     		pop	{r4, r7, pc}
 207              		.cfi_endproc
 208              	.LFE152:
 209              		.size	NMI_Handler, .-NMI_Handler
 210              		.section	.text._port_irq_epilogue,"ax",%progbits
 211              		.align	1
 212              		.p2align 4,,15
 213              		.global	_port_irq_epilogue
 214              		.syntax unified
 215              		.code	16
 216              		.thumb_func
 217              		.fpu softvfp
 218              		.type	_port_irq_epilogue, %function
 219              	_port_irq_epilogue:
 220              	.LFB153:
 221              		.loc 3 110 0
 222              		.cfi_startproc
 223              		@ args = 0, pretend = 0, frame = 16
 224              		@ frame_needed = 1, uses_anonymous_args = 0
 225 0000 90B5     		push	{r4, r7, lr}
 226              		.cfi_def_cfa_offset 12
 227              		.cfi_offset 4, -12
 228              		.cfi_offset 7, -8
ARM GAS  /tmp/cc9AKj6B.s 			page 5


 229              		.cfi_offset 14, -4
 230 0002 85B0     		sub	sp, sp, #20
 231              		.cfi_def_cfa_offset 32
 232 0004 00AF     		add	r7, sp, #0
 233              		.cfi_def_cfa_register 7
 234 0006 7860     		str	r0, [r7, #4]
 235              		.loc 3 112 0
 236 0008 7B68     		ldr	r3, [r7, #4]
 237 000a 0F33     		adds	r3, r3, #15
 238 000c 1DD0     		beq	.L11
 239              	.LBB23:
 240              		.loc 3 115 0
 241 000e FFF7FEFF 		bl	port_lock_from_isr
 242              	.LBB24:
 243              	.LBB25:
 244              		.loc 2 430 0
 245              		.syntax divided
 246              	@ 430 "ChibiOS/os/ext/CMSIS/include/core_cmFunc.h" 1
 247 0012 EFF30983 		MRS r3, psp
 248              	
 249              	@ 0 "" 2
 250              		.thumb
 251              		.syntax unified
 252 0016 1C00     		movs	r4, r3
 253              		.loc 2 431 0
 254 0018 2300     		movs	r3, r4
 255              	.LBE25:
 256              	.LBE24:
 257              		.loc 3 118 0
 258 001a FB60     		str	r3, [r7, #12]
 259              		.loc 3 122 0
 260 001c FB68     		ldr	r3, [r7, #12]
 261 001e 203B     		subs	r3, r3, #32
 262 0020 FB60     		str	r3, [r7, #12]
 263              		.loc 3 125 0
 264 0022 FB68     		ldr	r3, [r7, #12]
 265 0024 BB60     		str	r3, [r7, #8]
 266              	.LBB26:
 267              	.LBB27:
 268              		.loc 2 443 0
 269 0026 BB68     		ldr	r3, [r7, #8]
 270              		.syntax divided
 271              	@ 443 "ChibiOS/os/ext/CMSIS/include/core_cmFunc.h" 1
 272 0028 83F30988 		MSR psp, r3
 273              	
 274              	@ 0 "" 2
 275              		.thumb
 276              		.syntax unified
 277              	.LBE27:
 278              	.LBE26:
 279              		.loc 3 128 0
 280 002c FB68     		ldr	r3, [r7, #12]
 281 002e 8022     		movs	r2, #128
 282 0030 5204     		lsls	r2, r2, #17
 283 0032 DA61     		str	r2, [r3, #28]
 284              		.loc 3 132 0
 285 0034 FFF7FEFF 		bl	chSchIsPreemptionRequired
ARM GAS  /tmp/cc9AKj6B.s 			page 6


 286 0038 031E     		subs	r3, r0, #0
 287 003a 03D0     		beq	.L10
 288              		.loc 3 134 0
 289 003c FB68     		ldr	r3, [r7, #12]
 290 003e 054A     		ldr	r2, .L12
 291 0040 9A61     		str	r2, [r3, #24]
 292              	.LBE23:
 293              		.loc 3 145 0
 294 0042 02E0     		b	.L11
 295              	.L10:
 296              	.LBB28:
 297              		.loc 3 139 0
 298 0044 FB68     		ldr	r3, [r7, #12]
 299 0046 044A     		ldr	r2, .L12+4
 300 0048 9A61     		str	r2, [r3, #24]
 301              	.L11:
 302              	.LBE28:
 303              		.loc 3 145 0
 304 004a C046     		nop
 305 004c BD46     		mov	sp, r7
 306 004e 05B0     		add	sp, sp, #20
 307              		@ sp needed
 308 0050 90BD     		pop	{r4, r7, pc}
 309              	.L13:
 310 0052 C046     		.align	2
 311              	.L12:
 312 0054 00000000 		.word	_port_switch_from_isr
 313 0058 00000000 		.word	_port_exit_from_isr
 314              		.cfi_endproc
 315              	.LFE153:
 316              		.size	_port_irq_epilogue, .-_port_irq_epilogue
 317              		.text
 318              	.Letext0:
 319              		.file 4 "/home/felix/opt/gcc-arm-none-eabi-6-2017-q1-update/arm-none-eabi/include/machine/_default
 320              		.file 5 "/home/felix/opt/gcc-arm-none-eabi-6-2017-q1-update/arm-none-eabi/include/sys/_stdint.h"
 321              		.file 6 "ChibiOS/os/rt/ports/ARMCMx/compilers/GCC/chtypes.h"
 322              		.file 7 "ChibiOS/os/rt/include/chsystypes.h"
 323              		.file 8 "ChibiOS/os/rt/include/chschd.h"
 324              		.file 9 "ChibiOS/os/rt/ports/ARMCMx/chcore.h"
 325              		.file 10 "ChibiOS/os/rt/include/chdebug.h"
 326              		.file 11 "ChibiOS/os/rt/include/chsem.h"
 327              		.file 12 "ChibiOS/os/rt/include/chmtx.h"
 328              		.file 13 "ChibiOS/os/rt/include/chregistry.h"
 329              		.file 14 "ChibiOS/os/ext/CMSIS/ST/STM32F0xx/system_stm32f0xx.h"