ARM GAS  /tmp/ccSfq7o4.s 			page 1


   1              		.cpu cortex-m0
   2              		.eabi_attribute 20, 1
   3              		.eabi_attribute 21, 1
   4              		.eabi_attribute 23, 3
   5              		.eabi_attribute 24, 1
   6              		.eabi_attribute 25, 1
   7              		.eabi_attribute 26, 1
   8              		.eabi_attribute 30, 6
   9              		.eabi_attribute 34, 0
  10              		.eabi_attribute 18, 4
  11              		.file	"chcond.c"
  12              		.text
  13              	.Ltext0:
  14              		.cfi_sections	.debug_frame
  15              		.section	.text.port_lock,"ax",%progbits
  16              		.align	1
  17              		.p2align 4,,15
  18              		.syntax unified
  19              		.code	16
  20              		.thumb_func
  21              		.fpu softvfp
  22              		.type	port_lock, %function
  23              	port_lock:
  24              	.LFB38:
  25              		.file 1 "ChibiOS/os/rt/ports/ARMCMx/chcore_v6m.h"
  26              		.loc 1 330 0
  27              		.cfi_startproc
  28              		@ args = 0, pretend = 0, frame = 0
  29              		@ frame_needed = 0, uses_anonymous_args = 0
  30              		@ link register save eliminated.
  31              	.LBB6:
  32              	.LBB7:
  33              		.file 2 "ChibiOS/os/ext/CMSIS/include/core_cmFunc.h"
  34              		.loc 2 344 0
  35              		.syntax divided
  36              	@ 344 "ChibiOS/os/ext/CMSIS/include/core_cmFunc.h" 1
  37 0000 72B6     		cpsid i
  38              	@ 0 "" 2
  39              		.thumb
  40              		.syntax unified
  41              	.LBE7:
  42              	.LBE6:
  43              		.loc 1 333 0
  44 0002 C046     		nop
  45              		@ sp needed
  46 0004 7047     		bx	lr
  47              		.cfi_endproc
  48              	.LFE38:
  49              		.size	port_lock, .-port_lock
  50 0006 C046     		.section	.text.port_unlock,"ax",%progbits
  51              		.align	1
  52              		.p2align 4,,15
  53              		.syntax unified
  54              		.code	16
  55              		.thumb_func
  56              		.fpu softvfp
  57              		.type	port_unlock, %function
ARM GAS  /tmp/ccSfq7o4.s 			page 2


  58              	port_unlock:
  59              	.LFB39:
  60              		.loc 1 339 0
  61              		.cfi_startproc
  62              		@ args = 0, pretend = 0, frame = 0
  63              		@ frame_needed = 0, uses_anonymous_args = 0
  64              		@ link register save eliminated.
  65              	.LBB8:
  66              	.LBB9:
  67              		.loc 2 333 0
  68              		.syntax divided
  69              	@ 333 "ChibiOS/os/ext/CMSIS/include/core_cmFunc.h" 1
  70 0000 62B6     		cpsie i
  71              	@ 0 "" 2
  72              		.thumb
  73              		.syntax unified
  74              	.LBE9:
  75              	.LBE8:
  76              		.loc 1 342 0
  77 0002 C046     		nop
  78              		@ sp needed
  79 0004 7047     		bx	lr
  80              		.cfi_endproc
  81              	.LFE39:
  82              		.size	port_unlock, .-port_unlock
  83 0006 C046     		.section	.text.queue_init,"ax",%progbits
  84              		.align	1
  85              		.p2align 4,,15
  86              		.syntax unified
  87              		.code	16
  88              		.thumb_func
  89              		.fpu softvfp
  90              		.type	queue_init, %function
  91              	queue_init:
  92              	.LFB60:
  93              		.file 3 "ChibiOS/os/rt/include/chschd.h"
  94              		.loc 3 602 0
  95              		.cfi_startproc
  96              		@ args = 0, pretend = 0, frame = 8
  97              		@ frame_needed = 0, uses_anonymous_args = 0
  98              		@ link register save eliminated.
  99 0000 82B0     		sub	sp, sp, #8
 100              		.cfi_def_cfa_offset 8
 101 0002 0190     		str	r0, [sp, #4]
 102              		.loc 3 604 0
 103 0004 019B     		ldr	r3, [sp, #4]
 104 0006 019A     		ldr	r2, [sp, #4]
 105 0008 1A60     		str	r2, [r3]
 106              		.loc 3 605 0
 107 000a 019B     		ldr	r3, [sp, #4]
 108 000c 019A     		ldr	r2, [sp, #4]
 109 000e 5A60     		str	r2, [r3, #4]
 110              		.loc 3 606 0
 111 0010 C046     		nop
 112 0012 02B0     		add	sp, sp, #8
 113              		@ sp needed
 114 0014 7047     		bx	lr
ARM GAS  /tmp/ccSfq7o4.s 			page 3


 115              		.cfi_endproc
 116              	.LFE60:
 117              		.size	queue_init, .-queue_init
 118 0016 C046     		.section	.text.queue_notempty,"ax",%progbits
 119              		.align	1
 120              		.p2align 4,,15
 121              		.syntax unified
 122              		.code	16
 123              		.thumb_func
 124              		.fpu softvfp
 125              		.type	queue_notempty, %function
 126              	queue_notempty:
 127              	.LFB62:
 128              		.loc 3 629 0
 129              		.cfi_startproc
 130              		@ args = 0, pretend = 0, frame = 8
 131              		@ frame_needed = 0, uses_anonymous_args = 0
 132              		@ link register save eliminated.
 133 0000 82B0     		sub	sp, sp, #8
 134              		.cfi_def_cfa_offset 8
 135 0002 0190     		str	r0, [sp, #4]
 136              		.loc 3 631 0
 137 0004 019B     		ldr	r3, [sp, #4]
 138 0006 1A68     		ldr	r2, [r3]
 139 0008 019B     		ldr	r3, [sp, #4]
 140 000a D31A     		subs	r3, r2, r3
 141 000c 5A1E     		subs	r2, r3, #1
 142 000e 9341     		sbcs	r3, r3, r2
 143 0010 DBB2     		uxtb	r3, r3
 144              		.loc 3 632 0
 145 0012 1800     		movs	r0, r3
 146 0014 02B0     		add	sp, sp, #8
 147              		@ sp needed
 148 0016 7047     		bx	lr
 149              		.cfi_endproc
 150              	.LFE62:
 151              		.size	queue_notempty, .-queue_notempty
 152              		.section	.text.queue_prio_insert,"ax",%progbits
 153              		.align	1
 154              		.p2align 4,,15
 155              		.syntax unified
 156              		.code	16
 157              		.thumb_func
 158              		.fpu softvfp
 159              		.type	queue_prio_insert, %function
 160              	queue_prio_insert:
 161              	.LFB65:
 162              		.loc 3 651 0
 163              		.cfi_startproc
 164              		@ args = 0, pretend = 0, frame = 16
 165              		@ frame_needed = 0, uses_anonymous_args = 0
 166              		@ link register save eliminated.
 167 0000 84B0     		sub	sp, sp, #16
 168              		.cfi_def_cfa_offset 16
 169 0002 0190     		str	r0, [sp, #4]
 170 0004 0091     		str	r1, [sp]
 171              		.loc 3 653 0
ARM GAS  /tmp/ccSfq7o4.s 			page 4


 172 0006 009B     		ldr	r3, [sp]
 173 0008 0393     		str	r3, [sp, #12]
 174              	.L8:
 175              		.loc 3 655 0 discriminator 2
 176 000a 039B     		ldr	r3, [sp, #12]
 177 000c 1B68     		ldr	r3, [r3]
 178 000e 0393     		str	r3, [sp, #12]
 179              		.loc 3 656 0 discriminator 2
 180 0010 039A     		ldr	r2, [sp, #12]
 181 0012 009B     		ldr	r3, [sp]
 182 0014 9A42     		cmp	r2, r3
 183 0016 05D0     		beq	.L7
 184              		.loc 3 656 0 is_stmt 0 discriminator 1
 185 0018 039B     		ldr	r3, [sp, #12]
 186 001a 9A68     		ldr	r2, [r3, #8]
 187 001c 019B     		ldr	r3, [sp, #4]
 188 001e 9B68     		ldr	r3, [r3, #8]
 189 0020 9A42     		cmp	r2, r3
 190 0022 F2D2     		bcs	.L8
 191              	.L7:
 192              		.loc 3 657 0 is_stmt 1
 193 0024 019B     		ldr	r3, [sp, #4]
 194 0026 039A     		ldr	r2, [sp, #12]
 195 0028 1A60     		str	r2, [r3]
 196              		.loc 3 658 0
 197 002a 039B     		ldr	r3, [sp, #12]
 198 002c 5A68     		ldr	r2, [r3, #4]
 199 002e 019B     		ldr	r3, [sp, #4]
 200 0030 5A60     		str	r2, [r3, #4]
 201              		.loc 3 659 0
 202 0032 019B     		ldr	r3, [sp, #4]
 203 0034 5B68     		ldr	r3, [r3, #4]
 204 0036 019A     		ldr	r2, [sp, #4]
 205 0038 1A60     		str	r2, [r3]
 206              		.loc 3 660 0
 207 003a 039B     		ldr	r3, [sp, #12]
 208 003c 019A     		ldr	r2, [sp, #4]
 209 003e 5A60     		str	r2, [r3, #4]
 210              		.loc 3 661 0
 211 0040 C046     		nop
 212 0042 04B0     		add	sp, sp, #16
 213              		@ sp needed
 214 0044 7047     		bx	lr
 215              		.cfi_endproc
 216              	.LFE65:
 217              		.size	queue_prio_insert, .-queue_prio_insert
 218 0046 C046     		.section	.text.queue_fifo_remove,"ax",%progbits
 219              		.align	1
 220              		.p2align 4,,15
 221              		.syntax unified
 222              		.code	16
 223              		.thumb_func
 224              		.fpu softvfp
 225              		.type	queue_fifo_remove, %function
 226              	queue_fifo_remove:
 227              	.LFB67:
 228              		.loc 3 671 0
ARM GAS  /tmp/ccSfq7o4.s 			page 5


 229              		.cfi_startproc
 230              		@ args = 0, pretend = 0, frame = 16
 231              		@ frame_needed = 0, uses_anonymous_args = 0
 232              		@ link register save eliminated.
 233 0000 84B0     		sub	sp, sp, #16
 234              		.cfi_def_cfa_offset 16
 235 0002 0190     		str	r0, [sp, #4]
 236              		.loc 3 672 0
 237 0004 019B     		ldr	r3, [sp, #4]
 238 0006 1B68     		ldr	r3, [r3]
 239 0008 0393     		str	r3, [sp, #12]
 240              		.loc 3 674 0
 241 000a 039B     		ldr	r3, [sp, #12]
 242 000c 1A68     		ldr	r2, [r3]
 243 000e 019B     		ldr	r3, [sp, #4]
 244 0010 1A60     		str	r2, [r3]
 245              		.loc 3 675 0
 246 0012 019B     		ldr	r3, [sp, #4]
 247 0014 1B68     		ldr	r3, [r3]
 248 0016 019A     		ldr	r2, [sp, #4]
 249 0018 5A60     		str	r2, [r3, #4]
 250              		.loc 3 677 0
 251 001a 039B     		ldr	r3, [sp, #12]
 252              		.loc 3 678 0
 253 001c 1800     		movs	r0, r3
 254 001e 04B0     		add	sp, sp, #16
 255              		@ sp needed
 256 0020 7047     		bx	lr
 257              		.cfi_endproc
 258              	.LFE67:
 259              		.size	queue_fifo_remove, .-queue_fifo_remove
 260 0022 C046     		.section	.text.chSysLock,"ax",%progbits
 261              		.align	1
 262              		.p2align 4,,15
 263              		.syntax unified
 264              		.code	16
 265              		.thumb_func
 266              		.fpu softvfp
 267              		.type	chSysLock, %function
 268              	chSysLock:
 269              	.LFB77:
 270              		.file 4 "ChibiOS/os/rt/include/chsys.h"
 271              		.loc 4 346 0
 272              		.cfi_startproc
 273              		@ args = 0, pretend = 0, frame = 0
 274              		@ frame_needed = 0, uses_anonymous_args = 0
 275 0000 10B5     		push	{r4, lr}
 276              		.cfi_def_cfa_offset 8
 277              		.cfi_offset 4, -8
 278              		.cfi_offset 14, -4
 279              		.loc 4 348 0
 280 0002 FFF7FEFF 		bl	port_lock
 281              		.loc 4 350 0
 282 0006 FFF7FEFF 		bl	_dbg_check_lock
 283              		.loc 4 351 0
 284 000a C046     		nop
 285              		@ sp needed
ARM GAS  /tmp/ccSfq7o4.s 			page 6


 286 000c 10BD     		pop	{r4, pc}
 287              		.cfi_endproc
 288              	.LFE77:
 289              		.size	chSysLock, .-chSysLock
 290 000e C046     		.section	.text.chSysUnlock,"ax",%progbits
 291              		.align	1
 292              		.p2align 4,,15
 293              		.syntax unified
 294              		.code	16
 295              		.thumb_func
 296              		.fpu softvfp
 297              		.type	chSysUnlock, %function
 298              	chSysUnlock:
 299              	.LFB78:
 300              		.loc 4 358 0
 301              		.cfi_startproc
 302              		@ args = 0, pretend = 0, frame = 0
 303              		@ frame_needed = 0, uses_anonymous_args = 0
 304 0000 10B5     		push	{r4, lr}
 305              		.cfi_def_cfa_offset 8
 306              		.cfi_offset 4, -8
 307              		.cfi_offset 14, -4
 308              		.loc 4 360 0
 309 0002 FFF7FEFF 		bl	_dbg_check_unlock
 310              		.loc 4 367 0
 311 0006 0A4B     		ldr	r3, .L14
 312 0008 1A68     		ldr	r2, [r3]
 313 000a 094B     		ldr	r3, .L14
 314 000c 9A42     		cmp	r2, r3
 315 000e 0BD0     		beq	.L13
 316              		.loc 4 367 0 is_stmt 0 discriminator 2
 317 0010 074B     		ldr	r3, .L14
 318 0012 9B69     		ldr	r3, [r3, #24]
 319 0014 9A68     		ldr	r2, [r3, #8]
 320 0016 064B     		ldr	r3, .L14
 321 0018 1B68     		ldr	r3, [r3]
 322 001a 9B68     		ldr	r3, [r3, #8]
 323 001c 9A42     		cmp	r2, r3
 324 001e 03D2     		bcs	.L13
 325              		.loc 4 367 0 discriminator 3
 326 0020 044B     		ldr	r3, .L14+4
 327 0022 1800     		movs	r0, r3
 328 0024 FFF7FEFF 		bl	chSysHalt
 329              	.L13:
 330              		.loc 4 371 0 is_stmt 1
 331 0028 FFF7FEFF 		bl	port_unlock
 332              		.loc 4 372 0
 333 002c C046     		nop
 334              		@ sp needed
 335 002e 10BD     		pop	{r4, pc}
 336              	.L15:
 337              		.align	2
 338              	.L14:
 339 0030 00000000 		.word	ch
 340 0034 00000000 		.word	__func__.4993
 341              		.cfi_endproc
 342              	.LFE78:
ARM GAS  /tmp/ccSfq7o4.s 			page 7


 343              		.size	chSysUnlock, .-chSysUnlock
 344              		.section	.text.chThdGetSelfX,"ax",%progbits
 345              		.align	1
 346              		.p2align 4,,15
 347              		.syntax unified
 348              		.code	16
 349              		.thumb_func
 350              		.fpu softvfp
 351              		.type	chThdGetSelfX, %function
 352              	chThdGetSelfX:
 353              	.LFB99:
 354              		.file 5 "ChibiOS/os/rt/include/chthreads.h"
 355              		.loc 5 174 0
 356              		.cfi_startproc
 357              		@ args = 0, pretend = 0, frame = 0
 358              		@ frame_needed = 0, uses_anonymous_args = 0
 359              		@ link register save eliminated.
 360              		.loc 5 176 0
 361 0000 014B     		ldr	r3, .L18
 362 0002 9B69     		ldr	r3, [r3, #24]
 363              		.loc 5 177 0
 364 0004 1800     		movs	r0, r3
 365              		@ sp needed
 366 0006 7047     		bx	lr
 367              	.L19:
 368              		.align	2
 369              	.L18:
 370 0008 00000000 		.word	ch
 371              		.cfi_endproc
 372              	.LFE99:
 373              		.size	chThdGetSelfX, .-chThdGetSelfX
 374              		.section	.text.chMtxGetNextMutexS,"ax",%progbits
 375              		.align	1
 376              		.p2align 4,,15
 377              		.syntax unified
 378              		.code	16
 379              		.thumb_func
 380              		.fpu softvfp
 381              		.type	chMtxGetNextMutexS, %function
 382              	chMtxGetNextMutexS:
 383              	.LFB125:
 384              		.file 6 "ChibiOS/os/rt/include/chmtx.h"
 385              		.loc 6 143 0
 386              		.cfi_startproc
 387              		@ args = 0, pretend = 0, frame = 0
 388              		@ frame_needed = 0, uses_anonymous_args = 0
 389 0000 10B5     		push	{r4, lr}
 390              		.cfi_def_cfa_offset 8
 391              		.cfi_offset 4, -8
 392              		.cfi_offset 14, -4
 393              		.loc 6 145 0
 394 0002 FFF7FEFF 		bl	chThdGetSelfX
 395 0006 0300     		movs	r3, r0
 396 0008 DB6B     		ldr	r3, [r3, #60]
 397              		.loc 6 146 0
 398 000a 1800     		movs	r0, r3
 399              		@ sp needed
ARM GAS  /tmp/ccSfq7o4.s 			page 8


 400 000c 10BD     		pop	{r4, pc}
 401              		.cfi_endproc
 402              	.LFE125:
 403              		.size	chMtxGetNextMutexS, .-chMtxGetNextMutexS
 404 000e C046     		.section	.text.chCondObjectInit,"ax",%progbits
 405              		.align	1
 406              		.p2align 4,,15
 407              		.global	chCondObjectInit
 408              		.syntax unified
 409              		.code	16
 410              		.thumb_func
 411              		.fpu softvfp
 412              		.type	chCondObjectInit, %function
 413              	chCondObjectInit:
 414              	.LFB152:
 415              		.file 7 "ChibiOS/os/rt/src/chcond.c"
 416              		.loc 7 75 0
 417              		.cfi_startproc
 418              		@ args = 0, pretend = 0, frame = 8
 419              		@ frame_needed = 0, uses_anonymous_args = 0
 420 0000 00B5     		push	{lr}
 421              		.cfi_def_cfa_offset 4
 422              		.cfi_offset 14, -4
 423 0002 83B0     		sub	sp, sp, #12
 424              		.cfi_def_cfa_offset 16
 425 0004 0190     		str	r0, [sp, #4]
 426              		.loc 7 77 0
 427 0006 019B     		ldr	r3, [sp, #4]
 428 0008 002B     		cmp	r3, #0
 429 000a 03D1     		bne	.L23
 430              		.loc 7 77 0 is_stmt 0 discriminator 2
 431 000c 054B     		ldr	r3, .L24
 432 000e 1800     		movs	r0, r3
 433 0010 FFF7FEFF 		bl	chSysHalt
 434              	.L23:
 435              		.loc 7 79 0 is_stmt 1
 436 0014 019B     		ldr	r3, [sp, #4]
 437 0016 1800     		movs	r0, r3
 438 0018 FFF7FEFF 		bl	queue_init
 439              		.loc 7 80 0
 440 001c C046     		nop
 441 001e 03B0     		add	sp, sp, #12
 442              		@ sp needed
 443 0020 00BD     		pop	{pc}
 444              	.L25:
 445 0022 C046     		.align	2
 446              	.L24:
 447 0024 00000000 		.word	__func__.5696
 448              		.cfi_endproc
 449              	.LFE152:
 450              		.size	chCondObjectInit, .-chCondObjectInit
 451              		.section	.text.chCondSignal,"ax",%progbits
 452              		.align	1
 453              		.p2align 4,,15
 454              		.global	chCondSignal
 455              		.syntax unified
 456              		.code	16
ARM GAS  /tmp/ccSfq7o4.s 			page 9


 457              		.thumb_func
 458              		.fpu softvfp
 459              		.type	chCondSignal, %function
 460              	chCondSignal:
 461              	.LFB153:
 462              		.loc 7 89 0
 463              		.cfi_startproc
 464              		@ args = 0, pretend = 0, frame = 8
 465              		@ frame_needed = 0, uses_anonymous_args = 0
 466 0000 00B5     		push	{lr}
 467              		.cfi_def_cfa_offset 4
 468              		.cfi_offset 14, -4
 469 0002 83B0     		sub	sp, sp, #12
 470              		.cfi_def_cfa_offset 16
 471 0004 0190     		str	r0, [sp, #4]
 472              		.loc 7 91 0
 473 0006 019B     		ldr	r3, [sp, #4]
 474 0008 002B     		cmp	r3, #0
 475 000a 03D1     		bne	.L27
 476              		.loc 7 91 0 is_stmt 0 discriminator 2
 477 000c 0C4B     		ldr	r3, .L29
 478 000e 1800     		movs	r0, r3
 479 0010 FFF7FEFF 		bl	chSysHalt
 480              	.L27:
 481              		.loc 7 93 0 is_stmt 1
 482 0014 FFF7FEFF 		bl	chSysLock
 483              		.loc 7 94 0
 484 0018 019B     		ldr	r3, [sp, #4]
 485 001a 1800     		movs	r0, r3
 486 001c FFF7FEFF 		bl	queue_notempty
 487 0020 031E     		subs	r3, r0, #0
 488 0022 08D0     		beq	.L28
 489              		.loc 7 95 0
 490 0024 019B     		ldr	r3, [sp, #4]
 491 0026 1800     		movs	r0, r3
 492 0028 FFF7FEFF 		bl	queue_fifo_remove
 493 002c 0300     		movs	r3, r0
 494 002e 0021     		movs	r1, #0
 495 0030 1800     		movs	r0, r3
 496 0032 FFF7FEFF 		bl	chSchWakeupS
 497              	.L28:
 498              		.loc 7 97 0
 499 0036 FFF7FEFF 		bl	chSysUnlock
 500              		.loc 7 98 0
 501 003a C046     		nop
 502 003c 03B0     		add	sp, sp, #12
 503              		@ sp needed
 504 003e 00BD     		pop	{pc}
 505              	.L30:
 506              		.align	2
 507              	.L29:
 508 0040 00000000 		.word	__func__.5700
 509              		.cfi_endproc
 510              	.LFE153:
 511              		.size	chCondSignal, .-chCondSignal
 512              		.section	.text.chCondSignalI,"ax",%progbits
 513              		.align	1
ARM GAS  /tmp/ccSfq7o4.s 			page 10


 514              		.p2align 4,,15
 515              		.global	chCondSignalI
 516              		.syntax unified
 517              		.code	16
 518              		.thumb_func
 519              		.fpu softvfp
 520              		.type	chCondSignalI, %function
 521              	chCondSignalI:
 522              	.LFB154:
 523              		.loc 7 111 0
 524              		.cfi_startproc
 525              		@ args = 0, pretend = 0, frame = 16
 526              		@ frame_needed = 0, uses_anonymous_args = 0
 527 0000 00B5     		push	{lr}
 528              		.cfi_def_cfa_offset 4
 529              		.cfi_offset 14, -4
 530 0002 85B0     		sub	sp, sp, #20
 531              		.cfi_def_cfa_offset 24
 532 0004 0190     		str	r0, [sp, #4]
 533              		.loc 7 113 0
 534 0006 FFF7FEFF 		bl	chDbgCheckClassI
 535              		.loc 7 114 0
 536 000a 019B     		ldr	r3, [sp, #4]
 537 000c 002B     		cmp	r3, #0
 538 000e 03D1     		bne	.L32
 539              		.loc 7 114 0 is_stmt 0 discriminator 2
 540 0010 0C4B     		ldr	r3, .L35
 541 0012 1800     		movs	r0, r3
 542 0014 FFF7FEFF 		bl	chSysHalt
 543              	.L32:
 544              		.loc 7 116 0 is_stmt 1
 545 0018 019B     		ldr	r3, [sp, #4]
 546 001a 1800     		movs	r0, r3
 547 001c FFF7FEFF 		bl	queue_notempty
 548 0020 031E     		subs	r3, r0, #0
 549 0022 0CD0     		beq	.L34
 550              	.LBB10:
 551              		.loc 7 117 0
 552 0024 019B     		ldr	r3, [sp, #4]
 553 0026 1800     		movs	r0, r3
 554 0028 FFF7FEFF 		bl	queue_fifo_remove
 555 002c 0300     		movs	r3, r0
 556 002e 0393     		str	r3, [sp, #12]
 557              		.loc 7 118 0
 558 0030 039B     		ldr	r3, [sp, #12]
 559 0032 0022     		movs	r2, #0
 560 0034 5A62     		str	r2, [r3, #36]
 561              		.loc 7 119 0
 562 0036 039B     		ldr	r3, [sp, #12]
 563 0038 1800     		movs	r0, r3
 564 003a FFF7FEFF 		bl	chSchReadyI
 565              	.L34:
 566              	.LBE10:
 567              		.loc 7 121 0
 568 003e C046     		nop
 569 0040 05B0     		add	sp, sp, #20
 570              		@ sp needed
ARM GAS  /tmp/ccSfq7o4.s 			page 11


 571 0042 00BD     		pop	{pc}
 572              	.L36:
 573              		.align	2
 574              	.L35:
 575 0044 00000000 		.word	__func__.5704
 576              		.cfi_endproc
 577              	.LFE154:
 578              		.size	chCondSignalI, .-chCondSignalI
 579              		.section	.text.chCondBroadcast,"ax",%progbits
 580              		.align	1
 581              		.p2align 4,,15
 582              		.global	chCondBroadcast
 583              		.syntax unified
 584              		.code	16
 585              		.thumb_func
 586              		.fpu softvfp
 587              		.type	chCondBroadcast, %function
 588              	chCondBroadcast:
 589              	.LFB155:
 590              		.loc 7 130 0
 591              		.cfi_startproc
 592              		@ args = 0, pretend = 0, frame = 8
 593              		@ frame_needed = 0, uses_anonymous_args = 0
 594 0000 00B5     		push	{lr}
 595              		.cfi_def_cfa_offset 4
 596              		.cfi_offset 14, -4
 597 0002 83B0     		sub	sp, sp, #12
 598              		.cfi_def_cfa_offset 16
 599 0004 0190     		str	r0, [sp, #4]
 600              		.loc 7 132 0
 601 0006 FFF7FEFF 		bl	chSysLock
 602              		.loc 7 133 0
 603 000a 019B     		ldr	r3, [sp, #4]
 604 000c 1800     		movs	r0, r3
 605 000e FFF7FEFF 		bl	chCondBroadcastI
 606              		.loc 7 134 0
 607 0012 FFF7FEFF 		bl	chSchRescheduleS
 608              		.loc 7 135 0
 609 0016 FFF7FEFF 		bl	chSysUnlock
 610              		.loc 7 136 0
 611 001a C046     		nop
 612 001c 03B0     		add	sp, sp, #12
 613              		@ sp needed
 614 001e 00BD     		pop	{pc}
 615              		.cfi_endproc
 616              	.LFE155:
 617              		.size	chCondBroadcast, .-chCondBroadcast
 618              		.section	.text.chCondBroadcastI,"ax",%progbits
 619              		.align	1
 620              		.p2align 4,,15
 621              		.global	chCondBroadcastI
 622              		.syntax unified
 623              		.code	16
 624              		.thumb_func
 625              		.fpu softvfp
 626              		.type	chCondBroadcastI, %function
 627              	chCondBroadcastI:
ARM GAS  /tmp/ccSfq7o4.s 			page 12


 628              	.LFB156:
 629              		.loc 7 149 0
 630              		.cfi_startproc
 631              		@ args = 0, pretend = 0, frame = 8
 632              		@ frame_needed = 0, uses_anonymous_args = 0
 633 0000 00B5     		push	{lr}
 634              		.cfi_def_cfa_offset 4
 635              		.cfi_offset 14, -4
 636 0002 83B0     		sub	sp, sp, #12
 637              		.cfi_def_cfa_offset 16
 638 0004 0190     		str	r0, [sp, #4]
 639              		.loc 7 151 0
 640 0006 FFF7FEFF 		bl	chDbgCheckClassI
 641              		.loc 7 152 0
 642 000a 019B     		ldr	r3, [sp, #4]
 643 000c 002B     		cmp	r3, #0
 644 000e 10D1     		bne	.L40
 645              		.loc 7 152 0 is_stmt 0 discriminator 2
 646 0010 0C4B     		ldr	r3, .L42
 647 0012 1800     		movs	r0, r3
 648 0014 FFF7FEFF 		bl	chSysHalt
 649              		.loc 7 157 0 is_stmt 1 discriminator 2
 650 0018 0BE0     		b	.L40
 651              	.L41:
 652              		.loc 7 158 0
 653 001a 019B     		ldr	r3, [sp, #4]
 654 001c 1800     		movs	r0, r3
 655 001e FFF7FEFF 		bl	queue_fifo_remove
 656 0022 0300     		movs	r3, r0
 657 0024 1800     		movs	r0, r3
 658 0026 FFF7FEFF 		bl	chSchReadyI
 659 002a 0300     		movs	r3, r0
 660 002c 0222     		movs	r2, #2
 661 002e 5242     		rsbs	r2, r2, #0
 662 0030 5A62     		str	r2, [r3, #36]
 663              	.L40:
 664              		.loc 7 157 0
 665 0032 019B     		ldr	r3, [sp, #4]
 666 0034 1800     		movs	r0, r3
 667 0036 FFF7FEFF 		bl	queue_notempty
 668 003a 031E     		subs	r3, r0, #0
 669 003c EDD1     		bne	.L41
 670              		.loc 7 160 0
 671 003e C046     		nop
 672 0040 03B0     		add	sp, sp, #12
 673              		@ sp needed
 674 0042 00BD     		pop	{pc}
 675              	.L43:
 676              		.align	2
 677              	.L42:
 678 0044 00000000 		.word	__func__.5712
 679              		.cfi_endproc
 680              	.LFE156:
 681              		.size	chCondBroadcastI, .-chCondBroadcastI
 682              		.section	.text.chCondWait,"ax",%progbits
 683              		.align	1
 684              		.p2align 4,,15
ARM GAS  /tmp/ccSfq7o4.s 			page 13


 685              		.global	chCondWait
 686              		.syntax unified
 687              		.code	16
 688              		.thumb_func
 689              		.fpu softvfp
 690              		.type	chCondWait, %function
 691              	chCondWait:
 692              	.LFB157:
 693              		.loc 7 179 0
 694              		.cfi_startproc
 695              		@ args = 0, pretend = 0, frame = 16
 696              		@ frame_needed = 0, uses_anonymous_args = 0
 697 0000 00B5     		push	{lr}
 698              		.cfi_def_cfa_offset 4
 699              		.cfi_offset 14, -4
 700 0002 85B0     		sub	sp, sp, #20
 701              		.cfi_def_cfa_offset 24
 702 0004 0190     		str	r0, [sp, #4]
 703              		.loc 7 182 0
 704 0006 FFF7FEFF 		bl	chSysLock
 705              		.loc 7 183 0
 706 000a 019B     		ldr	r3, [sp, #4]
 707 000c 1800     		movs	r0, r3
 708 000e FFF7FEFF 		bl	chCondWaitS
 709 0012 0300     		movs	r3, r0
 710 0014 0393     		str	r3, [sp, #12]
 711              		.loc 7 184 0
 712 0016 FFF7FEFF 		bl	chSysUnlock
 713              		.loc 7 185 0
 714 001a 039B     		ldr	r3, [sp, #12]
 715              		.loc 7 186 0
 716 001c 1800     		movs	r0, r3
 717 001e 05B0     		add	sp, sp, #20
 718              		@ sp needed
 719 0020 00BD     		pop	{pc}
 720              		.cfi_endproc
 721              	.LFE157:
 722              		.size	chCondWait, .-chCondWait
 723 0022 C046     		.section	.text.chCondWaitS,"ax",%progbits
 724              		.align	1
 725              		.p2align 4,,15
 726              		.global	chCondWaitS
 727              		.syntax unified
 728              		.code	16
 729              		.thumb_func
 730              		.fpu softvfp
 731              		.type	chCondWaitS, %function
 732              	chCondWaitS:
 733              	.LFB158:
 734              		.loc 7 205 0
 735              		.cfi_startproc
 736              		@ args = 0, pretend = 0, frame = 24
 737              		@ frame_needed = 0, uses_anonymous_args = 0
 738 0000 00B5     		push	{lr}
 739              		.cfi_def_cfa_offset 4
 740              		.cfi_offset 14, -4
 741 0002 87B0     		sub	sp, sp, #28
ARM GAS  /tmp/ccSfq7o4.s 			page 14


 742              		.cfi_def_cfa_offset 32
 743 0004 0190     		str	r0, [sp, #4]
 744              		.loc 7 206 0
 745 0006 194B     		ldr	r3, .L51
 746 0008 9B69     		ldr	r3, [r3, #24]
 747 000a 0593     		str	r3, [sp, #20]
 748              		.loc 7 210 0
 749 000c FFF7FEFF 		bl	chDbgCheckClassS
 750              		.loc 7 211 0
 751 0010 019B     		ldr	r3, [sp, #4]
 752 0012 002B     		cmp	r3, #0
 753 0014 03D1     		bne	.L50
 754              		.loc 7 211 0 is_stmt 0 discriminator 2
 755 0016 164B     		ldr	r3, .L51+4
 756 0018 1800     		movs	r0, r3
 757 001a FFF7FEFF 		bl	chSysHalt
 758              	.L50:
 759              		.loc 7 212 0 is_stmt 1 discriminator 1
 760 001e 059B     		ldr	r3, [sp, #20]
 761 0020 DB6B     		ldr	r3, [r3, #60]
 762 0022 002B     		cmp	r3, #0
 763 0024 03D1     		bne	.L48
 764              		.loc 7 212 0 is_stmt 0 discriminator 2
 765 0026 124B     		ldr	r3, .L51+4
 766 0028 1800     		movs	r0, r3
 767 002a FFF7FEFF 		bl	chSysHalt
 768              	.L48:
 769              		.loc 7 215 0 is_stmt 1
 770 002e FFF7FEFF 		bl	chMtxGetNextMutexS
 771 0032 0300     		movs	r3, r0
 772 0034 0493     		str	r3, [sp, #16]
 773              		.loc 7 216 0
 774 0036 049B     		ldr	r3, [sp, #16]
 775 0038 1800     		movs	r0, r3
 776 003a FFF7FEFF 		bl	chMtxUnlockS
 777              		.loc 7 220 0
 778 003e 059B     		ldr	r3, [sp, #20]
 779 0040 019A     		ldr	r2, [sp, #4]
 780 0042 5A62     		str	r2, [r3, #36]
 781              		.loc 7 221 0
 782 0044 019A     		ldr	r2, [sp, #4]
 783 0046 059B     		ldr	r3, [sp, #20]
 784 0048 1100     		movs	r1, r2
 785 004a 1800     		movs	r0, r3
 786 004c FFF7FEFF 		bl	queue_prio_insert
 787              		.loc 7 222 0
 788 0050 0720     		movs	r0, #7
 789 0052 FFF7FEFF 		bl	chSchGoSleepS
 790              		.loc 7 223 0
 791 0056 059B     		ldr	r3, [sp, #20]
 792 0058 5B6A     		ldr	r3, [r3, #36]
 793 005a 0393     		str	r3, [sp, #12]
 794              		.loc 7 224 0
 795 005c 049B     		ldr	r3, [sp, #16]
 796 005e 1800     		movs	r0, r3
 797 0060 FFF7FEFF 		bl	chMtxLockS
 798              		.loc 7 226 0
ARM GAS  /tmp/ccSfq7o4.s 			page 15


 799 0064 039B     		ldr	r3, [sp, #12]
 800              		.loc 7 227 0
 801 0066 1800     		movs	r0, r3
 802 0068 07B0     		add	sp, sp, #28
 803              		@ sp needed
 804 006a 00BD     		pop	{pc}
 805              	.L52:
 806              		.align	2
 807              	.L51:
 808 006c 00000000 		.word	ch
 809 0070 00000000 		.word	__func__.5726
 810              		.cfi_endproc
 811              	.LFE158:
 812              		.size	chCondWaitS, .-chCondWaitS
 813              		.section	.text.chCondWaitTimeout,"ax",%progbits
 814              		.align	1
 815              		.p2align 4,,15
 816              		.global	chCondWaitTimeout
 817              		.syntax unified
 818              		.code	16
 819              		.thumb_func
 820              		.fpu softvfp
 821              		.type	chCondWaitTimeout, %function
 822              	chCondWaitTimeout:
 823              	.LFB159:
 824              		.loc 7 258 0
 825              		.cfi_startproc
 826              		@ args = 0, pretend = 0, frame = 16
 827              		@ frame_needed = 0, uses_anonymous_args = 0
 828 0000 00B5     		push	{lr}
 829              		.cfi_def_cfa_offset 4
 830              		.cfi_offset 14, -4
 831 0002 85B0     		sub	sp, sp, #20
 832              		.cfi_def_cfa_offset 24
 833 0004 0190     		str	r0, [sp, #4]
 834 0006 0A00     		movs	r2, r1
 835 0008 6B46     		mov	r3, sp
 836 000a 0233     		adds	r3, r3, #2
 837 000c 1A80     		strh	r2, [r3]
 838              		.loc 7 261 0
 839 000e FFF7FEFF 		bl	chSysLock
 840              		.loc 7 262 0
 841 0012 6B46     		mov	r3, sp
 842 0014 0233     		adds	r3, r3, #2
 843 0016 1A88     		ldrh	r2, [r3]
 844 0018 019B     		ldr	r3, [sp, #4]
 845 001a 1100     		movs	r1, r2
 846 001c 1800     		movs	r0, r3
 847 001e FFF7FEFF 		bl	chCondWaitTimeoutS
 848 0022 0300     		movs	r3, r0
 849 0024 0393     		str	r3, [sp, #12]
 850              		.loc 7 263 0
 851 0026 FFF7FEFF 		bl	chSysUnlock
 852              		.loc 7 265 0
 853 002a 039B     		ldr	r3, [sp, #12]
 854              		.loc 7 266 0
 855 002c 1800     		movs	r0, r3
ARM GAS  /tmp/ccSfq7o4.s 			page 16


 856 002e 05B0     		add	sp, sp, #20
 857              		@ sp needed
 858 0030 00BD     		pop	{pc}
 859              		.cfi_endproc
 860              	.LFE159:
 861              		.size	chCondWaitTimeout, .-chCondWaitTimeout
 862 0032 C046     		.section	.text.chCondWaitTimeoutS,"ax",%progbits
 863              		.align	1
 864              		.p2align 4,,15
 865              		.global	chCondWaitTimeoutS
 866              		.syntax unified
 867              		.code	16
 868              		.thumb_func
 869              		.fpu softvfp
 870              		.type	chCondWaitTimeoutS, %function
 871              	chCondWaitTimeoutS:
 872              	.LFB160:
 873              		.loc 7 296 0
 874              		.cfi_startproc
 875              		@ args = 0, pretend = 0, frame = 16
 876              		@ frame_needed = 0, uses_anonymous_args = 0
 877 0000 00B5     		push	{lr}
 878              		.cfi_def_cfa_offset 4
 879              		.cfi_offset 14, -4
 880 0002 85B0     		sub	sp, sp, #20
 881              		.cfi_def_cfa_offset 24
 882 0004 0190     		str	r0, [sp, #4]
 883 0006 0A00     		movs	r2, r1
 884 0008 6B46     		mov	r3, sp
 885 000a 0233     		adds	r3, r3, #2
 886 000c 1A80     		strh	r2, [r3]
 887              		.loc 7 300 0
 888 000e FFF7FEFF 		bl	chDbgCheckClassS
 889              		.loc 7 301 0
 890 0012 019B     		ldr	r3, [sp, #4]
 891 0014 002B     		cmp	r3, #0
 892 0016 04D0     		beq	.L56
 893              		.loc 7 301 0 is_stmt 0 discriminator 3
 894 0018 6B46     		mov	r3, sp
 895 001a 0233     		adds	r3, r3, #2
 896 001c 1B88     		ldrh	r3, [r3]
 897 001e 002B     		cmp	r3, #0
 898 0020 03D1     		bne	.L61
 899              	.L56:
 900              		.loc 7 301 0 discriminator 4
 901 0022 1A4B     		ldr	r3, .L62
 902 0024 1800     		movs	r0, r3
 903 0026 FFF7FEFF 		bl	chSysHalt
 904              	.L61:
 905              		.loc 7 302 0 is_stmt 1 discriminator 1
 906 002a 194B     		ldr	r3, .L62+4
 907 002c 9B69     		ldr	r3, [r3, #24]
 908 002e DB6B     		ldr	r3, [r3, #60]
 909 0030 002B     		cmp	r3, #0
 910 0032 03D1     		bne	.L58
 911              		.loc 7 302 0 is_stmt 0 discriminator 2
 912 0034 154B     		ldr	r3, .L62
ARM GAS  /tmp/ccSfq7o4.s 			page 17


 913 0036 1800     		movs	r0, r3
 914 0038 FFF7FEFF 		bl	chSysHalt
 915              	.L58:
 916              		.loc 7 305 0 is_stmt 1
 917 003c FFF7FEFF 		bl	chMtxGetNextMutexS
 918 0040 0300     		movs	r3, r0
 919 0042 0393     		str	r3, [sp, #12]
 920              		.loc 7 306 0
 921 0044 039B     		ldr	r3, [sp, #12]
 922 0046 1800     		movs	r0, r3
 923 0048 FFF7FEFF 		bl	chMtxUnlockS
 924              		.loc 7 310 0
 925 004c 104B     		ldr	r3, .L62+4
 926 004e 9B69     		ldr	r3, [r3, #24]
 927 0050 019A     		ldr	r2, [sp, #4]
 928 0052 5A62     		str	r2, [r3, #36]
 929              		.loc 7 311 0
 930 0054 0E4B     		ldr	r3, .L62+4
 931 0056 9B69     		ldr	r3, [r3, #24]
 932 0058 019A     		ldr	r2, [sp, #4]
 933 005a 1100     		movs	r1, r2
 934 005c 1800     		movs	r0, r3
 935 005e FFF7FEFF 		bl	queue_prio_insert
 936              		.loc 7 312 0
 937 0062 6B46     		mov	r3, sp
 938 0064 0233     		adds	r3, r3, #2
 939 0066 1B88     		ldrh	r3, [r3]
 940 0068 1900     		movs	r1, r3
 941 006a 0720     		movs	r0, #7
 942 006c FFF7FEFF 		bl	chSchGoSleepTimeoutS
 943 0070 0300     		movs	r3, r0
 944 0072 0293     		str	r3, [sp, #8]
 945              		.loc 7 313 0
 946 0074 029B     		ldr	r3, [sp, #8]
 947 0076 0133     		adds	r3, r3, #1
 948 0078 03D0     		beq	.L59
 949              		.loc 7 314 0
 950 007a 039B     		ldr	r3, [sp, #12]
 951 007c 1800     		movs	r0, r3
 952 007e FFF7FEFF 		bl	chMtxLockS
 953              	.L59:
 954              		.loc 7 317 0
 955 0082 029B     		ldr	r3, [sp, #8]
 956              		.loc 7 318 0
 957 0084 1800     		movs	r0, r3
 958 0086 05B0     		add	sp, sp, #20
 959              		@ sp needed
 960 0088 00BD     		pop	{pc}
 961              	.L63:
 962 008a C046     		.align	2
 963              	.L62:
 964 008c 00000000 		.word	__func__.5738
 965 0090 00000000 		.word	ch
 966              		.cfi_endproc
 967              	.LFE160:
 968              		.size	chCondWaitTimeoutS, .-chCondWaitTimeoutS
 969              		.section	.rodata.__func__.5696,"a",%progbits
ARM GAS  /tmp/ccSfq7o4.s 			page 18


 970              		.align	2
 971              		.type	__func__.5696, %object
 972              		.size	__func__.5696, 17
 973              	__func__.5696:
 974 0000 6368436F 		.ascii	"chCondObjectInit\000"
 974      6E644F62 
 974      6A656374 
 974      496E6974 
 974      00
 975              		.section	.rodata.__func__.5700,"a",%progbits
 976              		.align	2
 977              		.type	__func__.5700, %object
 978              		.size	__func__.5700, 13
 979              	__func__.5700:
 980 0000 6368436F 		.ascii	"chCondSignal\000"
 980      6E645369 
 980      676E616C 
 980      00
 981              		.section	.rodata.__func__.4993,"a",%progbits
 982              		.align	2
 983              		.type	__func__.4993, %object
 984              		.size	__func__.4993, 12
 985              	__func__.4993:
 986 0000 63685379 		.ascii	"chSysUnlock\000"
 986      73556E6C 
 986      6F636B00 
 987              		.section	.rodata.__func__.5704,"a",%progbits
 988              		.align	2
 989              		.type	__func__.5704, %object
 990              		.size	__func__.5704, 14
 991              	__func__.5704:
 992 0000 6368436F 		.ascii	"chCondSignalI\000"
 992      6E645369 
 992      676E616C 
 992      4900
 993              		.section	.rodata.__func__.5712,"a",%progbits
 994              		.align	2
 995              		.type	__func__.5712, %object
 996              		.size	__func__.5712, 17
 997              	__func__.5712:
 998 0000 6368436F 		.ascii	"chCondBroadcastI\000"
 998      6E644272 
 998      6F616463 
 998      61737449 
 998      00
 999              		.section	.rodata.__func__.5726,"a",%progbits
 1000              		.align	2
 1001              		.type	__func__.5726, %object
 1002              		.size	__func__.5726, 12
 1003              	__func__.5726:
 1004 0000 6368436F 		.ascii	"chCondWaitS\000"
 1004      6E645761 
 1004      69745300 
 1005              		.section	.rodata.__func__.5738,"a",%progbits
 1006              		.align	2
 1007              		.type	__func__.5738, %object
 1008              		.size	__func__.5738, 19
ARM GAS  /tmp/ccSfq7o4.s 			page 19


 1009              	__func__.5738:
 1010 0000 6368436F 		.ascii	"chCondWaitTimeoutS\000"
 1010      6E645761 
 1010      69745469 
 1010      6D656F75 
 1010      745300
 1011              		.text
 1012              	.Letext0:
 1013              		.file 8 "/home/felix/opt/gcc-arm-none-eabi-6-2017-q1-update/arm-none-eabi/include/machine/_default
 1014              		.file 9 "/home/felix/opt/gcc-arm-none-eabi-6-2017-q1-update/arm-none-eabi/include/sys/_stdint.h"
 1015              		.file 10 "ChibiOS/os/rt/ports/ARMCMx/compilers/GCC/chtypes.h"
 1016              		.file 11 "ChibiOS/os/rt/include/chsystypes.h"
 1017              		.file 12 "ChibiOS/os/rt/ports/ARMCMx/chcore.h"
 1018              		.file 13 "ChibiOS/os/rt/include/chdebug.h"
 1019              		.file 14 "ChibiOS/os/rt/include/chsem.h"
 1020              		.file 15 "ChibiOS/os/rt/include/chregistry.h"
 1021              		.file 16 "ChibiOS/os/ext/CMSIS/ST/STM32F0xx/system_stm32f0xx.h"
 1022              		.file 17 "ChibiOS/os/rt/include/chcond.h"
 1023              		.section	.debug_info,"",%progbits
 1024              	.Ldebug_info0:
 1025 0000 590C0000 		.4byte	0xc59
 1026 0004 0400     		.2byte	0x4
 1027 0006 00000000 		.4byte	.Ldebug_abbrev0
 1028 000a 04       		.byte	0x4
 1029 000b 01       		.uleb128 0x1
 1030 000c C4020000 		.4byte	.LASF161
 1031 0010 0C       		.byte	0xc
 1032 0011 E8010000 		.4byte	.LASF162
 1033 0015 0E040000 		.4byte	.LASF163
 1034 0019 00000000 		.4byte	.Ldebug_ranges0+0
 1035 001d 00000000 		.4byte	0
 1036 0021 00000000 		.4byte	.Ldebug_line0
 1037 0025 02       		.uleb128 0x2
 1038 0026 04       		.byte	0x4
 1039 0027 05       		.byte	0x5
 1040 0028 696E7400 		.ascii	"int\000"
 1041 002c 03       		.uleb128 0x3
 1042 002d 04       		.byte	0x4
 1043 002e 07       		.byte	0x7
 1044 002f 9D000000 		.4byte	.LASF0
 1045 0033 03       		.uleb128 0x3
 1046 0034 08       		.byte	0x8
 1047 0035 05       		.byte	0x5
 1048 0036 00050000 		.4byte	.LASF1
 1049 003a 03       		.uleb128 0x3
 1050 003b 08       		.byte	0x8
 1051 003c 04       		.byte	0x4
 1052 003d B1050000 		.4byte	.LASF2
 1053 0041 03       		.uleb128 0x3
 1054 0042 01       		.byte	0x1
 1055 0043 06       		.byte	0x6
 1056 0044 98070000 		.4byte	.LASF3
 1057 0048 04       		.uleb128 0x4
 1058 0049 76060000 		.4byte	.LASF6
 1059 004d 08       		.byte	0x8
 1060 004e 2B       		.byte	0x2b
 1061 004f 53000000 		.4byte	0x53
ARM GAS  /tmp/ccSfq7o4.s 			page 20


 1062 0053 03       		.uleb128 0x3
 1063 0054 01       		.byte	0x1
 1064 0055 08       		.byte	0x8
 1065 0056 1C070000 		.4byte	.LASF4
 1066 005a 03       		.uleb128 0x3
 1067 005b 02       		.byte	0x2
 1068 005c 05       		.byte	0x5
 1069 005d EF050000 		.4byte	.LASF5
 1070 0061 04       		.uleb128 0x4
 1071 0062 24020000 		.4byte	.LASF7
 1072 0066 08       		.byte	0x8
 1073 0067 39       		.byte	0x39
 1074 0068 6C000000 		.4byte	0x6c
 1075 006c 03       		.uleb128 0x3
 1076 006d 02       		.byte	0x2
 1077 006e 07       		.byte	0x7
 1078 006f B1070000 		.4byte	.LASF8
 1079 0073 04       		.uleb128 0x4
 1080 0074 B9000000 		.4byte	.LASF9
 1081 0078 08       		.byte	0x8
 1082 0079 4D       		.byte	0x4d
 1083 007a 7E000000 		.4byte	0x7e
 1084 007e 03       		.uleb128 0x3
 1085 007f 04       		.byte	0x4
 1086 0080 05       		.byte	0x5
 1087 0081 16060000 		.4byte	.LASF10
 1088 0085 04       		.uleb128 0x4
 1089 0086 2A070000 		.4byte	.LASF11
 1090 008a 08       		.byte	0x8
 1091 008b 4F       		.byte	0x4f
 1092 008c 90000000 		.4byte	0x90
 1093 0090 03       		.uleb128 0x3
 1094 0091 04       		.byte	0x4
 1095 0092 07       		.byte	0x7
 1096 0093 B2060000 		.4byte	.LASF12
 1097 0097 04       		.uleb128 0x4
 1098 0098 9B030000 		.4byte	.LASF13
 1099 009c 08       		.byte	0x8
 1100 009d 69       		.byte	0x69
 1101 009e A2000000 		.4byte	0xa2
 1102 00a2 03       		.uleb128 0x3
 1103 00a3 08       		.byte	0x8
 1104 00a4 07       		.byte	0x7
 1105 00a5 03020000 		.4byte	.LASF14
 1106 00a9 04       		.uleb128 0x4
 1107 00aa AD040000 		.4byte	.LASF15
 1108 00ae 09       		.byte	0x9
 1109 00af 18       		.byte	0x18
 1110 00b0 48000000 		.4byte	0x48
 1111 00b4 04       		.uleb128 0x4
 1112 00b5 BD050000 		.4byte	.LASF16
 1113 00b9 09       		.byte	0x9
 1114 00ba 24       		.byte	0x24
 1115 00bb 61000000 		.4byte	0x61
 1116 00bf 04       		.uleb128 0x4
 1117 00c0 DE060000 		.4byte	.LASF17
 1118 00c4 09       		.byte	0x9
ARM GAS  /tmp/ccSfq7o4.s 			page 21


 1119 00c5 2C       		.byte	0x2c
 1120 00c6 73000000 		.4byte	0x73
 1121 00ca 04       		.uleb128 0x4
 1122 00cb 75010000 		.4byte	.LASF18
 1123 00cf 09       		.byte	0x9
 1124 00d0 30       		.byte	0x30
 1125 00d1 85000000 		.4byte	0x85
 1126 00d5 04       		.uleb128 0x4
 1127 00d6 49060000 		.4byte	.LASF19
 1128 00da 09       		.byte	0x9
 1129 00db 3C       		.byte	0x3c
 1130 00dc 97000000 		.4byte	0x97
 1131 00e0 04       		.uleb128 0x4
 1132 00e1 96050000 		.4byte	.LASF20
 1133 00e5 0A       		.byte	0xa
 1134 00e6 3C       		.byte	0x3c
 1135 00e7 A9000000 		.4byte	0xa9
 1136 00eb 04       		.uleb128 0x4
 1137 00ec 83040000 		.4byte	.LASF21
 1138 00f0 0A       		.byte	0xa
 1139 00f1 3D       		.byte	0x3d
 1140 00f2 A9000000 		.4byte	0xa9
 1141 00f6 04       		.uleb128 0x4
 1142 00f7 AA060000 		.4byte	.LASF22
 1143 00fb 0A       		.byte	0xa
 1144 00fc 3E       		.byte	0x3e
 1145 00fd A9000000 		.4byte	0xa9
 1146 0101 04       		.uleb128 0x4
 1147 0102 C4010000 		.4byte	.LASF23
 1148 0106 0A       		.byte	0xa
 1149 0107 40       		.byte	0x40
 1150 0108 CA000000 		.4byte	0xca
 1151 010c 04       		.uleb128 0x4
 1152 010d 1E050000 		.4byte	.LASF24
 1153 0111 0A       		.byte	0xa
 1154 0112 41       		.byte	0x41
 1155 0113 BF000000 		.4byte	0xbf
 1156 0117 04       		.uleb128 0x4
 1157 0118 8A010000 		.4byte	.LASF25
 1158 011c 0A       		.byte	0xa
 1159 011d 43       		.byte	0x43
 1160 011e CA000000 		.4byte	0xca
 1161 0122 04       		.uleb128 0x4
 1162 0123 2F020000 		.4byte	.LASF26
 1163 0127 0A       		.byte	0xa
 1164 0128 45       		.byte	0x45
 1165 0129 BF000000 		.4byte	0xbf
 1166 012d 04       		.uleb128 0x4
 1167 012e 56000000 		.4byte	.LASF27
 1168 0132 0B       		.byte	0xb
 1169 0133 35       		.byte	0x35
 1170 0134 B4000000 		.4byte	0xb4
 1171 0138 04       		.uleb128 0x4
 1172 0139 83020000 		.4byte	.LASF28
 1173 013d 0B       		.byte	0xb
 1174 013e 3F       		.byte	0x3f
 1175 013f 43010000 		.4byte	0x143
ARM GAS  /tmp/ccSfq7o4.s 			page 22


 1176 0143 05       		.uleb128 0x5
 1177 0144 DF040000 		.4byte	.LASF49
 1178 0148 48       		.byte	0x48
 1179 0149 03       		.byte	0x3
 1180 014a C2       		.byte	0xc2
 1181 014b 3C020000 		.4byte	0x23c
 1182 014f 06       		.uleb128 0x6
 1183 0150 42060000 		.4byte	.LASF29
 1184 0154 03       		.byte	0x3
 1185 0155 C3       		.byte	0xc3
 1186 0156 47020000 		.4byte	0x247
 1187 015a 00       		.byte	0
 1188 015b 06       		.uleb128 0x6
 1189 015c 9A060000 		.4byte	.LASF30
 1190 0160 03       		.byte	0x3
 1191 0161 C5       		.byte	0xc5
 1192 0162 47020000 		.4byte	0x247
 1193 0166 04       		.byte	0x4
 1194 0167 06       		.uleb128 0x6
 1195 0168 4F000000 		.4byte	.LASF31
 1196 016c 03       		.byte	0x3
 1197 016d C7       		.byte	0xc7
 1198 016e 01010000 		.4byte	0x101
 1199 0172 08       		.byte	0x8
 1200 0173 06       		.uleb128 0x6
 1201 0174 52060000 		.4byte	.LASF32
 1202 0178 03       		.byte	0x3
 1203 0179 C8       		.byte	0xc8
 1204 017a A5040000 		.4byte	0x4a5
 1205 017e 0C       		.byte	0xc
 1206 017f 06       		.uleb128 0x6
 1207 0180 5C020000 		.4byte	.LASF33
 1208 0184 03       		.byte	0x3
 1209 0185 CA       		.byte	0xca
 1210 0186 47020000 		.4byte	0x247
 1211 018a 10       		.byte	0x10
 1212 018b 06       		.uleb128 0x6
 1213 018c 92040000 		.4byte	.LASF34
 1214 0190 03       		.byte	0x3
 1215 0191 CB       		.byte	0xcb
 1216 0192 47020000 		.4byte	0x247
 1217 0196 14       		.byte	0x14
 1218 0197 06       		.uleb128 0x6
 1219 0198 DB030000 		.4byte	.LASF35
 1220 019c 03       		.byte	0x3
 1221 019d D2       		.byte	0xd2
 1222 019e 8E060000 		.4byte	0x68e
 1223 01a2 18       		.byte	0x18
 1224 01a3 06       		.uleb128 0x6
 1225 01a4 A2040000 		.4byte	.LASF36
 1226 01a8 03       		.byte	0x3
 1227 01a9 D8       		.byte	0xd8
 1228 01aa A5060000 		.4byte	0x6a5
 1229 01ae 1C       		.byte	0x1c
 1230 01af 06       		.uleb128 0x6
 1231 01b0 9A040000 		.4byte	.LASF37
 1232 01b4 03       		.byte	0x3
ARM GAS  /tmp/ccSfq7o4.s 			page 23


 1233 01b5 DD       		.byte	0xdd
 1234 01b6 EB000000 		.4byte	0xeb
 1235 01ba 20       		.byte	0x20
 1236 01bb 06       		.uleb128 0x6
 1237 01bc 2C050000 		.4byte	.LASF38
 1238 01c0 03       		.byte	0x3
 1239 01c1 E1       		.byte	0xe1
 1240 01c2 E0000000 		.4byte	0xe0
 1241 01c6 21       		.byte	0x21
 1242 01c7 06       		.uleb128 0x6
 1243 01c8 4B070000 		.4byte	.LASF39
 1244 01cc 03       		.byte	0x3
 1245 01cd E6       		.byte	0xe6
 1246 01ce F6000000 		.4byte	0xf6
 1247 01d2 22       		.byte	0x22
 1248 01d3 07       		.uleb128 0x7
 1249 01d4 705F7500 		.ascii	"p_u\000"
 1250 01d8 03       		.byte	0x3
 1251 01d9 3101     		.2byte	0x131
 1252 01db C9050000 		.4byte	0x5c9
 1253 01df 24       		.byte	0x24
 1254 01e0 08       		.uleb128 0x8
 1255 01e1 20000000 		.4byte	.LASF40
 1256 01e5 03       		.byte	0x3
 1257 01e6 3601     		.2byte	0x136
 1258 01e8 4D020000 		.4byte	0x24d
 1259 01ec 28       		.byte	0x28
 1260 01ed 08       		.uleb128 0x8
 1261 01ee 92000000 		.4byte	.LASF41
 1262 01f2 03       		.byte	0x3
 1263 01f3 3C01     		.2byte	0x13c
 1264 01f5 71020000 		.4byte	0x271
 1265 01f9 2C       		.byte	0x2c
 1266 01fa 08       		.uleb128 0x8
 1267 01fb 90050000 		.4byte	.LASF42
 1268 01ff 03       		.byte	0x3
 1269 0200 4001     		.2byte	0x140
 1270 0202 0C010000 		.4byte	0x10c
 1271 0206 34       		.byte	0x34
 1272 0207 08       		.uleb128 0x8
 1273 0208 03060000 		.4byte	.LASF43
 1274 020c 03       		.byte	0x3
 1275 020d 4601     		.2byte	0x146
 1276 020f 17010000 		.4byte	0x117
 1277 0213 38       		.byte	0x38
 1278 0214 08       		.uleb128 0x8
 1279 0215 D5040000 		.4byte	.LASF44
 1280 0219 03       		.byte	0x3
 1281 021a 4D01     		.2byte	0x14d
 1282 021c 88060000 		.4byte	0x688
 1283 0220 3C       		.byte	0x3c
 1284 0221 08       		.uleb128 0x8
 1285 0222 D9050000 		.4byte	.LASF45
 1286 0226 03       		.byte	0x3
 1287 0227 5101     		.2byte	0x151
 1288 0229 01010000 		.4byte	0x101
 1289 022d 40       		.byte	0x40
ARM GAS  /tmp/ccSfq7o4.s 			page 24


 1290 022e 08       		.uleb128 0x8
 1291 022f CD040000 		.4byte	.LASF46
 1292 0233 03       		.byte	0x3
 1293 0234 5801     		.2byte	0x158
 1294 0236 29030000 		.4byte	0x329
 1295 023a 44       		.byte	0x44
 1296 023b 00       		.byte	0
 1297 023c 04       		.uleb128 0x4
 1298 023d 55040000 		.4byte	.LASF47
 1299 0241 0B       		.byte	0xb
 1300 0242 44       		.byte	0x44
 1301 0243 47020000 		.4byte	0x247
 1302 0247 09       		.uleb128 0x9
 1303 0248 04       		.byte	0x4
 1304 0249 38010000 		.4byte	0x138
 1305 024d 04       		.uleb128 0x4
 1306 024e AA000000 		.4byte	.LASF48
 1307 0252 0B       		.byte	0xb
 1308 0253 49       		.byte	0x49
 1309 0254 58020000 		.4byte	0x258
 1310 0258 05       		.uleb128 0x5
 1311 0259 00000000 		.4byte	.LASF50
 1312 025d 04       		.byte	0x4
 1313 025e 03       		.byte	0x3
 1314 025f B0       		.byte	0xb0
 1315 0260 71020000 		.4byte	0x271
 1316 0264 06       		.uleb128 0x6
 1317 0265 42060000 		.4byte	.LASF29
 1318 0269 03       		.byte	0x3
 1319 026a B1       		.byte	0xb1
 1320 026b 47020000 		.4byte	0x247
 1321 026f 00       		.byte	0
 1322 0270 00       		.byte	0
 1323 0271 04       		.uleb128 0x4
 1324 0272 10000000 		.4byte	.LASF51
 1325 0276 0B       		.byte	0xb
 1326 0277 50       		.byte	0x50
 1327 0278 81020000 		.4byte	0x281
 1328 027c 0A       		.uleb128 0xa
 1329 027d 71020000 		.4byte	0x271
 1330 0281 05       		.uleb128 0x5
 1331 0282 29010000 		.4byte	.LASF52
 1332 0286 08       		.byte	0x8
 1333 0287 03       		.byte	0x3
 1334 0288 B7       		.byte	0xb7
 1335 0289 A6020000 		.4byte	0x2a6
 1336 028d 06       		.uleb128 0x6
 1337 028e 42060000 		.4byte	.LASF29
 1338 0292 03       		.byte	0x3
 1339 0293 B8       		.byte	0xb8
 1340 0294 47020000 		.4byte	0x247
 1341 0298 00       		.byte	0
 1342 0299 06       		.uleb128 0x6
 1343 029a 9A060000 		.4byte	.LASF30
 1344 029e 03       		.byte	0x3
 1345 029f B9       		.byte	0xb9
 1346 02a0 47020000 		.4byte	0x247
ARM GAS  /tmp/ccSfq7o4.s 			page 25


 1347 02a4 04       		.byte	0x4
 1348 02a5 00       		.byte	0
 1349 02a6 04       		.uleb128 0x4
 1350 02a7 D1060000 		.4byte	.LASF53
 1351 02ab 0B       		.byte	0xb
 1352 02ac 57       		.byte	0x57
 1353 02ad B1020000 		.4byte	0x2b1
 1354 02b1 0B       		.uleb128 0xb
 1355 02b2 F0000000 		.4byte	.LASF54
 1356 02b6 1C       		.byte	0x1c
 1357 02b7 03       		.byte	0x3
 1358 02b8 9001     		.2byte	0x190
 1359 02ba 0D030000 		.4byte	0x30d
 1360 02be 08       		.uleb128 0x8
 1361 02bf 0E050000 		.4byte	.LASF55
 1362 02c3 03       		.byte	0x3
 1363 02c4 9101     		.2byte	0x191
 1364 02c6 71020000 		.4byte	0x271
 1365 02ca 00       		.byte	0
 1366 02cb 08       		.uleb128 0x8
 1367 02cc 96010000 		.4byte	.LASF56
 1368 02d0 03       		.byte	0x3
 1369 02d1 9201     		.2byte	0x192
 1370 02d3 01010000 		.4byte	0x101
 1371 02d7 08       		.byte	0x8
 1372 02d8 08       		.uleb128 0x8
 1373 02d9 C4070000 		.4byte	.LASF57
 1374 02dd 03       		.byte	0x3
 1375 02de 9401     		.2byte	0x194
 1376 02e0 A5040000 		.4byte	0x4a5
 1377 02e4 0C       		.byte	0xc
 1378 02e5 08       		.uleb128 0x8
 1379 02e6 16050000 		.4byte	.LASF58
 1380 02ea 03       		.byte	0x3
 1381 02eb 9701     		.2byte	0x197
 1382 02ed 47020000 		.4byte	0x247
 1383 02f1 10       		.byte	0x10
 1384 02f2 08       		.uleb128 0x8
 1385 02f3 7E050000 		.4byte	.LASF59
 1386 02f7 03       		.byte	0x3
 1387 02f8 9801     		.2byte	0x198
 1388 02fa 47020000 		.4byte	0x247
 1389 02fe 14       		.byte	0x14
 1390 02ff 08       		.uleb128 0x8
 1391 0300 F9050000 		.4byte	.LASF60
 1392 0304 03       		.byte	0x3
 1393 0305 9B01     		.2byte	0x19b
 1394 0307 47020000 		.4byte	0x247
 1395 030b 18       		.byte	0x18
 1396 030c 00       		.byte	0
 1397 030d 04       		.uleb128 0x4
 1398 030e 45010000 		.4byte	.LASF61
 1399 0312 0B       		.byte	0xb
 1400 0313 5C       		.byte	0x5c
 1401 0314 18030000 		.4byte	0x318
 1402 0318 09       		.uleb128 0x9
 1403 0319 04       		.byte	0x4
ARM GAS  /tmp/ccSfq7o4.s 			page 26


 1404 031a 1E030000 		.4byte	0x31e
 1405 031e 0C       		.uleb128 0xc
 1406 031f 29030000 		.4byte	0x329
 1407 0323 0D       		.uleb128 0xd
 1408 0324 29030000 		.4byte	0x329
 1409 0328 00       		.byte	0
 1410 0329 0E       		.uleb128 0xe
 1411 032a 04       		.byte	0x4
 1412 032b 04       		.uleb128 0x4
 1413 032c 34050000 		.4byte	.LASF62
 1414 0330 0B       		.byte	0xb
 1415 0331 61       		.byte	0x61
 1416 0332 36030000 		.4byte	0x336
 1417 0336 0B       		.uleb128 0xb
 1418 0337 CC010000 		.4byte	.LASF63
 1419 033b 14       		.byte	0x14
 1420 033c 03       		.byte	0x3
 1421 033d 6B01     		.2byte	0x16b
 1422 033f 85030000 		.4byte	0x385
 1423 0343 08       		.uleb128 0x8
 1424 0344 65070000 		.4byte	.LASF64
 1425 0348 03       		.byte	0x3
 1426 0349 6C01     		.2byte	0x16c
 1427 034b AB060000 		.4byte	0x6ab
 1428 034f 00       		.byte	0
 1429 0350 08       		.uleb128 0x8
 1430 0351 0E080000 		.4byte	.LASF65
 1431 0355 03       		.byte	0x3
 1432 0356 6D01     		.2byte	0x16d
 1433 0358 AB060000 		.4byte	0x6ab
 1434 035c 04       		.byte	0x4
 1435 035d 08       		.uleb128 0x8
 1436 035e F4030000 		.4byte	.LASF66
 1437 0362 03       		.byte	0x3
 1438 0363 6E01     		.2byte	0x16e
 1439 0365 2D010000 		.4byte	0x12d
 1440 0369 08       		.byte	0x8
 1441 036a 08       		.uleb128 0x8
 1442 036b FA070000 		.4byte	.LASF67
 1443 036f 03       		.byte	0x3
 1444 0370 6F01     		.2byte	0x16f
 1445 0372 0D030000 		.4byte	0x30d
 1446 0376 0C       		.byte	0xc
 1447 0377 08       		.uleb128 0x8
 1448 0378 9D010000 		.4byte	.LASF68
 1449 037c 03       		.byte	0x3
 1450 037d 7101     		.2byte	0x171
 1451 037f 29030000 		.4byte	0x329
 1452 0383 10       		.byte	0x10
 1453 0384 00       		.byte	0
 1454 0385 04       		.uleb128 0x4
 1455 0386 35070000 		.4byte	.LASF69
 1456 038a 0B       		.byte	0xb
 1457 038b 66       		.byte	0x66
 1458 038c 90030000 		.4byte	0x390
 1459 0390 0B       		.uleb128 0xb
 1460 0391 64020000 		.4byte	.LASF70
ARM GAS  /tmp/ccSfq7o4.s 			page 27


 1461 0395 0C       		.byte	0xc
 1462 0396 03       		.byte	0x3
 1463 0397 7B01     		.2byte	0x17b
 1464 0399 D2030000 		.4byte	0x3d2
 1465 039d 08       		.uleb128 0x8
 1466 039e 65070000 		.4byte	.LASF64
 1467 03a2 03       		.byte	0x3
 1468 03a3 7C01     		.2byte	0x17c
 1469 03a5 AB060000 		.4byte	0x6ab
 1470 03a9 00       		.byte	0
 1471 03aa 08       		.uleb128 0x8
 1472 03ab 0E080000 		.4byte	.LASF65
 1473 03af 03       		.byte	0x3
 1474 03b0 7E01     		.2byte	0x17e
 1475 03b2 AB060000 		.4byte	0x6ab
 1476 03b6 04       		.byte	0x4
 1477 03b7 08       		.uleb128 0x8
 1478 03b8 F4030000 		.4byte	.LASF66
 1479 03bc 03       		.byte	0x3
 1480 03bd 8001     		.2byte	0x180
 1481 03bf 2D010000 		.4byte	0x12d
 1482 03c3 08       		.byte	0x8
 1483 03c4 08       		.uleb128 0x8
 1484 03c5 68040000 		.4byte	.LASF71
 1485 03c9 03       		.byte	0x3
 1486 03ca 8801     		.2byte	0x188
 1487 03cc 2D010000 		.4byte	0x12d
 1488 03d0 0A       		.byte	0xa
 1489 03d1 00       		.byte	0
 1490 03d2 04       		.uleb128 0x4
 1491 03d3 F1040000 		.4byte	.LASF72
 1492 03d7 0B       		.byte	0xb
 1493 03d8 6B       		.byte	0x6b
 1494 03d9 DD030000 		.4byte	0x3dd
 1495 03dd 0F       		.uleb128 0xf
 1496 03de 54010000 		.4byte	.LASF73
 1497 03e2 1404     		.2byte	0x414
 1498 03e4 03       		.byte	0x3
 1499 03e5 A201     		.2byte	0x1a2
 1500 03e7 20040000 		.4byte	0x420
 1501 03eb 08       		.uleb128 0x8
 1502 03ec 86050000 		.4byte	.LASF74
 1503 03f0 03       		.byte	0x3
 1504 03f1 AA01     		.2byte	0x1aa
 1505 03f3 94060000 		.4byte	0x694
 1506 03f7 00       		.byte	0
 1507 03f8 08       		.uleb128 0x8
 1508 03f9 46020000 		.4byte	.LASF75
 1509 03fd 03       		.byte	0x3
 1510 03fe AF01     		.2byte	0x1af
 1511 0400 22010000 		.4byte	0x122
 1512 0404 04       		.byte	0x4
 1513 0405 08       		.uleb128 0x8
 1514 0406 D0050000 		.4byte	.LASF76
 1515 040a 03       		.byte	0x3
 1516 040b B301     		.2byte	0x1b3
 1517 040d 22010000 		.4byte	0x122
ARM GAS  /tmp/ccSfq7o4.s 			page 28


 1518 0411 08       		.byte	0x8
 1519 0412 08       		.uleb128 0x8
 1520 0413 E6060000 		.4byte	.LASF77
 1521 0417 03       		.byte	0x3
 1522 0418 B901     		.2byte	0x1b9
 1523 041a BE050000 		.4byte	0x5be
 1524 041e 0C       		.byte	0xc
 1525 041f 00       		.byte	0
 1526 0420 04       		.uleb128 0x4
 1527 0421 6D070000 		.4byte	.LASF78
 1528 0425 0B       		.byte	0xb
 1529 0426 70       		.byte	0x70
 1530 0427 2B040000 		.4byte	0x42b
 1531 042b 0F       		.uleb128 0xf
 1532 042c 38060000 		.4byte	.LASF79
 1533 0430 6805     		.2byte	0x568
 1534 0432 03       		.byte	0x3
 1535 0433 C201     		.2byte	0x1c2
 1536 0435 7D040000 		.4byte	0x47d
 1537 0439 08       		.uleb128 0x8
 1538 043a 58060000 		.4byte	.LASF80
 1539 043e 03       		.byte	0x3
 1540 043f C601     		.2byte	0x1c6
 1541 0441 A6020000 		.4byte	0x2a6
 1542 0445 00       		.byte	0
 1543 0446 08       		.uleb128 0x8
 1544 0447 E9000000 		.4byte	.LASF81
 1545 044b 03       		.byte	0x3
 1546 044c CA01     		.2byte	0x1ca
 1547 044e 85030000 		.4byte	0x385
 1548 0452 1C       		.byte	0x1c
 1549 0453 07       		.uleb128 0x7
 1550 0454 64626700 		.ascii	"dbg\000"
 1551 0458 03       		.byte	0x3
 1552 0459 CE01     		.2byte	0x1ce
 1553 045b D2030000 		.4byte	0x3d2
 1554 045f 28       		.byte	0x28
 1555 0460 10       		.uleb128 0x10
 1556 0461 A6050000 		.4byte	.LASF82
 1557 0465 03       		.byte	0x3
 1558 0466 D201     		.2byte	0x1d2
 1559 0468 38010000 		.4byte	0x138
 1560 046c 3C04     		.2byte	0x43c
 1561 046e 10       		.uleb128 0x10
 1562 046f FE000000 		.4byte	.LASF83
 1563 0473 03       		.byte	0x3
 1564 0474 E301     		.2byte	0x1e3
 1565 0476 B1060000 		.4byte	0x6b1
 1566 047a 8804     		.2byte	0x488
 1567 047c 00       		.byte	0
 1568 047d 03       		.uleb128 0x3
 1569 047e 04       		.byte	0x4
 1570 047f 07       		.byte	0x7
 1571 0480 A1060000 		.4byte	.LASF84
 1572 0484 11       		.uleb128 0x11
 1573 0485 2A000000 		.4byte	.LASF113
 1574 0489 10       		.byte	0x10
ARM GAS  /tmp/ccSfq7o4.s 			page 29


 1575 048a 4C       		.byte	0x4c
 1576 048b CA000000 		.4byte	0xca
 1577 048f 04       		.uleb128 0x4
 1578 0490 46000000 		.4byte	.LASF85
 1579 0494 0C       		.byte	0xc
 1580 0495 65       		.byte	0x65
 1581 0496 29030000 		.4byte	0x329
 1582 049a 04       		.uleb128 0x4
 1583 049b CA070000 		.4byte	.LASF86
 1584 049f 0C       		.byte	0xc
 1585 04a0 6D       		.byte	0x6d
 1586 04a1 D5000000 		.4byte	0xd5
 1587 04a5 05       		.uleb128 0x5
 1588 04a6 24050000 		.4byte	.LASF87
 1589 04aa 04       		.byte	0x4
 1590 04ab 0C       		.byte	0xc
 1591 04ac 89       		.byte	0x89
 1592 04ad BE040000 		.4byte	0x4be
 1593 04b1 12       		.uleb128 0x12
 1594 04b2 72313300 		.ascii	"r13\000"
 1595 04b6 0C       		.byte	0xc
 1596 04b7 8A       		.byte	0x8a
 1597 04b8 30050000 		.4byte	0x530
 1598 04bc 00       		.byte	0
 1599 04bd 00       		.byte	0
 1600 04be 05       		.uleb128 0x5
 1601 04bf 1F060000 		.4byte	.LASF88
 1602 04c3 24       		.byte	0x24
 1603 04c4 01       		.byte	0x1
 1604 04c5 A4       		.byte	0xa4
 1605 04c6 30050000 		.4byte	0x530
 1606 04ca 12       		.uleb128 0x12
 1607 04cb 723800   		.ascii	"r8\000"
 1608 04ce 01       		.byte	0x1
 1609 04cf A5       		.byte	0xa5
 1610 04d0 8F040000 		.4byte	0x48f
 1611 04d4 00       		.byte	0
 1612 04d5 12       		.uleb128 0x12
 1613 04d6 723900   		.ascii	"r9\000"
 1614 04d9 01       		.byte	0x1
 1615 04da A6       		.byte	0xa6
 1616 04db 8F040000 		.4byte	0x48f
 1617 04df 04       		.byte	0x4
 1618 04e0 12       		.uleb128 0x12
 1619 04e1 72313000 		.ascii	"r10\000"
 1620 04e5 01       		.byte	0x1
 1621 04e6 A7       		.byte	0xa7
 1622 04e7 8F040000 		.4byte	0x48f
 1623 04eb 08       		.byte	0x8
 1624 04ec 12       		.uleb128 0x12
 1625 04ed 72313100 		.ascii	"r11\000"
 1626 04f1 01       		.byte	0x1
 1627 04f2 A8       		.byte	0xa8
 1628 04f3 8F040000 		.4byte	0x48f
 1629 04f7 0C       		.byte	0xc
 1630 04f8 12       		.uleb128 0x12
 1631 04f9 723400   		.ascii	"r4\000"
ARM GAS  /tmp/ccSfq7o4.s 			page 30


 1632 04fc 01       		.byte	0x1
 1633 04fd A9       		.byte	0xa9
 1634 04fe 8F040000 		.4byte	0x48f
 1635 0502 10       		.byte	0x10
 1636 0503 12       		.uleb128 0x12
 1637 0504 723500   		.ascii	"r5\000"
 1638 0507 01       		.byte	0x1
 1639 0508 AA       		.byte	0xaa
 1640 0509 8F040000 		.4byte	0x48f
 1641 050d 14       		.byte	0x14
 1642 050e 12       		.uleb128 0x12
 1643 050f 723600   		.ascii	"r6\000"
 1644 0512 01       		.byte	0x1
 1645 0513 AB       		.byte	0xab
 1646 0514 8F040000 		.4byte	0x48f
 1647 0518 18       		.byte	0x18
 1648 0519 12       		.uleb128 0x12
 1649 051a 723700   		.ascii	"r7\000"
 1650 051d 01       		.byte	0x1
 1651 051e AC       		.byte	0xac
 1652 051f 8F040000 		.4byte	0x48f
 1653 0523 1C       		.byte	0x1c
 1654 0524 12       		.uleb128 0x12
 1655 0525 6C7200   		.ascii	"lr\000"
 1656 0528 01       		.byte	0x1
 1657 0529 AD       		.byte	0xad
 1658 052a 8F040000 		.4byte	0x48f
 1659 052e 20       		.byte	0x20
 1660 052f 00       		.byte	0
 1661 0530 09       		.uleb128 0x9
 1662 0531 04       		.byte	0x4
 1663 0532 BE040000 		.4byte	0x4be
 1664 0536 13       		.uleb128 0x13
 1665 0537 10       		.byte	0x10
 1666 0538 0D       		.byte	0xd
 1667 0539 51       		.byte	0x51
 1668 053a 6F050000 		.4byte	0x56f
 1669 053e 06       		.uleb128 0x6
 1670 053f 7B020000 		.4byte	.LASF89
 1671 0543 0D       		.byte	0xd
 1672 0544 55       		.byte	0x55
 1673 0545 2D010000 		.4byte	0x12d
 1674 0549 00       		.byte	0
 1675 054a 06       		.uleb128 0x6
 1676 054b 8C040000 		.4byte	.LASF90
 1677 054f 0D       		.byte	0xd
 1678 0550 59       		.byte	0x59
 1679 0551 47020000 		.4byte	0x247
 1680 0555 04       		.byte	0x4
 1681 0556 06       		.uleb128 0x6
 1682 0557 1A020000 		.4byte	.LASF91
 1683 055b 0D       		.byte	0xd
 1684 055c 5D       		.byte	0x5d
 1685 055d 29030000 		.4byte	0x329
 1686 0561 08       		.byte	0x8
 1687 0562 06       		.uleb128 0x6
 1688 0563 C3000000 		.4byte	.LASF92
ARM GAS  /tmp/ccSfq7o4.s 			page 31


 1689 0567 0D       		.byte	0xd
 1690 0568 61       		.byte	0x61
 1691 0569 A9000000 		.4byte	0xa9
 1692 056d 0C       		.byte	0xc
 1693 056e 00       		.byte	0
 1694 056f 04       		.uleb128 0x4
 1695 0570 FA060000 		.4byte	.LASF93
 1696 0574 0D       		.byte	0xd
 1697 0575 62       		.byte	0x62
 1698 0576 36050000 		.4byte	0x536
 1699 057a 14       		.uleb128 0x14
 1700 057b 0804     		.2byte	0x408
 1701 057d 0D       		.byte	0xd
 1702 057e 67       		.byte	0x67
 1703 057f A8050000 		.4byte	0x5a8
 1704 0583 06       		.uleb128 0x6
 1705 0584 E9040000 		.4byte	.LASF94
 1706 0588 0D       		.byte	0xd
 1707 0589 6B       		.byte	0x6b
 1708 058a 2C000000 		.4byte	0x2c
 1709 058e 00       		.byte	0
 1710 058f 06       		.uleb128 0x6
 1711 0590 77050000 		.4byte	.LASF95
 1712 0594 0D       		.byte	0xd
 1713 0595 6F       		.byte	0x6f
 1714 0596 A8050000 		.4byte	0x5a8
 1715 059a 04       		.byte	0x4
 1716 059b 06       		.uleb128 0x6
 1717 059c B5040000 		.4byte	.LASF96
 1718 05a0 0D       		.byte	0xd
 1719 05a1 73       		.byte	0x73
 1720 05a2 AE050000 		.4byte	0x5ae
 1721 05a6 08       		.byte	0x8
 1722 05a7 00       		.byte	0
 1723 05a8 09       		.uleb128 0x9
 1724 05a9 04       		.byte	0x4
 1725 05aa 6F050000 		.4byte	0x56f
 1726 05ae 15       		.uleb128 0x15
 1727 05af 6F050000 		.4byte	0x56f
 1728 05b3 BE050000 		.4byte	0x5be
 1729 05b7 16       		.uleb128 0x16
 1730 05b8 7D040000 		.4byte	0x47d
 1731 05bc 3F       		.byte	0x3f
 1732 05bd 00       		.byte	0
 1733 05be 04       		.uleb128 0x4
 1734 05bf 7F070000 		.4byte	.LASF97
 1735 05c3 0D       		.byte	0xd
 1736 05c4 74       		.byte	0x74
 1737 05c5 7A050000 		.4byte	0x57a
 1738 05c9 17       		.uleb128 0x17
 1739 05ca 04       		.byte	0x4
 1740 05cb 03       		.byte	0x3
 1741 05cc FA       		.byte	0xfa
 1742 05cd 26060000 		.4byte	0x626
 1743 05d1 18       		.uleb128 0x18
 1744 05d2 8C020000 		.4byte	.LASF98
 1745 05d6 03       		.byte	0x3
ARM GAS  /tmp/ccSfq7o4.s 			page 32


 1746 05d7 0101     		.2byte	0x101
 1747 05d9 0C010000 		.4byte	0x10c
 1748 05dd 18       		.uleb128 0x18
 1749 05de 16080000 		.4byte	.LASF99
 1750 05e2 03       		.byte	0x3
 1751 05e3 0801     		.2byte	0x108
 1752 05e5 0C010000 		.4byte	0x10c
 1753 05e9 18       		.uleb128 0x18
 1754 05ea D8000000 		.4byte	.LASF100
 1755 05ee 03       		.byte	0x3
 1756 05ef 0F01     		.2byte	0x10f
 1757 05f1 29030000 		.4byte	0x329
 1758 05f5 18       		.uleb128 0x18
 1759 05f6 79070000 		.4byte	.LASF101
 1760 05fa 03       		.byte	0x3
 1761 05fb 1601     		.2byte	0x116
 1762 05fd 26060000 		.4byte	0x626
 1763 0601 18       		.uleb128 0x18
 1764 0602 F3060000 		.4byte	.LASF102
 1765 0606 03       		.byte	0x3
 1766 0607 1E01     		.2byte	0x11e
 1767 0609 51060000 		.4byte	0x651
 1768 060d 18       		.uleb128 0x18
 1769 060e 3A000000 		.4byte	.LASF103
 1770 0612 03       		.byte	0x3
 1771 0613 2701     		.2byte	0x127
 1772 0615 88060000 		.4byte	0x688
 1773 0619 18       		.uleb128 0x18
 1774 061a 0D010000 		.4byte	.LASF104
 1775 061e 03       		.byte	0x3
 1776 061f 2F01     		.2byte	0x12f
 1777 0621 17010000 		.4byte	0x117
 1778 0625 00       		.byte	0
 1779 0626 09       		.uleb128 0x9
 1780 0627 04       		.byte	0x4
 1781 0628 3C020000 		.4byte	0x23c
 1782 062c 05       		.uleb128 0x5
 1783 062d B7010000 		.4byte	.LASF105
 1784 0631 0C       		.byte	0xc
 1785 0632 0E       		.byte	0xe
 1786 0633 34       		.byte	0x34
 1787 0634 51060000 		.4byte	0x651
 1788 0638 06       		.uleb128 0x6
 1789 0639 8A000000 		.4byte	.LASF106
 1790 063d 0E       		.byte	0xe
 1791 063e 35       		.byte	0x35
 1792 063f 71020000 		.4byte	0x271
 1793 0643 00       		.byte	0
 1794 0644 06       		.uleb128 0x6
 1795 0645 4E010000 		.4byte	.LASF107
 1796 0649 0E       		.byte	0xe
 1797 064a 37       		.byte	0x37
 1798 064b 22010000 		.4byte	0x122
 1799 064f 08       		.byte	0x8
 1800 0650 00       		.byte	0
 1801 0651 09       		.uleb128 0x9
 1802 0652 04       		.byte	0x4
ARM GAS  /tmp/ccSfq7o4.s 			page 33


 1803 0653 2C060000 		.4byte	0x62c
 1804 0657 05       		.uleb128 0x5
 1805 0658 92030000 		.4byte	.LASF108
 1806 065c 10       		.byte	0x10
 1807 065d 06       		.byte	0x6
 1808 065e 39       		.byte	0x39
 1809 065f 88060000 		.4byte	0x688
 1810 0663 06       		.uleb128 0x6
 1811 0664 0E060000 		.4byte	.LASF109
 1812 0668 06       		.byte	0x6
 1813 0669 3A       		.byte	0x3a
 1814 066a 71020000 		.4byte	0x271
 1815 066e 00       		.byte	0
 1816 066f 06       		.uleb128 0x6
 1817 0670 82000000 		.4byte	.LASF110
 1818 0674 06       		.byte	0x6
 1819 0675 3C       		.byte	0x3c
 1820 0676 47020000 		.4byte	0x247
 1821 067a 08       		.byte	0x8
 1822 067b 06       		.uleb128 0x6
 1823 067c 91070000 		.4byte	.LASF111
 1824 0680 06       		.byte	0x6
 1825 0681 3E       		.byte	0x3e
 1826 0682 E3070000 		.4byte	0x7e3
 1827 0686 0C       		.byte	0xc
 1828 0687 00       		.byte	0
 1829 0688 09       		.uleb128 0x9
 1830 0689 04       		.byte	0x4
 1831 068a 57060000 		.4byte	0x657
 1832 068e 09       		.uleb128 0x9
 1833 068f 04       		.byte	0x4
 1834 0690 A0060000 		.4byte	0x6a0
 1835 0694 19       		.uleb128 0x19
 1836 0695 8E060000 		.4byte	0x68e
 1837 0699 03       		.uleb128 0x3
 1838 069a 01       		.byte	0x1
 1839 069b 08       		.byte	0x8
 1840 069c 41000000 		.4byte	.LASF112
 1841 06a0 0A       		.uleb128 0xa
 1842 06a1 99060000 		.4byte	0x699
 1843 06a5 09       		.uleb128 0x9
 1844 06a6 04       		.byte	0x4
 1845 06a7 9A040000 		.4byte	0x49a
 1846 06ab 09       		.uleb128 0x9
 1847 06ac 04       		.byte	0x4
 1848 06ad 2B030000 		.4byte	0x32b
 1849 06b1 15       		.uleb128 0x15
 1850 06b2 9A040000 		.4byte	0x49a
 1851 06b6 C1060000 		.4byte	0x6c1
 1852 06ba 16       		.uleb128 0x16
 1853 06bb 7D040000 		.4byte	0x47d
 1854 06bf 1B       		.byte	0x1b
 1855 06c0 00       		.byte	0
 1856 06c1 1A       		.uleb128 0x1a
 1857 06c2 636800   		.ascii	"ch\000"
 1858 06c5 03       		.byte	0x3
 1859 06c6 0902     		.2byte	0x209
ARM GAS  /tmp/ccSfq7o4.s 			page 34


 1860 06c8 20040000 		.4byte	0x420
 1861 06cc 13       		.uleb128 0x13
 1862 06cd 16       		.byte	0x16
 1863 06ce 0F       		.byte	0xf
 1864 06cf 34       		.byte	0x34
 1865 06d0 AD070000 		.4byte	0x7ad
 1866 06d4 06       		.uleb128 0x6
 1867 06d5 8C060000 		.4byte	.LASF114
 1868 06d9 0F       		.byte	0xf
 1869 06da 35       		.byte	0x35
 1870 06db AD070000 		.4byte	0x7ad
 1871 06df 00       		.byte	0
 1872 06e0 06       		.uleb128 0x6
 1873 06e1 6F050000 		.4byte	.LASF115
 1874 06e5 0F       		.byte	0xf
 1875 06e6 36       		.byte	0x36
 1876 06e7 A9000000 		.4byte	0xa9
 1877 06eb 04       		.byte	0x4
 1878 06ec 06       		.uleb128 0x6
 1879 06ed 9E050000 		.4byte	.LASF116
 1880 06f1 0F       		.byte	0xf
 1881 06f2 37       		.byte	0x37
 1882 06f3 A9000000 		.4byte	0xa9
 1883 06f7 05       		.byte	0x5
 1884 06f8 06       		.uleb128 0x6
 1885 06f9 E4050000 		.4byte	.LASF117
 1886 06fd 0F       		.byte	0xf
 1887 06fe 38       		.byte	0x38
 1888 06ff B4000000 		.4byte	0xb4
 1889 0703 06       		.byte	0x6
 1890 0704 06       		.uleb128 0x6
 1891 0705 3A010000 		.4byte	.LASF118
 1892 0709 0F       		.byte	0xf
 1893 070a 39       		.byte	0x39
 1894 070b A9000000 		.4byte	0xa9
 1895 070f 08       		.byte	0x8
 1896 0710 06       		.uleb128 0x6
 1897 0711 7E010000 		.4byte	.LASF119
 1898 0715 0F       		.byte	0xf
 1899 0716 3A       		.byte	0x3a
 1900 0717 A9000000 		.4byte	0xa9
 1901 071b 09       		.byte	0x9
 1902 071c 06       		.uleb128 0x6
 1903 071d 93020000 		.4byte	.LASF120
 1904 0721 0F       		.byte	0xf
 1905 0722 3B       		.byte	0x3b
 1906 0723 A9000000 		.4byte	0xa9
 1907 0727 0A       		.byte	0xa
 1908 0728 06       		.uleb128 0x6
 1909 0729 6A060000 		.4byte	.LASF121
 1910 072d 0F       		.byte	0xf
 1911 072e 3C       		.byte	0x3c
 1912 072f A9000000 		.4byte	0xa9
 1913 0733 0B       		.byte	0xb
 1914 0734 06       		.uleb128 0x6
 1915 0735 C0030000 		.4byte	.LASF122
 1916 0739 0F       		.byte	0xf
ARM GAS  /tmp/ccSfq7o4.s 			page 35


 1917 073a 3D       		.byte	0x3d
 1918 073b A9000000 		.4byte	0xa9
 1919 073f 0C       		.byte	0xc
 1920 0740 06       		.uleb128 0x6
 1921 0741 A4070000 		.4byte	.LASF123
 1922 0745 0F       		.byte	0xf
 1923 0746 3E       		.byte	0x3e
 1924 0747 A9000000 		.4byte	0xa9
 1925 074b 0D       		.byte	0xd
 1926 074c 06       		.uleb128 0x6
 1927 074d 75000000 		.4byte	.LASF124
 1928 0751 0F       		.byte	0xf
 1929 0752 3F       		.byte	0x3f
 1930 0753 A9000000 		.4byte	0xa9
 1931 0757 0E       		.byte	0xe
 1932 0758 06       		.uleb128 0x6
 1933 0759 CC000000 		.4byte	.LASF125
 1934 075d 0F       		.byte	0xf
 1935 075e 40       		.byte	0x40
 1936 075f A9000000 		.4byte	0xa9
 1937 0763 0F       		.byte	0xf
 1938 0764 06       		.uleb128 0x6
 1939 0765 CB030000 		.4byte	.LASF126
 1940 0769 0F       		.byte	0xf
 1941 076a 41       		.byte	0x41
 1942 076b A9000000 		.4byte	0xa9
 1943 076f 10       		.byte	0x10
 1944 0770 06       		.uleb128 0x6
 1945 0771 C4060000 		.4byte	.LASF127
 1946 0775 0F       		.byte	0xf
 1947 0776 43       		.byte	0x43
 1948 0777 A9000000 		.4byte	0xa9
 1949 077b 11       		.byte	0x11
 1950 077c 06       		.uleb128 0x6
 1951 077d 14010000 		.4byte	.LASF128
 1952 0781 0F       		.byte	0xf
 1953 0782 44       		.byte	0x44
 1954 0783 A9000000 		.4byte	0xa9
 1955 0787 12       		.byte	0x12
 1956 0788 06       		.uleb128 0x6
 1957 0789 63050000 		.4byte	.LASF129
 1958 078d 0F       		.byte	0xf
 1959 078e 45       		.byte	0x45
 1960 078f A9000000 		.4byte	0xa9
 1961 0793 13       		.byte	0x13
 1962 0794 06       		.uleb128 0x6
 1963 0795 AF020000 		.4byte	.LASF130
 1964 0799 0F       		.byte	0xf
 1965 079a 46       		.byte	0x46
 1966 079b A9000000 		.4byte	0xa9
 1967 079f 14       		.byte	0x14
 1968 07a0 06       		.uleb128 0x6
 1969 07a1 5E060000 		.4byte	.LASF131
 1970 07a5 0F       		.byte	0xf
 1971 07a6 48       		.byte	0x48
 1972 07a7 A9000000 		.4byte	0xa9
 1973 07ab 15       		.byte	0x15
ARM GAS  /tmp/ccSfq7o4.s 			page 36


 1974 07ac 00       		.byte	0
 1975 07ad 15       		.uleb128 0x15
 1976 07ae 99060000 		.4byte	0x699
 1977 07b2 BD070000 		.4byte	0x7bd
 1978 07b6 16       		.uleb128 0x16
 1979 07b7 7D040000 		.4byte	0x47d
 1980 07bb 03       		.byte	0x3
 1981 07bc 00       		.byte	0
 1982 07bd 04       		.uleb128 0x4
 1983 07be C6050000 		.4byte	.LASF132
 1984 07c2 0F       		.byte	0xf
 1985 07c3 49       		.byte	0x49
 1986 07c4 CC060000 		.4byte	0x6cc
 1987 07c8 0A       		.uleb128 0xa
 1988 07c9 BD070000 		.4byte	0x7bd
 1989 07cd 11       		.uleb128 0x11
 1990 07ce F1070000 		.4byte	.LASF133
 1991 07d2 0F       		.byte	0xf
 1992 07d3 6E       		.byte	0x6e
 1993 07d4 C8070000 		.4byte	0x7c8
 1994 07d8 04       		.uleb128 0x4
 1995 07d9 09070000 		.4byte	.LASF134
 1996 07dd 06       		.byte	0x6
 1997 07de 34       		.byte	0x34
 1998 07df 57060000 		.4byte	0x657
 1999 07e3 09       		.uleb128 0x9
 2000 07e4 04       		.byte	0x4
 2001 07e5 D8070000 		.4byte	0x7d8
 2002 07e9 05       		.uleb128 0x5
 2003 07ea A4010000 		.4byte	.LASF135
 2004 07ee 08       		.byte	0x8
 2005 07ef 11       		.byte	0x11
 2006 07f0 3B       		.byte	0x3b
 2007 07f1 02080000 		.4byte	0x802
 2008 07f5 06       		.uleb128 0x6
 2009 07f6 21010000 		.4byte	.LASF136
 2010 07fa 11       		.byte	0x11
 2011 07fb 3C       		.byte	0x3c
 2012 07fc 71020000 		.4byte	0x271
 2013 0800 00       		.byte	0
 2014 0801 00       		.byte	0
 2015 0802 04       		.uleb128 0x4
 2016 0803 60000000 		.4byte	.LASF137
 2017 0807 11       		.byte	0x11
 2018 0808 3E       		.byte	0x3e
 2019 0809 E9070000 		.4byte	0x7e9
 2020 080d 03       		.uleb128 0x3
 2021 080e 01       		.byte	0x1
 2022 080f 02       		.byte	0x2
 2023 0810 BE020000 		.4byte	.LASF138
 2024 0814 1B       		.uleb128 0x1b
 2025 0815 D5070000 		.4byte	.LASF140
 2026 0819 07       		.byte	0x7
 2027 081a 2801     		.2byte	0x128
 2028 081c 0C010000 		.4byte	0x10c
 2029 0820 00000000 		.4byte	.LFB160
 2030 0824 94000000 		.4byte	.LFE160-.LFB160
ARM GAS  /tmp/ccSfq7o4.s 			page 37


 2031 0828 01       		.uleb128 0x1
 2032 0829 9C       		.byte	0x9c
 2033 082a 78080000 		.4byte	0x878
 2034 082e 1C       		.uleb128 0x1c
 2035 082f 637000   		.ascii	"cp\000"
 2036 0832 07       		.byte	0x7
 2037 0833 2801     		.2byte	0x128
 2038 0835 78080000 		.4byte	0x878
 2039 0839 02       		.uleb128 0x2
 2040 083a 91       		.byte	0x91
 2041 083b 6C       		.sleb128 -20
 2042 083c 1D       		.uleb128 0x1d
 2043 083d 41020000 		.4byte	.LASF139
 2044 0841 07       		.byte	0x7
 2045 0842 2801     		.2byte	0x128
 2046 0844 2D010000 		.4byte	0x12d
 2047 0848 02       		.uleb128 0x2
 2048 0849 91       		.byte	0x91
 2049 084a 6A       		.sleb128 -22
 2050 084b 1E       		.uleb128 0x1e
 2051 084c 6D7000   		.ascii	"mp\000"
 2052 084f 07       		.byte	0x7
 2053 0850 2901     		.2byte	0x129
 2054 0852 E3070000 		.4byte	0x7e3
 2055 0856 02       		.uleb128 0x2
 2056 0857 91       		.byte	0x91
 2057 0858 74       		.sleb128 -12
 2058 0859 1E       		.uleb128 0x1e
 2059 085a 6D736700 		.ascii	"msg\000"
 2060 085e 07       		.byte	0x7
 2061 085f 2A01     		.2byte	0x12a
 2062 0861 0C010000 		.4byte	0x10c
 2063 0865 02       		.uleb128 0x2
 2064 0866 91       		.byte	0x91
 2065 0867 70       		.sleb128 -16
 2066 0868 1F       		.uleb128 0x1f
 2067 0869 E8070000 		.4byte	.LASF143
 2068 086d 8E080000 		.4byte	0x88e
 2069 0871 05       		.uleb128 0x5
 2070 0872 03       		.byte	0x3
 2071 0873 00000000 		.4byte	__func__.5738
 2072 0877 00       		.byte	0
 2073 0878 09       		.uleb128 0x9
 2074 0879 04       		.byte	0x4
 2075 087a 02080000 		.4byte	0x802
 2076 087e 15       		.uleb128 0x15
 2077 087f A0060000 		.4byte	0x6a0
 2078 0883 8E080000 		.4byte	0x88e
 2079 0887 16       		.uleb128 0x16
 2080 0888 7D040000 		.4byte	0x47d
 2081 088c 12       		.byte	0x12
 2082 088d 00       		.byte	0
 2083 088e 0A       		.uleb128 0xa
 2084 088f 7E080000 		.4byte	0x87e
 2085 0893 1B       		.uleb128 0x1b
 2086 0894 43040000 		.4byte	.LASF141
 2087 0898 07       		.byte	0x7
ARM GAS  /tmp/ccSfq7o4.s 			page 38


 2088 0899 0201     		.2byte	0x102
 2089 089b 0C010000 		.4byte	0x10c
 2090 089f 00000000 		.4byte	.LFB159
 2091 08a3 32000000 		.4byte	.LFE159-.LFB159
 2092 08a7 01       		.uleb128 0x1
 2093 08a8 9C       		.byte	0x9c
 2094 08a9 DA080000 		.4byte	0x8da
 2095 08ad 1C       		.uleb128 0x1c
 2096 08ae 637000   		.ascii	"cp\000"
 2097 08b1 07       		.byte	0x7
 2098 08b2 0201     		.2byte	0x102
 2099 08b4 78080000 		.4byte	0x878
 2100 08b8 02       		.uleb128 0x2
 2101 08b9 91       		.byte	0x91
 2102 08ba 6C       		.sleb128 -20
 2103 08bb 1D       		.uleb128 0x1d
 2104 08bc 41020000 		.4byte	.LASF139
 2105 08c0 07       		.byte	0x7
 2106 08c1 0201     		.2byte	0x102
 2107 08c3 2D010000 		.4byte	0x12d
 2108 08c7 02       		.uleb128 0x2
 2109 08c8 91       		.byte	0x91
 2110 08c9 6A       		.sleb128 -22
 2111 08ca 1E       		.uleb128 0x1e
 2112 08cb 6D736700 		.ascii	"msg\000"
 2113 08cf 07       		.byte	0x7
 2114 08d0 0301     		.2byte	0x103
 2115 08d2 0C010000 		.4byte	0x10c
 2116 08d6 02       		.uleb128 0x2
 2117 08d7 91       		.byte	0x91
 2118 08d8 74       		.sleb128 -12
 2119 08d9 00       		.byte	0
 2120 08da 20       		.uleb128 0x20
 2121 08db 80060000 		.4byte	.LASF142
 2122 08df 07       		.byte	0x7
 2123 08e0 CD       		.byte	0xcd
 2124 08e1 0C010000 		.4byte	0x10c
 2125 08e5 00000000 		.4byte	.LFB158
 2126 08e9 74000000 		.4byte	.LFE158-.LFB158
 2127 08ed 01       		.uleb128 0x1
 2128 08ee 9C       		.byte	0x9c
 2129 08ef 39090000 		.4byte	0x939
 2130 08f3 21       		.uleb128 0x21
 2131 08f4 637000   		.ascii	"cp\000"
 2132 08f7 07       		.byte	0x7
 2133 08f8 CD       		.byte	0xcd
 2134 08f9 78080000 		.4byte	0x878
 2135 08fd 02       		.uleb128 0x2
 2136 08fe 91       		.byte	0x91
 2137 08ff 64       		.sleb128 -28
 2138 0900 22       		.uleb128 0x22
 2139 0901 63747000 		.ascii	"ctp\000"
 2140 0905 07       		.byte	0x7
 2141 0906 CE       		.byte	0xce
 2142 0907 47020000 		.4byte	0x247
 2143 090b 02       		.uleb128 0x2
 2144 090c 91       		.byte	0x91
ARM GAS  /tmp/ccSfq7o4.s 			page 39


 2145 090d 74       		.sleb128 -12
 2146 090e 22       		.uleb128 0x22
 2147 090f 6D7000   		.ascii	"mp\000"
 2148 0912 07       		.byte	0x7
 2149 0913 CF       		.byte	0xcf
 2150 0914 E3070000 		.4byte	0x7e3
 2151 0918 02       		.uleb128 0x2
 2152 0919 91       		.byte	0x91
 2153 091a 70       		.sleb128 -16
 2154 091b 22       		.uleb128 0x22
 2155 091c 6D736700 		.ascii	"msg\000"
 2156 0920 07       		.byte	0x7
 2157 0921 D0       		.byte	0xd0
 2158 0922 0C010000 		.4byte	0x10c
 2159 0926 02       		.uleb128 0x2
 2160 0927 91       		.byte	0x91
 2161 0928 6C       		.sleb128 -20
 2162 0929 1F       		.uleb128 0x1f
 2163 092a E8070000 		.4byte	.LASF143
 2164 092e 49090000 		.4byte	0x949
 2165 0932 05       		.uleb128 0x5
 2166 0933 03       		.byte	0x3
 2167 0934 00000000 		.4byte	__func__.5726
 2168 0938 00       		.byte	0
 2169 0939 15       		.uleb128 0x15
 2170 093a A0060000 		.4byte	0x6a0
 2171 093e 49090000 		.4byte	0x949
 2172 0942 16       		.uleb128 0x16
 2173 0943 7D040000 		.4byte	0x47d
 2174 0947 0B       		.byte	0xb
 2175 0948 00       		.byte	0
 2176 0949 0A       		.uleb128 0xa
 2177 094a 39090000 		.4byte	0x939
 2178 094e 20       		.uleb128 0x20
 2179 094f DD010000 		.4byte	.LASF144
 2180 0953 07       		.byte	0x7
 2181 0954 B3       		.byte	0xb3
 2182 0955 0C010000 		.4byte	0x10c
 2183 0959 00000000 		.4byte	.LFB157
 2184 095d 22000000 		.4byte	.LFE157-.LFB157
 2185 0961 01       		.uleb128 0x1
 2186 0962 9C       		.byte	0x9c
 2187 0963 83090000 		.4byte	0x983
 2188 0967 21       		.uleb128 0x21
 2189 0968 637000   		.ascii	"cp\000"
 2190 096b 07       		.byte	0x7
 2191 096c B3       		.byte	0xb3
 2192 096d 78080000 		.4byte	0x878
 2193 0971 02       		.uleb128 0x2
 2194 0972 91       		.byte	0x91
 2195 0973 6C       		.sleb128 -20
 2196 0974 22       		.uleb128 0x22
 2197 0975 6D736700 		.ascii	"msg\000"
 2198 0979 07       		.byte	0x7
 2199 097a B4       		.byte	0xb4
 2200 097b 0C010000 		.4byte	0x10c
 2201 097f 02       		.uleb128 0x2
ARM GAS  /tmp/ccSfq7o4.s 			page 40


 2202 0980 91       		.byte	0x91
 2203 0981 74       		.sleb128 -12
 2204 0982 00       		.byte	0
 2205 0983 23       		.uleb128 0x23
 2206 0984 FD030000 		.4byte	.LASF145
 2207 0988 07       		.byte	0x7
 2208 0989 95       		.byte	0x95
 2209 098a 00000000 		.4byte	.LFB156
 2210 098e 48000000 		.4byte	.LFE156-.LFB156
 2211 0992 01       		.uleb128 0x1
 2212 0993 9C       		.byte	0x9c
 2213 0994 B5090000 		.4byte	0x9b5
 2214 0998 21       		.uleb128 0x21
 2215 0999 637000   		.ascii	"cp\000"
 2216 099c 07       		.byte	0x7
 2217 099d 95       		.byte	0x95
 2218 099e 78080000 		.4byte	0x878
 2219 09a2 02       		.uleb128 0x2
 2220 09a3 91       		.byte	0x91
 2221 09a4 74       		.sleb128 -12
 2222 09a5 1F       		.uleb128 0x1f
 2223 09a6 E8070000 		.4byte	.LASF143
 2224 09aa C5090000 		.4byte	0x9c5
 2225 09ae 05       		.uleb128 0x5
 2226 09af 03       		.byte	0x3
 2227 09b0 00000000 		.4byte	__func__.5712
 2228 09b4 00       		.byte	0
 2229 09b5 15       		.uleb128 0x15
 2230 09b6 A0060000 		.4byte	0x6a0
 2231 09ba C5090000 		.4byte	0x9c5
 2232 09be 16       		.uleb128 0x16
 2233 09bf 7D040000 		.4byte	0x47d
 2234 09c3 10       		.byte	0x10
 2235 09c4 00       		.byte	0
 2236 09c5 0A       		.uleb128 0xa
 2237 09c6 B5090000 		.4byte	0x9b5
 2238 09ca 23       		.uleb128 0x23
 2239 09cb A6030000 		.4byte	.LASF146
 2240 09cf 07       		.byte	0x7
 2241 09d0 82       		.byte	0x82
 2242 09d1 00000000 		.4byte	.LFB155
 2243 09d5 20000000 		.4byte	.LFE155-.LFB155
 2244 09d9 01       		.uleb128 0x1
 2245 09da 9C       		.byte	0x9c
 2246 09db ED090000 		.4byte	0x9ed
 2247 09df 21       		.uleb128 0x21
 2248 09e0 637000   		.ascii	"cp\000"
 2249 09e3 07       		.byte	0x7
 2250 09e4 82       		.byte	0x82
 2251 09e5 78080000 		.4byte	0x878
 2252 09e9 02       		.uleb128 0x2
 2253 09ea 91       		.byte	0x91
 2254 09eb 74       		.sleb128 -12
 2255 09ec 00       		.byte	0
 2256 09ed 23       		.uleb128 0x23
 2257 09ee BF040000 		.4byte	.LASF147
 2258 09f2 07       		.byte	0x7
ARM GAS  /tmp/ccSfq7o4.s 			page 41


 2259 09f3 6F       		.byte	0x6f
 2260 09f4 00000000 		.4byte	.LFB154
 2261 09f8 48000000 		.4byte	.LFE154-.LFB154
 2262 09fc 01       		.uleb128 0x1
 2263 09fd 9C       		.byte	0x9c
 2264 09fe 360A0000 		.4byte	0xa36
 2265 0a02 21       		.uleb128 0x21
 2266 0a03 637000   		.ascii	"cp\000"
 2267 0a06 07       		.byte	0x7
 2268 0a07 6F       		.byte	0x6f
 2269 0a08 78080000 		.4byte	0x878
 2270 0a0c 02       		.uleb128 0x2
 2271 0a0d 91       		.byte	0x91
 2272 0a0e 6C       		.sleb128 -20
 2273 0a0f 1F       		.uleb128 0x1f
 2274 0a10 E8070000 		.4byte	.LASF143
 2275 0a14 460A0000 		.4byte	0xa46
 2276 0a18 05       		.uleb128 0x5
 2277 0a19 03       		.byte	0x3
 2278 0a1a 00000000 		.4byte	__func__.5704
 2279 0a1e 24       		.uleb128 0x24
 2280 0a1f 24000000 		.4byte	.LBB10
 2281 0a23 1A000000 		.4byte	.LBE10-.LBB10
 2282 0a27 22       		.uleb128 0x22
 2283 0a28 747000   		.ascii	"tp\000"
 2284 0a2b 07       		.byte	0x7
 2285 0a2c 75       		.byte	0x75
 2286 0a2d 47020000 		.4byte	0x247
 2287 0a31 02       		.uleb128 0x2
 2288 0a32 91       		.byte	0x91
 2289 0a33 74       		.sleb128 -12
 2290 0a34 00       		.byte	0
 2291 0a35 00       		.byte	0
 2292 0a36 15       		.uleb128 0x15
 2293 0a37 A0060000 		.4byte	0x6a0
 2294 0a3b 460A0000 		.4byte	0xa46
 2295 0a3f 16       		.uleb128 0x16
 2296 0a40 7D040000 		.4byte	0x47d
 2297 0a44 0D       		.byte	0xd
 2298 0a45 00       		.byte	0
 2299 0a46 0A       		.uleb128 0xa
 2300 0a47 360A0000 		.4byte	0xa36
 2301 0a4b 23       		.uleb128 0x23
 2302 0a4c 44050000 		.4byte	.LASF148
 2303 0a50 07       		.byte	0x7
 2304 0a51 59       		.byte	0x59
 2305 0a52 00000000 		.4byte	.LFB153
 2306 0a56 44000000 		.4byte	.LFE153-.LFB153
 2307 0a5a 01       		.uleb128 0x1
 2308 0a5b 9C       		.byte	0x9c
 2309 0a5c 7D0A0000 		.4byte	0xa7d
 2310 0a60 21       		.uleb128 0x21
 2311 0a61 637000   		.ascii	"cp\000"
 2312 0a64 07       		.byte	0x7
 2313 0a65 59       		.byte	0x59
 2314 0a66 78080000 		.4byte	0x878
 2315 0a6a 02       		.uleb128 0x2
ARM GAS  /tmp/ccSfq7o4.s 			page 42


 2316 0a6b 91       		.byte	0x91
 2317 0a6c 74       		.sleb128 -12
 2318 0a6d 1F       		.uleb128 0x1f
 2319 0a6e E8070000 		.4byte	.LASF143
 2320 0a72 8D0A0000 		.4byte	0xa8d
 2321 0a76 05       		.uleb128 0x5
 2322 0a77 03       		.byte	0x3
 2323 0a78 00000000 		.4byte	__func__.5700
 2324 0a7c 00       		.byte	0
 2325 0a7d 15       		.uleb128 0x15
 2326 0a7e A0060000 		.4byte	0x6a0
 2327 0a82 8D0A0000 		.4byte	0xa8d
 2328 0a86 16       		.uleb128 0x16
 2329 0a87 7D040000 		.4byte	0x47d
 2330 0a8b 0C       		.byte	0xc
 2331 0a8c 00       		.byte	0
 2332 0a8d 0A       		.uleb128 0xa
 2333 0a8e 7D0A0000 		.4byte	0xa7d
 2334 0a92 23       		.uleb128 0x23
 2335 0a93 64010000 		.4byte	.LASF149
 2336 0a97 07       		.byte	0x7
 2337 0a98 4B       		.byte	0x4b
 2338 0a99 00000000 		.4byte	.LFB152
 2339 0a9d 28000000 		.4byte	.LFE152-.LFB152
 2340 0aa1 01       		.uleb128 0x1
 2341 0aa2 9C       		.byte	0x9c
 2342 0aa3 C40A0000 		.4byte	0xac4
 2343 0aa7 21       		.uleb128 0x21
 2344 0aa8 637000   		.ascii	"cp\000"
 2345 0aab 07       		.byte	0x7
 2346 0aac 4B       		.byte	0x4b
 2347 0aad 78080000 		.4byte	0x878
 2348 0ab1 02       		.uleb128 0x2
 2349 0ab2 91       		.byte	0x91
 2350 0ab3 74       		.sleb128 -12
 2351 0ab4 1F       		.uleb128 0x1f
 2352 0ab5 E8070000 		.4byte	.LASF143
 2353 0ab9 C5090000 		.4byte	0x9c5
 2354 0abd 05       		.uleb128 0x5
 2355 0abe 03       		.byte	0x3
 2356 0abf 00000000 		.4byte	__func__.5696
 2357 0ac3 00       		.byte	0
 2358 0ac4 25       		.uleb128 0x25
 2359 0ac5 52070000 		.4byte	.LASF150
 2360 0ac9 06       		.byte	0x6
 2361 0aca 8F       		.byte	0x8f
 2362 0acb E3070000 		.4byte	0x7e3
 2363 0acf 00000000 		.4byte	.LFB125
 2364 0ad3 0E000000 		.4byte	.LFE125-.LFB125
 2365 0ad7 01       		.uleb128 0x1
 2366 0ad8 9C       		.byte	0x9c
 2367 0ad9 26       		.uleb128 0x26
 2368 0ada 4E020000 		.4byte	.LASF151
 2369 0ade 05       		.byte	0x5
 2370 0adf AE       		.byte	0xae
 2371 0ae0 47020000 		.4byte	0x247
 2372 0ae4 00000000 		.4byte	.LFB99
ARM GAS  /tmp/ccSfq7o4.s 			page 43


 2373 0ae8 0C000000 		.4byte	.LFE99-.LFB99
 2374 0aec 01       		.uleb128 0x1
 2375 0aed 9C       		.byte	0x9c
 2376 0aee 27       		.uleb128 0x27
 2377 0aef 35020000 		.4byte	.LASF152
 2378 0af3 04       		.byte	0x4
 2379 0af4 6601     		.2byte	0x166
 2380 0af6 00000000 		.4byte	.LFB78
 2381 0afa 38000000 		.4byte	.LFE78-.LFB78
 2382 0afe 01       		.uleb128 0x1
 2383 0aff 9C       		.byte	0x9c
 2384 0b00 140B0000 		.4byte	0xb14
 2385 0b04 1F       		.uleb128 0x1f
 2386 0b05 E8070000 		.4byte	.LASF143
 2387 0b09 49090000 		.4byte	0x949
 2388 0b0d 05       		.uleb128 0x5
 2389 0b0e 03       		.byte	0x3
 2390 0b0f 00000000 		.4byte	__func__.4993
 2391 0b13 00       		.byte	0
 2392 0b14 28       		.uleb128 0x28
 2393 0b15 B6030000 		.4byte	.LASF164
 2394 0b19 04       		.byte	0x4
 2395 0b1a 5A01     		.2byte	0x15a
 2396 0b1c 00000000 		.4byte	.LFB77
 2397 0b20 0E000000 		.4byte	.LFE77-.LFB77
 2398 0b24 01       		.uleb128 0x1
 2399 0b25 9C       		.byte	0x9c
 2400 0b26 29       		.uleb128 0x29
 2401 0b27 51050000 		.4byte	.LASF154
 2402 0b2b 03       		.byte	0x3
 2403 0b2c 9F02     		.2byte	0x29f
 2404 0b2e 47020000 		.4byte	0x247
 2405 0b32 00000000 		.4byte	.LFB67
 2406 0b36 22000000 		.4byte	.LFE67-.LFB67
 2407 0b3a 01       		.uleb128 0x1
 2408 0b3b 9C       		.byte	0x9c
 2409 0b3c 5E0B0000 		.4byte	0xb5e
 2410 0b40 1C       		.uleb128 0x1c
 2411 0b41 74717000 		.ascii	"tqp\000"
 2412 0b45 03       		.byte	0x3
 2413 0b46 9F02     		.2byte	0x29f
 2414 0b48 5E0B0000 		.4byte	0xb5e
 2415 0b4c 02       		.uleb128 0x2
 2416 0b4d 91       		.byte	0x91
 2417 0b4e 74       		.sleb128 -12
 2418 0b4f 1E       		.uleb128 0x1e
 2419 0b50 747000   		.ascii	"tp\000"
 2420 0b53 03       		.byte	0x3
 2421 0b54 A002     		.2byte	0x2a0
 2422 0b56 47020000 		.4byte	0x247
 2423 0b5a 02       		.uleb128 0x2
 2424 0b5b 91       		.byte	0x91
 2425 0b5c 7C       		.sleb128 -4
 2426 0b5d 00       		.byte	0
 2427 0b5e 09       		.uleb128 0x9
 2428 0b5f 04       		.byte	0x4
 2429 0b60 71020000 		.4byte	0x271
ARM GAS  /tmp/ccSfq7o4.s 			page 44


 2430 0b64 2A       		.uleb128 0x2a
 2431 0b65 E2030000 		.4byte	.LASF153
 2432 0b69 03       		.byte	0x3
 2433 0b6a 8B02     		.2byte	0x28b
 2434 0b6c 00000000 		.4byte	.LFB65
 2435 0b70 46000000 		.4byte	.LFE65-.LFB65
 2436 0b74 01       		.uleb128 0x1
 2437 0b75 9C       		.byte	0x9c
 2438 0b76 A60B0000 		.4byte	0xba6
 2439 0b7a 1C       		.uleb128 0x1c
 2440 0b7b 747000   		.ascii	"tp\000"
 2441 0b7e 03       		.byte	0x3
 2442 0b7f 8B02     		.2byte	0x28b
 2443 0b81 47020000 		.4byte	0x247
 2444 0b85 02       		.uleb128 0x2
 2445 0b86 91       		.byte	0x91
 2446 0b87 74       		.sleb128 -12
 2447 0b88 1C       		.uleb128 0x1c
 2448 0b89 74717000 		.ascii	"tqp\000"
 2449 0b8d 03       		.byte	0x3
 2450 0b8e 8B02     		.2byte	0x28b
 2451 0b90 5E0B0000 		.4byte	0xb5e
 2452 0b94 02       		.uleb128 0x2
 2453 0b95 91       		.byte	0x91
 2454 0b96 70       		.sleb128 -16
 2455 0b97 1E       		.uleb128 0x1e
 2456 0b98 637000   		.ascii	"cp\000"
 2457 0b9b 03       		.byte	0x3
 2458 0b9c 8D02     		.2byte	0x28d
 2459 0b9e 47020000 		.4byte	0x247
 2460 0ba2 02       		.uleb128 0x2
 2461 0ba3 91       		.byte	0x91
 2462 0ba4 7C       		.sleb128 -4
 2463 0ba5 00       		.byte	0
 2464 0ba6 29       		.uleb128 0x29
 2465 0ba7 74040000 		.4byte	.LASF155
 2466 0bab 03       		.byte	0x3
 2467 0bac 7502     		.2byte	0x275
 2468 0bae 0D080000 		.4byte	0x80d
 2469 0bb2 00000000 		.4byte	.LFB62
 2470 0bb6 18000000 		.4byte	.LFE62-.LFB62
 2471 0bba 01       		.uleb128 0x1
 2472 0bbb 9C       		.byte	0x9c
 2473 0bbc D00B0000 		.4byte	0xbd0
 2474 0bc0 1C       		.uleb128 0x1c
 2475 0bc1 74717000 		.ascii	"tqp\000"
 2476 0bc5 03       		.byte	0x3
 2477 0bc6 7502     		.2byte	0x275
 2478 0bc8 D00B0000 		.4byte	0xbd0
 2479 0bcc 02       		.uleb128 0x2
 2480 0bcd 91       		.byte	0x91
 2481 0bce 7C       		.sleb128 -4
 2482 0bcf 00       		.byte	0
 2483 0bd0 09       		.uleb128 0x9
 2484 0bd1 04       		.byte	0x4
 2485 0bd2 7C020000 		.4byte	0x27c
 2486 0bd6 2A       		.uleb128 0x2a
ARM GAS  /tmp/ccSfq7o4.s 			page 45


 2487 0bd7 11070000 		.4byte	.LASF156
 2488 0bdb 03       		.byte	0x3
 2489 0bdc 5A02     		.2byte	0x25a
 2490 0bde 00000000 		.4byte	.LFB60
 2491 0be2 16000000 		.4byte	.LFE60-.LFB60
 2492 0be6 01       		.uleb128 0x1
 2493 0be7 9C       		.byte	0x9c
 2494 0be8 FC0B0000 		.4byte	0xbfc
 2495 0bec 1C       		.uleb128 0x1c
 2496 0bed 74717000 		.ascii	"tqp\000"
 2497 0bf1 03       		.byte	0x3
 2498 0bf2 5A02     		.2byte	0x25a
 2499 0bf4 5E0B0000 		.4byte	0xb5e
 2500 0bf8 02       		.uleb128 0x2
 2501 0bf9 91       		.byte	0x91
 2502 0bfa 7C       		.sleb128 -4
 2503 0bfb 00       		.byte	0
 2504 0bfc 2A       		.uleb128 0x2a
 2505 0bfd 02080000 		.4byte	.LASF157
 2506 0c01 01       		.byte	0x1
 2507 0c02 5301     		.2byte	0x153
 2508 0c04 00000000 		.4byte	.LFB39
 2509 0c08 06000000 		.4byte	.LFE39-.LFB39
 2510 0c0c 01       		.uleb128 0x1
 2511 0c0d 9C       		.byte	0x9c
 2512 0c0e 230C0000 		.4byte	0xc23
 2513 0c12 2B       		.uleb128 0x2b
 2514 0c13 530C0000 		.4byte	0xc53
 2515 0c17 00000000 		.4byte	.LBB8
 2516 0c1b 02000000 		.4byte	.LBE8-.LBB8
 2517 0c1f 01       		.byte	0x1
 2518 0c20 5501     		.2byte	0x155
 2519 0c22 00       		.byte	0
 2520 0c23 2A       		.uleb128 0x2a
 2521 0c24 DF000000 		.4byte	.LASF158
 2522 0c28 01       		.byte	0x1
 2523 0c29 4A01     		.2byte	0x14a
 2524 0c2b 00000000 		.4byte	.LFB38
 2525 0c2f 06000000 		.4byte	.LFE38-.LFB38
 2526 0c33 01       		.uleb128 0x1
 2527 0c34 9C       		.byte	0x9c
 2528 0c35 4A0C0000 		.4byte	0xc4a
 2529 0c39 2B       		.uleb128 0x2b
 2530 0c3a 4A0C0000 		.4byte	0xc4a
 2531 0c3e 00000000 		.4byte	.LBB6
 2532 0c42 02000000 		.4byte	.LBE6-.LBB6
 2533 0c46 01       		.byte	0x1
 2534 0c47 4C01     		.2byte	0x14c
 2535 0c49 00       		.byte	0
 2536 0c4a 2C       		.uleb128 0x2c
 2537 0c4b A1020000 		.4byte	.LASF159
 2538 0c4f 02       		.byte	0x2
 2539 0c50 5601     		.2byte	0x156
 2540 0c52 03       		.byte	0x3
 2541 0c53 2C       		.uleb128 0x2c
 2542 0c54 2B060000 		.4byte	.LASF160
 2543 0c58 02       		.byte	0x2
ARM GAS  /tmp/ccSfq7o4.s 			page 46


 2544 0c59 4B01     		.2byte	0x14b
 2545 0c5b 03       		.byte	0x3
 2546 0c5c 00       		.byte	0
 2547              		.section	.debug_abbrev,"",%progbits
 2548              	.Ldebug_abbrev0:
 2549 0000 01       		.uleb128 0x1
 2550 0001 11       		.uleb128 0x11
 2551 0002 01       		.byte	0x1
 2552 0003 25       		.uleb128 0x25
 2553 0004 0E       		.uleb128 0xe
 2554 0005 13       		.uleb128 0x13
 2555 0006 0B       		.uleb128 0xb
 2556 0007 03       		.uleb128 0x3
 2557 0008 0E       		.uleb128 0xe
 2558 0009 1B       		.uleb128 0x1b
 2559 000a 0E       		.uleb128 0xe
 2560 000b 55       		.uleb128 0x55
 2561 000c 17       		.uleb128 0x17
 2562 000d 11       		.uleb128 0x11
 2563 000e 01       		.uleb128 0x1
 2564 000f 10       		.uleb128 0x10
 2565 0010 17       		.uleb128 0x17
 2566 0011 00       		.byte	0
 2567 0012 00       		.byte	0
 2568 0013 02       		.uleb128 0x2
 2569 0014 24       		.uleb128 0x24
 2570 0015 00       		.byte	0
 2571 0016 0B       		.uleb128 0xb
 2572 0017 0B       		.uleb128 0xb
 2573 0018 3E       		.uleb128 0x3e
 2574 0019 0B       		.uleb128 0xb
 2575 001a 03       		.uleb128 0x3
 2576 001b 08       		.uleb128 0x8
 2577 001c 00       		.byte	0
 2578 001d 00       		.byte	0
 2579 001e 03       		.uleb128 0x3
 2580 001f 24       		.uleb128 0x24
 2581 0020 00       		.byte	0
 2582 0021 0B       		.uleb128 0xb
 2583 0022 0B       		.uleb128 0xb
 2584 0023 3E       		.uleb128 0x3e
 2585 0024 0B       		.uleb128 0xb
 2586 0025 03       		.uleb128 0x3
 2587 0026 0E       		.uleb128 0xe
 2588 0027 00       		.byte	0
 2589 0028 00       		.byte	0
 2590 0029 04       		.uleb128 0x4
 2591 002a 16       		.uleb128 0x16
 2592 002b 00       		.byte	0
 2593 002c 03       		.uleb128 0x3
 2594 002d 0E       		.uleb128 0xe
 2595 002e 3A       		.uleb128 0x3a
 2596 002f 0B       		.uleb128 0xb
 2597 0030 3B       		.uleb128 0x3b
 2598 0031 0B       		.uleb128 0xb
 2599 0032 49       		.uleb128 0x49
 2600 0033 13       		.uleb128 0x13
ARM GAS  /tmp/ccSfq7o4.s 			page 47


 2601 0034 00       		.byte	0
 2602 0035 00       		.byte	0
 2603 0036 05       		.uleb128 0x5
 2604 0037 13       		.uleb128 0x13
 2605 0038 01       		.byte	0x1
 2606 0039 03       		.uleb128 0x3
 2607 003a 0E       		.uleb128 0xe
 2608 003b 0B       		.uleb128 0xb
 2609 003c 0B       		.uleb128 0xb
 2610 003d 3A       		.uleb128 0x3a
 2611 003e 0B       		.uleb128 0xb
 2612 003f 3B       		.uleb128 0x3b
 2613 0040 0B       		.uleb128 0xb
 2614 0041 01       		.uleb128 0x1
 2615 0042 13       		.uleb128 0x13
 2616 0043 00       		.byte	0
 2617 0044 00       		.byte	0
 2618 0045 06       		.uleb128 0x6
 2619 0046 0D       		.uleb128 0xd
 2620 0047 00       		.byte	0
 2621 0048 03       		.uleb128 0x3
 2622 0049 0E       		.uleb128 0xe
 2623 004a 3A       		.uleb128 0x3a
 2624 004b 0B       		.uleb128 0xb
 2625 004c 3B       		.uleb128 0x3b
 2626 004d 0B       		.uleb128 0xb
 2627 004e 49       		.uleb128 0x49
 2628 004f 13       		.uleb128 0x13
 2629 0050 38       		.uleb128 0x38
 2630 0051 0B       		.uleb128 0xb
 2631 0052 00       		.byte	0
 2632 0053 00       		.byte	0
 2633 0054 07       		.uleb128 0x7
 2634 0055 0D       		.uleb128 0xd
 2635 0056 00       		.byte	0
 2636 0057 03       		.uleb128 0x3
 2637 0058 08       		.uleb128 0x8
 2638 0059 3A       		.uleb128 0x3a
 2639 005a 0B       		.uleb128 0xb
 2640 005b 3B       		.uleb128 0x3b
 2641 005c 05       		.uleb128 0x5
 2642 005d 49       		.uleb128 0x49
 2643 005e 13       		.uleb128 0x13
 2644 005f 38       		.uleb128 0x38
 2645 0060 0B       		.uleb128 0xb
 2646 0061 00       		.byte	0
 2647 0062 00       		.byte	0
 2648 0063 08       		.uleb128 0x8
 2649 0064 0D       		.uleb128 0xd
 2650 0065 00       		.byte	0
 2651 0066 03       		.uleb128 0x3
 2652 0067 0E       		.uleb128 0xe
 2653 0068 3A       		.uleb128 0x3a
 2654 0069 0B       		.uleb128 0xb
 2655 006a 3B       		.uleb128 0x3b
 2656 006b 05       		.uleb128 0x5
 2657 006c 49       		.uleb128 0x49
ARM GAS  /tmp/ccSfq7o4.s 			page 48


 2658 006d 13       		.uleb128 0x13
 2659 006e 38       		.uleb128 0x38
 2660 006f 0B       		.uleb128 0xb
 2661 0070 00       		.byte	0
 2662 0071 00       		.byte	0
 2663 0072 09       		.uleb128 0x9
 2664 0073 0F       		.uleb128 0xf
 2665 0074 00       		.byte	0
 2666 0075 0B       		.uleb128 0xb
 2667 0076 0B       		.uleb128 0xb
 2668 0077 49       		.uleb128 0x49
 2669 0078 13       		.uleb128 0x13
 2670 0079 00       		.byte	0
 2671 007a 00       		.byte	0
 2672 007b 0A       		.uleb128 0xa
 2673 007c 26       		.uleb128 0x26
 2674 007d 00       		.byte	0
 2675 007e 49       		.uleb128 0x49
 2676 007f 13       		.uleb128 0x13
 2677 0080 00       		.byte	0
 2678 0081 00       		.byte	0
 2679 0082 0B       		.uleb128 0xb
 2680 0083 13       		.uleb128 0x13
 2681 0084 01       		.byte	0x1
 2682 0085 03       		.uleb128 0x3
 2683 0086 0E       		.uleb128 0xe
 2684 0087 0B       		.uleb128 0xb
 2685 0088 0B       		.uleb128 0xb
 2686 0089 3A       		.uleb128 0x3a
 2687 008a 0B       		.uleb128 0xb
 2688 008b 3B       		.uleb128 0x3b
 2689 008c 05       		.uleb128 0x5
 2690 008d 01       		.uleb128 0x1
 2691 008e 13       		.uleb128 0x13
 2692 008f 00       		.byte	0
 2693 0090 00       		.byte	0
 2694 0091 0C       		.uleb128 0xc
 2695 0092 15       		.uleb128 0x15
 2696 0093 01       		.byte	0x1
 2697 0094 27       		.uleb128 0x27
 2698 0095 19       		.uleb128 0x19
 2699 0096 01       		.uleb128 0x1
 2700 0097 13       		.uleb128 0x13
 2701 0098 00       		.byte	0
 2702 0099 00       		.byte	0
 2703 009a 0D       		.uleb128 0xd
 2704 009b 05       		.uleb128 0x5
 2705 009c 00       		.byte	0
 2706 009d 49       		.uleb128 0x49
 2707 009e 13       		.uleb128 0x13
 2708 009f 00       		.byte	0
 2709 00a0 00       		.byte	0
 2710 00a1 0E       		.uleb128 0xe
 2711 00a2 0F       		.uleb128 0xf
 2712 00a3 00       		.byte	0
 2713 00a4 0B       		.uleb128 0xb
 2714 00a5 0B       		.uleb128 0xb
ARM GAS  /tmp/ccSfq7o4.s 			page 49


 2715 00a6 00       		.byte	0
 2716 00a7 00       		.byte	0
 2717 00a8 0F       		.uleb128 0xf
 2718 00a9 13       		.uleb128 0x13
 2719 00aa 01       		.byte	0x1
 2720 00ab 03       		.uleb128 0x3
 2721 00ac 0E       		.uleb128 0xe
 2722 00ad 0B       		.uleb128 0xb
 2723 00ae 05       		.uleb128 0x5
 2724 00af 3A       		.uleb128 0x3a
 2725 00b0 0B       		.uleb128 0xb
 2726 00b1 3B       		.uleb128 0x3b
 2727 00b2 05       		.uleb128 0x5
 2728 00b3 01       		.uleb128 0x1
 2729 00b4 13       		.uleb128 0x13
 2730 00b5 00       		.byte	0
 2731 00b6 00       		.byte	0
 2732 00b7 10       		.uleb128 0x10
 2733 00b8 0D       		.uleb128 0xd
 2734 00b9 00       		.byte	0
 2735 00ba 03       		.uleb128 0x3
 2736 00bb 0E       		.uleb128 0xe
 2737 00bc 3A       		.uleb128 0x3a
 2738 00bd 0B       		.uleb128 0xb
 2739 00be 3B       		.uleb128 0x3b
 2740 00bf 05       		.uleb128 0x5
 2741 00c0 49       		.uleb128 0x49
 2742 00c1 13       		.uleb128 0x13
 2743 00c2 38       		.uleb128 0x38
 2744 00c3 05       		.uleb128 0x5
 2745 00c4 00       		.byte	0
 2746 00c5 00       		.byte	0
 2747 00c6 11       		.uleb128 0x11
 2748 00c7 34       		.uleb128 0x34
 2749 00c8 00       		.byte	0
 2750 00c9 03       		.uleb128 0x3
 2751 00ca 0E       		.uleb128 0xe
 2752 00cb 3A       		.uleb128 0x3a
 2753 00cc 0B       		.uleb128 0xb
 2754 00cd 3B       		.uleb128 0x3b
 2755 00ce 0B       		.uleb128 0xb
 2756 00cf 49       		.uleb128 0x49
 2757 00d0 13       		.uleb128 0x13
 2758 00d1 3F       		.uleb128 0x3f
 2759 00d2 19       		.uleb128 0x19
 2760 00d3 3C       		.uleb128 0x3c
 2761 00d4 19       		.uleb128 0x19
 2762 00d5 00       		.byte	0
 2763 00d6 00       		.byte	0
 2764 00d7 12       		.uleb128 0x12
 2765 00d8 0D       		.uleb128 0xd
 2766 00d9 00       		.byte	0
 2767 00da 03       		.uleb128 0x3
 2768 00db 08       		.uleb128 0x8
 2769 00dc 3A       		.uleb128 0x3a
 2770 00dd 0B       		.uleb128 0xb
 2771 00de 3B       		.uleb128 0x3b
ARM GAS  /tmp/ccSfq7o4.s 			page 50


 2772 00df 0B       		.uleb128 0xb
 2773 00e0 49       		.uleb128 0x49
 2774 00e1 13       		.uleb128 0x13
 2775 00e2 38       		.uleb128 0x38
 2776 00e3 0B       		.uleb128 0xb
 2777 00e4 00       		.byte	0
 2778 00e5 00       		.byte	0
 2779 00e6 13       		.uleb128 0x13
 2780 00e7 13       		.uleb128 0x13
 2781 00e8 01       		.byte	0x1
 2782 00e9 0B       		.uleb128 0xb
 2783 00ea 0B       		.uleb128 0xb
 2784 00eb 3A       		.uleb128 0x3a
 2785 00ec 0B       		.uleb128 0xb
 2786 00ed 3B       		.uleb128 0x3b
 2787 00ee 0B       		.uleb128 0xb
 2788 00ef 01       		.uleb128 0x1
 2789 00f0 13       		.uleb128 0x13
 2790 00f1 00       		.byte	0
 2791 00f2 00       		.byte	0
 2792 00f3 14       		.uleb128 0x14
 2793 00f4 13       		.uleb128 0x13
 2794 00f5 01       		.byte	0x1
 2795 00f6 0B       		.uleb128 0xb
 2796 00f7 05       		.uleb128 0x5
 2797 00f8 3A       		.uleb128 0x3a
 2798 00f9 0B       		.uleb128 0xb
 2799 00fa 3B       		.uleb128 0x3b
 2800 00fb 0B       		.uleb128 0xb
 2801 00fc 01       		.uleb128 0x1
 2802 00fd 13       		.uleb128 0x13
 2803 00fe 00       		.byte	0
 2804 00ff 00       		.byte	0
 2805 0100 15       		.uleb128 0x15
 2806 0101 01       		.uleb128 0x1
 2807 0102 01       		.byte	0x1
 2808 0103 49       		.uleb128 0x49
 2809 0104 13       		.uleb128 0x13
 2810 0105 01       		.uleb128 0x1
 2811 0106 13       		.uleb128 0x13
 2812 0107 00       		.byte	0
 2813 0108 00       		.byte	0
 2814 0109 16       		.uleb128 0x16
 2815 010a 21       		.uleb128 0x21
 2816 010b 00       		.byte	0
 2817 010c 49       		.uleb128 0x49
 2818 010d 13       		.uleb128 0x13
 2819 010e 2F       		.uleb128 0x2f
 2820 010f 0B       		.uleb128 0xb
 2821 0110 00       		.byte	0
 2822 0111 00       		.byte	0
 2823 0112 17       		.uleb128 0x17
 2824 0113 17       		.uleb128 0x17
 2825 0114 01       		.byte	0x1
 2826 0115 0B       		.uleb128 0xb
 2827 0116 0B       		.uleb128 0xb
 2828 0117 3A       		.uleb128 0x3a
ARM GAS  /tmp/ccSfq7o4.s 			page 51


 2829 0118 0B       		.uleb128 0xb
 2830 0119 3B       		.uleb128 0x3b
 2831 011a 0B       		.uleb128 0xb
 2832 011b 01       		.uleb128 0x1
 2833 011c 13       		.uleb128 0x13
 2834 011d 00       		.byte	0
 2835 011e 00       		.byte	0
 2836 011f 18       		.uleb128 0x18
 2837 0120 0D       		.uleb128 0xd
 2838 0121 00       		.byte	0
 2839 0122 03       		.uleb128 0x3
 2840 0123 0E       		.uleb128 0xe
 2841 0124 3A       		.uleb128 0x3a
 2842 0125 0B       		.uleb128 0xb
 2843 0126 3B       		.uleb128 0x3b
 2844 0127 05       		.uleb128 0x5
 2845 0128 49       		.uleb128 0x49
 2846 0129 13       		.uleb128 0x13
 2847 012a 00       		.byte	0
 2848 012b 00       		.byte	0
 2849 012c 19       		.uleb128 0x19
 2850 012d 35       		.uleb128 0x35
 2851 012e 00       		.byte	0
 2852 012f 49       		.uleb128 0x49
 2853 0130 13       		.uleb128 0x13
 2854 0131 00       		.byte	0
 2855 0132 00       		.byte	0
 2856 0133 1A       		.uleb128 0x1a
 2857 0134 34       		.uleb128 0x34
 2858 0135 00       		.byte	0
 2859 0136 03       		.uleb128 0x3
 2860 0137 08       		.uleb128 0x8
 2861 0138 3A       		.uleb128 0x3a
 2862 0139 0B       		.uleb128 0xb
 2863 013a 3B       		.uleb128 0x3b
 2864 013b 05       		.uleb128 0x5
 2865 013c 49       		.uleb128 0x49
 2866 013d 13       		.uleb128 0x13
 2867 013e 3F       		.uleb128 0x3f
 2868 013f 19       		.uleb128 0x19
 2869 0140 3C       		.uleb128 0x3c
 2870 0141 19       		.uleb128 0x19
 2871 0142 00       		.byte	0
 2872 0143 00       		.byte	0
 2873 0144 1B       		.uleb128 0x1b
 2874 0145 2E       		.uleb128 0x2e
 2875 0146 01       		.byte	0x1
 2876 0147 3F       		.uleb128 0x3f
 2877 0148 19       		.uleb128 0x19
 2878 0149 03       		.uleb128 0x3
 2879 014a 0E       		.uleb128 0xe
 2880 014b 3A       		.uleb128 0x3a
 2881 014c 0B       		.uleb128 0xb
 2882 014d 3B       		.uleb128 0x3b
 2883 014e 05       		.uleb128 0x5
 2884 014f 27       		.uleb128 0x27
 2885 0150 19       		.uleb128 0x19
ARM GAS  /tmp/ccSfq7o4.s 			page 52


 2886 0151 49       		.uleb128 0x49
 2887 0152 13       		.uleb128 0x13
 2888 0153 11       		.uleb128 0x11
 2889 0154 01       		.uleb128 0x1
 2890 0155 12       		.uleb128 0x12
 2891 0156 06       		.uleb128 0x6
 2892 0157 40       		.uleb128 0x40
 2893 0158 18       		.uleb128 0x18
 2894 0159 9642     		.uleb128 0x2116
 2895 015b 19       		.uleb128 0x19
 2896 015c 01       		.uleb128 0x1
 2897 015d 13       		.uleb128 0x13
 2898 015e 00       		.byte	0
 2899 015f 00       		.byte	0
 2900 0160 1C       		.uleb128 0x1c
 2901 0161 05       		.uleb128 0x5
 2902 0162 00       		.byte	0
 2903 0163 03       		.uleb128 0x3
 2904 0164 08       		.uleb128 0x8
 2905 0165 3A       		.uleb128 0x3a
 2906 0166 0B       		.uleb128 0xb
 2907 0167 3B       		.uleb128 0x3b
 2908 0168 05       		.uleb128 0x5
 2909 0169 49       		.uleb128 0x49
 2910 016a 13       		.uleb128 0x13
 2911 016b 02       		.uleb128 0x2
 2912 016c 18       		.uleb128 0x18
 2913 016d 00       		.byte	0
 2914 016e 00       		.byte	0
 2915 016f 1D       		.uleb128 0x1d
 2916 0170 05       		.uleb128 0x5
 2917 0171 00       		.byte	0
 2918 0172 03       		.uleb128 0x3
 2919 0173 0E       		.uleb128 0xe
 2920 0174 3A       		.uleb128 0x3a
 2921 0175 0B       		.uleb128 0xb
 2922 0176 3B       		.uleb128 0x3b
 2923 0177 05       		.uleb128 0x5
 2924 0178 49       		.uleb128 0x49
 2925 0179 13       		.uleb128 0x13
 2926 017a 02       		.uleb128 0x2
 2927 017b 18       		.uleb128 0x18
 2928 017c 00       		.byte	0
 2929 017d 00       		.byte	0
 2930 017e 1E       		.uleb128 0x1e
 2931 017f 34       		.uleb128 0x34
 2932 0180 00       		.byte	0
 2933 0181 03       		.uleb128 0x3
 2934 0182 08       		.uleb128 0x8
 2935 0183 3A       		.uleb128 0x3a
 2936 0184 0B       		.uleb128 0xb
 2937 0185 3B       		.uleb128 0x3b
 2938 0186 05       		.uleb128 0x5
 2939 0187 49       		.uleb128 0x49
 2940 0188 13       		.uleb128 0x13
 2941 0189 02       		.uleb128 0x2
 2942 018a 18       		.uleb128 0x18
ARM GAS  /tmp/ccSfq7o4.s 			page 53


 2943 018b 00       		.byte	0
 2944 018c 00       		.byte	0
 2945 018d 1F       		.uleb128 0x1f
 2946 018e 34       		.uleb128 0x34
 2947 018f 00       		.byte	0
 2948 0190 03       		.uleb128 0x3
 2949 0191 0E       		.uleb128 0xe
 2950 0192 49       		.uleb128 0x49
 2951 0193 13       		.uleb128 0x13
 2952 0194 34       		.uleb128 0x34
 2953 0195 19       		.uleb128 0x19
 2954 0196 02       		.uleb128 0x2
 2955 0197 18       		.uleb128 0x18
 2956 0198 00       		.byte	0
 2957 0199 00       		.byte	0
 2958 019a 20       		.uleb128 0x20
 2959 019b 2E       		.uleb128 0x2e
 2960 019c 01       		.byte	0x1
 2961 019d 3F       		.uleb128 0x3f
 2962 019e 19       		.uleb128 0x19
 2963 019f 03       		.uleb128 0x3
 2964 01a0 0E       		.uleb128 0xe
 2965 01a1 3A       		.uleb128 0x3a
 2966 01a2 0B       		.uleb128 0xb
 2967 01a3 3B       		.uleb128 0x3b
 2968 01a4 0B       		.uleb128 0xb
 2969 01a5 27       		.uleb128 0x27
 2970 01a6 19       		.uleb128 0x19
 2971 01a7 49       		.uleb128 0x49
 2972 01a8 13       		.uleb128 0x13
 2973 01a9 11       		.uleb128 0x11
 2974 01aa 01       		.uleb128 0x1
 2975 01ab 12       		.uleb128 0x12
 2976 01ac 06       		.uleb128 0x6
 2977 01ad 40       		.uleb128 0x40
 2978 01ae 18       		.uleb128 0x18
 2979 01af 9642     		.uleb128 0x2116
 2980 01b1 19       		.uleb128 0x19
 2981 01b2 01       		.uleb128 0x1
 2982 01b3 13       		.uleb128 0x13
 2983 01b4 00       		.byte	0
 2984 01b5 00       		.byte	0
 2985 01b6 21       		.uleb128 0x21
 2986 01b7 05       		.uleb128 0x5
 2987 01b8 00       		.byte	0
 2988 01b9 03       		.uleb128 0x3
 2989 01ba 08       		.uleb128 0x8
 2990 01bb 3A       		.uleb128 0x3a
 2991 01bc 0B       		.uleb128 0xb
 2992 01bd 3B       		.uleb128 0x3b
 2993 01be 0B       		.uleb128 0xb
 2994 01bf 49       		.uleb128 0x49
 2995 01c0 13       		.uleb128 0x13
 2996 01c1 02       		.uleb128 0x2
 2997 01c2 18       		.uleb128 0x18
 2998 01c3 00       		.byte	0
 2999 01c4 00       		.byte	0
ARM GAS  /tmp/ccSfq7o4.s 			page 54


 3000 01c5 22       		.uleb128 0x22
 3001 01c6 34       		.uleb128 0x34
 3002 01c7 00       		.byte	0
 3003 01c8 03       		.uleb128 0x3
 3004 01c9 08       		.uleb128 0x8
 3005 01ca 3A       		.uleb128 0x3a
 3006 01cb 0B       		.uleb128 0xb
 3007 01cc 3B       		.uleb128 0x3b
 3008 01cd 0B       		.uleb128 0xb
 3009 01ce 49       		.uleb128 0x49
 3010 01cf 13       		.uleb128 0x13
 3011 01d0 02       		.uleb128 0x2
 3012 01d1 18       		.uleb128 0x18
 3013 01d2 00       		.byte	0
 3014 01d3 00       		.byte	0
 3015 01d4 23       		.uleb128 0x23
 3016 01d5 2E       		.uleb128 0x2e
 3017 01d6 01       		.byte	0x1
 3018 01d7 3F       		.uleb128 0x3f
 3019 01d8 19       		.uleb128 0x19
 3020 01d9 03       		.uleb128 0x3
 3021 01da 0E       		.uleb128 0xe
 3022 01db 3A       		.uleb128 0x3a
 3023 01dc 0B       		.uleb128 0xb
 3024 01dd 3B       		.uleb128 0x3b
 3025 01de 0B       		.uleb128 0xb
 3026 01df 27       		.uleb128 0x27
 3027 01e0 19       		.uleb128 0x19
 3028 01e1 11       		.uleb128 0x11
 3029 01e2 01       		.uleb128 0x1
 3030 01e3 12       		.uleb128 0x12
 3031 01e4 06       		.uleb128 0x6
 3032 01e5 40       		.uleb128 0x40
 3033 01e6 18       		.uleb128 0x18
 3034 01e7 9642     		.uleb128 0x2116
 3035 01e9 19       		.uleb128 0x19
 3036 01ea 01       		.uleb128 0x1
 3037 01eb 13       		.uleb128 0x13
 3038 01ec 00       		.byte	0
 3039 01ed 00       		.byte	0
 3040 01ee 24       		.uleb128 0x24
 3041 01ef 0B       		.uleb128 0xb
 3042 01f0 01       		.byte	0x1
 3043 01f1 11       		.uleb128 0x11
 3044 01f2 01       		.uleb128 0x1
 3045 01f3 12       		.uleb128 0x12
 3046 01f4 06       		.uleb128 0x6
 3047 01f5 00       		.byte	0
 3048 01f6 00       		.byte	0
 3049 01f7 25       		.uleb128 0x25
 3050 01f8 2E       		.uleb128 0x2e
 3051 01f9 00       		.byte	0
 3052 01fa 03       		.uleb128 0x3
 3053 01fb 0E       		.uleb128 0xe
 3054 01fc 3A       		.uleb128 0x3a
 3055 01fd 0B       		.uleb128 0xb
 3056 01fe 3B       		.uleb128 0x3b
ARM GAS  /tmp/ccSfq7o4.s 			page 55


 3057 01ff 0B       		.uleb128 0xb
 3058 0200 27       		.uleb128 0x27
 3059 0201 19       		.uleb128 0x19
 3060 0202 49       		.uleb128 0x49
 3061 0203 13       		.uleb128 0x13
 3062 0204 11       		.uleb128 0x11
 3063 0205 01       		.uleb128 0x1
 3064 0206 12       		.uleb128 0x12
 3065 0207 06       		.uleb128 0x6
 3066 0208 40       		.uleb128 0x40
 3067 0209 18       		.uleb128 0x18
 3068 020a 9642     		.uleb128 0x2116
 3069 020c 19       		.uleb128 0x19
 3070 020d 00       		.byte	0
 3071 020e 00       		.byte	0
 3072 020f 26       		.uleb128 0x26
 3073 0210 2E       		.uleb128 0x2e
 3074 0211 00       		.byte	0
 3075 0212 03       		.uleb128 0x3
 3076 0213 0E       		.uleb128 0xe
 3077 0214 3A       		.uleb128 0x3a
 3078 0215 0B       		.uleb128 0xb
 3079 0216 3B       		.uleb128 0x3b
 3080 0217 0B       		.uleb128 0xb
 3081 0218 27       		.uleb128 0x27
 3082 0219 19       		.uleb128 0x19
 3083 021a 49       		.uleb128 0x49
 3084 021b 13       		.uleb128 0x13
 3085 021c 11       		.uleb128 0x11
 3086 021d 01       		.uleb128 0x1
 3087 021e 12       		.uleb128 0x12
 3088 021f 06       		.uleb128 0x6
 3089 0220 40       		.uleb128 0x40
 3090 0221 18       		.uleb128 0x18
 3091 0222 9742     		.uleb128 0x2117
 3092 0224 19       		.uleb128 0x19
 3093 0225 00       		.byte	0
 3094 0226 00       		.byte	0
 3095 0227 27       		.uleb128 0x27
 3096 0228 2E       		.uleb128 0x2e
 3097 0229 01       		.byte	0x1
 3098 022a 03       		.uleb128 0x3
 3099 022b 0E       		.uleb128 0xe
 3100 022c 3A       		.uleb128 0x3a
 3101 022d 0B       		.uleb128 0xb
 3102 022e 3B       		.uleb128 0x3b
 3103 022f 05       		.uleb128 0x5
 3104 0230 27       		.uleb128 0x27
 3105 0231 19       		.uleb128 0x19
 3106 0232 11       		.uleb128 0x11
 3107 0233 01       		.uleb128 0x1
 3108 0234 12       		.uleb128 0x12
 3109 0235 06       		.uleb128 0x6
 3110 0236 40       		.uleb128 0x40
 3111 0237 18       		.uleb128 0x18
 3112 0238 9642     		.uleb128 0x2116
 3113 023a 19       		.uleb128 0x19
ARM GAS  /tmp/ccSfq7o4.s 			page 56


 3114 023b 01       		.uleb128 0x1
 3115 023c 13       		.uleb128 0x13
 3116 023d 00       		.byte	0
 3117 023e 00       		.byte	0
 3118 023f 28       		.uleb128 0x28
 3119 0240 2E       		.uleb128 0x2e
 3120 0241 00       		.byte	0
 3121 0242 03       		.uleb128 0x3
 3122 0243 0E       		.uleb128 0xe
 3123 0244 3A       		.uleb128 0x3a
 3124 0245 0B       		.uleb128 0xb
 3125 0246 3B       		.uleb128 0x3b
 3126 0247 05       		.uleb128 0x5
 3127 0248 27       		.uleb128 0x27
 3128 0249 19       		.uleb128 0x19
 3129 024a 11       		.uleb128 0x11
 3130 024b 01       		.uleb128 0x1
 3131 024c 12       		.uleb128 0x12
 3132 024d 06       		.uleb128 0x6
 3133 024e 40       		.uleb128 0x40
 3134 024f 18       		.uleb128 0x18
 3135 0250 9642     		.uleb128 0x2116
 3136 0252 19       		.uleb128 0x19
 3137 0253 00       		.byte	0
 3138 0254 00       		.byte	0
 3139 0255 29       		.uleb128 0x29
 3140 0256 2E       		.uleb128 0x2e
 3141 0257 01       		.byte	0x1
 3142 0258 03       		.uleb128 0x3
 3143 0259 0E       		.uleb128 0xe
 3144 025a 3A       		.uleb128 0x3a
 3145 025b 0B       		.uleb128 0xb
 3146 025c 3B       		.uleb128 0x3b
 3147 025d 05       		.uleb128 0x5
 3148 025e 27       		.uleb128 0x27
 3149 025f 19       		.uleb128 0x19
 3150 0260 49       		.uleb128 0x49
 3151 0261 13       		.uleb128 0x13
 3152 0262 11       		.uleb128 0x11
 3153 0263 01       		.uleb128 0x1
 3154 0264 12       		.uleb128 0x12
 3155 0265 06       		.uleb128 0x6
 3156 0266 40       		.uleb128 0x40
 3157 0267 18       		.uleb128 0x18
 3158 0268 9742     		.uleb128 0x2117
 3159 026a 19       		.uleb128 0x19
 3160 026b 01       		.uleb128 0x1
 3161 026c 13       		.uleb128 0x13
 3162 026d 00       		.byte	0
 3163 026e 00       		.byte	0
 3164 026f 2A       		.uleb128 0x2a
 3165 0270 2E       		.uleb128 0x2e
 3166 0271 01       		.byte	0x1
 3167 0272 03       		.uleb128 0x3
 3168 0273 0E       		.uleb128 0xe
 3169 0274 3A       		.uleb128 0x3a
 3170 0275 0B       		.uleb128 0xb
ARM GAS  /tmp/ccSfq7o4.s 			page 57


 3171 0276 3B       		.uleb128 0x3b
 3172 0277 05       		.uleb128 0x5
 3173 0278 27       		.uleb128 0x27
 3174 0279 19       		.uleb128 0x19
 3175 027a 11       		.uleb128 0x11
 3176 027b 01       		.uleb128 0x1
 3177 027c 12       		.uleb128 0x12
 3178 027d 06       		.uleb128 0x6
 3179 027e 40       		.uleb128 0x40
 3180 027f 18       		.uleb128 0x18
 3181 0280 9742     		.uleb128 0x2117
 3182 0282 19       		.uleb128 0x19
 3183 0283 01       		.uleb128 0x1
 3184 0284 13       		.uleb128 0x13
 3185 0285 00       		.byte	0
 3186 0286 00       		.byte	0
 3187 0287 2B       		.uleb128 0x2b
 3188 0288 1D       		.uleb128 0x1d
 3189 0289 00       		.byte	0
 3190 028a 31       		.uleb128 0x31
 3191 028b 13       		.uleb128 0x13
 3192 028c 11       		.uleb128 0x11
 3193 028d 01       		.uleb128 0x1
 3194 028e 12       		.uleb128 0x12
 3195 028f 06       		.uleb128 0x6
 3196 0290 58       		.uleb128 0x58
 3197 0291 0B       		.uleb128 0xb
 3198 0292 59       		.uleb128 0x59
 3199 0293 05       		.uleb128 0x5
 3200 0294 00       		.byte	0
 3201 0295 00       		.byte	0
 3202 0296 2C       		.uleb128 0x2c
 3203 0297 2E       		.uleb128 0x2e
 3204 0298 00       		.byte	0
 3205 0299 03       		.uleb128 0x3
 3206 029a 0E       		.uleb128 0xe
 3207 029b 3A       		.uleb128 0x3a
 3208 029c 0B       		.uleb128 0xb
 3209 029d 3B       		.uleb128 0x3b
 3210 029e 05       		.uleb128 0x5
 3211 029f 27       		.uleb128 0x27
 3212 02a0 19       		.uleb128 0x19
 3213 02a1 20       		.uleb128 0x20
 3214 02a2 0B       		.uleb128 0xb
 3215 02a3 00       		.byte	0
 3216 02a4 00       		.byte	0
 3217 02a5 00       		.byte	0
 3218              		.section	.debug_aranges,"",%progbits
 3219 0000 AC000000 		.4byte	0xac
 3220 0004 0200     		.2byte	0x2
 3221 0006 00000000 		.4byte	.Ldebug_info0
 3222 000a 04       		.byte	0x4
 3223 000b 00       		.byte	0
 3224 000c 0000     		.2byte	0
 3225 000e 0000     		.2byte	0
 3226 0010 00000000 		.4byte	.LFB38
 3227 0014 06000000 		.4byte	.LFE38-.LFB38
ARM GAS  /tmp/ccSfq7o4.s 			page 58


 3228 0018 00000000 		.4byte	.LFB39
 3229 001c 06000000 		.4byte	.LFE39-.LFB39
 3230 0020 00000000 		.4byte	.LFB60
 3231 0024 16000000 		.4byte	.LFE60-.LFB60
 3232 0028 00000000 		.4byte	.LFB62
 3233 002c 18000000 		.4byte	.LFE62-.LFB62
 3234 0030 00000000 		.4byte	.LFB65
 3235 0034 46000000 		.4byte	.LFE65-.LFB65
 3236 0038 00000000 		.4byte	.LFB67
 3237 003c 22000000 		.4byte	.LFE67-.LFB67
 3238 0040 00000000 		.4byte	.LFB77
 3239 0044 0E000000 		.4byte	.LFE77-.LFB77
 3240 0048 00000000 		.4byte	.LFB78
 3241 004c 38000000 		.4byte	.LFE78-.LFB78
 3242 0050 00000000 		.4byte	.LFB99
 3243 0054 0C000000 		.4byte	.LFE99-.LFB99
 3244 0058 00000000 		.4byte	.LFB125
 3245 005c 0E000000 		.4byte	.LFE125-.LFB125
 3246 0060 00000000 		.4byte	.LFB152
 3247 0064 28000000 		.4byte	.LFE152-.LFB152
 3248 0068 00000000 		.4byte	.LFB153
 3249 006c 44000000 		.4byte	.LFE153-.LFB153
 3250 0070 00000000 		.4byte	.LFB154
 3251 0074 48000000 		.4byte	.LFE154-.LFB154
 3252 0078 00000000 		.4byte	.LFB155
 3253 007c 20000000 		.4byte	.LFE155-.LFB155
 3254 0080 00000000 		.4byte	.LFB156
 3255 0084 48000000 		.4byte	.LFE156-.LFB156
 3256 0088 00000000 		.4byte	.LFB157
 3257 008c 22000000 		.4byte	.LFE157-.LFB157
 3258 0090 00000000 		.4byte	.LFB158
 3259 0094 74000000 		.4byte	.LFE158-.LFB158
 3260 0098 00000000 		.4byte	.LFB159
 3261 009c 32000000 		.4byte	.LFE159-.LFB159
 3262 00a0 00000000 		.4byte	.LFB160
 3263 00a4 94000000 		.4byte	.LFE160-.LFB160
 3264 00a8 00000000 		.4byte	0
 3265 00ac 00000000 		.4byte	0
 3266              		.section	.debug_ranges,"",%progbits
 3267              	.Ldebug_ranges0:
 3268 0000 00000000 		.4byte	.LFB38
 3269 0004 06000000 		.4byte	.LFE38
 3270 0008 00000000 		.4byte	.LFB39
 3271 000c 06000000 		.4byte	.LFE39
 3272 0010 00000000 		.4byte	.LFB60
 3273 0014 16000000 		.4byte	.LFE60
 3274 0018 00000000 		.4byte	.LFB62
 3275 001c 18000000 		.4byte	.LFE62
 3276 0020 00000000 		.4byte	.LFB65
 3277 0024 46000000 		.4byte	.LFE65
 3278 0028 00000000 		.4byte	.LFB67
 3279 002c 22000000 		.4byte	.LFE67
 3280 0030 00000000 		.4byte	.LFB77
 3281 0034 0E000000 		.4byte	.LFE77
 3282 0038 00000000 		.4byte	.LFB78
 3283 003c 38000000 		.4byte	.LFE78
 3284 0040 00000000 		.4byte	.LFB99
ARM GAS  /tmp/ccSfq7o4.s 			page 59


 3285 0044 0C000000 		.4byte	.LFE99
 3286 0048 00000000 		.4byte	.LFB125
 3287 004c 0E000000 		.4byte	.LFE125
 3288 0050 00000000 		.4byte	.LFB152
 3289 0054 28000000 		.4byte	.LFE152
 3290 0058 00000000 		.4byte	.LFB153
 3291 005c 44000000 		.4byte	.LFE153
 3292 0060 00000000 		.4byte	.LFB154
 3293 0064 48000000 		.4byte	.LFE154
 3294 0068 00000000 		.4byte	.LFB155
 3295 006c 20000000 		.4byte	.LFE155
 3296 0070 00000000 		.4byte	.LFB156
 3297 0074 48000000 		.4byte	.LFE156
 3298 0078 00000000 		.4byte	.LFB157
 3299 007c 22000000 		.4byte	.LFE157
 3300 0080 00000000 		.4byte	.LFB158
 3301 0084 74000000 		.4byte	.LFE158
 3302 0088 00000000 		.4byte	.LFB159
 3303 008c 32000000 		.4byte	.LFE159
 3304 0090 00000000 		.4byte	.LFB160
 3305 0094 94000000 		.4byte	.LFE160
 3306 0098 00000000 		.4byte	0
 3307 009c 00000000 		.4byte	0
 3308              		.section	.debug_line,"",%progbits
 3309              	.Ldebug_line0:
 3310 0000 79040000 		.section	.debug_str,"MS",%progbits,1
 3310      02004E02 
 3310      00000201 
 3310      FB0E0D00 
 3310      01010101 
 3311              	.LASF50:
 3312 0000 63685F74 		.ascii	"ch_threads_list\000"
 3312      68726561 
 3312      64735F6C 
 3312      69737400 
 3313              	.LASF51:
 3314 0010 74687265 		.ascii	"threads_queue_t\000"
 3314      6164735F 
 3314      71756575 
 3314      655F7400 
 3315              	.LASF40:
 3316 0020 705F7761 		.ascii	"p_waiting\000"
 3316      6974696E 
 3316      6700
 3317              	.LASF113:
 3318 002a 53797374 		.ascii	"SystemCoreClock\000"
 3318      656D436F 
 3318      7265436C 
 3318      6F636B00 
 3319              	.LASF103:
 3320 003a 77746D74 		.ascii	"wtmtxp\000"
 3320      787000
 3321              	.LASF112:
 3322 0041 63686172 		.ascii	"char\000"
 3322      00
 3323              	.LASF85:
 3324 0046 72656761 		.ascii	"regarm_t\000"
ARM GAS  /tmp/ccSfq7o4.s 			page 60


 3324      726D5F74 
 3324      00
 3325              	.LASF31:
 3326 004f 705F7072 		.ascii	"p_prio\000"
 3326      696F00
 3327              	.LASF27:
 3328 0056 73797374 		.ascii	"systime_t\000"
 3328      696D655F 
 3328      7400
 3329              	.LASF137:
 3330 0060 636F6E64 		.ascii	"condition_variable_t\000"
 3330      6974696F 
 3330      6E5F7661 
 3330      72696162 
 3330      6C655F74 
 3331              	.LASF124:
 3332 0075 63665F6F 		.ascii	"cf_off_older\000"
 3332      66665F6F 
 3332      6C646572 
 3332      00
 3333              	.LASF110:
 3334 0082 6D5F6F77 		.ascii	"m_owner\000"
 3334      6E657200 
 3335              	.LASF106:
 3336 008a 735F7175 		.ascii	"s_queue\000"
 3336      65756500 
 3337              	.LASF41:
 3338 0092 705F6D73 		.ascii	"p_msgqueue\000"
 3338      67717565 
 3338      756500
 3339              	.LASF0:
 3340 009d 756E7369 		.ascii	"unsigned int\000"
 3340      676E6564 
 3340      20696E74 
 3340      00
 3341              	.LASF48:
 3342 00aa 74687265 		.ascii	"threads_list_t\000"
 3342      6164735F 
 3342      6C697374 
 3342      5F7400
 3343              	.LASF9:
 3344 00b9 5F5F696E 		.ascii	"__int32_t\000"
 3344      7433325F 
 3344      7400
 3345              	.LASF92:
 3346 00c3 73655F73 		.ascii	"se_state\000"
 3346      74617465 
 3346      00
 3347              	.LASF125:
 3348 00cc 63665F6F 		.ascii	"cf_off_name\000"
 3348      66665F6E 
 3348      616D6500 
 3349              	.LASF100:
 3350 00d8 77746F62 		.ascii	"wtobjp\000"
 3350      6A7000
 3351              	.LASF158:
 3352 00df 706F7274 		.ascii	"port_lock\000"
ARM GAS  /tmp/ccSfq7o4.s 			page 61


 3352      5F6C6F63 
 3352      6B00
 3353              	.LASF81:
 3354 00e9 76746C69 		.ascii	"vtlist\000"
 3354      737400
 3355              	.LASF54:
 3356 00f0 63685F72 		.ascii	"ch_ready_list\000"
 3356      65616479 
 3356      5F6C6973 
 3356      7400
 3357              	.LASF83:
 3358 00fe 69646C65 		.ascii	"idle_thread_wa\000"
 3358      5F746872 
 3358      6561645F 
 3358      776100
 3359              	.LASF104:
 3360 010d 65776D61 		.ascii	"ewmask\000"
 3360      736B00
 3361              	.LASF128:
 3362 0114 63665F6F 		.ascii	"cf_off_flags\000"
 3362      66665F66 
 3362      6C616773 
 3362      00
 3363              	.LASF136:
 3364 0121 635F7175 		.ascii	"c_queue\000"
 3364      65756500 
 3365              	.LASF52:
 3366 0129 63685F74 		.ascii	"ch_threads_queue\000"
 3366      68726561 
 3366      64735F71 
 3366      75657565 
 3366      00
 3367              	.LASF118:
 3368 013a 63685F70 		.ascii	"ch_ptrsize\000"
 3368      74727369 
 3368      7A6500
 3369              	.LASF61:
 3370 0145 76746675 		.ascii	"vtfunc_t\000"
 3370      6E635F74 
 3370      00
 3371              	.LASF107:
 3372 014e 735F636E 		.ascii	"s_cnt\000"
 3372      7400
 3373              	.LASF73:
 3374 0154 63685F73 		.ascii	"ch_system_debug\000"
 3374      79737465 
 3374      6D5F6465 
 3374      62756700 
 3375              	.LASF149:
 3376 0164 6368436F 		.ascii	"chCondObjectInit\000"
 3376      6E644F62 
 3376      6A656374 
 3376      496E6974 
 3376      00
 3377              	.LASF18:
 3378 0175 75696E74 		.ascii	"uint32_t\000"
 3378      33325F74 
ARM GAS  /tmp/ccSfq7o4.s 			page 62


 3378      00
 3379              	.LASF119:
 3380 017e 63685F74 		.ascii	"ch_timesize\000"
 3380      696D6573 
 3380      697A6500 
 3381              	.LASF25:
 3382 018a 6576656E 		.ascii	"eventmask_t\000"
 3382      746D6173 
 3382      6B5F7400 
 3383              	.LASF56:
 3384 0196 725F7072 		.ascii	"r_prio\000"
 3384      696F00
 3385              	.LASF68:
 3386 019d 76745F70 		.ascii	"vt_par\000"
 3386      617200
 3387              	.LASF135:
 3388 01a4 636F6E64 		.ascii	"condition_variable\000"
 3388      6974696F 
 3388      6E5F7661 
 3388      72696162 
 3388      6C6500
 3389              	.LASF105:
 3390 01b7 63685F73 		.ascii	"ch_semaphore\000"
 3390      656D6170 
 3390      686F7265 
 3390      00
 3391              	.LASF23:
 3392 01c4 74707269 		.ascii	"tprio_t\000"
 3392      6F5F7400 
 3393              	.LASF63:
 3394 01cc 63685F76 		.ascii	"ch_virtual_timer\000"
 3394      69727475 
 3394      616C5F74 
 3394      696D6572 
 3394      00
 3395              	.LASF144:
 3396 01dd 6368436F 		.ascii	"chCondWait\000"
 3396      6E645761 
 3396      697400
 3397              	.LASF162:
 3398 01e8 43686962 		.ascii	"ChibiOS/os/rt/src/chcond.c\000"
 3398      694F532F 
 3398      6F732F72 
 3398      742F7372 
 3398      632F6368 
 3399              	.LASF14:
 3400 0203 6C6F6E67 		.ascii	"long long unsigned int\000"
 3400      206C6F6E 
 3400      6720756E 
 3400      7369676E 
 3400      65642069 
 3401              	.LASF91:
 3402 021a 73655F77 		.ascii	"se_wtobjp\000"
 3402      746F626A 
 3402      7000
 3403              	.LASF7:
 3404 0224 5F5F7569 		.ascii	"__uint16_t\000"
ARM GAS  /tmp/ccSfq7o4.s 			page 63


 3404      6E743136 
 3404      5F7400
 3405              	.LASF26:
 3406 022f 636E745F 		.ascii	"cnt_t\000"
 3406      7400
 3407              	.LASF152:
 3408 0235 63685379 		.ascii	"chSysUnlock\000"
 3408      73556E6C 
 3408      6F636B00 
 3409              	.LASF139:
 3410 0241 74696D65 		.ascii	"time\000"
 3410      00
 3411              	.LASF75:
 3412 0246 6973725F 		.ascii	"isr_cnt\000"
 3412      636E7400 
 3413              	.LASF151:
 3414 024e 63685468 		.ascii	"chThdGetSelfX\000"
 3414      64476574 
 3414      53656C66 
 3414      5800
 3415              	.LASF33:
 3416 025c 705F6E65 		.ascii	"p_newer\000"
 3416      77657200 
 3417              	.LASF70:
 3418 0264 63685F76 		.ascii	"ch_virtual_timers_list\000"
 3418      69727475 
 3418      616C5F74 
 3418      696D6572 
 3418      735F6C69 
 3419              	.LASF89:
 3420 027b 73655F74 		.ascii	"se_time\000"
 3420      696D6500 
 3421              	.LASF28:
 3422 0283 74687265 		.ascii	"thread_t\000"
 3422      61645F74 
 3422      00
 3423              	.LASF98:
 3424 028c 7264796D 		.ascii	"rdymsg\000"
 3424      736700
 3425              	.LASF120:
 3426 0293 63685F74 		.ascii	"ch_threadsize\000"
 3426      68726561 
 3426      6473697A 
 3426      6500
 3427              	.LASF159:
 3428 02a1 5F5F6469 		.ascii	"__disable_irq\000"
 3428      7361626C 
 3428      655F6972 
 3428      7100
 3429              	.LASF130:
 3430 02af 63665F6F 		.ascii	"cf_off_preempt\000"
 3430      66665F70 
 3430      7265656D 
 3430      707400
 3431              	.LASF138:
 3432 02be 5F426F6F 		.ascii	"_Bool\000"
 3432      6C00
ARM GAS  /tmp/ccSfq7o4.s 			page 64


 3433              	.LASF161:
 3434 02c4 474E5520 		.ascii	"GNU C11 6.3.1 20170215 (release) [ARM/embedded-6-br"
 3434      43313120 
 3434      362E332E 
 3434      31203230 
 3434      31373032 
 3435 02f7 616E6368 		.ascii	"anch revision 245512] -mcpu=cortex-m0 -mno-thumb-in"
 3435      20726576 
 3435      6973696F 
 3435      6E203234 
 3435      35353132 
 3436 032a 74657277 		.ascii	"terwork -mthumb -ggdb -O0 -fomit-frame-pointer -fal"
 3436      6F726B20 
 3436      2D6D7468 
 3436      756D6220 
 3436      2D676764 
 3437 035d 69676E2D 		.ascii	"ign-functions=16 -ffunction-sections -fdata-section"
 3437      66756E63 
 3437      74696F6E 
 3437      733D3136 
 3437      202D6666 
 3438 0390 7300     		.ascii	"s\000"
 3439              	.LASF108:
 3440 0392 63685F6D 		.ascii	"ch_mutex\000"
 3440      75746578 
 3440      00
 3441              	.LASF13:
 3442 039b 5F5F7569 		.ascii	"__uint64_t\000"
 3442      6E743634 
 3442      5F7400
 3443              	.LASF146:
 3444 03a6 6368436F 		.ascii	"chCondBroadcast\000"
 3444      6E644272 
 3444      6F616463 
 3444      61737400 
 3445              	.LASF164:
 3446 03b6 63685379 		.ascii	"chSysLock\000"
 3446      734C6F63 
 3446      6B00
 3447              	.LASF122:
 3448 03c0 63665F6F 		.ascii	"cf_off_ctx\000"
 3448      66665F63 
 3448      747800
 3449              	.LASF126:
 3450 03cb 63665F6F 		.ascii	"cf_off_stklimit\000"
 3450      66665F73 
 3450      746B6C69 
 3450      6D697400 
 3451              	.LASF35:
 3452 03db 705F6E61 		.ascii	"p_name\000"
 3452      6D6500
 3453              	.LASF153:
 3454 03e2 71756575 		.ascii	"queue_prio_insert\000"
 3454      655F7072 
 3454      696F5F69 
 3454      6E736572 
 3454      7400
ARM GAS  /tmp/ccSfq7o4.s 			page 65


 3455              	.LASF66:
 3456 03f4 76745F64 		.ascii	"vt_delta\000"
 3456      656C7461 
 3456      00
 3457              	.LASF145:
 3458 03fd 6368436F 		.ascii	"chCondBroadcastI\000"
 3458      6E644272 
 3458      6F616463 
 3458      61737449 
 3458      00
 3459              	.LASF163:
 3460 040e 2F686F6D 		.ascii	"/home/felix/Desktop/workspace/esho/UltrasonicCortex"
 3460      652F6665 
 3460      6C69782F 
 3460      4465736B 
 3460      746F702F 
 3461 0441 2F00     		.ascii	"/\000"
 3462              	.LASF141:
 3463 0443 6368436F 		.ascii	"chCondWaitTimeout\000"
 3463      6E645761 
 3463      69745469 
 3463      6D656F75 
 3463      7400
 3464              	.LASF47:
 3465 0455 74687265 		.ascii	"thread_reference_t\000"
 3465      61645F72 
 3465      65666572 
 3465      656E6365 
 3465      5F7400
 3466              	.LASF71:
 3467 0468 76745F6C 		.ascii	"vt_lasttime\000"
 3467      61737474 
 3467      696D6500 
 3468              	.LASF155:
 3469 0474 71756575 		.ascii	"queue_notempty\000"
 3469      655F6E6F 
 3469      74656D70 
 3469      747900
 3470              	.LASF21:
 3471 0483 74737461 		.ascii	"tstate_t\000"
 3471      74655F74 
 3471      00
 3472              	.LASF90:
 3473 048c 73655F74 		.ascii	"se_tp\000"
 3473      7000
 3474              	.LASF34:
 3475 0492 705F6F6C 		.ascii	"p_older\000"
 3475      64657200 
 3476              	.LASF37:
 3477 049a 705F7374 		.ascii	"p_state\000"
 3477      61746500 
 3478              	.LASF36:
 3479 04a2 705F7374 		.ascii	"p_stklimit\000"
 3479      6B6C696D 
 3479      697400
 3480              	.LASF15:
 3481 04ad 75696E74 		.ascii	"uint8_t\000"
ARM GAS  /tmp/ccSfq7o4.s 			page 66


 3481      385F7400 
 3482              	.LASF96:
 3483 04b5 74625F62 		.ascii	"tb_buffer\000"
 3483      75666665 
 3483      7200
 3484              	.LASF147:
 3485 04bf 6368436F 		.ascii	"chCondSignalI\000"
 3485      6E645369 
 3485      676E616C 
 3485      4900
 3486              	.LASF46:
 3487 04cd 705F6D70 		.ascii	"p_mpool\000"
 3487      6F6F6C00 
 3488              	.LASF44:
 3489 04d5 705F6D74 		.ascii	"p_mtxlist\000"
 3489      786C6973 
 3489      7400
 3490              	.LASF49:
 3491 04df 63685F74 		.ascii	"ch_thread\000"
 3491      68726561 
 3491      6400
 3492              	.LASF94:
 3493 04e9 74625F73 		.ascii	"tb_size\000"
 3493      697A6500 
 3494              	.LASF72:
 3495 04f1 73797374 		.ascii	"system_debug_t\000"
 3495      656D5F64 
 3495      65627567 
 3495      5F7400
 3496              	.LASF1:
 3497 0500 6C6F6E67 		.ascii	"long long int\000"
 3497      206C6F6E 
 3497      6720696E 
 3497      7400
 3498              	.LASF55:
 3499 050e 725F7175 		.ascii	"r_queue\000"
 3499      65756500 
 3500              	.LASF58:
 3501 0516 725F6E65 		.ascii	"r_newer\000"
 3501      77657200 
 3502              	.LASF24:
 3503 051e 6D73675F 		.ascii	"msg_t\000"
 3503      7400
 3504              	.LASF87:
 3505 0524 636F6E74 		.ascii	"context\000"
 3505      65787400 
 3506              	.LASF38:
 3507 052c 705F666C 		.ascii	"p_flags\000"
 3507      61677300 
 3508              	.LASF62:
 3509 0534 76697274 		.ascii	"virtual_timer_t\000"
 3509      75616C5F 
 3509      74696D65 
 3509      725F7400 
 3510              	.LASF148:
 3511 0544 6368436F 		.ascii	"chCondSignal\000"
 3511      6E645369 
ARM GAS  /tmp/ccSfq7o4.s 			page 67


 3511      676E616C 
 3511      00
 3512              	.LASF154:
 3513 0551 71756575 		.ascii	"queue_fifo_remove\000"
 3513      655F6669 
 3513      666F5F72 
 3513      656D6F76 
 3513      6500
 3514              	.LASF129:
 3515 0563 63665F6F 		.ascii	"cf_off_refs\000"
 3515      66665F72 
 3515      65667300 
 3516              	.LASF115:
 3517 056f 63685F7A 		.ascii	"ch_zero\000"
 3517      65726F00 
 3518              	.LASF95:
 3519 0577 74625F70 		.ascii	"tb_ptr\000"
 3519      747200
 3520              	.LASF59:
 3521 057e 725F6F6C 		.ascii	"r_older\000"
 3521      64657200 
 3522              	.LASF74:
 3523 0586 70616E69 		.ascii	"panic_msg\000"
 3523      635F6D73 
 3523      6700
 3524              	.LASF42:
 3525 0590 705F6D73 		.ascii	"p_msg\000"
 3525      6700
 3526              	.LASF20:
 3527 0596 746D6F64 		.ascii	"tmode_t\000"
 3527      655F7400 
 3528              	.LASF116:
 3529 059e 63685F73 		.ascii	"ch_size\000"
 3529      697A6500 
 3530              	.LASF82:
 3531 05a6 6D61696E 		.ascii	"mainthread\000"
 3531      74687265 
 3531      616400
 3532              	.LASF2:
 3533 05b1 6C6F6E67 		.ascii	"long double\000"
 3533      20646F75 
 3533      626C6500 
 3534              	.LASF16:
 3535 05bd 75696E74 		.ascii	"uint16_t\000"
 3535      31365F74 
 3535      00
 3536              	.LASF132:
 3537 05c6 63686465 		.ascii	"chdebug_t\000"
 3537      6275675F 
 3537      7400
 3538              	.LASF76:
 3539 05d0 6C6F636B 		.ascii	"lock_cnt\000"
 3539      5F636E74 
 3539      00
 3540              	.LASF45:
 3541 05d9 705F7265 		.ascii	"p_realprio\000"
 3541      616C7072 
ARM GAS  /tmp/ccSfq7o4.s 			page 68


 3541      696F00
 3542              	.LASF117:
 3543 05e4 63685F76 		.ascii	"ch_version\000"
 3543      65727369 
 3543      6F6E00
 3544              	.LASF5:
 3545 05ef 73686F72 		.ascii	"short int\000"
 3545      7420696E 
 3545      7400
 3546              	.LASF60:
 3547 05f9 725F6375 		.ascii	"r_current\000"
 3547      7272656E 
 3547      7400
 3548              	.LASF43:
 3549 0603 705F6570 		.ascii	"p_epending\000"
 3549      656E6469 
 3549      6E6700
 3550              	.LASF109:
 3551 060e 6D5F7175 		.ascii	"m_queue\000"
 3551      65756500 
 3552              	.LASF10:
 3553 0616 6C6F6E67 		.ascii	"long int\000"
 3553      20696E74 
 3553      00
 3554              	.LASF88:
 3555 061f 706F7274 		.ascii	"port_intctx\000"
 3555      5F696E74 
 3555      63747800 
 3556              	.LASF160:
 3557 062b 5F5F656E 		.ascii	"__enable_irq\000"
 3557      61626C65 
 3557      5F697271 
 3557      00
 3558              	.LASF79:
 3559 0638 63685F73 		.ascii	"ch_system\000"
 3559      79737465 
 3559      6D00
 3560              	.LASF29:
 3561 0642 705F6E65 		.ascii	"p_next\000"
 3561      787400
 3562              	.LASF19:
 3563 0649 75696E74 		.ascii	"uint64_t\000"
 3563      36345F74 
 3563      00
 3564              	.LASF32:
 3565 0652 705F6374 		.ascii	"p_ctx\000"
 3565      7800
 3566              	.LASF80:
 3567 0658 726C6973 		.ascii	"rlist\000"
 3567      7400
 3568              	.LASF131:
 3569 065e 63665F6F 		.ascii	"cf_off_time\000"
 3569      66665F74 
 3569      696D6500 
 3570              	.LASF121:
 3571 066a 63665F6F 		.ascii	"cf_off_prio\000"
 3571      66665F70 
ARM GAS  /tmp/ccSfq7o4.s 			page 69


 3571      72696F00 
 3572              	.LASF6:
 3573 0676 5F5F7569 		.ascii	"__uint8_t\000"
 3573      6E74385F 
 3573      7400
 3574              	.LASF142:
 3575 0680 6368436F 		.ascii	"chCondWaitS\000"
 3575      6E645761 
 3575      69745300 
 3576              	.LASF114:
 3577 068c 63685F69 		.ascii	"ch_identifier\000"
 3577      64656E74 
 3577      69666965 
 3577      7200
 3578              	.LASF30:
 3579 069a 705F7072 		.ascii	"p_prev\000"
 3579      657600
 3580              	.LASF84:
 3581 06a1 73697A65 		.ascii	"sizetype\000"
 3581      74797065 
 3581      00
 3582              	.LASF22:
 3583 06aa 74726566 		.ascii	"trefs_t\000"
 3583      735F7400 
 3584              	.LASF12:
 3585 06b2 6C6F6E67 		.ascii	"long unsigned int\000"
 3585      20756E73 
 3585      69676E65 
 3585      6420696E 
 3585      7400
 3586              	.LASF127:
 3587 06c4 63665F6F 		.ascii	"cf_off_state\000"
 3587      66665F73 
 3587      74617465 
 3587      00
 3588              	.LASF53:
 3589 06d1 72656164 		.ascii	"ready_list_t\000"
 3589      795F6C69 
 3589      73745F74 
 3589      00
 3590              	.LASF17:
 3591 06de 696E7433 		.ascii	"int32_t\000"
 3591      325F7400 
 3592              	.LASF77:
 3593 06e6 74726163 		.ascii	"trace_buffer\000"
 3593      655F6275 
 3593      66666572 
 3593      00
 3594              	.LASF102:
 3595 06f3 77747365 		.ascii	"wtsemp\000"
 3595      6D7000
 3596              	.LASF93:
 3597 06fa 63685F73 		.ascii	"ch_swc_event_t\000"
 3597      77635F65 
 3597      76656E74 
 3597      5F7400
 3598              	.LASF134:
ARM GAS  /tmp/ccSfq7o4.s 			page 70


 3599 0709 6D757465 		.ascii	"mutex_t\000"
 3599      785F7400 
 3600              	.LASF156:
 3601 0711 71756575 		.ascii	"queue_init\000"
 3601      655F696E 
 3601      697400
 3602              	.LASF4:
 3603 071c 756E7369 		.ascii	"unsigned char\000"
 3603      676E6564 
 3603      20636861 
 3603      7200
 3604              	.LASF11:
 3605 072a 5F5F7569 		.ascii	"__uint32_t\000"
 3605      6E743332 
 3605      5F7400
 3606              	.LASF69:
 3607 0735 76697274 		.ascii	"virtual_timers_list_t\000"
 3607      75616C5F 
 3607      74696D65 
 3607      72735F6C 
 3607      6973745F 
 3608              	.LASF39:
 3609 074b 705F7265 		.ascii	"p_refs\000"
 3609      667300
 3610              	.LASF150:
 3611 0752 63684D74 		.ascii	"chMtxGetNextMutexS\000"
 3611      78476574 
 3611      4E657874 
 3611      4D757465 
 3611      785300
 3612              	.LASF64:
 3613 0765 76745F6E 		.ascii	"vt_next\000"
 3613      65787400 
 3614              	.LASF78:
 3615 076d 63685F73 		.ascii	"ch_system_t\000"
 3615      79737465 
 3615      6D5F7400 
 3616              	.LASF101:
 3617 0779 77747472 		.ascii	"wttrp\000"
 3617      7000
 3618              	.LASF97:
 3619 077f 63685F74 		.ascii	"ch_trace_buffer_t\000"
 3619      72616365 
 3619      5F627566 
 3619      6665725F 
 3619      7400
 3620              	.LASF111:
 3621 0791 6D5F6E65 		.ascii	"m_next\000"
 3621      787400
 3622              	.LASF3:
 3623 0798 7369676E 		.ascii	"signed char\000"
 3623      65642063 
 3623      68617200 
 3624              	.LASF123:
 3625 07a4 63665F6F 		.ascii	"cf_off_newer\000"
 3625      66665F6E 
 3625      65776572 
ARM GAS  /tmp/ccSfq7o4.s 			page 71


 3625      00
 3626              	.LASF8:
 3627 07b1 73686F72 		.ascii	"short unsigned int\000"
 3627      7420756E 
 3627      7369676E 
 3627      65642069 
 3627      6E7400
 3628              	.LASF57:
 3629 07c4 725F6374 		.ascii	"r_ctx\000"
 3629      7800
 3630              	.LASF86:
 3631 07ca 73746B61 		.ascii	"stkalign_t\000"
 3631      6C69676E 
 3631      5F7400
 3632              	.LASF140:
 3633 07d5 6368436F 		.ascii	"chCondWaitTimeoutS\000"
 3633      6E645761 
 3633      69745469 
 3633      6D656F75 
 3633      745300
 3634              	.LASF143:
 3635 07e8 5F5F6675 		.ascii	"__func__\000"
 3635      6E635F5F 
 3635      00
 3636              	.LASF133:
 3637 07f1 63685F64 		.ascii	"ch_debug\000"
 3637      65627567 
 3637      00
 3638              	.LASF67:
 3639 07fa 76745F66 		.ascii	"vt_func\000"
 3639      756E6300 
 3640              	.LASF157:
 3641 0802 706F7274 		.ascii	"port_unlock\000"
 3641      5F756E6C 
 3641      6F636B00 
 3642              	.LASF65:
 3643 080e 76745F70 		.ascii	"vt_prev\000"
 3643      72657600 
 3644              	.LASF99:
 3645 0816 65786974 		.ascii	"exitcode\000"
 3645      636F6465 
 3645      00
 3646              		.ident	"GCC: (GNU Tools for ARM Embedded Processors 6-2017-q1-update) 6.3.1 20170215 (release) [AR
ARM GAS  /tmp/ccSfq7o4.s 			page 72


DEFINED SYMBOLS
                            *ABS*:0000000000000000 chcond.c
     /tmp/ccSfq7o4.s:16     .text.port_lock:0000000000000000 $t
     /tmp/ccSfq7o4.s:23     .text.port_lock:0000000000000000 port_lock
     /tmp/ccSfq7o4.s:51     .text.port_unlock:0000000000000000 $t
     /tmp/ccSfq7o4.s:58     .text.port_unlock:0000000000000000 port_unlock
     /tmp/ccSfq7o4.s:84     .text.queue_init:0000000000000000 $t
     /tmp/ccSfq7o4.s:91     .text.queue_init:0000000000000000 queue_init
     /tmp/ccSfq7o4.s:119    .text.queue_notempty:0000000000000000 $t
     /tmp/ccSfq7o4.s:126    .text.queue_notempty:0000000000000000 queue_notempty
     /tmp/ccSfq7o4.s:153    .text.queue_prio_insert:0000000000000000 $t
     /tmp/ccSfq7o4.s:160    .text.queue_prio_insert:0000000000000000 queue_prio_insert
     /tmp/ccSfq7o4.s:219    .text.queue_fifo_remove:0000000000000000 $t
     /tmp/ccSfq7o4.s:226    .text.queue_fifo_remove:0000000000000000 queue_fifo_remove
     /tmp/ccSfq7o4.s:261    .text.chSysLock:0000000000000000 $t
     /tmp/ccSfq7o4.s:268    .text.chSysLock:0000000000000000 chSysLock
     /tmp/ccSfq7o4.s:291    .text.chSysUnlock:0000000000000000 $t
     /tmp/ccSfq7o4.s:298    .text.chSysUnlock:0000000000000000 chSysUnlock
     /tmp/ccSfq7o4.s:339    .text.chSysUnlock:0000000000000030 $d
     /tmp/ccSfq7o4.s:985    .rodata.__func__.4993:0000000000000000 __func__.4993
     /tmp/ccSfq7o4.s:345    .text.chThdGetSelfX:0000000000000000 $t
     /tmp/ccSfq7o4.s:352    .text.chThdGetSelfX:0000000000000000 chThdGetSelfX
     /tmp/ccSfq7o4.s:370    .text.chThdGetSelfX:0000000000000008 $d
     /tmp/ccSfq7o4.s:375    .text.chMtxGetNextMutexS:0000000000000000 $t
     /tmp/ccSfq7o4.s:382    .text.chMtxGetNextMutexS:0000000000000000 chMtxGetNextMutexS
     /tmp/ccSfq7o4.s:405    .text.chCondObjectInit:0000000000000000 $t
     /tmp/ccSfq7o4.s:413    .text.chCondObjectInit:0000000000000000 chCondObjectInit
     /tmp/ccSfq7o4.s:447    .text.chCondObjectInit:0000000000000024 $d
     /tmp/ccSfq7o4.s:973    .rodata.__func__.5696:0000000000000000 __func__.5696
     /tmp/ccSfq7o4.s:452    .text.chCondSignal:0000000000000000 $t
     /tmp/ccSfq7o4.s:460    .text.chCondSignal:0000000000000000 chCondSignal
     /tmp/ccSfq7o4.s:508    .text.chCondSignal:0000000000000040 $d
     /tmp/ccSfq7o4.s:979    .rodata.__func__.5700:0000000000000000 __func__.5700
     /tmp/ccSfq7o4.s:513    .text.chCondSignalI:0000000000000000 $t
     /tmp/ccSfq7o4.s:521    .text.chCondSignalI:0000000000000000 chCondSignalI
     /tmp/ccSfq7o4.s:575    .text.chCondSignalI:0000000000000044 $d
     /tmp/ccSfq7o4.s:991    .rodata.__func__.5704:0000000000000000 __func__.5704
     /tmp/ccSfq7o4.s:580    .text.chCondBroadcast:0000000000000000 $t
     /tmp/ccSfq7o4.s:588    .text.chCondBroadcast:0000000000000000 chCondBroadcast
     /tmp/ccSfq7o4.s:627    .text.chCondBroadcastI:0000000000000000 chCondBroadcastI
     /tmp/ccSfq7o4.s:619    .text.chCondBroadcastI:0000000000000000 $t
     /tmp/ccSfq7o4.s:678    .text.chCondBroadcastI:0000000000000044 $d
     /tmp/ccSfq7o4.s:997    .rodata.__func__.5712:0000000000000000 __func__.5712
     /tmp/ccSfq7o4.s:683    .text.chCondWait:0000000000000000 $t
     /tmp/ccSfq7o4.s:691    .text.chCondWait:0000000000000000 chCondWait
     /tmp/ccSfq7o4.s:732    .text.chCondWaitS:0000000000000000 chCondWaitS
     /tmp/ccSfq7o4.s:724    .text.chCondWaitS:0000000000000000 $t
     /tmp/ccSfq7o4.s:808    .text.chCondWaitS:000000000000006c $d
     /tmp/ccSfq7o4.s:1003   .rodata.__func__.5726:0000000000000000 __func__.5726
     /tmp/ccSfq7o4.s:814    .text.chCondWaitTimeout:0000000000000000 $t
     /tmp/ccSfq7o4.s:822    .text.chCondWaitTimeout:0000000000000000 chCondWaitTimeout
     /tmp/ccSfq7o4.s:871    .text.chCondWaitTimeoutS:0000000000000000 chCondWaitTimeoutS
     /tmp/ccSfq7o4.s:863    .text.chCondWaitTimeoutS:0000000000000000 $t
     /tmp/ccSfq7o4.s:964    .text.chCondWaitTimeoutS:000000000000008c $d
     /tmp/ccSfq7o4.s:1009   .rodata.__func__.5738:0000000000000000 __func__.5738
     /tmp/ccSfq7o4.s:970    .rodata.__func__.5696:0000000000000000 $d
     /tmp/ccSfq7o4.s:976    .rodata.__func__.5700:0000000000000000 $d
ARM GAS  /tmp/ccSfq7o4.s 			page 73


     /tmp/ccSfq7o4.s:982    .rodata.__func__.4993:0000000000000000 $d
     /tmp/ccSfq7o4.s:988    .rodata.__func__.5704:0000000000000000 $d
     /tmp/ccSfq7o4.s:994    .rodata.__func__.5712:0000000000000000 $d
     /tmp/ccSfq7o4.s:1000   .rodata.__func__.5726:0000000000000000 $d
     /tmp/ccSfq7o4.s:1006   .rodata.__func__.5738:0000000000000000 $d
                     .debug_frame:0000000000000010 $d

UNDEFINED SYMBOLS
_dbg_check_lock
_dbg_check_unlock
chSysHalt
ch
chSchWakeupS
chDbgCheckClassI
chSchReadyI
chSchRescheduleS
chDbgCheckClassS
chMtxUnlockS
chSchGoSleepS
chMtxLockS
chSchGoSleepTimeoutS
