ARM GAS  /tmp/ccSfq7o4.s 			page 1


   1              		.cpu cortex-m0
   2              		.eabi_attribute 20, 1
   3              		.eabi_attribute 21, 1
   4              		.eabi_attribute 23, 3
   5              		.eabi_attribute 24, 1
   6              		.eabi_attribute 25, 1
   7              		.eabi_attribute 26, 1
   8              		.eabi_attribute 30, 6
   9              		.eabi_attribute 34, 0
  10              		.eabi_attribute 18, 4
  11              		.file	"chcond.c"
  12              		.text
  13              	.Ltext0:
  14              		.cfi_sections	.debug_frame
  15              		.section	.text.port_lock,"ax",%progbits
  16              		.align	1
  17              		.p2align 4,,15
  18              		.syntax unified
  19              		.code	16
  20              		.thumb_func
  21              		.fpu softvfp
  22              		.type	port_lock, %function
  23              	port_lock:
  24              	.LFB38:
  25              		.file 1 "ChibiOS/os/rt/ports/ARMCMx/chcore_v6m.h"
  26              		.loc 1 330 0
  27              		.cfi_startproc
  28              		@ args = 0, pretend = 0, frame = 0
  29              		@ frame_needed = 0, uses_anonymous_args = 0
  30              		@ link register save eliminated.
  31              	.LBB6:
  32              	.LBB7:
  33              		.file 2 "ChibiOS/os/ext/CMSIS/include/core_cmFunc.h"
  34              		.loc 2 344 0
  35              		.syntax divided
  36              	@ 344 "ChibiOS/os/ext/CMSIS/include/core_cmFunc.h" 1
  37 0000 72B6     		cpsid i
  38              	@ 0 "" 2
  39              		.thumb
  40              		.syntax unified
  41              	.LBE7:
  42              	.LBE6:
  43              		.loc 1 333 0
  44 0002 C046     		nop
  45              		@ sp needed
  46 0004 7047     		bx	lr
  47              		.cfi_endproc
  48              	.LFE38:
  49              		.size	port_lock, .-port_lock
  50 0006 C046     		.section	.text.port_unlock,"ax",%progbits
  51              		.align	1
  52              		.p2align 4,,15
  53              		.syntax unified
  54              		.code	16
  55              		.thumb_func
  56              		.fpu softvfp
  57              		.type	port_unlock, %function
ARM GAS  /tmp/ccSfq7o4.s 			page 2


  58              	port_unlock:
  59              	.LFB39:
  60              		.loc 1 339 0
  61              		.cfi_startproc
  62              		@ args = 0, pretend = 0, frame = 0
  63              		@ frame_needed = 0, uses_anonymous_args = 0
  64              		@ link register save eliminated.
  65              	.LBB8:
  66              	.LBB9:
  67              		.loc 2 333 0
  68              		.syntax divided
  69              	@ 333 "ChibiOS/os/ext/CMSIS/include/core_cmFunc.h" 1
  70 0000 62B6     		cpsie i
  71              	@ 0 "" 2
  72              		.thumb
  73              		.syntax unified
  74              	.LBE9:
  75              	.LBE8:
  76              		.loc 1 342 0
  77 0002 C046     		nop
  78              		@ sp needed
  79 0004 7047     		bx	lr
  80              		.cfi_endproc
  81              	.LFE39:
  82              		.size	port_unlock, .-port_unlock
  83 0006 C046     		.section	.text.queue_init,"ax",%progbits
  84              		.align	1
  85              		.p2align 4,,15
  86              		.syntax unified
  87              		.code	16
  88              		.thumb_func
  89              		.fpu softvfp
  90              		.type	queue_init, %function
  91              	queue_init:
  92              	.LFB60:
  93              		.file 3 "ChibiOS/os/rt/include/chschd.h"
  94              		.loc 3 602 0
  95              		.cfi_startproc
  96              		@ args = 0, pretend = 0, frame = 8
  97              		@ frame_needed = 0, uses_anonymous_args = 0
  98              		@ link register save eliminated.
  99 0000 82B0     		sub	sp, sp, #8
 100              		.cfi_def_cfa_offset 8
 101 0002 0190     		str	r0, [sp, #4]
 102              		.loc 3 604 0
 103 0004 019B     		ldr	r3, [sp, #4]
 104 0006 019A     		ldr	r2, [sp, #4]
 105 0008 1A60     		str	r2, [r3]
 106              		.loc 3 605 0
 107 000a 019B     		ldr	r3, [sp, #4]
 108 000c 019A     		ldr	r2, [sp, #4]
 109 000e 5A60     		str	r2, [r3, #4]
 110              		.loc 3 606 0
 111 0010 C046     		nop
 112 0012 02B0     		add	sp, sp, #8
 113              		@ sp needed
 114 0014 7047     		bx	lr
ARM GAS  /tmp/ccSfq7o4.s 			page 3


 115              		.cfi_endproc
 116              	.LFE60:
 117              		.size	queue_init, .-queue_init
 118 0016 C046     		.section	.text.queue_notempty,"ax",%progbits
 119              		.align	1
 120              		.p2align 4,,15
 121              		.syntax unified
 122              		.code	16
 123              		.thumb_func
 124              		.fpu softvfp
 125              		.type	queue_notempty, %function
 126              	queue_notempty:
 127              	.LFB62:
 128              		.loc 3 629 0
 129              		.cfi_startproc
 130              		@ args = 0, pretend = 0, frame = 8
 131              		@ frame_needed = 0, uses_anonymous_args = 0
 132              		@ link register save eliminated.
 133 0000 82B0     		sub	sp, sp, #8
 134              		.cfi_def_cfa_offset 8
 135 0002 0190     		str	r0, [sp, #4]
 136              		.loc 3 631 0
 137 0004 019B     		ldr	r3, [sp, #4]
 138 0006 1A68     		ldr	r2, [r3]
 139 0008 019B     		ldr	r3, [sp, #4]
 140 000a D31A     		subs	r3, r2, r3
 141 000c 5A1E     		subs	r2, r3, #1
 142 000e 9341     		sbcs	r3, r3, r2
 143 0010 DBB2     		uxtb	r3, r3
 144              		.loc 3 632 0
 145 0012 1800     		movs	r0, r3
 146 0014 02B0     		add	sp, sp, #8
 147              		@ sp needed
 148 0016 7047     		bx	lr
 149              		.cfi_endproc
 150              	.LFE62:
 151              		.size	queue_notempty, .-queue_notempty
 152              		.section	.text.queue_prio_insert,"ax",%progbits
 153              		.align	1
 154              		.p2align 4,,15
 155              		.syntax unified
 156              		.code	16
 157              		.thumb_func
 158              		.fpu softvfp
 159              		.type	queue_prio_insert, %function
 160              	queue_prio_insert:
 161              	.LFB65:
 162              		.loc 3 651 0
 163              		.cfi_startproc
 164              		@ args = 0, pretend = 0, frame = 16
 165              		@ frame_needed = 0, uses_anonymous_args = 0
 166              		@ link register save eliminated.
 167 0000 84B0     		sub	sp, sp, #16
 168              		.cfi_def_cfa_offset 16
 169 0002 0190     		str	r0, [sp, #4]
 170 0004 0091     		str	r1, [sp]
 171              		.loc 3 653 0
ARM GAS  /tmp/ccSfq7o4.s 			page 4


 172 0006 009B     		ldr	r3, [sp]
 173 0008 0393     		str	r3, [sp, #12]
 174              	.L8:
 175              		.loc 3 655 0 discriminator 2
 176 000a 039B     		ldr	r3, [sp, #12]
 177 000c 1B68     		ldr	r3, [r3]
 178 000e 0393     		str	r3, [sp, #12]
 179              		.loc 3 656 0 discriminator 2
 180 0010 039A     		ldr	r2, [sp, #12]
 181 0012 009B     		ldr	r3, [sp]
 182 0014 9A42     		cmp	r2, r3
 183 0016 05D0     		beq	.L7
 184              		.loc 3 656 0 is_stmt 0 discriminator 1
 185 0018 039B     		ldr	r3, [sp, #12]
 186 001a 9A68     		ldr	r2, [r3, #8]
 187 001c 019B     		ldr	r3, [sp, #4]
 188 001e 9B68     		ldr	r3, [r3, #8]
 189 0020 9A42     		cmp	r2, r3
 190 0022 F2D2     		bcs	.L8
 191              	.L7:
 192              		.loc 3 657 0 is_stmt 1
 193 0024 019B     		ldr	r3, [sp, #4]
 194 0026 039A     		ldr	r2, [sp, #12]
 195 0028 1A60     		str	r2, [r3]
 196              		.loc 3 658 0
 197 002a 039B     		ldr	r3, [sp, #12]
 198 002c 5A68     		ldr	r2, [r3, #4]
 199 002e 019B     		ldr	r3, [sp, #4]
 200 0030 5A60     		str	r2, [r3, #4]
 201              		.loc 3 659 0
 202 0032 019B     		ldr	r3, [sp, #4]
 203 0034 5B68     		ldr	r3, [r3, #4]
 204 0036 019A     		ldr	r2, [sp, #4]
 205 0038 1A60     		str	r2, [r3]
 206              		.loc 3 660 0
 207 003a 039B     		ldr	r3, [sp, #12]
 208 003c 019A     		ldr	r2, [sp, #4]
 209 003e 5A60     		str	r2, [r3, #4]
 210              		.loc 3 661 0
 211 0040 C046     		nop
 212 0042 04B0     		add	sp, sp, #16
 213              		@ sp needed
 214 0044 7047     		bx	lr
 215              		.cfi_endproc
 216              	.LFE65:
 217              		.size	queue_prio_insert, .-queue_prio_insert
 218 0046 C046     		.section	.text.queue_fifo_remove,"ax",%progbits
 219              		.align	1
 220              		.p2align 4,,15
 221              		.syntax unified
 222              		.code	16
 223              		.thumb_func
 224              		.fpu softvfp
 225              		.type	queue_fifo_remove, %function
 226              	queue_fifo_remove:
 227              	.LFB67:
 228              		.loc 3 671 0
ARM GAS  /tmp/ccSfq7o4.s 			page 5


 229              		.cfi_startproc
 230              		@ args = 0, pretend = 0, frame = 16
 231              		@ frame_needed = 0, uses_anonymous_args = 0
 232              		@ link register save eliminated.
 233 0000 84B0     		sub	sp, sp, #16
 234              		.cfi_def_cfa_offset 16
 235 0002 0190     		str	r0, [sp, #4]
 236              		.loc 3 672 0
 237 0004 019B     		ldr	r3, [sp, #4]
 238 0006 1B68     		ldr	r3, [r3]
 239 0008 0393     		str	r3, [sp, #12]
 240              		.loc 3 674 0
 241 000a 039B     		ldr	r3, [sp, #12]
 242 000c 1A68     		ldr	r2, [r3]
 243 000e 019B     		ldr	r3, [sp, #4]
 244 0010 1A60     		str	r2, [r3]
 245              		.loc 3 675 0
 246 0012 019B     		ldr	r3, [sp, #4]
 247 0014 1B68     		ldr	r3, [r3]
 248 0016 019A     		ldr	r2, [sp, #4]
 249 0018 5A60     		str	r2, [r3, #4]
 250              		.loc 3 677 0
 251 001a 039B     		ldr	r3, [sp, #12]
 252              		.loc 3 678 0
 253 001c 1800     		movs	r0, r3
 254 001e 04B0     		add	sp, sp, #16
 255              		@ sp needed
 256 0020 7047     		bx	lr
 257              		.cfi_endproc
 258              	.LFE67:
 259              		.size	queue_fifo_remove, .-queue_fifo_remove
 260 0022 C046     		.section	.text.chSysLock,"ax",%progbits
 261              		.align	1
 262              		.p2align 4,,15
 263              		.syntax unified
 264              		.code	16
 265              		.thumb_func
 266              		.fpu softvfp
 267              		.type	chSysLock, %function
 268              	chSysLock:
 269              	.LFB77:
 270              		.file 4 "ChibiOS/os/rt/include/chsys.h"
 271              		.loc 4 346 0
 272              		.cfi_startproc
 273              		@ args = 0, pretend = 0, frame = 0
 274              		@ frame_needed = 0, uses_anonymous_args = 0
 275 0000 10B5     		push	{r4, lr}
 276              		.cfi_def_cfa_offset 8
 277              		.cfi_offset 4, -8
 278              		.cfi_offset 14, -4
 279              		.loc 4 348 0
 280 0002 FFF7FEFF 		bl	port_lock
 281              		.loc 4 350 0
 282 0006 FFF7FEFF 		bl	_dbg_check_lock
 283              		.loc 4 351 0
 284 000a C046     		nop
 285              		@ sp needed
ARM GAS  /tmp/ccSfq7o4.s 			page 6


 286 000c 10BD     		pop	{r4, pc}
 287              		.cfi_endproc
 288              	.LFE77:
 289              		.size	chSysLock, .-chSysLock
 290 000e C046     		.section	.text.chSysUnlock,"ax",%progbits
 291              		.align	1
 292              		.p2align 4,,15
 293              		.syntax unified
 294              		.code	16
 295              		.thumb_func
 296              		.fpu softvfp
 297              		.type	chSysUnlock, %function
 298              	chSysUnlock:
 299              	.LFB78:
 300              		.loc 4 358 0
 301              		.cfi_startproc
 302              		@ args = 0, pretend = 0, frame = 0
 303              		@ frame_needed = 0, uses_anonymous_args = 0
 304 0000 10B5     		push	{r4, lr}
 305              		.cfi_def_cfa_offset 8
 306              		.cfi_offset 4, -8
 307              		.cfi_offset 14, -4
 308              		.loc 4 360 0
 309 0002 FFF7FEFF 		bl	_dbg_check_unlock
 310              		.loc 4 367 0
 311 0006 0A4B     		ldr	r3, .L14
 312 0008 1A68     		ldr	r2, [r3]
 313 000a 094B     		ldr	r3, .L14
 314 000c 9A42     		cmp	r2, r3
 315 000e 0BD0     		beq	.L13
 316              		.loc 4 367 0 is_stmt 0 discriminator 2
 317 0010 074B     		ldr	r3, .L14
 318 0012 9B69     		ldr	r3, [r3, #24]
 319 0014 9A68     		ldr	r2, [r3, #8]
 320 0016 064B     		ldr	r3, .L14
 321 0018 1B68     		ldr	r3, [r3]
 322 001a 9B68     		ldr	r3, [r3, #8]
 323 001c 9A42     		cmp	r2, r3
 324 001e 03D2     		bcs	.L13
 325              		.loc 4 367 0 discriminator 3
 326 0020 044B     		ldr	r3, .L14+4
 327 0022 1800     		movs	r0, r3
 328 0024 FFF7FEFF 		bl	chSysHalt
 329              	.L13:
 330              		.loc 4 371 0 is_stmt 1
 331 0028 FFF7FEFF 		bl	port_unlock
 332              		.loc 4 372 0
 333 002c C046     		nop
 334              		@ sp needed
 335 002e 10BD     		pop	{r4, pc}
 336              	.L15:
 337              		.align	2
 338              	.L14:
 339 0030 00000000 		.word	ch
 340 0034 00000000 		.word	__func__.4993
 341              		.cfi_endproc
 342              	.LFE78:
ARM GAS  /tmp/ccSfq7o4.s 			page 7


 343              		.size	chSysUnlock, .-chSysUnlock
 344              		.section	.text.chThdGetSelfX,"ax",%progbits
 345              		.align	1
 346              		.p2align 4,,15
 347              		.syntax unified
 348              		.code	16
 349              		.thumb_func
 350              		.fpu softvfp
 351              		.type	chThdGetSelfX, %function
 352              	chThdGetSelfX:
 353              	.LFB99:
 354              		.file 5 "ChibiOS/os/rt/include/chthreads.h"
 355              		.loc 5 174 0
 356              		.cfi_startproc
 357              		@ args = 0, pretend = 0, frame = 0
 358              		@ frame_needed = 0, uses_anonymous_args = 0
 359              		@ link register save eliminated.
 360              		.loc 5 176 0
 361 0000 014B     		ldr	r3, .L18
 362 0002 9B69     		ldr	r3, [r3, #24]
 363              		.loc 5 177 0
 364 0004 1800     		movs	r0, r3
 365              		@ sp needed
 366 0006 7047     		bx	lr
 367              	.L19:
 368              		.align	2
 369              	.L18:
 370 0008 00000000 		.word	ch
 371              		.cfi_endproc
 372              	.LFE99:
 373              		.size	chThdGetSelfX, .-chThdGetSelfX
 374              		.section	.text.chMtxGetNextMutexS,"ax",%progbits
 375              		.align	1
 376              		.p2align 4,,15
 377              		.syntax unified
 378              		.code	16
 379              		.thumb_func
 380              		.fpu softvfp
 381              		.type	chMtxGetNextMutexS, %function
 382              	chMtxGetNextMutexS:
 383              	.LFB125:
 384              		.file 6 "ChibiOS/os/rt/include/chmtx.h"
 385              		.loc 6 143 0
 386              		.cfi_startproc
 387              		@ args = 0, pretend = 0, frame = 0
 388              		@ frame_needed = 0, uses_anonymous_args = 0
 389 0000 10B5     		push	{r4, lr}
 390              		.cfi_def_cfa_offset 8
 391              		.cfi_offset 4, -8
 392              		.cfi_offset 14, -4
 393              		.loc 6 145 0
 394 0002 FFF7FEFF 		bl	chThdGetSelfX
 395 0006 0300     		movs	r3, r0
 396 0008 DB6B     		ldr	r3, [r3, #60]
 397              		.loc 6 146 0
 398 000a 1800     		movs	r0, r3
 399              		@ sp needed
ARM GAS  /tmp/ccSfq7o4.s 			page 8


 400 000c 10BD     		pop	{r4, pc}
 401              		.cfi_endproc
 402              	.LFE125:
 403              		.size	chMtxGetNextMutexS, .-chMtxGetNextMutexS
 404 000e C046     		.section	.text.chCondObjectInit,"ax",%progbits
 405              		.align	1
 406              		.p2align 4,,15
 407              		.global	chCondObjectInit
 408              		.syntax unified
 409              		.code	16
 410              		.thumb_func
 411              		.fpu softvfp
 412              		.type	chCondObjectInit, %function
 413              	chCondObjectInit:
 414              	.LFB152:
 415              		.file 7 "ChibiOS/os/rt/src/chcond.c"
 416              		.loc 7 75 0
 417              		.cfi_startproc
 418              		@ args = 0, pretend = 0, frame = 8
 419              		@ frame_needed = 0, uses_anonymous_args = 0
 420 0000 00B5     		push	{lr}
 421              		.cfi_def_cfa_offset 4
 422              		.cfi_offset 14, -4
 423 0002 83B0     		sub	sp, sp, #12
 424              		.cfi_def_cfa_offset 16
 425 0004 0190     		str	r0, [sp, #4]
 426              		.loc 7 77 0
 427 0006 019B     		ldr	r3, [sp, #4]
 428 0008 002B     		cmp	r3, #0
 429 000a 03D1     		bne	.L23
 430              		.loc 7 77 0 is_stmt 0 discriminator 2
 431 000c 054B     		ldr	r3, .L24
 432 000e 1800     		movs	r0, r3
 433 0010 FFF7FEFF 		bl	chSysHalt
 434              	.L23:
 435              		.loc 7 79 0 is_stmt 1
 436 0014 019B     		ldr	r3, [sp, #4]
 437 0016 1800     		movs	r0, r3
 438 0018 FFF7FEFF 		bl	queue_init
 439              		.loc 7 80 0
 440 001c C046     		nop
 441 001e 03B0     		add	sp, sp, #12
 442              		@ sp needed
 443 0020 00BD     		pop	{pc}
 444              	.L25:
 445 0022 C046     		.align	2
 446              	.L24:
 447 0024 00000000 		.word	__func__.5696
 448              		.cfi_endproc
 449              	.LFE152:
 450              		.size	chCondObjectInit, .-chCondObjectInit
 451              		.section	.text.chCondSignal,"ax",%progbits
 452              		.align	1
 453              		.p2align 4,,15
 454              		.global	chCondSignal
 455              		.syntax unified
 456              		.code	16
ARM GAS  /tmp/ccSfq7o4.s 			page 9


 457              		.thumb_func
 458              		.fpu softvfp
 459              		.type	chCondSignal, %function
 460              	chCondSignal:
 461              	.LFB153:
 462              		.loc 7 89 0
 463              		.cfi_startproc
 464              		@ args = 0, pretend = 0, frame = 8
 465              		@ frame_needed = 0, uses_anonymous_args = 0
 466 0000 00B5     		push	{lr}
 467              		.cfi_def_cfa_offset 4
 468              		.cfi_offset 14, -4
 469 0002 83B0     		sub	sp, sp, #12
 470              		.cfi_def_cfa_offset 16
 471 0004 0190     		str	r0, [sp, #4]
 472              		.loc 7 91 0
 473 0006 019B     		ldr	r3, [sp, #4]
 474 0008 002B     		cmp	r3, #0
 475 000a 03D1     		bne	.L27
 476              		.loc 7 91 0 is_stmt 0 discriminator 2
 477 000c 0C4B     		ldr	r3, .L29
 478 000e 1800     		movs	r0, r3
 479 0010 FFF7FEFF 		bl	chSysHalt
 480              	.L27:
 481              		.loc 7 93 0 is_stmt 1
 482 0014 FFF7FEFF 		bl	chSysLock
 483              		.loc 7 94 0
 484 0018 019B     		ldr	r3, [sp, #4]
 485 001a 1800     		movs	r0, r3
 486 001c FFF7FEFF 		bl	queue_notempty
 487 0020 031E     		subs	r3, r0, #0
 488 0022 08D0     		beq	.L28
 489              		.loc 7 95 0
 490 0024 019B     		ldr	r3, [sp, #4]
 491 0026 1800     		movs	r0, r3
 492 0028 FFF7FEFF 		bl	queue_fifo_remove
 493 002c 0300     		movs	r3, r0
 494 002e 0021     		movs	r1, #0
 495 0030 1800     		movs	r0, r3
 496 0032 FFF7FEFF 		bl	chSchWakeupS
 497              	.L28:
 498              		.loc 7 97 0
 499 0036 FFF7FEFF 		bl	chSysUnlock
 500              		.loc 7 98 0
 501 003a C046     		nop
 502 003c 03B0     		add	sp, sp, #12
 503              		@ sp needed
 504 003e 00BD     		pop	{pc}
 505              	.L30:
 506              		.align	2
 507              	.L29:
 508 0040 00000000 		.word	__func__.5700
 509              		.cfi_endproc
 510              	.LFE153:
 511              		.size	chCondSignal, .-chCondSignal
 512              		.section	.text.chCondSignalI,"ax",%progbits
 513              		.align	1
ARM GAS  /tmp/ccSfq7o4.s 			page 10


 514              		.p2align 4,,15
 515              		.global	chCondSignalI
 516              		.syntax unified
 517              		.code	16
 518              		.thumb_func
 519              		.fpu softvfp
 520              		.type	chCondSignalI, %function
 521              	chCondSignalI:
 522              	.LFB154:
 523              		.loc 7 111 0
 524              		.cfi_startproc
 525              		@ args = 0, pretend = 0, frame = 16
 526              		@ frame_needed = 0, uses_anonymous_args = 0
 527 0000 00B5     		push	{lr}
 528              		.cfi_def_cfa_offset 4
 529              		.cfi_offset 14, -4
 530 0002 85B0     		sub	sp, sp, #20
 531              		.cfi_def_cfa_offset 24
 532 0004 0190     		str	r0, [sp, #4]
 533              		.loc 7 113 0
 534 0006 FFF7FEFF 		bl	chDbgCheckClassI
 535              		.loc 7 114 0
 536 000a 019B     		ldr	r3, [sp, #4]
 537 000c 002B     		cmp	r3, #0
 538 000e 03D1     		bne	.L32
 539              		.loc 7 114 0 is_stmt 0 discriminator 2
 540 0010 0C4B     		ldr	r3, .L35
 541 0012 1800     		movs	r0, r3
 542 0014 FFF7FEFF 		bl	chSysHalt
 543              	.L32:
 544              		.loc 7 116 0 is_stmt 1
 545 0018 019B     		ldr	r3, [sp, #4]
 546 001a 1800     		movs	r0, r3
 547 001c FFF7FEFF 		bl	queue_notempty
 548 0020 031E     		subs	r3, r0, #0
 549 0022 0CD0     		beq	.L34
 550              	.LBB10:
 551              		.loc 7 117 0
 552 0024 019B     		ldr	r3, [sp, #4]
 553 0026 1800     		movs	r0, r3
 554 0028 FFF7FEFF 		bl	queue_fifo_remove
 555 002c 0300     		movs	r3, r0
 556 002e 0393     		str	r3, [sp, #12]
 557              		.loc 7 118 0
 558 0030 039B     		ldr	r3, [sp, #12]
 559 0032 0022     		movs	r2, #0
 560 0034 5A62     		str	r2, [r3, #36]
 561              		.loc 7 119 0
 562 0036 039B     		ldr	r3, [sp, #12]
 563 0038 1800     		movs	r0, r3
 564 003a FFF7FEFF 		bl	chSchReadyI
 565              	.L34:
 566              	.LBE10:
 567              		.loc 7 121 0
 568 003e C046     		nop
 569 0040 05B0     		add	sp, sp, #20
 570              		@ sp needed
ARM GAS  /tmp/ccSfq7o4.s 			page 11


 571 0042 00BD     		pop	{pc}
 572              	.L36:
 573              		.align	2
 574              	.L35:
 575 0044 00000000 		.word	__func__.5704
 576              		.cfi_endproc
 577              	.LFE154:
 578              		.size	chCondSignalI, .-chCondSignalI
 579              		.section	.text.chCondBroadcast,"ax",%progbits
 580              		.align	1
 581              		.p2align 4,,15
 582              		.global	chCondBroadcast
 583              		.syntax unified
 584              		.code	16
 585              		.thumb_func
 586              		.fpu softvfp
 587              		.type	chCondBroadcast, %function
 588              	chCondBroadcast:
 589              	.LFB155:
 590              		.loc 7 130 0
 591              		.cfi_startproc
 592              		@ args = 0, pretend = 0, frame = 8
 593              		@ frame_needed = 0, uses_anonymous_args = 0
 594 0000 00B5     		push	{lr}
 595              		.cfi_def_cfa_offset 4
 596              		.cfi_offset 14, -4
 597 0002 83B0     		sub	sp, sp, #12
 598              		.cfi_def_cfa_offset 16
 599 0004 0190     		str	r0, [sp, #4]
 600              		.loc 7 132 0
 601 0006 FFF7FEFF 		bl	chSysLock
 602              		.loc 7 133 0
 603 000a 019B     		ldr	r3, [sp, #4]
 604 000c 1800     		movs	r0, r3
 605 000e FFF7FEFF 		bl	chCondBroadcastI
 606              		.loc 7 134 0
 607 0012 FFF7FEFF 		bl	chSchRescheduleS
 608              		.loc 7 135 0
 609 0016 FFF7FEFF 		bl	chSysUnlock
 610              		.loc 7 136 0
 611 001a C046     		nop
 612 001c 03B0     		add	sp, sp, #12
 613              		@ sp needed
 614 001e 00BD     		pop	{pc}
 615              		.cfi_endproc
 616              	.LFE155:
 617              		.size	chCondBroadcast, .-chCondBroadcast
 618              		.section	.text.chCondBroadcastI,"ax",%progbits
 619              		.align	1
 620              		.p2align 4,,15
 621              		.global	chCondBroadcastI
 622              		.syntax unified
 623              		.code	16
 624              		.thumb_func
 625              		.fpu softvfp
 626              		.type	chCondBroadcastI, %function
 627              	chCondBroadcastI:
ARM GAS  /tmp/ccSfq7o4.s 			page 12


 628              	.LFB156:
 629              		.loc 7 149 0
 630              		.cfi_startproc
 631              		@ args = 0, pretend = 0, frame = 8
 632              		@ frame_needed = 0, uses_anonymous_args = 0
 633 0000 00B5     		push	{lr}
 634              		.cfi_def_cfa_offset 4
 635              		.cfi_offset 14, -4
 636 0002 83B0     		sub	sp, sp, #12
 637              		.cfi_def_cfa_offset 16
 638 0004 0190     		str	r0, [sp, #4]
 639              		.loc 7 151 0
 640 0006 FFF7FEFF 		bl	chDbgCheckClassI
 641              		.loc 7 152 0
 642 000a 019B     		ldr	r3, [sp, #4]
 643 000c 002B     		cmp	r3, #0
 644 000e 10D1     		bne	.L40
 645              		.loc 7 152 0 is_stmt 0 discriminator 2
 646 0010 0C4B     		ldr	r3, .L42
 647 0012 1800     		movs	r0, r3
 648 0014 FFF7FEFF 		bl	chSysHalt
 649              		.loc 7 157 0 is_stmt 1 discriminator 2
 650 0018 0BE0     		b	.L40
 651              	.L41:
 652              		.loc 7 158 0
 653 001a 019B     		ldr	r3, [sp, #4]
 654 001c 1800     		movs	r0, r3
 655 001e FFF7FEFF 		bl	queue_fifo_remove
 656 0022 0300     		movs	r3, r0
 657 0024 1800     		movs	r0, r3
 658 0026 FFF7FEFF 		bl	chSchReadyI
 659 002a 0300     		movs	r3, r0
 660 002c 0222     		movs	r2, #2
 661 002e 5242     		rsbs	r2, r2, #0
 662 0030 5A62     		str	r2, [r3, #36]
 663              	.L40:
 664              		.loc 7 157 0
 665 0032 019B     		ldr	r3, [sp, #4]
 666 0034 1800     		movs	r0, r3
 667 0036 FFF7FEFF 		bl	queue_notempty
 668 003a 031E     		subs	r3, r0, #0
 669 003c EDD1     		bne	.L41
 670              		.loc 7 160 0
 671 003e C046     		nop
 672 0040 03B0     		add	sp, sp, #12
 673              		@ sp needed
 674 0042 00BD     		pop	{pc}
 675              	.L43:
 676              		.align	2
 677              	.L42:
 678 0044 00000000 		.word	__func__.5712
 679              		.cfi_endproc
 680              	.LFE156:
 681              		.size	chCondBroadcastI, .-chCondBroadcastI
 682              		.section	.text.chCondWait,"ax",%progbits
 683              		.align	1
 684              		.p2align 4,,15
ARM GAS  /tmp/ccSfq7o4.s 			page 13


 685              		.global	chCondWait
 686              		.syntax unified
 687              		.code	16
 688              		.thumb_func
 689              		.fpu softvfp
 690              		.type	chCondWait, %function
 691              	chCondWait:
 692              	.LFB157:
 693              		.loc 7 179 0
 694              		.cfi_startproc
 695              		@ args = 0, pretend = 0, frame = 16
 696              		@ frame_needed = 0, uses_anonymous_args = 0
 697 0000 00B5     		push	{lr}
 698              		.cfi_def_cfa_offset 4
 699              		.cfi_offset 14, -4
 700 0002 85B0     		sub	sp, sp, #20
 701              		.cfi_def_cfa_offset 24
 702 0004 0190     		str	r0, [sp, #4]
 703              		.loc 7 182 0
 704 0006 FFF7FEFF 		bl	chSysLock
 705              		.loc 7 183 0
 706 000a 019B     		ldr	r3, [sp, #4]
 707 000c 1800     		movs	r0, r3
 708 000e FFF7FEFF 		bl	chCondWaitS
 709 0012 0300     		movs	r3, r0
 710 0014 0393     		str	r3, [sp, #12]
 711              		.loc 7 184 0
 712 0016 FFF7FEFF 		bl	chSysUnlock
 713              		.loc 7 185 0
 714 001a 039B     		ldr	r3, [sp, #12]
 715              		.loc 7 186 0
 716 001c 1800     		movs	r0, r3
 717 001e 05B0     		add	sp, sp, #20
 718              		@ sp needed
 719 0020 00BD     		pop	{pc}
 720              		.cfi_endproc
 721              	.LFE157:
 722              		.size	chCondWait, .-chCondWait
 723 0022 C046     		.section	.text.chCondWaitS,"ax",%progbits
 724              		.align	1
 725              		.p2align 4,,15
 726              		.global	chCondWaitS
 727              		.syntax unified
 728              		.code	16
 729              		.thumb_func
 730              		.fpu softvfp
 731              		.type	chCondWaitS, %function
 732              	chCondWaitS:
 733              	.LFB158:
 734              		.loc 7 205 0
 735              		.cfi_startproc
 736              		@ args = 0, pretend = 0, frame = 24
 737              		@ frame_needed = 0, uses_anonymous_args = 0
 738 0000 00B5     		push	{lr}
 739              		.cfi_def_cfa_offset 4
 740              		.cfi_offset 14, -4
 741 0002 87B0     		sub	sp, sp, #28
ARM GAS  /tmp/ccSfq7o4.s 			page 14


 742              		.cfi_def_cfa_offset 32
 743 0004 0190     		str	r0, [sp, #4]
 744              		.loc 7 206 0
 745 0006 194B     		ldr	r3, .L51
 746 0008 9B69     		ldr	r3, [r3, #24]
 747 000a 0593     		str	r3, [sp, #20]
 748              		.loc 7 210 0
 749 000c FFF7FEFF 		bl	chDbgCheckClassS
 750              		.loc 7 211 0
 751 0010 019B     		ldr	r3, [sp, #4]
 752 0012 002B     		cmp	r3, #0
 753 0014 03D1     		bne	.L50
 754              		.loc 7 211 0 is_stmt 0 discriminator 2
 755 0016 164B     		ldr	r3, .L51+4
 756 0018 1800     		movs	r0, r3
 757 001a FFF7FEFF 		bl	chSysHalt
 758              	.L50:
 759              		.loc 7 212 0 is_stmt 1 discriminator 1
 760 001e 059B     		ldr	r3, [sp, #20]
 761 0020 DB6B     		ldr	r3, [r3, #60]
 762 0022 002B     		cmp	r3, #0
 763 0024 03D1     		bne	.L48
 764              		.loc 7 212 0 is_stmt 0 discriminator 2
 765 0026 124B     		ldr	r3, .L51+4
 766 0028 1800     		movs	r0, r3
 767 002a FFF7FEFF 		bl	chSysHalt
 768              	.L48:
 769              		.loc 7 215 0 is_stmt 1
 770 002e FFF7FEFF 		bl	chMtxGetNextMutexS
 771 0032 0300     		movs	r3, r0
 772 0034 0493     		str	r3, [sp, #16]
 773              		.loc 7 216 0
 774 0036 049B     		ldr	r3, [sp, #16]
 775 0038 1800     		movs	r0, r3
 776 003a FFF7FEFF 		bl	chMtxUnlockS
 777              		.loc 7 220 0
 778 003e 059B     		ldr	r3, [sp, #20]
 779 0040 019A     		ldr	r2, [sp, #4]
 780 0042 5A62     		str	r2, [r3, #36]
 781              		.loc 7 221 0
 782 0044 019A     		ldr	r2, [sp, #4]
 783 0046 059B     		ldr	r3, [sp, #20]
 784 0048 1100     		movs	r1, r2
 785 004a 1800     		movs	r0, r3
 786 004c FFF7FEFF 		bl	queue_prio_insert
 787              		.loc 7 222 0
 788 0050 0720     		movs	r0, #7
 789 0052 FFF7FEFF 		bl	chSchGoSleepS
 790              		.loc 7 223 0
 791 0056 059B     		ldr	r3, [sp, #20]
 792 0058 5B6A     		ldr	r3, [r3, #36]
 793 005a 0393     		str	r3, [sp, #12]
 794              		.loc 7 224 0
 795 005c 049B     		ldr	r3, [sp, #16]
 796 005e 1800     		movs	r0, r3
 797 0060 FFF7FEFF 		bl	chMtxLockS
 798              		.loc 7 226 0
ARM GAS  /tmp/ccSfq7o4.s 			page 15


 799 0064 039B     		ldr	r3, [sp, #12]
 800              		.loc 7 227 0
 801 0066 1800     		movs	r0, r3
 802 0068 07B0     		add	sp, sp, #28
 803              		@ sp needed
 804 006a 00BD     		pop	{pc}
 805              	.L52:
 806              		.align	2
 807              	.L51:
 808 006c 00000000 		.word	ch
 809 0070 00000000 		.word	__func__.5726
 810              		.cfi_endproc
 811              	.LFE158:
 812              		.size	chCondWaitS, .-chCondWaitS
 813              		.section	.text.chCondWaitTimeout,"ax",%progbits
 814              		.align	1
 815              		.p2align 4,,15
 816              		.global	chCondWaitTimeout
 817              		.syntax unified
 818              		.code	16
 819              		.thumb_func
 820              		.fpu softvfp
 821              		.type	chCondWaitTimeout, %function
 822              	chCondWaitTimeout:
 823              	.LFB159:
 824              		.loc 7 258 0
 825              		.cfi_startproc
 826              		@ args = 0, pretend = 0, frame = 16
 827              		@ frame_needed = 0, uses_anonymous_args = 0
 828 0000 00B5     		push	{lr}
 829              		.cfi_def_cfa_offset 4
 830              		.cfi_offset 14, -4
 831 0002 85B0     		sub	sp, sp, #20
 832              		.cfi_def_cfa_offset 24
 833 0004 0190     		str	r0, [sp, #4]
 834 0006 0A00     		movs	r2, r1
 835 0008 6B46     		mov	r3, sp
 836 000a 0233     		adds	r3, r3, #2
 837 000c 1A80     		strh	r2, [r3]
 838              		.loc 7 261 0
 839 000e FFF7FEFF 		bl	chSysLock
 840              		.loc 7 262 0
 841 0012 6B46     		mov	r3, sp
 842 0014 0233     		adds	r3, r3, #2
 843 0016 1A88     		ldrh	r2, [r3]
 844 0018 019B     		ldr	r3, [sp, #4]
 845 001a 1100     		movs	r1, r2
 846 001c 1800     		movs	r0, r3
 847 001e FFF7FEFF 		bl	chCondWaitTimeoutS
 848 0022 0300     		movs	r3, r0
 849 0024 0393     		str	r3, [sp, #12]
 850              		.loc 7 263 0
 851 0026 FFF7FEFF 		bl	chSysUnlock
 852              		.loc 7 265 0
 853 002a 039B     		ldr	r3, [sp, #12]
 854              		.loc 7 266 0
 855 002c 1800     		movs	r0, r3
ARM GAS  /tmp/ccSfq7o4.s 			page 16


 856 002e 05B0     		add	sp, sp, #20
 857              		@ sp needed
 858 0030 00BD     		pop	{pc}
 859              		.cfi_endproc
 860              	.LFE159:
 861              		.size	chCondWaitTimeout, .-chCondWaitTimeout
 862 0032 C046     		.section	.text.chCondWaitTimeoutS,"ax",%progbits
 863              		.align	1
 864              		.p2align 4,,15
 865              		.global	chCondWaitTimeoutS
 866              		.syntax unified
 867              		.code	16
 868              		.thumb_func
 869              		.fpu softvfp
 870              		.type	chCondWaitTimeoutS, %function
 871              	chCondWaitTimeoutS:
 872              	.LFB160:
 873              		.loc 7 296 0
 874              		.cfi_startproc
 875              		@ args = 0, pretend = 0, frame = 16
 876              		@ frame_needed = 0, uses_anonymous_args = 0
 877 0000 00B5     		push	{lr}
 878              		.cfi_def_cfa_offset 4
 879              		.cfi_offset 14, -4
 880 0002 85B0     		sub	sp, sp, #20
 881              		.cfi_def_cfa_offset 24
 882 0004 0190     		str	r0, [sp, #4]
 883 0006 0A00     		movs	r2, r1
 884 0008 6B46     		mov	r3, sp
 885 000a 0233     		adds	r3, r3, #2
 886 000c 1A80     		strh	r2, [r3]
 887              		.loc 7 300 0
 888 000e FFF7FEFF 		bl	chDbgCheckClassS
 889              		.loc 7 301 0
 890 0012 019B     		ldr	r3, [sp, #4]
 891 0014 002B     		cmp	r3, #0
 892 0016 04D0     		beq	.L56
 893              		.loc 7 301 0 is_stmt 0 discriminator 3
 894 0018 6B46     		mov	r3, sp
 895 001a 0233     		adds	r3, r3, #2
 896 001c 1B88     		ldrh	r3, [r3]
 897 001e 002B     		cmp	r3, #0
 898 0020 03D1     		bne	.L61
 899              	.L56:
 900              		.loc 7 301 0 discriminator 4
 901 0022 1A4B     		ldr	r3, .L62
 902 0024 1800     		movs	r0, r3
 903 0026 FFF7FEFF 		bl	chSysHalt
 904              	.L61:
 905              		.loc 7 302 0 is_stmt 1 discriminator 1
 906 002a 194B     		ldr	r3, .L62+4
 907 002c 9B69     		ldr	r3, [r3, #24]
 908 002e DB6B     		ldr	r3, [r3, #60]
 909 0030 002B     		cmp	r3, #0
 910 0032 03D1     		bne	.L58
 911              		.loc 7 302 0 is_stmt 0 discriminator 2
 912 0034 154B     		ldr	r3, .L62
ARM GAS  /tmp/ccSfq7o4.s 			page 17


 913 0036 1800     		movs	r0, r3
 914 0038 FFF7FEFF 		bl	chSysHalt
 915              	.L58:
 916              		.loc 7 305 0 is_stmt 1
 917 003c FFF7FEFF 		bl	chMtxGetNextMutexS
 918 0040 0300     		movs	r3, r0
 919 0042 0393     		str	r3, [sp, #12]
 920              		.loc 7 306 0
 921 0044 039B     		ldr	r3, [sp, #12]
 922 0046 1800     		movs	r0, r3
 923 0048 FFF7FEFF 		bl	chMtxUnlockS
 924              		.loc 7 310 0
 925 004c 104B     		ldr	r3, .L62+4
 926 004e 9B69     		ldr	r3, [r3, #24]
 927 0050 019A     		ldr	r2, [sp, #4]
 928 0052 5A62     		str	r2, [r3, #36]
 929              		.loc 7 311 0
 930 0054 0E4B     		ldr	r3, .L62+4
 931 0056 9B69     		ldr	r3, [r3, #24]
 932 0058 019A     		ldr	r2, [sp, #4]
 933 005a 1100     		movs	r1, r2
 934 005c 1800     		movs	r0, r3
 935 005e FFF7FEFF 		bl	queue_prio_insert
 936              		.loc 7 312 0
 937 0062 6B46     		mov	r3, sp
 938 0064 0233     		adds	r3, r3, #2
 939 0066 1B88     		ldrh	r3, [r3]
 940 0068 1900     		movs	r1, r3
 941 006a 0720     		movs	r0, #7
 942 006c FFF7FEFF 		bl	chSchGoSleepTimeoutS
 943 0070 0300     		movs	r3, r0
 944 0072 0293     		str	r3, [sp, #8]
 945              		.loc 7 313 0
 946 0074 029B     		ldr	r3, [sp, #8]
 947 0076 0133     		adds	r3, r3, #1
 948 0078 03D0     		beq	.L59
 949              		.loc 7 314 0
 950 007a 039B     		ldr	r3, [sp, #12]
 951 007c 1800     		movs	r0, r3
 952 007e FFF7FEFF 		bl	chMtxLockS
 953              	.L59:
 954              		.loc 7 317 0
 955 0082 029B     		ldr	r3, [sp, #8]
 956              		.loc 7 318 0
 957 0084 1800     		movs	r0, r3
 958 0086 05B0     		add	sp, sp, #20
 959              		@ sp needed
 960 0088 00BD     		pop	{pc}
 961              	.L63:
 962 008a C046     		.align	2
 963              	.L62:
 964 008c 00000000 		.word	__func__.5738
 965 0090 00000000 		.word	ch
 966              		.cfi_endproc
 967              	.LFE160:
 968              		.size	chCondWaitTimeoutS, .-chCondWaitTimeoutS
 969              		.section	.rodata.__func__.5696,"a",%progbits
ARM GAS  /tmp/ccSfq7o4.s 			page 18


 970              		.align	2
 971              		.type	__func__.5696, %object
 972              		.size	__func__.5696, 17
 973              	__func__.5696:
 974 0000 6368436F 		.ascii	"chCondObjectInit\000"
 974      6E644F62 
 974      6A656374 
 974      496E6974 
 974      00
 975              		.section	.rodata.__func__.5700,"a",%progbits
 976              		.align	2
 977              		.type	__func__.5700, %object
 978              		.size	__func__.5700, 13
 979              	__func__.5700:
 980 0000 6368436F 		.ascii	"chCondSignal\000"
 980      6E645369 
 980      676E616C 
 980      00
 981              		.section	.rodata.__func__.4993,"a",%progbits
 982              		.align	2
 983              		.type	__func__.4993, %object
 984              		.size	__func__.4993, 12
 985              	__func__.4993:
 986 0000 63685379 		.ascii	"chSysUnlock\000"
 986      73556E6C 
 986      6F636B00 
 987              		.section	.rodata.__func__.5704,"a",%progbits
 988              		.align	2
 989              		.type	__func__.5704, %object
 990              		.size	__func__.5704, 14
 991              	__func__.5704:
 992 0000 6368436F 		.ascii	"chCondSignalI\000"
 992      6E645369 
 992      676E616C 
 992      4900
 993              		.section	.rodata.__func__.5712,"a",%progbits
 994              		.align	2
 995              		.type	__func__.5712, %object
 996              		.size	__func__.5712, 17
 997              	__func__.5712:
 998 0000 6368436F 		.ascii	"chCondBroadcastI\000"
 998      6E644272 
 998      6F616463 
 998      61737449 
 998      00
 999              		.section	.rodata.__func__.5726,"a",%progbits
 1000              		.align	2
 1001              		.type	__func__.5726, %object
 1002              		.size	__func__.5726, 12
 1003              	__func__.5726:
 1004 0000 6368436F 		.ascii	"chCondWaitS\000"
 1004      6E645761 
 1004      69745300 
 1005              		.section	.rodata.__func__.5738,"a",%progbits
 1006              		.align	2
 1007              		.type	__func__.5738, %object
 1008              		.size	__func__.5738, 19
ARM GAS  /tmp/ccSfq7o4.s 			page 19


 1009              	__func__.5738:
 1010 0000 6368436F 		.ascii	"chCondWaitTimeoutS\000"
 1010      6E645761 
 1010      69745469 
 1010      6D656F75 
 1010      745300
 1011              		.text
 1012              	.Letext0:
 1013              		.file 8 "/home/felix/opt/gcc-arm-none-eabi-6-2017-q1-update/arm-none-eabi/include/machine/_default
 1014              		.file 9 "/home/felix/opt/gcc-arm-none-eabi-6-2017-q1-update/arm-none-eabi/include/sys/_stdint.h"
 1015              		.file 10 "ChibiOS/os/rt/ports/ARMCMx/compilers/GCC/chtypes.h"
 1016              		.file 11 "ChibiOS/os/rt/include/chsystypes.h"
 1017              		.file 12 "ChibiOS/os/rt/ports/ARMCMx/chcore.h"
 1018              		.file 13 "ChibiOS/os/rt/include/chdebug.h"
 1019              		.file 14 "ChibiOS/os/rt/include/chsem.h"
 1020              		.file 15 "ChibiOS/os/rt/include/chregistry.h"
 1021              		.file 16 "ChibiOS/os/ext/CMSIS/ST/STM32F0xx/system_stm32f0xx.h"
 1022              		.file 17 "ChibiOS/os/rt/include/chcond.h"