ARM GAS  /tmp/ccCfPn7s.s 			page 1


   1              		.cpu cortex-m0
   2              		.eabi_attribute 20, 1
   3              		.eabi_attribute 21, 1
   4              		.eabi_attribute 23, 3
   5              		.eabi_attribute 24, 1
   6              		.eabi_attribute 25, 1
   7              		.eabi_attribute 26, 1
   8              		.eabi_attribute 30, 6
   9              		.eabi_attribute 34, 0
  10              		.eabi_attribute 18, 4
  11              		.file	"chdebug.c"
  12              		.text
  13              	.Ltext0:
  14              		.cfi_sections	.debug_frame
  15              		.section	.text.port_lock,"ax",%progbits
  16              		.align	1
  17              		.p2align 4,,15
  18              		.syntax unified
  19              		.code	16
  20              		.thumb_func
  21              		.fpu softvfp
  22              		.type	port_lock, %function
  23              	port_lock:
  24              	.LFB38:
  25              		.file 1 "ChibiOS/os/rt/ports/ARMCMx/chcore_v6m.h"
  26              		.loc 1 330 0
  27              		.cfi_startproc
  28              		@ args = 0, pretend = 0, frame = 0
  29              		@ frame_needed = 0, uses_anonymous_args = 0
  30              		@ link register save eliminated.
  31              	.LBB6:
  32              	.LBB7:
  33              		.file 2 "ChibiOS/os/ext/CMSIS/include/core_cmFunc.h"
  34              		.loc 2 344 0
  35              		.syntax divided
  36              	@ 344 "ChibiOS/os/ext/CMSIS/include/core_cmFunc.h" 1
  37 0000 72B6     		cpsid i
  38              	@ 0 "" 2
  39              		.thumb
  40              		.syntax unified
  41              	.LBE7:
  42              	.LBE6:
  43              		.loc 1 333 0
  44 0002 C046     		nop
  45              		@ sp needed
  46 0004 7047     		bx	lr
  47              		.cfi_endproc
  48              	.LFE38:
  49              		.size	port_lock, .-port_lock
  50 0006 C046     		.section	.text.port_unlock,"ax",%progbits
  51              		.align	1
  52              		.p2align 4,,15
  53              		.syntax unified
  54              		.code	16
  55              		.thumb_func
  56              		.fpu softvfp
  57              		.type	port_unlock, %function
ARM GAS  /tmp/ccCfPn7s.s 			page 2


  58              	port_unlock:
  59              	.LFB39:
  60              		.loc 1 339 0
  61              		.cfi_startproc
  62              		@ args = 0, pretend = 0, frame = 0
  63              		@ frame_needed = 0, uses_anonymous_args = 0
  64              		@ link register save eliminated.
  65              	.LBB8:
  66              	.LBB9:
  67              		.loc 2 333 0
  68              		.syntax divided
  69              	@ 333 "ChibiOS/os/ext/CMSIS/include/core_cmFunc.h" 1
  70 0000 62B6     		cpsie i
  71              	@ 0 "" 2
  72              		.thumb
  73              		.syntax unified
  74              	.LBE9:
  75              	.LBE8:
  76              		.loc 1 342 0
  77 0002 C046     		nop
  78              		@ sp needed
  79 0004 7047     		bx	lr
  80              		.cfi_endproc
  81              	.LFE39:
  82              		.size	port_unlock, .-port_unlock
  83 0006 C046     		.section	.text.port_lock_from_isr,"ax",%progbits
  84              		.align	1
  85              		.p2align 4,,15
  86              		.syntax unified
  87              		.code	16
  88              		.thumb_func
  89              		.fpu softvfp
  90              		.type	port_lock_from_isr, %function
  91              	port_lock_from_isr:
  92              	.LFB40:
  93              		.loc 1 349 0
  94              		.cfi_startproc
  95              		@ args = 0, pretend = 0, frame = 0
  96              		@ frame_needed = 0, uses_anonymous_args = 0
  97 0000 10B5     		push	{r4, lr}
  98              		.cfi_def_cfa_offset 8
  99              		.cfi_offset 4, -8
 100              		.cfi_offset 14, -4
 101              		.loc 1 351 0
 102 0002 FFF7FEFF 		bl	port_lock
 103              		.loc 1 352 0
 104 0006 C046     		nop
 105              		@ sp needed
 106 0008 10BD     		pop	{r4, pc}
 107              		.cfi_endproc
 108              	.LFE40:
 109              		.size	port_lock_from_isr, .-port_lock_from_isr
 110 000a C046     		.section	.text.port_unlock_from_isr,"ax",%progbits
 111              		.align	1
 112              		.p2align 4,,15
 113              		.syntax unified
 114              		.code	16
ARM GAS  /tmp/ccCfPn7s.s 			page 3


 115              		.thumb_func
 116              		.fpu softvfp
 117              		.type	port_unlock_from_isr, %function
 118              	port_unlock_from_isr:
 119              	.LFB41:
 120              		.loc 1 359 0
 121              		.cfi_startproc
 122              		@ args = 0, pretend = 0, frame = 0
 123              		@ frame_needed = 0, uses_anonymous_args = 0
 124 0000 10B5     		push	{r4, lr}
 125              		.cfi_def_cfa_offset 8
 126              		.cfi_offset 4, -8
 127              		.cfi_offset 14, -4
 128              		.loc 1 361 0
 129 0002 FFF7FEFF 		bl	port_unlock
 130              		.loc 1 362 0
 131 0006 C046     		nop
 132              		@ sp needed
 133 0008 10BD     		pop	{r4, pc}
 134              		.cfi_endproc
 135              	.LFE41:
 136              		.size	port_unlock_from_isr, .-port_unlock_from_isr
 137 000a C046     		.section	.text.st_lld_get_counter,"ax",%progbits
 138              		.align	1
 139              		.p2align 4,,15
 140              		.syntax unified
 141              		.code	16
 142              		.thumb_func
 143              		.fpu softvfp
 144              		.type	st_lld_get_counter, %function
 145              	st_lld_get_counter:
 146              	.LFB46:
 147              		.file 3 "ChibiOS/os/hal/ports/STM32/LLD/TIMv1/st_lld.h"
 148              		.loc 3 139 0
 149              		.cfi_startproc
 150              		@ args = 0, pretend = 0, frame = 0
 151              		@ frame_needed = 0, uses_anonymous_args = 0
 152              		@ link register save eliminated.
 153              		.loc 3 141 0
 154 0000 024B     		ldr	r3, .L7
 155 0002 5B6A     		ldr	r3, [r3, #36]
 156 0004 9BB2     		uxth	r3, r3
 157              		.loc 3 142 0
 158 0006 1800     		movs	r0, r3
 159              		@ sp needed
 160 0008 7047     		bx	lr
 161              	.L8:
 162 000a C046     		.align	2
 163              	.L7:
 164 000c 00040040 		.word	1073742848
 165              		.cfi_endproc
 166              	.LFE46:
 167              		.size	st_lld_get_counter, .-st_lld_get_counter
 168              		.section	.text.port_timer_get_time,"ax",%progbits
 169              		.align	1
 170              		.p2align 4,,15
 171              		.syntax unified
ARM GAS  /tmp/ccCfPn7s.s 			page 4


 172              		.code	16
 173              		.thumb_func
 174              		.fpu softvfp
 175              		.type	port_timer_get_time, %function
 176              	port_timer_get_time:
 177              	.LFB55:
 178              		.file 4 "ChibiOS/os/rt/ports/ARMCMx/chcore_timer.h"
 179              		.loc 4 105 0
 180              		.cfi_startproc
 181              		@ args = 0, pretend = 0, frame = 0
 182              		@ frame_needed = 0, uses_anonymous_args = 0
 183 0000 10B5     		push	{r4, lr}
 184              		.cfi_def_cfa_offset 8
 185              		.cfi_offset 4, -8
 186              		.cfi_offset 14, -4
 187              		.loc 4 107 0
 188 0002 FFF7FEFF 		bl	st_lld_get_counter
 189 0006 0300     		movs	r3, r0
 190              		.loc 4 108 0
 191 0008 1800     		movs	r0, r3
 192              		@ sp needed
 193 000a 10BD     		pop	{r4, pc}
 194              		.cfi_endproc
 195              	.LFE55:
 196              		.size	port_timer_get_time, .-port_timer_get_time
 197              		.section	.text.chVTGetSystemTimeX,"ax",%progbits
 198              		.align	1
 199              		.p2align 4,,15
 200              		.syntax unified
 201              		.code	16
 202              		.thumb_func
 203              		.fpu softvfp
 204              		.type	chVTGetSystemTimeX, %function
 205              	chVTGetSystemTimeX:
 206              	.LFB85:
 207              		.file 5 "ChibiOS/os/rt/include/chvt.h"
 208              		.loc 5 228 0
 209              		.cfi_startproc
 210              		@ args = 0, pretend = 0, frame = 0
 211              		@ frame_needed = 0, uses_anonymous_args = 0
 212 0000 10B5     		push	{r4, lr}
 213              		.cfi_def_cfa_offset 8
 214              		.cfi_offset 4, -8
 215              		.cfi_offset 14, -4
 216              		.loc 5 233 0
 217 0002 FFF7FEFF 		bl	port_timer_get_time
 218 0006 0300     		movs	r3, r0
 219              		.loc 5 235 0
 220 0008 1800     		movs	r0, r3
 221              		@ sp needed
 222 000a 10BD     		pop	{r4, pc}
 223              		.cfi_endproc
 224              	.LFE85:
 225              		.size	chVTGetSystemTimeX, .-chVTGetSystemTimeX
 226              		.section	.rodata
 227              		.align	2
 228              	.LC1:
ARM GAS  /tmp/ccCfPn7s.s 			page 5


 229 0000 53562331 		.ascii	"SV#1\000"
 229      00
 230              		.section	.text._dbg_check_disable,"ax",%progbits
 231              		.align	1
 232              		.p2align 4,,15
 233              		.global	_dbg_check_disable
 234              		.syntax unified
 235              		.code	16
 236              		.thumb_func
 237              		.fpu softvfp
 238              		.type	_dbg_check_disable, %function
 239              	_dbg_check_disable:
 240              	.LFB152:
 241              		.file 6 "ChibiOS/os/rt/src/chdebug.c"
 242              		.loc 6 114 0
 243              		.cfi_startproc
 244              		@ args = 0, pretend = 0, frame = 0
 245              		@ frame_needed = 0, uses_anonymous_args = 0
 246 0000 10B5     		push	{r4, lr}
 247              		.cfi_def_cfa_offset 8
 248              		.cfi_offset 4, -8
 249              		.cfi_offset 14, -4
 250              		.loc 6 116 0
 251 0002 074B     		ldr	r3, .L17
 252 0004 DB6A     		ldr	r3, [r3, #44]
 253 0006 002B     		cmp	r3, #0
 254 0008 03D1     		bne	.L14
 255              		.loc 6 116 0 is_stmt 0 discriminator 1
 256 000a 054B     		ldr	r3, .L17
 257 000c 1B6B     		ldr	r3, [r3, #48]
 258 000e 002B     		cmp	r3, #0
 259 0010 03D0     		beq	.L16
 260              	.L14:
 261              		.loc 6 117 0 is_stmt 1
 262 0012 044B     		ldr	r3, .L17+4
 263 0014 1800     		movs	r0, r3
 264 0016 FFF7FEFF 		bl	chSysHalt
 265              	.L16:
 266              		.loc 6 119 0
 267 001a C046     		nop
 268              		@ sp needed
 269 001c 10BD     		pop	{r4, pc}
 270              	.L18:
 271 001e C046     		.align	2
 272              	.L17:
 273 0020 00000000 		.word	ch
 274 0024 00000000 		.word	.LC1
 275              		.cfi_endproc
 276              	.LFE152:
 277              		.size	_dbg_check_disable, .-_dbg_check_disable
 278              		.section	.rodata
 279 0005 000000   		.align	2
 280              	.LC4:
 281 0008 53562332 		.ascii	"SV#2\000"
 281      00
 282              		.section	.text._dbg_check_suspend,"ax",%progbits
 283              		.align	1
ARM GAS  /tmp/ccCfPn7s.s 			page 6


 284              		.p2align 4,,15
 285              		.global	_dbg_check_suspend
 286              		.syntax unified
 287              		.code	16
 288              		.thumb_func
 289              		.fpu softvfp
 290              		.type	_dbg_check_suspend, %function
 291              	_dbg_check_suspend:
 292              	.LFB153:
 293              		.loc 6 126 0
 294              		.cfi_startproc
 295              		@ args = 0, pretend = 0, frame = 0
 296              		@ frame_needed = 0, uses_anonymous_args = 0
 297 0000 10B5     		push	{r4, lr}
 298              		.cfi_def_cfa_offset 8
 299              		.cfi_offset 4, -8
 300              		.cfi_offset 14, -4
 301              		.loc 6 128 0
 302 0002 074B     		ldr	r3, .L23
 303 0004 DB6A     		ldr	r3, [r3, #44]
 304 0006 002B     		cmp	r3, #0
 305 0008 03D1     		bne	.L20
 306              		.loc 6 128 0 is_stmt 0 discriminator 1
 307 000a 054B     		ldr	r3, .L23
 308 000c 1B6B     		ldr	r3, [r3, #48]
 309 000e 002B     		cmp	r3, #0
 310 0010 03D0     		beq	.L22
 311              	.L20:
 312              		.loc 6 129 0 is_stmt 1
 313 0012 044B     		ldr	r3, .L23+4
 314 0014 1800     		movs	r0, r3
 315 0016 FFF7FEFF 		bl	chSysHalt
 316              	.L22:
 317              		.loc 6 131 0
 318 001a C046     		nop
 319              		@ sp needed
 320 001c 10BD     		pop	{r4, pc}
 321              	.L24:
 322 001e C046     		.align	2
 323              	.L23:
 324 0020 00000000 		.word	ch
 325 0024 08000000 		.word	.LC4
 326              		.cfi_endproc
 327              	.LFE153:
 328              		.size	_dbg_check_suspend, .-_dbg_check_suspend
 329              		.section	.rodata
 330 000d 000000   		.align	2
 331              	.LC7:
 332 0010 53562333 		.ascii	"SV#3\000"
 332      00
 333              		.section	.text._dbg_check_enable,"ax",%progbits
 334              		.align	1
 335              		.p2align 4,,15
 336              		.global	_dbg_check_enable
 337              		.syntax unified
 338              		.code	16
 339              		.thumb_func
ARM GAS  /tmp/ccCfPn7s.s 			page 7


 340              		.fpu softvfp
 341              		.type	_dbg_check_enable, %function
 342              	_dbg_check_enable:
 343              	.LFB154:
 344              		.loc 6 138 0
 345              		.cfi_startproc
 346              		@ args = 0, pretend = 0, frame = 0
 347              		@ frame_needed = 0, uses_anonymous_args = 0
 348 0000 10B5     		push	{r4, lr}
 349              		.cfi_def_cfa_offset 8
 350              		.cfi_offset 4, -8
 351              		.cfi_offset 14, -4
 352              		.loc 6 140 0
 353 0002 074B     		ldr	r3, .L29
 354 0004 DB6A     		ldr	r3, [r3, #44]
 355 0006 002B     		cmp	r3, #0
 356 0008 03D1     		bne	.L26
 357              		.loc 6 140 0 is_stmt 0 discriminator 1
 358 000a 054B     		ldr	r3, .L29
 359 000c 1B6B     		ldr	r3, [r3, #48]
 360 000e 002B     		cmp	r3, #0
 361 0010 03D0     		beq	.L28
 362              	.L26:
 363              		.loc 6 141 0 is_stmt 1
 364 0012 044B     		ldr	r3, .L29+4
 365 0014 1800     		movs	r0, r3
 366 0016 FFF7FEFF 		bl	chSysHalt
 367              	.L28:
 368              		.loc 6 143 0
 369 001a C046     		nop
 370              		@ sp needed
 371 001c 10BD     		pop	{r4, pc}
 372              	.L30:
 373 001e C046     		.align	2
 374              	.L29:
 375 0020 00000000 		.word	ch
 376 0024 10000000 		.word	.LC7
 377              		.cfi_endproc
 378              	.LFE154:
 379              		.size	_dbg_check_enable, .-_dbg_check_enable
 380              		.section	.rodata
 381 0015 000000   		.align	2
 382              	.LC10:
 383 0018 53562334 		.ascii	"SV#4\000"
 383      00
 384              		.section	.text._dbg_check_lock,"ax",%progbits
 385              		.align	1
 386              		.p2align 4,,15
 387              		.global	_dbg_check_lock
 388              		.syntax unified
 389              		.code	16
 390              		.thumb_func
 391              		.fpu softvfp
 392              		.type	_dbg_check_lock, %function
 393              	_dbg_check_lock:
 394              	.LFB155:
 395              		.loc 6 150 0
ARM GAS  /tmp/ccCfPn7s.s 			page 8


 396              		.cfi_startproc
 397              		@ args = 0, pretend = 0, frame = 0
 398              		@ frame_needed = 0, uses_anonymous_args = 0
 399 0000 10B5     		push	{r4, lr}
 400              		.cfi_def_cfa_offset 8
 401              		.cfi_offset 4, -8
 402              		.cfi_offset 14, -4
 403              		.loc 6 152 0
 404 0002 084B     		ldr	r3, .L34
 405 0004 DB6A     		ldr	r3, [r3, #44]
 406 0006 002B     		cmp	r3, #0
 407 0008 03D1     		bne	.L32
 408              		.loc 6 152 0 is_stmt 0 discriminator 1
 409 000a 064B     		ldr	r3, .L34
 410 000c 1B6B     		ldr	r3, [r3, #48]
 411 000e 002B     		cmp	r3, #0
 412 0010 03D0     		beq	.L33
 413              	.L32:
 414              		.loc 6 153 0 is_stmt 1
 415 0012 054B     		ldr	r3, .L34+4
 416 0014 1800     		movs	r0, r3
 417 0016 FFF7FEFF 		bl	chSysHalt
 418              	.L33:
 419              		.loc 6 155 0
 420 001a 024B     		ldr	r3, .L34
 421 001c 0122     		movs	r2, #1
 422 001e 1A63     		str	r2, [r3, #48]
 423              		.loc 6 156 0
 424 0020 C046     		nop
 425              		@ sp needed
 426 0022 10BD     		pop	{r4, pc}
 427              	.L35:
 428              		.align	2
 429              	.L34:
 430 0024 00000000 		.word	ch
 431 0028 18000000 		.word	.LC10
 432              		.cfi_endproc
 433              	.LFE155:
 434              		.size	_dbg_check_lock, .-_dbg_check_lock
 435              		.section	.rodata
 436 001d 000000   		.align	2
 437              	.LC13:
 438 0020 53562335 		.ascii	"SV#5\000"
 438      00
 439              		.section	.text._dbg_check_unlock,"ax",%progbits
 440              		.align	1
 441              		.p2align 4,,15
 442              		.global	_dbg_check_unlock
 443              		.syntax unified
 444              		.code	16
 445              		.thumb_func
 446              		.fpu softvfp
 447              		.type	_dbg_check_unlock, %function
 448              	_dbg_check_unlock:
 449              	.LFB156:
 450              		.loc 6 163 0
 451              		.cfi_startproc
ARM GAS  /tmp/ccCfPn7s.s 			page 9


 452              		@ args = 0, pretend = 0, frame = 0
 453              		@ frame_needed = 0, uses_anonymous_args = 0
 454 0000 10B5     		push	{r4, lr}
 455              		.cfi_def_cfa_offset 8
 456              		.cfi_offset 4, -8
 457              		.cfi_offset 14, -4
 458              		.loc 6 165 0
 459 0002 084B     		ldr	r3, .L39
 460 0004 DB6A     		ldr	r3, [r3, #44]
 461 0006 002B     		cmp	r3, #0
 462 0008 03D1     		bne	.L37
 463              		.loc 6 165 0 is_stmt 0 discriminator 1
 464 000a 064B     		ldr	r3, .L39
 465 000c 1B6B     		ldr	r3, [r3, #48]
 466 000e 002B     		cmp	r3, #0
 467 0010 03DC     		bgt	.L38
 468              	.L37:
 469              		.loc 6 166 0 is_stmt 1
 470 0012 054B     		ldr	r3, .L39+4
 471 0014 1800     		movs	r0, r3
 472 0016 FFF7FEFF 		bl	chSysHalt
 473              	.L38:
 474              		.loc 6 168 0
 475 001a 024B     		ldr	r3, .L39
 476 001c 0022     		movs	r2, #0
 477 001e 1A63     		str	r2, [r3, #48]
 478              		.loc 6 169 0
 479 0020 C046     		nop
 480              		@ sp needed
 481 0022 10BD     		pop	{r4, pc}
 482              	.L40:
 483              		.align	2
 484              	.L39:
 485 0024 00000000 		.word	ch
 486 0028 20000000 		.word	.LC13
 487              		.cfi_endproc
 488              	.LFE156:
 489              		.size	_dbg_check_unlock, .-_dbg_check_unlock
 490              		.section	.rodata
 491 0025 000000   		.align	2
 492              	.LC16:
 493 0028 53562336 		.ascii	"SV#6\000"
 493      00
 494              		.section	.text._dbg_check_lock_from_isr,"ax",%progbits
 495              		.align	1
 496              		.p2align 4,,15
 497              		.global	_dbg_check_lock_from_isr
 498              		.syntax unified
 499              		.code	16
 500              		.thumb_func
 501              		.fpu softvfp
 502              		.type	_dbg_check_lock_from_isr, %function
 503              	_dbg_check_lock_from_isr:
 504              	.LFB157:
 505              		.loc 6 176 0
 506              		.cfi_startproc
 507              		@ args = 0, pretend = 0, frame = 0
ARM GAS  /tmp/ccCfPn7s.s 			page 10


 508              		@ frame_needed = 0, uses_anonymous_args = 0
 509 0000 10B5     		push	{r4, lr}
 510              		.cfi_def_cfa_offset 8
 511              		.cfi_offset 4, -8
 512              		.cfi_offset 14, -4
 513              		.loc 6 178 0
 514 0002 084B     		ldr	r3, .L44
 515 0004 DB6A     		ldr	r3, [r3, #44]
 516 0006 002B     		cmp	r3, #0
 517 0008 03DD     		ble	.L42
 518              		.loc 6 178 0 is_stmt 0 discriminator 1
 519 000a 064B     		ldr	r3, .L44
 520 000c 1B6B     		ldr	r3, [r3, #48]
 521 000e 002B     		cmp	r3, #0
 522 0010 03D0     		beq	.L43
 523              	.L42:
 524              		.loc 6 179 0 is_stmt 1
 525 0012 054B     		ldr	r3, .L44+4
 526 0014 1800     		movs	r0, r3
 527 0016 FFF7FEFF 		bl	chSysHalt
 528              	.L43:
 529              		.loc 6 181 0
 530 001a 024B     		ldr	r3, .L44
 531 001c 0122     		movs	r2, #1
 532 001e 1A63     		str	r2, [r3, #48]
 533              		.loc 6 182 0
 534 0020 C046     		nop
 535              		@ sp needed
 536 0022 10BD     		pop	{r4, pc}
 537              	.L45:
 538              		.align	2
 539              	.L44:
 540 0024 00000000 		.word	ch
 541 0028 28000000 		.word	.LC16
 542              		.cfi_endproc
 543              	.LFE157:
 544              		.size	_dbg_check_lock_from_isr, .-_dbg_check_lock_from_isr
 545              		.section	.rodata
 546 002d 000000   		.align	2
 547              	.LC19:
 548 0030 53562337 		.ascii	"SV#7\000"
 548      00
 549              		.section	.text._dbg_check_unlock_from_isr,"ax",%progbits
 550              		.align	1
 551              		.p2align 4,,15
 552              		.global	_dbg_check_unlock_from_isr
 553              		.syntax unified
 554              		.code	16
 555              		.thumb_func
 556              		.fpu softvfp
 557              		.type	_dbg_check_unlock_from_isr, %function
 558              	_dbg_check_unlock_from_isr:
 559              	.LFB158:
 560              		.loc 6 189 0
 561              		.cfi_startproc
 562              		@ args = 0, pretend = 0, frame = 0
 563              		@ frame_needed = 0, uses_anonymous_args = 0
ARM GAS  /tmp/ccCfPn7s.s 			page 11


 564 0000 10B5     		push	{r4, lr}
 565              		.cfi_def_cfa_offset 8
 566              		.cfi_offset 4, -8
 567              		.cfi_offset 14, -4
 568              		.loc 6 191 0
 569 0002 084B     		ldr	r3, .L49
 570 0004 DB6A     		ldr	r3, [r3, #44]
 571 0006 002B     		cmp	r3, #0
 572 0008 03DD     		ble	.L47
 573              		.loc 6 191 0 is_stmt 0 discriminator 1
 574 000a 064B     		ldr	r3, .L49
 575 000c 1B6B     		ldr	r3, [r3, #48]
 576 000e 002B     		cmp	r3, #0
 577 0010 03DC     		bgt	.L48
 578              	.L47:
 579              		.loc 6 192 0 is_stmt 1
 580 0012 054B     		ldr	r3, .L49+4
 581 0014 1800     		movs	r0, r3
 582 0016 FFF7FEFF 		bl	chSysHalt
 583              	.L48:
 584              		.loc 6 194 0
 585 001a 024B     		ldr	r3, .L49
 586 001c 0022     		movs	r2, #0
 587 001e 1A63     		str	r2, [r3, #48]
 588              		.loc 6 195 0
 589 0020 C046     		nop
 590              		@ sp needed
 591 0022 10BD     		pop	{r4, pc}
 592              	.L50:
 593              		.align	2
 594              	.L49:
 595 0024 00000000 		.word	ch
 596 0028 30000000 		.word	.LC19
 597              		.cfi_endproc
 598              	.LFE158:
 599              		.size	_dbg_check_unlock_from_isr, .-_dbg_check_unlock_from_isr
 600              		.section	.rodata
 601 0035 000000   		.align	2
 602              	.LC22:
 603 0038 53562338 		.ascii	"SV#8\000"
 603      00
 604              		.section	.text._dbg_check_enter_isr,"ax",%progbits
 605              		.align	1
 606              		.p2align 4,,15
 607              		.global	_dbg_check_enter_isr
 608              		.syntax unified
 609              		.code	16
 610              		.thumb_func
 611              		.fpu softvfp
 612              		.type	_dbg_check_enter_isr, %function
 613              	_dbg_check_enter_isr:
 614              	.LFB159:
 615              		.loc 6 202 0
 616              		.cfi_startproc
 617              		@ args = 0, pretend = 0, frame = 0
 618              		@ frame_needed = 0, uses_anonymous_args = 0
 619 0000 10B5     		push	{r4, lr}
ARM GAS  /tmp/ccCfPn7s.s 			page 12


 620              		.cfi_def_cfa_offset 8
 621              		.cfi_offset 4, -8
 622              		.cfi_offset 14, -4
 623              		.loc 6 204 0
 624 0002 FFF7FEFF 		bl	port_lock_from_isr
 625              		.loc 6 205 0
 626 0006 0A4B     		ldr	r3, .L54
 627 0008 DB6A     		ldr	r3, [r3, #44]
 628 000a 002B     		cmp	r3, #0
 629 000c 03DB     		blt	.L52
 630              		.loc 6 205 0 is_stmt 0 discriminator 1
 631 000e 084B     		ldr	r3, .L54
 632 0010 1B6B     		ldr	r3, [r3, #48]
 633 0012 002B     		cmp	r3, #0
 634 0014 03D0     		beq	.L53
 635              	.L52:
 636              		.loc 6 206 0 is_stmt 1
 637 0016 074B     		ldr	r3, .L54+4
 638 0018 1800     		movs	r0, r3
 639 001a FFF7FEFF 		bl	chSysHalt
 640              	.L53:
 641              		.loc 6 208 0
 642 001e 044B     		ldr	r3, .L54
 643 0020 DB6A     		ldr	r3, [r3, #44]
 644 0022 5A1C     		adds	r2, r3, #1
 645 0024 024B     		ldr	r3, .L54
 646 0026 DA62     		str	r2, [r3, #44]
 647              		.loc 6 209 0
 648 0028 FFF7FEFF 		bl	port_unlock_from_isr
 649              		.loc 6 210 0
 650 002c C046     		nop
 651              		@ sp needed
 652 002e 10BD     		pop	{r4, pc}
 653              	.L55:
 654              		.align	2
 655              	.L54:
 656 0030 00000000 		.word	ch
 657 0034 38000000 		.word	.LC22
 658              		.cfi_endproc
 659              	.LFE159:
 660              		.size	_dbg_check_enter_isr, .-_dbg_check_enter_isr
 661              		.section	.rodata
 662 003d 000000   		.align	2
 663              	.LC25:
 664 0040 53562339 		.ascii	"SV#9\000"
 664      00
 665              		.section	.text._dbg_check_leave_isr,"ax",%progbits
 666              		.align	1
 667              		.p2align 4,,15
 668              		.global	_dbg_check_leave_isr
 669              		.syntax unified
 670              		.code	16
 671              		.thumb_func
 672              		.fpu softvfp
 673              		.type	_dbg_check_leave_isr, %function
 674              	_dbg_check_leave_isr:
 675              	.LFB160:
ARM GAS  /tmp/ccCfPn7s.s 			page 13


 676              		.loc 6 217 0
 677              		.cfi_startproc
 678              		@ args = 0, pretend = 0, frame = 0
 679              		@ frame_needed = 0, uses_anonymous_args = 0
 680 0000 10B5     		push	{r4, lr}
 681              		.cfi_def_cfa_offset 8
 682              		.cfi_offset 4, -8
 683              		.cfi_offset 14, -4
 684              		.loc 6 219 0
 685 0002 FFF7FEFF 		bl	port_lock_from_isr
 686              		.loc 6 220 0
 687 0006 0A4B     		ldr	r3, .L59
 688 0008 DB6A     		ldr	r3, [r3, #44]
 689 000a 002B     		cmp	r3, #0
 690 000c 03DD     		ble	.L57
 691              		.loc 6 220 0 is_stmt 0 discriminator 1
 692 000e 084B     		ldr	r3, .L59
 693 0010 1B6B     		ldr	r3, [r3, #48]
 694 0012 002B     		cmp	r3, #0
 695 0014 03D0     		beq	.L58
 696              	.L57:
 697              		.loc 6 221 0 is_stmt 1
 698 0016 074B     		ldr	r3, .L59+4
 699 0018 1800     		movs	r0, r3
 700 001a FFF7FEFF 		bl	chSysHalt
 701              	.L58:
 702              		.loc 6 223 0
 703 001e 044B     		ldr	r3, .L59
 704 0020 DB6A     		ldr	r3, [r3, #44]
 705 0022 5A1E     		subs	r2, r3, #1
 706 0024 024B     		ldr	r3, .L59
 707 0026 DA62     		str	r2, [r3, #44]
 708              		.loc 6 224 0
 709 0028 FFF7FEFF 		bl	port_unlock_from_isr
 710              		.loc 6 225 0
 711 002c C046     		nop
 712              		@ sp needed
 713 002e 10BD     		pop	{r4, pc}
 714              	.L60:
 715              		.align	2
 716              	.L59:
 717 0030 00000000 		.word	ch
 718 0034 40000000 		.word	.LC25
 719              		.cfi_endproc
 720              	.LFE160:
 721              		.size	_dbg_check_leave_isr, .-_dbg_check_leave_isr
 722              		.section	.rodata
 723 0045 000000   		.align	2
 724              	.LC28:
 725 0048 53562331 		.ascii	"SV#10\000"
 725      3000
 726              		.section	.text.chDbgCheckClassI,"ax",%progbits
 727              		.align	1
 728              		.p2align 4,,15
 729              		.global	chDbgCheckClassI
 730              		.syntax unified
 731              		.code	16
ARM GAS  /tmp/ccCfPn7s.s 			page 14


 732              		.thumb_func
 733              		.fpu softvfp
 734              		.type	chDbgCheckClassI, %function
 735              	chDbgCheckClassI:
 736              	.LFB161:
 737              		.loc 6 235 0
 738              		.cfi_startproc
 739              		@ args = 0, pretend = 0, frame = 0
 740              		@ frame_needed = 0, uses_anonymous_args = 0
 741 0000 10B5     		push	{r4, lr}
 742              		.cfi_def_cfa_offset 8
 743              		.cfi_offset 4, -8
 744              		.cfi_offset 14, -4
 745              		.loc 6 237 0
 746 0002 074B     		ldr	r3, .L65
 747 0004 DB6A     		ldr	r3, [r3, #44]
 748 0006 002B     		cmp	r3, #0
 749 0008 03DB     		blt	.L62
 750              		.loc 6 237 0 is_stmt 0 discriminator 1
 751 000a 054B     		ldr	r3, .L65
 752 000c 1B6B     		ldr	r3, [r3, #48]
 753 000e 002B     		cmp	r3, #0
 754 0010 03DC     		bgt	.L64
 755              	.L62:
 756              		.loc 6 238 0 is_stmt 1
 757 0012 044B     		ldr	r3, .L65+4
 758 0014 1800     		movs	r0, r3
 759 0016 FFF7FEFF 		bl	chSysHalt
 760              	.L64:
 761              		.loc 6 240 0
 762 001a C046     		nop
 763              		@ sp needed
 764 001c 10BD     		pop	{r4, pc}
 765              	.L66:
 766 001e C046     		.align	2
 767              	.L65:
 768 0020 00000000 		.word	ch
 769 0024 48000000 		.word	.LC28
 770              		.cfi_endproc
 771              	.LFE161:
 772              		.size	chDbgCheckClassI, .-chDbgCheckClassI
 773              		.section	.rodata
 774 004e 0000     		.align	2
 775              	.LC31:
 776 0050 53562331 		.ascii	"SV#11\000"
 776      3100
 777              		.section	.text.chDbgCheckClassS,"ax",%progbits
 778              		.align	1
 779              		.p2align 4,,15
 780              		.global	chDbgCheckClassS
 781              		.syntax unified
 782              		.code	16
 783              		.thumb_func
 784              		.fpu softvfp
 785              		.type	chDbgCheckClassS, %function
 786              	chDbgCheckClassS:
 787              	.LFB162:
ARM GAS  /tmp/ccCfPn7s.s 			page 15


 788              		.loc 6 250 0
 789              		.cfi_startproc
 790              		@ args = 0, pretend = 0, frame = 0
 791              		@ frame_needed = 0, uses_anonymous_args = 0
 792 0000 10B5     		push	{r4, lr}
 793              		.cfi_def_cfa_offset 8
 794              		.cfi_offset 4, -8
 795              		.cfi_offset 14, -4
 796              		.loc 6 252 0
 797 0002 074B     		ldr	r3, .L71
 798 0004 DB6A     		ldr	r3, [r3, #44]
 799 0006 002B     		cmp	r3, #0
 800 0008 03D1     		bne	.L68
 801              		.loc 6 252 0 is_stmt 0 discriminator 1
 802 000a 054B     		ldr	r3, .L71
 803 000c 1B6B     		ldr	r3, [r3, #48]
 804 000e 002B     		cmp	r3, #0
 805 0010 03DC     		bgt	.L70
 806              	.L68:
 807              		.loc 6 253 0 is_stmt 1
 808 0012 044B     		ldr	r3, .L71+4
 809 0014 1800     		movs	r0, r3
 810 0016 FFF7FEFF 		bl	chSysHalt
 811              	.L70:
 812              		.loc 6 255 0
 813 001a C046     		nop
 814              		@ sp needed
 815 001c 10BD     		pop	{r4, pc}
 816              	.L72:
 817 001e C046     		.align	2
 818              	.L71:
 819 0020 00000000 		.word	ch
 820 0024 50000000 		.word	.LC31
 821              		.cfi_endproc
 822              	.LFE162:
 823              		.size	chDbgCheckClassS, .-chDbgCheckClassS
 824              		.section	.text._dbg_trace_init,"ax",%progbits
 825              		.align	1
 826              		.p2align 4,,15
 827              		.global	_dbg_trace_init
 828              		.syntax unified
 829              		.code	16
 830              		.thumb_func
 831              		.fpu softvfp
 832              		.type	_dbg_trace_init, %function
 833              	_dbg_trace_init:
 834              	.LFB163:
 835              		.loc 6 264 0
 836              		.cfi_startproc
 837              		@ args = 0, pretend = 0, frame = 0
 838              		@ frame_needed = 0, uses_anonymous_args = 0
 839              		@ link register save eliminated.
 840              		.loc 6 266 0
 841 0000 034B     		ldr	r3, .L74
 842 0002 4022     		movs	r2, #64
 843 0004 5A63     		str	r2, [r3, #52]
 844              		.loc 6 267 0
ARM GAS  /tmp/ccCfPn7s.s 			page 16


 845 0006 024B     		ldr	r3, .L74
 846 0008 024A     		ldr	r2, .L74+4
 847 000a 9A63     		str	r2, [r3, #56]
 848              		.loc 6 268 0
 849 000c C046     		nop
 850              		@ sp needed
 851 000e 7047     		bx	lr
 852              	.L75:
 853              		.align	2
 854              	.L74:
 855 0010 00000000 		.word	ch
 856 0014 3C000000 		.word	ch+60
 857              		.cfi_endproc
 858              	.LFE163:
 859              		.size	_dbg_trace_init, .-_dbg_trace_init
 860              		.section	.text._dbg_trace,"ax",%progbits
 861              		.align	1
 862              		.p2align 4,,15
 863              		.global	_dbg_trace
 864              		.syntax unified
 865              		.code	16
 866              		.thumb_func
 867              		.fpu softvfp
 868              		.type	_dbg_trace, %function
 869              	_dbg_trace:
 870              	.LFB164:
 871              		.loc 6 277 0
 872              		.cfi_startproc
 873              		@ args = 0, pretend = 0, frame = 8
 874              		@ frame_needed = 0, uses_anonymous_args = 0
 875 0000 10B5     		push	{r4, lr}
 876              		.cfi_def_cfa_offset 8
 877              		.cfi_offset 4, -8
 878              		.cfi_offset 14, -4
 879 0002 82B0     		sub	sp, sp, #8
 880              		.cfi_def_cfa_offset 16
 881 0004 0190     		str	r0, [sp, #4]
 882              		.loc 6 279 0
 883 0006 134B     		ldr	r3, .L79
 884 0008 9C6B     		ldr	r4, [r3, #56]
 885 000a FFF7FEFF 		bl	chVTGetSystemTimeX
 886 000e 0300     		movs	r3, r0
 887 0010 2380     		strh	r3, [r4]
 888              		.loc 6 280 0
 889 0012 104B     		ldr	r3, .L79
 890 0014 9B6B     		ldr	r3, [r3, #56]
 891 0016 0F4A     		ldr	r2, .L79
 892 0018 9269     		ldr	r2, [r2, #24]
 893 001a 5A60     		str	r2, [r3, #4]
 894              		.loc 6 281 0
 895 001c 0D4B     		ldr	r3, .L79
 896 001e 9B6B     		ldr	r3, [r3, #56]
 897 0020 019A     		ldr	r2, [sp, #4]
 898 0022 526A     		ldr	r2, [r2, #36]
 899 0024 9A60     		str	r2, [r3, #8]
 900              		.loc 6 282 0
 901 0026 0B4B     		ldr	r3, .L79
ARM GAS  /tmp/ccCfPn7s.s 			page 17


 902 0028 9B6B     		ldr	r3, [r3, #56]
 903 002a 019A     		ldr	r2, [sp, #4]
 904 002c 2021     		movs	r1, #32
 905 002e 525C     		ldrb	r2, [r2, r1]
 906 0030 1A73     		strb	r2, [r3, #12]
 907              		.loc 6 283 0
 908 0032 084B     		ldr	r3, .L79
 909 0034 9B6B     		ldr	r3, [r3, #56]
 910 0036 1033     		adds	r3, r3, #16
 911 0038 1A00     		movs	r2, r3
 912 003a 064B     		ldr	r3, .L79
 913 003c 9A63     		str	r2, [r3, #56]
 914 003e 054B     		ldr	r3, .L79
 915 0040 9A6B     		ldr	r2, [r3, #56]
 916 0042 054B     		ldr	r3, .L79+4
 917 0044 9A42     		cmp	r2, r3
 918 0046 02D3     		bcc	.L78
 919              		.loc 6 285 0
 920 0048 024B     		ldr	r3, .L79
 921 004a 044A     		ldr	r2, .L79+8
 922 004c 9A63     		str	r2, [r3, #56]
 923              	.L78:
 924              		.loc 6 287 0
 925 004e C046     		nop
 926 0050 02B0     		add	sp, sp, #8
 927              		@ sp needed
 928 0052 10BD     		pop	{r4, pc}
 929              	.L80:
 930              		.align	2
 931              	.L79:
 932 0054 00000000 		.word	ch
 933 0058 3C040000 		.word	ch+1084
 934 005c 3C000000 		.word	ch+60
 935              		.cfi_endproc
 936              	.LFE164:
 937              		.size	_dbg_trace, .-_dbg_trace
 938              		.text
 939              	.Letext0:
 940              		.file 7 "/home/felix/opt/gcc-arm-none-eabi-6-2017-q1-update/arm-none-eabi/include/machine/_default
 941              		.file 8 "/home/felix/opt/gcc-arm-none-eabi-6-2017-q1-update/arm-none-eabi/include/sys/_stdint.h"
 942              		.file 9 "ChibiOS/os/rt/ports/ARMCMx/compilers/GCC/chtypes.h"
 943              		.file 10 "ChibiOS/os/rt/include/chsystypes.h"
 944              		.file 11 "ChibiOS/os/rt/include/chschd.h"
 945              		.file 12 "ChibiOS/os/rt/ports/ARMCMx/chcore.h"
 946              		.file 13 "ChibiOS/os/hal/ports/STM32/LLD/TIMv1/stm32_tim.h"
 947              		.file 14 "ChibiOS/os/rt/include/chdebug.h"
 948              		.file 15 "ChibiOS/os/rt/include/chsem.h"
 949              		.file 16 "ChibiOS/os/rt/include/chmtx.h"
 950              		.file 17 "ChibiOS/os/rt/include/chregistry.h"
 951              		.file 18 "ChibiOS/os/ext/CMSIS/ST/STM32F0xx/system_stm32f0xx.h"
 952              		.section	.debug_info,"",%progbits
 953              	.Ldebug_info0:
 954 0000 E50A0000 		.4byte	0xae5
 955 0004 0400     		.2byte	0x4
 956 0006 00000000 		.4byte	.Ldebug_abbrev0
 957 000a 04       		.byte	0x4
 958 000b 01       		.uleb128 0x1
ARM GAS  /tmp/ccCfPn7s.s 			page 18


 959 000c 02030000 		.4byte	.LASF167
 960 0010 0C       		.byte	0xc
 961 0011 02060000 		.4byte	.LASF168
 962 0015 9D010000 		.4byte	.LASF169
 963 0019 00000000 		.4byte	.Ldebug_ranges0+0
 964 001d 00000000 		.4byte	0
 965 0021 00000000 		.4byte	.Ldebug_line0
 966 0025 02       		.uleb128 0x2
 967 0026 04       		.byte	0x4
 968 0027 05       		.byte	0x5
 969 0028 696E7400 		.ascii	"int\000"
 970 002c 03       		.uleb128 0x3
 971 002d 04       		.byte	0x4
 972 002e 07       		.byte	0x7
 973 002f 9A000000 		.4byte	.LASF0
 974 0033 03       		.uleb128 0x3
 975 0034 08       		.byte	0x8
 976 0035 05       		.byte	0x5
 977 0036 E2040000 		.4byte	.LASF1
 978 003a 03       		.uleb128 0x3
 979 003b 08       		.byte	0x8
 980 003c 04       		.byte	0x4
 981 003d CE050000 		.4byte	.LASF2
 982 0041 03       		.uleb128 0x3
 983 0042 01       		.byte	0x1
 984 0043 06       		.byte	0x6
 985 0044 F4070000 		.4byte	.LASF3
 986 0048 04       		.uleb128 0x4
 987 0049 DC060000 		.4byte	.LASF6
 988 004d 07       		.byte	0x7
 989 004e 2B       		.byte	0x2b
 990 004f 53000000 		.4byte	0x53
 991 0053 03       		.uleb128 0x3
 992 0054 01       		.byte	0x1
 993 0055 08       		.byte	0x8
 994 0056 84070000 		.4byte	.LASF4
 995 005a 03       		.uleb128 0x3
 996 005b 02       		.byte	0x2
 997 005c 05       		.byte	0x5
 998 005d 50060000 		.4byte	.LASF5
 999 0061 04       		.uleb128 0x4
 1000 0062 47020000 		.4byte	.LASF7
 1001 0066 07       		.byte	0x7
 1002 0067 39       		.byte	0x39
 1003 0068 6C000000 		.4byte	0x6c
 1004 006c 03       		.uleb128 0x3
 1005 006d 02       		.byte	0x2
 1006 006e 07       		.byte	0x7
 1007 006f 0D080000 		.4byte	.LASF8
 1008 0073 04       		.uleb128 0x4
 1009 0074 C9000000 		.4byte	.LASF9
 1010 0078 07       		.byte	0x7
 1011 0079 4D       		.byte	0x4d
 1012 007a 7E000000 		.4byte	0x7e
 1013 007e 03       		.uleb128 0x3
 1014 007f 04       		.byte	0x4
 1015 0080 05       		.byte	0x5
ARM GAS  /tmp/ccCfPn7s.s 			page 19


 1016 0081 77060000 		.4byte	.LASF10
 1017 0085 04       		.uleb128 0x4
 1018 0086 92070000 		.4byte	.LASF11
 1019 008a 07       		.byte	0x7
 1020 008b 4F       		.byte	0x4f
 1021 008c 90000000 		.4byte	0x90
 1022 0090 03       		.uleb128 0x3
 1023 0091 04       		.byte	0x4
 1024 0092 07       		.byte	0x7
 1025 0093 0C070000 		.4byte	.LASF12
 1026 0097 04       		.uleb128 0x4
 1027 0098 D9030000 		.4byte	.LASF13
 1028 009c 07       		.byte	0x7
 1029 009d 69       		.byte	0x69
 1030 009e A2000000 		.4byte	0xa2
 1031 00a2 03       		.uleb128 0x3
 1032 00a3 08       		.byte	0x8
 1033 00a4 07       		.byte	0x7
 1034 00a5 26020000 		.4byte	.LASF14
 1035 00a9 04       		.uleb128 0x4
 1036 00aa 88040000 		.4byte	.LASF15
 1037 00ae 08       		.byte	0x8
 1038 00af 18       		.byte	0x18
 1039 00b0 48000000 		.4byte	0x48
 1040 00b4 04       		.uleb128 0x4
 1041 00b5 DA050000 		.4byte	.LASF16
 1042 00b9 08       		.byte	0x8
 1043 00ba 24       		.byte	0x24
 1044 00bb 61000000 		.4byte	0x61
 1045 00bf 04       		.uleb128 0x4
 1046 00c0 38070000 		.4byte	.LASF17
 1047 00c4 08       		.byte	0x8
 1048 00c5 2C       		.byte	0x2c
 1049 00c6 73000000 		.4byte	0x73
 1050 00ca 04       		.uleb128 0x4
 1051 00cb BA010000 		.4byte	.LASF18
 1052 00cf 08       		.byte	0x8
 1053 00d0 30       		.byte	0x30
 1054 00d1 85000000 		.4byte	0x85
 1055 00d5 05       		.uleb128 0x5
 1056 00d6 CA000000 		.4byte	0xca
 1057 00da 04       		.uleb128 0x4
 1058 00db AF060000 		.4byte	.LASF19
 1059 00df 08       		.byte	0x8
 1060 00e0 3C       		.byte	0x3c
 1061 00e1 97000000 		.4byte	0x97
 1062 00e5 04       		.uleb128 0x4
 1063 00e6 8B050000 		.4byte	.LASF20
 1064 00ea 09       		.byte	0x9
 1065 00eb 3C       		.byte	0x3c
 1066 00ec A9000000 		.4byte	0xa9
 1067 00f0 04       		.uleb128 0x4
 1068 00f1 5E040000 		.4byte	.LASF21
 1069 00f5 09       		.byte	0x9
 1070 00f6 3D       		.byte	0x3d
 1071 00f7 A9000000 		.4byte	0xa9
 1072 00fb 04       		.uleb128 0x4
ARM GAS  /tmp/ccCfPn7s.s 			page 20


 1073 00fc 04070000 		.4byte	.LASF22
 1074 0100 09       		.byte	0x9
 1075 0101 3E       		.byte	0x3e
 1076 0102 A9000000 		.4byte	0xa9
 1077 0106 04       		.uleb128 0x4
 1078 0107 FB010000 		.4byte	.LASF23
 1079 010b 09       		.byte	0x9
 1080 010c 40       		.byte	0x40
 1081 010d CA000000 		.4byte	0xca
 1082 0111 04       		.uleb128 0x4
 1083 0112 00050000 		.4byte	.LASF24
 1084 0116 09       		.byte	0x9
 1085 0117 41       		.byte	0x41
 1086 0118 BF000000 		.4byte	0xbf
 1087 011c 04       		.uleb128 0x4
 1088 011d CF010000 		.4byte	.LASF25
 1089 0121 09       		.byte	0x9
 1090 0122 43       		.byte	0x43
 1091 0123 CA000000 		.4byte	0xca
 1092 0127 04       		.uleb128 0x4
 1093 0128 52020000 		.4byte	.LASF26
 1094 012c 09       		.byte	0x9
 1095 012d 45       		.byte	0x45
 1096 012e BF000000 		.4byte	0xbf
 1097 0132 04       		.uleb128 0x4
 1098 0133 68000000 		.4byte	.LASF27
 1099 0137 0A       		.byte	0xa
 1100 0138 35       		.byte	0x35
 1101 0139 B4000000 		.4byte	0xb4
 1102 013d 04       		.uleb128 0x4
 1103 013e A2020000 		.4byte	.LASF28
 1104 0142 0A       		.byte	0xa
 1105 0143 3F       		.byte	0x3f
 1106 0144 48010000 		.4byte	0x148
 1107 0148 06       		.uleb128 0x6
 1108 0149 B1040000 		.4byte	.LASF49
 1109 014d 48       		.byte	0x48
 1110 014e 0B       		.byte	0xb
 1111 014f C2       		.byte	0xc2
 1112 0150 41020000 		.4byte	0x241
 1113 0154 07       		.uleb128 0x7
 1114 0155 A8060000 		.4byte	.LASF29
 1115 0159 0B       		.byte	0xb
 1116 015a C3       		.byte	0xc3
 1117 015b 4C020000 		.4byte	0x24c
 1118 015f 00       		.byte	0
 1119 0160 07       		.uleb128 0x7
 1120 0161 F4060000 		.4byte	.LASF30
 1121 0165 0B       		.byte	0xb
 1122 0166 C5       		.byte	0xc5
 1123 0167 4C020000 		.4byte	0x24c
 1124 016b 04       		.byte	0x4
 1125 016c 07       		.uleb128 0x7
 1126 016d 61000000 		.4byte	.LASF31
 1127 0171 0B       		.byte	0xb
 1128 0172 C7       		.byte	0xc7
 1129 0173 06010000 		.4byte	0x106
ARM GAS  /tmp/ccCfPn7s.s 			page 21


 1130 0177 08       		.byte	0x8
 1131 0178 07       		.uleb128 0x7
 1132 0179 B8060000 		.4byte	.LASF32
 1133 017d 0B       		.byte	0xb
 1134 017e C8       		.byte	0xc8
 1135 017f CF040000 		.4byte	0x4cf
 1136 0183 0C       		.byte	0xc
 1137 0184 07       		.uleb128 0x7
 1138 0185 7B020000 		.4byte	.LASF33
 1139 0189 0B       		.byte	0xb
 1140 018a CA       		.byte	0xca
 1141 018b 4C020000 		.4byte	0x24c
 1142 018f 10       		.byte	0x10
 1143 0190 07       		.uleb128 0x7
 1144 0191 6D040000 		.4byte	.LASF34
 1145 0195 0B       		.byte	0xb
 1146 0196 CB       		.byte	0xcb
 1147 0197 4C020000 		.4byte	0x24c
 1148 019b 14       		.byte	0x14
 1149 019c 07       		.uleb128 0x7
 1150 019d 18040000 		.4byte	.LASF35
 1151 01a1 0B       		.byte	0xb
 1152 01a2 D2       		.byte	0xd2
 1153 01a3 D0070000 		.4byte	0x7d0
 1154 01a7 18       		.byte	0x18
 1155 01a8 07       		.uleb128 0x7
 1156 01a9 7D040000 		.4byte	.LASF36
 1157 01ad 0B       		.byte	0xb
 1158 01ae D8       		.byte	0xd8
 1159 01af E7070000 		.4byte	0x7e7
 1160 01b3 1C       		.byte	0x1c
 1161 01b4 07       		.uleb128 0x7
 1162 01b5 75040000 		.4byte	.LASF37
 1163 01b9 0B       		.byte	0xb
 1164 01ba DD       		.byte	0xdd
 1165 01bb F0000000 		.4byte	0xf0
 1166 01bf 20       		.byte	0x20
 1167 01c0 07       		.uleb128 0x7
 1168 01c1 0E050000 		.4byte	.LASF38
 1169 01c5 0B       		.byte	0xb
 1170 01c6 E1       		.byte	0xe1
 1171 01c7 E5000000 		.4byte	0xe5
 1172 01cb 21       		.byte	0x21
 1173 01cc 07       		.uleb128 0x7
 1174 01cd B3070000 		.4byte	.LASF39
 1175 01d1 0B       		.byte	0xb
 1176 01d2 E6       		.byte	0xe6
 1177 01d3 FB000000 		.4byte	0xfb
 1178 01d7 22       		.byte	0x22
 1179 01d8 08       		.uleb128 0x8
 1180 01d9 705F7500 		.ascii	"p_u\000"
 1181 01dd 0B       		.byte	0xb
 1182 01de 3101     		.2byte	0x131
 1183 01e0 0B070000 		.4byte	0x70b
 1184 01e4 24       		.byte	0x24
 1185 01e5 09       		.uleb128 0x9
 1186 01e6 20000000 		.4byte	.LASF40
ARM GAS  /tmp/ccCfPn7s.s 			page 22


 1187 01ea 0B       		.byte	0xb
 1188 01eb 3601     		.2byte	0x136
 1189 01ed 52020000 		.4byte	0x252
 1190 01f1 28       		.byte	0x28
 1191 01f2 09       		.uleb128 0x9
 1192 01f3 8F000000 		.4byte	.LASF41
 1193 01f7 0B       		.byte	0xb
 1194 01f8 3C01     		.2byte	0x13c
 1195 01fa 76020000 		.4byte	0x276
 1196 01fe 2C       		.byte	0x2c
 1197 01ff 09       		.uleb128 0x9
 1198 0200 85050000 		.4byte	.LASF42
 1199 0204 0B       		.byte	0xb
 1200 0205 4001     		.2byte	0x140
 1201 0207 11010000 		.4byte	0x111
 1202 020b 34       		.byte	0x34
 1203 020c 09       		.uleb128 0x9
 1204 020d 64060000 		.4byte	.LASF43
 1205 0211 0B       		.byte	0xb
 1206 0212 4601     		.2byte	0x146
 1207 0214 1C010000 		.4byte	0x11c
 1208 0218 38       		.byte	0x38
 1209 0219 09       		.uleb128 0x9
 1210 021a A2040000 		.4byte	.LASF44
 1211 021e 0B       		.byte	0xb
 1212 021f 4D01     		.2byte	0x14d
 1213 0221 CA070000 		.4byte	0x7ca
 1214 0225 3C       		.byte	0x3c
 1215 0226 09       		.uleb128 0x9
 1216 0227 3A060000 		.4byte	.LASF45
 1217 022b 0B       		.byte	0xb
 1218 022c 5101     		.2byte	0x151
 1219 022e 06010000 		.4byte	0x106
 1220 0232 40       		.byte	0x40
 1221 0233 09       		.uleb128 0x9
 1222 0234 9A040000 		.4byte	.LASF46
 1223 0238 0B       		.byte	0xb
 1224 0239 5801     		.2byte	0x158
 1225 023b 29030000 		.4byte	0x329
 1226 023f 44       		.byte	0x44
 1227 0240 00       		.byte	0
 1228 0241 04       		.uleb128 0x4
 1229 0242 3F040000 		.4byte	.LASF47
 1230 0246 0A       		.byte	0xa
 1231 0247 44       		.byte	0x44
 1232 0248 4C020000 		.4byte	0x24c
 1233 024c 0A       		.uleb128 0xa
 1234 024d 04       		.byte	0x4
 1235 024e 3D010000 		.4byte	0x13d
 1236 0252 04       		.uleb128 0x4
 1237 0253 BA000000 		.4byte	.LASF48
 1238 0257 0A       		.byte	0xa
 1239 0258 49       		.byte	0x49
 1240 0259 5D020000 		.4byte	0x25d
 1241 025d 06       		.uleb128 0x6
 1242 025e 00000000 		.4byte	.LASF50
 1243 0262 04       		.byte	0x4
ARM GAS  /tmp/ccCfPn7s.s 			page 23


 1244 0263 0B       		.byte	0xb
 1245 0264 B0       		.byte	0xb0
 1246 0265 76020000 		.4byte	0x276
 1247 0269 07       		.uleb128 0x7
 1248 026a A8060000 		.4byte	.LASF29
 1249 026e 0B       		.byte	0xb
 1250 026f B1       		.byte	0xb1
 1251 0270 4C020000 		.4byte	0x24c
 1252 0274 00       		.byte	0
 1253 0275 00       		.byte	0
 1254 0276 04       		.uleb128 0x4
 1255 0277 10000000 		.4byte	.LASF51
 1256 027b 0A       		.byte	0xa
 1257 027c 50       		.byte	0x50
 1258 027d 81020000 		.4byte	0x281
 1259 0281 06       		.uleb128 0x6
 1260 0282 5D010000 		.4byte	.LASF52
 1261 0286 08       		.byte	0x8
 1262 0287 0B       		.byte	0xb
 1263 0288 B7       		.byte	0xb7
 1264 0289 A6020000 		.4byte	0x2a6
 1265 028d 07       		.uleb128 0x7
 1266 028e A8060000 		.4byte	.LASF29
 1267 0292 0B       		.byte	0xb
 1268 0293 B8       		.byte	0xb8
 1269 0294 4C020000 		.4byte	0x24c
 1270 0298 00       		.byte	0
 1271 0299 07       		.uleb128 0x7
 1272 029a F4060000 		.4byte	.LASF30
 1273 029e 0B       		.byte	0xb
 1274 029f B9       		.byte	0xb9
 1275 02a0 4C020000 		.4byte	0x24c
 1276 02a4 04       		.byte	0x4
 1277 02a5 00       		.byte	0
 1278 02a6 04       		.uleb128 0x4
 1279 02a7 2B070000 		.4byte	.LASF53
 1280 02ab 0A       		.byte	0xa
 1281 02ac 57       		.byte	0x57
 1282 02ad B1020000 		.4byte	0x2b1
 1283 02b1 0B       		.uleb128 0xb
 1284 02b2 13010000 		.4byte	.LASF54
 1285 02b6 1C       		.byte	0x1c
 1286 02b7 0B       		.byte	0xb
 1287 02b8 9001     		.2byte	0x190
 1288 02ba 0D030000 		.4byte	0x30d
 1289 02be 09       		.uleb128 0x9
 1290 02bf F0040000 		.4byte	.LASF55
 1291 02c3 0B       		.byte	0xb
 1292 02c4 9101     		.2byte	0x191
 1293 02c6 76020000 		.4byte	0x276
 1294 02ca 00       		.byte	0
 1295 02cb 09       		.uleb128 0x9
 1296 02cc DB010000 		.4byte	.LASF56
 1297 02d0 0B       		.byte	0xb
 1298 02d1 9201     		.2byte	0x192
 1299 02d3 06010000 		.4byte	0x106
 1300 02d7 08       		.byte	0x8
ARM GAS  /tmp/ccCfPn7s.s 			page 24


 1301 02d8 09       		.uleb128 0x9
 1302 02d9 20080000 		.4byte	.LASF57
 1303 02dd 0B       		.byte	0xb
 1304 02de 9401     		.2byte	0x194
 1305 02e0 CF040000 		.4byte	0x4cf
 1306 02e4 0C       		.byte	0xc
 1307 02e5 09       		.uleb128 0x9
 1308 02e6 F8040000 		.4byte	.LASF58
 1309 02ea 0B       		.byte	0xb
 1310 02eb 9701     		.2byte	0x197
 1311 02ed 4C020000 		.4byte	0x24c
 1312 02f1 10       		.byte	0x10
 1313 02f2 09       		.uleb128 0x9
 1314 02f3 52050000 		.4byte	.LASF59
 1315 02f7 0B       		.byte	0xb
 1316 02f8 9801     		.2byte	0x198
 1317 02fa 4C020000 		.4byte	0x24c
 1318 02fe 14       		.byte	0x14
 1319 02ff 09       		.uleb128 0x9
 1320 0300 5A060000 		.4byte	.LASF60
 1321 0304 0B       		.byte	0xb
 1322 0305 9B01     		.2byte	0x19b
 1323 0307 4C020000 		.4byte	0x24c
 1324 030b 18       		.byte	0x18
 1325 030c 00       		.byte	0
 1326 030d 04       		.uleb128 0x4
 1327 030e 7E010000 		.4byte	.LASF61
 1328 0312 0A       		.byte	0xa
 1329 0313 5C       		.byte	0x5c
 1330 0314 18030000 		.4byte	0x318
 1331 0318 0A       		.uleb128 0xa
 1332 0319 04       		.byte	0x4
 1333 031a 1E030000 		.4byte	0x31e
 1334 031e 0C       		.uleb128 0xc
 1335 031f 29030000 		.4byte	0x329
 1336 0323 0D       		.uleb128 0xd
 1337 0324 29030000 		.4byte	0x329
 1338 0328 00       		.byte	0
 1339 0329 0E       		.uleb128 0xe
 1340 032a 04       		.byte	0x4
 1341 032b 04       		.uleb128 0x4
 1342 032c 16050000 		.4byte	.LASF62
 1343 0330 0A       		.byte	0xa
 1344 0331 61       		.byte	0x61
 1345 0332 36030000 		.4byte	0x336
 1346 0336 0B       		.uleb128 0xb
 1347 0337 03020000 		.4byte	.LASF63
 1348 033b 14       		.byte	0x14
 1349 033c 0B       		.byte	0xb
 1350 033d 6B01     		.2byte	0x16b
 1351 033f 85030000 		.4byte	0x385
 1352 0343 09       		.uleb128 0x9
 1353 0344 BA070000 		.4byte	.LASF64
 1354 0348 0B       		.byte	0xb
 1355 0349 6C01     		.2byte	0x16c
 1356 034b ED070000 		.4byte	0x7ed
 1357 034f 00       		.byte	0
ARM GAS  /tmp/ccCfPn7s.s 			page 25


 1358 0350 09       		.uleb128 0x9
 1359 0351 4E080000 		.4byte	.LASF65
 1360 0355 0B       		.byte	0xb
 1361 0356 6D01     		.2byte	0x16d
 1362 0358 ED070000 		.4byte	0x7ed
 1363 035c 04       		.byte	0x4
 1364 035d 09       		.uleb128 0x9
 1365 035e 24040000 		.4byte	.LASF66
 1366 0362 0B       		.byte	0xb
 1367 0363 6E01     		.2byte	0x16e
 1368 0365 32010000 		.4byte	0x132
 1369 0369 08       		.byte	0x8
 1370 036a 09       		.uleb128 0x9
 1371 036b 3A080000 		.4byte	.LASF67
 1372 036f 0B       		.byte	0xb
 1373 0370 6F01     		.2byte	0x16f
 1374 0372 0D030000 		.4byte	0x30d
 1375 0376 0C       		.byte	0xc
 1376 0377 09       		.uleb128 0x9
 1377 0378 E7010000 		.4byte	.LASF68
 1378 037c 0B       		.byte	0xb
 1379 037d 7101     		.2byte	0x171
 1380 037f 29030000 		.4byte	0x329
 1381 0383 10       		.byte	0x10
 1382 0384 00       		.byte	0
 1383 0385 04       		.uleb128 0x4
 1384 0386 9D070000 		.4byte	.LASF69
 1385 038a 0A       		.byte	0xa
 1386 038b 66       		.byte	0x66
 1387 038c 90030000 		.4byte	0x390
 1388 0390 0B       		.uleb128 0xb
 1389 0391 83020000 		.4byte	.LASF70
 1390 0395 0C       		.byte	0xc
 1391 0396 0B       		.byte	0xb
 1392 0397 7B01     		.2byte	0x17b
 1393 0399 D2030000 		.4byte	0x3d2
 1394 039d 09       		.uleb128 0x9
 1395 039e BA070000 		.4byte	.LASF64
 1396 03a2 0B       		.byte	0xb
 1397 03a3 7C01     		.2byte	0x17c
 1398 03a5 ED070000 		.4byte	0x7ed
 1399 03a9 00       		.byte	0
 1400 03aa 09       		.uleb128 0x9
 1401 03ab 4E080000 		.4byte	.LASF65
 1402 03af 0B       		.byte	0xb
 1403 03b0 7E01     		.2byte	0x17e
 1404 03b2 ED070000 		.4byte	0x7ed
 1405 03b6 04       		.byte	0x4
 1406 03b7 09       		.uleb128 0x9
 1407 03b8 24040000 		.4byte	.LASF66
 1408 03bc 0B       		.byte	0xb
 1409 03bd 8001     		.2byte	0x180
 1410 03bf 32010000 		.4byte	0x132
 1411 03c3 08       		.byte	0x8
 1412 03c4 09       		.uleb128 0x9
 1413 03c5 52040000 		.4byte	.LASF71
 1414 03c9 0B       		.byte	0xb
ARM GAS  /tmp/ccCfPn7s.s 			page 26


 1415 03ca 8801     		.2byte	0x188
 1416 03cc 32010000 		.4byte	0x132
 1417 03d0 0A       		.byte	0xa
 1418 03d1 00       		.byte	0
 1419 03d2 04       		.uleb128 0x4
 1420 03d3 C3040000 		.4byte	.LASF72
 1421 03d7 0A       		.byte	0xa
 1422 03d8 6B       		.byte	0x6b
 1423 03d9 DD030000 		.4byte	0x3dd
 1424 03dd 0F       		.uleb128 0xf
 1425 03de 8D010000 		.4byte	.LASF73
 1426 03e2 1404     		.2byte	0x414
 1427 03e4 0B       		.byte	0xb
 1428 03e5 A201     		.2byte	0x1a2
 1429 03e7 20040000 		.4byte	0x420
 1430 03eb 09       		.uleb128 0x9
 1431 03ec 7B050000 		.4byte	.LASF74
 1432 03f0 0B       		.byte	0xb
 1433 03f1 AA01     		.2byte	0x1aa
 1434 03f3 D6070000 		.4byte	0x7d6
 1435 03f7 00       		.byte	0
 1436 03f8 09       		.uleb128 0x9
 1437 03f9 73020000 		.4byte	.LASF75
 1438 03fd 0B       		.byte	0xb
 1439 03fe AF01     		.2byte	0x1af
 1440 0400 27010000 		.4byte	0x127
 1441 0404 04       		.byte	0x4
 1442 0405 09       		.uleb128 0x9
 1443 0406 1E060000 		.4byte	.LASF76
 1444 040a 0B       		.byte	0xb
 1445 040b B301     		.2byte	0x1b3
 1446 040d 27010000 		.4byte	0x127
 1447 0411 08       		.byte	0x8
 1448 0412 09       		.uleb128 0x9
 1449 0413 40070000 		.4byte	.LASF77
 1450 0417 0B       		.byte	0xb
 1451 0418 B901     		.2byte	0x1b9
 1452 041a 00070000 		.4byte	0x700
 1453 041e 0C       		.byte	0xc
 1454 041f 00       		.byte	0
 1455 0420 04       		.uleb128 0x4
 1456 0421 C2070000 		.4byte	.LASF78
 1457 0425 0A       		.byte	0xa
 1458 0426 70       		.byte	0x70
 1459 0427 2B040000 		.4byte	0x42b
 1460 042b 0F       		.uleb128 0xf
 1461 042c 9E060000 		.4byte	.LASF79
 1462 0430 6805     		.2byte	0x568
 1463 0432 0B       		.byte	0xb
 1464 0433 C201     		.2byte	0x1c2
 1465 0435 7D040000 		.4byte	0x47d
 1466 0439 09       		.uleb128 0x9
 1467 043a BE060000 		.4byte	.LASF80
 1468 043e 0B       		.byte	0xb
 1469 043f C601     		.2byte	0x1c6
 1470 0441 A6020000 		.4byte	0x2a6
 1471 0445 00       		.byte	0
ARM GAS  /tmp/ccCfPn7s.s 			page 27


 1472 0446 09       		.uleb128 0x9
 1473 0447 F9000000 		.4byte	.LASF81
 1474 044b 0B       		.byte	0xb
 1475 044c CA01     		.2byte	0x1ca
 1476 044e 85030000 		.4byte	0x385
 1477 0452 1C       		.byte	0x1c
 1478 0453 08       		.uleb128 0x8
 1479 0454 64626700 		.ascii	"dbg\000"
 1480 0458 0B       		.byte	0xb
 1481 0459 CE01     		.2byte	0x1ce
 1482 045b D2030000 		.4byte	0x3d2
 1483 045f 28       		.byte	0x28
 1484 0460 10       		.uleb128 0x10
 1485 0461 9B050000 		.4byte	.LASF82
 1486 0465 0B       		.byte	0xb
 1487 0466 D201     		.2byte	0x1d2
 1488 0468 3D010000 		.4byte	0x13d
 1489 046c 3C04     		.2byte	0x43c
 1490 046e 10       		.uleb128 0x10
 1491 046f 21010000 		.4byte	.LASF83
 1492 0473 0B       		.byte	0xb
 1493 0474 E301     		.2byte	0x1e3
 1494 0476 F3070000 		.4byte	0x7f3
 1495 047a 8804     		.2byte	0x488
 1496 047c 00       		.byte	0
 1497 047d 03       		.uleb128 0x3
 1498 047e 04       		.byte	0x4
 1499 047f 07       		.byte	0x7
 1500 0480 FB060000 		.4byte	.LASF84
 1501 0484 11       		.uleb128 0x11
 1502 0485 D5000000 		.4byte	0xd5
 1503 0489 94040000 		.4byte	0x494
 1504 048d 12       		.uleb128 0x12
 1505 048e 7D040000 		.4byte	0x47d
 1506 0492 01       		.byte	0x1
 1507 0493 00       		.byte	0
 1508 0494 05       		.uleb128 0x5
 1509 0495 84040000 		.4byte	0x484
 1510 0499 13       		.uleb128 0x13
 1511 049a 2A000000 		.4byte	.LASF123
 1512 049e 12       		.byte	0x12
 1513 049f 4C       		.byte	0x4c
 1514 04a0 CA000000 		.4byte	0xca
 1515 04a4 11       		.uleb128 0x11
 1516 04a5 D5000000 		.4byte	0xd5
 1517 04a9 B4040000 		.4byte	0x4b4
 1518 04ad 12       		.uleb128 0x12
 1519 04ae 7D040000 		.4byte	0x47d
 1520 04b2 03       		.byte	0x3
 1521 04b3 00       		.byte	0
 1522 04b4 05       		.uleb128 0x5
 1523 04b5 A4040000 		.4byte	0x4a4
 1524 04b9 04       		.uleb128 0x4
 1525 04ba 58000000 		.4byte	.LASF85
 1526 04be 0C       		.byte	0xc
 1527 04bf 65       		.byte	0x65
 1528 04c0 29030000 		.4byte	0x329
ARM GAS  /tmp/ccCfPn7s.s 			page 28


 1529 04c4 04       		.uleb128 0x4
 1530 04c5 26080000 		.4byte	.LASF86
 1531 04c9 0C       		.byte	0xc
 1532 04ca 6D       		.byte	0x6d
 1533 04cb DA000000 		.4byte	0xda
 1534 04cf 06       		.uleb128 0x6
 1535 04d0 06050000 		.4byte	.LASF87
 1536 04d4 04       		.byte	0x4
 1537 04d5 0C       		.byte	0xc
 1538 04d6 89       		.byte	0x89
 1539 04d7 E8040000 		.4byte	0x4e8
 1540 04db 14       		.uleb128 0x14
 1541 04dc 72313300 		.ascii	"r13\000"
 1542 04e0 0C       		.byte	0xc
 1543 04e1 8A       		.byte	0x8a
 1544 04e2 5A050000 		.4byte	0x55a
 1545 04e6 00       		.byte	0
 1546 04e7 00       		.byte	0
 1547 04e8 06       		.uleb128 0x6
 1548 04e9 80060000 		.4byte	.LASF88
 1549 04ed 24       		.byte	0x24
 1550 04ee 01       		.byte	0x1
 1551 04ef A4       		.byte	0xa4
 1552 04f0 5A050000 		.4byte	0x55a
 1553 04f4 14       		.uleb128 0x14
 1554 04f5 723800   		.ascii	"r8\000"
 1555 04f8 01       		.byte	0x1
 1556 04f9 A5       		.byte	0xa5
 1557 04fa B9040000 		.4byte	0x4b9
 1558 04fe 00       		.byte	0
 1559 04ff 14       		.uleb128 0x14
 1560 0500 723900   		.ascii	"r9\000"
 1561 0503 01       		.byte	0x1
 1562 0504 A6       		.byte	0xa6
 1563 0505 B9040000 		.4byte	0x4b9
 1564 0509 04       		.byte	0x4
 1565 050a 14       		.uleb128 0x14
 1566 050b 72313000 		.ascii	"r10\000"
 1567 050f 01       		.byte	0x1
 1568 0510 A7       		.byte	0xa7
 1569 0511 B9040000 		.4byte	0x4b9
 1570 0515 08       		.byte	0x8
 1571 0516 14       		.uleb128 0x14
 1572 0517 72313100 		.ascii	"r11\000"
 1573 051b 01       		.byte	0x1
 1574 051c A8       		.byte	0xa8
 1575 051d B9040000 		.4byte	0x4b9
 1576 0521 0C       		.byte	0xc
 1577 0522 14       		.uleb128 0x14
 1578 0523 723400   		.ascii	"r4\000"
 1579 0526 01       		.byte	0x1
 1580 0527 A9       		.byte	0xa9
 1581 0528 B9040000 		.4byte	0x4b9
 1582 052c 10       		.byte	0x10
 1583 052d 14       		.uleb128 0x14
 1584 052e 723500   		.ascii	"r5\000"
 1585 0531 01       		.byte	0x1
ARM GAS  /tmp/ccCfPn7s.s 			page 29


 1586 0532 AA       		.byte	0xaa
 1587 0533 B9040000 		.4byte	0x4b9
 1588 0537 14       		.byte	0x14
 1589 0538 14       		.uleb128 0x14
 1590 0539 723600   		.ascii	"r6\000"
 1591 053c 01       		.byte	0x1
 1592 053d AB       		.byte	0xab
 1593 053e B9040000 		.4byte	0x4b9
 1594 0542 18       		.byte	0x18
 1595 0543 14       		.uleb128 0x14
 1596 0544 723700   		.ascii	"r7\000"
 1597 0547 01       		.byte	0x1
 1598 0548 AC       		.byte	0xac
 1599 0549 B9040000 		.4byte	0x4b9
 1600 054d 1C       		.byte	0x1c
 1601 054e 14       		.uleb128 0x14
 1602 054f 6C7200   		.ascii	"lr\000"
 1603 0552 01       		.byte	0x1
 1604 0553 AD       		.byte	0xad
 1605 0554 B9040000 		.4byte	0x4b9
 1606 0558 20       		.byte	0x20
 1607 0559 00       		.byte	0
 1608 055a 0A       		.uleb128 0xa
 1609 055b 04       		.byte	0x4
 1610 055c E8040000 		.4byte	0x4e8
 1611 0560 15       		.uleb128 0x15
 1612 0561 60       		.byte	0x60
 1613 0562 0D       		.byte	0xd
 1614 0563 A101     		.2byte	0x1a1
 1615 0565 6C060000 		.4byte	0x66c
 1616 0569 08       		.uleb128 0x8
 1617 056a 43523100 		.ascii	"CR1\000"
 1618 056e 0D       		.byte	0xd
 1619 056f A201     		.2byte	0x1a2
 1620 0571 D5000000 		.4byte	0xd5
 1621 0575 00       		.byte	0
 1622 0576 08       		.uleb128 0x8
 1623 0577 43523200 		.ascii	"CR2\000"
 1624 057b 0D       		.byte	0xd
 1625 057c A301     		.2byte	0x1a3
 1626 057e D5000000 		.4byte	0xd5
 1627 0582 04       		.byte	0x4
 1628 0583 09       		.uleb128 0x9
 1629 0584 AC040000 		.4byte	.LASF89
 1630 0588 0D       		.byte	0xd
 1631 0589 A401     		.2byte	0x1a4
 1632 058b D5000000 		.4byte	0xd5
 1633 058f 08       		.byte	0x8
 1634 0590 09       		.uleb128 0x9
 1635 0591 E4030000 		.4byte	.LASF90
 1636 0595 0D       		.byte	0xd
 1637 0596 A501     		.2byte	0x1a5
 1638 0598 D5000000 		.4byte	0xd5
 1639 059c 0C       		.byte	0xc
 1640 059d 08       		.uleb128 0x8
 1641 059e 535200   		.ascii	"SR\000"
 1642 05a1 0D       		.byte	0xd
ARM GAS  /tmp/ccCfPn7s.s 			page 30


 1643 05a2 A601     		.2byte	0x1a6
 1644 05a4 D5000000 		.4byte	0xd5
 1645 05a8 10       		.byte	0x10
 1646 05a9 08       		.uleb128 0x8
 1647 05aa 45475200 		.ascii	"EGR\000"
 1648 05ae 0D       		.byte	0xd
 1649 05af A701     		.2byte	0x1a7
 1650 05b1 D5000000 		.4byte	0xd5
 1651 05b5 14       		.byte	0x14
 1652 05b6 09       		.uleb128 0x9
 1653 05b7 14020000 		.4byte	.LASF91
 1654 05bb 0D       		.byte	0xd
 1655 05bc A801     		.2byte	0x1a8
 1656 05be D5000000 		.4byte	0xd5
 1657 05c2 18       		.byte	0x18
 1658 05c3 09       		.uleb128 0x9
 1659 05c4 1A020000 		.4byte	.LASF92
 1660 05c8 0D       		.byte	0xd
 1661 05c9 A901     		.2byte	0x1a9
 1662 05cb D5000000 		.4byte	0xd5
 1663 05cf 1C       		.byte	0x1c
 1664 05d0 09       		.uleb128 0x9
 1665 05d1 1F040000 		.4byte	.LASF93
 1666 05d5 0D       		.byte	0xd
 1667 05d6 AA01     		.2byte	0x1aa
 1668 05d8 D5000000 		.4byte	0xd5
 1669 05dc 20       		.byte	0x20
 1670 05dd 08       		.uleb128 0x8
 1671 05de 434E5400 		.ascii	"CNT\000"
 1672 05e2 0D       		.byte	0xd
 1673 05e3 AB01     		.2byte	0x1ab
 1674 05e5 D5000000 		.4byte	0xd5
 1675 05e9 24       		.byte	0x24
 1676 05ea 08       		.uleb128 0x8
 1677 05eb 50534300 		.ascii	"PSC\000"
 1678 05ef 0D       		.byte	0xd
 1679 05f0 AC01     		.2byte	0x1ac
 1680 05f2 D5000000 		.4byte	0xd5
 1681 05f6 28       		.byte	0x28
 1682 05f7 08       		.uleb128 0x8
 1683 05f8 41525200 		.ascii	"ARR\000"
 1684 05fc 0D       		.byte	0xd
 1685 05fd AD01     		.2byte	0x1ad
 1686 05ff D5000000 		.4byte	0xd5
 1687 0603 2C       		.byte	0x2c
 1688 0604 08       		.uleb128 0x8
 1689 0605 52435200 		.ascii	"RCR\000"
 1690 0609 0D       		.byte	0xd
 1691 060a AE01     		.2byte	0x1ae
 1692 060c D5000000 		.4byte	0xd5
 1693 0610 30       		.byte	0x30
 1694 0611 08       		.uleb128 0x8
 1695 0612 43435200 		.ascii	"CCR\000"
 1696 0616 0D       		.byte	0xd
 1697 0617 AF01     		.2byte	0x1af
 1698 0619 B4040000 		.4byte	0x4b4
 1699 061d 34       		.byte	0x34
ARM GAS  /tmp/ccCfPn7s.s 			page 31


 1700 061e 09       		.uleb128 0x9
 1701 061f E2010000 		.4byte	.LASF94
 1702 0623 0D       		.byte	0xd
 1703 0624 B001     		.2byte	0x1b0
 1704 0626 D5000000 		.4byte	0xd5
 1705 062a 44       		.byte	0x44
 1706 062b 08       		.uleb128 0x8
 1707 062c 44435200 		.ascii	"DCR\000"
 1708 0630 0D       		.byte	0xd
 1709 0631 B101     		.2byte	0x1b1
 1710 0633 D5000000 		.4byte	0xd5
 1711 0637 48       		.byte	0x48
 1712 0638 09       		.uleb128 0x9
 1713 0639 79010000 		.4byte	.LASF95
 1714 063d 0D       		.byte	0xd
 1715 063e B201     		.2byte	0x1b2
 1716 0640 D5000000 		.4byte	0xd5
 1717 0644 4C       		.byte	0x4c
 1718 0645 08       		.uleb128 0x8
 1719 0646 4F5200   		.ascii	"OR\000"
 1720 0649 0D       		.byte	0xd
 1721 064a B301     		.2byte	0x1b3
 1722 064c D5000000 		.4byte	0xd5
 1723 0650 50       		.byte	0x50
 1724 0651 09       		.uleb128 0x9
 1725 0652 20020000 		.4byte	.LASF96
 1726 0656 0D       		.byte	0xd
 1727 0657 B401     		.2byte	0x1b4
 1728 0659 D5000000 		.4byte	0xd5
 1729 065d 54       		.byte	0x54
 1730 065e 09       		.uleb128 0x9
 1731 065f 8C060000 		.4byte	.LASF97
 1732 0663 0D       		.byte	0xd
 1733 0664 B501     		.2byte	0x1b5
 1734 0666 94040000 		.4byte	0x494
 1735 066a 58       		.byte	0x58
 1736 066b 00       		.byte	0
 1737 066c 16       		.uleb128 0x16
 1738 066d DD020000 		.4byte	.LASF98
 1739 0671 0D       		.byte	0xd
 1740 0672 B601     		.2byte	0x1b6
 1741 0674 60050000 		.4byte	0x560
 1742 0678 17       		.uleb128 0x17
 1743 0679 10       		.byte	0x10
 1744 067a 0E       		.byte	0xe
 1745 067b 51       		.byte	0x51
 1746 067c B1060000 		.4byte	0x6b1
 1747 0680 07       		.uleb128 0x7
 1748 0681 9A020000 		.4byte	.LASF99
 1749 0685 0E       		.byte	0xe
 1750 0686 55       		.byte	0x55
 1751 0687 32010000 		.4byte	0x132
 1752 068b 00       		.byte	0
 1753 068c 07       		.uleb128 0x7
 1754 068d 67040000 		.4byte	.LASF100
 1755 0691 0E       		.byte	0xe
 1756 0692 59       		.byte	0x59
ARM GAS  /tmp/ccCfPn7s.s 			page 32


 1757 0693 4C020000 		.4byte	0x24c
 1758 0697 04       		.byte	0x4
 1759 0698 07       		.uleb128 0x7
 1760 0699 3D020000 		.4byte	.LASF101
 1761 069d 0E       		.byte	0xe
 1762 069e 5D       		.byte	0x5d
 1763 069f 29030000 		.4byte	0x329
 1764 06a3 08       		.byte	0x8
 1765 06a4 07       		.uleb128 0x7
 1766 06a5 D3000000 		.4byte	.LASF102
 1767 06a9 0E       		.byte	0xe
 1768 06aa 61       		.byte	0x61
 1769 06ab A9000000 		.4byte	0xa9
 1770 06af 0C       		.byte	0xc
 1771 06b0 00       		.byte	0
 1772 06b1 04       		.uleb128 0x4
 1773 06b2 4D070000 		.4byte	.LASF103
 1774 06b6 0E       		.byte	0xe
 1775 06b7 62       		.byte	0x62
 1776 06b8 78060000 		.4byte	0x678
 1777 06bc 18       		.uleb128 0x18
 1778 06bd 0804     		.2byte	0x408
 1779 06bf 0E       		.byte	0xe
 1780 06c0 67       		.byte	0x67
 1781 06c1 EA060000 		.4byte	0x6ea
 1782 06c5 07       		.uleb128 0x7
 1783 06c6 BB040000 		.4byte	.LASF104
 1784 06ca 0E       		.byte	0xe
 1785 06cb 6B       		.byte	0x6b
 1786 06cc 2C000000 		.4byte	0x2c
 1787 06d0 00       		.byte	0
 1788 06d1 07       		.uleb128 0x7
 1789 06d2 3A050000 		.4byte	.LASF105
 1790 06d6 0E       		.byte	0xe
 1791 06d7 6F       		.byte	0x6f
 1792 06d8 EA060000 		.4byte	0x6ea
 1793 06dc 04       		.byte	0x4
 1794 06dd 07       		.uleb128 0x7
 1795 06de 90040000 		.4byte	.LASF106
 1796 06e2 0E       		.byte	0xe
 1797 06e3 73       		.byte	0x73
 1798 06e4 F0060000 		.4byte	0x6f0
 1799 06e8 08       		.byte	0x8
 1800 06e9 00       		.byte	0
 1801 06ea 0A       		.uleb128 0xa
 1802 06eb 04       		.byte	0x4
 1803 06ec B1060000 		.4byte	0x6b1
 1804 06f0 11       		.uleb128 0x11
 1805 06f1 B1060000 		.4byte	0x6b1
 1806 06f5 00070000 		.4byte	0x700
 1807 06f9 12       		.uleb128 0x12
 1808 06fa 7D040000 		.4byte	0x47d
 1809 06fe 3F       		.byte	0x3f
 1810 06ff 00       		.byte	0
 1811 0700 04       		.uleb128 0x4
 1812 0701 DB070000 		.4byte	.LASF107
 1813 0705 0E       		.byte	0xe
ARM GAS  /tmp/ccCfPn7s.s 			page 33


 1814 0706 74       		.byte	0x74
 1815 0707 BC060000 		.4byte	0x6bc
 1816 070b 19       		.uleb128 0x19
 1817 070c 04       		.byte	0x4
 1818 070d 0B       		.byte	0xb
 1819 070e FA       		.byte	0xfa
 1820 070f 68070000 		.4byte	0x768
 1821 0713 1A       		.uleb128 0x1a
 1822 0714 AB020000 		.4byte	.LASF108
 1823 0718 0B       		.byte	0xb
 1824 0719 0101     		.2byte	0x101
 1825 071b 11010000 		.4byte	0x111
 1826 071f 1A       		.uleb128 0x1a
 1827 0720 56080000 		.4byte	.LASF109
 1828 0724 0B       		.byte	0xb
 1829 0725 0801     		.2byte	0x108
 1830 0727 11010000 		.4byte	0x111
 1831 072b 1A       		.uleb128 0x1a
 1832 072c E8000000 		.4byte	.LASF110
 1833 0730 0B       		.byte	0xb
 1834 0731 0F01     		.2byte	0x10f
 1835 0733 29030000 		.4byte	0x329
 1836 0737 1A       		.uleb128 0x1a
 1837 0738 D5070000 		.4byte	.LASF111
 1838 073c 0B       		.byte	0xb
 1839 073d 1601     		.2byte	0x116
 1840 073f 68070000 		.4byte	0x768
 1841 0743 1A       		.uleb128 0x1a
 1842 0744 CE070000 		.4byte	.LASF112
 1843 0748 0B       		.byte	0xb
 1844 0749 1E01     		.2byte	0x11e
 1845 074b 93070000 		.4byte	0x793
 1846 074f 1A       		.uleb128 0x1a
 1847 0750 3A000000 		.4byte	.LASF113
 1848 0754 0B       		.byte	0xb
 1849 0755 2701     		.2byte	0x127
 1850 0757 CA070000 		.4byte	0x7ca
 1851 075b 1A       		.uleb128 0x1a
 1852 075c 30010000 		.4byte	.LASF114
 1853 0760 0B       		.byte	0xb
 1854 0761 2F01     		.2byte	0x12f
 1855 0763 1C010000 		.4byte	0x11c
 1856 0767 00       		.byte	0
 1857 0768 0A       		.uleb128 0xa
 1858 0769 04       		.byte	0x4
 1859 076a 41020000 		.4byte	0x241
 1860 076e 06       		.uleb128 0x6
 1861 076f EE010000 		.4byte	.LASF115
 1862 0773 0C       		.byte	0xc
 1863 0774 0F       		.byte	0xf
 1864 0775 34       		.byte	0x34
 1865 0776 93070000 		.4byte	0x793
 1866 077a 07       		.uleb128 0x7
 1867 077b 87000000 		.4byte	.LASF116
 1868 077f 0F       		.byte	0xf
 1869 0780 35       		.byte	0x35
 1870 0781 76020000 		.4byte	0x276
ARM GAS  /tmp/ccCfPn7s.s 			page 34


 1871 0785 00       		.byte	0
 1872 0786 07       		.uleb128 0x7
 1873 0787 87010000 		.4byte	.LASF117
 1874 078b 0F       		.byte	0xf
 1875 078c 37       		.byte	0x37
 1876 078d 27010000 		.4byte	0x127
 1877 0791 08       		.byte	0x8
 1878 0792 00       		.byte	0
 1879 0793 0A       		.uleb128 0xa
 1880 0794 04       		.byte	0x4
 1881 0795 6E070000 		.4byte	0x76e
 1882 0799 06       		.uleb128 0x6
 1883 079a D0030000 		.4byte	.LASF118
 1884 079e 10       		.byte	0x10
 1885 079f 10       		.byte	0x10
 1886 07a0 39       		.byte	0x39
 1887 07a1 CA070000 		.4byte	0x7ca
 1888 07a5 07       		.uleb128 0x7
 1889 07a6 6F060000 		.4byte	.LASF119
 1890 07aa 10       		.byte	0x10
 1891 07ab 3A       		.byte	0x3a
 1892 07ac 76020000 		.4byte	0x276
 1893 07b0 00       		.byte	0
 1894 07b1 07       		.uleb128 0x7
 1895 07b2 7F000000 		.4byte	.LASF120
 1896 07b6 10       		.byte	0x10
 1897 07b7 3C       		.byte	0x3c
 1898 07b8 4C020000 		.4byte	0x24c
 1899 07bc 08       		.byte	0x8
 1900 07bd 07       		.uleb128 0x7
 1901 07be ED070000 		.4byte	.LASF121
 1902 07c2 10       		.byte	0x10
 1903 07c3 3E       		.byte	0x3e
 1904 07c4 25090000 		.4byte	0x925
 1905 07c8 0C       		.byte	0xc
 1906 07c9 00       		.byte	0
 1907 07ca 0A       		.uleb128 0xa
 1908 07cb 04       		.byte	0x4
 1909 07cc 99070000 		.4byte	0x799
 1910 07d0 0A       		.uleb128 0xa
 1911 07d1 04       		.byte	0x4
 1912 07d2 E2070000 		.4byte	0x7e2
 1913 07d6 05       		.uleb128 0x5
 1914 07d7 D0070000 		.4byte	0x7d0
 1915 07db 03       		.uleb128 0x3
 1916 07dc 01       		.byte	0x1
 1917 07dd 08       		.byte	0x8
 1918 07de 53000000 		.4byte	.LASF122
 1919 07e2 1B       		.uleb128 0x1b
 1920 07e3 DB070000 		.4byte	0x7db
 1921 07e7 0A       		.uleb128 0xa
 1922 07e8 04       		.byte	0x4
 1923 07e9 C4040000 		.4byte	0x4c4
 1924 07ed 0A       		.uleb128 0xa
 1925 07ee 04       		.byte	0x4
 1926 07ef 2B030000 		.4byte	0x32b
 1927 07f3 11       		.uleb128 0x11
ARM GAS  /tmp/ccCfPn7s.s 			page 35


 1928 07f4 C4040000 		.4byte	0x4c4
 1929 07f8 03080000 		.4byte	0x803
 1930 07fc 12       		.uleb128 0x12
 1931 07fd 7D040000 		.4byte	0x47d
 1932 0801 1B       		.byte	0x1b
 1933 0802 00       		.byte	0
 1934 0803 1C       		.uleb128 0x1c
 1935 0804 636800   		.ascii	"ch\000"
 1936 0807 0B       		.byte	0xb
 1937 0808 0902     		.2byte	0x209
 1938 080a 20040000 		.4byte	0x420
 1939 080e 17       		.uleb128 0x17
 1940 080f 16       		.byte	0x16
 1941 0810 11       		.byte	0x11
 1942 0811 34       		.byte	0x34
 1943 0812 EF080000 		.4byte	0x8ef
 1944 0816 07       		.uleb128 0x7
 1945 0817 E6060000 		.4byte	.LASF124
 1946 081b 11       		.byte	0x11
 1947 081c 35       		.byte	0x35
 1948 081d EF080000 		.4byte	0x8ef
 1949 0821 00       		.byte	0
 1950 0822 07       		.uleb128 0x7
 1951 0823 32050000 		.4byte	.LASF125
 1952 0827 11       		.byte	0x11
 1953 0828 36       		.byte	0x36
 1954 0829 A9000000 		.4byte	0xa9
 1955 082d 04       		.byte	0x4
 1956 082e 07       		.uleb128 0x7
 1957 082f 93050000 		.4byte	.LASF126
 1958 0833 11       		.byte	0x11
 1959 0834 37       		.byte	0x37
 1960 0835 A9000000 		.4byte	0xa9
 1961 0839 05       		.byte	0x5
 1962 083a 07       		.uleb128 0x7
 1963 083b 45060000 		.4byte	.LASF127
 1964 083f 11       		.byte	0x11
 1965 0840 38       		.byte	0x38
 1966 0841 B4000000 		.4byte	0xb4
 1967 0845 06       		.byte	0x6
 1968 0846 07       		.uleb128 0x7
 1969 0847 6E010000 		.4byte	.LASF128
 1970 084b 11       		.byte	0x11
 1971 084c 39       		.byte	0x39
 1972 084d A9000000 		.4byte	0xa9
 1973 0851 08       		.byte	0x8
 1974 0852 07       		.uleb128 0x7
 1975 0853 C3010000 		.4byte	.LASF129
 1976 0857 11       		.byte	0x11
 1977 0858 3A       		.byte	0x3a
 1978 0859 A9000000 		.4byte	0xa9
 1979 085d 09       		.byte	0x9
 1980 085e 07       		.uleb128 0x7
 1981 085f B2020000 		.4byte	.LASF130
 1982 0863 11       		.byte	0x11
 1983 0864 3B       		.byte	0x3b
 1984 0865 A9000000 		.4byte	0xa9
ARM GAS  /tmp/ccCfPn7s.s 			page 36


 1985 0869 0A       		.byte	0xa
 1986 086a 07       		.uleb128 0x7
 1987 086b D0060000 		.4byte	.LASF131
 1988 086f 11       		.byte	0x11
 1989 0870 3C       		.byte	0x3c
 1990 0871 A9000000 		.4byte	0xa9
 1991 0875 0B       		.byte	0xb
 1992 0876 07       		.uleb128 0x7
 1993 0877 FD030000 		.4byte	.LASF132
 1994 087b 11       		.byte	0x11
 1995 087c 3D       		.byte	0x3d
 1996 087d A9000000 		.4byte	0xa9
 1997 0881 0C       		.byte	0xc
 1998 0882 07       		.uleb128 0x7
 1999 0883 00080000 		.4byte	.LASF133
 2000 0887 11       		.byte	0x11
 2001 0888 3E       		.byte	0x3e
 2002 0889 A9000000 		.4byte	0xa9
 2003 088d 0D       		.byte	0xd
 2004 088e 07       		.uleb128 0x7
 2005 088f 72000000 		.4byte	.LASF134
 2006 0893 11       		.byte	0x11
 2007 0894 3F       		.byte	0x3f
 2008 0895 A9000000 		.4byte	0xa9
 2009 0899 0E       		.byte	0xe
 2010 089a 07       		.uleb128 0x7
 2011 089b DC000000 		.4byte	.LASF135
 2012 089f 11       		.byte	0x11
 2013 08a0 40       		.byte	0x40
 2014 08a1 A9000000 		.4byte	0xa9
 2015 08a5 0F       		.byte	0xf
 2016 08a6 07       		.uleb128 0x7
 2017 08a7 08040000 		.4byte	.LASF136
 2018 08ab 11       		.byte	0x11
 2019 08ac 41       		.byte	0x41
 2020 08ad A9000000 		.4byte	0xa9
 2021 08b1 10       		.byte	0x10
 2022 08b2 07       		.uleb128 0x7
 2023 08b3 1E070000 		.4byte	.LASF137
 2024 08b7 11       		.byte	0x11
 2025 08b8 43       		.byte	0x43
 2026 08b9 A9000000 		.4byte	0xa9
 2027 08bd 11       		.byte	0x11
 2028 08be 07       		.uleb128 0x7
 2029 08bf 50010000 		.4byte	.LASF138
 2030 08c3 11       		.byte	0x11
 2031 08c4 44       		.byte	0x44
 2032 08c5 A9000000 		.4byte	0xa9
 2033 08c9 12       		.byte	0x12
 2034 08ca 07       		.uleb128 0x7
 2035 08cb 26050000 		.4byte	.LASF139
 2036 08cf 11       		.byte	0x11
 2037 08d0 45       		.byte	0x45
 2038 08d1 A9000000 		.4byte	0xa9
 2039 08d5 13       		.byte	0x13
 2040 08d6 07       		.uleb128 0x7
 2041 08d7 CE020000 		.4byte	.LASF140
ARM GAS  /tmp/ccCfPn7s.s 			page 37


 2042 08db 11       		.byte	0x11
 2043 08dc 46       		.byte	0x46
 2044 08dd A9000000 		.4byte	0xa9
 2045 08e1 14       		.byte	0x14
 2046 08e2 07       		.uleb128 0x7
 2047 08e3 C4060000 		.4byte	.LASF141
 2048 08e7 11       		.byte	0x11
 2049 08e8 48       		.byte	0x48
 2050 08e9 A9000000 		.4byte	0xa9
 2051 08ed 15       		.byte	0x15
 2052 08ee 00       		.byte	0
 2053 08ef 11       		.uleb128 0x11
 2054 08f0 DB070000 		.4byte	0x7db
 2055 08f4 FF080000 		.4byte	0x8ff
 2056 08f8 12       		.uleb128 0x12
 2057 08f9 7D040000 		.4byte	0x47d
 2058 08fd 03       		.byte	0x3
 2059 08fe 00       		.byte	0
 2060 08ff 04       		.uleb128 0x4
 2061 0900 F8050000 		.4byte	.LASF142
 2062 0904 11       		.byte	0x11
 2063 0905 49       		.byte	0x49
 2064 0906 0E080000 		.4byte	0x80e
 2065 090a 1B       		.uleb128 0x1b
 2066 090b FF080000 		.4byte	0x8ff
 2067 090f 13       		.uleb128 0x13
 2068 0910 31080000 		.4byte	.LASF143
 2069 0914 11       		.byte	0x11
 2070 0915 6E       		.byte	0x6e
 2071 0916 0A090000 		.4byte	0x90a
 2072 091a 04       		.uleb128 0x4
 2073 091b 67070000 		.4byte	.LASF144
 2074 091f 10       		.byte	0x10
 2075 0920 34       		.byte	0x34
 2076 0921 99070000 		.4byte	0x799
 2077 0925 0A       		.uleb128 0xa
 2078 0926 04       		.byte	0x4
 2079 0927 1A090000 		.4byte	0x91a
 2080 092b 03       		.uleb128 0x3
 2081 092c 01       		.byte	0x1
 2082 092d 02       		.byte	0x2
 2083 092e E9020000 		.4byte	.LASF145
 2084 0932 1D       		.uleb128 0x1d
 2085 0933 5C070000 		.4byte	.LASF170
 2086 0937 06       		.byte	0x6
 2087 0938 1501     		.2byte	0x115
 2088 093a 00000000 		.4byte	.LFB164
 2089 093e 60000000 		.4byte	.LFE164-.LFB164
 2090 0942 01       		.uleb128 0x1
 2091 0943 9C       		.byte	0x9c
 2092 0944 58090000 		.4byte	0x958
 2093 0948 1E       		.uleb128 0x1e
 2094 0949 6F747000 		.ascii	"otp\000"
 2095 094d 06       		.byte	0x6
 2096 094e 1501     		.2byte	0x115
 2097 0950 4C020000 		.4byte	0x24c
 2098 0954 02       		.uleb128 0x2
ARM GAS  /tmp/ccCfPn7s.s 			page 38


 2099 0955 91       		.byte	0x91
 2100 0956 74       		.sleb128 -12
 2101 0957 00       		.byte	0
 2102 0958 1F       		.uleb128 0x1f
 2103 0959 6B050000 		.4byte	.LASF146
 2104 095d 06       		.byte	0x6
 2105 095e 0801     		.2byte	0x108
 2106 0960 00000000 		.4byte	.LFB163
 2107 0964 18000000 		.4byte	.LFE163-.LFB163
 2108 0968 01       		.uleb128 0x1
 2109 0969 9C       		.byte	0x9c
 2110 096a 20       		.uleb128 0x20
 2111 096b 5A050000 		.4byte	.LASF147
 2112 096f 06       		.byte	0x6
 2113 0970 FA       		.byte	0xfa
 2114 0971 00000000 		.4byte	.LFB162
 2115 0975 28000000 		.4byte	.LFE162-.LFB162
 2116 0979 01       		.uleb128 0x1
 2117 097a 9C       		.byte	0x9c
 2118 097b 20       		.uleb128 0x20
 2119 097c 41050000 		.4byte	.LASF148
 2120 0980 06       		.byte	0x6
 2121 0981 EB       		.byte	0xeb
 2122 0982 00000000 		.4byte	.LFB161
 2123 0986 28000000 		.4byte	.LFE161-.LFB161
 2124 098a 01       		.uleb128 0x1
 2125 098b 9C       		.byte	0x9c
 2126 098c 20       		.uleb128 0x20
 2127 098d A6050000 		.4byte	.LASF149
 2128 0991 06       		.byte	0x6
 2129 0992 D9       		.byte	0xd9
 2130 0993 00000000 		.4byte	.LFB160
 2131 0997 38000000 		.4byte	.LFE160-.LFB160
 2132 099b 01       		.uleb128 0x1
 2133 099c 9C       		.byte	0x9c
 2134 099d 20       		.uleb128 0x20
 2135 099e E3050000 		.4byte	.LASF150
 2136 09a2 06       		.byte	0x6
 2137 09a3 CA       		.byte	0xca
 2138 09a4 00000000 		.4byte	.LFB159
 2139 09a8 38000000 		.4byte	.LFE159-.LFB159
 2140 09ac 01       		.uleb128 0x1
 2141 09ad 9C       		.byte	0x9c
 2142 09ae 20       		.uleb128 0x20
 2143 09af 58020000 		.4byte	.LASF151
 2144 09b3 06       		.byte	0x6
 2145 09b4 BD       		.byte	0xbd
 2146 09b5 00000000 		.4byte	.LFB158
 2147 09b9 2C000000 		.4byte	.LFE158-.LFB158
 2148 09bd 01       		.uleb128 0x1
 2149 09be 9C       		.byte	0x9c
 2150 09bf 20       		.uleb128 0x20
 2151 09c0 37010000 		.4byte	.LASF152
 2152 09c4 06       		.byte	0x6
 2153 09c5 B0       		.byte	0xb0
 2154 09c6 00000000 		.4byte	.LFB157
 2155 09ca 2C000000 		.4byte	.LFE157-.LFB157
ARM GAS  /tmp/ccCfPn7s.s 			page 39


 2156 09ce 01       		.uleb128 0x1
 2157 09cf 9C       		.byte	0x9c
 2158 09d0 20       		.uleb128 0x20
 2159 09d1 41000000 		.4byte	.LASF153
 2160 09d5 06       		.byte	0x6
 2161 09d6 A3       		.byte	0xa3
 2162 09d7 00000000 		.4byte	.LFB156
 2163 09db 2C000000 		.4byte	.LFE156-.LFB156
 2164 09df 01       		.uleb128 0x1
 2165 09e0 9C       		.byte	0x9c
 2166 09e1 20       		.uleb128 0x20
 2167 09e2 D2040000 		.4byte	.LASF154
 2168 09e6 06       		.byte	0x6
 2169 09e7 96       		.byte	0x96
 2170 09e8 00000000 		.4byte	.LFB155
 2171 09ec 2C000000 		.4byte	.LFE155-.LFB155
 2172 09f0 01       		.uleb128 0x1
 2173 09f1 9C       		.byte	0x9c
 2174 09f2 20       		.uleb128 0x20
 2175 09f3 2D040000 		.4byte	.LASF155
 2176 09f7 06       		.byte	0x6
 2177 09f8 8A       		.byte	0x8a
 2178 09f9 00000000 		.4byte	.LFB154
 2179 09fd 28000000 		.4byte	.LFE154-.LFB154
 2180 0a01 01       		.uleb128 0x1
 2181 0a02 9C       		.byte	0x9c
 2182 0a03 20       		.uleb128 0x20
 2183 0a04 EF020000 		.4byte	.LASF156
 2184 0a08 06       		.byte	0x6
 2185 0a09 7E       		.byte	0x7e
 2186 0a0a 00000000 		.4byte	.LFB153
 2187 0a0e 28000000 		.4byte	.LFE153-.LFB153
 2188 0a12 01       		.uleb128 0x1
 2189 0a13 9C       		.byte	0x9c
 2190 0a14 20       		.uleb128 0x20
 2191 0a15 27060000 		.4byte	.LASF157
 2192 0a19 06       		.byte	0x6
 2193 0a1a 72       		.byte	0x72
 2194 0a1b 00000000 		.4byte	.LFB152
 2195 0a1f 28000000 		.4byte	.LFE152-.LFB152
 2196 0a23 01       		.uleb128 0x1
 2197 0a24 9C       		.byte	0x9c
 2198 0a25 21       		.uleb128 0x21
 2199 0a26 A7000000 		.4byte	.LASF158
 2200 0a2a 05       		.byte	0x5
 2201 0a2b E4       		.byte	0xe4
 2202 0a2c 32010000 		.4byte	0x132
 2203 0a30 00000000 		.4byte	.LFB85
 2204 0a34 0C000000 		.4byte	.LFE85-.LFB85
 2205 0a38 01       		.uleb128 0x1
 2206 0a39 9C       		.byte	0x9c
 2207 0a3a 21       		.uleb128 0x21
 2208 0a3b E9030000 		.4byte	.LASF159
 2209 0a3f 04       		.byte	0x4
 2210 0a40 69       		.byte	0x69
 2211 0a41 32010000 		.4byte	0x132
 2212 0a45 00000000 		.4byte	.LFB55
ARM GAS  /tmp/ccCfPn7s.s 			page 40


 2213 0a49 0C000000 		.4byte	.LFE55-.LFB55
 2214 0a4d 01       		.uleb128 0x1
 2215 0a4e 9C       		.byte	0x9c
 2216 0a4f 22       		.uleb128 0x22
 2217 0a50 BB050000 		.4byte	.LASF160
 2218 0a54 03       		.byte	0x3
 2219 0a55 8B       		.byte	0x8b
 2220 0a56 32010000 		.4byte	0x132
 2221 0a5a 00000000 		.4byte	.LFB46
 2222 0a5e 10000000 		.4byte	.LFE46-.LFB46
 2223 0a62 01       		.uleb128 0x1
 2224 0a63 9C       		.byte	0x9c
 2225 0a64 23       		.uleb128 0x23
 2226 0a65 6F070000 		.4byte	.LASF161
 2227 0a69 01       		.byte	0x1
 2228 0a6a 6701     		.2byte	0x167
 2229 0a6c 00000000 		.4byte	.LFB41
 2230 0a70 0A000000 		.4byte	.LFE41-.LFB41
 2231 0a74 01       		.uleb128 0x1
 2232 0a75 9C       		.byte	0x9c
 2233 0a76 23       		.uleb128 0x23
 2234 0a77 00010000 		.4byte	.LASF162
 2235 0a7b 01       		.byte	0x1
 2236 0a7c 5D01     		.2byte	0x15d
 2237 0a7e 00000000 		.4byte	.LFB40
 2238 0a82 0A000000 		.4byte	.LFE40-.LFB40
 2239 0a86 01       		.uleb128 0x1
 2240 0a87 9C       		.byte	0x9c
 2241 0a88 24       		.uleb128 0x24
 2242 0a89 42080000 		.4byte	.LASF163
 2243 0a8d 01       		.byte	0x1
 2244 0a8e 5301     		.2byte	0x153
 2245 0a90 00000000 		.4byte	.LFB39
 2246 0a94 06000000 		.4byte	.LFE39-.LFB39
 2247 0a98 01       		.uleb128 0x1
 2248 0a99 9C       		.byte	0x9c
 2249 0a9a AF0A0000 		.4byte	0xaaf
 2250 0a9e 25       		.uleb128 0x25
 2251 0a9f DF0A0000 		.4byte	0xadf
 2252 0aa3 00000000 		.4byte	.LBB8
 2253 0aa7 02000000 		.4byte	.LBE8-.LBB8
 2254 0aab 01       		.byte	0x1
 2255 0aac 5501     		.2byte	0x155
 2256 0aae 00       		.byte	0
 2257 0aaf 24       		.uleb128 0x24
 2258 0ab0 EF000000 		.4byte	.LASF164
 2259 0ab4 01       		.byte	0x1
 2260 0ab5 4A01     		.2byte	0x14a
 2261 0ab7 00000000 		.4byte	.LFB38
 2262 0abb 06000000 		.4byte	.LFE38-.LFB38
 2263 0abf 01       		.uleb128 0x1
 2264 0ac0 9C       		.byte	0x9c
 2265 0ac1 D60A0000 		.4byte	0xad6
 2266 0ac5 25       		.uleb128 0x25
 2267 0ac6 D60A0000 		.4byte	0xad6
 2268 0aca 00000000 		.4byte	.LBB6
 2269 0ace 02000000 		.4byte	.LBE6-.LBB6
ARM GAS  /tmp/ccCfPn7s.s 			page 41


 2270 0ad2 01       		.byte	0x1
 2271 0ad3 4C01     		.2byte	0x14c
 2272 0ad5 00       		.byte	0
 2273 0ad6 26       		.uleb128 0x26
 2274 0ad7 C0020000 		.4byte	.LASF165
 2275 0adb 02       		.byte	0x2
 2276 0adc 5601     		.2byte	0x156
 2277 0ade 03       		.byte	0x3
 2278 0adf 26       		.uleb128 0x26
 2279 0ae0 91060000 		.4byte	.LASF166
 2280 0ae4 02       		.byte	0x2
 2281 0ae5 4B01     		.2byte	0x14b
 2282 0ae7 03       		.byte	0x3
 2283 0ae8 00       		.byte	0
 2284              		.section	.debug_abbrev,"",%progbits
 2285              	.Ldebug_abbrev0:
 2286 0000 01       		.uleb128 0x1
 2287 0001 11       		.uleb128 0x11
 2288 0002 01       		.byte	0x1
 2289 0003 25       		.uleb128 0x25
 2290 0004 0E       		.uleb128 0xe
 2291 0005 13       		.uleb128 0x13
 2292 0006 0B       		.uleb128 0xb
 2293 0007 03       		.uleb128 0x3
 2294 0008 0E       		.uleb128 0xe
 2295 0009 1B       		.uleb128 0x1b
 2296 000a 0E       		.uleb128 0xe
 2297 000b 55       		.uleb128 0x55
 2298 000c 17       		.uleb128 0x17
 2299 000d 11       		.uleb128 0x11
 2300 000e 01       		.uleb128 0x1
 2301 000f 10       		.uleb128 0x10
 2302 0010 17       		.uleb128 0x17
 2303 0011 00       		.byte	0
 2304 0012 00       		.byte	0
 2305 0013 02       		.uleb128 0x2
 2306 0014 24       		.uleb128 0x24
 2307 0015 00       		.byte	0
 2308 0016 0B       		.uleb128 0xb
 2309 0017 0B       		.uleb128 0xb
 2310 0018 3E       		.uleb128 0x3e
 2311 0019 0B       		.uleb128 0xb
 2312 001a 03       		.uleb128 0x3
 2313 001b 08       		.uleb128 0x8
 2314 001c 00       		.byte	0
 2315 001d 00       		.byte	0
 2316 001e 03       		.uleb128 0x3
 2317 001f 24       		.uleb128 0x24
 2318 0020 00       		.byte	0
 2319 0021 0B       		.uleb128 0xb
 2320 0022 0B       		.uleb128 0xb
 2321 0023 3E       		.uleb128 0x3e
 2322 0024 0B       		.uleb128 0xb
 2323 0025 03       		.uleb128 0x3
 2324 0026 0E       		.uleb128 0xe
 2325 0027 00       		.byte	0
 2326 0028 00       		.byte	0
ARM GAS  /tmp/ccCfPn7s.s 			page 42


 2327 0029 04       		.uleb128 0x4
 2328 002a 16       		.uleb128 0x16
 2329 002b 00       		.byte	0
 2330 002c 03       		.uleb128 0x3
 2331 002d 0E       		.uleb128 0xe
 2332 002e 3A       		.uleb128 0x3a
 2333 002f 0B       		.uleb128 0xb
 2334 0030 3B       		.uleb128 0x3b
 2335 0031 0B       		.uleb128 0xb
 2336 0032 49       		.uleb128 0x49
 2337 0033 13       		.uleb128 0x13
 2338 0034 00       		.byte	0
 2339 0035 00       		.byte	0
 2340 0036 05       		.uleb128 0x5
 2341 0037 35       		.uleb128 0x35
 2342 0038 00       		.byte	0
 2343 0039 49       		.uleb128 0x49
 2344 003a 13       		.uleb128 0x13
 2345 003b 00       		.byte	0
 2346 003c 00       		.byte	0
 2347 003d 06       		.uleb128 0x6
 2348 003e 13       		.uleb128 0x13
 2349 003f 01       		.byte	0x1
 2350 0040 03       		.uleb128 0x3
 2351 0041 0E       		.uleb128 0xe
 2352 0042 0B       		.uleb128 0xb
 2353 0043 0B       		.uleb128 0xb
 2354 0044 3A       		.uleb128 0x3a
 2355 0045 0B       		.uleb128 0xb
 2356 0046 3B       		.uleb128 0x3b
 2357 0047 0B       		.uleb128 0xb
 2358 0048 01       		.uleb128 0x1
 2359 0049 13       		.uleb128 0x13
 2360 004a 00       		.byte	0
 2361 004b 00       		.byte	0
 2362 004c 07       		.uleb128 0x7
 2363 004d 0D       		.uleb128 0xd
 2364 004e 00       		.byte	0
 2365 004f 03       		.uleb128 0x3
 2366 0050 0E       		.uleb128 0xe
 2367 0051 3A       		.uleb128 0x3a
 2368 0052 0B       		.uleb128 0xb
 2369 0053 3B       		.uleb128 0x3b
 2370 0054 0B       		.uleb128 0xb
 2371 0055 49       		.uleb128 0x49
 2372 0056 13       		.uleb128 0x13
 2373 0057 38       		.uleb128 0x38
 2374 0058 0B       		.uleb128 0xb
 2375 0059 00       		.byte	0
 2376 005a 00       		.byte	0
 2377 005b 08       		.uleb128 0x8
 2378 005c 0D       		.uleb128 0xd
 2379 005d 00       		.byte	0
 2380 005e 03       		.uleb128 0x3
 2381 005f 08       		.uleb128 0x8
 2382 0060 3A       		.uleb128 0x3a
 2383 0061 0B       		.uleb128 0xb
ARM GAS  /tmp/ccCfPn7s.s 			page 43


 2384 0062 3B       		.uleb128 0x3b
 2385 0063 05       		.uleb128 0x5
 2386 0064 49       		.uleb128 0x49
 2387 0065 13       		.uleb128 0x13
 2388 0066 38       		.uleb128 0x38
 2389 0067 0B       		.uleb128 0xb
 2390 0068 00       		.byte	0
 2391 0069 00       		.byte	0
 2392 006a 09       		.uleb128 0x9
 2393 006b 0D       		.uleb128 0xd
 2394 006c 00       		.byte	0
 2395 006d 03       		.uleb128 0x3
 2396 006e 0E       		.uleb128 0xe
 2397 006f 3A       		.uleb128 0x3a
 2398 0070 0B       		.uleb128 0xb
 2399 0071 3B       		.uleb128 0x3b
 2400 0072 05       		.uleb128 0x5
 2401 0073 49       		.uleb128 0x49
 2402 0074 13       		.uleb128 0x13
 2403 0075 38       		.uleb128 0x38
 2404 0076 0B       		.uleb128 0xb
 2405 0077 00       		.byte	0
 2406 0078 00       		.byte	0
 2407 0079 0A       		.uleb128 0xa
 2408 007a 0F       		.uleb128 0xf
 2409 007b 00       		.byte	0
 2410 007c 0B       		.uleb128 0xb
 2411 007d 0B       		.uleb128 0xb
 2412 007e 49       		.uleb128 0x49
 2413 007f 13       		.uleb128 0x13
 2414 0080 00       		.byte	0
 2415 0081 00       		.byte	0
 2416 0082 0B       		.uleb128 0xb
 2417 0083 13       		.uleb128 0x13
 2418 0084 01       		.byte	0x1
 2419 0085 03       		.uleb128 0x3
 2420 0086 0E       		.uleb128 0xe
 2421 0087 0B       		.uleb128 0xb
 2422 0088 0B       		.uleb128 0xb
 2423 0089 3A       		.uleb128 0x3a
 2424 008a 0B       		.uleb128 0xb
 2425 008b 3B       		.uleb128 0x3b
 2426 008c 05       		.uleb128 0x5
 2427 008d 01       		.uleb128 0x1
 2428 008e 13       		.uleb128 0x13
 2429 008f 00       		.byte	0
 2430 0090 00       		.byte	0
 2431 0091 0C       		.uleb128 0xc
 2432 0092 15       		.uleb128 0x15
 2433 0093 01       		.byte	0x1
 2434 0094 27       		.uleb128 0x27
 2435 0095 19       		.uleb128 0x19
 2436 0096 01       		.uleb128 0x1
 2437 0097 13       		.uleb128 0x13
 2438 0098 00       		.byte	0
 2439 0099 00       		.byte	0
 2440 009a 0D       		.uleb128 0xd
ARM GAS  /tmp/ccCfPn7s.s 			page 44


 2441 009b 05       		.uleb128 0x5
 2442 009c 00       		.byte	0
 2443 009d 49       		.uleb128 0x49
 2444 009e 13       		.uleb128 0x13
 2445 009f 00       		.byte	0
 2446 00a0 00       		.byte	0
 2447 00a1 0E       		.uleb128 0xe
 2448 00a2 0F       		.uleb128 0xf
 2449 00a3 00       		.byte	0
 2450 00a4 0B       		.uleb128 0xb
 2451 00a5 0B       		.uleb128 0xb
 2452 00a6 00       		.byte	0
 2453 00a7 00       		.byte	0
 2454 00a8 0F       		.uleb128 0xf
 2455 00a9 13       		.uleb128 0x13
 2456 00aa 01       		.byte	0x1
 2457 00ab 03       		.uleb128 0x3
 2458 00ac 0E       		.uleb128 0xe
 2459 00ad 0B       		.uleb128 0xb
 2460 00ae 05       		.uleb128 0x5
 2461 00af 3A       		.uleb128 0x3a
 2462 00b0 0B       		.uleb128 0xb
 2463 00b1 3B       		.uleb128 0x3b
 2464 00b2 05       		.uleb128 0x5
 2465 00b3 01       		.uleb128 0x1
 2466 00b4 13       		.uleb128 0x13
 2467 00b5 00       		.byte	0
 2468 00b6 00       		.byte	0
 2469 00b7 10       		.uleb128 0x10
 2470 00b8 0D       		.uleb128 0xd
 2471 00b9 00       		.byte	0
 2472 00ba 03       		.uleb128 0x3
 2473 00bb 0E       		.uleb128 0xe
 2474 00bc 3A       		.uleb128 0x3a
 2475 00bd 0B       		.uleb128 0xb
 2476 00be 3B       		.uleb128 0x3b
 2477 00bf 05       		.uleb128 0x5
 2478 00c0 49       		.uleb128 0x49
 2479 00c1 13       		.uleb128 0x13
 2480 00c2 38       		.uleb128 0x38
 2481 00c3 05       		.uleb128 0x5
 2482 00c4 00       		.byte	0
 2483 00c5 00       		.byte	0
 2484 00c6 11       		.uleb128 0x11
 2485 00c7 01       		.uleb128 0x1
 2486 00c8 01       		.byte	0x1
 2487 00c9 49       		.uleb128 0x49
 2488 00ca 13       		.uleb128 0x13
 2489 00cb 01       		.uleb128 0x1
 2490 00cc 13       		.uleb128 0x13
 2491 00cd 00       		.byte	0
 2492 00ce 00       		.byte	0
 2493 00cf 12       		.uleb128 0x12
 2494 00d0 21       		.uleb128 0x21
 2495 00d1 00       		.byte	0
 2496 00d2 49       		.uleb128 0x49
 2497 00d3 13       		.uleb128 0x13
ARM GAS  /tmp/ccCfPn7s.s 			page 45


 2498 00d4 2F       		.uleb128 0x2f
 2499 00d5 0B       		.uleb128 0xb
 2500 00d6 00       		.byte	0
 2501 00d7 00       		.byte	0
 2502 00d8 13       		.uleb128 0x13
 2503 00d9 34       		.uleb128 0x34
 2504 00da 00       		.byte	0
 2505 00db 03       		.uleb128 0x3
 2506 00dc 0E       		.uleb128 0xe
 2507 00dd 3A       		.uleb128 0x3a
 2508 00de 0B       		.uleb128 0xb
 2509 00df 3B       		.uleb128 0x3b
 2510 00e0 0B       		.uleb128 0xb
 2511 00e1 49       		.uleb128 0x49
 2512 00e2 13       		.uleb128 0x13
 2513 00e3 3F       		.uleb128 0x3f
 2514 00e4 19       		.uleb128 0x19
 2515 00e5 3C       		.uleb128 0x3c
 2516 00e6 19       		.uleb128 0x19
 2517 00e7 00       		.byte	0
 2518 00e8 00       		.byte	0
 2519 00e9 14       		.uleb128 0x14
 2520 00ea 0D       		.uleb128 0xd
 2521 00eb 00       		.byte	0
 2522 00ec 03       		.uleb128 0x3
 2523 00ed 08       		.uleb128 0x8
 2524 00ee 3A       		.uleb128 0x3a
 2525 00ef 0B       		.uleb128 0xb
 2526 00f0 3B       		.uleb128 0x3b
 2527 00f1 0B       		.uleb128 0xb
 2528 00f2 49       		.uleb128 0x49
 2529 00f3 13       		.uleb128 0x13
 2530 00f4 38       		.uleb128 0x38
 2531 00f5 0B       		.uleb128 0xb
 2532 00f6 00       		.byte	0
 2533 00f7 00       		.byte	0
 2534 00f8 15       		.uleb128 0x15
 2535 00f9 13       		.uleb128 0x13
 2536 00fa 01       		.byte	0x1
 2537 00fb 0B       		.uleb128 0xb
 2538 00fc 0B       		.uleb128 0xb
 2539 00fd 3A       		.uleb128 0x3a
 2540 00fe 0B       		.uleb128 0xb
 2541 00ff 3B       		.uleb128 0x3b
 2542 0100 05       		.uleb128 0x5
 2543 0101 01       		.uleb128 0x1
 2544 0102 13       		.uleb128 0x13
 2545 0103 00       		.byte	0
 2546 0104 00       		.byte	0
 2547 0105 16       		.uleb128 0x16
 2548 0106 16       		.uleb128 0x16
 2549 0107 00       		.byte	0
 2550 0108 03       		.uleb128 0x3
 2551 0109 0E       		.uleb128 0xe
 2552 010a 3A       		.uleb128 0x3a
 2553 010b 0B       		.uleb128 0xb
 2554 010c 3B       		.uleb128 0x3b
ARM GAS  /tmp/ccCfPn7s.s 			page 46


 2555 010d 05       		.uleb128 0x5
 2556 010e 49       		.uleb128 0x49
 2557 010f 13       		.uleb128 0x13
 2558 0110 00       		.byte	0
 2559 0111 00       		.byte	0
 2560 0112 17       		.uleb128 0x17
 2561 0113 13       		.uleb128 0x13
 2562 0114 01       		.byte	0x1
 2563 0115 0B       		.uleb128 0xb
 2564 0116 0B       		.uleb128 0xb
 2565 0117 3A       		.uleb128 0x3a
 2566 0118 0B       		.uleb128 0xb
 2567 0119 3B       		.uleb128 0x3b
 2568 011a 0B       		.uleb128 0xb
 2569 011b 01       		.uleb128 0x1
 2570 011c 13       		.uleb128 0x13
 2571 011d 00       		.byte	0
 2572 011e 00       		.byte	0
 2573 011f 18       		.uleb128 0x18
 2574 0120 13       		.uleb128 0x13
 2575 0121 01       		.byte	0x1
 2576 0122 0B       		.uleb128 0xb
 2577 0123 05       		.uleb128 0x5
 2578 0124 3A       		.uleb128 0x3a
 2579 0125 0B       		.uleb128 0xb
 2580 0126 3B       		.uleb128 0x3b
 2581 0127 0B       		.uleb128 0xb
 2582 0128 01       		.uleb128 0x1
 2583 0129 13       		.uleb128 0x13
 2584 012a 00       		.byte	0
 2585 012b 00       		.byte	0
 2586 012c 19       		.uleb128 0x19
 2587 012d 17       		.uleb128 0x17
 2588 012e 01       		.byte	0x1
 2589 012f 0B       		.uleb128 0xb
 2590 0130 0B       		.uleb128 0xb
 2591 0131 3A       		.uleb128 0x3a
 2592 0132 0B       		.uleb128 0xb
 2593 0133 3B       		.uleb128 0x3b
 2594 0134 0B       		.uleb128 0xb
 2595 0135 01       		.uleb128 0x1
 2596 0136 13       		.uleb128 0x13
 2597 0137 00       		.byte	0
 2598 0138 00       		.byte	0
 2599 0139 1A       		.uleb128 0x1a
 2600 013a 0D       		.uleb128 0xd
 2601 013b 00       		.byte	0
 2602 013c 03       		.uleb128 0x3
 2603 013d 0E       		.uleb128 0xe
 2604 013e 3A       		.uleb128 0x3a
 2605 013f 0B       		.uleb128 0xb
 2606 0140 3B       		.uleb128 0x3b
 2607 0141 05       		.uleb128 0x5
 2608 0142 49       		.uleb128 0x49
 2609 0143 13       		.uleb128 0x13
 2610 0144 00       		.byte	0
 2611 0145 00       		.byte	0
ARM GAS  /tmp/ccCfPn7s.s 			page 47


 2612 0146 1B       		.uleb128 0x1b
 2613 0147 26       		.uleb128 0x26
 2614 0148 00       		.byte	0
 2615 0149 49       		.uleb128 0x49
 2616 014a 13       		.uleb128 0x13
 2617 014b 00       		.byte	0
 2618 014c 00       		.byte	0
 2619 014d 1C       		.uleb128 0x1c
 2620 014e 34       		.uleb128 0x34
 2621 014f 00       		.byte	0
 2622 0150 03       		.uleb128 0x3
 2623 0151 08       		.uleb128 0x8
 2624 0152 3A       		.uleb128 0x3a
 2625 0153 0B       		.uleb128 0xb
 2626 0154 3B       		.uleb128 0x3b
 2627 0155 05       		.uleb128 0x5
 2628 0156 49       		.uleb128 0x49
 2629 0157 13       		.uleb128 0x13
 2630 0158 3F       		.uleb128 0x3f
 2631 0159 19       		.uleb128 0x19
 2632 015a 3C       		.uleb128 0x3c
 2633 015b 19       		.uleb128 0x19
 2634 015c 00       		.byte	0
 2635 015d 00       		.byte	0
 2636 015e 1D       		.uleb128 0x1d
 2637 015f 2E       		.uleb128 0x2e
 2638 0160 01       		.byte	0x1
 2639 0161 3F       		.uleb128 0x3f
 2640 0162 19       		.uleb128 0x19
 2641 0163 03       		.uleb128 0x3
 2642 0164 0E       		.uleb128 0xe
 2643 0165 3A       		.uleb128 0x3a
 2644 0166 0B       		.uleb128 0xb
 2645 0167 3B       		.uleb128 0x3b
 2646 0168 05       		.uleb128 0x5
 2647 0169 27       		.uleb128 0x27
 2648 016a 19       		.uleb128 0x19
 2649 016b 11       		.uleb128 0x11
 2650 016c 01       		.uleb128 0x1
 2651 016d 12       		.uleb128 0x12
 2652 016e 06       		.uleb128 0x6
 2653 016f 40       		.uleb128 0x40
 2654 0170 18       		.uleb128 0x18
 2655 0171 9642     		.uleb128 0x2116
 2656 0173 19       		.uleb128 0x19
 2657 0174 01       		.uleb128 0x1
 2658 0175 13       		.uleb128 0x13
 2659 0176 00       		.byte	0
 2660 0177 00       		.byte	0
 2661 0178 1E       		.uleb128 0x1e
 2662 0179 05       		.uleb128 0x5
 2663 017a 00       		.byte	0
 2664 017b 03       		.uleb128 0x3
 2665 017c 08       		.uleb128 0x8
 2666 017d 3A       		.uleb128 0x3a
 2667 017e 0B       		.uleb128 0xb
 2668 017f 3B       		.uleb128 0x3b
ARM GAS  /tmp/ccCfPn7s.s 			page 48


 2669 0180 05       		.uleb128 0x5
 2670 0181 49       		.uleb128 0x49
 2671 0182 13       		.uleb128 0x13
 2672 0183 02       		.uleb128 0x2
 2673 0184 18       		.uleb128 0x18
 2674 0185 00       		.byte	0
 2675 0186 00       		.byte	0
 2676 0187 1F       		.uleb128 0x1f
 2677 0188 2E       		.uleb128 0x2e
 2678 0189 00       		.byte	0
 2679 018a 3F       		.uleb128 0x3f
 2680 018b 19       		.uleb128 0x19
 2681 018c 03       		.uleb128 0x3
 2682 018d 0E       		.uleb128 0xe
 2683 018e 3A       		.uleb128 0x3a
 2684 018f 0B       		.uleb128 0xb
 2685 0190 3B       		.uleb128 0x3b
 2686 0191 05       		.uleb128 0x5
 2687 0192 27       		.uleb128 0x27
 2688 0193 19       		.uleb128 0x19
 2689 0194 11       		.uleb128 0x11
 2690 0195 01       		.uleb128 0x1
 2691 0196 12       		.uleb128 0x12
 2692 0197 06       		.uleb128 0x6
 2693 0198 40       		.uleb128 0x40
 2694 0199 18       		.uleb128 0x18
 2695 019a 9742     		.uleb128 0x2117
 2696 019c 19       		.uleb128 0x19
 2697 019d 00       		.byte	0
 2698 019e 00       		.byte	0
 2699 019f 20       		.uleb128 0x20
 2700 01a0 2E       		.uleb128 0x2e
 2701 01a1 00       		.byte	0
 2702 01a2 3F       		.uleb128 0x3f
 2703 01a3 19       		.uleb128 0x19
 2704 01a4 03       		.uleb128 0x3
 2705 01a5 0E       		.uleb128 0xe
 2706 01a6 3A       		.uleb128 0x3a
 2707 01a7 0B       		.uleb128 0xb
 2708 01a8 3B       		.uleb128 0x3b
 2709 01a9 0B       		.uleb128 0xb
 2710 01aa 27       		.uleb128 0x27
 2711 01ab 19       		.uleb128 0x19
 2712 01ac 11       		.uleb128 0x11
 2713 01ad 01       		.uleb128 0x1
 2714 01ae 12       		.uleb128 0x12
 2715 01af 06       		.uleb128 0x6
 2716 01b0 40       		.uleb128 0x40
 2717 01b1 18       		.uleb128 0x18
 2718 01b2 9642     		.uleb128 0x2116
 2719 01b4 19       		.uleb128 0x19
 2720 01b5 00       		.byte	0
 2721 01b6 00       		.byte	0
 2722 01b7 21       		.uleb128 0x21
 2723 01b8 2E       		.uleb128 0x2e
 2724 01b9 00       		.byte	0
 2725 01ba 03       		.uleb128 0x3
ARM GAS  /tmp/ccCfPn7s.s 			page 49


 2726 01bb 0E       		.uleb128 0xe
 2727 01bc 3A       		.uleb128 0x3a
 2728 01bd 0B       		.uleb128 0xb
 2729 01be 3B       		.uleb128 0x3b
 2730 01bf 0B       		.uleb128 0xb
 2731 01c0 27       		.uleb128 0x27
 2732 01c1 19       		.uleb128 0x19
 2733 01c2 49       		.uleb128 0x49
 2734 01c3 13       		.uleb128 0x13
 2735 01c4 11       		.uleb128 0x11
 2736 01c5 01       		.uleb128 0x1
 2737 01c6 12       		.uleb128 0x12
 2738 01c7 06       		.uleb128 0x6
 2739 01c8 40       		.uleb128 0x40
 2740 01c9 18       		.uleb128 0x18
 2741 01ca 9642     		.uleb128 0x2116
 2742 01cc 19       		.uleb128 0x19
 2743 01cd 00       		.byte	0
 2744 01ce 00       		.byte	0
 2745 01cf 22       		.uleb128 0x22
 2746 01d0 2E       		.uleb128 0x2e
 2747 01d1 00       		.byte	0
 2748 01d2 03       		.uleb128 0x3
 2749 01d3 0E       		.uleb128 0xe
 2750 01d4 3A       		.uleb128 0x3a
 2751 01d5 0B       		.uleb128 0xb
 2752 01d6 3B       		.uleb128 0x3b
 2753 01d7 0B       		.uleb128 0xb
 2754 01d8 27       		.uleb128 0x27
 2755 01d9 19       		.uleb128 0x19
 2756 01da 49       		.uleb128 0x49
 2757 01db 13       		.uleb128 0x13
 2758 01dc 11       		.uleb128 0x11
 2759 01dd 01       		.uleb128 0x1
 2760 01de 12       		.uleb128 0x12
 2761 01df 06       		.uleb128 0x6
 2762 01e0 40       		.uleb128 0x40
 2763 01e1 18       		.uleb128 0x18
 2764 01e2 9742     		.uleb128 0x2117
 2765 01e4 19       		.uleb128 0x19
 2766 01e5 00       		.byte	0
 2767 01e6 00       		.byte	0
 2768 01e7 23       		.uleb128 0x23
 2769 01e8 2E       		.uleb128 0x2e
 2770 01e9 00       		.byte	0
 2771 01ea 03       		.uleb128 0x3
 2772 01eb 0E       		.uleb128 0xe
 2773 01ec 3A       		.uleb128 0x3a
 2774 01ed 0B       		.uleb128 0xb
 2775 01ee 3B       		.uleb128 0x3b
 2776 01ef 05       		.uleb128 0x5
 2777 01f0 27       		.uleb128 0x27
 2778 01f1 19       		.uleb128 0x19
 2779 01f2 11       		.uleb128 0x11
 2780 01f3 01       		.uleb128 0x1
 2781 01f4 12       		.uleb128 0x12
 2782 01f5 06       		.uleb128 0x6
ARM GAS  /tmp/ccCfPn7s.s 			page 50


 2783 01f6 40       		.uleb128 0x40
 2784 01f7 18       		.uleb128 0x18
 2785 01f8 9642     		.uleb128 0x2116
 2786 01fa 19       		.uleb128 0x19
 2787 01fb 00       		.byte	0
 2788 01fc 00       		.byte	0
 2789 01fd 24       		.uleb128 0x24
 2790 01fe 2E       		.uleb128 0x2e
 2791 01ff 01       		.byte	0x1
 2792 0200 03       		.uleb128 0x3
 2793 0201 0E       		.uleb128 0xe
 2794 0202 3A       		.uleb128 0x3a
 2795 0203 0B       		.uleb128 0xb
 2796 0204 3B       		.uleb128 0x3b
 2797 0205 05       		.uleb128 0x5
 2798 0206 27       		.uleb128 0x27
 2799 0207 19       		.uleb128 0x19
 2800 0208 11       		.uleb128 0x11
 2801 0209 01       		.uleb128 0x1
 2802 020a 12       		.uleb128 0x12
 2803 020b 06       		.uleb128 0x6
 2804 020c 40       		.uleb128 0x40
 2805 020d 18       		.uleb128 0x18
 2806 020e 9742     		.uleb128 0x2117
 2807 0210 19       		.uleb128 0x19
 2808 0211 01       		.uleb128 0x1
 2809 0212 13       		.uleb128 0x13
 2810 0213 00       		.byte	0
 2811 0214 00       		.byte	0
 2812 0215 25       		.uleb128 0x25
 2813 0216 1D       		.uleb128 0x1d
 2814 0217 00       		.byte	0
 2815 0218 31       		.uleb128 0x31
 2816 0219 13       		.uleb128 0x13
 2817 021a 11       		.uleb128 0x11
 2818 021b 01       		.uleb128 0x1
 2819 021c 12       		.uleb128 0x12
 2820 021d 06       		.uleb128 0x6
 2821 021e 58       		.uleb128 0x58
 2822 021f 0B       		.uleb128 0xb
 2823 0220 59       		.uleb128 0x59
 2824 0221 05       		.uleb128 0x5
 2825 0222 00       		.byte	0
 2826 0223 00       		.byte	0
 2827 0224 26       		.uleb128 0x26
 2828 0225 2E       		.uleb128 0x2e
 2829 0226 00       		.byte	0
 2830 0227 03       		.uleb128 0x3
 2831 0228 0E       		.uleb128 0xe
 2832 0229 3A       		.uleb128 0x3a
 2833 022a 0B       		.uleb128 0xb
 2834 022b 3B       		.uleb128 0x3b
 2835 022c 05       		.uleb128 0x5
 2836 022d 27       		.uleb128 0x27
 2837 022e 19       		.uleb128 0x19
 2838 022f 20       		.uleb128 0x20
 2839 0230 0B       		.uleb128 0xb
ARM GAS  /tmp/ccCfPn7s.s 			page 51


 2840 0231 00       		.byte	0
 2841 0232 00       		.byte	0
 2842 0233 00       		.byte	0
 2843              		.section	.debug_aranges,"",%progbits
 2844 0000 B4000000 		.4byte	0xb4
 2845 0004 0200     		.2byte	0x2
 2846 0006 00000000 		.4byte	.Ldebug_info0
 2847 000a 04       		.byte	0x4
 2848 000b 00       		.byte	0
 2849 000c 0000     		.2byte	0
 2850 000e 0000     		.2byte	0
 2851 0010 00000000 		.4byte	.LFB38
 2852 0014 06000000 		.4byte	.LFE38-.LFB38
 2853 0018 00000000 		.4byte	.LFB39
 2854 001c 06000000 		.4byte	.LFE39-.LFB39
 2855 0020 00000000 		.4byte	.LFB40
 2856 0024 0A000000 		.4byte	.LFE40-.LFB40
 2857 0028 00000000 		.4byte	.LFB41
 2858 002c 0A000000 		.4byte	.LFE41-.LFB41
 2859 0030 00000000 		.4byte	.LFB46
 2860 0034 10000000 		.4byte	.LFE46-.LFB46
 2861 0038 00000000 		.4byte	.LFB55
 2862 003c 0C000000 		.4byte	.LFE55-.LFB55
 2863 0040 00000000 		.4byte	.LFB85
 2864 0044 0C000000 		.4byte	.LFE85-.LFB85
 2865 0048 00000000 		.4byte	.LFB152
 2866 004c 28000000 		.4byte	.LFE152-.LFB152
 2867 0050 00000000 		.4byte	.LFB153
 2868 0054 28000000 		.4byte	.LFE153-.LFB153
 2869 0058 00000000 		.4byte	.LFB154
 2870 005c 28000000 		.4byte	.LFE154-.LFB154
 2871 0060 00000000 		.4byte	.LFB155
 2872 0064 2C000000 		.4byte	.LFE155-.LFB155
 2873 0068 00000000 		.4byte	.LFB156
 2874 006c 2C000000 		.4byte	.LFE156-.LFB156
 2875 0070 00000000 		.4byte	.LFB157
 2876 0074 2C000000 		.4byte	.LFE157-.LFB157
 2877 0078 00000000 		.4byte	.LFB158
 2878 007c 2C000000 		.4byte	.LFE158-.LFB158
 2879 0080 00000000 		.4byte	.LFB159
 2880 0084 38000000 		.4byte	.LFE159-.LFB159
 2881 0088 00000000 		.4byte	.LFB160
 2882 008c 38000000 		.4byte	.LFE160-.LFB160
 2883 0090 00000000 		.4byte	.LFB161
 2884 0094 28000000 		.4byte	.LFE161-.LFB161
 2885 0098 00000000 		.4byte	.LFB162
 2886 009c 28000000 		.4byte	.LFE162-.LFB162
 2887 00a0 00000000 		.4byte	.LFB163
 2888 00a4 18000000 		.4byte	.LFE163-.LFB163
 2889 00a8 00000000 		.4byte	.LFB164
 2890 00ac 60000000 		.4byte	.LFE164-.LFB164
 2891 00b0 00000000 		.4byte	0
 2892 00b4 00000000 		.4byte	0
 2893              		.section	.debug_ranges,"",%progbits
 2894              	.Ldebug_ranges0:
 2895 0000 00000000 		.4byte	.LFB38
 2896 0004 06000000 		.4byte	.LFE38
ARM GAS  /tmp/ccCfPn7s.s 			page 52


 2897 0008 00000000 		.4byte	.LFB39
 2898 000c 06000000 		.4byte	.LFE39
 2899 0010 00000000 		.4byte	.LFB40
 2900 0014 0A000000 		.4byte	.LFE40
 2901 0018 00000000 		.4byte	.LFB41
 2902 001c 0A000000 		.4byte	.LFE41
 2903 0020 00000000 		.4byte	.LFB46
 2904 0024 10000000 		.4byte	.LFE46
 2905 0028 00000000 		.4byte	.LFB55
 2906 002c 0C000000 		.4byte	.LFE55
 2907 0030 00000000 		.4byte	.LFB85
 2908 0034 0C000000 		.4byte	.LFE85
 2909 0038 00000000 		.4byte	.LFB152
 2910 003c 28000000 		.4byte	.LFE152
 2911 0040 00000000 		.4byte	.LFB153
 2912 0044 28000000 		.4byte	.LFE153
 2913 0048 00000000 		.4byte	.LFB154
 2914 004c 28000000 		.4byte	.LFE154
 2915 0050 00000000 		.4byte	.LFB155
 2916 0054 2C000000 		.4byte	.LFE155
 2917 0058 00000000 		.4byte	.LFB156
 2918 005c 2C000000 		.4byte	.LFE156
 2919 0060 00000000 		.4byte	.LFB157
 2920 0064 2C000000 		.4byte	.LFE157
 2921 0068 00000000 		.4byte	.LFB158
 2922 006c 2C000000 		.4byte	.LFE158
 2923 0070 00000000 		.4byte	.LFB159
 2924 0074 38000000 		.4byte	.LFE159
 2925 0078 00000000 		.4byte	.LFB160
 2926 007c 38000000 		.4byte	.LFE160
 2927 0080 00000000 		.4byte	.LFB161
 2928 0084 28000000 		.4byte	.LFE161
 2929 0088 00000000 		.4byte	.LFB162
 2930 008c 28000000 		.4byte	.LFE162
 2931 0090 00000000 		.4byte	.LFB163
 2932 0094 18000000 		.4byte	.LFE163
 2933 0098 00000000 		.4byte	.LFB164
 2934 009c 60000000 		.4byte	.LFE164
 2935 00a0 00000000 		.4byte	0
 2936 00a4 00000000 		.4byte	0
 2937              		.section	.debug_line,"",%progbits
 2938              	.Ldebug_line0:
 2939 0000 8B040000 		.section	.debug_str,"MS",%progbits,1
 2939      02008502 
 2939      00000201 
 2939      FB0E0D00 
 2939      01010101 
 2940              	.LASF50:
 2941 0000 63685F74 		.ascii	"ch_threads_list\000"
 2941      68726561 
 2941      64735F6C 
 2941      69737400 
 2942              	.LASF51:
 2943 0010 74687265 		.ascii	"threads_queue_t\000"
 2943      6164735F 
 2943      71756575 
 2943      655F7400 
ARM GAS  /tmp/ccCfPn7s.s 			page 53


 2944              	.LASF40:
 2945 0020 705F7761 		.ascii	"p_waiting\000"
 2945      6974696E 
 2945      6700
 2946              	.LASF123:
 2947 002a 53797374 		.ascii	"SystemCoreClock\000"
 2947      656D436F 
 2947      7265436C 
 2947      6F636B00 
 2948              	.LASF113:
 2949 003a 77746D74 		.ascii	"wtmtxp\000"
 2949      787000
 2950              	.LASF153:
 2951 0041 5F646267 		.ascii	"_dbg_check_unlock\000"
 2951      5F636865 
 2951      636B5F75 
 2951      6E6C6F63 
 2951      6B00
 2952              	.LASF122:
 2953 0053 63686172 		.ascii	"char\000"
 2953      00
 2954              	.LASF85:
 2955 0058 72656761 		.ascii	"regarm_t\000"
 2955      726D5F74 
 2955      00
 2956              	.LASF31:
 2957 0061 705F7072 		.ascii	"p_prio\000"
 2957      696F00
 2958              	.LASF27:
 2959 0068 73797374 		.ascii	"systime_t\000"
 2959      696D655F 
 2959      7400
 2960              	.LASF134:
 2961 0072 63665F6F 		.ascii	"cf_off_older\000"
 2961      66665F6F 
 2961      6C646572 
 2961      00
 2962              	.LASF120:
 2963 007f 6D5F6F77 		.ascii	"m_owner\000"
 2963      6E657200 
 2964              	.LASF116:
 2965 0087 735F7175 		.ascii	"s_queue\000"
 2965      65756500 
 2966              	.LASF41:
 2967 008f 705F6D73 		.ascii	"p_msgqueue\000"
 2967      67717565 
 2967      756500
 2968              	.LASF0:
 2969 009a 756E7369 		.ascii	"unsigned int\000"
 2969      676E6564 
 2969      20696E74 
 2969      00
 2970              	.LASF158:
 2971 00a7 63685654 		.ascii	"chVTGetSystemTimeX\000"
 2971      47657453 
 2971      79737465 
 2971      6D54696D 
ARM GAS  /tmp/ccCfPn7s.s 			page 54


 2971      655800
 2972              	.LASF48:
 2973 00ba 74687265 		.ascii	"threads_list_t\000"
 2973      6164735F 
 2973      6C697374 
 2973      5F7400
 2974              	.LASF9:
 2975 00c9 5F5F696E 		.ascii	"__int32_t\000"
 2975      7433325F 
 2975      7400
 2976              	.LASF102:
 2977 00d3 73655F73 		.ascii	"se_state\000"
 2977      74617465 
 2977      00
 2978              	.LASF135:
 2979 00dc 63665F6F 		.ascii	"cf_off_name\000"
 2979      66665F6E 
 2979      616D6500 
 2980              	.LASF110:
 2981 00e8 77746F62 		.ascii	"wtobjp\000"
 2981      6A7000
 2982              	.LASF164:
 2983 00ef 706F7274 		.ascii	"port_lock\000"
 2983      5F6C6F63 
 2983      6B00
 2984              	.LASF81:
 2985 00f9 76746C69 		.ascii	"vtlist\000"
 2985      737400
 2986              	.LASF162:
 2987 0100 706F7274 		.ascii	"port_lock_from_isr\000"
 2987      5F6C6F63 
 2987      6B5F6672 
 2987      6F6D5F69 
 2987      737200
 2988              	.LASF54:
 2989 0113 63685F72 		.ascii	"ch_ready_list\000"
 2989      65616479 
 2989      5F6C6973 
 2989      7400
 2990              	.LASF83:
 2991 0121 69646C65 		.ascii	"idle_thread_wa\000"
 2991      5F746872 
 2991      6561645F 
 2991      776100
 2992              	.LASF114:
 2993 0130 65776D61 		.ascii	"ewmask\000"
 2993      736B00
 2994              	.LASF152:
 2995 0137 5F646267 		.ascii	"_dbg_check_lock_from_isr\000"
 2995      5F636865 
 2995      636B5F6C 
 2995      6F636B5F 
 2995      66726F6D 
 2996              	.LASF138:
 2997 0150 63665F6F 		.ascii	"cf_off_flags\000"
 2997      66665F66 
 2997      6C616773 
ARM GAS  /tmp/ccCfPn7s.s 			page 55


 2997      00
 2998              	.LASF52:
 2999 015d 63685F74 		.ascii	"ch_threads_queue\000"
 2999      68726561 
 2999      64735F71 
 2999      75657565 
 2999      00
 3000              	.LASF128:
 3001 016e 63685F70 		.ascii	"ch_ptrsize\000"
 3001      74727369 
 3001      7A6500
 3002              	.LASF95:
 3003 0179 444D4152 		.ascii	"DMAR\000"
 3003      00
 3004              	.LASF61:
 3005 017e 76746675 		.ascii	"vtfunc_t\000"
 3005      6E635F74 
 3005      00
 3006              	.LASF117:
 3007 0187 735F636E 		.ascii	"s_cnt\000"
 3007      7400
 3008              	.LASF73:
 3009 018d 63685F73 		.ascii	"ch_system_debug\000"
 3009      79737465 
 3009      6D5F6465 
 3009      62756700 
 3010              	.LASF169:
 3011 019d 2F686F6D 		.ascii	"/home/felix/esho/Ultrasound/\000"
 3011      652F6665 
 3011      6C69782F 
 3011      6573686F 
 3011      2F556C74 
 3012              	.LASF18:
 3013 01ba 75696E74 		.ascii	"uint32_t\000"
 3013      33325F74 
 3013      00
 3014              	.LASF129:
 3015 01c3 63685F74 		.ascii	"ch_timesize\000"
 3015      696D6573 
 3015      697A6500 
 3016              	.LASF25:
 3017 01cf 6576656E 		.ascii	"eventmask_t\000"
 3017      746D6173 
 3017      6B5F7400 
 3018              	.LASF56:
 3019 01db 725F7072 		.ascii	"r_prio\000"
 3019      696F00
 3020              	.LASF94:
 3021 01e2 42445452 		.ascii	"BDTR\000"
 3021      00
 3022              	.LASF68:
 3023 01e7 76745F70 		.ascii	"vt_par\000"
 3023      617200
 3024              	.LASF115:
 3025 01ee 63685F73 		.ascii	"ch_semaphore\000"
 3025      656D6170 
 3025      686F7265 
ARM GAS  /tmp/ccCfPn7s.s 			page 56


 3025      00
 3026              	.LASF23:
 3027 01fb 74707269 		.ascii	"tprio_t\000"
 3027      6F5F7400 
 3028              	.LASF63:
 3029 0203 63685F76 		.ascii	"ch_virtual_timer\000"
 3029      69727475 
 3029      616C5F74 
 3029      696D6572 
 3029      00
 3030              	.LASF91:
 3031 0214 43434D52 		.ascii	"CCMR1\000"
 3031      3100
 3032              	.LASF92:
 3033 021a 43434D52 		.ascii	"CCMR2\000"
 3033      3200
 3034              	.LASF96:
 3035 0220 43434D52 		.ascii	"CCMR3\000"
 3035      3300
 3036              	.LASF14:
 3037 0226 6C6F6E67 		.ascii	"long long unsigned int\000"
 3037      206C6F6E 
 3037      6720756E 
 3037      7369676E 
 3037      65642069 
 3038              	.LASF101:
 3039 023d 73655F77 		.ascii	"se_wtobjp\000"
 3039      746F626A 
 3039      7000
 3040              	.LASF7:
 3041 0247 5F5F7569 		.ascii	"__uint16_t\000"
 3041      6E743136 
 3041      5F7400
 3042              	.LASF26:
 3043 0252 636E745F 		.ascii	"cnt_t\000"
 3043      7400
 3044              	.LASF151:
 3045 0258 5F646267 		.ascii	"_dbg_check_unlock_from_isr\000"
 3045      5F636865 
 3045      636B5F75 
 3045      6E6C6F63 
 3045      6B5F6672 
 3046              	.LASF75:
 3047 0273 6973725F 		.ascii	"isr_cnt\000"
 3047      636E7400 
 3048              	.LASF33:
 3049 027b 705F6E65 		.ascii	"p_newer\000"
 3049      77657200 
 3050              	.LASF70:
 3051 0283 63685F76 		.ascii	"ch_virtual_timers_list\000"
 3051      69727475 
 3051      616C5F74 
 3051      696D6572 
 3051      735F6C69 
 3052              	.LASF99:
 3053 029a 73655F74 		.ascii	"se_time\000"
 3053      696D6500 
ARM GAS  /tmp/ccCfPn7s.s 			page 57


 3054              	.LASF28:
 3055 02a2 74687265 		.ascii	"thread_t\000"
 3055      61645F74 
 3055      00
 3056              	.LASF108:
 3057 02ab 7264796D 		.ascii	"rdymsg\000"
 3057      736700
 3058              	.LASF130:
 3059 02b2 63685F74 		.ascii	"ch_threadsize\000"
 3059      68726561 
 3059      6473697A 
 3059      6500
 3060              	.LASF165:
 3061 02c0 5F5F6469 		.ascii	"__disable_irq\000"
 3061      7361626C 
 3061      655F6972 
 3061      7100
 3062              	.LASF140:
 3063 02ce 63665F6F 		.ascii	"cf_off_preempt\000"
 3063      66665F70 
 3063      7265656D 
 3063      707400
 3064              	.LASF98:
 3065 02dd 73746D33 		.ascii	"stm32_tim_t\000"
 3065      325F7469 
 3065      6D5F7400 
 3066              	.LASF145:
 3067 02e9 5F426F6F 		.ascii	"_Bool\000"
 3067      6C00
 3068              	.LASF156:
 3069 02ef 5F646267 		.ascii	"_dbg_check_suspend\000"
 3069      5F636865 
 3069      636B5F73 
 3069      75737065 
 3069      6E6400
 3070              	.LASF167:
 3071 0302 474E5520 		.ascii	"GNU C11 6.3.1 20170215 (release) [ARM/embedded-6-br"
 3071      43313120 
 3071      362E332E 
 3071      31203230 
 3071      31373032 
 3072 0335 616E6368 		.ascii	"anch revision 245512] -mcpu=cortex-m0 -mno-thumb-in"
 3072      20726576 
 3072      6973696F 
 3072      6E203234 
 3072      35353132 
 3073 0368 74657277 		.ascii	"terwork -mthumb -ggdb -O0 -fomit-frame-pointer -fal"
 3073      6F726B20 
 3073      2D6D7468 
 3073      756D6220 
 3073      2D676764 
 3074 039b 69676E2D 		.ascii	"ign-functions=16 -ffunction-sections -fdata-section"
 3074      66756E63 
 3074      74696F6E 
 3074      733D3136 
 3074      202D6666 
 3075 03ce 7300     		.ascii	"s\000"
ARM GAS  /tmp/ccCfPn7s.s 			page 58


 3076              	.LASF118:
 3077 03d0 63685F6D 		.ascii	"ch_mutex\000"
 3077      75746578 
 3077      00
 3078              	.LASF13:
 3079 03d9 5F5F7569 		.ascii	"__uint64_t\000"
 3079      6E743634 
 3079      5F7400
 3080              	.LASF90:
 3081 03e4 44494552 		.ascii	"DIER\000"
 3081      00
 3082              	.LASF159:
 3083 03e9 706F7274 		.ascii	"port_timer_get_time\000"
 3083      5F74696D 
 3083      65725F67 
 3083      65745F74 
 3083      696D6500 
 3084              	.LASF132:
 3085 03fd 63665F6F 		.ascii	"cf_off_ctx\000"
 3085      66665F63 
 3085      747800
 3086              	.LASF136:
 3087 0408 63665F6F 		.ascii	"cf_off_stklimit\000"
 3087      66665F73 
 3087      746B6C69 
 3087      6D697400 
 3088              	.LASF35:
 3089 0418 705F6E61 		.ascii	"p_name\000"
 3089      6D6500
 3090              	.LASF93:
 3091 041f 43434552 		.ascii	"CCER\000"
 3091      00
 3092              	.LASF66:
 3093 0424 76745F64 		.ascii	"vt_delta\000"
 3093      656C7461 
 3093      00
 3094              	.LASF155:
 3095 042d 5F646267 		.ascii	"_dbg_check_enable\000"
 3095      5F636865 
 3095      636B5F65 
 3095      6E61626C 
 3095      6500
 3096              	.LASF47:
 3097 043f 74687265 		.ascii	"thread_reference_t\000"
 3097      61645F72 
 3097      65666572 
 3097      656E6365 
 3097      5F7400
 3098              	.LASF71:
 3099 0452 76745F6C 		.ascii	"vt_lasttime\000"
 3099      61737474 
 3099      696D6500 
 3100              	.LASF21:
 3101 045e 74737461 		.ascii	"tstate_t\000"
 3101      74655F74 
 3101      00
 3102              	.LASF100:
ARM GAS  /tmp/ccCfPn7s.s 			page 59


 3103 0467 73655F74 		.ascii	"se_tp\000"
 3103      7000
 3104              	.LASF34:
 3105 046d 705F6F6C 		.ascii	"p_older\000"
 3105      64657200 
 3106              	.LASF37:
 3107 0475 705F7374 		.ascii	"p_state\000"
 3107      61746500 
 3108              	.LASF36:
 3109 047d 705F7374 		.ascii	"p_stklimit\000"
 3109      6B6C696D 
 3109      697400
 3110              	.LASF15:
 3111 0488 75696E74 		.ascii	"uint8_t\000"
 3111      385F7400 
 3112              	.LASF106:
 3113 0490 74625F62 		.ascii	"tb_buffer\000"
 3113      75666665 
 3113      7200
 3114              	.LASF46:
 3115 049a 705F6D70 		.ascii	"p_mpool\000"
 3115      6F6F6C00 
 3116              	.LASF44:
 3117 04a2 705F6D74 		.ascii	"p_mtxlist\000"
 3117      786C6973 
 3117      7400
 3118              	.LASF89:
 3119 04ac 534D4352 		.ascii	"SMCR\000"
 3119      00
 3120              	.LASF49:
 3121 04b1 63685F74 		.ascii	"ch_thread\000"
 3121      68726561 
 3121      6400
 3122              	.LASF104:
 3123 04bb 74625F73 		.ascii	"tb_size\000"
 3123      697A6500 
 3124              	.LASF72:
 3125 04c3 73797374 		.ascii	"system_debug_t\000"
 3125      656D5F64 
 3125      65627567 
 3125      5F7400
 3126              	.LASF154:
 3127 04d2 5F646267 		.ascii	"_dbg_check_lock\000"
 3127      5F636865 
 3127      636B5F6C 
 3127      6F636B00 
 3128              	.LASF1:
 3129 04e2 6C6F6E67 		.ascii	"long long int\000"
 3129      206C6F6E 
 3129      6720696E 
 3129      7400
 3130              	.LASF55:
 3131 04f0 725F7175 		.ascii	"r_queue\000"
 3131      65756500 
 3132              	.LASF58:
 3133 04f8 725F6E65 		.ascii	"r_newer\000"
 3133      77657200 
ARM GAS  /tmp/ccCfPn7s.s 			page 60


 3134              	.LASF24:
 3135 0500 6D73675F 		.ascii	"msg_t\000"
 3135      7400
 3136              	.LASF87:
 3137 0506 636F6E74 		.ascii	"context\000"
 3137      65787400 
 3138              	.LASF38:
 3139 050e 705F666C 		.ascii	"p_flags\000"
 3139      61677300 
 3140              	.LASF62:
 3141 0516 76697274 		.ascii	"virtual_timer_t\000"
 3141      75616C5F 
 3141      74696D65 
 3141      725F7400 
 3142              	.LASF139:
 3143 0526 63665F6F 		.ascii	"cf_off_refs\000"
 3143      66665F72 
 3143      65667300 
 3144              	.LASF125:
 3145 0532 63685F7A 		.ascii	"ch_zero\000"
 3145      65726F00 
 3146              	.LASF105:
 3147 053a 74625F70 		.ascii	"tb_ptr\000"
 3147      747200
 3148              	.LASF148:
 3149 0541 63684462 		.ascii	"chDbgCheckClassI\000"
 3149      67436865 
 3149      636B436C 
 3149      61737349 
 3149      00
 3150              	.LASF59:
 3151 0552 725F6F6C 		.ascii	"r_older\000"
 3151      64657200 
 3152              	.LASF147:
 3153 055a 63684462 		.ascii	"chDbgCheckClassS\000"
 3153      67436865 
 3153      636B436C 
 3153      61737353 
 3153      00
 3154              	.LASF146:
 3155 056b 5F646267 		.ascii	"_dbg_trace_init\000"
 3155      5F747261 
 3155      63655F69 
 3155      6E697400 
 3156              	.LASF74:
 3157 057b 70616E69 		.ascii	"panic_msg\000"
 3157      635F6D73 
 3157      6700
 3158              	.LASF42:
 3159 0585 705F6D73 		.ascii	"p_msg\000"
 3159      6700
 3160              	.LASF20:
 3161 058b 746D6F64 		.ascii	"tmode_t\000"
 3161      655F7400 
 3162              	.LASF126:
 3163 0593 63685F73 		.ascii	"ch_size\000"
 3163      697A6500 
ARM GAS  /tmp/ccCfPn7s.s 			page 61


 3164              	.LASF82:
 3165 059b 6D61696E 		.ascii	"mainthread\000"
 3165      74687265 
 3165      616400
 3166              	.LASF149:
 3167 05a6 5F646267 		.ascii	"_dbg_check_leave_isr\000"
 3167      5F636865 
 3167      636B5F6C 
 3167      65617665 
 3167      5F697372 
 3168              	.LASF160:
 3169 05bb 73745F6C 		.ascii	"st_lld_get_counter\000"
 3169      6C645F67 
 3169      65745F63 
 3169      6F756E74 
 3169      657200
 3170              	.LASF2:
 3171 05ce 6C6F6E67 		.ascii	"long double\000"
 3171      20646F75 
 3171      626C6500 
 3172              	.LASF16:
 3173 05da 75696E74 		.ascii	"uint16_t\000"
 3173      31365F74 
 3173      00
 3174              	.LASF150:
 3175 05e3 5F646267 		.ascii	"_dbg_check_enter_isr\000"
 3175      5F636865 
 3175      636B5F65 
 3175      6E746572 
 3175      5F697372 
 3176              	.LASF142:
 3177 05f8 63686465 		.ascii	"chdebug_t\000"
 3177      6275675F 
 3177      7400
 3178              	.LASF168:
 3179 0602 43686962 		.ascii	"ChibiOS/os/rt/src/chdebug.c\000"
 3179      694F532F 
 3179      6F732F72 
 3179      742F7372 
 3179      632F6368 
 3180              	.LASF76:
 3181 061e 6C6F636B 		.ascii	"lock_cnt\000"
 3181      5F636E74 
 3181      00
 3182              	.LASF157:
 3183 0627 5F646267 		.ascii	"_dbg_check_disable\000"
 3183      5F636865 
 3183      636B5F64 
 3183      69736162 
 3183      6C6500
 3184              	.LASF45:
 3185 063a 705F7265 		.ascii	"p_realprio\000"
 3185      616C7072 
 3185      696F00
 3186              	.LASF127:
 3187 0645 63685F76 		.ascii	"ch_version\000"
 3187      65727369 
ARM GAS  /tmp/ccCfPn7s.s 			page 62


 3187      6F6E00
 3188              	.LASF5:
 3189 0650 73686F72 		.ascii	"short int\000"
 3189      7420696E 
 3189      7400
 3190              	.LASF60:
 3191 065a 725F6375 		.ascii	"r_current\000"
 3191      7272656E 
 3191      7400
 3192              	.LASF43:
 3193 0664 705F6570 		.ascii	"p_epending\000"
 3193      656E6469 
 3193      6E6700
 3194              	.LASF119:
 3195 066f 6D5F7175 		.ascii	"m_queue\000"
 3195      65756500 
 3196              	.LASF10:
 3197 0677 6C6F6E67 		.ascii	"long int\000"
 3197      20696E74 
 3197      00
 3198              	.LASF88:
 3199 0680 706F7274 		.ascii	"port_intctx\000"
 3199      5F696E74 
 3199      63747800 
 3200              	.LASF97:
 3201 068c 43435852 		.ascii	"CCXR\000"
 3201      00
 3202              	.LASF166:
 3203 0691 5F5F656E 		.ascii	"__enable_irq\000"
 3203      61626C65 
 3203      5F697271 
 3203      00
 3204              	.LASF79:
 3205 069e 63685F73 		.ascii	"ch_system\000"
 3205      79737465 
 3205      6D00
 3206              	.LASF29:
 3207 06a8 705F6E65 		.ascii	"p_next\000"
 3207      787400
 3208              	.LASF19:
 3209 06af 75696E74 		.ascii	"uint64_t\000"
 3209      36345F74 
 3209      00
 3210              	.LASF32:
 3211 06b8 705F6374 		.ascii	"p_ctx\000"
 3211      7800
 3212              	.LASF80:
 3213 06be 726C6973 		.ascii	"rlist\000"
 3213      7400
 3214              	.LASF141:
 3215 06c4 63665F6F 		.ascii	"cf_off_time\000"
 3215      66665F74 
 3215      696D6500 
 3216              	.LASF131:
 3217 06d0 63665F6F 		.ascii	"cf_off_prio\000"
 3217      66665F70 
 3217      72696F00 
ARM GAS  /tmp/ccCfPn7s.s 			page 63


 3218              	.LASF6:
 3219 06dc 5F5F7569 		.ascii	"__uint8_t\000"
 3219      6E74385F 
 3219      7400
 3220              	.LASF124:
 3221 06e6 63685F69 		.ascii	"ch_identifier\000"
 3221      64656E74 
 3221      69666965 
 3221      7200
 3222              	.LASF30:
 3223 06f4 705F7072 		.ascii	"p_prev\000"
 3223      657600
 3224              	.LASF84:
 3225 06fb 73697A65 		.ascii	"sizetype\000"
 3225      74797065 
 3225      00
 3226              	.LASF22:
 3227 0704 74726566 		.ascii	"trefs_t\000"
 3227      735F7400 
 3228              	.LASF12:
 3229 070c 6C6F6E67 		.ascii	"long unsigned int\000"
 3229      20756E73 
 3229      69676E65 
 3229      6420696E 
 3229      7400
 3230              	.LASF137:
 3231 071e 63665F6F 		.ascii	"cf_off_state\000"
 3231      66665F73 
 3231      74617465 
 3231      00
 3232              	.LASF53:
 3233 072b 72656164 		.ascii	"ready_list_t\000"
 3233      795F6C69 
 3233      73745F74 
 3233      00
 3234              	.LASF17:
 3235 0738 696E7433 		.ascii	"int32_t\000"
 3235      325F7400 
 3236              	.LASF77:
 3237 0740 74726163 		.ascii	"trace_buffer\000"
 3237      655F6275 
 3237      66666572 
 3237      00
 3238              	.LASF103:
 3239 074d 63685F73 		.ascii	"ch_swc_event_t\000"
 3239      77635F65 
 3239      76656E74 
 3239      5F7400
 3240              	.LASF170:
 3241 075c 5F646267 		.ascii	"_dbg_trace\000"
 3241      5F747261 
 3241      636500
 3242              	.LASF144:
 3243 0767 6D757465 		.ascii	"mutex_t\000"
 3243      785F7400 
 3244              	.LASF161:
 3245 076f 706F7274 		.ascii	"port_unlock_from_isr\000"
ARM GAS  /tmp/ccCfPn7s.s 			page 64


 3245      5F756E6C 
 3245      6F636B5F 
 3245      66726F6D 
 3245      5F697372 
 3246              	.LASF4:
 3247 0784 756E7369 		.ascii	"unsigned char\000"
 3247      676E6564 
 3247      20636861 
 3247      7200
 3248              	.LASF11:
 3249 0792 5F5F7569 		.ascii	"__uint32_t\000"
 3249      6E743332 
 3249      5F7400
 3250              	.LASF69:
 3251 079d 76697274 		.ascii	"virtual_timers_list_t\000"
 3251      75616C5F 
 3251      74696D65 
 3251      72735F6C 
 3251      6973745F 
 3252              	.LASF39:
 3253 07b3 705F7265 		.ascii	"p_refs\000"
 3253      667300
 3254              	.LASF64:
 3255 07ba 76745F6E 		.ascii	"vt_next\000"
 3255      65787400 
 3256              	.LASF78:
 3257 07c2 63685F73 		.ascii	"ch_system_t\000"
 3257      79737465 
 3257      6D5F7400 
 3258              	.LASF112:
 3259 07ce 77747365 		.ascii	"wtsemp\000"
 3259      6D7000
 3260              	.LASF111:
 3261 07d5 77747472 		.ascii	"wttrp\000"
 3261      7000
 3262              	.LASF107:
 3263 07db 63685F74 		.ascii	"ch_trace_buffer_t\000"
 3263      72616365 
 3263      5F627566 
 3263      6665725F 
 3263      7400
 3264              	.LASF121:
 3265 07ed 6D5F6E65 		.ascii	"m_next\000"
 3265      787400
 3266              	.LASF3:
 3267 07f4 7369676E 		.ascii	"signed char\000"
 3267      65642063 
 3267      68617200 
 3268              	.LASF133:
 3269 0800 63665F6F 		.ascii	"cf_off_newer\000"
 3269      66665F6E 
 3269      65776572 
 3269      00
 3270              	.LASF8:
 3271 080d 73686F72 		.ascii	"short unsigned int\000"
 3271      7420756E 
 3271      7369676E 
ARM GAS  /tmp/ccCfPn7s.s 			page 65


 3271      65642069 
 3271      6E7400
 3272              	.LASF57:
 3273 0820 725F6374 		.ascii	"r_ctx\000"
 3273      7800
 3274              	.LASF86:
 3275 0826 73746B61 		.ascii	"stkalign_t\000"
 3275      6C69676E 
 3275      5F7400
 3276              	.LASF143:
 3277 0831 63685F64 		.ascii	"ch_debug\000"
 3277      65627567 
 3277      00
 3278              	.LASF67:
 3279 083a 76745F66 		.ascii	"vt_func\000"
 3279      756E6300 
 3280              	.LASF163:
 3281 0842 706F7274 		.ascii	"port_unlock\000"
 3281      5F756E6C 
 3281      6F636B00 
 3282              	.LASF65:
 3283 084e 76745F70 		.ascii	"vt_prev\000"
 3283      72657600 
 3284              	.LASF109:
 3285 0856 65786974 		.ascii	"exitcode\000"
 3285      636F6465 
 3285      00
 3286              		.ident	"GCC: (GNU Tools for ARM Embedded Processors 6-2017-q1-update) 6.3.1 20170215 (release) [AR
ARM GAS  /tmp/ccCfPn7s.s 			page 66


DEFINED SYMBOLS
                            *ABS*:0000000000000000 chdebug.c
     /tmp/ccCfPn7s.s:16     .text.port_lock:0000000000000000 $t
     /tmp/ccCfPn7s.s:23     .text.port_lock:0000000000000000 port_lock
     /tmp/ccCfPn7s.s:51     .text.port_unlock:0000000000000000 $t
     /tmp/ccCfPn7s.s:58     .text.port_unlock:0000000000000000 port_unlock
     /tmp/ccCfPn7s.s:84     .text.port_lock_from_isr:0000000000000000 $t
     /tmp/ccCfPn7s.s:91     .text.port_lock_from_isr:0000000000000000 port_lock_from_isr
     /tmp/ccCfPn7s.s:111    .text.port_unlock_from_isr:0000000000000000 $t
     /tmp/ccCfPn7s.s:118    .text.port_unlock_from_isr:0000000000000000 port_unlock_from_isr
     /tmp/ccCfPn7s.s:138    .text.st_lld_get_counter:0000000000000000 $t
     /tmp/ccCfPn7s.s:145    .text.st_lld_get_counter:0000000000000000 st_lld_get_counter
     /tmp/ccCfPn7s.s:164    .text.st_lld_get_counter:000000000000000c $d
     /tmp/ccCfPn7s.s:169    .text.port_timer_get_time:0000000000000000 $t
     /tmp/ccCfPn7s.s:176    .text.port_timer_get_time:0000000000000000 port_timer_get_time
     /tmp/ccCfPn7s.s:198    .text.chVTGetSystemTimeX:0000000000000000 $t
     /tmp/ccCfPn7s.s:205    .text.chVTGetSystemTimeX:0000000000000000 chVTGetSystemTimeX
     /tmp/ccCfPn7s.s:227    .rodata:0000000000000000 $d
     /tmp/ccCfPn7s.s:231    .text._dbg_check_disable:0000000000000000 $t
     /tmp/ccCfPn7s.s:239    .text._dbg_check_disable:0000000000000000 _dbg_check_disable
     /tmp/ccCfPn7s.s:273    .text._dbg_check_disable:0000000000000020 $d
     /tmp/ccCfPn7s.s:283    .text._dbg_check_suspend:0000000000000000 $t
     /tmp/ccCfPn7s.s:291    .text._dbg_check_suspend:0000000000000000 _dbg_check_suspend
     /tmp/ccCfPn7s.s:324    .text._dbg_check_suspend:0000000000000020 $d
     /tmp/ccCfPn7s.s:334    .text._dbg_check_enable:0000000000000000 $t
     /tmp/ccCfPn7s.s:342    .text._dbg_check_enable:0000000000000000 _dbg_check_enable
     /tmp/ccCfPn7s.s:375    .text._dbg_check_enable:0000000000000020 $d
     /tmp/ccCfPn7s.s:385    .text._dbg_check_lock:0000000000000000 $t
     /tmp/ccCfPn7s.s:393    .text._dbg_check_lock:0000000000000000 _dbg_check_lock
     /tmp/ccCfPn7s.s:430    .text._dbg_check_lock:0000000000000024 $d
     /tmp/ccCfPn7s.s:440    .text._dbg_check_unlock:0000000000000000 $t
     /tmp/ccCfPn7s.s:448    .text._dbg_check_unlock:0000000000000000 _dbg_check_unlock
     /tmp/ccCfPn7s.s:485    .text._dbg_check_unlock:0000000000000024 $d
     /tmp/ccCfPn7s.s:495    .text._dbg_check_lock_from_isr:0000000000000000 $t
     /tmp/ccCfPn7s.s:503    .text._dbg_check_lock_from_isr:0000000000000000 _dbg_check_lock_from_isr
     /tmp/ccCfPn7s.s:540    .text._dbg_check_lock_from_isr:0000000000000024 $d
     /tmp/ccCfPn7s.s:550    .text._dbg_check_unlock_from_isr:0000000000000000 $t
     /tmp/ccCfPn7s.s:558    .text._dbg_check_unlock_from_isr:0000000000000000 _dbg_check_unlock_from_isr
     /tmp/ccCfPn7s.s:595    .text._dbg_check_unlock_from_isr:0000000000000024 $d
     /tmp/ccCfPn7s.s:605    .text._dbg_check_enter_isr:0000000000000000 $t
     /tmp/ccCfPn7s.s:613    .text._dbg_check_enter_isr:0000000000000000 _dbg_check_enter_isr
     /tmp/ccCfPn7s.s:656    .text._dbg_check_enter_isr:0000000000000030 $d
     /tmp/ccCfPn7s.s:666    .text._dbg_check_leave_isr:0000000000000000 $t
     /tmp/ccCfPn7s.s:674    .text._dbg_check_leave_isr:0000000000000000 _dbg_check_leave_isr
     /tmp/ccCfPn7s.s:717    .text._dbg_check_leave_isr:0000000000000030 $d
     /tmp/ccCfPn7s.s:727    .text.chDbgCheckClassI:0000000000000000 $t
     /tmp/ccCfPn7s.s:735    .text.chDbgCheckClassI:0000000000000000 chDbgCheckClassI
     /tmp/ccCfPn7s.s:768    .text.chDbgCheckClassI:0000000000000020 $d
     /tmp/ccCfPn7s.s:778    .text.chDbgCheckClassS:0000000000000000 $t
     /tmp/ccCfPn7s.s:786    .text.chDbgCheckClassS:0000000000000000 chDbgCheckClassS
     /tmp/ccCfPn7s.s:819    .text.chDbgCheckClassS:0000000000000020 $d
     /tmp/ccCfPn7s.s:825    .text._dbg_trace_init:0000000000000000 $t
     /tmp/ccCfPn7s.s:833    .text._dbg_trace_init:0000000000000000 _dbg_trace_init
     /tmp/ccCfPn7s.s:855    .text._dbg_trace_init:0000000000000010 $d
     /tmp/ccCfPn7s.s:861    .text._dbg_trace:0000000000000000 $t
     /tmp/ccCfPn7s.s:869    .text._dbg_trace:0000000000000000 _dbg_trace
     /tmp/ccCfPn7s.s:932    .text._dbg_trace:0000000000000054 $d
ARM GAS  /tmp/ccCfPn7s.s 			page 67


                     .debug_frame:0000000000000010 $d

UNDEFINED SYMBOLS
chSysHalt
ch
