ARM GAS  /tmp/ccCfPn7s.s 			page 1


   1              		.cpu cortex-m0
   2              		.eabi_attribute 20, 1
   3              		.eabi_attribute 21, 1
   4              		.eabi_attribute 23, 3
   5              		.eabi_attribute 24, 1
   6              		.eabi_attribute 25, 1
   7              		.eabi_attribute 26, 1
   8              		.eabi_attribute 30, 6
   9              		.eabi_attribute 34, 0
  10              		.eabi_attribute 18, 4
  11              		.file	"chdebug.c"
  12              		.text
  13              	.Ltext0:
  14              		.cfi_sections	.debug_frame
  15              		.section	.text.port_lock,"ax",%progbits
  16              		.align	1
  17              		.p2align 4,,15
  18              		.syntax unified
  19              		.code	16
  20              		.thumb_func
  21              		.fpu softvfp
  22              		.type	port_lock, %function
  23              	port_lock:
  24              	.LFB38:
  25              		.file 1 "ChibiOS/os/rt/ports/ARMCMx/chcore_v6m.h"
  26              		.loc 1 330 0
  27              		.cfi_startproc
  28              		@ args = 0, pretend = 0, frame = 0
  29              		@ frame_needed = 0, uses_anonymous_args = 0
  30              		@ link register save eliminated.
  31              	.LBB6:
  32              	.LBB7:
  33              		.file 2 "ChibiOS/os/ext/CMSIS/include/core_cmFunc.h"
  34              		.loc 2 344 0
  35              		.syntax divided
  36              	@ 344 "ChibiOS/os/ext/CMSIS/include/core_cmFunc.h" 1
  37 0000 72B6     		cpsid i
  38              	@ 0 "" 2
  39              		.thumb
  40              		.syntax unified
  41              	.LBE7:
  42              	.LBE6:
  43              		.loc 1 333 0
  44 0002 C046     		nop
  45              		@ sp needed
  46 0004 7047     		bx	lr
  47              		.cfi_endproc
  48              	.LFE38:
  49              		.size	port_lock, .-port_lock
  50 0006 C046     		.section	.text.port_unlock,"ax",%progbits
  51              		.align	1
  52              		.p2align 4,,15
  53              		.syntax unified
  54              		.code	16
  55              		.thumb_func
  56              		.fpu softvfp
  57              		.type	port_unlock, %function
ARM GAS  /tmp/ccCfPn7s.s 			page 2


  58              	port_unlock:
  59              	.LFB39:
  60              		.loc 1 339 0
  61              		.cfi_startproc
  62              		@ args = 0, pretend = 0, frame = 0
  63              		@ frame_needed = 0, uses_anonymous_args = 0
  64              		@ link register save eliminated.
  65              	.LBB8:
  66              	.LBB9:
  67              		.loc 2 333 0
  68              		.syntax divided
  69              	@ 333 "ChibiOS/os/ext/CMSIS/include/core_cmFunc.h" 1
  70 0000 62B6     		cpsie i
  71              	@ 0 "" 2
  72              		.thumb
  73              		.syntax unified
  74              	.LBE9:
  75              	.LBE8:
  76              		.loc 1 342 0
  77 0002 C046     		nop
  78              		@ sp needed
  79 0004 7047     		bx	lr
  80              		.cfi_endproc
  81              	.LFE39:
  82              		.size	port_unlock, .-port_unlock
  83 0006 C046     		.section	.text.port_lock_from_isr,"ax",%progbits
  84              		.align	1
  85              		.p2align 4,,15
  86              		.syntax unified
  87              		.code	16
  88              		.thumb_func
  89              		.fpu softvfp
  90              		.type	port_lock_from_isr, %function
  91              	port_lock_from_isr:
  92              	.LFB40:
  93              		.loc 1 349 0
  94              		.cfi_startproc
  95              		@ args = 0, pretend = 0, frame = 0
  96              		@ frame_needed = 0, uses_anonymous_args = 0
  97 0000 10B5     		push	{r4, lr}
  98              		.cfi_def_cfa_offset 8
  99              		.cfi_offset 4, -8
 100              		.cfi_offset 14, -4
 101              		.loc 1 351 0
 102 0002 FFF7FEFF 		bl	port_lock
 103              		.loc 1 352 0
 104 0006 C046     		nop
 105              		@ sp needed
 106 0008 10BD     		pop	{r4, pc}
 107              		.cfi_endproc
 108              	.LFE40:
 109              		.size	port_lock_from_isr, .-port_lock_from_isr
 110 000a C046     		.section	.text.port_unlock_from_isr,"ax",%progbits
 111              		.align	1
 112              		.p2align 4,,15
 113              		.syntax unified
 114              		.code	16
ARM GAS  /tmp/ccCfPn7s.s 			page 3


 115              		.thumb_func
 116              		.fpu softvfp
 117              		.type	port_unlock_from_isr, %function
 118              	port_unlock_from_isr:
 119              	.LFB41:
 120              		.loc 1 359 0
 121              		.cfi_startproc
 122              		@ args = 0, pretend = 0, frame = 0
 123              		@ frame_needed = 0, uses_anonymous_args = 0
 124 0000 10B5     		push	{r4, lr}
 125              		.cfi_def_cfa_offset 8
 126              		.cfi_offset 4, -8
 127              		.cfi_offset 14, -4
 128              		.loc 1 361 0
 129 0002 FFF7FEFF 		bl	port_unlock
 130              		.loc 1 362 0
 131 0006 C046     		nop
 132              		@ sp needed
 133 0008 10BD     		pop	{r4, pc}
 134              		.cfi_endproc
 135              	.LFE41:
 136              		.size	port_unlock_from_isr, .-port_unlock_from_isr
 137 000a C046     		.section	.text.st_lld_get_counter,"ax",%progbits
 138              		.align	1
 139              		.p2align 4,,15
 140              		.syntax unified
 141              		.code	16
 142              		.thumb_func
 143              		.fpu softvfp
 144              		.type	st_lld_get_counter, %function
 145              	st_lld_get_counter:
 146              	.LFB46:
 147              		.file 3 "ChibiOS/os/hal/ports/STM32/LLD/TIMv1/st_lld.h"
 148              		.loc 3 139 0
 149              		.cfi_startproc
 150              		@ args = 0, pretend = 0, frame = 0
 151              		@ frame_needed = 0, uses_anonymous_args = 0
 152              		@ link register save eliminated.
 153              		.loc 3 141 0
 154 0000 024B     		ldr	r3, .L7
 155 0002 5B6A     		ldr	r3, [r3, #36]
 156 0004 9BB2     		uxth	r3, r3
 157              		.loc 3 142 0
 158 0006 1800     		movs	r0, r3
 159              		@ sp needed
 160 0008 7047     		bx	lr
 161              	.L8:
 162 000a C046     		.align	2
 163              	.L7:
 164 000c 00040040 		.word	1073742848
 165              		.cfi_endproc
 166              	.LFE46:
 167              		.size	st_lld_get_counter, .-st_lld_get_counter
 168              		.section	.text.port_timer_get_time,"ax",%progbits
 169              		.align	1
 170              		.p2align 4,,15
 171              		.syntax unified
ARM GAS  /tmp/ccCfPn7s.s 			page 4


 172              		.code	16
 173              		.thumb_func
 174              		.fpu softvfp
 175              		.type	port_timer_get_time, %function
 176              	port_timer_get_time:
 177              	.LFB55:
 178              		.file 4 "ChibiOS/os/rt/ports/ARMCMx/chcore_timer.h"
 179              		.loc 4 105 0
 180              		.cfi_startproc
 181              		@ args = 0, pretend = 0, frame = 0
 182              		@ frame_needed = 0, uses_anonymous_args = 0
 183 0000 10B5     		push	{r4, lr}
 184              		.cfi_def_cfa_offset 8
 185              		.cfi_offset 4, -8
 186              		.cfi_offset 14, -4
 187              		.loc 4 107 0
 188 0002 FFF7FEFF 		bl	st_lld_get_counter
 189 0006 0300     		movs	r3, r0
 190              		.loc 4 108 0
 191 0008 1800     		movs	r0, r3
 192              		@ sp needed
 193 000a 10BD     		pop	{r4, pc}
 194              		.cfi_endproc
 195              	.LFE55:
 196              		.size	port_timer_get_time, .-port_timer_get_time
 197              		.section	.text.chVTGetSystemTimeX,"ax",%progbits
 198              		.align	1
 199              		.p2align 4,,15
 200              		.syntax unified
 201              		.code	16
 202              		.thumb_func
 203              		.fpu softvfp
 204              		.type	chVTGetSystemTimeX, %function
 205              	chVTGetSystemTimeX:
 206              	.LFB85:
 207              		.file 5 "ChibiOS/os/rt/include/chvt.h"
 208              		.loc 5 228 0
 209              		.cfi_startproc
 210              		@ args = 0, pretend = 0, frame = 0
 211              		@ frame_needed = 0, uses_anonymous_args = 0
 212 0000 10B5     		push	{r4, lr}
 213              		.cfi_def_cfa_offset 8
 214              		.cfi_offset 4, -8
 215              		.cfi_offset 14, -4
 216              		.loc 5 233 0
 217 0002 FFF7FEFF 		bl	port_timer_get_time
 218 0006 0300     		movs	r3, r0
 219              		.loc 5 235 0
 220 0008 1800     		movs	r0, r3
 221              		@ sp needed
 222 000a 10BD     		pop	{r4, pc}
 223              		.cfi_endproc
 224              	.LFE85:
 225              		.size	chVTGetSystemTimeX, .-chVTGetSystemTimeX
 226              		.section	.rodata
 227              		.align	2
 228              	.LC1:
ARM GAS  /tmp/ccCfPn7s.s 			page 5


 229 0000 53562331 		.ascii	"SV#1\000"
 229      00
 230              		.section	.text._dbg_check_disable,"ax",%progbits
 231              		.align	1
 232              		.p2align 4,,15
 233              		.global	_dbg_check_disable
 234              		.syntax unified
 235              		.code	16
 236              		.thumb_func
 237              		.fpu softvfp
 238              		.type	_dbg_check_disable, %function
 239              	_dbg_check_disable:
 240              	.LFB152:
 241              		.file 6 "ChibiOS/os/rt/src/chdebug.c"
 242              		.loc 6 114 0
 243              		.cfi_startproc
 244              		@ args = 0, pretend = 0, frame = 0
 245              		@ frame_needed = 0, uses_anonymous_args = 0
 246 0000 10B5     		push	{r4, lr}
 247              		.cfi_def_cfa_offset 8
 248              		.cfi_offset 4, -8
 249              		.cfi_offset 14, -4
 250              		.loc 6 116 0
 251 0002 074B     		ldr	r3, .L17
 252 0004 DB6A     		ldr	r3, [r3, #44]
 253 0006 002B     		cmp	r3, #0
 254 0008 03D1     		bne	.L14
 255              		.loc 6 116 0 is_stmt 0 discriminator 1
 256 000a 054B     		ldr	r3, .L17
 257 000c 1B6B     		ldr	r3, [r3, #48]
 258 000e 002B     		cmp	r3, #0
 259 0010 03D0     		beq	.L16
 260              	.L14:
 261              		.loc 6 117 0 is_stmt 1
 262 0012 044B     		ldr	r3, .L17+4
 263 0014 1800     		movs	r0, r3
 264 0016 FFF7FEFF 		bl	chSysHalt
 265              	.L16:
 266              		.loc 6 119 0
 267 001a C046     		nop
 268              		@ sp needed
 269 001c 10BD     		pop	{r4, pc}
 270              	.L18:
 271 001e C046     		.align	2
 272              	.L17:
 273 0020 00000000 		.word	ch
 274 0024 00000000 		.word	.LC1
 275              		.cfi_endproc
 276              	.LFE152:
 277              		.size	_dbg_check_disable, .-_dbg_check_disable
 278              		.section	.rodata
 279 0005 000000   		.align	2
 280              	.LC4:
 281 0008 53562332 		.ascii	"SV#2\000"
 281      00
 282              		.section	.text._dbg_check_suspend,"ax",%progbits
 283              		.align	1
ARM GAS  /tmp/ccCfPn7s.s 			page 6


 284              		.p2align 4,,15
 285              		.global	_dbg_check_suspend
 286              		.syntax unified
 287              		.code	16
 288              		.thumb_func
 289              		.fpu softvfp
 290              		.type	_dbg_check_suspend, %function
 291              	_dbg_check_suspend:
 292              	.LFB153:
 293              		.loc 6 126 0
 294              		.cfi_startproc
 295              		@ args = 0, pretend = 0, frame = 0
 296              		@ frame_needed = 0, uses_anonymous_args = 0
 297 0000 10B5     		push	{r4, lr}
 298              		.cfi_def_cfa_offset 8
 299              		.cfi_offset 4, -8
 300              		.cfi_offset 14, -4
 301              		.loc 6 128 0
 302 0002 074B     		ldr	r3, .L23
 303 0004 DB6A     		ldr	r3, [r3, #44]
 304 0006 002B     		cmp	r3, #0
 305 0008 03D1     		bne	.L20
 306              		.loc 6 128 0 is_stmt 0 discriminator 1
 307 000a 054B     		ldr	r3, .L23
 308 000c 1B6B     		ldr	r3, [r3, #48]
 309 000e 002B     		cmp	r3, #0
 310 0010 03D0     		beq	.L22
 311              	.L20:
 312              		.loc 6 129 0 is_stmt 1
 313 0012 044B     		ldr	r3, .L23+4
 314 0014 1800     		movs	r0, r3
 315 0016 FFF7FEFF 		bl	chSysHalt
 316              	.L22:
 317              		.loc 6 131 0
 318 001a C046     		nop
 319              		@ sp needed
 320 001c 10BD     		pop	{r4, pc}
 321              	.L24:
 322 001e C046     		.align	2
 323              	.L23:
 324 0020 00000000 		.word	ch
 325 0024 08000000 		.word	.LC4
 326              		.cfi_endproc
 327              	.LFE153:
 328              		.size	_dbg_check_suspend, .-_dbg_check_suspend
 329              		.section	.rodata
 330 000d 000000   		.align	2
 331              	.LC7:
 332 0010 53562333 		.ascii	"SV#3\000"
 332      00
 333              		.section	.text._dbg_check_enable,"ax",%progbits
 334              		.align	1
 335              		.p2align 4,,15
 336              		.global	_dbg_check_enable
 337              		.syntax unified
 338              		.code	16
 339              		.thumb_func
ARM GAS  /tmp/ccCfPn7s.s 			page 7


 340              		.fpu softvfp
 341              		.type	_dbg_check_enable, %function
 342              	_dbg_check_enable:
 343              	.LFB154:
 344              		.loc 6 138 0
 345              		.cfi_startproc
 346              		@ args = 0, pretend = 0, frame = 0
 347              		@ frame_needed = 0, uses_anonymous_args = 0
 348 0000 10B5     		push	{r4, lr}
 349              		.cfi_def_cfa_offset 8
 350              		.cfi_offset 4, -8
 351              		.cfi_offset 14, -4
 352              		.loc 6 140 0
 353 0002 074B     		ldr	r3, .L29
 354 0004 DB6A     		ldr	r3, [r3, #44]
 355 0006 002B     		cmp	r3, #0
 356 0008 03D1     		bne	.L26
 357              		.loc 6 140 0 is_stmt 0 discriminator 1
 358 000a 054B     		ldr	r3, .L29
 359 000c 1B6B     		ldr	r3, [r3, #48]
 360 000e 002B     		cmp	r3, #0
 361 0010 03D0     		beq	.L28
 362              	.L26:
 363              		.loc 6 141 0 is_stmt 1
 364 0012 044B     		ldr	r3, .L29+4
 365 0014 1800     		movs	r0, r3
 366 0016 FFF7FEFF 		bl	chSysHalt
 367              	.L28:
 368              		.loc 6 143 0
 369 001a C046     		nop
 370              		@ sp needed
 371 001c 10BD     		pop	{r4, pc}
 372              	.L30:
 373 001e C046     		.align	2
 374              	.L29:
 375 0020 00000000 		.word	ch
 376 0024 10000000 		.word	.LC7
 377              		.cfi_endproc
 378              	.LFE154:
 379              		.size	_dbg_check_enable, .-_dbg_check_enable
 380              		.section	.rodata
 381 0015 000000   		.align	2
 382              	.LC10:
 383 0018 53562334 		.ascii	"SV#4\000"
 383      00
 384              		.section	.text._dbg_check_lock,"ax",%progbits
 385              		.align	1
 386              		.p2align 4,,15
 387              		.global	_dbg_check_lock
 388              		.syntax unified
 389              		.code	16
 390              		.thumb_func
 391              		.fpu softvfp
 392              		.type	_dbg_check_lock, %function
 393              	_dbg_check_lock:
 394              	.LFB155:
 395              		.loc 6 150 0
ARM GAS  /tmp/ccCfPn7s.s 			page 8


 396              		.cfi_startproc
 397              		@ args = 0, pretend = 0, frame = 0
 398              		@ frame_needed = 0, uses_anonymous_args = 0
 399 0000 10B5     		push	{r4, lr}
 400              		.cfi_def_cfa_offset 8
 401              		.cfi_offset 4, -8
 402              		.cfi_offset 14, -4
 403              		.loc 6 152 0
 404 0002 084B     		ldr	r3, .L34
 405 0004 DB6A     		ldr	r3, [r3, #44]
 406 0006 002B     		cmp	r3, #0
 407 0008 03D1     		bne	.L32
 408              		.loc 6 152 0 is_stmt 0 discriminator 1
 409 000a 064B     		ldr	r3, .L34
 410 000c 1B6B     		ldr	r3, [r3, #48]
 411 000e 002B     		cmp	r3, #0
 412 0010 03D0     		beq	.L33
 413              	.L32:
 414              		.loc 6 153 0 is_stmt 1
 415 0012 054B     		ldr	r3, .L34+4
 416 0014 1800     		movs	r0, r3
 417 0016 FFF7FEFF 		bl	chSysHalt
 418              	.L33:
 419              		.loc 6 155 0
 420 001a 024B     		ldr	r3, .L34
 421 001c 0122     		movs	r2, #1
 422 001e 1A63     		str	r2, [r3, #48]
 423              		.loc 6 156 0
 424 0020 C046     		nop
 425              		@ sp needed
 426 0022 10BD     		pop	{r4, pc}
 427              	.L35:
 428              		.align	2
 429              	.L34:
 430 0024 00000000 		.word	ch
 431 0028 18000000 		.word	.LC10
 432              		.cfi_endproc
 433              	.LFE155:
 434              		.size	_dbg_check_lock, .-_dbg_check_lock
 435              		.section	.rodata
 436 001d 000000   		.align	2
 437              	.LC13:
 438 0020 53562335 		.ascii	"SV#5\000"
 438      00
 439              		.section	.text._dbg_check_unlock,"ax",%progbits
 440              		.align	1
 441              		.p2align 4,,15
 442              		.global	_dbg_check_unlock
 443              		.syntax unified
 444              		.code	16
 445              		.thumb_func
 446              		.fpu softvfp
 447              		.type	_dbg_check_unlock, %function
 448              	_dbg_check_unlock:
 449              	.LFB156:
 450              		.loc 6 163 0
 451              		.cfi_startproc
ARM GAS  /tmp/ccCfPn7s.s 			page 9


 452              		@ args = 0, pretend = 0, frame = 0
 453              		@ frame_needed = 0, uses_anonymous_args = 0
 454 0000 10B5     		push	{r4, lr}
 455              		.cfi_def_cfa_offset 8
 456              		.cfi_offset 4, -8
 457              		.cfi_offset 14, -4
 458              		.loc 6 165 0
 459 0002 084B     		ldr	r3, .L39
 460 0004 DB6A     		ldr	r3, [r3, #44]
 461 0006 002B     		cmp	r3, #0
 462 0008 03D1     		bne	.L37
 463              		.loc 6 165 0 is_stmt 0 discriminator 1
 464 000a 064B     		ldr	r3, .L39
 465 000c 1B6B     		ldr	r3, [r3, #48]
 466 000e 002B     		cmp	r3, #0
 467 0010 03DC     		bgt	.L38
 468              	.L37:
 469              		.loc 6 166 0 is_stmt 1
 470 0012 054B     		ldr	r3, .L39+4
 471 0014 1800     		movs	r0, r3
 472 0016 FFF7FEFF 		bl	chSysHalt
 473              	.L38:
 474              		.loc 6 168 0
 475 001a 024B     		ldr	r3, .L39
 476 001c 0022     		movs	r2, #0
 477 001e 1A63     		str	r2, [r3, #48]
 478              		.loc 6 169 0
 479 0020 C046     		nop
 480              		@ sp needed
 481 0022 10BD     		pop	{r4, pc}
 482              	.L40:
 483              		.align	2
 484              	.L39:
 485 0024 00000000 		.word	ch
 486 0028 20000000 		.word	.LC13
 487              		.cfi_endproc
 488              	.LFE156:
 489              		.size	_dbg_check_unlock, .-_dbg_check_unlock
 490              		.section	.rodata
 491 0025 000000   		.align	2
 492              	.LC16:
 493 0028 53562336 		.ascii	"SV#6\000"
 493      00
 494              		.section	.text._dbg_check_lock_from_isr,"ax",%progbits
 495              		.align	1
 496              		.p2align 4,,15
 497              		.global	_dbg_check_lock_from_isr
 498              		.syntax unified
 499              		.code	16
 500              		.thumb_func
 501              		.fpu softvfp
 502              		.type	_dbg_check_lock_from_isr, %function
 503              	_dbg_check_lock_from_isr:
 504              	.LFB157:
 505              		.loc 6 176 0
 506              		.cfi_startproc
 507              		@ args = 0, pretend = 0, frame = 0
ARM GAS  /tmp/ccCfPn7s.s 			page 10


 508              		@ frame_needed = 0, uses_anonymous_args = 0
 509 0000 10B5     		push	{r4, lr}
 510              		.cfi_def_cfa_offset 8
 511              		.cfi_offset 4, -8
 512              		.cfi_offset 14, -4
 513              		.loc 6 178 0
 514 0002 084B     		ldr	r3, .L44
 515 0004 DB6A     		ldr	r3, [r3, #44]
 516 0006 002B     		cmp	r3, #0
 517 0008 03DD     		ble	.L42
 518              		.loc 6 178 0 is_stmt 0 discriminator 1
 519 000a 064B     		ldr	r3, .L44
 520 000c 1B6B     		ldr	r3, [r3, #48]
 521 000e 002B     		cmp	r3, #0
 522 0010 03D0     		beq	.L43
 523              	.L42:
 524              		.loc 6 179 0 is_stmt 1
 525 0012 054B     		ldr	r3, .L44+4
 526 0014 1800     		movs	r0, r3
 527 0016 FFF7FEFF 		bl	chSysHalt
 528              	.L43:
 529              		.loc 6 181 0
 530 001a 024B     		ldr	r3, .L44
 531 001c 0122     		movs	r2, #1
 532 001e 1A63     		str	r2, [r3, #48]
 533              		.loc 6 182 0
 534 0020 C046     		nop
 535              		@ sp needed
 536 0022 10BD     		pop	{r4, pc}
 537              	.L45:
 538              		.align	2
 539              	.L44:
 540 0024 00000000 		.word	ch
 541 0028 28000000 		.word	.LC16
 542              		.cfi_endproc
 543              	.LFE157:
 544              		.size	_dbg_check_lock_from_isr, .-_dbg_check_lock_from_isr
 545              		.section	.rodata
 546 002d 000000   		.align	2
 547              	.LC19:
 548 0030 53562337 		.ascii	"SV#7\000"
 548      00
 549              		.section	.text._dbg_check_unlock_from_isr,"ax",%progbits
 550              		.align	1
 551              		.p2align 4,,15
 552              		.global	_dbg_check_unlock_from_isr
 553              		.syntax unified
 554              		.code	16
 555              		.thumb_func
 556              		.fpu softvfp
 557              		.type	_dbg_check_unlock_from_isr, %function
 558              	_dbg_check_unlock_from_isr:
 559              	.LFB158:
 560              		.loc 6 189 0
 561              		.cfi_startproc
 562              		@ args = 0, pretend = 0, frame = 0
 563              		@ frame_needed = 0, uses_anonymous_args = 0
ARM GAS  /tmp/ccCfPn7s.s 			page 11


 564 0000 10B5     		push	{r4, lr}
 565              		.cfi_def_cfa_offset 8
 566              		.cfi_offset 4, -8
 567              		.cfi_offset 14, -4
 568              		.loc 6 191 0
 569 0002 084B     		ldr	r3, .L49
 570 0004 DB6A     		ldr	r3, [r3, #44]
 571 0006 002B     		cmp	r3, #0
 572 0008 03DD     		ble	.L47
 573              		.loc 6 191 0 is_stmt 0 discriminator 1
 574 000a 064B     		ldr	r3, .L49
 575 000c 1B6B     		ldr	r3, [r3, #48]
 576 000e 002B     		cmp	r3, #0
 577 0010 03DC     		bgt	.L48
 578              	.L47:
 579              		.loc 6 192 0 is_stmt 1
 580 0012 054B     		ldr	r3, .L49+4
 581 0014 1800     		movs	r0, r3
 582 0016 FFF7FEFF 		bl	chSysHalt
 583              	.L48:
 584              		.loc 6 194 0
 585 001a 024B     		ldr	r3, .L49
 586 001c 0022     		movs	r2, #0
 587 001e 1A63     		str	r2, [r3, #48]
 588              		.loc 6 195 0
 589 0020 C046     		nop
 590              		@ sp needed
 591 0022 10BD     		pop	{r4, pc}
 592              	.L50:
 593              		.align	2
 594              	.L49:
 595 0024 00000000 		.word	ch
 596 0028 30000000 		.word	.LC19
 597              		.cfi_endproc
 598              	.LFE158:
 599              		.size	_dbg_check_unlock_from_isr, .-_dbg_check_unlock_from_isr
 600              		.section	.rodata
 601 0035 000000   		.align	2
 602              	.LC22:
 603 0038 53562338 		.ascii	"SV#8\000"
 603      00
 604              		.section	.text._dbg_check_enter_isr,"ax",%progbits
 605              		.align	1
 606              		.p2align 4,,15
 607              		.global	_dbg_check_enter_isr
 608              		.syntax unified
 609              		.code	16
 610              		.thumb_func
 611              		.fpu softvfp
 612              		.type	_dbg_check_enter_isr, %function
 613              	_dbg_check_enter_isr:
 614              	.LFB159:
 615              		.loc 6 202 0
 616              		.cfi_startproc
 617              		@ args = 0, pretend = 0, frame = 0
 618              		@ frame_needed = 0, uses_anonymous_args = 0
 619 0000 10B5     		push	{r4, lr}
ARM GAS  /tmp/ccCfPn7s.s 			page 12


 620              		.cfi_def_cfa_offset 8
 621              		.cfi_offset 4, -8
 622              		.cfi_offset 14, -4
 623              		.loc 6 204 0
 624 0002 FFF7FEFF 		bl	port_lock_from_isr
 625              		.loc 6 205 0
 626 0006 0A4B     		ldr	r3, .L54
 627 0008 DB6A     		ldr	r3, [r3, #44]
 628 000a 002B     		cmp	r3, #0
 629 000c 03DB     		blt	.L52
 630              		.loc 6 205 0 is_stmt 0 discriminator 1
 631 000e 084B     		ldr	r3, .L54
 632 0010 1B6B     		ldr	r3, [r3, #48]
 633 0012 002B     		cmp	r3, #0
 634 0014 03D0     		beq	.L53
 635              	.L52:
 636              		.loc 6 206 0 is_stmt 1
 637 0016 074B     		ldr	r3, .L54+4
 638 0018 1800     		movs	r0, r3
 639 001a FFF7FEFF 		bl	chSysHalt
 640              	.L53:
 641              		.loc 6 208 0
 642 001e 044B     		ldr	r3, .L54
 643 0020 DB6A     		ldr	r3, [r3, #44]
 644 0022 5A1C     		adds	r2, r3, #1
 645 0024 024B     		ldr	r3, .L54
 646 0026 DA62     		str	r2, [r3, #44]
 647              		.loc 6 209 0
 648 0028 FFF7FEFF 		bl	port_unlock_from_isr
 649              		.loc 6 210 0
 650 002c C046     		nop
 651              		@ sp needed
 652 002e 10BD     		pop	{r4, pc}
 653              	.L55:
 654              		.align	2
 655              	.L54:
 656 0030 00000000 		.word	ch
 657 0034 38000000 		.word	.LC22
 658              		.cfi_endproc
 659              	.LFE159:
 660              		.size	_dbg_check_enter_isr, .-_dbg_check_enter_isr
 661              		.section	.rodata
 662 003d 000000   		.align	2
 663              	.LC25:
 664 0040 53562339 		.ascii	"SV#9\000"
 664      00
 665              		.section	.text._dbg_check_leave_isr,"ax",%progbits
 666              		.align	1
 667              		.p2align 4,,15
 668              		.global	_dbg_check_leave_isr
 669              		.syntax unified
 670              		.code	16
 671              		.thumb_func
 672              		.fpu softvfp
 673              		.type	_dbg_check_leave_isr, %function
 674              	_dbg_check_leave_isr:
 675              	.LFB160:
ARM GAS  /tmp/ccCfPn7s.s 			page 13


 676              		.loc 6 217 0
 677              		.cfi_startproc
 678              		@ args = 0, pretend = 0, frame = 0
 679              		@ frame_needed = 0, uses_anonymous_args = 0
 680 0000 10B5     		push	{r4, lr}
 681              		.cfi_def_cfa_offset 8
 682              		.cfi_offset 4, -8
 683              		.cfi_offset 14, -4
 684              		.loc 6 219 0
 685 0002 FFF7FEFF 		bl	port_lock_from_isr
 686              		.loc 6 220 0
 687 0006 0A4B     		ldr	r3, .L59
 688 0008 DB6A     		ldr	r3, [r3, #44]
 689 000a 002B     		cmp	r3, #0
 690 000c 03DD     		ble	.L57
 691              		.loc 6 220 0 is_stmt 0 discriminator 1
 692 000e 084B     		ldr	r3, .L59
 693 0010 1B6B     		ldr	r3, [r3, #48]
 694 0012 002B     		cmp	r3, #0
 695 0014 03D0     		beq	.L58
 696              	.L57:
 697              		.loc 6 221 0 is_stmt 1
 698 0016 074B     		ldr	r3, .L59+4
 699 0018 1800     		movs	r0, r3
 700 001a FFF7FEFF 		bl	chSysHalt
 701              	.L58:
 702              		.loc 6 223 0
 703 001e 044B     		ldr	r3, .L59
 704 0020 DB6A     		ldr	r3, [r3, #44]
 705 0022 5A1E     		subs	r2, r3, #1
 706 0024 024B     		ldr	r3, .L59
 707 0026 DA62     		str	r2, [r3, #44]
 708              		.loc 6 224 0
 709 0028 FFF7FEFF 		bl	port_unlock_from_isr
 710              		.loc 6 225 0
 711 002c C046     		nop
 712              		@ sp needed
 713 002e 10BD     		pop	{r4, pc}
 714              	.L60:
 715              		.align	2
 716              	.L59:
 717 0030 00000000 		.word	ch
 718 0034 40000000 		.word	.LC25
 719              		.cfi_endproc
 720              	.LFE160:
 721              		.size	_dbg_check_leave_isr, .-_dbg_check_leave_isr
 722              		.section	.rodata
 723 0045 000000   		.align	2
 724              	.LC28:
 725 0048 53562331 		.ascii	"SV#10\000"
 725      3000
 726              		.section	.text.chDbgCheckClassI,"ax",%progbits
 727              		.align	1
 728              		.p2align 4,,15
 729              		.global	chDbgCheckClassI
 730              		.syntax unified
 731              		.code	16
ARM GAS  /tmp/ccCfPn7s.s 			page 14


 732              		.thumb_func
 733              		.fpu softvfp
 734              		.type	chDbgCheckClassI, %function
 735              	chDbgCheckClassI:
 736              	.LFB161:
 737              		.loc 6 235 0
 738              		.cfi_startproc
 739              		@ args = 0, pretend = 0, frame = 0
 740              		@ frame_needed = 0, uses_anonymous_args = 0
 741 0000 10B5     		push	{r4, lr}
 742              		.cfi_def_cfa_offset 8
 743              		.cfi_offset 4, -8
 744              		.cfi_offset 14, -4
 745              		.loc 6 237 0
 746 0002 074B     		ldr	r3, .L65
 747 0004 DB6A     		ldr	r3, [r3, #44]
 748 0006 002B     		cmp	r3, #0
 749 0008 03DB     		blt	.L62
 750              		.loc 6 237 0 is_stmt 0 discriminator 1
 751 000a 054B     		ldr	r3, .L65
 752 000c 1B6B     		ldr	r3, [r3, #48]
 753 000e 002B     		cmp	r3, #0
 754 0010 03DC     		bgt	.L64
 755              	.L62:
 756              		.loc 6 238 0 is_stmt 1
 757 0012 044B     		ldr	r3, .L65+4
 758 0014 1800     		movs	r0, r3
 759 0016 FFF7FEFF 		bl	chSysHalt
 760              	.L64:
 761              		.loc 6 240 0
 762 001a C046     		nop
 763              		@ sp needed
 764 001c 10BD     		pop	{r4, pc}
 765              	.L66:
 766 001e C046     		.align	2
 767              	.L65:
 768 0020 00000000 		.word	ch
 769 0024 48000000 		.word	.LC28
 770              		.cfi_endproc
 771              	.LFE161:
 772              		.size	chDbgCheckClassI, .-chDbgCheckClassI
 773              		.section	.rodata
 774 004e 0000     		.align	2
 775              	.LC31:
 776 0050 53562331 		.ascii	"SV#11\000"
 776      3100
 777              		.section	.text.chDbgCheckClassS,"ax",%progbits
 778              		.align	1
 779              		.p2align 4,,15
 780              		.global	chDbgCheckClassS
 781              		.syntax unified
 782              		.code	16
 783              		.thumb_func
 784              		.fpu softvfp
 785              		.type	chDbgCheckClassS, %function
 786              	chDbgCheckClassS:
 787              	.LFB162:
ARM GAS  /tmp/ccCfPn7s.s 			page 15


 788              		.loc 6 250 0
 789              		.cfi_startproc
 790              		@ args = 0, pretend = 0, frame = 0
 791              		@ frame_needed = 0, uses_anonymous_args = 0
 792 0000 10B5     		push	{r4, lr}
 793              		.cfi_def_cfa_offset 8
 794              		.cfi_offset 4, -8
 795              		.cfi_offset 14, -4
 796              		.loc 6 252 0
 797 0002 074B     		ldr	r3, .L71
 798 0004 DB6A     		ldr	r3, [r3, #44]
 799 0006 002B     		cmp	r3, #0
 800 0008 03D1     		bne	.L68
 801              		.loc 6 252 0 is_stmt 0 discriminator 1
 802 000a 054B     		ldr	r3, .L71
 803 000c 1B6B     		ldr	r3, [r3, #48]
 804 000e 002B     		cmp	r3, #0
 805 0010 03DC     		bgt	.L70
 806              	.L68:
 807              		.loc 6 253 0 is_stmt 1
 808 0012 044B     		ldr	r3, .L71+4
 809 0014 1800     		movs	r0, r3
 810 0016 FFF7FEFF 		bl	chSysHalt
 811              	.L70:
 812              		.loc 6 255 0
 813 001a C046     		nop
 814              		@ sp needed
 815 001c 10BD     		pop	{r4, pc}
 816              	.L72:
 817 001e C046     		.align	2
 818              	.L71:
 819 0020 00000000 		.word	ch
 820 0024 50000000 		.word	.LC31
 821              		.cfi_endproc
 822              	.LFE162:
 823              		.size	chDbgCheckClassS, .-chDbgCheckClassS
 824              		.section	.text._dbg_trace_init,"ax",%progbits
 825              		.align	1
 826              		.p2align 4,,15
 827              		.global	_dbg_trace_init
 828              		.syntax unified
 829              		.code	16
 830              		.thumb_func
 831              		.fpu softvfp
 832              		.type	_dbg_trace_init, %function
 833              	_dbg_trace_init:
 834              	.LFB163:
 835              		.loc 6 264 0
 836              		.cfi_startproc
 837              		@ args = 0, pretend = 0, frame = 0
 838              		@ frame_needed = 0, uses_anonymous_args = 0
 839              		@ link register save eliminated.
 840              		.loc 6 266 0
 841 0000 034B     		ldr	r3, .L74
 842 0002 4022     		movs	r2, #64
 843 0004 5A63     		str	r2, [r3, #52]
 844              		.loc 6 267 0
ARM GAS  /tmp/ccCfPn7s.s 			page 16


 845 0006 024B     		ldr	r3, .L74
 846 0008 024A     		ldr	r2, .L74+4
 847 000a 9A63     		str	r2, [r3, #56]
 848              		.loc 6 268 0
 849 000c C046     		nop
 850              		@ sp needed
 851 000e 7047     		bx	lr
 852              	.L75:
 853              		.align	2
 854              	.L74:
 855 0010 00000000 		.word	ch
 856 0014 3C000000 		.word	ch+60
 857              		.cfi_endproc
 858              	.LFE163:
 859              		.size	_dbg_trace_init, .-_dbg_trace_init
 860              		.section	.text._dbg_trace,"ax",%progbits
 861              		.align	1
 862              		.p2align 4,,15
 863              		.global	_dbg_trace
 864              		.syntax unified
 865              		.code	16
 866              		.thumb_func
 867              		.fpu softvfp
 868              		.type	_dbg_trace, %function
 869              	_dbg_trace:
 870              	.LFB164:
 871              		.loc 6 277 0
 872              		.cfi_startproc
 873              		@ args = 0, pretend = 0, frame = 8
 874              		@ frame_needed = 0, uses_anonymous_args = 0
 875 0000 10B5     		push	{r4, lr}
 876              		.cfi_def_cfa_offset 8
 877              		.cfi_offset 4, -8
 878              		.cfi_offset 14, -4
 879 0002 82B0     		sub	sp, sp, #8
 880              		.cfi_def_cfa_offset 16
 881 0004 0190     		str	r0, [sp, #4]
 882              		.loc 6 279 0
 883 0006 134B     		ldr	r3, .L79
 884 0008 9C6B     		ldr	r4, [r3, #56]
 885 000a FFF7FEFF 		bl	chVTGetSystemTimeX
 886 000e 0300     		movs	r3, r0
 887 0010 2380     		strh	r3, [r4]
 888              		.loc 6 280 0
 889 0012 104B     		ldr	r3, .L79
 890 0014 9B6B     		ldr	r3, [r3, #56]
 891 0016 0F4A     		ldr	r2, .L79
 892 0018 9269     		ldr	r2, [r2, #24]
 893 001a 5A60     		str	r2, [r3, #4]
 894              		.loc 6 281 0
 895 001c 0D4B     		ldr	r3, .L79
 896 001e 9B6B     		ldr	r3, [r3, #56]
 897 0020 019A     		ldr	r2, [sp, #4]
 898 0022 526A     		ldr	r2, [r2, #36]
 899 0024 9A60     		str	r2, [r3, #8]
 900              		.loc 6 282 0
 901 0026 0B4B     		ldr	r3, .L79
ARM GAS  /tmp/ccCfPn7s.s 			page 17


 902 0028 9B6B     		ldr	r3, [r3, #56]
 903 002a 019A     		ldr	r2, [sp, #4]
 904 002c 2021     		movs	r1, #32
 905 002e 525C     		ldrb	r2, [r2, r1]
 906 0030 1A73     		strb	r2, [r3, #12]
 907              		.loc 6 283 0
 908 0032 084B     		ldr	r3, .L79
 909 0034 9B6B     		ldr	r3, [r3, #56]
 910 0036 1033     		adds	r3, r3, #16
 911 0038 1A00     		movs	r2, r3
 912 003a 064B     		ldr	r3, .L79
 913 003c 9A63     		str	r2, [r3, #56]
 914 003e 054B     		ldr	r3, .L79
 915 0040 9A6B     		ldr	r2, [r3, #56]
 916 0042 054B     		ldr	r3, .L79+4
 917 0044 9A42     		cmp	r2, r3
 918 0046 02D3     		bcc	.L78
 919              		.loc 6 285 0
 920 0048 024B     		ldr	r3, .L79
 921 004a 044A     		ldr	r2, .L79+8
 922 004c 9A63     		str	r2, [r3, #56]
 923              	.L78:
 924              		.loc 6 287 0
 925 004e C046     		nop
 926 0050 02B0     		add	sp, sp, #8
 927              		@ sp needed
 928 0052 10BD     		pop	{r4, pc}
 929              	.L80:
 930              		.align	2
 931              	.L79:
 932 0054 00000000 		.word	ch
 933 0058 3C040000 		.word	ch+1084
 934 005c 3C000000 		.word	ch+60
 935              		.cfi_endproc
 936              	.LFE164:
 937              		.size	_dbg_trace, .-_dbg_trace
 938              		.text
 939              	.Letext0:
 940              		.file 7 "/home/felix/opt/gcc-arm-none-eabi-6-2017-q1-update/arm-none-eabi/include/machine/_default
 941              		.file 8 "/home/felix/opt/gcc-arm-none-eabi-6-2017-q1-update/arm-none-eabi/include/sys/_stdint.h"
 942              		.file 9 "ChibiOS/os/rt/ports/ARMCMx/compilers/GCC/chtypes.h"
 943              		.file 10 "ChibiOS/os/rt/include/chsystypes.h"
 944              		.file 11 "ChibiOS/os/rt/include/chschd.h"
 945              		.file 12 "ChibiOS/os/rt/ports/ARMCMx/chcore.h"
 946              		.file 13 "ChibiOS/os/hal/ports/STM32/LLD/TIMv1/stm32_tim.h"
 947              		.file 14 "ChibiOS/os/rt/include/chdebug.h"
 948              		.file 15 "ChibiOS/os/rt/include/chsem.h"
 949              		.file 16 "ChibiOS/os/rt/include/chmtx.h"
 950              		.file 17 "ChibiOS/os/rt/include/chregistry.h"
 951              		.file 18 "ChibiOS/os/ext/CMSIS/ST/STM32F0xx/system_stm32f0xx.h"