ARM GAS  /tmp/ccHXpRvH.s 			page 1


   1              		.cpu cortex-m0
   2              		.eabi_attribute 20, 1
   3              		.eabi_attribute 21, 1
   4              		.eabi_attribute 23, 3
   5              		.eabi_attribute 24, 1
   6              		.eabi_attribute 25, 1
   7              		.eabi_attribute 26, 1
   8              		.eabi_attribute 30, 6
   9              		.eabi_attribute 34, 0
  10              		.eabi_attribute 18, 4
  11              		.file	"chdynamic.c"
  12              		.text
  13              	.Ltext0:
  14              		.cfi_sections	.debug_frame
  15              		.section	.text.port_lock,"ax",%progbits
  16              		.align	1
  17              		.p2align 4,,15
  18              		.syntax unified
  19              		.code	16
  20              		.thumb_func
  21              		.fpu softvfp
  22              		.type	port_lock, %function
  23              	port_lock:
  24              	.LFB38:
  25              		.file 1 "ChibiOS/os/rt/ports/ARMCMx/chcore_v6m.h"
  26              		.loc 1 330 0
  27              		.cfi_startproc
  28              		@ args = 0, pretend = 0, frame = 0
  29              		@ frame_needed = 0, uses_anonymous_args = 0
  30              		@ link register save eliminated.
  31              	.LBB6:
  32              	.LBB7:
  33              		.file 2 "ChibiOS/os/ext/CMSIS/include/core_cmFunc.h"
  34              		.loc 2 344 0
  35              		.syntax divided
  36              	@ 344 "ChibiOS/os/ext/CMSIS/include/core_cmFunc.h" 1
  37 0000 72B6     		cpsid i
  38              	@ 0 "" 2
  39              		.thumb
  40              		.syntax unified
  41              	.LBE7:
  42              	.LBE6:
  43              		.loc 1 333 0
  44 0002 C046     		nop
  45              		@ sp needed
  46 0004 7047     		bx	lr
  47              		.cfi_endproc
  48              	.LFE38:
  49              		.size	port_lock, .-port_lock
  50 0006 C046     		.section	.text.port_unlock,"ax",%progbits
  51              		.align	1
  52              		.p2align 4,,15
  53              		.syntax unified
  54              		.code	16
  55              		.thumb_func
  56              		.fpu softvfp
  57              		.type	port_unlock, %function
ARM GAS  /tmp/ccHXpRvH.s 			page 2


  58              	port_unlock:
  59              	.LFB39:
  60              		.loc 1 339 0
  61              		.cfi_startproc
  62              		@ args = 0, pretend = 0, frame = 0
  63              		@ frame_needed = 0, uses_anonymous_args = 0
  64              		@ link register save eliminated.
  65              	.LBB8:
  66              	.LBB9:
  67              		.loc 2 333 0
  68              		.syntax divided
  69              	@ 333 "ChibiOS/os/ext/CMSIS/include/core_cmFunc.h" 1
  70 0000 62B6     		cpsie i
  71              	@ 0 "" 2
  72              		.thumb
  73              		.syntax unified
  74              	.LBE9:
  75              	.LBE8:
  76              		.loc 1 342 0
  77 0002 C046     		nop
  78              		@ sp needed
  79 0004 7047     		bx	lr
  80              		.cfi_endproc
  81              	.LFE39:
  82              		.size	port_unlock, .-port_unlock
  83 0006 C046     		.section	.text.chSysLock,"ax",%progbits
  84              		.align	1
  85              		.p2align 4,,15
  86              		.syntax unified
  87              		.code	16
  88              		.thumb_func
  89              		.fpu softvfp
  90              		.type	chSysLock, %function
  91              	chSysLock:
  92              	.LFB77:
  93              		.file 3 "ChibiOS/os/rt/include/chsys.h"
  94              		.loc 3 346 0
  95              		.cfi_startproc
  96              		@ args = 0, pretend = 0, frame = 0
  97              		@ frame_needed = 0, uses_anonymous_args = 0
  98 0000 10B5     		push	{r4, lr}
  99              		.cfi_def_cfa_offset 8
 100              		.cfi_offset 4, -8
 101              		.cfi_offset 14, -4
 102              		.loc 3 348 0
 103 0002 FFF7FEFF 		bl	port_lock
 104              		.loc 3 350 0
 105 0006 FFF7FEFF 		bl	_dbg_check_lock
 106              		.loc 3 351 0
 107 000a C046     		nop
 108              		@ sp needed
 109 000c 10BD     		pop	{r4, pc}
 110              		.cfi_endproc
 111              	.LFE77:
 112              		.size	chSysLock, .-chSysLock
 113 000e C046     		.section	.text.chSysUnlock,"ax",%progbits
 114              		.align	1
ARM GAS  /tmp/ccHXpRvH.s 			page 3


 115              		.p2align 4,,15
 116              		.syntax unified
 117              		.code	16
 118              		.thumb_func
 119              		.fpu softvfp
 120              		.type	chSysUnlock, %function
 121              	chSysUnlock:
 122              	.LFB78:
 123              		.loc 3 358 0
 124              		.cfi_startproc
 125              		@ args = 0, pretend = 0, frame = 0
 126              		@ frame_needed = 0, uses_anonymous_args = 0
 127 0000 10B5     		push	{r4, lr}
 128              		.cfi_def_cfa_offset 8
 129              		.cfi_offset 4, -8
 130              		.cfi_offset 14, -4
 131              		.loc 3 360 0
 132 0002 FFF7FEFF 		bl	_dbg_check_unlock
 133              		.loc 3 367 0
 134 0006 0A4B     		ldr	r3, .L6
 135 0008 1A68     		ldr	r2, [r3]
 136 000a 094B     		ldr	r3, .L6
 137 000c 9A42     		cmp	r2, r3
 138 000e 0BD0     		beq	.L5
 139              		.loc 3 367 0 is_stmt 0 discriminator 2
 140 0010 074B     		ldr	r3, .L6
 141 0012 9B69     		ldr	r3, [r3, #24]
 142 0014 9A68     		ldr	r2, [r3, #8]
 143 0016 064B     		ldr	r3, .L6
 144 0018 1B68     		ldr	r3, [r3]
 145 001a 9B68     		ldr	r3, [r3, #8]
 146 001c 9A42     		cmp	r2, r3
 147 001e 03D2     		bcs	.L5
 148              		.loc 3 367 0 discriminator 3
 149 0020 044B     		ldr	r3, .L6+4
 150 0022 1800     		movs	r0, r3
 151 0024 FFF7FEFF 		bl	chSysHalt
 152              	.L5:
 153              		.loc 3 371 0 is_stmt 1
 154 0028 FFF7FEFF 		bl	port_unlock
 155              		.loc 3 372 0
 156 002c C046     		nop
 157              		@ sp needed
 158 002e 10BD     		pop	{r4, pc}
 159              	.L7:
 160              		.align	2
 161              	.L6:
 162 0030 00000000 		.word	ch
 163 0034 00000000 		.word	__func__.4993
 164              		.cfi_endproc
 165              	.LFE78:
 166              		.size	chSysUnlock, .-chSysUnlock
 167              		.section	.text.chThdAddRef,"ax",%progbits
 168              		.align	1
 169              		.p2align 4,,15
 170              		.global	chThdAddRef
 171              		.syntax unified
ARM GAS  /tmp/ccHXpRvH.s 			page 4


 172              		.code	16
 173              		.thumb_func
 174              		.fpu softvfp
 175              		.type	chThdAddRef, %function
 176              	chThdAddRef:
 177              	.LFB152:
 178              		.file 4 "ChibiOS/os/rt/src/chdynamic.c"
 179              		.loc 4 68 0
 180              		.cfi_startproc
 181              		@ args = 0, pretend = 0, frame = 8
 182              		@ frame_needed = 0, uses_anonymous_args = 0
 183 0000 00B5     		push	{lr}
 184              		.cfi_def_cfa_offset 4
 185              		.cfi_offset 14, -4
 186 0002 83B0     		sub	sp, sp, #12
 187              		.cfi_def_cfa_offset 16
 188 0004 0190     		str	r0, [sp, #4]
 189              		.loc 4 70 0
 190 0006 FFF7FEFF 		bl	chSysLock
 191              		.loc 4 71 0
 192 000a 019B     		ldr	r3, [sp, #4]
 193 000c 2222     		movs	r2, #34
 194 000e 9B5C     		ldrb	r3, [r3, r2]
 195 0010 FF2B     		cmp	r3, #255
 196 0012 03D1     		bne	.L9
 197              		.loc 4 71 0 is_stmt 0 discriminator 2
 198 0014 084B     		ldr	r3, .L11
 199 0016 1800     		movs	r0, r3
 200 0018 FFF7FEFF 		bl	chSysHalt
 201              	.L9:
 202              		.loc 4 72 0 is_stmt 1
 203 001c 019B     		ldr	r3, [sp, #4]
 204 001e 2222     		movs	r2, #34
 205 0020 9B5C     		ldrb	r3, [r3, r2]
 206 0022 0133     		adds	r3, r3, #1
 207 0024 D9B2     		uxtb	r1, r3
 208 0026 019B     		ldr	r3, [sp, #4]
 209 0028 2222     		movs	r2, #34
 210 002a 9954     		strb	r1, [r3, r2]
 211              		.loc 4 73 0
 212 002c FFF7FEFF 		bl	chSysUnlock
 213              		.loc 4 75 0
 214 0030 019B     		ldr	r3, [sp, #4]
 215              		.loc 4 76 0
 216 0032 1800     		movs	r0, r3
 217 0034 03B0     		add	sp, sp, #12
 218              		@ sp needed
 219 0036 00BD     		pop	{pc}
 220              	.L12:
 221              		.align	2
 222              	.L11:
 223 0038 00000000 		.word	__func__.5696
 224              		.cfi_endproc
 225              	.LFE152:
 226              		.size	chThdAddRef, .-chThdAddRef
 227              		.section	.text.chThdRelease,"ax",%progbits
 228              		.align	1
ARM GAS  /tmp/ccHXpRvH.s 			page 5


 229              		.p2align 4,,15
 230              		.global	chThdRelease
 231              		.syntax unified
 232              		.code	16
 233              		.thumb_func
 234              		.fpu softvfp
 235              		.type	chThdRelease, %function
 236              	chThdRelease:
 237              	.LFB153:
 238              		.loc 4 91 0
 239              		.cfi_startproc
 240              		@ args = 0, pretend = 0, frame = 16
 241              		@ frame_needed = 0, uses_anonymous_args = 0
 242 0000 00B5     		push	{lr}
 243              		.cfi_def_cfa_offset 4
 244              		.cfi_offset 14, -4
 245 0002 85B0     		sub	sp, sp, #20
 246              		.cfi_def_cfa_offset 24
 247 0004 0190     		str	r0, [sp, #4]
 248              		.loc 4 94 0
 249 0006 FFF7FEFF 		bl	chSysLock
 250              		.loc 4 95 0
 251 000a 019B     		ldr	r3, [sp, #4]
 252 000c 2222     		movs	r2, #34
 253 000e 9B5C     		ldrb	r3, [r3, r2]
 254 0010 002B     		cmp	r3, #0
 255 0012 03D1     		bne	.L14
 256              		.loc 4 95 0 is_stmt 0 discriminator 2
 257 0014 274B     		ldr	r3, .L20
 258 0016 1800     		movs	r0, r3
 259 0018 FFF7FEFF 		bl	chSysHalt
 260              	.L14:
 261              		.loc 4 96 0 is_stmt 1
 262 001c 019B     		ldr	r3, [sp, #4]
 263 001e 2222     		movs	r2, #34
 264 0020 9B5C     		ldrb	r3, [r3, r2]
 265 0022 013B     		subs	r3, r3, #1
 266 0024 D9B2     		uxtb	r1, r3
 267 0026 019B     		ldr	r3, [sp, #4]
 268 0028 2222     		movs	r2, #34
 269 002a 9954     		strb	r1, [r3, r2]
 270              		.loc 4 97 0
 271 002c 0F23     		movs	r3, #15
 272 002e 6B44     		add	r3, r3, sp
 273 0030 019A     		ldr	r2, [sp, #4]
 274 0032 2221     		movs	r1, #34
 275 0034 525C     		ldrb	r2, [r2, r1]
 276 0036 1A70     		strb	r2, [r3]
 277              		.loc 4 102 0
 278 0038 0F23     		movs	r3, #15
 279 003a 6B44     		add	r3, r3, sp
 280 003c 1B78     		ldrb	r3, [r3]
 281 003e 002B     		cmp	r3, #0
 282 0040 34D1     		bne	.L15
 283              		.loc 4 102 0 is_stmt 0 discriminator 1
 284 0042 019B     		ldr	r3, [sp, #4]
 285 0044 2022     		movs	r2, #32
ARM GAS  /tmp/ccHXpRvH.s 			page 6


 286 0046 9B5C     		ldrb	r3, [r3, r2]
 287 0048 0F2B     		cmp	r3, #15
 288 004a 2FD1     		bne	.L15
 289              		.loc 4 103 0 is_stmt 1
 290 004c 019B     		ldr	r3, [sp, #4]
 291 004e 2122     		movs	r2, #33
 292 0050 9B5C     		ldrb	r3, [r3, r2]
 293 0052 1A00     		movs	r2, r3
 294 0054 0323     		movs	r3, #3
 295 0056 1340     		ands	r3, r2
 296 0058 012B     		cmp	r3, #1
 297 005a 02D0     		beq	.L17
 298 005c 022B     		cmp	r3, #2
 299 005e 11D0     		beq	.L18
 300              		.loc 4 125 0
 301 0060 24E0     		b	.L15
 302              	.L17:
 303              		.loc 4 107 0
 304 0062 019B     		ldr	r3, [sp, #4]
 305 0064 5B69     		ldr	r3, [r3, #20]
 306 0066 019A     		ldr	r2, [sp, #4]
 307 0068 1269     		ldr	r2, [r2, #16]
 308 006a 1A61     		str	r2, [r3, #16]
 309 006c 019B     		ldr	r3, [sp, #4]
 310 006e 1B69     		ldr	r3, [r3, #16]
 311 0070 019A     		ldr	r2, [sp, #4]
 312 0072 5269     		ldr	r2, [r2, #20]
 313 0074 5A61     		str	r2, [r3, #20]
 314              		.loc 4 109 0
 315 0076 FFF7FEFF 		bl	chSysUnlock
 316              		.loc 4 110 0
 317 007a 019B     		ldr	r3, [sp, #4]
 318 007c 1800     		movs	r0, r3
 319 007e FFF7FEFF 		bl	chHeapFree
 320              		.loc 4 111 0
 321 0082 15E0     		b	.L13
 322              	.L18:
 323              		.loc 4 116 0
 324 0084 019B     		ldr	r3, [sp, #4]
 325 0086 5B69     		ldr	r3, [r3, #20]
 326 0088 019A     		ldr	r2, [sp, #4]
 327 008a 1269     		ldr	r2, [r2, #16]
 328 008c 1A61     		str	r2, [r3, #16]
 329 008e 019B     		ldr	r3, [sp, #4]
 330 0090 1B69     		ldr	r3, [r3, #16]
 331 0092 019A     		ldr	r2, [sp, #4]
 332 0094 5269     		ldr	r2, [r2, #20]
 333 0096 5A61     		str	r2, [r3, #20]
 334              		.loc 4 118 0
 335 0098 FFF7FEFF 		bl	chSysUnlock
 336              		.loc 4 119 0
 337 009c 019B     		ldr	r3, [sp, #4]
 338 009e 5B6C     		ldr	r3, [r3, #68]
 339 00a0 019A     		ldr	r2, [sp, #4]
 340 00a2 1100     		movs	r1, r2
 341 00a4 1800     		movs	r0, r3
 342 00a6 FFF7FEFF 		bl	chPoolFree
ARM GAS  /tmp/ccHXpRvH.s 			page 7


 343              		.loc 4 120 0
 344 00aa 01E0     		b	.L13
 345              	.L15:
 346              		.loc 4 128 0
 347 00ac FFF7FEFF 		bl	chSysUnlock
 348              	.L13:
 349              		.loc 4 129 0
 350 00b0 05B0     		add	sp, sp, #20
 351              		@ sp needed
 352 00b2 00BD     		pop	{pc}
 353              	.L21:
 354              		.align	2
 355              	.L20:
 356 00b4 00000000 		.word	__func__.5701
 357              		.cfi_endproc
 358              	.LFE153:
 359              		.size	chThdRelease, .-chThdRelease
 360              		.section	.text.chThdCreateFromHeap,"ax",%progbits
 361              		.align	1
 362              		.p2align 4,,15
 363              		.global	chThdCreateFromHeap
 364              		.syntax unified
 365              		.code	16
 366              		.thumb_func
 367              		.fpu softvfp
 368              		.type	chThdCreateFromHeap, %function
 369              	chThdCreateFromHeap:
 370              	.LFB154:
 371              		.loc 4 155 0
 372              		.cfi_startproc
 373              		@ args = 4, pretend = 0, frame = 24
 374              		@ frame_needed = 0, uses_anonymous_args = 0
 375 0000 10B5     		push	{r4, lr}
 376              		.cfi_def_cfa_offset 8
 377              		.cfi_offset 4, -8
 378              		.cfi_offset 14, -4
 379 0002 88B0     		sub	sp, sp, #32
 380              		.cfi_def_cfa_offset 40
 381 0004 0590     		str	r0, [sp, #20]
 382 0006 0491     		str	r1, [sp, #16]
 383 0008 0392     		str	r2, [sp, #12]
 384 000a 0293     		str	r3, [sp, #8]
 385              		.loc 4 159 0
 386 000c 049A     		ldr	r2, [sp, #16]
 387 000e 059B     		ldr	r3, [sp, #20]
 388 0010 1100     		movs	r1, r2
 389 0012 1800     		movs	r0, r3
 390 0014 FFF7FEFF 		bl	chHeapAlloc
 391 0018 0300     		movs	r3, r0
 392 001a 0793     		str	r3, [sp, #28]
 393              		.loc 4 160 0
 394 001c 079B     		ldr	r3, [sp, #28]
 395 001e 002B     		cmp	r3, #0
 396 0020 01D1     		bne	.L23
 397              		.loc 4 161 0
 398 0022 0023     		movs	r3, #0
 399 0024 2AE0     		b	.L24
ARM GAS  /tmp/ccHXpRvH.s 			page 8


 400              	.L23:
 401              		.loc 4 165 0
 402 0026 079B     		ldr	r3, [sp, #28]
 403 0028 4833     		adds	r3, r3, #72
 404 002a 1900     		movs	r1, r3
 405 002c 079B     		ldr	r3, [sp, #28]
 406 002e FF22     		movs	r2, #255
 407 0030 1800     		movs	r0, r3
 408 0032 FFF7FEFF 		bl	_thread_memfill
 409              		.loc 4 168 0
 410 0036 079B     		ldr	r3, [sp, #28]
 411 0038 4833     		adds	r3, r3, #72
 412 003a 1800     		movs	r0, r3
 413 003c 079A     		ldr	r2, [sp, #28]
 414 003e 049B     		ldr	r3, [sp, #16]
 415 0040 D318     		adds	r3, r2, r3
 416 0042 5522     		movs	r2, #85
 417 0044 1900     		movs	r1, r3
 418 0046 FFF7FEFF 		bl	_thread_memfill
 419              		.loc 4 173 0
 420 004a FFF7FEFF 		bl	chSysLock
 421              		.loc 4 174 0
 422 004e 029C     		ldr	r4, [sp, #8]
 423 0050 039A     		ldr	r2, [sp, #12]
 424 0052 0499     		ldr	r1, [sp, #16]
 425 0054 0798     		ldr	r0, [sp, #28]
 426 0056 0A9B     		ldr	r3, [sp, #40]
 427 0058 0093     		str	r3, [sp]
 428 005a 2300     		movs	r3, r4
 429 005c FFF7FEFF 		bl	chThdCreateI
 430 0060 0300     		movs	r3, r0
 431 0062 0693     		str	r3, [sp, #24]
 432              		.loc 4 175 0
 433 0064 069B     		ldr	r3, [sp, #24]
 434 0066 2122     		movs	r2, #33
 435 0068 0121     		movs	r1, #1
 436 006a 9954     		strb	r1, [r3, r2]
 437              		.loc 4 176 0
 438 006c 069B     		ldr	r3, [sp, #24]
 439 006e 0021     		movs	r1, #0
 440 0070 1800     		movs	r0, r3
 441 0072 FFF7FEFF 		bl	chSchWakeupS
 442              		.loc 4 177 0
 443 0076 FFF7FEFF 		bl	chSysUnlock
 444              		.loc 4 179 0
 445 007a 069B     		ldr	r3, [sp, #24]
 446              	.L24:
 447              		.loc 4 180 0
 448 007c 1800     		movs	r0, r3
 449 007e 08B0     		add	sp, sp, #32
 450              		@ sp needed
 451 0080 10BD     		pop	{r4, pc}
 452              		.cfi_endproc
 453              	.LFE154:
 454              		.size	chThdCreateFromHeap, .-chThdCreateFromHeap
 455 0082 C046     		.section	.text.chThdCreateFromMemoryPool,"ax",%progbits
 456              		.align	1
ARM GAS  /tmp/ccHXpRvH.s 			page 9


 457              		.p2align 4,,15
 458              		.global	chThdCreateFromMemoryPool
 459              		.syntax unified
 460              		.code	16
 461              		.thumb_func
 462              		.fpu softvfp
 463              		.type	chThdCreateFromMemoryPool, %function
 464              	chThdCreateFromMemoryPool:
 465              	.LFB155:
 466              		.loc 4 207 0
 467              		.cfi_startproc
 468              		@ args = 0, pretend = 0, frame = 24
 469              		@ frame_needed = 0, uses_anonymous_args = 0
 470 0000 10B5     		push	{r4, lr}
 471              		.cfi_def_cfa_offset 8
 472              		.cfi_offset 4, -8
 473              		.cfi_offset 14, -4
 474 0002 88B0     		sub	sp, sp, #32
 475              		.cfi_def_cfa_offset 40
 476 0004 0590     		str	r0, [sp, #20]
 477 0006 0491     		str	r1, [sp, #16]
 478 0008 0392     		str	r2, [sp, #12]
 479 000a 0293     		str	r3, [sp, #8]
 480              		.loc 4 211 0
 481 000c 059B     		ldr	r3, [sp, #20]
 482 000e 002B     		cmp	r3, #0
 483 0010 03D1     		bne	.L26
 484              		.loc 4 211 0 is_stmt 0 discriminator 2
 485 0012 214B     		ldr	r3, .L29
 486 0014 1800     		movs	r0, r3
 487 0016 FFF7FEFF 		bl	chSysHalt
 488              	.L26:
 489              		.loc 4 213 0 is_stmt 1
 490 001a 059B     		ldr	r3, [sp, #20]
 491 001c 1800     		movs	r0, r3
 492 001e FFF7FEFF 		bl	chPoolAlloc
 493 0022 0300     		movs	r3, r0
 494 0024 0793     		str	r3, [sp, #28]
 495              		.loc 4 214 0
 496 0026 079B     		ldr	r3, [sp, #28]
 497 0028 002B     		cmp	r3, #0
 498 002a 01D1     		bne	.L27
 499              		.loc 4 215 0
 500 002c 0023     		movs	r3, #0
 501 002e 2FE0     		b	.L28
 502              	.L27:
 503              		.loc 4 219 0
 504 0030 079B     		ldr	r3, [sp, #28]
 505 0032 4833     		adds	r3, r3, #72
 506 0034 1900     		movs	r1, r3
 507 0036 079B     		ldr	r3, [sp, #28]
 508 0038 FF22     		movs	r2, #255
 509 003a 1800     		movs	r0, r3
 510 003c FFF7FEFF 		bl	_thread_memfill
 511              		.loc 4 222 0
 512 0040 079B     		ldr	r3, [sp, #28]
 513 0042 4833     		adds	r3, r3, #72
ARM GAS  /tmp/ccHXpRvH.s 			page 10


 514 0044 1800     		movs	r0, r3
 515              		.loc 4 223 0
 516 0046 059B     		ldr	r3, [sp, #20]
 517 0048 5B68     		ldr	r3, [r3, #4]
 518              		.loc 4 222 0
 519 004a 079A     		ldr	r2, [sp, #28]
 520 004c D318     		adds	r3, r2, r3
 521 004e 5522     		movs	r2, #85
 522 0050 1900     		movs	r1, r3
 523 0052 FFF7FEFF 		bl	_thread_memfill
 524              		.loc 4 227 0
 525 0056 FFF7FEFF 		bl	chSysLock
 526              		.loc 4 228 0
 527 005a 059B     		ldr	r3, [sp, #20]
 528 005c 5968     		ldr	r1, [r3, #4]
 529 005e 039C     		ldr	r4, [sp, #12]
 530 0060 049A     		ldr	r2, [sp, #16]
 531 0062 0798     		ldr	r0, [sp, #28]
 532 0064 029B     		ldr	r3, [sp, #8]
 533 0066 0093     		str	r3, [sp]
 534 0068 2300     		movs	r3, r4
 535 006a FFF7FEFF 		bl	chThdCreateI
 536 006e 0300     		movs	r3, r0
 537 0070 0693     		str	r3, [sp, #24]
 538              		.loc 4 229 0
 539 0072 069B     		ldr	r3, [sp, #24]
 540 0074 2122     		movs	r2, #33
 541 0076 0221     		movs	r1, #2
 542 0078 9954     		strb	r1, [r3, r2]
 543              		.loc 4 230 0
 544 007a 069B     		ldr	r3, [sp, #24]
 545 007c 059A     		ldr	r2, [sp, #20]
 546 007e 5A64     		str	r2, [r3, #68]
 547              		.loc 4 231 0
 548 0080 069B     		ldr	r3, [sp, #24]
 549 0082 0021     		movs	r1, #0
 550 0084 1800     		movs	r0, r3
 551 0086 FFF7FEFF 		bl	chSchWakeupS
 552              		.loc 4 232 0
 553 008a FFF7FEFF 		bl	chSysUnlock
 554              		.loc 4 234 0
 555 008e 069B     		ldr	r3, [sp, #24]
 556              	.L28:
 557              		.loc 4 235 0
 558 0090 1800     		movs	r0, r3
 559 0092 08B0     		add	sp, sp, #32
 560              		@ sp needed
 561 0094 10BD     		pop	{r4, pc}
 562              	.L30:
 563 0096 C046     		.align	2
 564              	.L29:
 565 0098 00000000 		.word	__func__.5723
 566              		.cfi_endproc
 567              	.LFE155:
 568              		.size	chThdCreateFromMemoryPool, .-chThdCreateFromMemoryPool
 569              		.section	.rodata.__func__.5696,"a",%progbits
 570              		.align	2
ARM GAS  /tmp/ccHXpRvH.s 			page 11


 571              		.type	__func__.5696, %object
 572              		.size	__func__.5696, 12
 573              	__func__.5696:
 574 0000 63685468 		.ascii	"chThdAddRef\000"
 574      64416464 
 574      52656600 
 575              		.section	.rodata.__func__.4993,"a",%progbits
 576              		.align	2
 577              		.type	__func__.4993, %object
 578              		.size	__func__.4993, 12
 579              	__func__.4993:
 580 0000 63685379 		.ascii	"chSysUnlock\000"
 580      73556E6C 
 580      6F636B00 
 581              		.section	.rodata.__func__.5701,"a",%progbits
 582              		.align	2
 583              		.type	__func__.5701, %object
 584              		.size	__func__.5701, 13
 585              	__func__.5701:
 586 0000 63685468 		.ascii	"chThdRelease\000"
 586      6452656C 
 586      65617365 
 586      00
 587              		.section	.rodata.__func__.5723,"a",%progbits
 588              		.align	2
 589              		.type	__func__.5723, %object
 590              		.size	__func__.5723, 26
 591              	__func__.5723:
 592 0000 63685468 		.ascii	"chThdCreateFromMemoryPool\000"
 592      64437265 
 592      61746546 
 592      726F6D4D 
 592      656D6F72 
 593              		.text
 594              	.Letext0:
 595              		.file 5 "/home/felix/opt/gcc-arm-none-eabi-6-2017-q1-update/lib/gcc/arm-none-eabi/6.3.1/include/st
 596              		.file 6 "/home/felix/opt/gcc-arm-none-eabi-6-2017-q1-update/arm-none-eabi/include/machine/_default
 597              		.file 7 "/home/felix/opt/gcc-arm-none-eabi-6-2017-q1-update/arm-none-eabi/include/sys/_stdint.h"
 598              		.file 8 "ChibiOS/os/rt/ports/ARMCMx/compilers/GCC/chtypes.h"
 599              		.file 9 "ChibiOS/os/rt/include/chsystypes.h"
 600              		.file 10 "ChibiOS/os/rt/include/chschd.h"
 601              		.file 11 "ChibiOS/os/rt/ports/ARMCMx/chcore.h"
 602              		.file 12 "ChibiOS/os/rt/include/chdebug.h"
 603              		.file 13 "ChibiOS/os/rt/include/chsem.h"
 604              		.file 14 "ChibiOS/os/rt/include/chmtx.h"
 605              		.file 15 "ChibiOS/os/rt/include/chthreads.h"
 606              		.file 16 "ChibiOS/os/rt/include/chregistry.h"
 607              		.file 17 "ChibiOS/os/ext/CMSIS/ST/STM32F0xx/system_stm32f0xx.h"
 608              		.file 18 "ChibiOS/os/rt/include/chmemcore.h"
 609              		.file 19 "ChibiOS/os/rt/include/chheap.h"
 610              		.file 20 "ChibiOS/os/rt/include/chmempools.h"
 611              		.section	.debug_info,"",%progbits
 612              	.Ldebug_info0:
 613 0000 630B0000 		.4byte	0xb63
 614 0004 0400     		.2byte	0x4
 615 0006 00000000 		.4byte	.Ldebug_abbrev0
 616 000a 04       		.byte	0x4
ARM GAS  /tmp/ccHXpRvH.s 			page 12


 617 000b 01       		.uleb128 0x1
 618 000c AA020000 		.4byte	.LASF166
 619 0010 0C       		.byte	0xc
 620 0011 95010000 		.4byte	.LASF167
 621 0015 F1030000 		.4byte	.LASF168
 622 0019 00000000 		.4byte	.Ldebug_ranges0+0
 623 001d 00000000 		.4byte	0
 624 0021 00000000 		.4byte	.Ldebug_line0
 625 0025 02       		.uleb128 0x2
 626 0026 04       		.byte	0x4
 627 0027 05       		.byte	0x5
 628 0028 696E7400 		.ascii	"int\000"
 629 002c 03       		.uleb128 0x3
 630 002d 6B020000 		.4byte	.LASF4
 631 0031 05       		.byte	0x5
 632 0032 D8       		.byte	0xd8
 633 0033 37000000 		.4byte	0x37
 634 0037 04       		.uleb128 0x4
 635 0038 04       		.byte	0x4
 636 0039 07       		.byte	0x7
 637 003a 96000000 		.4byte	.LASF0
 638 003e 04       		.uleb128 0x4
 639 003f 08       		.byte	0x8
 640 0040 05       		.byte	0x5
 641 0041 DC040000 		.4byte	.LASF1
 642 0045 04       		.uleb128 0x4
 643 0046 08       		.byte	0x8
 644 0047 04       		.byte	0x4
 645 0048 9D050000 		.4byte	.LASF2
 646 004c 04       		.uleb128 0x4
 647 004d 01       		.byte	0x1
 648 004e 06       		.byte	0x6
 649 004f 8A070000 		.4byte	.LASF3
 650 0053 03       		.uleb128 0x3
 651 0054 73060000 		.4byte	.LASF5
 652 0058 06       		.byte	0x6
 653 0059 2B       		.byte	0x2b
 654 005a 5E000000 		.4byte	0x5e
 655 005e 04       		.uleb128 0x4
 656 005f 01       		.byte	0x1
 657 0060 08       		.byte	0x8
 658 0061 0F070000 		.4byte	.LASF6
 659 0065 04       		.uleb128 0x4
 660 0066 02       		.byte	0x2
 661 0067 05       		.byte	0x5
 662 0068 E0050000 		.4byte	.LASF7
 663 006c 03       		.uleb128 0x3
 664 006d 0A020000 		.4byte	.LASF8
 665 0071 06       		.byte	0x6
 666 0072 39       		.byte	0x39
 667 0073 77000000 		.4byte	0x77
 668 0077 04       		.uleb128 0x4
 669 0078 02       		.byte	0x2
 670 0079 07       		.byte	0x7
 671 007a A3070000 		.4byte	.LASF9
 672 007e 03       		.uleb128 0x3
 673 007f B7000000 		.4byte	.LASF10
ARM GAS  /tmp/ccHXpRvH.s 			page 13


 674 0083 06       		.byte	0x6
 675 0084 4D       		.byte	0x4d
 676 0085 89000000 		.4byte	0x89
 677 0089 04       		.uleb128 0x4
 678 008a 04       		.byte	0x4
 679 008b 05       		.byte	0x5
 680 008c 13060000 		.4byte	.LASF11
 681 0090 03       		.uleb128 0x3
 682 0091 1D070000 		.4byte	.LASF12
 683 0095 06       		.byte	0x6
 684 0096 4F       		.byte	0x4f
 685 0097 9B000000 		.4byte	0x9b
 686 009b 04       		.uleb128 0x4
 687 009c 04       		.byte	0x4
 688 009d 07       		.byte	0x7
 689 009e B0060000 		.4byte	.LASF13
 690 00a2 03       		.uleb128 0x3
 691 00a3 81030000 		.4byte	.LASF14
 692 00a7 06       		.byte	0x6
 693 00a8 69       		.byte	0x69
 694 00a9 AD000000 		.4byte	0xad
 695 00ad 04       		.uleb128 0x4
 696 00ae 08       		.byte	0x8
 697 00af 07       		.byte	0x7
 698 00b0 E1010000 		.4byte	.LASF15
 699 00b4 03       		.uleb128 0x3
 700 00b5 89040000 		.4byte	.LASF16
 701 00b9 07       		.byte	0x7
 702 00ba 18       		.byte	0x18
 703 00bb 53000000 		.4byte	0x53
 704 00bf 03       		.uleb128 0x3
 705 00c0 A9050000 		.4byte	.LASF17
 706 00c4 07       		.byte	0x7
 707 00c5 24       		.byte	0x24
 708 00c6 6C000000 		.4byte	0x6c
 709 00ca 03       		.uleb128 0x3
 710 00cb DC060000 		.4byte	.LASF18
 711 00cf 07       		.byte	0x7
 712 00d0 2C       		.byte	0x2c
 713 00d1 7E000000 		.4byte	0x7e
 714 00d5 03       		.uleb128 0x3
 715 00d6 66010000 		.4byte	.LASF19
 716 00da 07       		.byte	0x7
 717 00db 30       		.byte	0x30
 718 00dc 90000000 		.4byte	0x90
 719 00e0 03       		.uleb128 0x3
 720 00e1 46060000 		.4byte	.LASF20
 721 00e5 07       		.byte	0x7
 722 00e6 3C       		.byte	0x3c
 723 00e7 A2000000 		.4byte	0xa2
 724 00eb 03       		.uleb128 0x3
 725 00ec 82050000 		.4byte	.LASF21
 726 00f0 08       		.byte	0x8
 727 00f1 3C       		.byte	0x3c
 728 00f2 B4000000 		.4byte	0xb4
 729 00f6 03       		.uleb128 0x3
 730 00f7 5F040000 		.4byte	.LASF22
ARM GAS  /tmp/ccHXpRvH.s 			page 14


 731 00fb 08       		.byte	0x8
 732 00fc 3D       		.byte	0x3d
 733 00fd B4000000 		.4byte	0xb4
 734 0101 03       		.uleb128 0x3
 735 0102 A8060000 		.4byte	.LASF23
 736 0106 08       		.byte	0x8
 737 0107 3E       		.byte	0x3e
 738 0108 B4000000 		.4byte	0xb4
 739 010c 03       		.uleb128 0x3
 740 010d C0010000 		.4byte	.LASF24
 741 0111 08       		.byte	0x8
 742 0112 40       		.byte	0x40
 743 0113 D5000000 		.4byte	0xd5
 744 0117 03       		.uleb128 0x3
 745 0118 FA040000 		.4byte	.LASF25
 746 011c 08       		.byte	0x8
 747 011d 41       		.byte	0x41
 748 011e CA000000 		.4byte	0xca
 749 0122 03       		.uleb128 0x3
 750 0123 7B010000 		.4byte	.LASF26
 751 0127 08       		.byte	0x8
 752 0128 43       		.byte	0x43
 753 0129 D5000000 		.4byte	0xd5
 754 012d 03       		.uleb128 0x3
 755 012e 15020000 		.4byte	.LASF27
 756 0132 08       		.byte	0x8
 757 0133 45       		.byte	0x45
 758 0134 CA000000 		.4byte	0xca
 759 0138 03       		.uleb128 0x3
 760 0139 64000000 		.4byte	.LASF28
 761 013d 09       		.byte	0x9
 762 013e 35       		.byte	0x35
 763 013f BF000000 		.4byte	0xbf
 764 0143 03       		.uleb128 0x3
 765 0144 56020000 		.4byte	.LASF29
 766 0148 09       		.byte	0x9
 767 0149 3F       		.byte	0x3f
 768 014a 4E010000 		.4byte	0x14e
 769 014e 05       		.uleb128 0x5
 770 014f B5040000 		.4byte	.LASF50
 771 0153 48       		.byte	0x48
 772 0154 0A       		.byte	0xa
 773 0155 C2       		.byte	0xc2
 774 0156 47020000 		.4byte	0x247
 775 015a 06       		.uleb128 0x6
 776 015b 3F060000 		.4byte	.LASF30
 777 015f 0A       		.byte	0xa
 778 0160 C3       		.byte	0xc3
 779 0161 52020000 		.4byte	0x252
 780 0165 00       		.byte	0
 781 0166 06       		.uleb128 0x6
 782 0167 98060000 		.4byte	.LASF31
 783 016b 0A       		.byte	0xa
 784 016c C5       		.byte	0xc5
 785 016d 52020000 		.4byte	0x252
 786 0171 04       		.byte	0x4
 787 0172 06       		.uleb128 0x6
ARM GAS  /tmp/ccHXpRvH.s 			page 15


 788 0173 5D000000 		.4byte	.LASF32
 789 0177 0A       		.byte	0xa
 790 0178 C7       		.byte	0xc7
 791 0179 0C010000 		.4byte	0x10c
 792 017d 08       		.byte	0x8
 793 017e 06       		.uleb128 0x6
 794 017f 4F060000 		.4byte	.LASF33
 795 0183 0A       		.byte	0xa
 796 0184 C8       		.byte	0xc8
 797 0185 AB040000 		.4byte	0x4ab
 798 0189 0C       		.byte	0xc
 799 018a 06       		.uleb128 0x6
 800 018b 2F020000 		.4byte	.LASF34
 801 018f 0A       		.byte	0xa
 802 0190 CA       		.byte	0xca
 803 0191 52020000 		.4byte	0x252
 804 0195 10       		.byte	0x10
 805 0196 06       		.uleb128 0x6
 806 0197 6E040000 		.4byte	.LASF35
 807 019b 0A       		.byte	0xa
 808 019c CB       		.byte	0xcb
 809 019d 52020000 		.4byte	0x252
 810 01a1 14       		.byte	0x14
 811 01a2 06       		.uleb128 0x6
 812 01a3 B1030000 		.4byte	.LASF36
 813 01a7 0A       		.byte	0xa
 814 01a8 D2       		.byte	0xd2
 815 01a9 94060000 		.4byte	0x694
 816 01ad 18       		.byte	0x18
 817 01ae 06       		.uleb128 0x6
 818 01af 7E040000 		.4byte	.LASF37
 819 01b3 0A       		.byte	0xa
 820 01b4 D8       		.byte	0xd8
 821 01b5 AB060000 		.4byte	0x6ab
 822 01b9 1C       		.byte	0x1c
 823 01ba 06       		.uleb128 0x6
 824 01bb 76040000 		.4byte	.LASF38
 825 01bf 0A       		.byte	0xa
 826 01c0 DD       		.byte	0xdd
 827 01c1 F6000000 		.4byte	0xf6
 828 01c5 20       		.byte	0x20
 829 01c6 06       		.uleb128 0x6
 830 01c7 08050000 		.4byte	.LASF39
 831 01cb 0A       		.byte	0xa
 832 01cc E1       		.byte	0xe1
 833 01cd EB000000 		.4byte	0xeb
 834 01d1 21       		.byte	0x21
 835 01d2 06       		.uleb128 0x6
 836 01d3 3E070000 		.4byte	.LASF40
 837 01d7 0A       		.byte	0xa
 838 01d8 E6       		.byte	0xe6
 839 01d9 01010000 		.4byte	0x101
 840 01dd 22       		.byte	0x22
 841 01de 07       		.uleb128 0x7
 842 01df 705F7500 		.ascii	"p_u\000"
 843 01e3 0A       		.byte	0xa
 844 01e4 3101     		.2byte	0x131
ARM GAS  /tmp/ccHXpRvH.s 			page 16


 845 01e6 CF050000 		.4byte	0x5cf
 846 01ea 24       		.byte	0x24
 847 01eb 08       		.uleb128 0x8
 848 01ec 20000000 		.4byte	.LASF41
 849 01f0 0A       		.byte	0xa
 850 01f1 3601     		.2byte	0x136
 851 01f3 58020000 		.4byte	0x258
 852 01f7 28       		.byte	0x28
 853 01f8 08       		.uleb128 0x8
 854 01f9 8B000000 		.4byte	.LASF42
 855 01fd 0A       		.byte	0xa
 856 01fe 3C01     		.2byte	0x13c
 857 0200 7C020000 		.4byte	0x27c
 858 0204 2C       		.byte	0x2c
 859 0205 08       		.uleb128 0x8
 860 0206 7C050000 		.4byte	.LASF43
 861 020a 0A       		.byte	0xa
 862 020b 4001     		.2byte	0x140
 863 020d 17010000 		.4byte	0x117
 864 0211 34       		.byte	0x34
 865 0212 08       		.uleb128 0x8
 866 0213 00060000 		.4byte	.LASF44
 867 0217 0A       		.byte	0xa
 868 0218 4601     		.2byte	0x146
 869 021a 22010000 		.4byte	0x122
 870 021e 38       		.byte	0x38
 871 021f 08       		.uleb128 0x8
 872 0220 AB040000 		.4byte	.LASF45
 873 0224 0A       		.byte	0xa
 874 0225 4D01     		.2byte	0x14d
 875 0227 8E060000 		.4byte	0x68e
 876 022b 3C       		.byte	0x3c
 877 022c 08       		.uleb128 0x8
 878 022d C5050000 		.4byte	.LASF46
 879 0231 0A       		.byte	0xa
 880 0232 5101     		.2byte	0x151
 881 0234 0C010000 		.4byte	0x10c
 882 0238 40       		.byte	0x40
 883 0239 08       		.uleb128 0x8
 884 023a A3040000 		.4byte	.LASF47
 885 023e 0A       		.byte	0xa
 886 023f 5801     		.2byte	0x158
 887 0241 2F030000 		.4byte	0x32f
 888 0245 44       		.byte	0x44
 889 0246 00       		.byte	0
 890 0247 03       		.uleb128 0x3
 891 0248 26040000 		.4byte	.LASF48
 892 024c 09       		.byte	0x9
 893 024d 44       		.byte	0x44
 894 024e 52020000 		.4byte	0x252
 895 0252 09       		.uleb128 0x9
 896 0253 04       		.byte	0x4
 897 0254 43010000 		.4byte	0x143
 898 0258 03       		.uleb128 0x3
 899 0259 A8000000 		.4byte	.LASF49
 900 025d 09       		.byte	0x9
 901 025e 49       		.byte	0x49
ARM GAS  /tmp/ccHXpRvH.s 			page 17


 902 025f 63020000 		.4byte	0x263
 903 0263 05       		.uleb128 0x5
 904 0264 00000000 		.4byte	.LASF51
 905 0268 04       		.byte	0x4
 906 0269 0A       		.byte	0xa
 907 026a B0       		.byte	0xb0
 908 026b 7C020000 		.4byte	0x27c
 909 026f 06       		.uleb128 0x6
 910 0270 3F060000 		.4byte	.LASF30
 911 0274 0A       		.byte	0xa
 912 0275 B1       		.byte	0xb1
 913 0276 52020000 		.4byte	0x252
 914 027a 00       		.byte	0
 915 027b 00       		.byte	0
 916 027c 03       		.uleb128 0x3
 917 027d 10000000 		.4byte	.LASF52
 918 0281 09       		.byte	0x9
 919 0282 50       		.byte	0x50
 920 0283 87020000 		.4byte	0x287
 921 0287 05       		.uleb128 0x5
 922 0288 24010000 		.4byte	.LASF53
 923 028c 08       		.byte	0x8
 924 028d 0A       		.byte	0xa
 925 028e B7       		.byte	0xb7
 926 028f AC020000 		.4byte	0x2ac
 927 0293 06       		.uleb128 0x6
 928 0294 3F060000 		.4byte	.LASF30
 929 0298 0A       		.byte	0xa
 930 0299 B8       		.byte	0xb8
 931 029a 52020000 		.4byte	0x252
 932 029e 00       		.byte	0
 933 029f 06       		.uleb128 0x6
 934 02a0 98060000 		.4byte	.LASF31
 935 02a4 0A       		.byte	0xa
 936 02a5 B9       		.byte	0xb9
 937 02a6 52020000 		.4byte	0x252
 938 02aa 04       		.byte	0x4
 939 02ab 00       		.byte	0
 940 02ac 03       		.uleb128 0x3
 941 02ad CF060000 		.4byte	.LASF54
 942 02b1 09       		.byte	0x9
 943 02b2 57       		.byte	0x57
 944 02b3 B7020000 		.4byte	0x2b7
 945 02b7 0A       		.uleb128 0xa
 946 02b8 F3000000 		.4byte	.LASF55
 947 02bc 1C       		.byte	0x1c
 948 02bd 0A       		.byte	0xa
 949 02be 9001     		.2byte	0x190
 950 02c0 13030000 		.4byte	0x313
 951 02c4 08       		.uleb128 0x8
 952 02c5 EA040000 		.4byte	.LASF56
 953 02c9 0A       		.byte	0xa
 954 02ca 9101     		.2byte	0x191
 955 02cc 7C020000 		.4byte	0x27c
 956 02d0 00       		.byte	0
 957 02d1 08       		.uleb128 0x8
 958 02d2 87010000 		.4byte	.LASF57
ARM GAS  /tmp/ccHXpRvH.s 			page 18


 959 02d6 0A       		.byte	0xa
 960 02d7 9201     		.2byte	0x192
 961 02d9 0C010000 		.4byte	0x10c
 962 02dd 08       		.byte	0x8
 963 02de 08       		.uleb128 0x8
 964 02df B6070000 		.4byte	.LASF58
 965 02e3 0A       		.byte	0xa
 966 02e4 9401     		.2byte	0x194
 967 02e6 AB040000 		.4byte	0x4ab
 968 02ea 0C       		.byte	0xc
 969 02eb 08       		.uleb128 0x8
 970 02ec F2040000 		.4byte	.LASF59
 971 02f0 0A       		.byte	0xa
 972 02f1 9701     		.2byte	0x197
 973 02f3 52020000 		.4byte	0x252
 974 02f7 10       		.byte	0x10
 975 02f8 08       		.uleb128 0x8
 976 02f9 40050000 		.4byte	.LASF60
 977 02fd 0A       		.byte	0xa
 978 02fe 9801     		.2byte	0x198
 979 0300 52020000 		.4byte	0x252
 980 0304 14       		.byte	0x14
 981 0305 08       		.uleb128 0x8
 982 0306 F6050000 		.4byte	.LASF61
 983 030a 0A       		.byte	0xa
 984 030b 9B01     		.2byte	0x19b
 985 030d 52020000 		.4byte	0x252
 986 0311 18       		.byte	0x18
 987 0312 00       		.byte	0
 988 0313 03       		.uleb128 0x3
 989 0314 40010000 		.4byte	.LASF62
 990 0318 09       		.byte	0x9
 991 0319 5C       		.byte	0x5c
 992 031a 1E030000 		.4byte	0x31e
 993 031e 09       		.uleb128 0x9
 994 031f 04       		.byte	0x4
 995 0320 24030000 		.4byte	0x324
 996 0324 0B       		.uleb128 0xb
 997 0325 2F030000 		.4byte	0x32f
 998 0329 0C       		.uleb128 0xc
 999 032a 2F030000 		.4byte	0x32f
 1000 032e 00       		.byte	0
 1001 032f 0D       		.uleb128 0xd
 1002 0330 04       		.byte	0x4
 1003 0331 03       		.uleb128 0x3
 1004 0332 10050000 		.4byte	.LASF63
 1005 0336 09       		.byte	0x9
 1006 0337 61       		.byte	0x61
 1007 0338 3C030000 		.4byte	0x33c
 1008 033c 0A       		.uleb128 0xa
 1009 033d C8010000 		.4byte	.LASF64
 1010 0341 14       		.byte	0x14
 1011 0342 0A       		.byte	0xa
 1012 0343 6B01     		.2byte	0x16b
 1013 0345 8B030000 		.4byte	0x38b
 1014 0349 08       		.uleb128 0x8
 1015 034a 51070000 		.4byte	.LASF65
ARM GAS  /tmp/ccHXpRvH.s 			page 19


 1016 034e 0A       		.byte	0xa
 1017 034f 6C01     		.2byte	0x16c
 1018 0351 B1060000 		.4byte	0x6b1
 1019 0355 00       		.byte	0
 1020 0356 08       		.uleb128 0x8
 1021 0357 ED070000 		.4byte	.LASF66
 1022 035b 0A       		.byte	0xa
 1023 035c 6D01     		.2byte	0x16d
 1024 035e B1060000 		.4byte	0x6b1
 1025 0362 04       		.byte	0x4
 1026 0363 08       		.uleb128 0x8
 1027 0364 E8030000 		.4byte	.LASF67
 1028 0368 0A       		.byte	0xa
 1029 0369 6E01     		.2byte	0x16e
 1030 036b 38010000 		.4byte	0x138
 1031 036f 08       		.byte	0x8
 1032 0370 08       		.uleb128 0x8
 1033 0371 D9070000 		.4byte	.LASF68
 1034 0375 0A       		.byte	0xa
 1035 0376 6F01     		.2byte	0x16f
 1036 0378 13030000 		.4byte	0x313
 1037 037c 0C       		.byte	0xc
 1038 037d 08       		.uleb128 0x8
 1039 037e 8E010000 		.4byte	.LASF69
 1040 0382 0A       		.byte	0xa
 1041 0383 7101     		.2byte	0x171
 1042 0385 2F030000 		.4byte	0x32f
 1043 0389 10       		.byte	0x10
 1044 038a 00       		.byte	0
 1045 038b 03       		.uleb128 0x3
 1046 038c 28070000 		.4byte	.LASF70
 1047 0390 09       		.byte	0x9
 1048 0391 66       		.byte	0x66
 1049 0392 96030000 		.4byte	0x396
 1050 0396 0A       		.uleb128 0xa
 1051 0397 37020000 		.4byte	.LASF71
 1052 039b 0C       		.byte	0xc
 1053 039c 0A       		.byte	0xa
 1054 039d 7B01     		.2byte	0x17b
 1055 039f D8030000 		.4byte	0x3d8
 1056 03a3 08       		.uleb128 0x8
 1057 03a4 51070000 		.4byte	.LASF65
 1058 03a8 0A       		.byte	0xa
 1059 03a9 7C01     		.2byte	0x17c
 1060 03ab B1060000 		.4byte	0x6b1
 1061 03af 00       		.byte	0
 1062 03b0 08       		.uleb128 0x8
 1063 03b1 ED070000 		.4byte	.LASF66
 1064 03b5 0A       		.byte	0xa
 1065 03b6 7E01     		.2byte	0x17e
 1066 03b8 B1060000 		.4byte	0x6b1
 1067 03bc 04       		.byte	0x4
 1068 03bd 08       		.uleb128 0x8
 1069 03be E8030000 		.4byte	.LASF67
 1070 03c2 0A       		.byte	0xa
 1071 03c3 8001     		.2byte	0x180
 1072 03c5 38010000 		.4byte	0x138
ARM GAS  /tmp/ccHXpRvH.s 			page 20


 1073 03c9 08       		.byte	0x8
 1074 03ca 08       		.uleb128 0x8
 1075 03cb 39040000 		.4byte	.LASF72
 1076 03cf 0A       		.byte	0xa
 1077 03d0 8801     		.2byte	0x188
 1078 03d2 38010000 		.4byte	0x138
 1079 03d6 0A       		.byte	0xa
 1080 03d7 00       		.byte	0
 1081 03d8 03       		.uleb128 0x3
 1082 03d9 CD040000 		.4byte	.LASF73
 1083 03dd 09       		.byte	0x9
 1084 03de 6B       		.byte	0x6b
 1085 03df E3030000 		.4byte	0x3e3
 1086 03e3 0E       		.uleb128 0xe
 1087 03e4 4F010000 		.4byte	.LASF74
 1088 03e8 1404     		.2byte	0x414
 1089 03ea 0A       		.byte	0xa
 1090 03eb A201     		.2byte	0x1a2
 1091 03ed 26040000 		.4byte	0x426
 1092 03f1 08       		.uleb128 0x8
 1093 03f2 72050000 		.4byte	.LASF75
 1094 03f6 0A       		.byte	0xa
 1095 03f7 AA01     		.2byte	0x1aa
 1096 03f9 9A060000 		.4byte	0x69a
 1097 03fd 00       		.byte	0
 1098 03fe 08       		.uleb128 0x8
 1099 03ff 27020000 		.4byte	.LASF76
 1100 0403 0A       		.byte	0xa
 1101 0404 AF01     		.2byte	0x1af
 1102 0406 2D010000 		.4byte	0x12d
 1103 040a 04       		.byte	0x4
 1104 040b 08       		.uleb128 0x8
 1105 040c BC050000 		.4byte	.LASF77
 1106 0410 0A       		.byte	0xa
 1107 0411 B301     		.2byte	0x1b3
 1108 0413 2D010000 		.4byte	0x12d
 1109 0417 08       		.byte	0x8
 1110 0418 08       		.uleb128 0x8
 1111 0419 E4060000 		.4byte	.LASF78
 1112 041d 0A       		.byte	0xa
 1113 041e B901     		.2byte	0x1b9
 1114 0420 C4050000 		.4byte	0x5c4
 1115 0424 0C       		.byte	0xc
 1116 0425 00       		.byte	0
 1117 0426 03       		.uleb128 0x3
 1118 0427 59070000 		.4byte	.LASF79
 1119 042b 09       		.byte	0x9
 1120 042c 70       		.byte	0x70
 1121 042d 31040000 		.4byte	0x431
 1122 0431 0E       		.uleb128 0xe
 1123 0432 35060000 		.4byte	.LASF80
 1124 0436 6805     		.2byte	0x568
 1125 0438 0A       		.byte	0xa
 1126 0439 C201     		.2byte	0x1c2
 1127 043b 83040000 		.4byte	0x483
 1128 043f 08       		.uleb128 0x8
 1129 0440 55060000 		.4byte	.LASF81
ARM GAS  /tmp/ccHXpRvH.s 			page 21


 1130 0444 0A       		.byte	0xa
 1131 0445 C601     		.2byte	0x1c6
 1132 0447 AC020000 		.4byte	0x2ac
 1133 044b 00       		.byte	0
 1134 044c 08       		.uleb128 0x8
 1135 044d EC000000 		.4byte	.LASF82
 1136 0451 0A       		.byte	0xa
 1137 0452 CA01     		.2byte	0x1ca
 1138 0454 8B030000 		.4byte	0x38b
 1139 0458 1C       		.byte	0x1c
 1140 0459 07       		.uleb128 0x7
 1141 045a 64626700 		.ascii	"dbg\000"
 1142 045e 0A       		.byte	0xa
 1143 045f CE01     		.2byte	0x1ce
 1144 0461 D8030000 		.4byte	0x3d8
 1145 0465 28       		.byte	0x28
 1146 0466 0F       		.uleb128 0xf
 1147 0467 92050000 		.4byte	.LASF83
 1148 046b 0A       		.byte	0xa
 1149 046c D201     		.2byte	0x1d2
 1150 046e 43010000 		.4byte	0x143
 1151 0472 3C04     		.2byte	0x43c
 1152 0474 0F       		.uleb128 0xf
 1153 0475 01010000 		.4byte	.LASF84
 1154 0479 0A       		.byte	0xa
 1155 047a E301     		.2byte	0x1e3
 1156 047c B7060000 		.4byte	0x6b7
 1157 0480 8804     		.2byte	0x488
 1158 0482 00       		.byte	0
 1159 0483 04       		.uleb128 0x4
 1160 0484 04       		.byte	0x4
 1161 0485 07       		.byte	0x7
 1162 0486 9F060000 		.4byte	.LASF85
 1163 048a 10       		.uleb128 0x10
 1164 048b 2A000000 		.4byte	.LASF114
 1165 048f 11       		.byte	0x11
 1166 0490 4C       		.byte	0x4c
 1167 0491 D5000000 		.4byte	0xd5
 1168 0495 03       		.uleb128 0x3
 1169 0496 54000000 		.4byte	.LASF86
 1170 049a 0B       		.byte	0xb
 1171 049b 65       		.byte	0x65
 1172 049c 2F030000 		.4byte	0x32f
 1173 04a0 03       		.uleb128 0x3
 1174 04a1 BC070000 		.4byte	.LASF87
 1175 04a5 0B       		.byte	0xb
 1176 04a6 6D       		.byte	0x6d
 1177 04a7 E0000000 		.4byte	0xe0
 1178 04ab 05       		.uleb128 0x5
 1179 04ac 00050000 		.4byte	.LASF88
 1180 04b0 04       		.byte	0x4
 1181 04b1 0B       		.byte	0xb
 1182 04b2 89       		.byte	0x89
 1183 04b3 C4040000 		.4byte	0x4c4
 1184 04b7 11       		.uleb128 0x11
 1185 04b8 72313300 		.ascii	"r13\000"
 1186 04bc 0B       		.byte	0xb
ARM GAS  /tmp/ccHXpRvH.s 			page 22


 1187 04bd 8A       		.byte	0x8a
 1188 04be 36050000 		.4byte	0x536
 1189 04c2 00       		.byte	0
 1190 04c3 00       		.byte	0
 1191 04c4 05       		.uleb128 0x5
 1192 04c5 1C060000 		.4byte	.LASF89
 1193 04c9 24       		.byte	0x24
 1194 04ca 01       		.byte	0x1
 1195 04cb A4       		.byte	0xa4
 1196 04cc 36050000 		.4byte	0x536
 1197 04d0 11       		.uleb128 0x11
 1198 04d1 723800   		.ascii	"r8\000"
 1199 04d4 01       		.byte	0x1
 1200 04d5 A5       		.byte	0xa5
 1201 04d6 95040000 		.4byte	0x495
 1202 04da 00       		.byte	0
 1203 04db 11       		.uleb128 0x11
 1204 04dc 723900   		.ascii	"r9\000"
 1205 04df 01       		.byte	0x1
 1206 04e0 A6       		.byte	0xa6
 1207 04e1 95040000 		.4byte	0x495
 1208 04e5 04       		.byte	0x4
 1209 04e6 11       		.uleb128 0x11
 1210 04e7 72313000 		.ascii	"r10\000"
 1211 04eb 01       		.byte	0x1
 1212 04ec A7       		.byte	0xa7
 1213 04ed 95040000 		.4byte	0x495
 1214 04f1 08       		.byte	0x8
 1215 04f2 11       		.uleb128 0x11
 1216 04f3 72313100 		.ascii	"r11\000"
 1217 04f7 01       		.byte	0x1
 1218 04f8 A8       		.byte	0xa8
 1219 04f9 95040000 		.4byte	0x495
 1220 04fd 0C       		.byte	0xc
 1221 04fe 11       		.uleb128 0x11
 1222 04ff 723400   		.ascii	"r4\000"
 1223 0502 01       		.byte	0x1
 1224 0503 A9       		.byte	0xa9
 1225 0504 95040000 		.4byte	0x495
 1226 0508 10       		.byte	0x10
 1227 0509 11       		.uleb128 0x11
 1228 050a 723500   		.ascii	"r5\000"
 1229 050d 01       		.byte	0x1
 1230 050e AA       		.byte	0xaa
 1231 050f 95040000 		.4byte	0x495
 1232 0513 14       		.byte	0x14
 1233 0514 11       		.uleb128 0x11
 1234 0515 723600   		.ascii	"r6\000"
 1235 0518 01       		.byte	0x1
 1236 0519 AB       		.byte	0xab
 1237 051a 95040000 		.4byte	0x495
 1238 051e 18       		.byte	0x18
 1239 051f 11       		.uleb128 0x11
 1240 0520 723700   		.ascii	"r7\000"
 1241 0523 01       		.byte	0x1
 1242 0524 AC       		.byte	0xac
 1243 0525 95040000 		.4byte	0x495
ARM GAS  /tmp/ccHXpRvH.s 			page 23


 1244 0529 1C       		.byte	0x1c
 1245 052a 11       		.uleb128 0x11
 1246 052b 6C7200   		.ascii	"lr\000"
 1247 052e 01       		.byte	0x1
 1248 052f AD       		.byte	0xad
 1249 0530 95040000 		.4byte	0x495
 1250 0534 20       		.byte	0x20
 1251 0535 00       		.byte	0
 1252 0536 09       		.uleb128 0x9
 1253 0537 04       		.byte	0x4
 1254 0538 C4040000 		.4byte	0x4c4
 1255 053c 12       		.uleb128 0x12
 1256 053d 10       		.byte	0x10
 1257 053e 0C       		.byte	0xc
 1258 053f 51       		.byte	0x51
 1259 0540 75050000 		.4byte	0x575
 1260 0544 06       		.uleb128 0x6
 1261 0545 4E020000 		.4byte	.LASF90
 1262 0549 0C       		.byte	0xc
 1263 054a 55       		.byte	0x55
 1264 054b 38010000 		.4byte	0x138
 1265 054f 00       		.byte	0
 1266 0550 06       		.uleb128 0x6
 1267 0551 68040000 		.4byte	.LASF91
 1268 0555 0C       		.byte	0xc
 1269 0556 59       		.byte	0x59
 1270 0557 52020000 		.4byte	0x252
 1271 055b 04       		.byte	0x4
 1272 055c 06       		.uleb128 0x6
 1273 055d F8010000 		.4byte	.LASF92
 1274 0561 0C       		.byte	0xc
 1275 0562 5D       		.byte	0x5d
 1276 0563 2F030000 		.4byte	0x32f
 1277 0567 08       		.byte	0x8
 1278 0568 06       		.uleb128 0x6
 1279 0569 C1000000 		.4byte	.LASF93
 1280 056d 0C       		.byte	0xc
 1281 056e 61       		.byte	0x61
 1282 056f B4000000 		.4byte	0xb4
 1283 0573 0C       		.byte	0xc
 1284 0574 00       		.byte	0
 1285 0575 03       		.uleb128 0x3
 1286 0576 F8060000 		.4byte	.LASF94
 1287 057a 0C       		.byte	0xc
 1288 057b 62       		.byte	0x62
 1289 057c 3C050000 		.4byte	0x53c
 1290 0580 13       		.uleb128 0x13
 1291 0581 0804     		.2byte	0x408
 1292 0583 0C       		.byte	0xc
 1293 0584 67       		.byte	0x67
 1294 0585 AE050000 		.4byte	0x5ae
 1295 0589 06       		.uleb128 0x6
 1296 058a C5040000 		.4byte	.LASF95
 1297 058e 0C       		.byte	0xc
 1298 058f 6B       		.byte	0x6b
 1299 0590 37000000 		.4byte	0x37
 1300 0594 00       		.byte	0
ARM GAS  /tmp/ccHXpRvH.s 			page 24


 1301 0595 06       		.uleb128 0x6
 1302 0596 39050000 		.4byte	.LASF96
 1303 059a 0C       		.byte	0xc
 1304 059b 6F       		.byte	0x6f
 1305 059c AE050000 		.4byte	0x5ae
 1306 05a0 04       		.byte	0x4
 1307 05a1 06       		.uleb128 0x6
 1308 05a2 91040000 		.4byte	.LASF97
 1309 05a6 0C       		.byte	0xc
 1310 05a7 73       		.byte	0x73
 1311 05a8 B4050000 		.4byte	0x5b4
 1312 05ac 08       		.byte	0x8
 1313 05ad 00       		.byte	0
 1314 05ae 09       		.uleb128 0x9
 1315 05af 04       		.byte	0x4
 1316 05b0 75050000 		.4byte	0x575
 1317 05b4 14       		.uleb128 0x14
 1318 05b5 75050000 		.4byte	0x575
 1319 05b9 C4050000 		.4byte	0x5c4
 1320 05bd 15       		.uleb128 0x15
 1321 05be 83040000 		.4byte	0x483
 1322 05c2 3F       		.byte	0x3f
 1323 05c3 00       		.byte	0
 1324 05c4 03       		.uleb128 0x3
 1325 05c5 6B070000 		.4byte	.LASF98
 1326 05c9 0C       		.byte	0xc
 1327 05ca 74       		.byte	0x74
 1328 05cb 80050000 		.4byte	0x580
 1329 05cf 16       		.uleb128 0x16
 1330 05d0 04       		.byte	0x4
 1331 05d1 0A       		.byte	0xa
 1332 05d2 FA       		.byte	0xfa
 1333 05d3 2C060000 		.4byte	0x62c
 1334 05d7 17       		.uleb128 0x17
 1335 05d8 72020000 		.4byte	.LASF99
 1336 05dc 0A       		.byte	0xa
 1337 05dd 0101     		.2byte	0x101
 1338 05df 17010000 		.4byte	0x117
 1339 05e3 17       		.uleb128 0x17
 1340 05e4 FB070000 		.4byte	.LASF100
 1341 05e8 0A       		.byte	0xa
 1342 05e9 0801     		.2byte	0x108
 1343 05eb 17010000 		.4byte	0x117
 1344 05ef 17       		.uleb128 0x17
 1345 05f0 DB000000 		.4byte	.LASF101
 1346 05f4 0A       		.byte	0xa
 1347 05f5 0F01     		.2byte	0x10f
 1348 05f7 2F030000 		.4byte	0x32f
 1349 05fb 17       		.uleb128 0x17
 1350 05fc 65070000 		.4byte	.LASF102
 1351 0600 0A       		.byte	0xa
 1352 0601 1601     		.2byte	0x116
 1353 0603 2C060000 		.4byte	0x62c
 1354 0607 17       		.uleb128 0x17
 1355 0608 F1060000 		.4byte	.LASF103
 1356 060c 0A       		.byte	0xa
 1357 060d 1E01     		.2byte	0x11e
ARM GAS  /tmp/ccHXpRvH.s 			page 25


 1358 060f 57060000 		.4byte	0x657
 1359 0613 17       		.uleb128 0x17
 1360 0614 3A000000 		.4byte	.LASF104
 1361 0618 0A       		.byte	0xa
 1362 0619 2701     		.2byte	0x127
 1363 061b 8E060000 		.4byte	0x68e
 1364 061f 17       		.uleb128 0x17
 1365 0620 10010000 		.4byte	.LASF105
 1366 0624 0A       		.byte	0xa
 1367 0625 2F01     		.2byte	0x12f
 1368 0627 22010000 		.4byte	0x122
 1369 062b 00       		.byte	0
 1370 062c 09       		.uleb128 0x9
 1371 062d 04       		.byte	0x4
 1372 062e 47020000 		.4byte	0x247
 1373 0632 05       		.uleb128 0x5
 1374 0633 B3010000 		.4byte	.LASF106
 1375 0637 0C       		.byte	0xc
 1376 0638 0D       		.byte	0xd
 1377 0639 34       		.byte	0x34
 1378 063a 57060000 		.4byte	0x657
 1379 063e 06       		.uleb128 0x6
 1380 063f 83000000 		.4byte	.LASF107
 1381 0643 0D       		.byte	0xd
 1382 0644 35       		.byte	0x35
 1383 0645 7C020000 		.4byte	0x27c
 1384 0649 00       		.byte	0
 1385 064a 06       		.uleb128 0x6
 1386 064b 49010000 		.4byte	.LASF108
 1387 064f 0D       		.byte	0xd
 1388 0650 37       		.byte	0x37
 1389 0651 2D010000 		.4byte	0x12d
 1390 0655 08       		.byte	0x8
 1391 0656 00       		.byte	0
 1392 0657 09       		.uleb128 0x9
 1393 0658 04       		.byte	0x4
 1394 0659 32060000 		.4byte	0x632
 1395 065d 05       		.uleb128 0x5
 1396 065e 78030000 		.4byte	.LASF109
 1397 0662 10       		.byte	0x10
 1398 0663 0E       		.byte	0xe
 1399 0664 39       		.byte	0x39
 1400 0665 8E060000 		.4byte	0x68e
 1401 0669 06       		.uleb128 0x6
 1402 066a 0B060000 		.4byte	.LASF110
 1403 066e 0E       		.byte	0xe
 1404 066f 3A       		.byte	0x3a
 1405 0670 7C020000 		.4byte	0x27c
 1406 0674 00       		.byte	0
 1407 0675 06       		.uleb128 0x6
 1408 0676 7B000000 		.4byte	.LASF111
 1409 067a 0E       		.byte	0xe
 1410 067b 3C       		.byte	0x3c
 1411 067c 52020000 		.4byte	0x252
 1412 0680 08       		.byte	0x8
 1413 0681 06       		.uleb128 0x6
 1414 0682 7D070000 		.4byte	.LASF112
ARM GAS  /tmp/ccHXpRvH.s 			page 26


 1415 0686 0E       		.byte	0xe
 1416 0687 3E       		.byte	0x3e
 1417 0688 F4070000 		.4byte	0x7f4
 1418 068c 0C       		.byte	0xc
 1419 068d 00       		.byte	0
 1420 068e 09       		.uleb128 0x9
 1421 068f 04       		.byte	0x4
 1422 0690 5D060000 		.4byte	0x65d
 1423 0694 09       		.uleb128 0x9
 1424 0695 04       		.byte	0x4
 1425 0696 A6060000 		.4byte	0x6a6
 1426 069a 18       		.uleb128 0x18
 1427 069b 94060000 		.4byte	0x694
 1428 069f 04       		.uleb128 0x4
 1429 06a0 01       		.byte	0x1
 1430 06a1 08       		.byte	0x8
 1431 06a2 4F000000 		.4byte	.LASF113
 1432 06a6 19       		.uleb128 0x19
 1433 06a7 9F060000 		.4byte	0x69f
 1434 06ab 09       		.uleb128 0x9
 1435 06ac 04       		.byte	0x4
 1436 06ad A0040000 		.4byte	0x4a0
 1437 06b1 09       		.uleb128 0x9
 1438 06b2 04       		.byte	0x4
 1439 06b3 31030000 		.4byte	0x331
 1440 06b7 14       		.uleb128 0x14
 1441 06b8 A0040000 		.4byte	0x4a0
 1442 06bc C7060000 		.4byte	0x6c7
 1443 06c0 15       		.uleb128 0x15
 1444 06c1 83040000 		.4byte	0x483
 1445 06c5 1B       		.byte	0x1b
 1446 06c6 00       		.byte	0
 1447 06c7 1A       		.uleb128 0x1a
 1448 06c8 636800   		.ascii	"ch\000"
 1449 06cb 0A       		.byte	0xa
 1450 06cc 0902     		.2byte	0x209
 1451 06ce 26040000 		.4byte	0x426
 1452 06d2 03       		.uleb128 0x3
 1453 06d3 D9010000 		.4byte	.LASF115
 1454 06d7 0F       		.byte	0xf
 1455 06d8 34       		.byte	0x34
 1456 06d9 1E030000 		.4byte	0x31e
 1457 06dd 12       		.uleb128 0x12
 1458 06de 16       		.byte	0x16
 1459 06df 10       		.byte	0x10
 1460 06e0 34       		.byte	0x34
 1461 06e1 BE070000 		.4byte	0x7be
 1462 06e5 06       		.uleb128 0x6
 1463 06e6 8A060000 		.4byte	.LASF116
 1464 06ea 10       		.byte	0x10
 1465 06eb 35       		.byte	0x35
 1466 06ec BE070000 		.4byte	0x7be
 1467 06f0 00       		.byte	0
 1468 06f1 06       		.uleb128 0x6
 1469 06f2 2C050000 		.4byte	.LASF117
 1470 06f6 10       		.byte	0x10
 1471 06f7 36       		.byte	0x36
ARM GAS  /tmp/ccHXpRvH.s 			page 27


 1472 06f8 B4000000 		.4byte	0xb4
 1473 06fc 04       		.byte	0x4
 1474 06fd 06       		.uleb128 0x6
 1475 06fe 8A050000 		.4byte	.LASF118
 1476 0702 10       		.byte	0x10
 1477 0703 37       		.byte	0x37
 1478 0704 B4000000 		.4byte	0xb4
 1479 0708 05       		.byte	0x5
 1480 0709 06       		.uleb128 0x6
 1481 070a D5050000 		.4byte	.LASF119
 1482 070e 10       		.byte	0x10
 1483 070f 38       		.byte	0x38
 1484 0710 BF000000 		.4byte	0xbf
 1485 0714 06       		.byte	0x6
 1486 0715 06       		.uleb128 0x6
 1487 0716 35010000 		.4byte	.LASF120
 1488 071a 10       		.byte	0x10
 1489 071b 39       		.byte	0x39
 1490 071c B4000000 		.4byte	0xb4
 1491 0720 08       		.byte	0x8
 1492 0721 06       		.uleb128 0x6
 1493 0722 6F010000 		.4byte	.LASF121
 1494 0726 10       		.byte	0x10
 1495 0727 3A       		.byte	0x3a
 1496 0728 B4000000 		.4byte	0xb4
 1497 072c 09       		.byte	0x9
 1498 072d 06       		.uleb128 0x6
 1499 072e 79020000 		.4byte	.LASF122
 1500 0732 10       		.byte	0x10
 1501 0733 3B       		.byte	0x3b
 1502 0734 B4000000 		.4byte	0xb4
 1503 0738 0A       		.byte	0xa
 1504 0739 06       		.uleb128 0x6
 1505 073a 67060000 		.4byte	.LASF123
 1506 073e 10       		.byte	0x10
 1507 073f 3C       		.byte	0x3c
 1508 0740 B4000000 		.4byte	0xb4
 1509 0744 0B       		.byte	0xb
 1510 0745 06       		.uleb128 0x6
 1511 0746 96030000 		.4byte	.LASF124
 1512 074a 10       		.byte	0x10
 1513 074b 3D       		.byte	0x3d
 1514 074c B4000000 		.4byte	0xb4
 1515 0750 0C       		.byte	0xc
 1516 0751 06       		.uleb128 0x6
 1517 0752 96070000 		.4byte	.LASF125
 1518 0756 10       		.byte	0x10
 1519 0757 3E       		.byte	0x3e
 1520 0758 B4000000 		.4byte	0xb4
 1521 075c 0D       		.byte	0xd
 1522 075d 06       		.uleb128 0x6
 1523 075e 6E000000 		.4byte	.LASF126
 1524 0762 10       		.byte	0x10
 1525 0763 3F       		.byte	0x3f
 1526 0764 B4000000 		.4byte	0xb4
 1527 0768 0E       		.byte	0xe
 1528 0769 06       		.uleb128 0x6
ARM GAS  /tmp/ccHXpRvH.s 			page 28


 1529 076a CA000000 		.4byte	.LASF127
 1530 076e 10       		.byte	0x10
 1531 076f 40       		.byte	0x40
 1532 0770 B4000000 		.4byte	0xb4
 1533 0774 0F       		.byte	0xf
 1534 0775 06       		.uleb128 0x6
 1535 0776 A1030000 		.4byte	.LASF128
 1536 077a 10       		.byte	0x10
 1537 077b 41       		.byte	0x41
 1538 077c B4000000 		.4byte	0xb4
 1539 0780 10       		.byte	0x10
 1540 0781 06       		.uleb128 0x6
 1541 0782 C2060000 		.4byte	.LASF129
 1542 0786 10       		.byte	0x10
 1543 0787 43       		.byte	0x43
 1544 0788 B4000000 		.4byte	0xb4
 1545 078c 11       		.byte	0x11
 1546 078d 06       		.uleb128 0x6
 1547 078e 17010000 		.4byte	.LASF130
 1548 0792 10       		.byte	0x10
 1549 0793 44       		.byte	0x44
 1550 0794 B4000000 		.4byte	0xb4
 1551 0798 12       		.byte	0x12
 1552 0799 06       		.uleb128 0x6
 1553 079a 20050000 		.4byte	.LASF131
 1554 079e 10       		.byte	0x10
 1555 079f 45       		.byte	0x45
 1556 07a0 B4000000 		.4byte	0xb4
 1557 07a4 13       		.byte	0x13
 1558 07a5 06       		.uleb128 0x6
 1559 07a6 95020000 		.4byte	.LASF132
 1560 07aa 10       		.byte	0x10
 1561 07ab 46       		.byte	0x46
 1562 07ac B4000000 		.4byte	0xb4
 1563 07b0 14       		.byte	0x14
 1564 07b1 06       		.uleb128 0x6
 1565 07b2 5B060000 		.4byte	.LASF133
 1566 07b6 10       		.byte	0x10
 1567 07b7 48       		.byte	0x48
 1568 07b8 B4000000 		.4byte	0xb4
 1569 07bc 15       		.byte	0x15
 1570 07bd 00       		.byte	0
 1571 07be 14       		.uleb128 0x14
 1572 07bf 9F060000 		.4byte	0x69f
 1573 07c3 CE070000 		.4byte	0x7ce
 1574 07c7 15       		.uleb128 0x15
 1575 07c8 83040000 		.4byte	0x483
 1576 07cc 03       		.byte	0x3
 1577 07cd 00       		.byte	0
 1578 07ce 03       		.uleb128 0x3
 1579 07cf B2050000 		.4byte	.LASF134
 1580 07d3 10       		.byte	0x10
 1581 07d4 49       		.byte	0x49
 1582 07d5 DD060000 		.4byte	0x6dd
 1583 07d9 19       		.uleb128 0x19
 1584 07da CE070000 		.4byte	0x7ce
 1585 07de 10       		.uleb128 0x10
ARM GAS  /tmp/ccHXpRvH.s 			page 29


 1586 07df D0070000 		.4byte	.LASF135
 1587 07e3 10       		.byte	0x10
 1588 07e4 6E       		.byte	0x6e
 1589 07e5 D9070000 		.4byte	0x7d9
 1590 07e9 03       		.uleb128 0x3
 1591 07ea 07070000 		.4byte	.LASF136
 1592 07ee 0E       		.byte	0xe
 1593 07ef 34       		.byte	0x34
 1594 07f0 5D060000 		.4byte	0x65d
 1595 07f4 09       		.uleb128 0x9
 1596 07f5 04       		.byte	0x4
 1597 07f6 E9070000 		.4byte	0x7e9
 1598 07fa 04       		.uleb128 0x4
 1599 07fb 01       		.byte	0x1
 1600 07fc 02       		.byte	0x2
 1601 07fd A4020000 		.4byte	.LASF137
 1602 0801 03       		.uleb128 0x3
 1603 0802 7D060000 		.4byte	.LASF138
 1604 0806 12       		.byte	0x12
 1605 0807 34       		.byte	0x34
 1606 0808 0C080000 		.4byte	0x80c
 1607 080c 09       		.uleb128 0x9
 1608 080d 04       		.byte	0x4
 1609 080e 12080000 		.4byte	0x812
 1610 0812 1B       		.uleb128 0x1b
 1611 0813 2F030000 		.4byte	0x32f
 1612 0817 21080000 		.4byte	0x821
 1613 081b 0C       		.uleb128 0xc
 1614 081c 2C000000 		.4byte	0x2c
 1615 0820 00       		.byte	0
 1616 0821 03       		.uleb128 0x3
 1617 0822 48050000 		.4byte	.LASF139
 1618 0826 13       		.byte	0x13
 1619 0827 3C       		.byte	0x3c
 1620 0828 2C080000 		.4byte	0x82c
 1621 082c 05       		.uleb128 0x5
 1622 082d EA050000 		.4byte	.LASF140
 1623 0831 20       		.byte	0x20
 1624 0832 13       		.byte	0x13
 1625 0833 4F       		.byte	0x4f
 1626 0834 5D080000 		.4byte	0x85d
 1627 0838 06       		.uleb128 0x6
 1628 0839 BD030000 		.4byte	.LASF141
 1629 083d 13       		.byte	0x13
 1630 083e 50       		.byte	0x50
 1631 083f 01080000 		.4byte	0x801
 1632 0843 00       		.byte	0
 1633 0844 06       		.uleb128 0x6
 1634 0845 5F010000 		.4byte	.LASF142
 1635 0849 13       		.byte	0x13
 1636 084a 52       		.byte	0x52
 1637 084b 7C080000 		.4byte	0x87c
 1638 084f 08       		.byte	0x8
 1639 0850 06       		.uleb128 0x6
 1640 0851 BF040000 		.4byte	.LASF143
 1641 0855 13       		.byte	0x13
 1642 0856 54       		.byte	0x54
ARM GAS  /tmp/ccHXpRvH.s 			page 30


 1643 0857 E9070000 		.4byte	0x7e9
 1644 085b 10       		.byte	0x10
 1645 085c 00       		.byte	0
 1646 085d 16       		.uleb128 0x16
 1647 085e 04       		.byte	0x4
 1648 085f 13       		.byte	0x13
 1649 0860 44       		.byte	0x44
 1650 0861 7C080000 		.4byte	0x87c
 1651 0865 1C       		.uleb128 0x1c
 1652 0866 A3000000 		.4byte	.LASF144
 1653 086a 13       		.byte	0x13
 1654 086b 45       		.byte	0x45
 1655 086c 9D080000 		.4byte	0x89d
 1656 0870 1C       		.uleb128 0x1c
 1657 0871 D6000000 		.4byte	.LASF145
 1658 0875 13       		.byte	0x13
 1659 0876 46       		.byte	0x46
 1660 0877 A3080000 		.4byte	0x8a3
 1661 087b 00       		.byte	0
 1662 087c 1D       		.uleb128 0x1d
 1663 087d 5F020000 		.4byte	.LASF169
 1664 0881 08       		.byte	0x8
 1665 0882 13       		.byte	0x13
 1666 0883 41       		.byte	0x41
 1667 0884 9D080000 		.4byte	0x89d
 1668 0888 1C       		.uleb128 0x1c
 1669 0889 F5070000 		.4byte	.LASF146
 1670 088d 13       		.byte	0x13
 1671 088e 42       		.byte	0x42
 1672 088f A0040000 		.4byte	0x4a0
 1673 0893 1E       		.uleb128 0x1e
 1674 0894 6800     		.ascii	"h\000"
 1675 0896 13       		.byte	0x13
 1676 0897 49       		.byte	0x49
 1677 0898 A9080000 		.4byte	0x8a9
 1678 089c 00       		.byte	0
 1679 089d 09       		.uleb128 0x9
 1680 089e 04       		.byte	0x4
 1681 089f 7C080000 		.4byte	0x87c
 1682 08a3 09       		.uleb128 0x9
 1683 08a4 04       		.byte	0x4
 1684 08a5 21080000 		.4byte	0x821
 1685 08a9 12       		.uleb128 0x12
 1686 08aa 08       		.byte	0x8
 1687 08ab 13       		.byte	0x13
 1688 08ac 43       		.byte	0x43
 1689 08ad C8080000 		.4byte	0x8c8
 1690 08b1 11       		.uleb128 0x11
 1691 08b2 7500     		.ascii	"u\000"
 1692 08b4 13       		.byte	0x13
 1693 08b5 47       		.byte	0x47
 1694 08b6 5D080000 		.4byte	0x85d
 1695 08ba 00       		.byte	0
 1696 08bb 06       		.uleb128 0x6
 1697 08bc 34050000 		.4byte	.LASF147
 1698 08c0 13       		.byte	0x13
 1699 08c1 48       		.byte	0x48
ARM GAS  /tmp/ccHXpRvH.s 			page 31


 1700 08c2 2C000000 		.4byte	0x2c
 1701 08c6 04       		.byte	0x4
 1702 08c7 00       		.byte	0
 1703 08c8 05       		.uleb128 0x5
 1704 08c9 45070000 		.4byte	.LASF148
 1705 08cd 04       		.byte	0x4
 1706 08ce 14       		.byte	0x14
 1707 08cf 38       		.byte	0x38
 1708 08d0 E1080000 		.4byte	0x8e1
 1709 08d4 06       		.uleb128 0x6
 1710 08d5 02020000 		.4byte	.LASF149
 1711 08d9 14       		.byte	0x14
 1712 08da 39       		.byte	0x39
 1713 08db E1080000 		.4byte	0x8e1
 1714 08df 00       		.byte	0
 1715 08e0 00       		.byte	0
 1716 08e1 09       		.uleb128 0x9
 1717 08e2 04       		.byte	0x4
 1718 08e3 C8080000 		.4byte	0x8c8
 1719 08e7 12       		.uleb128 0x12
 1720 08e8 0C       		.byte	0xc
 1721 08e9 14       		.byte	0x14
 1722 08ea 40       		.byte	0x40
 1723 08eb 14090000 		.4byte	0x914
 1724 08ef 06       		.uleb128 0x6
 1725 08f0 9B040000 		.4byte	.LASF150
 1726 08f4 14       		.byte	0x14
 1727 08f5 41       		.byte	0x41
 1728 08f6 E1080000 		.4byte	0x8e1
 1729 08fa 00       		.byte	0
 1730 08fb 06       		.uleb128 0x6
 1731 08fc 63050000 		.4byte	.LASF151
 1732 0900 14       		.byte	0x14
 1733 0901 42       		.byte	0x42
 1734 0902 2C000000 		.4byte	0x2c
 1735 0906 04       		.byte	0x4
 1736 0907 06       		.uleb128 0x6
 1737 0908 04080000 		.4byte	.LASF152
 1738 090c 14       		.byte	0x14
 1739 090d 44       		.byte	0x44
 1740 090e 01080000 		.4byte	0x801
 1741 0912 08       		.byte	0x8
 1742 0913 00       		.byte	0
 1743 0914 03       		.uleb128 0x3
 1744 0915 41000000 		.4byte	.LASF153
 1745 0919 14       		.byte	0x14
 1746 091a 46       		.byte	0x46
 1747 091b E7080000 		.4byte	0x8e7
 1748 091f 1F       		.uleb128 0x1f
 1749 0920 45040000 		.4byte	.LASF155
 1750 0924 04       		.byte	0x4
 1751 0925 CE       		.byte	0xce
 1752 0926 52020000 		.4byte	0x252
 1753 092a 00000000 		.4byte	.LFB155
 1754 092e 9C000000 		.4byte	.LFE155-.LFB155
 1755 0932 01       		.uleb128 0x1
 1756 0933 9C       		.byte	0x9c
ARM GAS  /tmp/ccHXpRvH.s 			page 32


 1757 0934 99090000 		.4byte	0x999
 1758 0938 20       		.uleb128 0x20
 1759 0939 6D7000   		.ascii	"mp\000"
 1760 093c 04       		.byte	0x4
 1761 093d CE       		.byte	0xce
 1762 093e 99090000 		.4byte	0x999
 1763 0942 02       		.uleb128 0x2
 1764 0943 91       		.byte	0x91
 1765 0944 6C       		.sleb128 -20
 1766 0945 21       		.uleb128 0x21
 1767 0946 B8030000 		.4byte	.LASF154
 1768 094a 04       		.byte	0x4
 1769 094b CE       		.byte	0xce
 1770 094c 0C010000 		.4byte	0x10c
 1771 0950 02       		.uleb128 0x2
 1772 0951 91       		.byte	0x91
 1773 0952 68       		.sleb128 -24
 1774 0953 20       		.uleb128 0x20
 1775 0954 706600   		.ascii	"pf\000"
 1776 0957 04       		.byte	0x4
 1777 0958 CF       		.byte	0xcf
 1778 0959 D2060000 		.4byte	0x6d2
 1779 095d 02       		.uleb128 0x2
 1780 095e 91       		.byte	0x91
 1781 095f 64       		.sleb128 -28
 1782 0960 20       		.uleb128 0x20
 1783 0961 61726700 		.ascii	"arg\000"
 1784 0965 04       		.byte	0x4
 1785 0966 CF       		.byte	0xcf
 1786 0967 2F030000 		.4byte	0x32f
 1787 096b 02       		.uleb128 0x2
 1788 096c 91       		.byte	0x91
 1789 096d 60       		.sleb128 -32
 1790 096e 22       		.uleb128 0x22
 1791 096f 77737000 		.ascii	"wsp\000"
 1792 0973 04       		.byte	0x4
 1793 0974 D0       		.byte	0xd0
 1794 0975 2F030000 		.4byte	0x32f
 1795 0979 02       		.uleb128 0x2
 1796 097a 91       		.byte	0x91
 1797 097b 74       		.sleb128 -12
 1798 097c 22       		.uleb128 0x22
 1799 097d 747000   		.ascii	"tp\000"
 1800 0980 04       		.byte	0x4
 1801 0981 D1       		.byte	0xd1
 1802 0982 52020000 		.4byte	0x252
 1803 0986 02       		.uleb128 0x2
 1804 0987 91       		.byte	0x91
 1805 0988 70       		.sleb128 -16
 1806 0989 23       		.uleb128 0x23
 1807 098a C7070000 		.4byte	.LASF159
 1808 098e AF090000 		.4byte	0x9af
 1809 0992 05       		.uleb128 0x5
 1810 0993 03       		.byte	0x3
 1811 0994 00000000 		.4byte	__func__.5723
 1812 0998 00       		.byte	0
 1813 0999 09       		.uleb128 0x9
ARM GAS  /tmp/ccHXpRvH.s 			page 33


 1814 099a 04       		.byte	0x4
 1815 099b 14090000 		.4byte	0x914
 1816 099f 14       		.uleb128 0x14
 1817 09a0 A6060000 		.4byte	0x6a6
 1818 09a4 AF090000 		.4byte	0x9af
 1819 09a8 15       		.uleb128 0x15
 1820 09a9 83040000 		.4byte	0x483
 1821 09ad 19       		.byte	0x19
 1822 09ae 00       		.byte	0
 1823 09af 19       		.uleb128 0x19
 1824 09b0 9F090000 		.4byte	0x99f
 1825 09b4 1F       		.uleb128 0x1f
 1826 09b5 D4030000 		.4byte	.LASF156
 1827 09b9 04       		.byte	0x4
 1828 09ba 9A       		.byte	0x9a
 1829 09bb 52020000 		.4byte	0x252
 1830 09bf 00000000 		.4byte	.LFB154
 1831 09c3 82000000 		.4byte	.LFE154-.LFB154
 1832 09c7 01       		.uleb128 0x1
 1833 09c8 9C       		.byte	0x9c
 1834 09c9 2E0A0000 		.4byte	0xa2e
 1835 09cd 21       		.uleb128 0x21
 1836 09ce 84070000 		.4byte	.LASF157
 1837 09d2 04       		.byte	0x4
 1838 09d3 9A       		.byte	0x9a
 1839 09d4 A3080000 		.4byte	0x8a3
 1840 09d8 02       		.uleb128 0x2
 1841 09d9 91       		.byte	0x91
 1842 09da 6C       		.sleb128 -20
 1843 09db 21       		.uleb128 0x21
 1844 09dc 34050000 		.4byte	.LASF147
 1845 09e0 04       		.byte	0x4
 1846 09e1 9A       		.byte	0x9a
 1847 09e2 2C000000 		.4byte	0x2c
 1848 09e6 02       		.uleb128 0x2
 1849 09e7 91       		.byte	0x91
 1850 09e8 68       		.sleb128 -24
 1851 09e9 21       		.uleb128 0x21
 1852 09ea B8030000 		.4byte	.LASF154
 1853 09ee 04       		.byte	0x4
 1854 09ef 9B       		.byte	0x9b
 1855 09f0 0C010000 		.4byte	0x10c
 1856 09f4 02       		.uleb128 0x2
 1857 09f5 91       		.byte	0x91
 1858 09f6 64       		.sleb128 -28
 1859 09f7 20       		.uleb128 0x20
 1860 09f8 706600   		.ascii	"pf\000"
 1861 09fb 04       		.byte	0x4
 1862 09fc 9B       		.byte	0x9b
 1863 09fd D2060000 		.4byte	0x6d2
 1864 0a01 02       		.uleb128 0x2
 1865 0a02 91       		.byte	0x91
 1866 0a03 60       		.sleb128 -32
 1867 0a04 20       		.uleb128 0x20
 1868 0a05 61726700 		.ascii	"arg\000"
 1869 0a09 04       		.byte	0x4
 1870 0a0a 9B       		.byte	0x9b
ARM GAS  /tmp/ccHXpRvH.s 			page 34


 1871 0a0b 2F030000 		.4byte	0x32f
 1872 0a0f 02       		.uleb128 0x2
 1873 0a10 91       		.byte	0x91
 1874 0a11 00       		.sleb128 0
 1875 0a12 22       		.uleb128 0x22
 1876 0a13 77737000 		.ascii	"wsp\000"
 1877 0a17 04       		.byte	0x4
 1878 0a18 9C       		.byte	0x9c
 1879 0a19 2F030000 		.4byte	0x32f
 1880 0a1d 02       		.uleb128 0x2
 1881 0a1e 91       		.byte	0x91
 1882 0a1f 74       		.sleb128 -12
 1883 0a20 22       		.uleb128 0x22
 1884 0a21 747000   		.ascii	"tp\000"
 1885 0a24 04       		.byte	0x4
 1886 0a25 9D       		.byte	0x9d
 1887 0a26 52020000 		.4byte	0x252
 1888 0a2a 02       		.uleb128 0x2
 1889 0a2b 91       		.byte	0x91
 1890 0a2c 70       		.sleb128 -16
 1891 0a2d 00       		.byte	0
 1892 0a2e 24       		.uleb128 0x24
 1893 0a2f 56050000 		.4byte	.LASF170
 1894 0a33 04       		.byte	0x4
 1895 0a34 5B       		.byte	0x5b
 1896 0a35 00000000 		.4byte	.LFB153
 1897 0a39 B8000000 		.4byte	.LFE153-.LFB153
 1898 0a3d 01       		.uleb128 0x1
 1899 0a3e 9C       		.byte	0x9c
 1900 0a3f 6E0A0000 		.4byte	0xa6e
 1901 0a43 20       		.uleb128 0x20
 1902 0a44 747000   		.ascii	"tp\000"
 1903 0a47 04       		.byte	0x4
 1904 0a48 5B       		.byte	0x5b
 1905 0a49 52020000 		.4byte	0x252
 1906 0a4d 02       		.uleb128 0x2
 1907 0a4e 91       		.byte	0x91
 1908 0a4f 6C       		.sleb128 -20
 1909 0a50 25       		.uleb128 0x25
 1910 0a51 D0050000 		.4byte	.LASF158
 1911 0a55 04       		.byte	0x4
 1912 0a56 5C       		.byte	0x5c
 1913 0a57 01010000 		.4byte	0x101
 1914 0a5b 02       		.uleb128 0x2
 1915 0a5c 91       		.byte	0x91
 1916 0a5d 77       		.sleb128 -9
 1917 0a5e 23       		.uleb128 0x23
 1918 0a5f C7070000 		.4byte	.LASF159
 1919 0a63 7E0A0000 		.4byte	0xa7e
 1920 0a67 05       		.uleb128 0x5
 1921 0a68 03       		.byte	0x3
 1922 0a69 00000000 		.4byte	__func__.5701
 1923 0a6d 00       		.byte	0
 1924 0a6e 14       		.uleb128 0x14
 1925 0a6f A6060000 		.4byte	0x6a6
 1926 0a73 7E0A0000 		.4byte	0xa7e
 1927 0a77 15       		.uleb128 0x15
ARM GAS  /tmp/ccHXpRvH.s 			page 35


 1928 0a78 83040000 		.4byte	0x483
 1929 0a7c 0C       		.byte	0xc
 1930 0a7d 00       		.byte	0
 1931 0a7e 19       		.uleb128 0x19
 1932 0a7f 6E0A0000 		.4byte	0xa6e
 1933 0a83 1F       		.uleb128 0x1f
 1934 0a84 C8030000 		.4byte	.LASF160
 1935 0a88 04       		.byte	0x4
 1936 0a89 44       		.byte	0x44
 1937 0a8a 52020000 		.4byte	0x252
 1938 0a8e 00000000 		.4byte	.LFB152
 1939 0a92 3C000000 		.4byte	.LFE152-.LFB152
 1940 0a96 01       		.uleb128 0x1
 1941 0a97 9C       		.byte	0x9c
 1942 0a98 B90A0000 		.4byte	0xab9
 1943 0a9c 20       		.uleb128 0x20
 1944 0a9d 747000   		.ascii	"tp\000"
 1945 0aa0 04       		.byte	0x4
 1946 0aa1 44       		.byte	0x44
 1947 0aa2 52020000 		.4byte	0x252
 1948 0aa6 02       		.uleb128 0x2
 1949 0aa7 91       		.byte	0x91
 1950 0aa8 74       		.sleb128 -12
 1951 0aa9 23       		.uleb128 0x23
 1952 0aaa C7070000 		.4byte	.LASF159
 1953 0aae C90A0000 		.4byte	0xac9
 1954 0ab2 05       		.uleb128 0x5
 1955 0ab3 03       		.byte	0x3
 1956 0ab4 00000000 		.4byte	__func__.5696
 1957 0ab8 00       		.byte	0
 1958 0ab9 14       		.uleb128 0x14
 1959 0aba A6060000 		.4byte	0x6a6
 1960 0abe C90A0000 		.4byte	0xac9
 1961 0ac2 15       		.uleb128 0x15
 1962 0ac3 83040000 		.4byte	0x483
 1963 0ac7 0B       		.byte	0xb
 1964 0ac8 00       		.byte	0
 1965 0ac9 19       		.uleb128 0x19
 1966 0aca B90A0000 		.4byte	0xab9
 1967 0ace 26       		.uleb128 0x26
 1968 0acf 1B020000 		.4byte	.LASF161
 1969 0ad3 03       		.byte	0x3
 1970 0ad4 6601     		.2byte	0x166
 1971 0ad6 00000000 		.4byte	.LFB78
 1972 0ada 38000000 		.4byte	.LFE78-.LFB78
 1973 0ade 01       		.uleb128 0x1
 1974 0adf 9C       		.byte	0x9c
 1975 0ae0 F40A0000 		.4byte	0xaf4
 1976 0ae4 23       		.uleb128 0x23
 1977 0ae5 C7070000 		.4byte	.LASF159
 1978 0ae9 C90A0000 		.4byte	0xac9
 1979 0aed 05       		.uleb128 0x5
 1980 0aee 03       		.byte	0x3
 1981 0aef 00000000 		.4byte	__func__.4993
 1982 0af3 00       		.byte	0
 1983 0af4 27       		.uleb128 0x27
 1984 0af5 8C030000 		.4byte	.LASF171
ARM GAS  /tmp/ccHXpRvH.s 			page 36


 1985 0af9 03       		.byte	0x3
 1986 0afa 5A01     		.2byte	0x15a
 1987 0afc 00000000 		.4byte	.LFB77
 1988 0b00 0E000000 		.4byte	.LFE77-.LFB77
 1989 0b04 01       		.uleb128 0x1
 1990 0b05 9C       		.byte	0x9c
 1991 0b06 28       		.uleb128 0x28
 1992 0b07 E1070000 		.4byte	.LASF162
 1993 0b0b 01       		.byte	0x1
 1994 0b0c 5301     		.2byte	0x153
 1995 0b0e 00000000 		.4byte	.LFB39
 1996 0b12 06000000 		.4byte	.LFE39-.LFB39
 1997 0b16 01       		.uleb128 0x1
 1998 0b17 9C       		.byte	0x9c
 1999 0b18 2D0B0000 		.4byte	0xb2d
 2000 0b1c 29       		.uleb128 0x29
 2001 0b1d 5D0B0000 		.4byte	0xb5d
 2002 0b21 00000000 		.4byte	.LBB8
 2003 0b25 02000000 		.4byte	.LBE8-.LBB8
 2004 0b29 01       		.byte	0x1
 2005 0b2a 5501     		.2byte	0x155
 2006 0b2c 00       		.byte	0
 2007 0b2d 28       		.uleb128 0x28
 2008 0b2e E2000000 		.4byte	.LASF163
 2009 0b32 01       		.byte	0x1
 2010 0b33 4A01     		.2byte	0x14a
 2011 0b35 00000000 		.4byte	.LFB38
 2012 0b39 06000000 		.4byte	.LFE38-.LFB38
 2013 0b3d 01       		.uleb128 0x1
 2014 0b3e 9C       		.byte	0x9c
 2015 0b3f 540B0000 		.4byte	0xb54
 2016 0b43 29       		.uleb128 0x29
 2017 0b44 540B0000 		.4byte	0xb54
 2018 0b48 00000000 		.4byte	.LBB6
 2019 0b4c 02000000 		.4byte	.LBE6-.LBB6
 2020 0b50 01       		.byte	0x1
 2021 0b51 4C01     		.2byte	0x14c
 2022 0b53 00       		.byte	0
 2023 0b54 2A       		.uleb128 0x2a
 2024 0b55 87020000 		.4byte	.LASF164
 2025 0b59 02       		.byte	0x2
 2026 0b5a 5601     		.2byte	0x156
 2027 0b5c 03       		.byte	0x3
 2028 0b5d 2A       		.uleb128 0x2a
 2029 0b5e 28060000 		.4byte	.LASF165
 2030 0b62 02       		.byte	0x2
 2031 0b63 4B01     		.2byte	0x14b
 2032 0b65 03       		.byte	0x3
 2033 0b66 00       		.byte	0
 2034              		.section	.debug_abbrev,"",%progbits
 2035              	.Ldebug_abbrev0:
 2036 0000 01       		.uleb128 0x1
 2037 0001 11       		.uleb128 0x11
 2038 0002 01       		.byte	0x1
 2039 0003 25       		.uleb128 0x25
 2040 0004 0E       		.uleb128 0xe
 2041 0005 13       		.uleb128 0x13
ARM GAS  /tmp/ccHXpRvH.s 			page 37


 2042 0006 0B       		.uleb128 0xb
 2043 0007 03       		.uleb128 0x3
 2044 0008 0E       		.uleb128 0xe
 2045 0009 1B       		.uleb128 0x1b
 2046 000a 0E       		.uleb128 0xe
 2047 000b 55       		.uleb128 0x55
 2048 000c 17       		.uleb128 0x17
 2049 000d 11       		.uleb128 0x11
 2050 000e 01       		.uleb128 0x1
 2051 000f 10       		.uleb128 0x10
 2052 0010 17       		.uleb128 0x17
 2053 0011 00       		.byte	0
 2054 0012 00       		.byte	0
 2055 0013 02       		.uleb128 0x2
 2056 0014 24       		.uleb128 0x24
 2057 0015 00       		.byte	0
 2058 0016 0B       		.uleb128 0xb
 2059 0017 0B       		.uleb128 0xb
 2060 0018 3E       		.uleb128 0x3e
 2061 0019 0B       		.uleb128 0xb
 2062 001a 03       		.uleb128 0x3
 2063 001b 08       		.uleb128 0x8
 2064 001c 00       		.byte	0
 2065 001d 00       		.byte	0
 2066 001e 03       		.uleb128 0x3
 2067 001f 16       		.uleb128 0x16
 2068 0020 00       		.byte	0
 2069 0021 03       		.uleb128 0x3
 2070 0022 0E       		.uleb128 0xe
 2071 0023 3A       		.uleb128 0x3a
 2072 0024 0B       		.uleb128 0xb
 2073 0025 3B       		.uleb128 0x3b
 2074 0026 0B       		.uleb128 0xb
 2075 0027 49       		.uleb128 0x49
 2076 0028 13       		.uleb128 0x13
 2077 0029 00       		.byte	0
 2078 002a 00       		.byte	0
 2079 002b 04       		.uleb128 0x4
 2080 002c 24       		.uleb128 0x24
 2081 002d 00       		.byte	0
 2082 002e 0B       		.uleb128 0xb
 2083 002f 0B       		.uleb128 0xb
 2084 0030 3E       		.uleb128 0x3e
 2085 0031 0B       		.uleb128 0xb
 2086 0032 03       		.uleb128 0x3
 2087 0033 0E       		.uleb128 0xe
 2088 0034 00       		.byte	0
 2089 0035 00       		.byte	0
 2090 0036 05       		.uleb128 0x5
 2091 0037 13       		.uleb128 0x13
 2092 0038 01       		.byte	0x1
 2093 0039 03       		.uleb128 0x3
 2094 003a 0E       		.uleb128 0xe
 2095 003b 0B       		.uleb128 0xb
 2096 003c 0B       		.uleb128 0xb
 2097 003d 3A       		.uleb128 0x3a
 2098 003e 0B       		.uleb128 0xb
ARM GAS  /tmp/ccHXpRvH.s 			page 38


 2099 003f 3B       		.uleb128 0x3b
 2100 0040 0B       		.uleb128 0xb
 2101 0041 01       		.uleb128 0x1
 2102 0042 13       		.uleb128 0x13
 2103 0043 00       		.byte	0
 2104 0044 00       		.byte	0
 2105 0045 06       		.uleb128 0x6
 2106 0046 0D       		.uleb128 0xd
 2107 0047 00       		.byte	0
 2108 0048 03       		.uleb128 0x3
 2109 0049 0E       		.uleb128 0xe
 2110 004a 3A       		.uleb128 0x3a
 2111 004b 0B       		.uleb128 0xb
 2112 004c 3B       		.uleb128 0x3b
 2113 004d 0B       		.uleb128 0xb
 2114 004e 49       		.uleb128 0x49
 2115 004f 13       		.uleb128 0x13
 2116 0050 38       		.uleb128 0x38
 2117 0051 0B       		.uleb128 0xb
 2118 0052 00       		.byte	0
 2119 0053 00       		.byte	0
 2120 0054 07       		.uleb128 0x7
 2121 0055 0D       		.uleb128 0xd
 2122 0056 00       		.byte	0
 2123 0057 03       		.uleb128 0x3
 2124 0058 08       		.uleb128 0x8
 2125 0059 3A       		.uleb128 0x3a
 2126 005a 0B       		.uleb128 0xb
 2127 005b 3B       		.uleb128 0x3b
 2128 005c 05       		.uleb128 0x5
 2129 005d 49       		.uleb128 0x49
 2130 005e 13       		.uleb128 0x13
 2131 005f 38       		.uleb128 0x38
 2132 0060 0B       		.uleb128 0xb
 2133 0061 00       		.byte	0
 2134 0062 00       		.byte	0
 2135 0063 08       		.uleb128 0x8
 2136 0064 0D       		.uleb128 0xd
 2137 0065 00       		.byte	0
 2138 0066 03       		.uleb128 0x3
 2139 0067 0E       		.uleb128 0xe
 2140 0068 3A       		.uleb128 0x3a
 2141 0069 0B       		.uleb128 0xb
 2142 006a 3B       		.uleb128 0x3b
 2143 006b 05       		.uleb128 0x5
 2144 006c 49       		.uleb128 0x49
 2145 006d 13       		.uleb128 0x13
 2146 006e 38       		.uleb128 0x38
 2147 006f 0B       		.uleb128 0xb
 2148 0070 00       		.byte	0
 2149 0071 00       		.byte	0
 2150 0072 09       		.uleb128 0x9
 2151 0073 0F       		.uleb128 0xf
 2152 0074 00       		.byte	0
 2153 0075 0B       		.uleb128 0xb
 2154 0076 0B       		.uleb128 0xb
 2155 0077 49       		.uleb128 0x49
ARM GAS  /tmp/ccHXpRvH.s 			page 39


 2156 0078 13       		.uleb128 0x13
 2157 0079 00       		.byte	0
 2158 007a 00       		.byte	0
 2159 007b 0A       		.uleb128 0xa
 2160 007c 13       		.uleb128 0x13
 2161 007d 01       		.byte	0x1
 2162 007e 03       		.uleb128 0x3
 2163 007f 0E       		.uleb128 0xe
 2164 0080 0B       		.uleb128 0xb
 2165 0081 0B       		.uleb128 0xb
 2166 0082 3A       		.uleb128 0x3a
 2167 0083 0B       		.uleb128 0xb
 2168 0084 3B       		.uleb128 0x3b
 2169 0085 05       		.uleb128 0x5
 2170 0086 01       		.uleb128 0x1
 2171 0087 13       		.uleb128 0x13
 2172 0088 00       		.byte	0
 2173 0089 00       		.byte	0
 2174 008a 0B       		.uleb128 0xb
 2175 008b 15       		.uleb128 0x15
 2176 008c 01       		.byte	0x1
 2177 008d 27       		.uleb128 0x27
 2178 008e 19       		.uleb128 0x19
 2179 008f 01       		.uleb128 0x1
 2180 0090 13       		.uleb128 0x13
 2181 0091 00       		.byte	0
 2182 0092 00       		.byte	0
 2183 0093 0C       		.uleb128 0xc
 2184 0094 05       		.uleb128 0x5
 2185 0095 00       		.byte	0
 2186 0096 49       		.uleb128 0x49
 2187 0097 13       		.uleb128 0x13
 2188 0098 00       		.byte	0
 2189 0099 00       		.byte	0
 2190 009a 0D       		.uleb128 0xd
 2191 009b 0F       		.uleb128 0xf
 2192 009c 00       		.byte	0
 2193 009d 0B       		.uleb128 0xb
 2194 009e 0B       		.uleb128 0xb
 2195 009f 00       		.byte	0
 2196 00a0 00       		.byte	0
 2197 00a1 0E       		.uleb128 0xe
 2198 00a2 13       		.uleb128 0x13
 2199 00a3 01       		.byte	0x1
 2200 00a4 03       		.uleb128 0x3
 2201 00a5 0E       		.uleb128 0xe
 2202 00a6 0B       		.uleb128 0xb
 2203 00a7 05       		.uleb128 0x5
 2204 00a8 3A       		.uleb128 0x3a
 2205 00a9 0B       		.uleb128 0xb
 2206 00aa 3B       		.uleb128 0x3b
 2207 00ab 05       		.uleb128 0x5
 2208 00ac 01       		.uleb128 0x1
 2209 00ad 13       		.uleb128 0x13
 2210 00ae 00       		.byte	0
 2211 00af 00       		.byte	0
 2212 00b0 0F       		.uleb128 0xf
ARM GAS  /tmp/ccHXpRvH.s 			page 40


 2213 00b1 0D       		.uleb128 0xd
 2214 00b2 00       		.byte	0
 2215 00b3 03       		.uleb128 0x3
 2216 00b4 0E       		.uleb128 0xe
 2217 00b5 3A       		.uleb128 0x3a
 2218 00b6 0B       		.uleb128 0xb
 2219 00b7 3B       		.uleb128 0x3b
 2220 00b8 05       		.uleb128 0x5
 2221 00b9 49       		.uleb128 0x49
 2222 00ba 13       		.uleb128 0x13
 2223 00bb 38       		.uleb128 0x38
 2224 00bc 05       		.uleb128 0x5
 2225 00bd 00       		.byte	0
 2226 00be 00       		.byte	0
 2227 00bf 10       		.uleb128 0x10
 2228 00c0 34       		.uleb128 0x34
 2229 00c1 00       		.byte	0
 2230 00c2 03       		.uleb128 0x3
 2231 00c3 0E       		.uleb128 0xe
 2232 00c4 3A       		.uleb128 0x3a
 2233 00c5 0B       		.uleb128 0xb
 2234 00c6 3B       		.uleb128 0x3b
 2235 00c7 0B       		.uleb128 0xb
 2236 00c8 49       		.uleb128 0x49
 2237 00c9 13       		.uleb128 0x13
 2238 00ca 3F       		.uleb128 0x3f
 2239 00cb 19       		.uleb128 0x19
 2240 00cc 3C       		.uleb128 0x3c
 2241 00cd 19       		.uleb128 0x19
 2242 00ce 00       		.byte	0
 2243 00cf 00       		.byte	0
 2244 00d0 11       		.uleb128 0x11
 2245 00d1 0D       		.uleb128 0xd
 2246 00d2 00       		.byte	0
 2247 00d3 03       		.uleb128 0x3
 2248 00d4 08       		.uleb128 0x8
 2249 00d5 3A       		.uleb128 0x3a
 2250 00d6 0B       		.uleb128 0xb
 2251 00d7 3B       		.uleb128 0x3b
 2252 00d8 0B       		.uleb128 0xb
 2253 00d9 49       		.uleb128 0x49
 2254 00da 13       		.uleb128 0x13
 2255 00db 38       		.uleb128 0x38
 2256 00dc 0B       		.uleb128 0xb
 2257 00dd 00       		.byte	0
 2258 00de 00       		.byte	0
 2259 00df 12       		.uleb128 0x12
 2260 00e0 13       		.uleb128 0x13
 2261 00e1 01       		.byte	0x1
 2262 00e2 0B       		.uleb128 0xb
 2263 00e3 0B       		.uleb128 0xb
 2264 00e4 3A       		.uleb128 0x3a
 2265 00e5 0B       		.uleb128 0xb
 2266 00e6 3B       		.uleb128 0x3b
 2267 00e7 0B       		.uleb128 0xb
 2268 00e8 01       		.uleb128 0x1
 2269 00e9 13       		.uleb128 0x13
ARM GAS  /tmp/ccHXpRvH.s 			page 41


 2270 00ea 00       		.byte	0
 2271 00eb 00       		.byte	0
 2272 00ec 13       		.uleb128 0x13
 2273 00ed 13       		.uleb128 0x13
 2274 00ee 01       		.byte	0x1
 2275 00ef 0B       		.uleb128 0xb
 2276 00f0 05       		.uleb128 0x5
 2277 00f1 3A       		.uleb128 0x3a
 2278 00f2 0B       		.uleb128 0xb
 2279 00f3 3B       		.uleb128 0x3b
 2280 00f4 0B       		.uleb128 0xb
 2281 00f5 01       		.uleb128 0x1
 2282 00f6 13       		.uleb128 0x13
 2283 00f7 00       		.byte	0
 2284 00f8 00       		.byte	0
 2285 00f9 14       		.uleb128 0x14
 2286 00fa 01       		.uleb128 0x1
 2287 00fb 01       		.byte	0x1
 2288 00fc 49       		.uleb128 0x49
 2289 00fd 13       		.uleb128 0x13
 2290 00fe 01       		.uleb128 0x1
 2291 00ff 13       		.uleb128 0x13
 2292 0100 00       		.byte	0
 2293 0101 00       		.byte	0
 2294 0102 15       		.uleb128 0x15
 2295 0103 21       		.uleb128 0x21
 2296 0104 00       		.byte	0
 2297 0105 49       		.uleb128 0x49
 2298 0106 13       		.uleb128 0x13
 2299 0107 2F       		.uleb128 0x2f
 2300 0108 0B       		.uleb128 0xb
 2301 0109 00       		.byte	0
 2302 010a 00       		.byte	0
 2303 010b 16       		.uleb128 0x16
 2304 010c 17       		.uleb128 0x17
 2305 010d 01       		.byte	0x1
 2306 010e 0B       		.uleb128 0xb
 2307 010f 0B       		.uleb128 0xb
 2308 0110 3A       		.uleb128 0x3a
 2309 0111 0B       		.uleb128 0xb
 2310 0112 3B       		.uleb128 0x3b
 2311 0113 0B       		.uleb128 0xb
 2312 0114 01       		.uleb128 0x1
 2313 0115 13       		.uleb128 0x13
 2314 0116 00       		.byte	0
 2315 0117 00       		.byte	0
 2316 0118 17       		.uleb128 0x17
 2317 0119 0D       		.uleb128 0xd
 2318 011a 00       		.byte	0
 2319 011b 03       		.uleb128 0x3
 2320 011c 0E       		.uleb128 0xe
 2321 011d 3A       		.uleb128 0x3a
 2322 011e 0B       		.uleb128 0xb
 2323 011f 3B       		.uleb128 0x3b
 2324 0120 05       		.uleb128 0x5
 2325 0121 49       		.uleb128 0x49
 2326 0122 13       		.uleb128 0x13
ARM GAS  /tmp/ccHXpRvH.s 			page 42


 2327 0123 00       		.byte	0
 2328 0124 00       		.byte	0
 2329 0125 18       		.uleb128 0x18
 2330 0126 35       		.uleb128 0x35
 2331 0127 00       		.byte	0
 2332 0128 49       		.uleb128 0x49
 2333 0129 13       		.uleb128 0x13
 2334 012a 00       		.byte	0
 2335 012b 00       		.byte	0
 2336 012c 19       		.uleb128 0x19
 2337 012d 26       		.uleb128 0x26
 2338 012e 00       		.byte	0
 2339 012f 49       		.uleb128 0x49
 2340 0130 13       		.uleb128 0x13
 2341 0131 00       		.byte	0
 2342 0132 00       		.byte	0
 2343 0133 1A       		.uleb128 0x1a
 2344 0134 34       		.uleb128 0x34
 2345 0135 00       		.byte	0
 2346 0136 03       		.uleb128 0x3
 2347 0137 08       		.uleb128 0x8
 2348 0138 3A       		.uleb128 0x3a
 2349 0139 0B       		.uleb128 0xb
 2350 013a 3B       		.uleb128 0x3b
 2351 013b 05       		.uleb128 0x5
 2352 013c 49       		.uleb128 0x49
 2353 013d 13       		.uleb128 0x13
 2354 013e 3F       		.uleb128 0x3f
 2355 013f 19       		.uleb128 0x19
 2356 0140 3C       		.uleb128 0x3c
 2357 0141 19       		.uleb128 0x19
 2358 0142 00       		.byte	0
 2359 0143 00       		.byte	0
 2360 0144 1B       		.uleb128 0x1b
 2361 0145 15       		.uleb128 0x15
 2362 0146 01       		.byte	0x1
 2363 0147 27       		.uleb128 0x27
 2364 0148 19       		.uleb128 0x19
 2365 0149 49       		.uleb128 0x49
 2366 014a 13       		.uleb128 0x13
 2367 014b 01       		.uleb128 0x1
 2368 014c 13       		.uleb128 0x13
 2369 014d 00       		.byte	0
 2370 014e 00       		.byte	0
 2371 014f 1C       		.uleb128 0x1c
 2372 0150 0D       		.uleb128 0xd
 2373 0151 00       		.byte	0
 2374 0152 03       		.uleb128 0x3
 2375 0153 0E       		.uleb128 0xe
 2376 0154 3A       		.uleb128 0x3a
 2377 0155 0B       		.uleb128 0xb
 2378 0156 3B       		.uleb128 0x3b
 2379 0157 0B       		.uleb128 0xb
 2380 0158 49       		.uleb128 0x49
 2381 0159 13       		.uleb128 0x13
 2382 015a 00       		.byte	0
 2383 015b 00       		.byte	0
ARM GAS  /tmp/ccHXpRvH.s 			page 43


 2384 015c 1D       		.uleb128 0x1d
 2385 015d 17       		.uleb128 0x17
 2386 015e 01       		.byte	0x1
 2387 015f 03       		.uleb128 0x3
 2388 0160 0E       		.uleb128 0xe
 2389 0161 0B       		.uleb128 0xb
 2390 0162 0B       		.uleb128 0xb
 2391 0163 3A       		.uleb128 0x3a
 2392 0164 0B       		.uleb128 0xb
 2393 0165 3B       		.uleb128 0x3b
 2394 0166 0B       		.uleb128 0xb
 2395 0167 01       		.uleb128 0x1
 2396 0168 13       		.uleb128 0x13
 2397 0169 00       		.byte	0
 2398 016a 00       		.byte	0
 2399 016b 1E       		.uleb128 0x1e
 2400 016c 0D       		.uleb128 0xd
 2401 016d 00       		.byte	0
 2402 016e 03       		.uleb128 0x3
 2403 016f 08       		.uleb128 0x8
 2404 0170 3A       		.uleb128 0x3a
 2405 0171 0B       		.uleb128 0xb
 2406 0172 3B       		.uleb128 0x3b
 2407 0173 0B       		.uleb128 0xb
 2408 0174 49       		.uleb128 0x49
 2409 0175 13       		.uleb128 0x13
 2410 0176 00       		.byte	0
 2411 0177 00       		.byte	0
 2412 0178 1F       		.uleb128 0x1f
 2413 0179 2E       		.uleb128 0x2e
 2414 017a 01       		.byte	0x1
 2415 017b 3F       		.uleb128 0x3f
 2416 017c 19       		.uleb128 0x19
 2417 017d 03       		.uleb128 0x3
 2418 017e 0E       		.uleb128 0xe
 2419 017f 3A       		.uleb128 0x3a
 2420 0180 0B       		.uleb128 0xb
 2421 0181 3B       		.uleb128 0x3b
 2422 0182 0B       		.uleb128 0xb
 2423 0183 27       		.uleb128 0x27
 2424 0184 19       		.uleb128 0x19
 2425 0185 49       		.uleb128 0x49
 2426 0186 13       		.uleb128 0x13
 2427 0187 11       		.uleb128 0x11
 2428 0188 01       		.uleb128 0x1
 2429 0189 12       		.uleb128 0x12
 2430 018a 06       		.uleb128 0x6
 2431 018b 40       		.uleb128 0x40
 2432 018c 18       		.uleb128 0x18
 2433 018d 9642     		.uleb128 0x2116
 2434 018f 19       		.uleb128 0x19
 2435 0190 01       		.uleb128 0x1
 2436 0191 13       		.uleb128 0x13
 2437 0192 00       		.byte	0
 2438 0193 00       		.byte	0
 2439 0194 20       		.uleb128 0x20
 2440 0195 05       		.uleb128 0x5
ARM GAS  /tmp/ccHXpRvH.s 			page 44


 2441 0196 00       		.byte	0
 2442 0197 03       		.uleb128 0x3
 2443 0198 08       		.uleb128 0x8
 2444 0199 3A       		.uleb128 0x3a
 2445 019a 0B       		.uleb128 0xb
 2446 019b 3B       		.uleb128 0x3b
 2447 019c 0B       		.uleb128 0xb
 2448 019d 49       		.uleb128 0x49
 2449 019e 13       		.uleb128 0x13
 2450 019f 02       		.uleb128 0x2
 2451 01a0 18       		.uleb128 0x18
 2452 01a1 00       		.byte	0
 2453 01a2 00       		.byte	0
 2454 01a3 21       		.uleb128 0x21
 2455 01a4 05       		.uleb128 0x5
 2456 01a5 00       		.byte	0
 2457 01a6 03       		.uleb128 0x3
 2458 01a7 0E       		.uleb128 0xe
 2459 01a8 3A       		.uleb128 0x3a
 2460 01a9 0B       		.uleb128 0xb
 2461 01aa 3B       		.uleb128 0x3b
 2462 01ab 0B       		.uleb128 0xb
 2463 01ac 49       		.uleb128 0x49
 2464 01ad 13       		.uleb128 0x13
 2465 01ae 02       		.uleb128 0x2
 2466 01af 18       		.uleb128 0x18
 2467 01b0 00       		.byte	0
 2468 01b1 00       		.byte	0
 2469 01b2 22       		.uleb128 0x22
 2470 01b3 34       		.uleb128 0x34
 2471 01b4 00       		.byte	0
 2472 01b5 03       		.uleb128 0x3
 2473 01b6 08       		.uleb128 0x8
 2474 01b7 3A       		.uleb128 0x3a
 2475 01b8 0B       		.uleb128 0xb
 2476 01b9 3B       		.uleb128 0x3b
 2477 01ba 0B       		.uleb128 0xb
 2478 01bb 49       		.uleb128 0x49
 2479 01bc 13       		.uleb128 0x13
 2480 01bd 02       		.uleb128 0x2
 2481 01be 18       		.uleb128 0x18
 2482 01bf 00       		.byte	0
 2483 01c0 00       		.byte	0
 2484 01c1 23       		.uleb128 0x23
 2485 01c2 34       		.uleb128 0x34
 2486 01c3 00       		.byte	0
 2487 01c4 03       		.uleb128 0x3
 2488 01c5 0E       		.uleb128 0xe
 2489 01c6 49       		.uleb128 0x49
 2490 01c7 13       		.uleb128 0x13
 2491 01c8 34       		.uleb128 0x34
 2492 01c9 19       		.uleb128 0x19
 2493 01ca 02       		.uleb128 0x2
 2494 01cb 18       		.uleb128 0x18
 2495 01cc 00       		.byte	0
 2496 01cd 00       		.byte	0
 2497 01ce 24       		.uleb128 0x24
ARM GAS  /tmp/ccHXpRvH.s 			page 45


 2498 01cf 2E       		.uleb128 0x2e
 2499 01d0 01       		.byte	0x1
 2500 01d1 3F       		.uleb128 0x3f
 2501 01d2 19       		.uleb128 0x19
 2502 01d3 03       		.uleb128 0x3
 2503 01d4 0E       		.uleb128 0xe
 2504 01d5 3A       		.uleb128 0x3a
 2505 01d6 0B       		.uleb128 0xb
 2506 01d7 3B       		.uleb128 0x3b
 2507 01d8 0B       		.uleb128 0xb
 2508 01d9 27       		.uleb128 0x27
 2509 01da 19       		.uleb128 0x19
 2510 01db 11       		.uleb128 0x11
 2511 01dc 01       		.uleb128 0x1
 2512 01dd 12       		.uleb128 0x12
 2513 01de 06       		.uleb128 0x6
 2514 01df 40       		.uleb128 0x40
 2515 01e0 18       		.uleb128 0x18
 2516 01e1 9642     		.uleb128 0x2116
 2517 01e3 19       		.uleb128 0x19
 2518 01e4 01       		.uleb128 0x1
 2519 01e5 13       		.uleb128 0x13
 2520 01e6 00       		.byte	0
 2521 01e7 00       		.byte	0
 2522 01e8 25       		.uleb128 0x25
 2523 01e9 34       		.uleb128 0x34
 2524 01ea 00       		.byte	0
 2525 01eb 03       		.uleb128 0x3
 2526 01ec 0E       		.uleb128 0xe
 2527 01ed 3A       		.uleb128 0x3a
 2528 01ee 0B       		.uleb128 0xb
 2529 01ef 3B       		.uleb128 0x3b
 2530 01f0 0B       		.uleb128 0xb
 2531 01f1 49       		.uleb128 0x49
 2532 01f2 13       		.uleb128 0x13
 2533 01f3 02       		.uleb128 0x2
 2534 01f4 18       		.uleb128 0x18
 2535 01f5 00       		.byte	0
 2536 01f6 00       		.byte	0
 2537 01f7 26       		.uleb128 0x26
 2538 01f8 2E       		.uleb128 0x2e
 2539 01f9 01       		.byte	0x1
 2540 01fa 03       		.uleb128 0x3
 2541 01fb 0E       		.uleb128 0xe
 2542 01fc 3A       		.uleb128 0x3a
 2543 01fd 0B       		.uleb128 0xb
 2544 01fe 3B       		.uleb128 0x3b
 2545 01ff 05       		.uleb128 0x5
 2546 0200 27       		.uleb128 0x27
 2547 0201 19       		.uleb128 0x19
 2548 0202 11       		.uleb128 0x11
 2549 0203 01       		.uleb128 0x1
 2550 0204 12       		.uleb128 0x12
 2551 0205 06       		.uleb128 0x6
 2552 0206 40       		.uleb128 0x40
 2553 0207 18       		.uleb128 0x18
 2554 0208 9642     		.uleb128 0x2116
ARM GAS  /tmp/ccHXpRvH.s 			page 46


 2555 020a 19       		.uleb128 0x19
 2556 020b 01       		.uleb128 0x1
 2557 020c 13       		.uleb128 0x13
 2558 020d 00       		.byte	0
 2559 020e 00       		.byte	0
 2560 020f 27       		.uleb128 0x27
 2561 0210 2E       		.uleb128 0x2e
 2562 0211 00       		.byte	0
 2563 0212 03       		.uleb128 0x3
 2564 0213 0E       		.uleb128 0xe
 2565 0214 3A       		.uleb128 0x3a
 2566 0215 0B       		.uleb128 0xb
 2567 0216 3B       		.uleb128 0x3b
 2568 0217 05       		.uleb128 0x5
 2569 0218 27       		.uleb128 0x27
 2570 0219 19       		.uleb128 0x19
 2571 021a 11       		.uleb128 0x11
 2572 021b 01       		.uleb128 0x1
 2573 021c 12       		.uleb128 0x12
 2574 021d 06       		.uleb128 0x6
 2575 021e 40       		.uleb128 0x40
 2576 021f 18       		.uleb128 0x18
 2577 0220 9642     		.uleb128 0x2116
 2578 0222 19       		.uleb128 0x19
 2579 0223 00       		.byte	0
 2580 0224 00       		.byte	0
 2581 0225 28       		.uleb128 0x28
 2582 0226 2E       		.uleb128 0x2e
 2583 0227 01       		.byte	0x1
 2584 0228 03       		.uleb128 0x3
 2585 0229 0E       		.uleb128 0xe
 2586 022a 3A       		.uleb128 0x3a
 2587 022b 0B       		.uleb128 0xb
 2588 022c 3B       		.uleb128 0x3b
 2589 022d 05       		.uleb128 0x5
 2590 022e 27       		.uleb128 0x27
 2591 022f 19       		.uleb128 0x19
 2592 0230 11       		.uleb128 0x11
 2593 0231 01       		.uleb128 0x1
 2594 0232 12       		.uleb128 0x12
 2595 0233 06       		.uleb128 0x6
 2596 0234 40       		.uleb128 0x40
 2597 0235 18       		.uleb128 0x18
 2598 0236 9742     		.uleb128 0x2117
 2599 0238 19       		.uleb128 0x19
 2600 0239 01       		.uleb128 0x1
 2601 023a 13       		.uleb128 0x13
 2602 023b 00       		.byte	0
 2603 023c 00       		.byte	0
 2604 023d 29       		.uleb128 0x29
 2605 023e 1D       		.uleb128 0x1d
 2606 023f 00       		.byte	0
 2607 0240 31       		.uleb128 0x31
 2608 0241 13       		.uleb128 0x13
 2609 0242 11       		.uleb128 0x11
 2610 0243 01       		.uleb128 0x1
 2611 0244 12       		.uleb128 0x12
ARM GAS  /tmp/ccHXpRvH.s 			page 47


 2612 0245 06       		.uleb128 0x6
 2613 0246 58       		.uleb128 0x58
 2614 0247 0B       		.uleb128 0xb
 2615 0248 59       		.uleb128 0x59
 2616 0249 05       		.uleb128 0x5
 2617 024a 00       		.byte	0
 2618 024b 00       		.byte	0
 2619 024c 2A       		.uleb128 0x2a
 2620 024d 2E       		.uleb128 0x2e
 2621 024e 00       		.byte	0
 2622 024f 03       		.uleb128 0x3
 2623 0250 0E       		.uleb128 0xe
 2624 0251 3A       		.uleb128 0x3a
 2625 0252 0B       		.uleb128 0xb
 2626 0253 3B       		.uleb128 0x3b
 2627 0254 05       		.uleb128 0x5
 2628 0255 27       		.uleb128 0x27
 2629 0256 19       		.uleb128 0x19
 2630 0257 20       		.uleb128 0x20
 2631 0258 0B       		.uleb128 0xb
 2632 0259 00       		.byte	0
 2633 025a 00       		.byte	0
 2634 025b 00       		.byte	0
 2635              		.section	.debug_aranges,"",%progbits
 2636 0000 54000000 		.4byte	0x54
 2637 0004 0200     		.2byte	0x2
 2638 0006 00000000 		.4byte	.Ldebug_info0
 2639 000a 04       		.byte	0x4
 2640 000b 00       		.byte	0
 2641 000c 0000     		.2byte	0
 2642 000e 0000     		.2byte	0
 2643 0010 00000000 		.4byte	.LFB38
 2644 0014 06000000 		.4byte	.LFE38-.LFB38
 2645 0018 00000000 		.4byte	.LFB39
 2646 001c 06000000 		.4byte	.LFE39-.LFB39
 2647 0020 00000000 		.4byte	.LFB77
 2648 0024 0E000000 		.4byte	.LFE77-.LFB77
 2649 0028 00000000 		.4byte	.LFB78
 2650 002c 38000000 		.4byte	.LFE78-.LFB78
 2651 0030 00000000 		.4byte	.LFB152
 2652 0034 3C000000 		.4byte	.LFE152-.LFB152
 2653 0038 00000000 		.4byte	.LFB153
 2654 003c B8000000 		.4byte	.LFE153-.LFB153
 2655 0040 00000000 		.4byte	.LFB154
 2656 0044 82000000 		.4byte	.LFE154-.LFB154
 2657 0048 00000000 		.4byte	.LFB155
 2658 004c 9C000000 		.4byte	.LFE155-.LFB155
 2659 0050 00000000 		.4byte	0
 2660 0054 00000000 		.4byte	0
 2661              		.section	.debug_ranges,"",%progbits
 2662              	.Ldebug_ranges0:
 2663 0000 00000000 		.4byte	.LFB38
 2664 0004 06000000 		.4byte	.LFE38
 2665 0008 00000000 		.4byte	.LFB39
 2666 000c 06000000 		.4byte	.LFE39
 2667 0010 00000000 		.4byte	.LFB77
 2668 0014 0E000000 		.4byte	.LFE77
ARM GAS  /tmp/ccHXpRvH.s 			page 48


 2669 0018 00000000 		.4byte	.LFB78
 2670 001c 38000000 		.4byte	.LFE78
 2671 0020 00000000 		.4byte	.LFB152
 2672 0024 3C000000 		.4byte	.LFE152
 2673 0028 00000000 		.4byte	.LFB153
 2674 002c B8000000 		.4byte	.LFE153
 2675 0030 00000000 		.4byte	.LFB154
 2676 0034 82000000 		.4byte	.LFE154
 2677 0038 00000000 		.4byte	.LFB155
 2678 003c 9C000000 		.4byte	.LFE155
 2679 0040 00000000 		.4byte	0
 2680 0044 00000000 		.4byte	0
 2681              		.section	.debug_line,"",%progbits
 2682              	.Ldebug_line0:
 2683 0000 DF030000 		.section	.debug_str,"MS",%progbits,1
 2683      0200D302 
 2683      00000201 
 2683      FB0E0D00 
 2683      01010101 
 2684              	.LASF51:
 2685 0000 63685F74 		.ascii	"ch_threads_list\000"
 2685      68726561 
 2685      64735F6C 
 2685      69737400 
 2686              	.LASF52:
 2687 0010 74687265 		.ascii	"threads_queue_t\000"
 2687      6164735F 
 2687      71756575 
 2687      655F7400 
 2688              	.LASF41:
 2689 0020 705F7761 		.ascii	"p_waiting\000"
 2689      6974696E 
 2689      6700
 2690              	.LASF114:
 2691 002a 53797374 		.ascii	"SystemCoreClock\000"
 2691      656D436F 
 2691      7265436C 
 2691      6F636B00 
 2692              	.LASF104:
 2693 003a 77746D74 		.ascii	"wtmtxp\000"
 2693      787000
 2694              	.LASF153:
 2695 0041 6D656D6F 		.ascii	"memory_pool_t\000"
 2695      72795F70 
 2695      6F6F6C5F 
 2695      7400
 2696              	.LASF113:
 2697 004f 63686172 		.ascii	"char\000"
 2697      00
 2698              	.LASF86:
 2699 0054 72656761 		.ascii	"regarm_t\000"
 2699      726D5F74 
 2699      00
 2700              	.LASF32:
 2701 005d 705F7072 		.ascii	"p_prio\000"
 2701      696F00
 2702              	.LASF28:
ARM GAS  /tmp/ccHXpRvH.s 			page 49


 2703 0064 73797374 		.ascii	"systime_t\000"
 2703      696D655F 
 2703      7400
 2704              	.LASF126:
 2705 006e 63665F6F 		.ascii	"cf_off_older\000"
 2705      66665F6F 
 2705      6C646572 
 2705      00
 2706              	.LASF111:
 2707 007b 6D5F6F77 		.ascii	"m_owner\000"
 2707      6E657200 
 2708              	.LASF107:
 2709 0083 735F7175 		.ascii	"s_queue\000"
 2709      65756500 
 2710              	.LASF42:
 2711 008b 705F6D73 		.ascii	"p_msgqueue\000"
 2711      67717565 
 2711      756500
 2712              	.LASF0:
 2713 0096 756E7369 		.ascii	"unsigned int\000"
 2713      676E6564 
 2713      20696E74 
 2713      00
 2714              	.LASF144:
 2715 00a3 6E657874 		.ascii	"next\000"
 2715      00
 2716              	.LASF49:
 2717 00a8 74687265 		.ascii	"threads_list_t\000"
 2717      6164735F 
 2717      6C697374 
 2717      5F7400
 2718              	.LASF10:
 2719 00b7 5F5F696E 		.ascii	"__int32_t\000"
 2719      7433325F 
 2719      7400
 2720              	.LASF93:
 2721 00c1 73655F73 		.ascii	"se_state\000"
 2721      74617465 
 2721      00
 2722              	.LASF127:
 2723 00ca 63665F6F 		.ascii	"cf_off_name\000"
 2723      66665F6E 
 2723      616D6500 
 2724              	.LASF145:
 2725 00d6 68656170 		.ascii	"heap\000"
 2725      00
 2726              	.LASF101:
 2727 00db 77746F62 		.ascii	"wtobjp\000"
 2727      6A7000
 2728              	.LASF163:
 2729 00e2 706F7274 		.ascii	"port_lock\000"
 2729      5F6C6F63 
 2729      6B00
 2730              	.LASF82:
 2731 00ec 76746C69 		.ascii	"vtlist\000"
 2731      737400
 2732              	.LASF55:
ARM GAS  /tmp/ccHXpRvH.s 			page 50


 2733 00f3 63685F72 		.ascii	"ch_ready_list\000"
 2733      65616479 
 2733      5F6C6973 
 2733      7400
 2734              	.LASF84:
 2735 0101 69646C65 		.ascii	"idle_thread_wa\000"
 2735      5F746872 
 2735      6561645F 
 2735      776100
 2736              	.LASF105:
 2737 0110 65776D61 		.ascii	"ewmask\000"
 2737      736B00
 2738              	.LASF130:
 2739 0117 63665F6F 		.ascii	"cf_off_flags\000"
 2739      66665F66 
 2739      6C616773 
 2739      00
 2740              	.LASF53:
 2741 0124 63685F74 		.ascii	"ch_threads_queue\000"
 2741      68726561 
 2741      64735F71 
 2741      75657565 
 2741      00
 2742              	.LASF120:
 2743 0135 63685F70 		.ascii	"ch_ptrsize\000"
 2743      74727369 
 2743      7A6500
 2744              	.LASF62:
 2745 0140 76746675 		.ascii	"vtfunc_t\000"
 2745      6E635F74 
 2745      00
 2746              	.LASF108:
 2747 0149 735F636E 		.ascii	"s_cnt\000"
 2747      7400
 2748              	.LASF74:
 2749 014f 63685F73 		.ascii	"ch_system_debug\000"
 2749      79737465 
 2749      6D5F6465 
 2749      62756700 
 2750              	.LASF142:
 2751 015f 685F6672 		.ascii	"h_free\000"
 2751      656500
 2752              	.LASF19:
 2753 0166 75696E74 		.ascii	"uint32_t\000"
 2753      33325F74 
 2753      00
 2754              	.LASF121:
 2755 016f 63685F74 		.ascii	"ch_timesize\000"
 2755      696D6573 
 2755      697A6500 
 2756              	.LASF26:
 2757 017b 6576656E 		.ascii	"eventmask_t\000"
 2757      746D6173 
 2757      6B5F7400 
 2758              	.LASF57:
 2759 0187 725F7072 		.ascii	"r_prio\000"
 2759      696F00
ARM GAS  /tmp/ccHXpRvH.s 			page 51


 2760              	.LASF69:
 2761 018e 76745F70 		.ascii	"vt_par\000"
 2761      617200
 2762              	.LASF167:
 2763 0195 43686962 		.ascii	"ChibiOS/os/rt/src/chdynamic.c\000"
 2763      694F532F 
 2763      6F732F72 
 2763      742F7372 
 2763      632F6368 
 2764              	.LASF106:
 2765 01b3 63685F73 		.ascii	"ch_semaphore\000"
 2765      656D6170 
 2765      686F7265 
 2765      00
 2766              	.LASF24:
 2767 01c0 74707269 		.ascii	"tprio_t\000"
 2767      6F5F7400 
 2768              	.LASF64:
 2769 01c8 63685F76 		.ascii	"ch_virtual_timer\000"
 2769      69727475 
 2769      616C5F74 
 2769      696D6572 
 2769      00
 2770              	.LASF115:
 2771 01d9 7466756E 		.ascii	"tfunc_t\000"
 2771      635F7400 
 2772              	.LASF15:
 2773 01e1 6C6F6E67 		.ascii	"long long unsigned int\000"
 2773      206C6F6E 
 2773      6720756E 
 2773      7369676E 
 2773      65642069 
 2774              	.LASF92:
 2775 01f8 73655F77 		.ascii	"se_wtobjp\000"
 2775      746F626A 
 2775      7000
 2776              	.LASF149:
 2777 0202 70685F6E 		.ascii	"ph_next\000"
 2777      65787400 
 2778              	.LASF8:
 2779 020a 5F5F7569 		.ascii	"__uint16_t\000"
 2779      6E743136 
 2779      5F7400
 2780              	.LASF27:
 2781 0215 636E745F 		.ascii	"cnt_t\000"
 2781      7400
 2782              	.LASF161:
 2783 021b 63685379 		.ascii	"chSysUnlock\000"
 2783      73556E6C 
 2783      6F636B00 
 2784              	.LASF76:
 2785 0227 6973725F 		.ascii	"isr_cnt\000"
 2785      636E7400 
 2786              	.LASF34:
 2787 022f 705F6E65 		.ascii	"p_newer\000"
 2787      77657200 
 2788              	.LASF71:
ARM GAS  /tmp/ccHXpRvH.s 			page 52


 2789 0237 63685F76 		.ascii	"ch_virtual_timers_list\000"
 2789      69727475 
 2789      616C5F74 
 2789      696D6572 
 2789      735F6C69 
 2790              	.LASF90:
 2791 024e 73655F74 		.ascii	"se_time\000"
 2791      696D6500 
 2792              	.LASF29:
 2793 0256 74687265 		.ascii	"thread_t\000"
 2793      61645F74 
 2793      00
 2794              	.LASF169:
 2795 025f 68656170 		.ascii	"heap_header\000"
 2795      5F686561 
 2795      64657200 
 2796              	.LASF4:
 2797 026b 73697A65 		.ascii	"size_t\000"
 2797      5F7400
 2798              	.LASF99:
 2799 0272 7264796D 		.ascii	"rdymsg\000"
 2799      736700
 2800              	.LASF122:
 2801 0279 63685F74 		.ascii	"ch_threadsize\000"
 2801      68726561 
 2801      6473697A 
 2801      6500
 2802              	.LASF164:
 2803 0287 5F5F6469 		.ascii	"__disable_irq\000"
 2803      7361626C 
 2803      655F6972 
 2803      7100
 2804              	.LASF132:
 2805 0295 63665F6F 		.ascii	"cf_off_preempt\000"
 2805      66665F70 
 2805      7265656D 
 2805      707400
 2806              	.LASF137:
 2807 02a4 5F426F6F 		.ascii	"_Bool\000"
 2807      6C00
 2808              	.LASF166:
 2809 02aa 474E5520 		.ascii	"GNU C11 6.3.1 20170215 (release) [ARM/embedded-6-br"
 2809      43313120 
 2809      362E332E 
 2809      31203230 
 2809      31373032 
 2810 02dd 616E6368 		.ascii	"anch revision 245512] -mcpu=cortex-m0 -mno-thumb-in"
 2810      20726576 
 2810      6973696F 
 2810      6E203234 
 2810      35353132 
 2811 0310 74657277 		.ascii	"terwork -mthumb -ggdb -O0 -fomit-frame-pointer -fal"
 2811      6F726B20 
 2811      2D6D7468 
 2811      756D6220 
 2811      2D676764 
 2812 0343 69676E2D 		.ascii	"ign-functions=16 -ffunction-sections -fdata-section"
ARM GAS  /tmp/ccHXpRvH.s 			page 53


 2812      66756E63 
 2812      74696F6E 
 2812      733D3136 
 2812      202D6666 
 2813 0376 7300     		.ascii	"s\000"
 2814              	.LASF109:
 2815 0378 63685F6D 		.ascii	"ch_mutex\000"
 2815      75746578 
 2815      00
 2816              	.LASF14:
 2817 0381 5F5F7569 		.ascii	"__uint64_t\000"
 2817      6E743634 
 2817      5F7400
 2818              	.LASF171:
 2819 038c 63685379 		.ascii	"chSysLock\000"
 2819      734C6F63 
 2819      6B00
 2820              	.LASF124:
 2821 0396 63665F6F 		.ascii	"cf_off_ctx\000"
 2821      66665F63 
 2821      747800
 2822              	.LASF128:
 2823 03a1 63665F6F 		.ascii	"cf_off_stklimit\000"
 2823      66665F73 
 2823      746B6C69 
 2823      6D697400 
 2824              	.LASF36:
 2825 03b1 705F6E61 		.ascii	"p_name\000"
 2825      6D6500
 2826              	.LASF154:
 2827 03b8 7072696F 		.ascii	"prio\000"
 2827      00
 2828              	.LASF141:
 2829 03bd 685F7072 		.ascii	"h_provider\000"
 2829      6F766964 
 2829      657200
 2830              	.LASF160:
 2831 03c8 63685468 		.ascii	"chThdAddRef\000"
 2831      64416464 
 2831      52656600 
 2832              	.LASF156:
 2833 03d4 63685468 		.ascii	"chThdCreateFromHeap\000"
 2833      64437265 
 2833      61746546 
 2833      726F6D48 
 2833      65617000 
 2834              	.LASF67:
 2835 03e8 76745F64 		.ascii	"vt_delta\000"
 2835      656C7461 
 2835      00
 2836              	.LASF168:
 2837 03f1 2F686F6D 		.ascii	"/home/felix/Desktop/workspace/esho/UltrasonicCortex"
 2837      652F6665 
 2837      6C69782F 
 2837      4465736B 
 2837      746F702F 
 2838 0424 2F00     		.ascii	"/\000"
ARM GAS  /tmp/ccHXpRvH.s 			page 54


 2839              	.LASF48:
 2840 0426 74687265 		.ascii	"thread_reference_t\000"
 2840      61645F72 
 2840      65666572 
 2840      656E6365 
 2840      5F7400
 2841              	.LASF72:
 2842 0439 76745F6C 		.ascii	"vt_lasttime\000"
 2842      61737474 
 2842      696D6500 
 2843              	.LASF155:
 2844 0445 63685468 		.ascii	"chThdCreateFromMemoryPool\000"
 2844      64437265 
 2844      61746546 
 2844      726F6D4D 
 2844      656D6F72 
 2845              	.LASF22:
 2846 045f 74737461 		.ascii	"tstate_t\000"
 2846      74655F74 
 2846      00
 2847              	.LASF91:
 2848 0468 73655F74 		.ascii	"se_tp\000"
 2848      7000
 2849              	.LASF35:
 2850 046e 705F6F6C 		.ascii	"p_older\000"
 2850      64657200 
 2851              	.LASF38:
 2852 0476 705F7374 		.ascii	"p_state\000"
 2852      61746500 
 2853              	.LASF37:
 2854 047e 705F7374 		.ascii	"p_stklimit\000"
 2854      6B6C696D 
 2854      697400
 2855              	.LASF16:
 2856 0489 75696E74 		.ascii	"uint8_t\000"
 2856      385F7400 
 2857              	.LASF97:
 2858 0491 74625F62 		.ascii	"tb_buffer\000"
 2858      75666665 
 2858      7200
 2859              	.LASF150:
 2860 049b 6D705F6E 		.ascii	"mp_next\000"
 2860      65787400 
 2861              	.LASF47:
 2862 04a3 705F6D70 		.ascii	"p_mpool\000"
 2862      6F6F6C00 
 2863              	.LASF45:
 2864 04ab 705F6D74 		.ascii	"p_mtxlist\000"
 2864      786C6973 
 2864      7400
 2865              	.LASF50:
 2866 04b5 63685F74 		.ascii	"ch_thread\000"
 2866      68726561 
 2866      6400
 2867              	.LASF143:
 2868 04bf 685F6D74 		.ascii	"h_mtx\000"
 2868      7800
ARM GAS  /tmp/ccHXpRvH.s 			page 55


 2869              	.LASF95:
 2870 04c5 74625F73 		.ascii	"tb_size\000"
 2870      697A6500 
 2871              	.LASF73:
 2872 04cd 73797374 		.ascii	"system_debug_t\000"
 2872      656D5F64 
 2872      65627567 
 2872      5F7400
 2873              	.LASF1:
 2874 04dc 6C6F6E67 		.ascii	"long long int\000"
 2874      206C6F6E 
 2874      6720696E 
 2874      7400
 2875              	.LASF56:
 2876 04ea 725F7175 		.ascii	"r_queue\000"
 2876      65756500 
 2877              	.LASF59:
 2878 04f2 725F6E65 		.ascii	"r_newer\000"
 2878      77657200 
 2879              	.LASF25:
 2880 04fa 6D73675F 		.ascii	"msg_t\000"
 2880      7400
 2881              	.LASF88:
 2882 0500 636F6E74 		.ascii	"context\000"
 2882      65787400 
 2883              	.LASF39:
 2884 0508 705F666C 		.ascii	"p_flags\000"
 2884      61677300 
 2885              	.LASF63:
 2886 0510 76697274 		.ascii	"virtual_timer_t\000"
 2886      75616C5F 
 2886      74696D65 
 2886      725F7400 
 2887              	.LASF131:
 2888 0520 63665F6F 		.ascii	"cf_off_refs\000"
 2888      66665F72 
 2888      65667300 
 2889              	.LASF117:
 2890 052c 63685F7A 		.ascii	"ch_zero\000"
 2890      65726F00 
 2891              	.LASF147:
 2892 0534 73697A65 		.ascii	"size\000"
 2892      00
 2893              	.LASF96:
 2894 0539 74625F70 		.ascii	"tb_ptr\000"
 2894      747200
 2895              	.LASF60:
 2896 0540 725F6F6C 		.ascii	"r_older\000"
 2896      64657200 
 2897              	.LASF139:
 2898 0548 6D656D6F 		.ascii	"memory_heap_t\000"
 2898      72795F68 
 2898      6561705F 
 2898      7400
 2899              	.LASF170:
 2900 0556 63685468 		.ascii	"chThdRelease\000"
 2900      6452656C 
ARM GAS  /tmp/ccHXpRvH.s 			page 56


 2900      65617365 
 2900      00
 2901              	.LASF151:
 2902 0563 6D705F6F 		.ascii	"mp_object_size\000"
 2902      626A6563 
 2902      745F7369 
 2902      7A6500
 2903              	.LASF75:
 2904 0572 70616E69 		.ascii	"panic_msg\000"
 2904      635F6D73 
 2904      6700
 2905              	.LASF43:
 2906 057c 705F6D73 		.ascii	"p_msg\000"
 2906      6700
 2907              	.LASF21:
 2908 0582 746D6F64 		.ascii	"tmode_t\000"
 2908      655F7400 
 2909              	.LASF118:
 2910 058a 63685F73 		.ascii	"ch_size\000"
 2910      697A6500 
 2911              	.LASF83:
 2912 0592 6D61696E 		.ascii	"mainthread\000"
 2912      74687265 
 2912      616400
 2913              	.LASF2:
 2914 059d 6C6F6E67 		.ascii	"long double\000"
 2914      20646F75 
 2914      626C6500 
 2915              	.LASF17:
 2916 05a9 75696E74 		.ascii	"uint16_t\000"
 2916      31365F74 
 2916      00
 2917              	.LASF134:
 2918 05b2 63686465 		.ascii	"chdebug_t\000"
 2918      6275675F 
 2918      7400
 2919              	.LASF77:
 2920 05bc 6C6F636B 		.ascii	"lock_cnt\000"
 2920      5F636E74 
 2920      00
 2921              	.LASF46:
 2922 05c5 705F7265 		.ascii	"p_realprio\000"
 2922      616C7072 
 2922      696F00
 2923              	.LASF158:
 2924 05d0 72656673 		.ascii	"refs\000"
 2924      00
 2925              	.LASF119:
 2926 05d5 63685F76 		.ascii	"ch_version\000"
 2926      65727369 
 2926      6F6E00
 2927              	.LASF7:
 2928 05e0 73686F72 		.ascii	"short int\000"
 2928      7420696E 
 2928      7400
 2929              	.LASF140:
 2930 05ea 6D656D6F 		.ascii	"memory_heap\000"
ARM GAS  /tmp/ccHXpRvH.s 			page 57


 2930      72795F68 
 2930      65617000 
 2931              	.LASF61:
 2932 05f6 725F6375 		.ascii	"r_current\000"
 2932      7272656E 
 2932      7400
 2933              	.LASF44:
 2934 0600 705F6570 		.ascii	"p_epending\000"
 2934      656E6469 
 2934      6E6700
 2935              	.LASF110:
 2936 060b 6D5F7175 		.ascii	"m_queue\000"
 2936      65756500 
 2937              	.LASF11:
 2938 0613 6C6F6E67 		.ascii	"long int\000"
 2938      20696E74 
 2938      00
 2939              	.LASF89:
 2940 061c 706F7274 		.ascii	"port_intctx\000"
 2940      5F696E74 
 2940      63747800 
 2941              	.LASF165:
 2942 0628 5F5F656E 		.ascii	"__enable_irq\000"
 2942      61626C65 
 2942      5F697271 
 2942      00
 2943              	.LASF80:
 2944 0635 63685F73 		.ascii	"ch_system\000"
 2944      79737465 
 2944      6D00
 2945              	.LASF30:
 2946 063f 705F6E65 		.ascii	"p_next\000"
 2946      787400
 2947              	.LASF20:
 2948 0646 75696E74 		.ascii	"uint64_t\000"
 2948      36345F74 
 2948      00
 2949              	.LASF33:
 2950 064f 705F6374 		.ascii	"p_ctx\000"
 2950      7800
 2951              	.LASF81:
 2952 0655 726C6973 		.ascii	"rlist\000"
 2952      7400
 2953              	.LASF133:
 2954 065b 63665F6F 		.ascii	"cf_off_time\000"
 2954      66665F74 
 2954      696D6500 
 2955              	.LASF123:
 2956 0667 63665F6F 		.ascii	"cf_off_prio\000"
 2956      66665F70 
 2956      72696F00 
 2957              	.LASF5:
 2958 0673 5F5F7569 		.ascii	"__uint8_t\000"
 2958      6E74385F 
 2958      7400
 2959              	.LASF138:
 2960 067d 6D656D67 		.ascii	"memgetfunc_t\000"
ARM GAS  /tmp/ccHXpRvH.s 			page 58


 2960      65746675 
 2960      6E635F74 
 2960      00
 2961              	.LASF116:
 2962 068a 63685F69 		.ascii	"ch_identifier\000"
 2962      64656E74 
 2962      69666965 
 2962      7200
 2963              	.LASF31:
 2964 0698 705F7072 		.ascii	"p_prev\000"
 2964      657600
 2965              	.LASF85:
 2966 069f 73697A65 		.ascii	"sizetype\000"
 2966      74797065 
 2966      00
 2967              	.LASF23:
 2968 06a8 74726566 		.ascii	"trefs_t\000"
 2968      735F7400 
 2969              	.LASF13:
 2970 06b0 6C6F6E67 		.ascii	"long unsigned int\000"
 2970      20756E73 
 2970      69676E65 
 2970      6420696E 
 2970      7400
 2971              	.LASF129:
 2972 06c2 63665F6F 		.ascii	"cf_off_state\000"
 2972      66665F73 
 2972      74617465 
 2972      00
 2973              	.LASF54:
 2974 06cf 72656164 		.ascii	"ready_list_t\000"
 2974      795F6C69 
 2974      73745F74 
 2974      00
 2975              	.LASF18:
 2976 06dc 696E7433 		.ascii	"int32_t\000"
 2976      325F7400 
 2977              	.LASF78:
 2978 06e4 74726163 		.ascii	"trace_buffer\000"
 2978      655F6275 
 2978      66666572 
 2978      00
 2979              	.LASF103:
 2980 06f1 77747365 		.ascii	"wtsemp\000"
 2980      6D7000
 2981              	.LASF94:
 2982 06f8 63685F73 		.ascii	"ch_swc_event_t\000"
 2982      77635F65 
 2982      76656E74 
 2982      5F7400
 2983              	.LASF136:
 2984 0707 6D757465 		.ascii	"mutex_t\000"
 2984      785F7400 
 2985              	.LASF6:
 2986 070f 756E7369 		.ascii	"unsigned char\000"
 2986      676E6564 
 2986      20636861 
ARM GAS  /tmp/ccHXpRvH.s 			page 59


 2986      7200
 2987              	.LASF12:
 2988 071d 5F5F7569 		.ascii	"__uint32_t\000"
 2988      6E743332 
 2988      5F7400
 2989              	.LASF70:
 2990 0728 76697274 		.ascii	"virtual_timers_list_t\000"
 2990      75616C5F 
 2990      74696D65 
 2990      72735F6C 
 2990      6973745F 
 2991              	.LASF40:
 2992 073e 705F7265 		.ascii	"p_refs\000"
 2992      667300
 2993              	.LASF148:
 2994 0745 706F6F6C 		.ascii	"pool_header\000"
 2994      5F686561 
 2994      64657200 
 2995              	.LASF65:
 2996 0751 76745F6E 		.ascii	"vt_next\000"
 2996      65787400 
 2997              	.LASF79:
 2998 0759 63685F73 		.ascii	"ch_system_t\000"
 2998      79737465 
 2998      6D5F7400 
 2999              	.LASF102:
 3000 0765 77747472 		.ascii	"wttrp\000"
 3000      7000
 3001              	.LASF98:
 3002 076b 63685F74 		.ascii	"ch_trace_buffer_t\000"
 3002      72616365 
 3002      5F627566 
 3002      6665725F 
 3002      7400
 3003              	.LASF112:
 3004 077d 6D5F6E65 		.ascii	"m_next\000"
 3004      787400
 3005              	.LASF157:
 3006 0784 68656170 		.ascii	"heapp\000"
 3006      7000
 3007              	.LASF3:
 3008 078a 7369676E 		.ascii	"signed char\000"
 3008      65642063 
 3008      68617200 
 3009              	.LASF125:
 3010 0796 63665F6F 		.ascii	"cf_off_newer\000"
 3010      66665F6E 
 3010      65776572 
 3010      00
 3011              	.LASF9:
 3012 07a3 73686F72 		.ascii	"short unsigned int\000"
 3012      7420756E 
 3012      7369676E 
 3012      65642069 
 3012      6E7400
 3013              	.LASF58:
 3014 07b6 725F6374 		.ascii	"r_ctx\000"
ARM GAS  /tmp/ccHXpRvH.s 			page 60


 3014      7800
 3015              	.LASF87:
 3016 07bc 73746B61 		.ascii	"stkalign_t\000"
 3016      6C69676E 
 3016      5F7400
 3017              	.LASF159:
 3018 07c7 5F5F6675 		.ascii	"__func__\000"
 3018      6E635F5F 
 3018      00
 3019              	.LASF135:
 3020 07d0 63685F64 		.ascii	"ch_debug\000"
 3020      65627567 
 3020      00
 3021              	.LASF68:
 3022 07d9 76745F66 		.ascii	"vt_func\000"
 3022      756E6300 
 3023              	.LASF162:
 3024 07e1 706F7274 		.ascii	"port_unlock\000"
 3024      5F756E6C 
 3024      6F636B00 
 3025              	.LASF66:
 3026 07ed 76745F70 		.ascii	"vt_prev\000"
 3026      72657600 
 3027              	.LASF146:
 3028 07f5 616C6967 		.ascii	"align\000"
 3028      6E00
 3029              	.LASF100:
 3030 07fb 65786974 		.ascii	"exitcode\000"
 3030      636F6465 
 3030      00
 3031              	.LASF152:
 3032 0804 6D705F70 		.ascii	"mp_provider\000"
 3032      726F7669 
 3032      64657200 
 3033              		.ident	"GCC: (GNU Tools for ARM Embedded Processors 6-2017-q1-update) 6.3.1 20170215 (release) [AR
ARM GAS  /tmp/ccHXpRvH.s 			page 61


DEFINED SYMBOLS
                            *ABS*:0000000000000000 chdynamic.c
     /tmp/ccHXpRvH.s:16     .text.port_lock:0000000000000000 $t
     /tmp/ccHXpRvH.s:23     .text.port_lock:0000000000000000 port_lock
     /tmp/ccHXpRvH.s:51     .text.port_unlock:0000000000000000 $t
     /tmp/ccHXpRvH.s:58     .text.port_unlock:0000000000000000 port_unlock
     /tmp/ccHXpRvH.s:84     .text.chSysLock:0000000000000000 $t
     /tmp/ccHXpRvH.s:91     .text.chSysLock:0000000000000000 chSysLock
     /tmp/ccHXpRvH.s:114    .text.chSysUnlock:0000000000000000 $t
     /tmp/ccHXpRvH.s:121    .text.chSysUnlock:0000000000000000 chSysUnlock
     /tmp/ccHXpRvH.s:162    .text.chSysUnlock:0000000000000030 $d
     /tmp/ccHXpRvH.s:579    .rodata.__func__.4993:0000000000000000 __func__.4993
     /tmp/ccHXpRvH.s:168    .text.chThdAddRef:0000000000000000 $t
     /tmp/ccHXpRvH.s:176    .text.chThdAddRef:0000000000000000 chThdAddRef
     /tmp/ccHXpRvH.s:223    .text.chThdAddRef:0000000000000038 $d
     /tmp/ccHXpRvH.s:573    .rodata.__func__.5696:0000000000000000 __func__.5696
     /tmp/ccHXpRvH.s:228    .text.chThdRelease:0000000000000000 $t
     /tmp/ccHXpRvH.s:236    .text.chThdRelease:0000000000000000 chThdRelease
     /tmp/ccHXpRvH.s:356    .text.chThdRelease:00000000000000b4 $d
     /tmp/ccHXpRvH.s:585    .rodata.__func__.5701:0000000000000000 __func__.5701
     /tmp/ccHXpRvH.s:361    .text.chThdCreateFromHeap:0000000000000000 $t
     /tmp/ccHXpRvH.s:369    .text.chThdCreateFromHeap:0000000000000000 chThdCreateFromHeap
     /tmp/ccHXpRvH.s:456    .text.chThdCreateFromMemoryPool:0000000000000000 $t
     /tmp/ccHXpRvH.s:464    .text.chThdCreateFromMemoryPool:0000000000000000 chThdCreateFromMemoryPool
     /tmp/ccHXpRvH.s:565    .text.chThdCreateFromMemoryPool:0000000000000098 $d
     /tmp/ccHXpRvH.s:591    .rodata.__func__.5723:0000000000000000 __func__.5723
     /tmp/ccHXpRvH.s:570    .rodata.__func__.5696:0000000000000000 $d
     /tmp/ccHXpRvH.s:576    .rodata.__func__.4993:0000000000000000 $d
     /tmp/ccHXpRvH.s:582    .rodata.__func__.5701:0000000000000000 $d
     /tmp/ccHXpRvH.s:588    .rodata.__func__.5723:0000000000000000 $d
                     .debug_frame:0000000000000010 $d

UNDEFINED SYMBOLS
_dbg_check_lock
_dbg_check_unlock
chSysHalt
ch
chHeapFree
chPoolFree
chHeapAlloc
_thread_memfill
chThdCreateI
chSchWakeupS
chPoolAlloc
