ARM GAS  /tmp/ccHXpRvH.s 			page 1


   1              		.cpu cortex-m0
   2              		.eabi_attribute 20, 1
   3              		.eabi_attribute 21, 1
   4              		.eabi_attribute 23, 3
   5              		.eabi_attribute 24, 1
   6              		.eabi_attribute 25, 1
   7              		.eabi_attribute 26, 1
   8              		.eabi_attribute 30, 6
   9              		.eabi_attribute 34, 0
  10              		.eabi_attribute 18, 4
  11              		.file	"chdynamic.c"
  12              		.text
  13              	.Ltext0:
  14              		.cfi_sections	.debug_frame
  15              		.section	.text.port_lock,"ax",%progbits
  16              		.align	1
  17              		.p2align 4,,15
  18              		.syntax unified
  19              		.code	16
  20              		.thumb_func
  21              		.fpu softvfp
  22              		.type	port_lock, %function
  23              	port_lock:
  24              	.LFB38:
  25              		.file 1 "ChibiOS/os/rt/ports/ARMCMx/chcore_v6m.h"
  26              		.loc 1 330 0
  27              		.cfi_startproc
  28              		@ args = 0, pretend = 0, frame = 0
  29              		@ frame_needed = 0, uses_anonymous_args = 0
  30              		@ link register save eliminated.
  31              	.LBB6:
  32              	.LBB7:
  33              		.file 2 "ChibiOS/os/ext/CMSIS/include/core_cmFunc.h"
  34              		.loc 2 344 0
  35              		.syntax divided
  36              	@ 344 "ChibiOS/os/ext/CMSIS/include/core_cmFunc.h" 1
  37 0000 72B6     		cpsid i
  38              	@ 0 "" 2
  39              		.thumb
  40              		.syntax unified
  41              	.LBE7:
  42              	.LBE6:
  43              		.loc 1 333 0
  44 0002 C046     		nop
  45              		@ sp needed
  46 0004 7047     		bx	lr
  47              		.cfi_endproc
  48              	.LFE38:
  49              		.size	port_lock, .-port_lock
  50 0006 C046     		.section	.text.port_unlock,"ax",%progbits
  51              		.align	1
  52              		.p2align 4,,15
  53              		.syntax unified
  54              		.code	16
  55              		.thumb_func
  56              		.fpu softvfp
  57              		.type	port_unlock, %function
ARM GAS  /tmp/ccHXpRvH.s 			page 2


  58              	port_unlock:
  59              	.LFB39:
  60              		.loc 1 339 0
  61              		.cfi_startproc
  62              		@ args = 0, pretend = 0, frame = 0
  63              		@ frame_needed = 0, uses_anonymous_args = 0
  64              		@ link register save eliminated.
  65              	.LBB8:
  66              	.LBB9:
  67              		.loc 2 333 0
  68              		.syntax divided
  69              	@ 333 "ChibiOS/os/ext/CMSIS/include/core_cmFunc.h" 1
  70 0000 62B6     		cpsie i
  71              	@ 0 "" 2
  72              		.thumb
  73              		.syntax unified
  74              	.LBE9:
  75              	.LBE8:
  76              		.loc 1 342 0
  77 0002 C046     		nop
  78              		@ sp needed
  79 0004 7047     		bx	lr
  80              		.cfi_endproc
  81              	.LFE39:
  82              		.size	port_unlock, .-port_unlock
  83 0006 C046     		.section	.text.chSysLock,"ax",%progbits
  84              		.align	1
  85              		.p2align 4,,15
  86              		.syntax unified
  87              		.code	16
  88              		.thumb_func
  89              		.fpu softvfp
  90              		.type	chSysLock, %function
  91              	chSysLock:
  92              	.LFB77:
  93              		.file 3 "ChibiOS/os/rt/include/chsys.h"
  94              		.loc 3 346 0
  95              		.cfi_startproc
  96              		@ args = 0, pretend = 0, frame = 0
  97              		@ frame_needed = 0, uses_anonymous_args = 0
  98 0000 10B5     		push	{r4, lr}
  99              		.cfi_def_cfa_offset 8
 100              		.cfi_offset 4, -8
 101              		.cfi_offset 14, -4
 102              		.loc 3 348 0
 103 0002 FFF7FEFF 		bl	port_lock
 104              		.loc 3 350 0
 105 0006 FFF7FEFF 		bl	_dbg_check_lock
 106              		.loc 3 351 0
 107 000a C046     		nop
 108              		@ sp needed
 109 000c 10BD     		pop	{r4, pc}
 110              		.cfi_endproc
 111              	.LFE77:
 112              		.size	chSysLock, .-chSysLock
 113 000e C046     		.section	.text.chSysUnlock,"ax",%progbits
 114              		.align	1
ARM GAS  /tmp/ccHXpRvH.s 			page 3


 115              		.p2align 4,,15
 116              		.syntax unified
 117              		.code	16
 118              		.thumb_func
 119              		.fpu softvfp
 120              		.type	chSysUnlock, %function
 121              	chSysUnlock:
 122              	.LFB78:
 123              		.loc 3 358 0
 124              		.cfi_startproc
 125              		@ args = 0, pretend = 0, frame = 0
 126              		@ frame_needed = 0, uses_anonymous_args = 0
 127 0000 10B5     		push	{r4, lr}
 128              		.cfi_def_cfa_offset 8
 129              		.cfi_offset 4, -8
 130              		.cfi_offset 14, -4
 131              		.loc 3 360 0
 132 0002 FFF7FEFF 		bl	_dbg_check_unlock
 133              		.loc 3 367 0
 134 0006 0A4B     		ldr	r3, .L6
 135 0008 1A68     		ldr	r2, [r3]
 136 000a 094B     		ldr	r3, .L6
 137 000c 9A42     		cmp	r2, r3
 138 000e 0BD0     		beq	.L5
 139              		.loc 3 367 0 is_stmt 0 discriminator 2
 140 0010 074B     		ldr	r3, .L6
 141 0012 9B69     		ldr	r3, [r3, #24]
 142 0014 9A68     		ldr	r2, [r3, #8]
 143 0016 064B     		ldr	r3, .L6
 144 0018 1B68     		ldr	r3, [r3]
 145 001a 9B68     		ldr	r3, [r3, #8]
 146 001c 9A42     		cmp	r2, r3
 147 001e 03D2     		bcs	.L5
 148              		.loc 3 367 0 discriminator 3
 149 0020 044B     		ldr	r3, .L6+4
 150 0022 1800     		movs	r0, r3
 151 0024 FFF7FEFF 		bl	chSysHalt
 152              	.L5:
 153              		.loc 3 371 0 is_stmt 1
 154 0028 FFF7FEFF 		bl	port_unlock
 155              		.loc 3 372 0
 156 002c C046     		nop
 157              		@ sp needed
 158 002e 10BD     		pop	{r4, pc}
 159              	.L7:
 160              		.align	2
 161              	.L6:
 162 0030 00000000 		.word	ch
 163 0034 00000000 		.word	__func__.4993
 164              		.cfi_endproc
 165              	.LFE78:
 166              		.size	chSysUnlock, .-chSysUnlock
 167              		.section	.text.chThdAddRef,"ax",%progbits
 168              		.align	1
 169              		.p2align 4,,15
 170              		.global	chThdAddRef
 171              		.syntax unified
ARM GAS  /tmp/ccHXpRvH.s 			page 4


 172              		.code	16
 173              		.thumb_func
 174              		.fpu softvfp
 175              		.type	chThdAddRef, %function
 176              	chThdAddRef:
 177              	.LFB152:
 178              		.file 4 "ChibiOS/os/rt/src/chdynamic.c"
 179              		.loc 4 68 0
 180              		.cfi_startproc
 181              		@ args = 0, pretend = 0, frame = 8
 182              		@ frame_needed = 0, uses_anonymous_args = 0
 183 0000 00B5     		push	{lr}
 184              		.cfi_def_cfa_offset 4
 185              		.cfi_offset 14, -4
 186 0002 83B0     		sub	sp, sp, #12
 187              		.cfi_def_cfa_offset 16
 188 0004 0190     		str	r0, [sp, #4]
 189              		.loc 4 70 0
 190 0006 FFF7FEFF 		bl	chSysLock
 191              		.loc 4 71 0
 192 000a 019B     		ldr	r3, [sp, #4]
 193 000c 2222     		movs	r2, #34
 194 000e 9B5C     		ldrb	r3, [r3, r2]
 195 0010 FF2B     		cmp	r3, #255
 196 0012 03D1     		bne	.L9
 197              		.loc 4 71 0 is_stmt 0 discriminator 2
 198 0014 084B     		ldr	r3, .L11
 199 0016 1800     		movs	r0, r3
 200 0018 FFF7FEFF 		bl	chSysHalt
 201              	.L9:
 202              		.loc 4 72 0 is_stmt 1
 203 001c 019B     		ldr	r3, [sp, #4]
 204 001e 2222     		movs	r2, #34
 205 0020 9B5C     		ldrb	r3, [r3, r2]
 206 0022 0133     		adds	r3, r3, #1
 207 0024 D9B2     		uxtb	r1, r3
 208 0026 019B     		ldr	r3, [sp, #4]
 209 0028 2222     		movs	r2, #34
 210 002a 9954     		strb	r1, [r3, r2]
 211              		.loc 4 73 0
 212 002c FFF7FEFF 		bl	chSysUnlock
 213              		.loc 4 75 0
 214 0030 019B     		ldr	r3, [sp, #4]
 215              		.loc 4 76 0
 216 0032 1800     		movs	r0, r3
 217 0034 03B0     		add	sp, sp, #12
 218              		@ sp needed
 219 0036 00BD     		pop	{pc}
 220              	.L12:
 221              		.align	2
 222              	.L11:
 223 0038 00000000 		.word	__func__.5696
 224              		.cfi_endproc
 225              	.LFE152:
 226              		.size	chThdAddRef, .-chThdAddRef
 227              		.section	.text.chThdRelease,"ax",%progbits
 228              		.align	1
ARM GAS  /tmp/ccHXpRvH.s 			page 5


 229              		.p2align 4,,15
 230              		.global	chThdRelease
 231              		.syntax unified
 232              		.code	16
 233              		.thumb_func
 234              		.fpu softvfp
 235              		.type	chThdRelease, %function
 236              	chThdRelease:
 237              	.LFB153:
 238              		.loc 4 91 0
 239              		.cfi_startproc
 240              		@ args = 0, pretend = 0, frame = 16
 241              		@ frame_needed = 0, uses_anonymous_args = 0
 242 0000 00B5     		push	{lr}
 243              		.cfi_def_cfa_offset 4
 244              		.cfi_offset 14, -4
 245 0002 85B0     		sub	sp, sp, #20
 246              		.cfi_def_cfa_offset 24
 247 0004 0190     		str	r0, [sp, #4]
 248              		.loc 4 94 0
 249 0006 FFF7FEFF 		bl	chSysLock
 250              		.loc 4 95 0
 251 000a 019B     		ldr	r3, [sp, #4]
 252 000c 2222     		movs	r2, #34
 253 000e 9B5C     		ldrb	r3, [r3, r2]
 254 0010 002B     		cmp	r3, #0
 255 0012 03D1     		bne	.L14
 256              		.loc 4 95 0 is_stmt 0 discriminator 2
 257 0014 274B     		ldr	r3, .L20
 258 0016 1800     		movs	r0, r3
 259 0018 FFF7FEFF 		bl	chSysHalt
 260              	.L14:
 261              		.loc 4 96 0 is_stmt 1
 262 001c 019B     		ldr	r3, [sp, #4]
 263 001e 2222     		movs	r2, #34
 264 0020 9B5C     		ldrb	r3, [r3, r2]
 265 0022 013B     		subs	r3, r3, #1
 266 0024 D9B2     		uxtb	r1, r3
 267 0026 019B     		ldr	r3, [sp, #4]
 268 0028 2222     		movs	r2, #34
 269 002a 9954     		strb	r1, [r3, r2]
 270              		.loc 4 97 0
 271 002c 0F23     		movs	r3, #15
 272 002e 6B44     		add	r3, r3, sp
 273 0030 019A     		ldr	r2, [sp, #4]
 274 0032 2221     		movs	r1, #34
 275 0034 525C     		ldrb	r2, [r2, r1]
 276 0036 1A70     		strb	r2, [r3]
 277              		.loc 4 102 0
 278 0038 0F23     		movs	r3, #15
 279 003a 6B44     		add	r3, r3, sp
 280 003c 1B78     		ldrb	r3, [r3]
 281 003e 002B     		cmp	r3, #0
 282 0040 34D1     		bne	.L15
 283              		.loc 4 102 0 is_stmt 0 discriminator 1
 284 0042 019B     		ldr	r3, [sp, #4]
 285 0044 2022     		movs	r2, #32
ARM GAS  /tmp/ccHXpRvH.s 			page 6


 286 0046 9B5C     		ldrb	r3, [r3, r2]
 287 0048 0F2B     		cmp	r3, #15
 288 004a 2FD1     		bne	.L15
 289              		.loc 4 103 0 is_stmt 1
 290 004c 019B     		ldr	r3, [sp, #4]
 291 004e 2122     		movs	r2, #33
 292 0050 9B5C     		ldrb	r3, [r3, r2]
 293 0052 1A00     		movs	r2, r3
 294 0054 0323     		movs	r3, #3
 295 0056 1340     		ands	r3, r2
 296 0058 012B     		cmp	r3, #1
 297 005a 02D0     		beq	.L17
 298 005c 022B     		cmp	r3, #2
 299 005e 11D0     		beq	.L18
 300              		.loc 4 125 0
 301 0060 24E0     		b	.L15
 302              	.L17:
 303              		.loc 4 107 0
 304 0062 019B     		ldr	r3, [sp, #4]
 305 0064 5B69     		ldr	r3, [r3, #20]
 306 0066 019A     		ldr	r2, [sp, #4]
 307 0068 1269     		ldr	r2, [r2, #16]
 308 006a 1A61     		str	r2, [r3, #16]
 309 006c 019B     		ldr	r3, [sp, #4]
 310 006e 1B69     		ldr	r3, [r3, #16]
 311 0070 019A     		ldr	r2, [sp, #4]
 312 0072 5269     		ldr	r2, [r2, #20]
 313 0074 5A61     		str	r2, [r3, #20]
 314              		.loc 4 109 0
 315 0076 FFF7FEFF 		bl	chSysUnlock
 316              		.loc 4 110 0
 317 007a 019B     		ldr	r3, [sp, #4]
 318 007c 1800     		movs	r0, r3
 319 007e FFF7FEFF 		bl	chHeapFree
 320              		.loc 4 111 0
 321 0082 15E0     		b	.L13
 322              	.L18:
 323              		.loc 4 116 0
 324 0084 019B     		ldr	r3, [sp, #4]
 325 0086 5B69     		ldr	r3, [r3, #20]
 326 0088 019A     		ldr	r2, [sp, #4]
 327 008a 1269     		ldr	r2, [r2, #16]
 328 008c 1A61     		str	r2, [r3, #16]
 329 008e 019B     		ldr	r3, [sp, #4]
 330 0090 1B69     		ldr	r3, [r3, #16]
 331 0092 019A     		ldr	r2, [sp, #4]
 332 0094 5269     		ldr	r2, [r2, #20]
 333 0096 5A61     		str	r2, [r3, #20]
 334              		.loc 4 118 0
 335 0098 FFF7FEFF 		bl	chSysUnlock
 336              		.loc 4 119 0
 337 009c 019B     		ldr	r3, [sp, #4]
 338 009e 5B6C     		ldr	r3, [r3, #68]
 339 00a0 019A     		ldr	r2, [sp, #4]
 340 00a2 1100     		movs	r1, r2
 341 00a4 1800     		movs	r0, r3
 342 00a6 FFF7FEFF 		bl	chPoolFree
ARM GAS  /tmp/ccHXpRvH.s 			page 7


 343              		.loc 4 120 0
 344 00aa 01E0     		b	.L13
 345              	.L15:
 346              		.loc 4 128 0
 347 00ac FFF7FEFF 		bl	chSysUnlock
 348              	.L13:
 349              		.loc 4 129 0
 350 00b0 05B0     		add	sp, sp, #20
 351              		@ sp needed
 352 00b2 00BD     		pop	{pc}
 353              	.L21:
 354              		.align	2
 355              	.L20:
 356 00b4 00000000 		.word	__func__.5701
 357              		.cfi_endproc
 358              	.LFE153:
 359              		.size	chThdRelease, .-chThdRelease
 360              		.section	.text.chThdCreateFromHeap,"ax",%progbits
 361              		.align	1
 362              		.p2align 4,,15
 363              		.global	chThdCreateFromHeap
 364              		.syntax unified
 365              		.code	16
 366              		.thumb_func
 367              		.fpu softvfp
 368              		.type	chThdCreateFromHeap, %function
 369              	chThdCreateFromHeap:
 370              	.LFB154:
 371              		.loc 4 155 0
 372              		.cfi_startproc
 373              		@ args = 4, pretend = 0, frame = 24
 374              		@ frame_needed = 0, uses_anonymous_args = 0
 375 0000 10B5     		push	{r4, lr}
 376              		.cfi_def_cfa_offset 8
 377              		.cfi_offset 4, -8
 378              		.cfi_offset 14, -4
 379 0002 88B0     		sub	sp, sp, #32
 380              		.cfi_def_cfa_offset 40
 381 0004 0590     		str	r0, [sp, #20]
 382 0006 0491     		str	r1, [sp, #16]
 383 0008 0392     		str	r2, [sp, #12]
 384 000a 0293     		str	r3, [sp, #8]
 385              		.loc 4 159 0
 386 000c 049A     		ldr	r2, [sp, #16]
 387 000e 059B     		ldr	r3, [sp, #20]
 388 0010 1100     		movs	r1, r2
 389 0012 1800     		movs	r0, r3
 390 0014 FFF7FEFF 		bl	chHeapAlloc
 391 0018 0300     		movs	r3, r0
 392 001a 0793     		str	r3, [sp, #28]
 393              		.loc 4 160 0
 394 001c 079B     		ldr	r3, [sp, #28]
 395 001e 002B     		cmp	r3, #0
 396 0020 01D1     		bne	.L23
 397              		.loc 4 161 0
 398 0022 0023     		movs	r3, #0
 399 0024 2AE0     		b	.L24
ARM GAS  /tmp/ccHXpRvH.s 			page 8


 400              	.L23:
 401              		.loc 4 165 0
 402 0026 079B     		ldr	r3, [sp, #28]
 403 0028 4833     		adds	r3, r3, #72
 404 002a 1900     		movs	r1, r3
 405 002c 079B     		ldr	r3, [sp, #28]
 406 002e FF22     		movs	r2, #255
 407 0030 1800     		movs	r0, r3
 408 0032 FFF7FEFF 		bl	_thread_memfill
 409              		.loc 4 168 0
 410 0036 079B     		ldr	r3, [sp, #28]
 411 0038 4833     		adds	r3, r3, #72
 412 003a 1800     		movs	r0, r3
 413 003c 079A     		ldr	r2, [sp, #28]
 414 003e 049B     		ldr	r3, [sp, #16]
 415 0040 D318     		adds	r3, r2, r3
 416 0042 5522     		movs	r2, #85
 417 0044 1900     		movs	r1, r3
 418 0046 FFF7FEFF 		bl	_thread_memfill
 419              		.loc 4 173 0
 420 004a FFF7FEFF 		bl	chSysLock
 421              		.loc 4 174 0
 422 004e 029C     		ldr	r4, [sp, #8]
 423 0050 039A     		ldr	r2, [sp, #12]
 424 0052 0499     		ldr	r1, [sp, #16]
 425 0054 0798     		ldr	r0, [sp, #28]
 426 0056 0A9B     		ldr	r3, [sp, #40]
 427 0058 0093     		str	r3, [sp]
 428 005a 2300     		movs	r3, r4
 429 005c FFF7FEFF 		bl	chThdCreateI
 430 0060 0300     		movs	r3, r0
 431 0062 0693     		str	r3, [sp, #24]
 432              		.loc 4 175 0
 433 0064 069B     		ldr	r3, [sp, #24]
 434 0066 2122     		movs	r2, #33
 435 0068 0121     		movs	r1, #1
 436 006a 9954     		strb	r1, [r3, r2]
 437              		.loc 4 176 0
 438 006c 069B     		ldr	r3, [sp, #24]
 439 006e 0021     		movs	r1, #0
 440 0070 1800     		movs	r0, r3
 441 0072 FFF7FEFF 		bl	chSchWakeupS
 442              		.loc 4 177 0
 443 0076 FFF7FEFF 		bl	chSysUnlock
 444              		.loc 4 179 0
 445 007a 069B     		ldr	r3, [sp, #24]
 446              	.L24:
 447              		.loc 4 180 0
 448 007c 1800     		movs	r0, r3
 449 007e 08B0     		add	sp, sp, #32
 450              		@ sp needed
 451 0080 10BD     		pop	{r4, pc}
 452              		.cfi_endproc
 453              	.LFE154:
 454              		.size	chThdCreateFromHeap, .-chThdCreateFromHeap
 455 0082 C046     		.section	.text.chThdCreateFromMemoryPool,"ax",%progbits
 456              		.align	1
ARM GAS  /tmp/ccHXpRvH.s 			page 9


 457              		.p2align 4,,15
 458              		.global	chThdCreateFromMemoryPool
 459              		.syntax unified
 460              		.code	16
 461              		.thumb_func
 462              		.fpu softvfp
 463              		.type	chThdCreateFromMemoryPool, %function
 464              	chThdCreateFromMemoryPool:
 465              	.LFB155:
 466              		.loc 4 207 0
 467              		.cfi_startproc
 468              		@ args = 0, pretend = 0, frame = 24
 469              		@ frame_needed = 0, uses_anonymous_args = 0
 470 0000 10B5     		push	{r4, lr}
 471              		.cfi_def_cfa_offset 8
 472              		.cfi_offset 4, -8
 473              		.cfi_offset 14, -4
 474 0002 88B0     		sub	sp, sp, #32
 475              		.cfi_def_cfa_offset 40
 476 0004 0590     		str	r0, [sp, #20]
 477 0006 0491     		str	r1, [sp, #16]
 478 0008 0392     		str	r2, [sp, #12]
 479 000a 0293     		str	r3, [sp, #8]
 480              		.loc 4 211 0
 481 000c 059B     		ldr	r3, [sp, #20]
 482 000e 002B     		cmp	r3, #0
 483 0010 03D1     		bne	.L26
 484              		.loc 4 211 0 is_stmt 0 discriminator 2
 485 0012 214B     		ldr	r3, .L29
 486 0014 1800     		movs	r0, r3
 487 0016 FFF7FEFF 		bl	chSysHalt
 488              	.L26:
 489              		.loc 4 213 0 is_stmt 1
 490 001a 059B     		ldr	r3, [sp, #20]
 491 001c 1800     		movs	r0, r3
 492 001e FFF7FEFF 		bl	chPoolAlloc
 493 0022 0300     		movs	r3, r0
 494 0024 0793     		str	r3, [sp, #28]
 495              		.loc 4 214 0
 496 0026 079B     		ldr	r3, [sp, #28]
 497 0028 002B     		cmp	r3, #0
 498 002a 01D1     		bne	.L27
 499              		.loc 4 215 0
 500 002c 0023     		movs	r3, #0
 501 002e 2FE0     		b	.L28
 502              	.L27:
 503              		.loc 4 219 0
 504 0030 079B     		ldr	r3, [sp, #28]
 505 0032 4833     		adds	r3, r3, #72
 506 0034 1900     		movs	r1, r3
 507 0036 079B     		ldr	r3, [sp, #28]
 508 0038 FF22     		movs	r2, #255
 509 003a 1800     		movs	r0, r3
 510 003c FFF7FEFF 		bl	_thread_memfill
 511              		.loc 4 222 0
 512 0040 079B     		ldr	r3, [sp, #28]
 513 0042 4833     		adds	r3, r3, #72
ARM GAS  /tmp/ccHXpRvH.s 			page 10


 514 0044 1800     		movs	r0, r3
 515              		.loc 4 223 0
 516 0046 059B     		ldr	r3, [sp, #20]
 517 0048 5B68     		ldr	r3, [r3, #4]
 518              		.loc 4 222 0
 519 004a 079A     		ldr	r2, [sp, #28]
 520 004c D318     		adds	r3, r2, r3
 521 004e 5522     		movs	r2, #85
 522 0050 1900     		movs	r1, r3
 523 0052 FFF7FEFF 		bl	_thread_memfill
 524              		.loc 4 227 0
 525 0056 FFF7FEFF 		bl	chSysLock
 526              		.loc 4 228 0
 527 005a 059B     		ldr	r3, [sp, #20]
 528 005c 5968     		ldr	r1, [r3, #4]
 529 005e 039C     		ldr	r4, [sp, #12]
 530 0060 049A     		ldr	r2, [sp, #16]
 531 0062 0798     		ldr	r0, [sp, #28]
 532 0064 029B     		ldr	r3, [sp, #8]
 533 0066 0093     		str	r3, [sp]
 534 0068 2300     		movs	r3, r4
 535 006a FFF7FEFF 		bl	chThdCreateI
 536 006e 0300     		movs	r3, r0
 537 0070 0693     		str	r3, [sp, #24]
 538              		.loc 4 229 0
 539 0072 069B     		ldr	r3, [sp, #24]
 540 0074 2122     		movs	r2, #33
 541 0076 0221     		movs	r1, #2
 542 0078 9954     		strb	r1, [r3, r2]
 543              		.loc 4 230 0
 544 007a 069B     		ldr	r3, [sp, #24]
 545 007c 059A     		ldr	r2, [sp, #20]
 546 007e 5A64     		str	r2, [r3, #68]
 547              		.loc 4 231 0
 548 0080 069B     		ldr	r3, [sp, #24]
 549 0082 0021     		movs	r1, #0
 550 0084 1800     		movs	r0, r3
 551 0086 FFF7FEFF 		bl	chSchWakeupS
 552              		.loc 4 232 0
 553 008a FFF7FEFF 		bl	chSysUnlock
 554              		.loc 4 234 0
 555 008e 069B     		ldr	r3, [sp, #24]
 556              	.L28:
 557              		.loc 4 235 0
 558 0090 1800     		movs	r0, r3
 559 0092 08B0     		add	sp, sp, #32
 560              		@ sp needed
 561 0094 10BD     		pop	{r4, pc}
 562              	.L30:
 563 0096 C046     		.align	2
 564              	.L29:
 565 0098 00000000 		.word	__func__.5723
 566              		.cfi_endproc
 567              	.LFE155:
 568              		.size	chThdCreateFromMemoryPool, .-chThdCreateFromMemoryPool
 569              		.section	.rodata.__func__.5696,"a",%progbits
 570              		.align	2
ARM GAS  /tmp/ccHXpRvH.s 			page 11


 571              		.type	__func__.5696, %object
 572              		.size	__func__.5696, 12
 573              	__func__.5696:
 574 0000 63685468 		.ascii	"chThdAddRef\000"
 574      64416464 
 574      52656600 
 575              		.section	.rodata.__func__.4993,"a",%progbits
 576              		.align	2
 577              		.type	__func__.4993, %object
 578              		.size	__func__.4993, 12
 579              	__func__.4993:
 580 0000 63685379 		.ascii	"chSysUnlock\000"
 580      73556E6C 
 580      6F636B00 
 581              		.section	.rodata.__func__.5701,"a",%progbits
 582              		.align	2
 583              		.type	__func__.5701, %object
 584              		.size	__func__.5701, 13
 585              	__func__.5701:
 586 0000 63685468 		.ascii	"chThdRelease\000"
 586      6452656C 
 586      65617365 
 586      00
 587              		.section	.rodata.__func__.5723,"a",%progbits
 588              		.align	2
 589              		.type	__func__.5723, %object
 590              		.size	__func__.5723, 26
 591              	__func__.5723:
 592 0000 63685468 		.ascii	"chThdCreateFromMemoryPool\000"
 592      64437265 
 592      61746546 
 592      726F6D4D 
 592      656D6F72 
 593              		.text
 594              	.Letext0:
 595              		.file 5 "/home/felix/opt/gcc-arm-none-eabi-6-2017-q1-update/lib/gcc/arm-none-eabi/6.3.1/include/st
 596              		.file 6 "/home/felix/opt/gcc-arm-none-eabi-6-2017-q1-update/arm-none-eabi/include/machine/_default
 597              		.file 7 "/home/felix/opt/gcc-arm-none-eabi-6-2017-q1-update/arm-none-eabi/include/sys/_stdint.h"
 598              		.file 8 "ChibiOS/os/rt/ports/ARMCMx/compilers/GCC/chtypes.h"
 599              		.file 9 "ChibiOS/os/rt/include/chsystypes.h"
 600              		.file 10 "ChibiOS/os/rt/include/chschd.h"
 601              		.file 11 "ChibiOS/os/rt/ports/ARMCMx/chcore.h"
 602              		.file 12 "ChibiOS/os/rt/include/chdebug.h"
 603              		.file 13 "ChibiOS/os/rt/include/chsem.h"
 604              		.file 14 "ChibiOS/os/rt/include/chmtx.h"
 605              		.file 15 "ChibiOS/os/rt/include/chthreads.h"
 606              		.file 16 "ChibiOS/os/rt/include/chregistry.h"
 607              		.file 17 "ChibiOS/os/ext/CMSIS/ST/STM32F0xx/system_stm32f0xx.h"
 608              		.file 18 "ChibiOS/os/rt/include/chmemcore.h"
 609              		.file 19 "ChibiOS/os/rt/include/chheap.h"
 610              		.file 20 "ChibiOS/os/rt/include/chmempools.h"