ARM GAS  /tmp/cch1BZg1.s 			page 1


   1              		.cpu cortex-m0
   2              		.eabi_attribute 20, 1
   3              		.eabi_attribute 21, 1
   4              		.eabi_attribute 23, 3
   5              		.eabi_attribute 24, 1
   6              		.eabi_attribute 25, 1
   7              		.eabi_attribute 26, 1
   8              		.eabi_attribute 30, 6
   9              		.eabi_attribute 34, 0
  10              		.eabi_attribute 18, 4
  11              		.file	"chevents.c"
  12              		.text
  13              	.Ltext0:
  14              		.cfi_sections	.debug_frame
  15              		.section	.text.port_lock,"ax",%progbits
  16              		.align	1
  17              		.p2align 4,,15
  18              		.syntax unified
  19              		.code	16
  20              		.thumb_func
  21              		.fpu softvfp
  22              		.type	port_lock, %function
  23              	port_lock:
  24              	.LFB38:
  25              		.file 1 "ChibiOS/os/rt/ports/ARMCMx/chcore_v6m.h"
  26              		.loc 1 330 0
  27              		.cfi_startproc
  28              		@ args = 0, pretend = 0, frame = 0
  29              		@ frame_needed = 0, uses_anonymous_args = 0
  30              		@ link register save eliminated.
  31              	.LBB6:
  32              	.LBB7:
  33              		.file 2 "ChibiOS/os/ext/CMSIS/include/core_cmFunc.h"
  34              		.loc 2 344 0
  35              		.syntax divided
  36              	@ 344 "ChibiOS/os/ext/CMSIS/include/core_cmFunc.h" 1
  37 0000 72B6     		cpsid i
  38              	@ 0 "" 2
  39              		.thumb
  40              		.syntax unified
  41              	.LBE7:
  42              	.LBE6:
  43              		.loc 1 333 0
  44 0002 C046     		nop
  45              		@ sp needed
  46 0004 7047     		bx	lr
  47              		.cfi_endproc
  48              	.LFE38:
  49              		.size	port_lock, .-port_lock
  50 0006 C046     		.section	.text.port_unlock,"ax",%progbits
  51              		.align	1
  52              		.p2align 4,,15
  53              		.syntax unified
  54              		.code	16
  55              		.thumb_func
  56              		.fpu softvfp
  57              		.type	port_unlock, %function
ARM GAS  /tmp/cch1BZg1.s 			page 2


  58              	port_unlock:
  59              	.LFB39:
  60              		.loc 1 339 0
  61              		.cfi_startproc
  62              		@ args = 0, pretend = 0, frame = 0
  63              		@ frame_needed = 0, uses_anonymous_args = 0
  64              		@ link register save eliminated.
  65              	.LBB8:
  66              	.LBB9:
  67              		.loc 2 333 0
  68              		.syntax divided
  69              	@ 333 "ChibiOS/os/ext/CMSIS/include/core_cmFunc.h" 1
  70 0000 62B6     		cpsie i
  71              	@ 0 "" 2
  72              		.thumb
  73              		.syntax unified
  74              	.LBE9:
  75              	.LBE8:
  76              		.loc 1 342 0
  77 0002 C046     		nop
  78              		@ sp needed
  79 0004 7047     		bx	lr
  80              		.cfi_endproc
  81              	.LFE39:
  82              		.size	port_unlock, .-port_unlock
  83 0006 C046     		.section	.text.chSysLock,"ax",%progbits
  84              		.align	1
  85              		.p2align 4,,15
  86              		.syntax unified
  87              		.code	16
  88              		.thumb_func
  89              		.fpu softvfp
  90              		.type	chSysLock, %function
  91              	chSysLock:
  92              	.LFB77:
  93              		.file 3 "ChibiOS/os/rt/include/chsys.h"
  94              		.loc 3 346 0
  95              		.cfi_startproc
  96              		@ args = 0, pretend = 0, frame = 0
  97              		@ frame_needed = 0, uses_anonymous_args = 0
  98 0000 10B5     		push	{r4, lr}
  99              		.cfi_def_cfa_offset 8
 100              		.cfi_offset 4, -8
 101              		.cfi_offset 14, -4
 102              		.loc 3 348 0
 103 0002 FFF7FEFF 		bl	port_lock
 104              		.loc 3 350 0
 105 0006 FFF7FEFF 		bl	_dbg_check_lock
 106              		.loc 3 351 0
 107 000a C046     		nop
 108              		@ sp needed
 109 000c 10BD     		pop	{r4, pc}
 110              		.cfi_endproc
 111              	.LFE77:
 112              		.size	chSysLock, .-chSysLock
 113 000e C046     		.section	.text.chSysUnlock,"ax",%progbits
 114              		.align	1
ARM GAS  /tmp/cch1BZg1.s 			page 3


 115              		.p2align 4,,15
 116              		.syntax unified
 117              		.code	16
 118              		.thumb_func
 119              		.fpu softvfp
 120              		.type	chSysUnlock, %function
 121              	chSysUnlock:
 122              	.LFB78:
 123              		.loc 3 358 0
 124              		.cfi_startproc
 125              		@ args = 0, pretend = 0, frame = 0
 126              		@ frame_needed = 0, uses_anonymous_args = 0
 127 0000 10B5     		push	{r4, lr}
 128              		.cfi_def_cfa_offset 8
 129              		.cfi_offset 4, -8
 130              		.cfi_offset 14, -4
 131              		.loc 3 360 0
 132 0002 FFF7FEFF 		bl	_dbg_check_unlock
 133              		.loc 3 367 0
 134 0006 0A4B     		ldr	r3, .L6
 135 0008 1A68     		ldr	r2, [r3]
 136 000a 094B     		ldr	r3, .L6
 137 000c 9A42     		cmp	r2, r3
 138 000e 0BD0     		beq	.L5
 139              		.loc 3 367 0 is_stmt 0 discriminator 2
 140 0010 074B     		ldr	r3, .L6
 141 0012 9B69     		ldr	r3, [r3, #24]
 142 0014 9A68     		ldr	r2, [r3, #8]
 143 0016 064B     		ldr	r3, .L6
 144 0018 1B68     		ldr	r3, [r3]
 145 001a 9B68     		ldr	r3, [r3, #8]
 146 001c 9A42     		cmp	r2, r3
 147 001e 03D2     		bcs	.L5
 148              		.loc 3 367 0 discriminator 3
 149 0020 044B     		ldr	r3, .L6+4
 150 0022 1800     		movs	r0, r3
 151 0024 FFF7FEFF 		bl	chSysHalt
 152              	.L5:
 153              		.loc 3 371 0 is_stmt 1
 154 0028 FFF7FEFF 		bl	port_unlock
 155              		.loc 3 372 0
 156 002c C046     		nop
 157              		@ sp needed
 158 002e 10BD     		pop	{r4, pc}
 159              	.L7:
 160              		.align	2
 161              	.L6:
 162 0030 00000000 		.word	ch
 163 0034 00000000 		.word	__func__.4993
 164              		.cfi_endproc
 165              	.LFE78:
 166              		.size	chSysUnlock, .-chSysUnlock
 167              		.section	.text.chEvtRegisterMaskWithFlags,"ax",%progbits
 168              		.align	1
 169              		.p2align 4,,15
 170              		.global	chEvtRegisterMaskWithFlags
 171              		.syntax unified
ARM GAS  /tmp/cch1BZg1.s 			page 4


 172              		.code	16
 173              		.thumb_func
 174              		.fpu softvfp
 175              		.type	chEvtRegisterMaskWithFlags, %function
 176              	chEvtRegisterMaskWithFlags:
 177              	.LFB152:
 178              		.file 4 "ChibiOS/os/rt/src/chevents.c"
 179              		.loc 4 106 0
 180              		.cfi_startproc
 181              		@ args = 0, pretend = 0, frame = 16
 182              		@ frame_needed = 0, uses_anonymous_args = 0
 183 0000 00B5     		push	{lr}
 184              		.cfi_def_cfa_offset 4
 185              		.cfi_offset 14, -4
 186 0002 85B0     		sub	sp, sp, #20
 187              		.cfi_def_cfa_offset 24
 188 0004 0390     		str	r0, [sp, #12]
 189 0006 0291     		str	r1, [sp, #8]
 190 0008 0192     		str	r2, [sp, #4]
 191 000a 0093     		str	r3, [sp]
 192              		.loc 4 108 0
 193 000c 039B     		ldr	r3, [sp, #12]
 194 000e 002B     		cmp	r3, #0
 195 0010 02D0     		beq	.L9
 196              		.loc 4 108 0 is_stmt 0 discriminator 3
 197 0012 029B     		ldr	r3, [sp, #8]
 198 0014 002B     		cmp	r3, #0
 199 0016 03D1     		bne	.L10
 200              	.L9:
 201              		.loc 4 108 0 discriminator 4
 202 0018 0F4B     		ldr	r3, .L11
 203 001a 1800     		movs	r0, r3
 204 001c FFF7FEFF 		bl	chSysHalt
 205              	.L10:
 206              		.loc 4 110 0 is_stmt 1
 207 0020 FFF7FEFF 		bl	chSysLock
 208              		.loc 4 111 0
 209 0024 039B     		ldr	r3, [sp, #12]
 210 0026 1A68     		ldr	r2, [r3]
 211 0028 029B     		ldr	r3, [sp, #8]
 212 002a 1A60     		str	r2, [r3]
 213              		.loc 4 112 0
 214 002c 039B     		ldr	r3, [sp, #12]
 215 002e 029A     		ldr	r2, [sp, #8]
 216 0030 1A60     		str	r2, [r3]
 217              		.loc 4 113 0
 218 0032 0A4B     		ldr	r3, .L11+4
 219 0034 9A69     		ldr	r2, [r3, #24]
 220 0036 029B     		ldr	r3, [sp, #8]
 221 0038 5A60     		str	r2, [r3, #4]
 222              		.loc 4 114 0
 223 003a 029B     		ldr	r3, [sp, #8]
 224 003c 019A     		ldr	r2, [sp, #4]
 225 003e 9A60     		str	r2, [r3, #8]
 226              		.loc 4 115 0
 227 0040 029B     		ldr	r3, [sp, #8]
 228 0042 0022     		movs	r2, #0
ARM GAS  /tmp/cch1BZg1.s 			page 5


 229 0044 DA60     		str	r2, [r3, #12]
 230              		.loc 4 116 0
 231 0046 029B     		ldr	r3, [sp, #8]
 232 0048 009A     		ldr	r2, [sp]
 233 004a 1A61     		str	r2, [r3, #16]
 234              		.loc 4 117 0
 235 004c FFF7FEFF 		bl	chSysUnlock
 236              		.loc 4 118 0
 237 0050 C046     		nop
 238 0052 05B0     		add	sp, sp, #20
 239              		@ sp needed
 240 0054 00BD     		pop	{pc}
 241              	.L12:
 242 0056 C046     		.align	2
 243              	.L11:
 244 0058 00000000 		.word	__func__.5699
 245 005c 00000000 		.word	ch
 246              		.cfi_endproc
 247              	.LFE152:
 248              		.size	chEvtRegisterMaskWithFlags, .-chEvtRegisterMaskWithFlags
 249              		.section	.text.chEvtUnregister,"ax",%progbits
 250              		.align	1
 251              		.p2align 4,,15
 252              		.global	chEvtUnregister
 253              		.syntax unified
 254              		.code	16
 255              		.thumb_func
 256              		.fpu softvfp
 257              		.type	chEvtUnregister, %function
 258              	chEvtUnregister:
 259              	.LFB153:
 260              		.loc 4 133 0
 261              		.cfi_startproc
 262              		@ args = 0, pretend = 0, frame = 16
 263              		@ frame_needed = 0, uses_anonymous_args = 0
 264 0000 00B5     		push	{lr}
 265              		.cfi_def_cfa_offset 4
 266              		.cfi_offset 14, -4
 267 0002 85B0     		sub	sp, sp, #20
 268              		.cfi_def_cfa_offset 24
 269 0004 0190     		str	r0, [sp, #4]
 270 0006 0091     		str	r1, [sp]
 271              		.loc 4 136 0
 272 0008 019B     		ldr	r3, [sp, #4]
 273 000a 002B     		cmp	r3, #0
 274 000c 02D0     		beq	.L14
 275              		.loc 4 136 0 is_stmt 0 discriminator 3
 276 000e 009B     		ldr	r3, [sp]
 277 0010 002B     		cmp	r3, #0
 278 0012 03D1     		bne	.L15
 279              	.L14:
 280              		.loc 4 136 0 discriminator 4
 281 0014 0F4B     		ldr	r3, .L20
 282 0016 1800     		movs	r0, r3
 283 0018 FFF7FEFF 		bl	chSysHalt
 284              	.L15:
 285              		.loc 4 139 0 is_stmt 1
ARM GAS  /tmp/cch1BZg1.s 			page 6


 286 001c 019B     		ldr	r3, [sp, #4]
 287 001e 0393     		str	r3, [sp, #12]
 288              		.loc 4 141 0
 289 0020 FFF7FEFF 		bl	chSysLock
 290              		.loc 4 143 0
 291 0024 0CE0     		b	.L16
 292              	.L19:
 293              		.loc 4 145 0
 294 0026 039B     		ldr	r3, [sp, #12]
 295 0028 1A68     		ldr	r2, [r3]
 296 002a 009B     		ldr	r3, [sp]
 297 002c 9A42     		cmp	r2, r3
 298 002e 04D1     		bne	.L17
 299              		.loc 4 146 0
 300 0030 009B     		ldr	r3, [sp]
 301 0032 1A68     		ldr	r2, [r3]
 302 0034 039B     		ldr	r3, [sp, #12]
 303 0036 1A60     		str	r2, [r3]
 304              		.loc 4 147 0
 305 0038 07E0     		b	.L18
 306              	.L17:
 307              		.loc 4 149 0
 308 003a 039B     		ldr	r3, [sp, #12]
 309 003c 1B68     		ldr	r3, [r3]
 310 003e 0393     		str	r3, [sp, #12]
 311              	.L16:
 312              		.loc 4 143 0
 313 0040 039B     		ldr	r3, [sp, #12]
 314 0042 1A68     		ldr	r2, [r3]
 315 0044 019B     		ldr	r3, [sp, #4]
 316 0046 9A42     		cmp	r2, r3
 317 0048 EDD1     		bne	.L19
 318              	.L18:
 319              		.loc 4 151 0
 320 004a FFF7FEFF 		bl	chSysUnlock
 321              		.loc 4 152 0
 322 004e C046     		nop
 323 0050 05B0     		add	sp, sp, #20
 324              		@ sp needed
 325 0052 00BD     		pop	{pc}
 326              	.L21:
 327              		.align	2
 328              	.L20:
 329 0054 00000000 		.word	__func__.5705
 330              		.cfi_endproc
 331              	.LFE153:
 332              		.size	chEvtUnregister, .-chEvtUnregister
 333              		.section	.text.chEvtGetAndClearEvents,"ax",%progbits
 334              		.align	1
 335              		.p2align 4,,15
 336              		.global	chEvtGetAndClearEvents
 337              		.syntax unified
 338              		.code	16
 339              		.thumb_func
 340              		.fpu softvfp
 341              		.type	chEvtGetAndClearEvents, %function
 342              	chEvtGetAndClearEvents:
ARM GAS  /tmp/cch1BZg1.s 			page 7


 343              	.LFB154:
 344              		.loc 4 162 0
 345              		.cfi_startproc
 346              		@ args = 0, pretend = 0, frame = 16
 347              		@ frame_needed = 0, uses_anonymous_args = 0
 348 0000 00B5     		push	{lr}
 349              		.cfi_def_cfa_offset 4
 350              		.cfi_offset 14, -4
 351 0002 85B0     		sub	sp, sp, #20
 352              		.cfi_def_cfa_offset 24
 353 0004 0190     		str	r0, [sp, #4]
 354              		.loc 4 165 0
 355 0006 FFF7FEFF 		bl	chSysLock
 356              		.loc 4 166 0
 357 000a 0A4B     		ldr	r3, .L24
 358 000c 9B69     		ldr	r3, [r3, #24]
 359 000e 9B6B     		ldr	r3, [r3, #56]
 360 0010 019A     		ldr	r2, [sp, #4]
 361 0012 1340     		ands	r3, r2
 362 0014 0393     		str	r3, [sp, #12]
 363              		.loc 4 167 0
 364 0016 074B     		ldr	r3, .L24
 365 0018 9B69     		ldr	r3, [r3, #24]
 366 001a 064A     		ldr	r2, .L24
 367 001c 9269     		ldr	r2, [r2, #24]
 368 001e 926B     		ldr	r2, [r2, #56]
 369 0020 0199     		ldr	r1, [sp, #4]
 370 0022 C943     		mvns	r1, r1
 371 0024 0A40     		ands	r2, r1
 372 0026 9A63     		str	r2, [r3, #56]
 373              		.loc 4 168 0
 374 0028 FFF7FEFF 		bl	chSysUnlock
 375              		.loc 4 170 0
 376 002c 039B     		ldr	r3, [sp, #12]
 377              		.loc 4 171 0
 378 002e 1800     		movs	r0, r3
 379 0030 05B0     		add	sp, sp, #20
 380              		@ sp needed
 381 0032 00BD     		pop	{pc}
 382              	.L25:
 383              		.align	2
 384              	.L24:
 385 0034 00000000 		.word	ch
 386              		.cfi_endproc
 387              	.LFE154:
 388              		.size	chEvtGetAndClearEvents, .-chEvtGetAndClearEvents
 389              		.section	.text.chEvtAddEvents,"ax",%progbits
 390              		.align	1
 391              		.p2align 4,,15
 392              		.global	chEvtAddEvents
 393              		.syntax unified
 394              		.code	16
 395              		.thumb_func
 396              		.fpu softvfp
 397              		.type	chEvtAddEvents, %function
 398              	chEvtAddEvents:
 399              	.LFB155:
ARM GAS  /tmp/cch1BZg1.s 			page 8


 400              		.loc 4 182 0
 401              		.cfi_startproc
 402              		@ args = 0, pretend = 0, frame = 8
 403              		@ frame_needed = 0, uses_anonymous_args = 0
 404 0000 00B5     		push	{lr}
 405              		.cfi_def_cfa_offset 4
 406              		.cfi_offset 14, -4
 407 0002 83B0     		sub	sp, sp, #12
 408              		.cfi_def_cfa_offset 16
 409 0004 0190     		str	r0, [sp, #4]
 410              		.loc 4 184 0
 411 0006 FFF7FEFF 		bl	chSysLock
 412              		.loc 4 185 0
 413 000a 094B     		ldr	r3, .L28
 414 000c 9B69     		ldr	r3, [r3, #24]
 415 000e 084A     		ldr	r2, .L28
 416 0010 9269     		ldr	r2, [r2, #24]
 417 0012 916B     		ldr	r1, [r2, #56]
 418 0014 019A     		ldr	r2, [sp, #4]
 419 0016 0A43     		orrs	r2, r1
 420 0018 9A63     		str	r2, [r3, #56]
 421              		.loc 4 186 0
 422 001a 054B     		ldr	r3, .L28
 423 001c 9B69     		ldr	r3, [r3, #24]
 424 001e 9B6B     		ldr	r3, [r3, #56]
 425 0020 0193     		str	r3, [sp, #4]
 426              		.loc 4 187 0
 427 0022 FFF7FEFF 		bl	chSysUnlock
 428              		.loc 4 189 0
 429 0026 019B     		ldr	r3, [sp, #4]
 430              		.loc 4 190 0
 431 0028 1800     		movs	r0, r3
 432 002a 03B0     		add	sp, sp, #12
 433              		@ sp needed
 434 002c 00BD     		pop	{pc}
 435              	.L29:
 436 002e C046     		.align	2
 437              	.L28:
 438 0030 00000000 		.word	ch
 439              		.cfi_endproc
 440              	.LFE155:
 441              		.size	chEvtAddEvents, .-chEvtAddEvents
 442              		.section	.text.chEvtBroadcastFlagsI,"ax",%progbits
 443              		.align	1
 444              		.p2align 4,,15
 445              		.global	chEvtBroadcastFlagsI
 446              		.syntax unified
 447              		.code	16
 448              		.thumb_func
 449              		.fpu softvfp
 450              		.type	chEvtBroadcastFlagsI, %function
 451              	chEvtBroadcastFlagsI:
 452              	.LFB156:
 453              		.loc 4 209 0
 454              		.cfi_startproc
 455              		@ args = 0, pretend = 0, frame = 16
 456              		@ frame_needed = 0, uses_anonymous_args = 0
ARM GAS  /tmp/cch1BZg1.s 			page 9


 457 0000 00B5     		push	{lr}
 458              		.cfi_def_cfa_offset 4
 459              		.cfi_offset 14, -4
 460 0002 85B0     		sub	sp, sp, #20
 461              		.cfi_def_cfa_offset 24
 462 0004 0190     		str	r0, [sp, #4]
 463 0006 0091     		str	r1, [sp]
 464              		.loc 4 212 0
 465 0008 FFF7FEFF 		bl	chDbgCheckClassI
 466              		.loc 4 213 0
 467 000c 019B     		ldr	r3, [sp, #4]
 468 000e 002B     		cmp	r3, #0
 469 0010 03D1     		bne	.L31
 470              		.loc 4 213 0 is_stmt 0 discriminator 2
 471 0012 144B     		ldr	r3, .L36
 472 0014 1800     		movs	r0, r3
 473 0016 FFF7FEFF 		bl	chSysHalt
 474              	.L31:
 475              		.loc 4 215 0 is_stmt 1
 476 001a 019B     		ldr	r3, [sp, #4]
 477 001c 1B68     		ldr	r3, [r3]
 478 001e 0393     		str	r3, [sp, #12]
 479              		.loc 4 217 0
 480 0020 19E0     		b	.L32
 481              	.L35:
 482              		.loc 4 219 0
 483 0022 039B     		ldr	r3, [sp, #12]
 484 0024 DA68     		ldr	r2, [r3, #12]
 485 0026 009B     		ldr	r3, [sp]
 486 0028 1A43     		orrs	r2, r3
 487 002a 039B     		ldr	r3, [sp, #12]
 488 002c DA60     		str	r2, [r3, #12]
 489              		.loc 4 222 0
 490 002e 009B     		ldr	r3, [sp]
 491 0030 002B     		cmp	r3, #0
 492 0032 05D0     		beq	.L33
 493              		.loc 4 223 0 discriminator 1
 494 0034 039B     		ldr	r3, [sp, #12]
 495 0036 DA68     		ldr	r2, [r3, #12]
 496 0038 039B     		ldr	r3, [sp, #12]
 497 003a 1B69     		ldr	r3, [r3, #16]
 498 003c 1340     		ands	r3, r2
 499              		.loc 4 222 0 discriminator 1
 500 003e 07D0     		beq	.L34
 501              	.L33:
 502              		.loc 4 224 0
 503 0040 039B     		ldr	r3, [sp, #12]
 504 0042 5A68     		ldr	r2, [r3, #4]
 505 0044 039B     		ldr	r3, [sp, #12]
 506 0046 9B68     		ldr	r3, [r3, #8]
 507 0048 1900     		movs	r1, r3
 508 004a 1000     		movs	r0, r2
 509 004c FFF7FEFF 		bl	chEvtSignalI
 510              	.L34:
 511              		.loc 4 226 0
 512 0050 039B     		ldr	r3, [sp, #12]
 513 0052 1B68     		ldr	r3, [r3]
ARM GAS  /tmp/cch1BZg1.s 			page 10


 514 0054 0393     		str	r3, [sp, #12]
 515              	.L32:
 516              		.loc 4 217 0
 517 0056 039A     		ldr	r2, [sp, #12]
 518 0058 019B     		ldr	r3, [sp, #4]
 519 005a 9A42     		cmp	r2, r3
 520 005c E1D1     		bne	.L35
 521              		.loc 4 228 0
 522 005e C046     		nop
 523 0060 05B0     		add	sp, sp, #20
 524              		@ sp needed
 525 0062 00BD     		pop	{pc}
 526              	.L37:
 527              		.align	2
 528              	.L36:
 529 0064 00000000 		.word	__func__.5721
 530              		.cfi_endproc
 531              	.LFE156:
 532              		.size	chEvtBroadcastFlagsI, .-chEvtBroadcastFlagsI
 533              		.section	.text.chEvtGetAndClearFlags,"ax",%progbits
 534              		.align	1
 535              		.p2align 4,,15
 536              		.global	chEvtGetAndClearFlags
 537              		.syntax unified
 538              		.code	16
 539              		.thumb_func
 540              		.fpu softvfp
 541              		.type	chEvtGetAndClearFlags, %function
 542              	chEvtGetAndClearFlags:
 543              	.LFB157:
 544              		.loc 4 241 0
 545              		.cfi_startproc
 546              		@ args = 0, pretend = 0, frame = 16
 547              		@ frame_needed = 0, uses_anonymous_args = 0
 548 0000 00B5     		push	{lr}
 549              		.cfi_def_cfa_offset 4
 550              		.cfi_offset 14, -4
 551 0002 85B0     		sub	sp, sp, #20
 552              		.cfi_def_cfa_offset 24
 553 0004 0190     		str	r0, [sp, #4]
 554              		.loc 4 244 0
 555 0006 FFF7FEFF 		bl	chSysLock
 556              		.loc 4 245 0
 557 000a 019B     		ldr	r3, [sp, #4]
 558 000c DB68     		ldr	r3, [r3, #12]
 559 000e 0393     		str	r3, [sp, #12]
 560              		.loc 4 246 0
 561 0010 019B     		ldr	r3, [sp, #4]
 562 0012 0022     		movs	r2, #0
 563 0014 DA60     		str	r2, [r3, #12]
 564              		.loc 4 247 0
 565 0016 FFF7FEFF 		bl	chSysUnlock
 566              		.loc 4 249 0
 567 001a 039B     		ldr	r3, [sp, #12]
 568              		.loc 4 250 0
 569 001c 1800     		movs	r0, r3
 570 001e 05B0     		add	sp, sp, #20
ARM GAS  /tmp/cch1BZg1.s 			page 11


 571              		@ sp needed
 572 0020 00BD     		pop	{pc}
 573              		.cfi_endproc
 574              	.LFE157:
 575              		.size	chEvtGetAndClearFlags, .-chEvtGetAndClearFlags
 576 0022 C046     		.section	.text.chEvtSignal,"ax",%progbits
 577              		.align	1
 578              		.p2align 4,,15
 579              		.global	chEvtSignal
 580              		.syntax unified
 581              		.code	16
 582              		.thumb_func
 583              		.fpu softvfp
 584              		.type	chEvtSignal, %function
 585              	chEvtSignal:
 586              	.LFB158:
 587              		.loc 4 260 0
 588              		.cfi_startproc
 589              		@ args = 0, pretend = 0, frame = 8
 590              		@ frame_needed = 0, uses_anonymous_args = 0
 591 0000 00B5     		push	{lr}
 592              		.cfi_def_cfa_offset 4
 593              		.cfi_offset 14, -4
 594 0002 83B0     		sub	sp, sp, #12
 595              		.cfi_def_cfa_offset 16
 596 0004 0190     		str	r0, [sp, #4]
 597 0006 0091     		str	r1, [sp]
 598              		.loc 4 262 0
 599 0008 019B     		ldr	r3, [sp, #4]
 600 000a 002B     		cmp	r3, #0
 601 000c 03D1     		bne	.L41
 602              		.loc 4 262 0 is_stmt 0 discriminator 2
 603 000e 094B     		ldr	r3, .L42
 604 0010 1800     		movs	r0, r3
 605 0012 FFF7FEFF 		bl	chSysHalt
 606              	.L41:
 607              		.loc 4 264 0 is_stmt 1
 608 0016 FFF7FEFF 		bl	chSysLock
 609              		.loc 4 265 0
 610 001a 009A     		ldr	r2, [sp]
 611 001c 019B     		ldr	r3, [sp, #4]
 612 001e 1100     		movs	r1, r2
 613 0020 1800     		movs	r0, r3
 614 0022 FFF7FEFF 		bl	chEvtSignalI
 615              		.loc 4 266 0
 616 0026 FFF7FEFF 		bl	chSchRescheduleS
 617              		.loc 4 267 0
 618 002a FFF7FEFF 		bl	chSysUnlock
 619              		.loc 4 268 0
 620 002e C046     		nop
 621 0030 03B0     		add	sp, sp, #12
 622              		@ sp needed
 623 0032 00BD     		pop	{pc}
 624              	.L43:
 625              		.align	2
 626              	.L42:
 627 0034 00000000 		.word	__func__.5733
ARM GAS  /tmp/cch1BZg1.s 			page 12


 628              		.cfi_endproc
 629              	.LFE158:
 630              		.size	chEvtSignal, .-chEvtSignal
 631              		.section	.text.chEvtSignalI,"ax",%progbits
 632              		.align	1
 633              		.p2align 4,,15
 634              		.global	chEvtSignalI
 635              		.syntax unified
 636              		.code	16
 637              		.thumb_func
 638              		.fpu softvfp
 639              		.type	chEvtSignalI, %function
 640              	chEvtSignalI:
 641              	.LFB159:
 642              		.loc 4 282 0
 643              		.cfi_startproc
 644              		@ args = 0, pretend = 0, frame = 8
 645              		@ frame_needed = 0, uses_anonymous_args = 0
 646 0000 00B5     		push	{lr}
 647              		.cfi_def_cfa_offset 4
 648              		.cfi_offset 14, -4
 649 0002 83B0     		sub	sp, sp, #12
 650              		.cfi_def_cfa_offset 16
 651 0004 0190     		str	r0, [sp, #4]
 652 0006 0091     		str	r1, [sp]
 653              		.loc 4 284 0
 654 0008 FFF7FEFF 		bl	chDbgCheckClassI
 655              		.loc 4 285 0
 656 000c 019B     		ldr	r3, [sp, #4]
 657 000e 002B     		cmp	r3, #0
 658 0010 03D1     		bne	.L45
 659              		.loc 4 285 0 is_stmt 0 discriminator 2
 660 0012 164B     		ldr	r3, .L50
 661 0014 1800     		movs	r0, r3
 662 0016 FFF7FEFF 		bl	chSysHalt
 663              	.L45:
 664              		.loc 4 287 0 is_stmt 1
 665 001a 019B     		ldr	r3, [sp, #4]
 666 001c 9A6B     		ldr	r2, [r3, #56]
 667 001e 009B     		ldr	r3, [sp]
 668 0020 1A43     		orrs	r2, r3
 669 0022 019B     		ldr	r3, [sp, #4]
 670 0024 9A63     		str	r2, [r3, #56]
 671              		.loc 4 289 0
 672 0026 019B     		ldr	r3, [sp, #4]
 673 0028 2022     		movs	r2, #32
 674 002a 9B5C     		ldrb	r3, [r3, r2]
 675 002c 0A2B     		cmp	r3, #10
 676 002e 05D1     		bne	.L46
 677              		.loc 4 290 0 discriminator 1
 678 0030 019B     		ldr	r3, [sp, #4]
 679 0032 9A6B     		ldr	r2, [r3, #56]
 680 0034 019B     		ldr	r3, [sp, #4]
 681 0036 5B6A     		ldr	r3, [r3, #36]
 682 0038 1340     		ands	r3, r2
 683              		.loc 4 289 0 discriminator 1
 684 003a 0DD1     		bne	.L47
ARM GAS  /tmp/cch1BZg1.s 			page 13


 685              	.L46:
 686              		.loc 4 291 0
 687 003c 019B     		ldr	r3, [sp, #4]
 688 003e 2022     		movs	r2, #32
 689 0040 9B5C     		ldrb	r3, [r3, r2]
 690              		.loc 4 290 0
 691 0042 0B2B     		cmp	r3, #11
 692 0044 0FD1     		bne	.L49
 693              		.loc 4 292 0
 694 0046 019B     		ldr	r3, [sp, #4]
 695 0048 9A6B     		ldr	r2, [r3, #56]
 696 004a 019B     		ldr	r3, [sp, #4]
 697 004c 5B6A     		ldr	r3, [r3, #36]
 698 004e 1A40     		ands	r2, r3
 699 0050 019B     		ldr	r3, [sp, #4]
 700 0052 5B6A     		ldr	r3, [r3, #36]
 701              		.loc 4 291 0
 702 0054 9A42     		cmp	r2, r3
 703 0056 06D1     		bne	.L49
 704              	.L47:
 705              		.loc 4 293 0
 706 0058 019B     		ldr	r3, [sp, #4]
 707 005a 0022     		movs	r2, #0
 708 005c 5A62     		str	r2, [r3, #36]
 709              		.loc 4 294 0
 710 005e 019B     		ldr	r3, [sp, #4]
 711 0060 1800     		movs	r0, r3
 712 0062 FFF7FEFF 		bl	chSchReadyI
 713              	.L49:
 714              		.loc 4 296 0
 715 0066 C046     		nop
 716 0068 03B0     		add	sp, sp, #12
 717              		@ sp needed
 718 006a 00BD     		pop	{pc}
 719              	.L51:
 720              		.align	2
 721              	.L50:
 722 006c 00000000 		.word	__func__.5738
 723              		.cfi_endproc
 724              	.LFE159:
 725              		.size	chEvtSignalI, .-chEvtSignalI
 726              		.section	.text.chEvtBroadcastFlags,"ax",%progbits
 727              		.align	1
 728              		.p2align 4,,15
 729              		.global	chEvtBroadcastFlags
 730              		.syntax unified
 731              		.code	16
 732              		.thumb_func
 733              		.fpu softvfp
 734              		.type	chEvtBroadcastFlags, %function
 735              	chEvtBroadcastFlags:
 736              	.LFB160:
 737              		.loc 4 311 0
 738              		.cfi_startproc
 739              		@ args = 0, pretend = 0, frame = 8
 740              		@ frame_needed = 0, uses_anonymous_args = 0
 741 0000 00B5     		push	{lr}
ARM GAS  /tmp/cch1BZg1.s 			page 14


 742              		.cfi_def_cfa_offset 4
 743              		.cfi_offset 14, -4
 744 0002 83B0     		sub	sp, sp, #12
 745              		.cfi_def_cfa_offset 16
 746 0004 0190     		str	r0, [sp, #4]
 747 0006 0091     		str	r1, [sp]
 748              		.loc 4 313 0
 749 0008 FFF7FEFF 		bl	chSysLock
 750              		.loc 4 314 0
 751 000c 009A     		ldr	r2, [sp]
 752 000e 019B     		ldr	r3, [sp, #4]
 753 0010 1100     		movs	r1, r2
 754 0012 1800     		movs	r0, r3
 755 0014 FFF7FEFF 		bl	chEvtBroadcastFlagsI
 756              		.loc 4 315 0
 757 0018 FFF7FEFF 		bl	chSchRescheduleS
 758              		.loc 4 316 0
 759 001c FFF7FEFF 		bl	chSysUnlock
 760              		.loc 4 317 0
 761 0020 C046     		nop
 762 0022 03B0     		add	sp, sp, #12
 763              		@ sp needed
 764 0024 00BD     		pop	{pc}
 765              		.cfi_endproc
 766              	.LFE160:
 767              		.size	chEvtBroadcastFlags, .-chEvtBroadcastFlags
 768 0026 C046     		.section	.text.chEvtGetAndClearFlagsI,"ax",%progbits
 769              		.align	1
 770              		.p2align 4,,15
 771              		.global	chEvtGetAndClearFlagsI
 772              		.syntax unified
 773              		.code	16
 774              		.thumb_func
 775              		.fpu softvfp
 776              		.type	chEvtGetAndClearFlagsI, %function
 777              	chEvtGetAndClearFlagsI:
 778              	.LFB161:
 779              		.loc 4 330 0
 780              		.cfi_startproc
 781              		@ args = 0, pretend = 0, frame = 16
 782              		@ frame_needed = 0, uses_anonymous_args = 0
 783              		@ link register save eliminated.
 784 0000 84B0     		sub	sp, sp, #16
 785              		.cfi_def_cfa_offset 16
 786 0002 0190     		str	r0, [sp, #4]
 787              		.loc 4 333 0
 788 0004 019B     		ldr	r3, [sp, #4]
 789 0006 DB68     		ldr	r3, [r3, #12]
 790 0008 0393     		str	r3, [sp, #12]
 791              		.loc 4 334 0
 792 000a 019B     		ldr	r3, [sp, #4]
 793 000c 0022     		movs	r2, #0
 794 000e DA60     		str	r2, [r3, #12]
 795              		.loc 4 336 0
 796 0010 039B     		ldr	r3, [sp, #12]
 797              		.loc 4 337 0
 798 0012 1800     		movs	r0, r3
ARM GAS  /tmp/cch1BZg1.s 			page 15


 799 0014 04B0     		add	sp, sp, #16
 800              		@ sp needed
 801 0016 7047     		bx	lr
 802              		.cfi_endproc
 803              	.LFE161:
 804              		.size	chEvtGetAndClearFlagsI, .-chEvtGetAndClearFlagsI
 805              		.section	.text.chEvtDispatch,"ax",%progbits
 806              		.align	1
 807              		.p2align 4,,15
 808              		.global	chEvtDispatch
 809              		.syntax unified
 810              		.code	16
 811              		.thumb_func
 812              		.fpu softvfp
 813              		.type	chEvtDispatch, %function
 814              	chEvtDispatch:
 815              	.LFB162:
 816              		.loc 4 348 0
 817              		.cfi_startproc
 818              		@ args = 0, pretend = 0, frame = 16
 819              		@ frame_needed = 0, uses_anonymous_args = 0
 820 0000 00B5     		push	{lr}
 821              		.cfi_def_cfa_offset 4
 822              		.cfi_offset 14, -4
 823 0002 85B0     		sub	sp, sp, #20
 824              		.cfi_def_cfa_offset 24
 825 0004 0190     		str	r0, [sp, #4]
 826 0006 0091     		str	r1, [sp]
 827              		.loc 4 351 0
 828 0008 019B     		ldr	r3, [sp, #4]
 829 000a 002B     		cmp	r3, #0
 830 000c 03D1     		bne	.L56
 831              		.loc 4 351 0 is_stmt 0 discriminator 2
 832 000e 194B     		ldr	r3, .L61
 833 0010 1800     		movs	r0, r3
 834 0012 FFF7FEFF 		bl	chSysHalt
 835              	.L56:
 836              		.loc 4 353 0 is_stmt 1
 837 0016 0023     		movs	r3, #0
 838 0018 0393     		str	r3, [sp, #12]
 839              		.loc 4 354 0
 840 001a 24E0     		b	.L57
 841              	.L60:
 842              		.loc 4 355 0
 843 001c 039B     		ldr	r3, [sp, #12]
 844 001e 009A     		ldr	r2, [sp]
 845 0020 DA40     		lsrs	r2, r2, r3
 846 0022 1300     		movs	r3, r2
 847 0024 0122     		movs	r2, #1
 848 0026 1340     		ands	r3, r2
 849 0028 1AD0     		beq	.L58
 850              		.loc 4 356 0 discriminator 1
 851 002a 039B     		ldr	r3, [sp, #12]
 852 002c 9B00     		lsls	r3, r3, #2
 853 002e 019A     		ldr	r2, [sp, #4]
 854 0030 D318     		adds	r3, r2, r3
 855 0032 1B68     		ldr	r3, [r3]
ARM GAS  /tmp/cch1BZg1.s 			page 16


 856 0034 002B     		cmp	r3, #0
 857 0036 03D1     		bne	.L59
 858              		.loc 4 356 0 is_stmt 0 discriminator 2
 859 0038 0E4B     		ldr	r3, .L61
 860 003a 1800     		movs	r0, r3
 861 003c FFF7FEFF 		bl	chSysHalt
 862              	.L59:
 863              		.loc 4 357 0 is_stmt 1
 864 0040 039B     		ldr	r3, [sp, #12]
 865 0042 0122     		movs	r2, #1
 866 0044 9A40     		lsls	r2, r2, r3
 867 0046 1300     		movs	r3, r2
 868 0048 DA43     		mvns	r2, r3
 869 004a 009B     		ldr	r3, [sp]
 870 004c 1340     		ands	r3, r2
 871 004e 0093     		str	r3, [sp]
 872              		.loc 4 358 0
 873 0050 039B     		ldr	r3, [sp, #12]
 874 0052 9B00     		lsls	r3, r3, #2
 875 0054 019A     		ldr	r2, [sp, #4]
 876 0056 D318     		adds	r3, r2, r3
 877 0058 1B68     		ldr	r3, [r3]
 878 005a 039A     		ldr	r2, [sp, #12]
 879 005c 1000     		movs	r0, r2
 880 005e 9847     		blx	r3
 881              	.LVL0:
 882              	.L58:
 883              		.loc 4 360 0
 884 0060 039B     		ldr	r3, [sp, #12]
 885 0062 0133     		adds	r3, r3, #1
 886 0064 0393     		str	r3, [sp, #12]
 887              	.L57:
 888              		.loc 4 354 0
 889 0066 009B     		ldr	r3, [sp]
 890 0068 002B     		cmp	r3, #0
 891 006a D7D1     		bne	.L60
 892              		.loc 4 362 0
 893 006c C046     		nop
 894 006e 05B0     		add	sp, sp, #20
 895              		@ sp needed
 896 0070 00BD     		pop	{pc}
 897              	.L62:
 898 0072 C046     		.align	2
 899              	.L61:
 900 0074 00000000 		.word	__func__.5752
 901              		.cfi_endproc
 902              	.LFE162:
 903              		.size	chEvtDispatch, .-chEvtDispatch
 904              		.section	.text.chEvtWaitOne,"ax",%progbits
 905              		.align	1
 906              		.p2align 4,,15
 907              		.global	chEvtWaitOne
 908              		.syntax unified
 909              		.code	16
 910              		.thumb_func
 911              		.fpu softvfp
 912              		.type	chEvtWaitOne, %function
ARM GAS  /tmp/cch1BZg1.s 			page 17


 913              	chEvtWaitOne:
 914              	.LFB163:
 915              		.loc 4 383 0
 916              		.cfi_startproc
 917              		@ args = 0, pretend = 0, frame = 16
 918              		@ frame_needed = 0, uses_anonymous_args = 0
 919 0000 00B5     		push	{lr}
 920              		.cfi_def_cfa_offset 4
 921              		.cfi_offset 14, -4
 922 0002 85B0     		sub	sp, sp, #20
 923              		.cfi_def_cfa_offset 24
 924 0004 0190     		str	r0, [sp, #4]
 925              		.loc 4 384 0
 926 0006 154B     		ldr	r3, .L66
 927 0008 9B69     		ldr	r3, [r3, #24]
 928 000a 0293     		str	r3, [sp, #8]
 929              		.loc 4 387 0
 930 000c FFF7FEFF 		bl	chSysLock
 931              		.loc 4 388 0
 932 0010 029B     		ldr	r3, [sp, #8]
 933 0012 9B6B     		ldr	r3, [r3, #56]
 934 0014 019A     		ldr	r2, [sp, #4]
 935 0016 1340     		ands	r3, r2
 936 0018 0393     		str	r3, [sp, #12]
 937              		.loc 4 389 0
 938 001a 039B     		ldr	r3, [sp, #12]
 939 001c 002B     		cmp	r3, #0
 940 001e 0AD1     		bne	.L64
 941              		.loc 4 390 0
 942 0020 029B     		ldr	r3, [sp, #8]
 943 0022 019A     		ldr	r2, [sp, #4]
 944 0024 5A62     		str	r2, [r3, #36]
 945              		.loc 4 391 0
 946 0026 0A20     		movs	r0, #10
 947 0028 FFF7FEFF 		bl	chSchGoSleepS
 948              		.loc 4 392 0
 949 002c 029B     		ldr	r3, [sp, #8]
 950 002e 9B6B     		ldr	r3, [r3, #56]
 951 0030 019A     		ldr	r2, [sp, #4]
 952 0032 1340     		ands	r3, r2
 953 0034 0393     		str	r3, [sp, #12]
 954              	.L64:
 955              		.loc 4 394 0
 956 0036 039B     		ldr	r3, [sp, #12]
 957 0038 5A42     		rsbs	r2, r3, #0
 958 003a 039B     		ldr	r3, [sp, #12]
 959 003c 1340     		ands	r3, r2
 960 003e 0393     		str	r3, [sp, #12]
 961              		.loc 4 395 0
 962 0040 029B     		ldr	r3, [sp, #8]
 963 0042 9B6B     		ldr	r3, [r3, #56]
 964 0044 039A     		ldr	r2, [sp, #12]
 965 0046 D243     		mvns	r2, r2
 966 0048 1A40     		ands	r2, r3
 967 004a 029B     		ldr	r3, [sp, #8]
 968 004c 9A63     		str	r2, [r3, #56]
 969              		.loc 4 396 0
ARM GAS  /tmp/cch1BZg1.s 			page 18


 970 004e FFF7FEFF 		bl	chSysUnlock
 971              		.loc 4 398 0
 972 0052 039B     		ldr	r3, [sp, #12]
 973              		.loc 4 399 0
 974 0054 1800     		movs	r0, r3
 975 0056 05B0     		add	sp, sp, #20
 976              		@ sp needed
 977 0058 00BD     		pop	{pc}
 978              	.L67:
 979 005a C046     		.align	2
 980              	.L66:
 981 005c 00000000 		.word	ch
 982              		.cfi_endproc
 983              	.LFE163:
 984              		.size	chEvtWaitOne, .-chEvtWaitOne
 985              		.section	.text.chEvtWaitAny,"ax",%progbits
 986              		.align	1
 987              		.p2align 4,,15
 988              		.global	chEvtWaitAny
 989              		.syntax unified
 990              		.code	16
 991              		.thumb_func
 992              		.fpu softvfp
 993              		.type	chEvtWaitAny, %function
 994              	chEvtWaitAny:
 995              	.LFB164:
 996              		.loc 4 413 0
 997              		.cfi_startproc
 998              		@ args = 0, pretend = 0, frame = 16
 999              		@ frame_needed = 0, uses_anonymous_args = 0
 1000 0000 00B5     		push	{lr}
 1001              		.cfi_def_cfa_offset 4
 1002              		.cfi_offset 14, -4
 1003 0002 85B0     		sub	sp, sp, #20
 1004              		.cfi_def_cfa_offset 24
 1005 0004 0190     		str	r0, [sp, #4]
 1006              		.loc 4 414 0
 1007 0006 124B     		ldr	r3, .L71
 1008 0008 9B69     		ldr	r3, [r3, #24]
 1009 000a 0293     		str	r3, [sp, #8]
 1010              		.loc 4 417 0
 1011 000c FFF7FEFF 		bl	chSysLock
 1012              		.loc 4 418 0
 1013 0010 029B     		ldr	r3, [sp, #8]
 1014 0012 9B6B     		ldr	r3, [r3, #56]
 1015 0014 019A     		ldr	r2, [sp, #4]
 1016 0016 1340     		ands	r3, r2
 1017 0018 0393     		str	r3, [sp, #12]
 1018              		.loc 4 419 0
 1019 001a 039B     		ldr	r3, [sp, #12]
 1020 001c 002B     		cmp	r3, #0
 1021 001e 0AD1     		bne	.L69
 1022              		.loc 4 420 0
 1023 0020 029B     		ldr	r3, [sp, #8]
 1024 0022 019A     		ldr	r2, [sp, #4]
 1025 0024 5A62     		str	r2, [r3, #36]
 1026              		.loc 4 421 0
ARM GAS  /tmp/cch1BZg1.s 			page 19


 1027 0026 0A20     		movs	r0, #10
 1028 0028 FFF7FEFF 		bl	chSchGoSleepS
 1029              		.loc 4 422 0
 1030 002c 029B     		ldr	r3, [sp, #8]
 1031 002e 9B6B     		ldr	r3, [r3, #56]
 1032 0030 019A     		ldr	r2, [sp, #4]
 1033 0032 1340     		ands	r3, r2
 1034 0034 0393     		str	r3, [sp, #12]
 1035              	.L69:
 1036              		.loc 4 424 0
 1037 0036 029B     		ldr	r3, [sp, #8]
 1038 0038 9B6B     		ldr	r3, [r3, #56]
 1039 003a 039A     		ldr	r2, [sp, #12]
 1040 003c D243     		mvns	r2, r2
 1041 003e 1A40     		ands	r2, r3
 1042 0040 029B     		ldr	r3, [sp, #8]
 1043 0042 9A63     		str	r2, [r3, #56]
 1044              		.loc 4 425 0
 1045 0044 FFF7FEFF 		bl	chSysUnlock
 1046              		.loc 4 427 0
 1047 0048 039B     		ldr	r3, [sp, #12]
 1048              		.loc 4 428 0
 1049 004a 1800     		movs	r0, r3
 1050 004c 05B0     		add	sp, sp, #20
 1051              		@ sp needed
 1052 004e 00BD     		pop	{pc}
 1053              	.L72:
 1054              		.align	2
 1055              	.L71:
 1056 0050 00000000 		.word	ch
 1057              		.cfi_endproc
 1058              	.LFE164:
 1059              		.size	chEvtWaitAny, .-chEvtWaitAny
 1060              		.section	.text.chEvtWaitAll,"ax",%progbits
 1061              		.align	1
 1062              		.p2align 4,,15
 1063              		.global	chEvtWaitAll
 1064              		.syntax unified
 1065              		.code	16
 1066              		.thumb_func
 1067              		.fpu softvfp
 1068              		.type	chEvtWaitAll, %function
 1069              	chEvtWaitAll:
 1070              	.LFB165:
 1071              		.loc 4 441 0
 1072              		.cfi_startproc
 1073              		@ args = 0, pretend = 0, frame = 16
 1074              		@ frame_needed = 0, uses_anonymous_args = 0
 1075 0000 00B5     		push	{lr}
 1076              		.cfi_def_cfa_offset 4
 1077              		.cfi_offset 14, -4
 1078 0002 85B0     		sub	sp, sp, #20
 1079              		.cfi_def_cfa_offset 24
 1080 0004 0190     		str	r0, [sp, #4]
 1081              		.loc 4 442 0
 1082 0006 0F4B     		ldr	r3, .L76
 1083 0008 9B69     		ldr	r3, [r3, #24]
ARM GAS  /tmp/cch1BZg1.s 			page 20


 1084 000a 0393     		str	r3, [sp, #12]
 1085              		.loc 4 444 0
 1086 000c FFF7FEFF 		bl	chSysLock
 1087              		.loc 4 445 0
 1088 0010 039B     		ldr	r3, [sp, #12]
 1089 0012 9B6B     		ldr	r3, [r3, #56]
 1090 0014 019A     		ldr	r2, [sp, #4]
 1091 0016 1A40     		ands	r2, r3
 1092 0018 019B     		ldr	r3, [sp, #4]
 1093 001a 9A42     		cmp	r2, r3
 1094 001c 05D0     		beq	.L74
 1095              		.loc 4 446 0
 1096 001e 039B     		ldr	r3, [sp, #12]
 1097 0020 019A     		ldr	r2, [sp, #4]
 1098 0022 5A62     		str	r2, [r3, #36]
 1099              		.loc 4 447 0
 1100 0024 0B20     		movs	r0, #11
 1101 0026 FFF7FEFF 		bl	chSchGoSleepS
 1102              	.L74:
 1103              		.loc 4 449 0
 1104 002a 039B     		ldr	r3, [sp, #12]
 1105 002c 9B6B     		ldr	r3, [r3, #56]
 1106 002e 019A     		ldr	r2, [sp, #4]
 1107 0030 D243     		mvns	r2, r2
 1108 0032 1A40     		ands	r2, r3
 1109 0034 039B     		ldr	r3, [sp, #12]
 1110 0036 9A63     		str	r2, [r3, #56]
 1111              		.loc 4 450 0
 1112 0038 FFF7FEFF 		bl	chSysUnlock
 1113              		.loc 4 452 0
 1114 003c 019B     		ldr	r3, [sp, #4]
 1115              		.loc 4 453 0
 1116 003e 1800     		movs	r0, r3
 1117 0040 05B0     		add	sp, sp, #20
 1118              		@ sp needed
 1119 0042 00BD     		pop	{pc}
 1120              	.L77:
 1121              		.align	2
 1122              	.L76:
 1123 0044 00000000 		.word	ch
 1124              		.cfi_endproc
 1125              	.LFE165:
 1126              		.size	chEvtWaitAll, .-chEvtWaitAll
 1127              		.section	.text.chEvtWaitOneTimeout,"ax",%progbits
 1128              		.align	1
 1129              		.p2align 4,,15
 1130              		.global	chEvtWaitOneTimeout
 1131              		.syntax unified
 1132              		.code	16
 1133              		.thumb_func
 1134              		.fpu softvfp
 1135              		.type	chEvtWaitOneTimeout, %function
 1136              	chEvtWaitOneTimeout:
 1137              	.LFB166:
 1138              		.loc 4 479 0
 1139              		.cfi_startproc
 1140              		@ args = 0, pretend = 0, frame = 16
ARM GAS  /tmp/cch1BZg1.s 			page 21


 1141              		@ frame_needed = 0, uses_anonymous_args = 0
 1142 0000 00B5     		push	{lr}
 1143              		.cfi_def_cfa_offset 4
 1144              		.cfi_offset 14, -4
 1145 0002 85B0     		sub	sp, sp, #20
 1146              		.cfi_def_cfa_offset 24
 1147 0004 0190     		str	r0, [sp, #4]
 1148 0006 0A00     		movs	r2, r1
 1149 0008 6B46     		mov	r3, sp
 1150 000a 0233     		adds	r3, r3, #2
 1151 000c 1A80     		strh	r2, [r3]
 1152              		.loc 4 480 0
 1153 000e 1E4B     		ldr	r3, .L83
 1154 0010 9B69     		ldr	r3, [r3, #24]
 1155 0012 0293     		str	r3, [sp, #8]
 1156              		.loc 4 483 0
 1157 0014 FFF7FEFF 		bl	chSysLock
 1158              		.loc 4 484 0
 1159 0018 029B     		ldr	r3, [sp, #8]
 1160 001a 9B6B     		ldr	r3, [r3, #56]
 1161 001c 019A     		ldr	r2, [sp, #4]
 1162 001e 1340     		ands	r3, r2
 1163 0020 0393     		str	r3, [sp, #12]
 1164              		.loc 4 485 0
 1165 0022 039B     		ldr	r3, [sp, #12]
 1166 0024 002B     		cmp	r3, #0
 1167 0026 1DD1     		bne	.L79
 1168              		.loc 4 486 0
 1169 0028 6B46     		mov	r3, sp
 1170 002a 0233     		adds	r3, r3, #2
 1171 002c 1B88     		ldrh	r3, [r3]
 1172 002e 002B     		cmp	r3, #0
 1173 0030 03D1     		bne	.L80
 1174              		.loc 4 487 0
 1175 0032 FFF7FEFF 		bl	chSysUnlock
 1176              		.loc 4 488 0
 1177 0036 0023     		movs	r3, #0
 1178 0038 23E0     		b	.L81
 1179              	.L80:
 1180              		.loc 4 490 0
 1181 003a 029B     		ldr	r3, [sp, #8]
 1182 003c 019A     		ldr	r2, [sp, #4]
 1183 003e 5A62     		str	r2, [r3, #36]
 1184              		.loc 4 491 0
 1185 0040 6B46     		mov	r3, sp
 1186 0042 0233     		adds	r3, r3, #2
 1187 0044 1B88     		ldrh	r3, [r3]
 1188 0046 1900     		movs	r1, r3
 1189 0048 0A20     		movs	r0, #10
 1190 004a FFF7FEFF 		bl	chSchGoSleepTimeoutS
 1191 004e 031E     		subs	r3, r0, #0
 1192 0050 03DA     		bge	.L82
 1193              		.loc 4 492 0
 1194 0052 FFF7FEFF 		bl	chSysUnlock
 1195              		.loc 4 493 0
 1196 0056 0023     		movs	r3, #0
 1197 0058 13E0     		b	.L81
ARM GAS  /tmp/cch1BZg1.s 			page 22


 1198              	.L82:
 1199              		.loc 4 495 0
 1200 005a 029B     		ldr	r3, [sp, #8]
 1201 005c 9B6B     		ldr	r3, [r3, #56]
 1202 005e 019A     		ldr	r2, [sp, #4]
 1203 0060 1340     		ands	r3, r2
 1204 0062 0393     		str	r3, [sp, #12]
 1205              	.L79:
 1206              		.loc 4 497 0
 1207 0064 039B     		ldr	r3, [sp, #12]
 1208 0066 5A42     		rsbs	r2, r3, #0
 1209 0068 039B     		ldr	r3, [sp, #12]
 1210 006a 1340     		ands	r3, r2
 1211 006c 0393     		str	r3, [sp, #12]
 1212              		.loc 4 498 0
 1213 006e 029B     		ldr	r3, [sp, #8]
 1214 0070 9B6B     		ldr	r3, [r3, #56]
 1215 0072 039A     		ldr	r2, [sp, #12]
 1216 0074 D243     		mvns	r2, r2
 1217 0076 1A40     		ands	r2, r3
 1218 0078 029B     		ldr	r3, [sp, #8]
 1219 007a 9A63     		str	r2, [r3, #56]
 1220              		.loc 4 499 0
 1221 007c FFF7FEFF 		bl	chSysUnlock
 1222              		.loc 4 501 0
 1223 0080 039B     		ldr	r3, [sp, #12]
 1224              	.L81:
 1225              		.loc 4 502 0
 1226 0082 1800     		movs	r0, r3
 1227 0084 05B0     		add	sp, sp, #20
 1228              		@ sp needed
 1229 0086 00BD     		pop	{pc}
 1230              	.L84:
 1231              		.align	2
 1232              	.L83:
 1233 0088 00000000 		.word	ch
 1234              		.cfi_endproc
 1235              	.LFE166:
 1236              		.size	chEvtWaitOneTimeout, .-chEvtWaitOneTimeout
 1237              		.section	.text.chEvtWaitAnyTimeout,"ax",%progbits
 1238              		.align	1
 1239              		.p2align 4,,15
 1240              		.global	chEvtWaitAnyTimeout
 1241              		.syntax unified
 1242              		.code	16
 1243              		.thumb_func
 1244              		.fpu softvfp
 1245              		.type	chEvtWaitAnyTimeout, %function
 1246              	chEvtWaitAnyTimeout:
 1247              	.LFB167:
 1248              		.loc 4 522 0
 1249              		.cfi_startproc
 1250              		@ args = 0, pretend = 0, frame = 16
 1251              		@ frame_needed = 0, uses_anonymous_args = 0
 1252 0000 00B5     		push	{lr}
 1253              		.cfi_def_cfa_offset 4
 1254              		.cfi_offset 14, -4
ARM GAS  /tmp/cch1BZg1.s 			page 23


 1255 0002 85B0     		sub	sp, sp, #20
 1256              		.cfi_def_cfa_offset 24
 1257 0004 0190     		str	r0, [sp, #4]
 1258 0006 0A00     		movs	r2, r1
 1259 0008 6B46     		mov	r3, sp
 1260 000a 0233     		adds	r3, r3, #2
 1261 000c 1A80     		strh	r2, [r3]
 1262              		.loc 4 523 0
 1263 000e 1C4B     		ldr	r3, .L90
 1264 0010 9B69     		ldr	r3, [r3, #24]
 1265 0012 0293     		str	r3, [sp, #8]
 1266              		.loc 4 526 0
 1267 0014 FFF7FEFF 		bl	chSysLock
 1268              		.loc 4 527 0
 1269 0018 029B     		ldr	r3, [sp, #8]
 1270 001a 9B6B     		ldr	r3, [r3, #56]
 1271 001c 019A     		ldr	r2, [sp, #4]
 1272 001e 1340     		ands	r3, r2
 1273 0020 0393     		str	r3, [sp, #12]
 1274              		.loc 4 528 0
 1275 0022 039B     		ldr	r3, [sp, #12]
 1276 0024 002B     		cmp	r3, #0
 1277 0026 1DD1     		bne	.L86
 1278              		.loc 4 529 0
 1279 0028 6B46     		mov	r3, sp
 1280 002a 0233     		adds	r3, r3, #2
 1281 002c 1B88     		ldrh	r3, [r3]
 1282 002e 002B     		cmp	r3, #0
 1283 0030 03D1     		bne	.L87
 1284              		.loc 4 530 0
 1285 0032 FFF7FEFF 		bl	chSysUnlock
 1286              		.loc 4 531 0
 1287 0036 0023     		movs	r3, #0
 1288 0038 1EE0     		b	.L88
 1289              	.L87:
 1290              		.loc 4 533 0
 1291 003a 029B     		ldr	r3, [sp, #8]
 1292 003c 019A     		ldr	r2, [sp, #4]
 1293 003e 5A62     		str	r2, [r3, #36]
 1294              		.loc 4 534 0
 1295 0040 6B46     		mov	r3, sp
 1296 0042 0233     		adds	r3, r3, #2
 1297 0044 1B88     		ldrh	r3, [r3]
 1298 0046 1900     		movs	r1, r3
 1299 0048 0A20     		movs	r0, #10
 1300 004a FFF7FEFF 		bl	chSchGoSleepTimeoutS
 1301 004e 031E     		subs	r3, r0, #0
 1302 0050 03DA     		bge	.L89
 1303              		.loc 4 535 0
 1304 0052 FFF7FEFF 		bl	chSysUnlock
 1305              		.loc 4 536 0
 1306 0056 0023     		movs	r3, #0
 1307 0058 0EE0     		b	.L88
 1308              	.L89:
 1309              		.loc 4 538 0
 1310 005a 029B     		ldr	r3, [sp, #8]
 1311 005c 9B6B     		ldr	r3, [r3, #56]
ARM GAS  /tmp/cch1BZg1.s 			page 24


 1312 005e 019A     		ldr	r2, [sp, #4]
 1313 0060 1340     		ands	r3, r2
 1314 0062 0393     		str	r3, [sp, #12]
 1315              	.L86:
 1316              		.loc 4 540 0
 1317 0064 029B     		ldr	r3, [sp, #8]
 1318 0066 9B6B     		ldr	r3, [r3, #56]
 1319 0068 039A     		ldr	r2, [sp, #12]
 1320 006a D243     		mvns	r2, r2
 1321 006c 1A40     		ands	r2, r3
 1322 006e 029B     		ldr	r3, [sp, #8]
 1323 0070 9A63     		str	r2, [r3, #56]
 1324              		.loc 4 541 0
 1325 0072 FFF7FEFF 		bl	chSysUnlock
 1326              		.loc 4 543 0
 1327 0076 039B     		ldr	r3, [sp, #12]
 1328              	.L88:
 1329              		.loc 4 544 0
 1330 0078 1800     		movs	r0, r3
 1331 007a 05B0     		add	sp, sp, #20
 1332              		@ sp needed
 1333 007c 00BD     		pop	{pc}
 1334              	.L91:
 1335 007e C046     		.align	2
 1336              	.L90:
 1337 0080 00000000 		.word	ch
 1338              		.cfi_endproc
 1339              	.LFE167:
 1340              		.size	chEvtWaitAnyTimeout, .-chEvtWaitAnyTimeout
 1341              		.section	.text.chEvtWaitAllTimeout,"ax",%progbits
 1342              		.align	1
 1343              		.p2align 4,,15
 1344              		.global	chEvtWaitAllTimeout
 1345              		.syntax unified
 1346              		.code	16
 1347              		.thumb_func
 1348              		.fpu softvfp
 1349              		.type	chEvtWaitAllTimeout, %function
 1350              	chEvtWaitAllTimeout:
 1351              	.LFB168:
 1352              		.loc 4 563 0
 1353              		.cfi_startproc
 1354              		@ args = 0, pretend = 0, frame = 16
 1355              		@ frame_needed = 0, uses_anonymous_args = 0
 1356 0000 00B5     		push	{lr}
 1357              		.cfi_def_cfa_offset 4
 1358              		.cfi_offset 14, -4
 1359 0002 85B0     		sub	sp, sp, #20
 1360              		.cfi_def_cfa_offset 24
 1361 0004 0190     		str	r0, [sp, #4]
 1362 0006 0A00     		movs	r2, r1
 1363 0008 6B46     		mov	r3, sp
 1364 000a 0233     		adds	r3, r3, #2
 1365 000c 1A80     		strh	r2, [r3]
 1366              		.loc 4 564 0
 1367 000e 194B     		ldr	r3, .L96
 1368 0010 9B69     		ldr	r3, [r3, #24]
ARM GAS  /tmp/cch1BZg1.s 			page 25


 1369 0012 0393     		str	r3, [sp, #12]
 1370              		.loc 4 566 0
 1371 0014 FFF7FEFF 		bl	chSysLock
 1372              		.loc 4 567 0
 1373 0018 039B     		ldr	r3, [sp, #12]
 1374 001a 9B6B     		ldr	r3, [r3, #56]
 1375 001c 019A     		ldr	r2, [sp, #4]
 1376 001e 1A40     		ands	r2, r3
 1377 0020 019B     		ldr	r3, [sp, #4]
 1378 0022 9A42     		cmp	r2, r3
 1379 0024 18D0     		beq	.L93
 1380              		.loc 4 568 0
 1381 0026 6B46     		mov	r3, sp
 1382 0028 0233     		adds	r3, r3, #2
 1383 002a 1B88     		ldrh	r3, [r3]
 1384 002c 002B     		cmp	r3, #0
 1385 002e 03D1     		bne	.L94
 1386              		.loc 4 569 0
 1387 0030 FFF7FEFF 		bl	chSysUnlock
 1388              		.loc 4 570 0
 1389 0034 0023     		movs	r3, #0
 1390 0036 19E0     		b	.L95
 1391              	.L94:
 1392              		.loc 4 572 0
 1393 0038 039B     		ldr	r3, [sp, #12]
 1394 003a 019A     		ldr	r2, [sp, #4]
 1395 003c 5A62     		str	r2, [r3, #36]
 1396              		.loc 4 573 0
 1397 003e 6B46     		mov	r3, sp
 1398 0040 0233     		adds	r3, r3, #2
 1399 0042 1B88     		ldrh	r3, [r3]
 1400 0044 1900     		movs	r1, r3
 1401 0046 0B20     		movs	r0, #11
 1402 0048 FFF7FEFF 		bl	chSchGoSleepTimeoutS
 1403 004c 031E     		subs	r3, r0, #0
 1404 004e 03DA     		bge	.L93
 1405              		.loc 4 574 0
 1406 0050 FFF7FEFF 		bl	chSysUnlock
 1407              		.loc 4 575 0
 1408 0054 0023     		movs	r3, #0
 1409 0056 09E0     		b	.L95
 1410              	.L93:
 1411              		.loc 4 578 0
 1412 0058 039B     		ldr	r3, [sp, #12]
 1413 005a 9B6B     		ldr	r3, [r3, #56]
 1414 005c 019A     		ldr	r2, [sp, #4]
 1415 005e D243     		mvns	r2, r2
 1416 0060 1A40     		ands	r2, r3
 1417 0062 039B     		ldr	r3, [sp, #12]
 1418 0064 9A63     		str	r2, [r3, #56]
 1419              		.loc 4 579 0
 1420 0066 FFF7FEFF 		bl	chSysUnlock
 1421              		.loc 4 581 0
 1422 006a 019B     		ldr	r3, [sp, #4]
 1423              	.L95:
 1424              		.loc 4 582 0
 1425 006c 1800     		movs	r0, r3
ARM GAS  /tmp/cch1BZg1.s 			page 26


 1426 006e 05B0     		add	sp, sp, #20
 1427              		@ sp needed
 1428 0070 00BD     		pop	{pc}
 1429              	.L97:
 1430 0072 C046     		.align	2
 1431              	.L96:
 1432 0074 00000000 		.word	ch
 1433              		.cfi_endproc
 1434              	.LFE168:
 1435              		.size	chEvtWaitAllTimeout, .-chEvtWaitAllTimeout
 1436              		.section	.rodata.__func__.5699,"a",%progbits
 1437              		.align	2
 1438              		.type	__func__.5699, %object
 1439              		.size	__func__.5699, 27
 1440              	__func__.5699:
 1441 0000 63684576 		.ascii	"chEvtRegisterMaskWithFlags\000"
 1441      74526567 
 1441      69737465 
 1441      724D6173 
 1441      6B576974 
 1442              		.section	.rodata.__func__.4993,"a",%progbits
 1443              		.align	2
 1444              		.type	__func__.4993, %object
 1445              		.size	__func__.4993, 12
 1446              	__func__.4993:
 1447 0000 63685379 		.ascii	"chSysUnlock\000"
 1447      73556E6C 
 1447      6F636B00 
 1448              		.section	.rodata.__func__.5705,"a",%progbits
 1449              		.align	2
 1450              		.type	__func__.5705, %object
 1451              		.size	__func__.5705, 16
 1452              	__func__.5705:
 1453 0000 63684576 		.ascii	"chEvtUnregister\000"
 1453      74556E72 
 1453      65676973 
 1453      74657200 
 1454              		.section	.rodata.__func__.5721,"a",%progbits
 1455              		.align	2
 1456              		.type	__func__.5721, %object
 1457              		.size	__func__.5721, 21
 1458              	__func__.5721:
 1459 0000 63684576 		.ascii	"chEvtBroadcastFlagsI\000"
 1459      7442726F 
 1459      61646361 
 1459      7374466C 
 1459      61677349 
 1460              		.section	.rodata.__func__.5733,"a",%progbits
 1461              		.align	2
 1462              		.type	__func__.5733, %object
 1463              		.size	__func__.5733, 12
 1464              	__func__.5733:
 1465 0000 63684576 		.ascii	"chEvtSignal\000"
 1465      74536967 
 1465      6E616C00 
 1466              		.section	.rodata.__func__.5738,"a",%progbits
 1467              		.align	2
ARM GAS  /tmp/cch1BZg1.s 			page 27


 1468              		.type	__func__.5738, %object
 1469              		.size	__func__.5738, 13
 1470              	__func__.5738:
 1471 0000 63684576 		.ascii	"chEvtSignalI\000"
 1471      74536967 
 1471      6E616C49 
 1471      00
 1472              		.section	.rodata.__func__.5752,"a",%progbits
 1473              		.align	2
 1474              		.type	__func__.5752, %object
 1475              		.size	__func__.5752, 14
 1476              	__func__.5752:
 1477 0000 63684576 		.ascii	"chEvtDispatch\000"
 1477      74446973 
 1477      70617463 
 1477      6800
 1478              		.text
 1479              	.Letext0:
 1480              		.file 5 "/home/felix/opt/gcc-arm-none-eabi-6-2017-q1-update/arm-none-eabi/include/machine/_default
 1481              		.file 6 "/home/felix/opt/gcc-arm-none-eabi-6-2017-q1-update/arm-none-eabi/include/sys/_stdint.h"
 1482              		.file 7 "ChibiOS/os/rt/ports/ARMCMx/compilers/GCC/chtypes.h"
 1483              		.file 8 "ChibiOS/os/rt/include/chsystypes.h"
 1484              		.file 9 "ChibiOS/os/rt/include/chschd.h"
 1485              		.file 10 "ChibiOS/os/rt/ports/ARMCMx/chcore.h"
 1486              		.file 11 "ChibiOS/os/rt/include/chdebug.h"
 1487              		.file 12 "ChibiOS/os/rt/include/chsem.h"
 1488              		.file 13 "ChibiOS/os/rt/include/chmtx.h"
 1489              		.file 14 "ChibiOS/os/rt/include/chregistry.h"
 1490              		.file 15 "ChibiOS/os/ext/CMSIS/ST/STM32F0xx/system_stm32f0xx.h"
 1491              		.file 16 "ChibiOS/os/rt/include/chevents.h"