ARM GAS  /tmp/ccVZNnJo.s 			page 1


   1              		.cpu cortex-m0
   2              		.eabi_attribute 20, 1
   3              		.eabi_attribute 21, 1
   4              		.eabi_attribute 23, 3
   5              		.eabi_attribute 24, 1
   6              		.eabi_attribute 25, 1
   7              		.eabi_attribute 26, 1
   8              		.eabi_attribute 30, 6
   9              		.eabi_attribute 34, 0
  10              		.eabi_attribute 18, 4
  11              		.file	"chheap.c"
  12              		.text
  13              	.Ltext0:
  14              		.cfi_sections	.debug_frame
  15              		.section	.bss.default_heap,"aw",%nobits
  16              		.align	3
  17              		.type	default_heap, %object
  18              		.size	default_heap, 32
  19              	default_heap:
  20 0000 00000000 		.space	32
  20      00000000 
  20      00000000 
  20      00000000 
  20      00000000 
  21              		.section	.text._heap_init,"ax",%progbits
  22              		.align	1
  23              		.p2align 4,,15
  24              		.global	_heap_init
  25              		.syntax unified
  26              		.code	16
  27              		.thumb_func
  28              		.fpu softvfp
  29              		.type	_heap_init, %function
  30              	_heap_init:
  31              	.LFB152:
  32              		.file 1 "ChibiOS/os/rt/src/chheap.c"
  33              		.loc 1 91 0
  34              		.cfi_startproc
  35              		@ args = 0, pretend = 0, frame = 0
  36              		@ frame_needed = 0, uses_anonymous_args = 0
  37 0000 10B5     		push	{r4, lr}
  38              		.cfi_def_cfa_offset 8
  39              		.cfi_offset 4, -8
  40              		.cfi_offset 14, -4
  41              		.loc 1 93 0
  42 0002 074B     		ldr	r3, .L2
  43 0004 074A     		ldr	r2, .L2+4
  44 0006 1A60     		str	r2, [r3]
  45              		.loc 1 94 0
  46 0008 054B     		ldr	r3, .L2
  47 000a 0022     		movs	r2, #0
  48 000c 9A60     		str	r2, [r3, #8]
  49              		.loc 1 95 0
  50 000e 044B     		ldr	r3, .L2
  51 0010 0022     		movs	r2, #0
  52 0012 DA60     		str	r2, [r3, #12]
  53              		.loc 1 97 0
ARM GAS  /tmp/ccVZNnJo.s 			page 2


  54 0014 044B     		ldr	r3, .L2+8
  55 0016 1800     		movs	r0, r3
  56 0018 FFF7FEFF 		bl	chMtxObjectInit
  57              		.loc 1 101 0
  58 001c C046     		nop
  59              		@ sp needed
  60 001e 10BD     		pop	{r4, pc}
  61              	.L3:
  62              		.align	2
  63              	.L2:
  64 0020 00000000 		.word	default_heap
  65 0024 00000000 		.word	chCoreAlloc
  66 0028 10000000 		.word	default_heap+16
  67              		.cfi_endproc
  68              	.LFE152:
  69              		.size	_heap_init, .-_heap_init
  70              		.section	.text.chHeapObjectInit,"ax",%progbits
  71              		.align	1
  72              		.p2align 4,,15
  73              		.global	chHeapObjectInit
  74              		.syntax unified
  75              		.code	16
  76              		.thumb_func
  77              		.fpu softvfp
  78              		.type	chHeapObjectInit, %function
  79              	chHeapObjectInit:
  80              	.LFB153:
  81              		.loc 1 114 0
  82              		.cfi_startproc
  83              		@ args = 0, pretend = 0, frame = 24
  84              		@ frame_needed = 0, uses_anonymous_args = 0
  85 0000 00B5     		push	{lr}
  86              		.cfi_def_cfa_offset 4
  87              		.cfi_offset 14, -4
  88 0002 87B0     		sub	sp, sp, #28
  89              		.cfi_def_cfa_offset 32
  90 0004 0390     		str	r0, [sp, #12]
  91 0006 0291     		str	r1, [sp, #8]
  92 0008 0192     		str	r2, [sp, #4]
  93              		.loc 1 115 0
  94 000a 029B     		ldr	r3, [sp, #8]
  95 000c 0593     		str	r3, [sp, #20]
  96              		.loc 1 117 0
  97 000e 029B     		ldr	r3, [sp, #8]
  98 0010 0722     		movs	r2, #7
  99 0012 1340     		ands	r3, r2
 100 0014 03D1     		bne	.L5
 101              		.loc 1 117 0 is_stmt 0 discriminator 3
 102 0016 019B     		ldr	r3, [sp, #4]
 103 0018 0722     		movs	r2, #7
 104 001a 1340     		ands	r3, r2
 105 001c 03D0     		beq	.L6
 106              	.L5:
 107              		.loc 1 117 0 discriminator 4
 108 001e 0E4B     		ldr	r3, .L7
 109 0020 1800     		movs	r0, r3
 110 0022 FFF7FEFF 		bl	chSysHalt
ARM GAS  /tmp/ccVZNnJo.s 			page 3


 111              	.L6:
 112              		.loc 1 119 0 is_stmt 1
 113 0026 039B     		ldr	r3, [sp, #12]
 114 0028 0022     		movs	r2, #0
 115 002a 1A60     		str	r2, [r3]
 116              		.loc 1 120 0
 117 002c 039B     		ldr	r3, [sp, #12]
 118 002e 059A     		ldr	r2, [sp, #20]
 119 0030 9A60     		str	r2, [r3, #8]
 120              		.loc 1 121 0
 121 0032 039B     		ldr	r3, [sp, #12]
 122 0034 0022     		movs	r2, #0
 123 0036 DA60     		str	r2, [r3, #12]
 124              		.loc 1 122 0
 125 0038 059B     		ldr	r3, [sp, #20]
 126 003a 0022     		movs	r2, #0
 127 003c 1A60     		str	r2, [r3]
 128              		.loc 1 123 0
 129 003e 019B     		ldr	r3, [sp, #4]
 130 0040 083B     		subs	r3, r3, #8
 131 0042 1A00     		movs	r2, r3
 132 0044 059B     		ldr	r3, [sp, #20]
 133 0046 5A60     		str	r2, [r3, #4]
 134              		.loc 1 125 0
 135 0048 039B     		ldr	r3, [sp, #12]
 136 004a 1033     		adds	r3, r3, #16
 137 004c 1800     		movs	r0, r3
 138 004e FFF7FEFF 		bl	chMtxObjectInit
 139              		.loc 1 129 0
 140 0052 C046     		nop
 141 0054 07B0     		add	sp, sp, #28
 142              		@ sp needed
 143 0056 00BD     		pop	{pc}
 144              	.L8:
 145              		.align	2
 146              	.L7:
 147 0058 00000000 		.word	__func__.5703
 148              		.cfi_endproc
 149              	.LFE153:
 150              		.size	chHeapObjectInit, .-chHeapObjectInit
 151              		.section	.text.chHeapAlloc,"ax",%progbits
 152              		.align	1
 153              		.p2align 4,,15
 154              		.global	chHeapAlloc
 155              		.syntax unified
 156              		.code	16
 157              		.thumb_func
 158              		.fpu softvfp
 159              		.type	chHeapAlloc, %function
 160              	chHeapAlloc:
 161              	.LFB154:
 162              		.loc 1 147 0
 163              		.cfi_startproc
 164              		@ args = 0, pretend = 0, frame = 24
 165              		@ frame_needed = 0, uses_anonymous_args = 0
 166 0000 00B5     		push	{lr}
 167              		.cfi_def_cfa_offset 4
ARM GAS  /tmp/ccVZNnJo.s 			page 4


 168              		.cfi_offset 14, -4
 169 0002 87B0     		sub	sp, sp, #28
 170              		.cfi_def_cfa_offset 32
 171 0004 0190     		str	r0, [sp, #4]
 172 0006 0091     		str	r1, [sp]
 173              		.loc 1 150 0
 174 0008 019B     		ldr	r3, [sp, #4]
 175 000a 002B     		cmp	r3, #0
 176 000c 01D1     		bne	.L10
 177              		.loc 1 151 0
 178 000e 374B     		ldr	r3, .L18
 179 0010 0193     		str	r3, [sp, #4]
 180              	.L10:
 181              		.loc 1 154 0
 182 0012 009B     		ldr	r3, [sp]
 183 0014 0733     		adds	r3, r3, #7
 184 0016 0722     		movs	r2, #7
 185 0018 9343     		bics	r3, r2
 186 001a 0093     		str	r3, [sp]
 187              		.loc 1 155 0
 188 001c 019B     		ldr	r3, [sp, #4]
 189 001e 0833     		adds	r3, r3, #8
 190 0020 0593     		str	r3, [sp, #20]
 191              		.loc 1 157 0
 192 0022 019B     		ldr	r3, [sp, #4]
 193 0024 1033     		adds	r3, r3, #16
 194 0026 1800     		movs	r0, r3
 195 0028 FFF7FEFF 		bl	chMtxLock
 196              		.loc 1 158 0
 197 002c 36E0     		b	.L11
 198              	.L16:
 199              		.loc 1 159 0
 200 002e 059B     		ldr	r3, [sp, #20]
 201 0030 1B68     		ldr	r3, [r3]
 202 0032 0493     		str	r3, [sp, #16]
 203              		.loc 1 160 0
 204 0034 049B     		ldr	r3, [sp, #16]
 205 0036 5A68     		ldr	r2, [r3, #4]
 206 0038 009B     		ldr	r3, [sp]
 207 003a 9A42     		cmp	r2, r3
 208 003c 2CD3     		bcc	.L12
 209              		.loc 1 161 0
 210 003e 049B     		ldr	r3, [sp, #16]
 211 0040 5A68     		ldr	r2, [r3, #4]
 212 0042 009B     		ldr	r3, [sp]
 213 0044 0833     		adds	r3, r3, #8
 214 0046 9A42     		cmp	r2, r3
 215 0048 04D2     		bcs	.L13
 216              		.loc 1 165 0
 217 004a 049B     		ldr	r3, [sp, #16]
 218 004c 1A68     		ldr	r2, [r3]
 219 004e 059B     		ldr	r3, [sp, #20]
 220 0050 1A60     		str	r2, [r3]
 221 0052 16E0     		b	.L14
 222              	.L13:
 223              		.loc 1 170 0
 224 0054 009B     		ldr	r3, [sp]
ARM GAS  /tmp/ccVZNnJo.s 			page 5


 225 0056 0833     		adds	r3, r3, #8
 226 0058 049A     		ldr	r2, [sp, #16]
 227 005a D318     		adds	r3, r2, r3
 228 005c 0393     		str	r3, [sp, #12]
 229              		.loc 1 172 0
 230 005e 049B     		ldr	r3, [sp, #16]
 231 0060 1A68     		ldr	r2, [r3]
 232 0062 039B     		ldr	r3, [sp, #12]
 233 0064 1A60     		str	r2, [r3]
 234              		.loc 1 173 0
 235 0066 049B     		ldr	r3, [sp, #16]
 236 0068 5A68     		ldr	r2, [r3, #4]
 237 006a 009B     		ldr	r3, [sp]
 238 006c D31A     		subs	r3, r2, r3
 239 006e 083B     		subs	r3, r3, #8
 240 0070 1A00     		movs	r2, r3
 241 0072 039B     		ldr	r3, [sp, #12]
 242 0074 5A60     		str	r2, [r3, #4]
 243              		.loc 1 174 0
 244 0076 059B     		ldr	r3, [sp, #20]
 245 0078 039A     		ldr	r2, [sp, #12]
 246 007a 1A60     		str	r2, [r3]
 247              		.loc 1 175 0
 248 007c 049B     		ldr	r3, [sp, #16]
 249 007e 009A     		ldr	r2, [sp]
 250 0080 5A60     		str	r2, [r3, #4]
 251              	.L14:
 252              		.loc 1 177 0
 253 0082 049B     		ldr	r3, [sp, #16]
 254 0084 019A     		ldr	r2, [sp, #4]
 255 0086 1A60     		str	r2, [r3]
 256              		.loc 1 178 0
 257 0088 019B     		ldr	r3, [sp, #4]
 258 008a 1033     		adds	r3, r3, #16
 259 008c 1800     		movs	r0, r3
 260 008e FFF7FEFF 		bl	chMtxUnlock
 261              		.loc 1 181 0
 262 0092 049B     		ldr	r3, [sp, #16]
 263 0094 0833     		adds	r3, r3, #8
 264 0096 25E0     		b	.L15
 265              	.L12:
 266              		.loc 1 184 0
 267 0098 049B     		ldr	r3, [sp, #16]
 268 009a 0593     		str	r3, [sp, #20]
 269              	.L11:
 270              		.loc 1 158 0
 271 009c 059B     		ldr	r3, [sp, #20]
 272 009e 1B68     		ldr	r3, [r3]
 273 00a0 002B     		cmp	r3, #0
 274 00a2 C4D1     		bne	.L16
 275              		.loc 1 186 0
 276 00a4 019B     		ldr	r3, [sp, #4]
 277 00a6 1033     		adds	r3, r3, #16
 278 00a8 1800     		movs	r0, r3
 279 00aa FFF7FEFF 		bl	chMtxUnlock
 280              		.loc 1 190 0
 281 00ae 019B     		ldr	r3, [sp, #4]
ARM GAS  /tmp/ccVZNnJo.s 			page 6


 282 00b0 1B68     		ldr	r3, [r3]
 283 00b2 002B     		cmp	r3, #0
 284 00b4 15D0     		beq	.L17
 285              		.loc 1 191 0
 286 00b6 019B     		ldr	r3, [sp, #4]
 287 00b8 1B68     		ldr	r3, [r3]
 288 00ba 009A     		ldr	r2, [sp]
 289 00bc 0832     		adds	r2, r2, #8
 290 00be 1000     		movs	r0, r2
 291 00c0 9847     		blx	r3
 292              	.LVL0:
 293 00c2 0300     		movs	r3, r0
 294 00c4 0493     		str	r3, [sp, #16]
 295              		.loc 1 192 0
 296 00c6 049B     		ldr	r3, [sp, #16]
 297 00c8 002B     		cmp	r3, #0
 298 00ca 0AD0     		beq	.L17
 299              		.loc 1 193 0
 300 00cc 049B     		ldr	r3, [sp, #16]
 301 00ce 019A     		ldr	r2, [sp, #4]
 302 00d0 1A60     		str	r2, [r3]
 303              		.loc 1 194 0
 304 00d2 049B     		ldr	r3, [sp, #16]
 305 00d4 009A     		ldr	r2, [sp]
 306 00d6 5A60     		str	r2, [r3, #4]
 307              		.loc 1 195 0
 308 00d8 049B     		ldr	r3, [sp, #16]
 309 00da 0833     		adds	r3, r3, #8
 310 00dc 0493     		str	r3, [sp, #16]
 311              		.loc 1 198 0
 312 00de 049B     		ldr	r3, [sp, #16]
 313 00e0 00E0     		b	.L15
 314              	.L17:
 315              		.loc 1 203 0
 316 00e2 0023     		movs	r3, #0
 317              	.L15:
 318              		.loc 1 204 0
 319 00e4 1800     		movs	r0, r3
 320 00e6 07B0     		add	sp, sp, #28
 321              		@ sp needed
 322 00e8 00BD     		pop	{pc}
 323              	.L19:
 324 00ea C046     		.align	2
 325              	.L18:
 326 00ec 00000000 		.word	default_heap
 327              		.cfi_endproc
 328              	.LFE154:
 329              		.size	chHeapAlloc, .-chHeapAlloc
 330              		.section	.text.chHeapFree,"ax",%progbits
 331              		.align	1
 332              		.p2align 4,,15
 333              		.global	chHeapFree
 334              		.syntax unified
 335              		.code	16
 336              		.thumb_func
 337              		.fpu softvfp
 338              		.type	chHeapFree, %function
ARM GAS  /tmp/ccVZNnJo.s 			page 7


 339              	chHeapFree:
 340              	.LFB155:
 341              		.loc 1 213 0
 342              		.cfi_startproc
 343              		@ args = 0, pretend = 0, frame = 24
 344              		@ frame_needed = 0, uses_anonymous_args = 0
 345 0000 00B5     		push	{lr}
 346              		.cfi_def_cfa_offset 4
 347              		.cfi_offset 14, -4
 348 0002 87B0     		sub	sp, sp, #28
 349              		.cfi_def_cfa_offset 32
 350 0004 0190     		str	r0, [sp, #4]
 351              		.loc 1 217 0
 352 0006 019B     		ldr	r3, [sp, #4]
 353 0008 002B     		cmp	r3, #0
 354 000a 03D1     		bne	.L21
 355              		.loc 1 217 0 is_stmt 0 discriminator 2
 356 000c 3B4B     		ldr	r3, .L32
 357 000e 1800     		movs	r0, r3
 358 0010 FFF7FEFF 		bl	chSysHalt
 359              	.L21:
 360              		.loc 1 220 0 is_stmt 1
 361 0014 019B     		ldr	r3, [sp, #4]
 362 0016 083B     		subs	r3, r3, #8
 363 0018 0493     		str	r3, [sp, #16]
 364              		.loc 1 222 0
 365 001a 049B     		ldr	r3, [sp, #16]
 366 001c 1B68     		ldr	r3, [r3]
 367 001e 0393     		str	r3, [sp, #12]
 368              		.loc 1 223 0
 369 0020 039B     		ldr	r3, [sp, #12]
 370 0022 0833     		adds	r3, r3, #8
 371 0024 0593     		str	r3, [sp, #20]
 372              		.loc 1 225 0
 373 0026 039B     		ldr	r3, [sp, #12]
 374 0028 1033     		adds	r3, r3, #16
 375 002a 1800     		movs	r0, r3
 376 002c FFF7FEFF 		bl	chMtxLock
 377              	.L29:
 378              		.loc 1 227 0
 379 0030 049A     		ldr	r2, [sp, #16]
 380 0032 059B     		ldr	r3, [sp, #20]
 381 0034 9A42     		cmp	r2, r3
 382 0036 0BD3     		bcc	.L22
 383              		.loc 1 227 0 is_stmt 0 discriminator 2
 384 0038 059B     		ldr	r3, [sp, #20]
 385 003a 5B68     		ldr	r3, [r3, #4]
 386 003c 0833     		adds	r3, r3, #8
 387 003e 059A     		ldr	r2, [sp, #20]
 388 0040 D218     		adds	r2, r2, r3
 389 0042 049B     		ldr	r3, [sp, #16]
 390 0044 9A42     		cmp	r2, r3
 391 0046 03D9     		bls	.L22
 392              		.loc 1 227 0 discriminator 3
 393 0048 2C4B     		ldr	r3, .L32
 394 004a 1800     		movs	r0, r3
 395 004c FFF7FEFF 		bl	chSysHalt
ARM GAS  /tmp/ccVZNnJo.s 			page 8


 396              	.L22:
 397              		.loc 1 229 0 is_stmt 1
 398 0050 039B     		ldr	r3, [sp, #12]
 399 0052 0833     		adds	r3, r3, #8
 400 0054 1A00     		movs	r2, r3
 401 0056 059B     		ldr	r3, [sp, #20]
 402 0058 9A42     		cmp	r2, r3
 403 005a 03D0     		beq	.L23
 404              		.loc 1 229 0 is_stmt 0 discriminator 2
 405 005c 049A     		ldr	r2, [sp, #16]
 406 005e 059B     		ldr	r3, [sp, #20]
 407 0060 9A42     		cmp	r2, r3
 408 0062 3DD9     		bls	.L24
 409              	.L23:
 410              		.loc 1 230 0 is_stmt 1 discriminator 3
 411 0064 059B     		ldr	r3, [sp, #20]
 412 0066 1B68     		ldr	r3, [r3]
 413              		.loc 1 229 0 discriminator 3
 414 0068 002B     		cmp	r3, #0
 415 006a 04D0     		beq	.L25
 416              		.loc 1 230 0
 417 006c 059B     		ldr	r3, [sp, #20]
 418 006e 1A68     		ldr	r2, [r3]
 419 0070 049B     		ldr	r3, [sp, #16]
 420 0072 9A42     		cmp	r2, r3
 421 0074 34D9     		bls	.L24
 422              	.L25:
 423              		.loc 1 232 0
 424 0076 059B     		ldr	r3, [sp, #20]
 425 0078 1A68     		ldr	r2, [r3]
 426 007a 049B     		ldr	r3, [sp, #16]
 427 007c 1A60     		str	r2, [r3]
 428              		.loc 1 233 0
 429 007e 059B     		ldr	r3, [sp, #20]
 430 0080 049A     		ldr	r2, [sp, #16]
 431 0082 1A60     		str	r2, [r3]
 432              		.loc 1 235 0
 433 0084 049B     		ldr	r3, [sp, #16]
 434 0086 5B68     		ldr	r3, [r3, #4]
 435 0088 0833     		adds	r3, r3, #8
 436 008a 049A     		ldr	r2, [sp, #16]
 437 008c D218     		adds	r2, r2, r3
 438 008e 049B     		ldr	r3, [sp, #16]
 439 0090 1B68     		ldr	r3, [r3]
 440 0092 9A42     		cmp	r2, r3
 441 0094 0ED1     		bne	.L26
 442              		.loc 1 237 0
 443 0096 049B     		ldr	r3, [sp, #16]
 444 0098 5A68     		ldr	r2, [r3, #4]
 445 009a 049B     		ldr	r3, [sp, #16]
 446 009c 1B68     		ldr	r3, [r3]
 447 009e 5B68     		ldr	r3, [r3, #4]
 448 00a0 D318     		adds	r3, r2, r3
 449 00a2 0833     		adds	r3, r3, #8
 450 00a4 1A00     		movs	r2, r3
 451 00a6 049B     		ldr	r3, [sp, #16]
 452 00a8 5A60     		str	r2, [r3, #4]
ARM GAS  /tmp/ccVZNnJo.s 			page 9


 453              		.loc 1 238 0
 454 00aa 049B     		ldr	r3, [sp, #16]
 455 00ac 1B68     		ldr	r3, [r3]
 456 00ae 1A68     		ldr	r2, [r3]
 457 00b0 049B     		ldr	r3, [sp, #16]
 458 00b2 1A60     		str	r2, [r3]
 459              	.L26:
 460              		.loc 1 240 0
 461 00b4 059B     		ldr	r3, [sp, #20]
 462 00b6 5B68     		ldr	r3, [r3, #4]
 463 00b8 0833     		adds	r3, r3, #8
 464 00ba 059A     		ldr	r2, [sp, #20]
 465 00bc D218     		adds	r2, r2, r3
 466 00be 049B     		ldr	r3, [sp, #16]
 467 00c0 9A42     		cmp	r2, r3
 468 00c2 11D1     		bne	.L31
 469              		.loc 1 242 0
 470 00c4 059B     		ldr	r3, [sp, #20]
 471 00c6 5A68     		ldr	r2, [r3, #4]
 472 00c8 049B     		ldr	r3, [sp, #16]
 473 00ca 5B68     		ldr	r3, [r3, #4]
 474 00cc D318     		adds	r3, r2, r3
 475 00ce 0833     		adds	r3, r3, #8
 476 00d0 1A00     		movs	r2, r3
 477 00d2 059B     		ldr	r3, [sp, #20]
 478 00d4 5A60     		str	r2, [r3, #4]
 479              		.loc 1 243 0
 480 00d6 049B     		ldr	r3, [sp, #16]
 481 00d8 1A68     		ldr	r2, [r3]
 482 00da 059B     		ldr	r3, [sp, #20]
 483 00dc 1A60     		str	r2, [r3]
 484              		.loc 1 245 0
 485 00de 03E0     		b	.L31
 486              	.L24:
 487              		.loc 1 247 0
 488 00e0 059B     		ldr	r3, [sp, #20]
 489 00e2 1B68     		ldr	r3, [r3]
 490 00e4 0593     		str	r3, [sp, #20]
 491              		.loc 1 227 0
 492 00e6 A3E7     		b	.L29
 493              	.L31:
 494              		.loc 1 245 0
 495 00e8 C046     		nop
 496              		.loc 1 249 0
 497 00ea 039B     		ldr	r3, [sp, #12]
 498 00ec 1033     		adds	r3, r3, #16
 499 00ee 1800     		movs	r0, r3
 500 00f0 FFF7FEFF 		bl	chMtxUnlock
 501              		.loc 1 251 0
 502 00f4 C046     		nop
 503              		.loc 1 252 0
 504 00f6 07B0     		add	sp, sp, #28
 505              		@ sp needed
 506 00f8 00BD     		pop	{pc}
 507              	.L33:
 508 00fa C046     		.align	2
 509              	.L32:
ARM GAS  /tmp/ccVZNnJo.s 			page 10


 510 00fc 00000000 		.word	__func__.5720
 511              		.cfi_endproc
 512              	.LFE155:
 513              		.size	chHeapFree, .-chHeapFree
 514              		.section	.text.chHeapStatus,"ax",%progbits
 515              		.align	1
 516              		.p2align 4,,15
 517              		.global	chHeapStatus
 518              		.syntax unified
 519              		.code	16
 520              		.thumb_func
 521              		.fpu softvfp
 522              		.type	chHeapStatus, %function
 523              	chHeapStatus:
 524              	.LFB156:
 525              		.loc 1 267 0
 526              		.cfi_startproc
 527              		@ args = 0, pretend = 0, frame = 24
 528              		@ frame_needed = 0, uses_anonymous_args = 0
 529 0000 00B5     		push	{lr}
 530              		.cfi_def_cfa_offset 4
 531              		.cfi_offset 14, -4
 532 0002 87B0     		sub	sp, sp, #28
 533              		.cfi_def_cfa_offset 32
 534 0004 0190     		str	r0, [sp, #4]
 535 0006 0091     		str	r1, [sp]
 536              		.loc 1 271 0
 537 0008 019B     		ldr	r3, [sp, #4]
 538 000a 002B     		cmp	r3, #0
 539 000c 01D1     		bne	.L35
 540              		.loc 1 272 0
 541 000e 174B     		ldr	r3, .L40
 542 0010 0193     		str	r3, [sp, #4]
 543              	.L35:
 544              		.loc 1 275 0
 545 0012 019B     		ldr	r3, [sp, #4]
 546 0014 1033     		adds	r3, r3, #16
 547 0016 1800     		movs	r0, r3
 548 0018 FFF7FEFF 		bl	chMtxLock
 549              		.loc 1 276 0
 550 001c 0023     		movs	r3, #0
 551 001e 0393     		str	r3, [sp, #12]
 552              		.loc 1 277 0
 553 0020 0023     		movs	r3, #0
 554 0022 0493     		str	r3, [sp, #16]
 555              		.loc 1 278 0
 556 0024 019B     		ldr	r3, [sp, #4]
 557 0026 0833     		adds	r3, r3, #8
 558 0028 0593     		str	r3, [sp, #20]
 559              		.loc 1 279 0
 560 002a 0BE0     		b	.L36
 561              	.L37:
 562              		.loc 1 280 0
 563 002c 059B     		ldr	r3, [sp, #20]
 564 002e 1B68     		ldr	r3, [r3]
 565 0030 5B68     		ldr	r3, [r3, #4]
 566 0032 039A     		ldr	r2, [sp, #12]
ARM GAS  /tmp/ccVZNnJo.s 			page 11


 567 0034 D318     		adds	r3, r2, r3
 568 0036 0393     		str	r3, [sp, #12]
 569              		.loc 1 281 0
 570 0038 049B     		ldr	r3, [sp, #16]
 571 003a 0133     		adds	r3, r3, #1
 572 003c 0493     		str	r3, [sp, #16]
 573              		.loc 1 282 0
 574 003e 059B     		ldr	r3, [sp, #20]
 575 0040 1B68     		ldr	r3, [r3]
 576 0042 0593     		str	r3, [sp, #20]
 577              	.L36:
 578              		.loc 1 279 0
 579 0044 059B     		ldr	r3, [sp, #20]
 580 0046 1B68     		ldr	r3, [r3]
 581 0048 002B     		cmp	r3, #0
 582 004a EFD1     		bne	.L37
 583              		.loc 1 284 0
 584 004c 009B     		ldr	r3, [sp]
 585 004e 002B     		cmp	r3, #0
 586 0050 02D0     		beq	.L38
 587              		.loc 1 285 0
 588 0052 009B     		ldr	r3, [sp]
 589 0054 039A     		ldr	r2, [sp, #12]
 590 0056 1A60     		str	r2, [r3]
 591              	.L38:
 592              		.loc 1 287 0
 593 0058 019B     		ldr	r3, [sp, #4]
 594 005a 1033     		adds	r3, r3, #16
 595 005c 1800     		movs	r0, r3
 596 005e FFF7FEFF 		bl	chMtxUnlock
 597              		.loc 1 289 0
 598 0062 049B     		ldr	r3, [sp, #16]
 599              		.loc 1 290 0
 600 0064 1800     		movs	r0, r3
 601 0066 07B0     		add	sp, sp, #28
 602              		@ sp needed
 603 0068 00BD     		pop	{pc}
 604              	.L41:
 605 006a C046     		.align	2
 606              	.L40:
 607 006c 00000000 		.word	default_heap
 608              		.cfi_endproc
 609              	.LFE156:
 610              		.size	chHeapStatus, .-chHeapStatus
 611              		.section	.rodata.__func__.5703,"a",%progbits
 612              		.align	2
 613              		.type	__func__.5703, %object
 614              		.size	__func__.5703, 17
 615              	__func__.5703:
 616 0000 63684865 		.ascii	"chHeapObjectInit\000"
 616      61704F62 
 616      6A656374 
 616      496E6974 
 616      00
 617              		.section	.rodata.__func__.5720,"a",%progbits
 618              		.align	2
 619              		.type	__func__.5720, %object
ARM GAS  /tmp/ccVZNnJo.s 			page 12


 620              		.size	__func__.5720, 11
 621              	__func__.5720:
 622 0000 63684865 		.ascii	"chHeapFree\000"
 622      61704672 
 622      656500
 623              		.text
 624              	.Letext0:
 625              		.file 2 "/home/felix/opt/gcc-arm-none-eabi-6-2017-q1-update/lib/gcc/arm-none-eabi/6.3.1/include/st
 626              		.file 3 "/home/felix/opt/gcc-arm-none-eabi-6-2017-q1-update/arm-none-eabi/include/machine/_default
 627              		.file 4 "/home/felix/opt/gcc-arm-none-eabi-6-2017-q1-update/arm-none-eabi/include/sys/_stdint.h"
 628              		.file 5 "ChibiOS/os/rt/ports/ARMCMx/compilers/GCC/chtypes.h"
 629              		.file 6 "ChibiOS/os/rt/include/chsystypes.h"
 630              		.file 7 "ChibiOS/os/rt/include/chschd.h"
 631              		.file 8 "ChibiOS/os/rt/ports/ARMCMx/chcore.h"
 632              		.file 9 "ChibiOS/os/rt/ports/ARMCMx/chcore_v6m.h"
 633              		.file 10 "ChibiOS/os/rt/include/chdebug.h"
 634              		.file 11 "ChibiOS/os/rt/include/chsem.h"
 635              		.file 12 "ChibiOS/os/rt/include/chmtx.h"
 636              		.file 13 "ChibiOS/os/rt/include/chregistry.h"
 637              		.file 14 "ChibiOS/os/ext/CMSIS/ST/STM32F0xx/system_stm32f0xx.h"
 638              		.file 15 "ChibiOS/os/rt/include/chmemcore.h"
 639              		.file 16 "ChibiOS/os/rt/include/chheap.h"