ARM GAS  /tmp/ccKk1bt9.s 			page 1


   1              		.cpu cortex-m0
   2              		.eabi_attribute 20, 1
   3              		.eabi_attribute 21, 1
   4              		.eabi_attribute 23, 3
   5              		.eabi_attribute 24, 1
   6              		.eabi_attribute 25, 1
   7              		.eabi_attribute 26, 1
   8              		.eabi_attribute 30, 6
   9              		.eabi_attribute 34, 0
  10              		.eabi_attribute 18, 4
  11              		.file	"chmboxes.c"
  12              		.text
  13              	.Ltext0:
  14              		.cfi_sections	.debug_frame
  15              		.section	.text.port_lock,"ax",%progbits
  16              		.align	1
  17              		.p2align 4,,15
  18              		.syntax unified
  19              		.code	16
  20              		.thumb_func
  21              		.fpu softvfp
  22              		.type	port_lock, %function
  23              	port_lock:
  24              	.LFB38:
  25              		.file 1 "ChibiOS/os/rt/ports/ARMCMx/chcore_v6m.h"
  26              		.loc 1 330 0
  27              		.cfi_startproc
  28              		@ args = 0, pretend = 0, frame = 0
  29              		@ frame_needed = 0, uses_anonymous_args = 0
  30              		@ link register save eliminated.
  31              	.LBB6:
  32              	.LBB7:
  33              		.file 2 "ChibiOS/os/ext/CMSIS/include/core_cmFunc.h"
  34              		.loc 2 344 0
  35              		.syntax divided
  36              	@ 344 "ChibiOS/os/ext/CMSIS/include/core_cmFunc.h" 1
  37 0000 72B6     		cpsid i
  38              	@ 0 "" 2
  39              		.thumb
  40              		.syntax unified
  41              	.LBE7:
  42              	.LBE6:
  43              		.loc 1 333 0
  44 0002 C046     		nop
  45              		@ sp needed
  46 0004 7047     		bx	lr
  47              		.cfi_endproc
  48              	.LFE38:
  49              		.size	port_lock, .-port_lock
  50 0006 C046     		.section	.text.port_unlock,"ax",%progbits
  51              		.align	1
  52              		.p2align 4,,15
  53              		.syntax unified
  54              		.code	16
  55              		.thumb_func
  56              		.fpu softvfp
  57              		.type	port_unlock, %function
ARM GAS  /tmp/ccKk1bt9.s 			page 2


  58              	port_unlock:
  59              	.LFB39:
  60              		.loc 1 339 0
  61              		.cfi_startproc
  62              		@ args = 0, pretend = 0, frame = 0
  63              		@ frame_needed = 0, uses_anonymous_args = 0
  64              		@ link register save eliminated.
  65              	.LBB8:
  66              	.LBB9:
  67              		.loc 2 333 0
  68              		.syntax divided
  69              	@ 333 "ChibiOS/os/ext/CMSIS/include/core_cmFunc.h" 1
  70 0000 62B6     		cpsie i
  71              	@ 0 "" 2
  72              		.thumb
  73              		.syntax unified
  74              	.LBE9:
  75              	.LBE8:
  76              		.loc 1 342 0
  77 0002 C046     		nop
  78              		@ sp needed
  79 0004 7047     		bx	lr
  80              		.cfi_endproc
  81              	.LFE39:
  82              		.size	port_unlock, .-port_unlock
  83 0006 C046     		.section	.text.queue_init,"ax",%progbits
  84              		.align	1
  85              		.p2align 4,,15
  86              		.syntax unified
  87              		.code	16
  88              		.thumb_func
  89              		.fpu softvfp
  90              		.type	queue_init, %function
  91              	queue_init:
  92              	.LFB60:
  93              		.file 3 "ChibiOS/os/rt/include/chschd.h"
  94              		.loc 3 602 0
  95              		.cfi_startproc
  96              		@ args = 0, pretend = 0, frame = 8
  97              		@ frame_needed = 0, uses_anonymous_args = 0
  98              		@ link register save eliminated.
  99 0000 82B0     		sub	sp, sp, #8
 100              		.cfi_def_cfa_offset 8
 101 0002 0190     		str	r0, [sp, #4]
 102              		.loc 3 604 0
 103 0004 019B     		ldr	r3, [sp, #4]
 104 0006 019A     		ldr	r2, [sp, #4]
 105 0008 1A60     		str	r2, [r3]
 106              		.loc 3 605 0
 107 000a 019B     		ldr	r3, [sp, #4]
 108 000c 019A     		ldr	r2, [sp, #4]
 109 000e 5A60     		str	r2, [r3, #4]
 110              		.loc 3 606 0
 111 0010 C046     		nop
 112 0012 02B0     		add	sp, sp, #8
 113              		@ sp needed
 114 0014 7047     		bx	lr
ARM GAS  /tmp/ccKk1bt9.s 			page 3


 115              		.cfi_endproc
 116              	.LFE60:
 117              		.size	queue_init, .-queue_init
 118 0016 C046     		.section	.text.chSysLock,"ax",%progbits
 119              		.align	1
 120              		.p2align 4,,15
 121              		.syntax unified
 122              		.code	16
 123              		.thumb_func
 124              		.fpu softvfp
 125              		.type	chSysLock, %function
 126              	chSysLock:
 127              	.LFB77:
 128              		.file 4 "ChibiOS/os/rt/include/chsys.h"
 129              		.loc 4 346 0
 130              		.cfi_startproc
 131              		@ args = 0, pretend = 0, frame = 0
 132              		@ frame_needed = 0, uses_anonymous_args = 0
 133 0000 10B5     		push	{r4, lr}
 134              		.cfi_def_cfa_offset 8
 135              		.cfi_offset 4, -8
 136              		.cfi_offset 14, -4
 137              		.loc 4 348 0
 138 0002 FFF7FEFF 		bl	port_lock
 139              		.loc 4 350 0
 140 0006 FFF7FEFF 		bl	_dbg_check_lock
 141              		.loc 4 351 0
 142 000a C046     		nop
 143              		@ sp needed
 144 000c 10BD     		pop	{r4, pc}
 145              		.cfi_endproc
 146              	.LFE77:
 147              		.size	chSysLock, .-chSysLock
 148 000e C046     		.section	.text.chSysUnlock,"ax",%progbits
 149              		.align	1
 150              		.p2align 4,,15
 151              		.syntax unified
 152              		.code	16
 153              		.thumb_func
 154              		.fpu softvfp
 155              		.type	chSysUnlock, %function
 156              	chSysUnlock:
 157              	.LFB78:
 158              		.loc 4 358 0
 159              		.cfi_startproc
 160              		@ args = 0, pretend = 0, frame = 0
 161              		@ frame_needed = 0, uses_anonymous_args = 0
 162 0000 10B5     		push	{r4, lr}
 163              		.cfi_def_cfa_offset 8
 164              		.cfi_offset 4, -8
 165              		.cfi_offset 14, -4
 166              		.loc 4 360 0
 167 0002 FFF7FEFF 		bl	_dbg_check_unlock
 168              		.loc 4 367 0
 169 0006 0A4B     		ldr	r3, .L7
 170 0008 1A68     		ldr	r2, [r3]
 171 000a 094B     		ldr	r3, .L7
ARM GAS  /tmp/ccKk1bt9.s 			page 4


 172 000c 9A42     		cmp	r2, r3
 173 000e 0BD0     		beq	.L6
 174              		.loc 4 367 0 is_stmt 0 discriminator 2
 175 0010 074B     		ldr	r3, .L7
 176 0012 9B69     		ldr	r3, [r3, #24]
 177 0014 9A68     		ldr	r2, [r3, #8]
 178 0016 064B     		ldr	r3, .L7
 179 0018 1B68     		ldr	r3, [r3]
 180 001a 9B68     		ldr	r3, [r3, #8]
 181 001c 9A42     		cmp	r2, r3
 182 001e 03D2     		bcs	.L6
 183              		.loc 4 367 0 discriminator 3
 184 0020 044B     		ldr	r3, .L7+4
 185 0022 1800     		movs	r0, r3
 186 0024 FFF7FEFF 		bl	chSysHalt
 187              	.L6:
 188              		.loc 4 371 0 is_stmt 1
 189 0028 FFF7FEFF 		bl	port_unlock
 190              		.loc 4 372 0
 191 002c C046     		nop
 192              		@ sp needed
 193 002e 10BD     		pop	{r4, pc}
 194              	.L8:
 195              		.align	2
 196              	.L7:
 197 0030 00000000 		.word	ch
 198 0034 00000000 		.word	__func__.4993
 199              		.cfi_endproc
 200              	.LFE78:
 201              		.size	chSysUnlock, .-chSysUnlock
 202              		.section	.text.chThdQueueObjectInit,"ax",%progbits
 203              		.align	1
 204              		.p2align 4,,15
 205              		.syntax unified
 206              		.code	16
 207              		.thumb_func
 208              		.fpu softvfp
 209              		.type	chThdQueueObjectInit, %function
 210              	chThdQueueObjectInit:
 211              	.LFB105:
 212              		.file 5 "ChibiOS/os/rt/include/chthreads.h"
 213              		.loc 5 278 0
 214              		.cfi_startproc
 215              		@ args = 0, pretend = 0, frame = 8
 216              		@ frame_needed = 0, uses_anonymous_args = 0
 217 0000 00B5     		push	{lr}
 218              		.cfi_def_cfa_offset 4
 219              		.cfi_offset 14, -4
 220 0002 83B0     		sub	sp, sp, #12
 221              		.cfi_def_cfa_offset 16
 222 0004 0190     		str	r0, [sp, #4]
 223              		.loc 5 280 0
 224 0006 019B     		ldr	r3, [sp, #4]
 225 0008 1800     		movs	r0, r3
 226 000a FFF7FEFF 		bl	queue_init
 227              		.loc 5 281 0
 228 000e C046     		nop
ARM GAS  /tmp/ccKk1bt9.s 			page 5


 229 0010 03B0     		add	sp, sp, #12
 230              		@ sp needed
 231 0012 00BD     		pop	{pc}
 232              		.cfi_endproc
 233              	.LFE105:
 234              		.size	chThdQueueObjectInit, .-chThdQueueObjectInit
 235              		.section	.text.chMBGetSizeI,"ax",%progbits
 236              		.align	1
 237              		.p2align 4,,15
 238              		.syntax unified
 239              		.code	16
 240              		.thumb_func
 241              		.fpu softvfp
 242              		.type	chMBGetSizeI, %function
 243              	chMBGetSizeI:
 244              	.LFB135:
 245              		.file 6 "ChibiOS/os/rt/include/chmboxes.h"
 246              		.loc 6 136 0
 247              		.cfi_startproc
 248              		@ args = 0, pretend = 0, frame = 8
 249              		@ frame_needed = 0, uses_anonymous_args = 0
 250              		@ link register save eliminated.
 251 0000 82B0     		sub	sp, sp, #8
 252              		.cfi_def_cfa_offset 8
 253 0002 0190     		str	r0, [sp, #4]
 254              		.loc 6 140 0
 255 0004 019B     		ldr	r3, [sp, #4]
 256 0006 5B68     		ldr	r3, [r3, #4]
 257 0008 1A00     		movs	r2, r3
 258 000a 019B     		ldr	r3, [sp, #4]
 259 000c 1B68     		ldr	r3, [r3]
 260 000e D31A     		subs	r3, r2, r3
 261 0010 9B10     		asrs	r3, r3, #2
 262              		.loc 6 142 0
 263 0012 1800     		movs	r0, r3
 264 0014 02B0     		add	sp, sp, #8
 265              		@ sp needed
 266 0016 7047     		bx	lr
 267              		.cfi_endproc
 268              	.LFE135:
 269              		.size	chMBGetSizeI, .-chMBGetSizeI
 270              		.section	.text.chMBGetUsedCountI,"ax",%progbits
 271              		.align	1
 272              		.p2align 4,,15
 273              		.syntax unified
 274              		.code	16
 275              		.thumb_func
 276              		.fpu softvfp
 277              		.type	chMBGetUsedCountI, %function
 278              	chMBGetUsedCountI:
 279              	.LFB136:
 280              		.loc 6 153 0
 281              		.cfi_startproc
 282              		@ args = 0, pretend = 0, frame = 8
 283              		@ frame_needed = 0, uses_anonymous_args = 0
 284 0000 00B5     		push	{lr}
 285              		.cfi_def_cfa_offset 4
ARM GAS  /tmp/ccKk1bt9.s 			page 6


 286              		.cfi_offset 14, -4
 287 0002 83B0     		sub	sp, sp, #12
 288              		.cfi_def_cfa_offset 16
 289 0004 0190     		str	r0, [sp, #4]
 290              		.loc 6 155 0
 291 0006 FFF7FEFF 		bl	chDbgCheckClassI
 292              		.loc 6 157 0
 293 000a 019B     		ldr	r3, [sp, #4]
 294 000c 1B69     		ldr	r3, [r3, #16]
 295              		.loc 6 158 0
 296 000e 1800     		movs	r0, r3
 297 0010 03B0     		add	sp, sp, #12
 298              		@ sp needed
 299 0012 00BD     		pop	{pc}
 300              		.cfi_endproc
 301              	.LFE136:
 302              		.size	chMBGetUsedCountI, .-chMBGetUsedCountI
 303              		.section	.text.chMBGetFreeCountI,"ax",%progbits
 304              		.align	1
 305              		.p2align 4,,15
 306              		.syntax unified
 307              		.code	16
 308              		.thumb_func
 309              		.fpu softvfp
 310              		.type	chMBGetFreeCountI, %function
 311              	chMBGetFreeCountI:
 312              	.LFB137:
 313              		.loc 6 168 0
 314              		.cfi_startproc
 315              		@ args = 0, pretend = 0, frame = 8
 316              		@ frame_needed = 0, uses_anonymous_args = 0
 317 0000 10B5     		push	{r4, lr}
 318              		.cfi_def_cfa_offset 8
 319              		.cfi_offset 4, -8
 320              		.cfi_offset 14, -4
 321 0002 82B0     		sub	sp, sp, #8
 322              		.cfi_def_cfa_offset 16
 323 0004 0190     		str	r0, [sp, #4]
 324              		.loc 6 170 0
 325 0006 FFF7FEFF 		bl	chDbgCheckClassI
 326              		.loc 6 172 0
 327 000a 019B     		ldr	r3, [sp, #4]
 328 000c 1800     		movs	r0, r3
 329 000e FFF7FEFF 		bl	chMBGetSizeI
 330 0012 0400     		movs	r4, r0
 331 0014 019B     		ldr	r3, [sp, #4]
 332 0016 1800     		movs	r0, r3
 333 0018 FFF7FEFF 		bl	chMBGetUsedCountI
 334 001c 0300     		movs	r3, r0
 335 001e E31A     		subs	r3, r4, r3
 336              		.loc 6 173 0
 337 0020 1800     		movs	r0, r3
 338 0022 02B0     		add	sp, sp, #8
 339              		@ sp needed
 340 0024 10BD     		pop	{r4, pc}
 341              		.cfi_endproc
 342              	.LFE137:
ARM GAS  /tmp/ccKk1bt9.s 			page 7


 343              		.size	chMBGetFreeCountI, .-chMBGetFreeCountI
 344 0026 C046     		.section	.text.chMBObjectInit,"ax",%progbits
 345              		.align	1
 346              		.p2align 4,,15
 347              		.global	chMBObjectInit
 348              		.syntax unified
 349              		.code	16
 350              		.thumb_func
 351              		.fpu softvfp
 352              		.type	chMBObjectInit, %function
 353              	chMBObjectInit:
 354              	.LFB152:
 355              		.file 7 "ChibiOS/os/rt/src/chmboxes.c"
 356              		.loc 7 86 0
 357              		.cfi_startproc
 358              		@ args = 0, pretend = 0, frame = 16
 359              		@ frame_needed = 0, uses_anonymous_args = 0
 360 0000 00B5     		push	{lr}
 361              		.cfi_def_cfa_offset 4
 362              		.cfi_offset 14, -4
 363 0002 85B0     		sub	sp, sp, #20
 364              		.cfi_def_cfa_offset 24
 365 0004 0390     		str	r0, [sp, #12]
 366 0006 0291     		str	r1, [sp, #8]
 367 0008 0192     		str	r2, [sp, #4]
 368              		.loc 7 88 0
 369 000a 039B     		ldr	r3, [sp, #12]
 370 000c 002B     		cmp	r3, #0
 371 000e 05D0     		beq	.L17
 372              		.loc 7 88 0 is_stmt 0 discriminator 3
 373 0010 029B     		ldr	r3, [sp, #8]
 374 0012 002B     		cmp	r3, #0
 375 0014 02D0     		beq	.L17
 376              		.loc 7 88 0 discriminator 5
 377 0016 019B     		ldr	r3, [sp, #4]
 378 0018 002B     		cmp	r3, #0
 379 001a 03DC     		bgt	.L18
 380              	.L17:
 381              		.loc 7 88 0 discriminator 6
 382 001c 124B     		ldr	r3, .L19
 383 001e 1800     		movs	r0, r3
 384 0020 FFF7FEFF 		bl	chSysHalt
 385              	.L18:
 386              		.loc 7 90 0 is_stmt 1
 387 0024 039B     		ldr	r3, [sp, #12]
 388 0026 029A     		ldr	r2, [sp, #8]
 389 0028 1A60     		str	r2, [r3]
 390              		.loc 7 91 0
 391 002a 039B     		ldr	r3, [sp, #12]
 392 002c 029A     		ldr	r2, [sp, #8]
 393 002e DA60     		str	r2, [r3, #12]
 394              		.loc 7 92 0
 395 0030 039B     		ldr	r3, [sp, #12]
 396 0032 029A     		ldr	r2, [sp, #8]
 397 0034 9A60     		str	r2, [r3, #8]
 398              		.loc 7 93 0
 399 0036 019B     		ldr	r3, [sp, #4]
ARM GAS  /tmp/ccKk1bt9.s 			page 8


 400 0038 9B00     		lsls	r3, r3, #2
 401 003a 029A     		ldr	r2, [sp, #8]
 402 003c D218     		adds	r2, r2, r3
 403 003e 039B     		ldr	r3, [sp, #12]
 404 0040 5A60     		str	r2, [r3, #4]
 405              		.loc 7 94 0
 406 0042 039B     		ldr	r3, [sp, #12]
 407 0044 0022     		movs	r2, #0
 408 0046 1A61     		str	r2, [r3, #16]
 409              		.loc 7 95 0
 410 0048 039B     		ldr	r3, [sp, #12]
 411 004a 0022     		movs	r2, #0
 412 004c 1A75     		strb	r2, [r3, #20]
 413              		.loc 7 96 0
 414 004e 039B     		ldr	r3, [sp, #12]
 415 0050 1833     		adds	r3, r3, #24
 416 0052 1800     		movs	r0, r3
 417 0054 FFF7FEFF 		bl	chThdQueueObjectInit
 418              		.loc 7 97 0
 419 0058 039B     		ldr	r3, [sp, #12]
 420 005a 2033     		adds	r3, r3, #32
 421 005c 1800     		movs	r0, r3
 422 005e FFF7FEFF 		bl	chThdQueueObjectInit
 423              		.loc 7 98 0
 424 0062 C046     		nop
 425 0064 05B0     		add	sp, sp, #20
 426              		@ sp needed
 427 0066 00BD     		pop	{pc}
 428              	.L20:
 429              		.align	2
 430              	.L19:
 431 0068 00000000 		.word	__func__.5698
 432              		.cfi_endproc
 433              	.LFE152:
 434              		.size	chMBObjectInit, .-chMBObjectInit
 435              		.section	.text.chMBReset,"ax",%progbits
 436              		.align	1
 437              		.p2align 4,,15
 438              		.global	chMBReset
 439              		.syntax unified
 440              		.code	16
 441              		.thumb_func
 442              		.fpu softvfp
 443              		.type	chMBReset, %function
 444              	chMBReset:
 445              	.LFB153:
 446              		.loc 7 112 0
 447              		.cfi_startproc
 448              		@ args = 0, pretend = 0, frame = 8
 449              		@ frame_needed = 0, uses_anonymous_args = 0
 450 0000 00B5     		push	{lr}
 451              		.cfi_def_cfa_offset 4
 452              		.cfi_offset 14, -4
 453 0002 83B0     		sub	sp, sp, #12
 454              		.cfi_def_cfa_offset 16
 455 0004 0190     		str	r0, [sp, #4]
 456              		.loc 7 114 0
ARM GAS  /tmp/ccKk1bt9.s 			page 9


 457 0006 FFF7FEFF 		bl	chSysLock
 458              		.loc 7 115 0
 459 000a 019B     		ldr	r3, [sp, #4]
 460 000c 1800     		movs	r0, r3
 461 000e FFF7FEFF 		bl	chMBResetI
 462              		.loc 7 116 0
 463 0012 FFF7FEFF 		bl	chSchRescheduleS
 464              		.loc 7 117 0
 465 0016 FFF7FEFF 		bl	chSysUnlock
 466              		.loc 7 118 0
 467 001a C046     		nop
 468 001c 03B0     		add	sp, sp, #12
 469              		@ sp needed
 470 001e 00BD     		pop	{pc}
 471              		.cfi_endproc
 472              	.LFE153:
 473              		.size	chMBReset, .-chMBReset
 474              		.section	.text.chMBResetI,"ax",%progbits
 475              		.align	1
 476              		.p2align 4,,15
 477              		.global	chMBResetI
 478              		.syntax unified
 479              		.code	16
 480              		.thumb_func
 481              		.fpu softvfp
 482              		.type	chMBResetI, %function
 483              	chMBResetI:
 484              	.LFB154:
 485              		.loc 7 132 0
 486              		.cfi_startproc
 487              		@ args = 0, pretend = 0, frame = 8
 488              		@ frame_needed = 0, uses_anonymous_args = 0
 489 0000 00B5     		push	{lr}
 490              		.cfi_def_cfa_offset 4
 491              		.cfi_offset 14, -4
 492 0002 83B0     		sub	sp, sp, #12
 493              		.cfi_def_cfa_offset 16
 494 0004 0190     		str	r0, [sp, #4]
 495              		.loc 7 134 0
 496 0006 FFF7FEFF 		bl	chDbgCheckClassI
 497              		.loc 7 135 0
 498 000a 019B     		ldr	r3, [sp, #4]
 499 000c 002B     		cmp	r3, #0
 500 000e 03D1     		bne	.L23
 501              		.loc 7 135 0 is_stmt 0 discriminator 2
 502 0010 134B     		ldr	r3, .L24
 503 0012 1800     		movs	r0, r3
 504 0014 FFF7FEFF 		bl	chSysHalt
 505              	.L23:
 506              		.loc 7 137 0 is_stmt 1
 507 0018 019B     		ldr	r3, [sp, #4]
 508 001a 1A68     		ldr	r2, [r3]
 509 001c 019B     		ldr	r3, [sp, #4]
 510 001e 9A60     		str	r2, [r3, #8]
 511              		.loc 7 138 0
 512 0020 019B     		ldr	r3, [sp, #4]
 513 0022 1A68     		ldr	r2, [r3]
ARM GAS  /tmp/ccKk1bt9.s 			page 10


 514 0024 019B     		ldr	r3, [sp, #4]
 515 0026 DA60     		str	r2, [r3, #12]
 516              		.loc 7 139 0
 517 0028 019B     		ldr	r3, [sp, #4]
 518 002a 0022     		movs	r2, #0
 519 002c 1A61     		str	r2, [r3, #16]
 520              		.loc 7 140 0
 521 002e 019B     		ldr	r3, [sp, #4]
 522 0030 0122     		movs	r2, #1
 523 0032 1A75     		strb	r2, [r3, #20]
 524              		.loc 7 141 0
 525 0034 019B     		ldr	r3, [sp, #4]
 526 0036 1833     		adds	r3, r3, #24
 527 0038 1A00     		movs	r2, r3
 528 003a 0223     		movs	r3, #2
 529 003c 5B42     		rsbs	r3, r3, #0
 530 003e 1900     		movs	r1, r3
 531 0040 1000     		movs	r0, r2
 532 0042 FFF7FEFF 		bl	chThdDequeueAllI
 533              		.loc 7 142 0
 534 0046 019B     		ldr	r3, [sp, #4]
 535 0048 2033     		adds	r3, r3, #32
 536 004a 1A00     		movs	r2, r3
 537 004c 0223     		movs	r3, #2
 538 004e 5B42     		rsbs	r3, r3, #0
 539 0050 1900     		movs	r1, r3
 540 0052 1000     		movs	r0, r2
 541 0054 FFF7FEFF 		bl	chThdDequeueAllI
 542              		.loc 7 143 0
 543 0058 C046     		nop
 544 005a 03B0     		add	sp, sp, #12
 545              		@ sp needed
 546 005c 00BD     		pop	{pc}
 547              	.L25:
 548 005e C046     		.align	2
 549              	.L24:
 550 0060 00000000 		.word	__func__.5705
 551              		.cfi_endproc
 552              	.LFE154:
 553              		.size	chMBResetI, .-chMBResetI
 554              		.section	.text.chMBPost,"ax",%progbits
 555              		.align	1
 556              		.p2align 4,,15
 557              		.global	chMBPost
 558              		.syntax unified
 559              		.code	16
 560              		.thumb_func
 561              		.fpu softvfp
 562              		.type	chMBPost, %function
 563              	chMBPost:
 564              	.LFB155:
 565              		.loc 7 164 0
 566              		.cfi_startproc
 567              		@ args = 0, pretend = 0, frame = 24
 568              		@ frame_needed = 0, uses_anonymous_args = 0
 569 0000 00B5     		push	{lr}
 570              		.cfi_def_cfa_offset 4
ARM GAS  /tmp/ccKk1bt9.s 			page 11


 571              		.cfi_offset 14, -4
 572 0002 87B0     		sub	sp, sp, #28
 573              		.cfi_def_cfa_offset 32
 574 0004 0390     		str	r0, [sp, #12]
 575 0006 0291     		str	r1, [sp, #8]
 576 0008 6B46     		mov	r3, sp
 577 000a 0633     		adds	r3, r3, #6
 578 000c 1A80     		strh	r2, [r3]
 579              		.loc 7 167 0
 580 000e FFF7FEFF 		bl	chSysLock
 581              		.loc 7 168 0
 582 0012 6B46     		mov	r3, sp
 583 0014 0633     		adds	r3, r3, #6
 584 0016 1A88     		ldrh	r2, [r3]
 585 0018 0299     		ldr	r1, [sp, #8]
 586 001a 039B     		ldr	r3, [sp, #12]
 587 001c 1800     		movs	r0, r3
 588 001e FFF7FEFF 		bl	chMBPostS
 589 0022 0300     		movs	r3, r0
 590 0024 0593     		str	r3, [sp, #20]
 591              		.loc 7 169 0
 592 0026 FFF7FEFF 		bl	chSysUnlock
 593              		.loc 7 171 0
 594 002a 059B     		ldr	r3, [sp, #20]
 595              		.loc 7 172 0
 596 002c 1800     		movs	r0, r3
 597 002e 07B0     		add	sp, sp, #28
 598              		@ sp needed
 599 0030 00BD     		pop	{pc}
 600              		.cfi_endproc
 601              	.LFE155:
 602              		.size	chMBPost, .-chMBPost
 603 0032 C046     		.section	.text.chMBPostS,"ax",%progbits
 604              		.align	1
 605              		.p2align 4,,15
 606              		.global	chMBPostS
 607              		.syntax unified
 608              		.code	16
 609              		.thumb_func
 610              		.fpu softvfp
 611              		.type	chMBPostS, %function
 612              	chMBPostS:
 613              	.LFB156:
 614              		.loc 7 193 0
 615              		.cfi_startproc
 616              		@ args = 0, pretend = 0, frame = 24
 617              		@ frame_needed = 0, uses_anonymous_args = 0
 618 0000 00B5     		push	{lr}
 619              		.cfi_def_cfa_offset 4
 620              		.cfi_offset 14, -4
 621 0002 87B0     		sub	sp, sp, #28
 622              		.cfi_def_cfa_offset 32
 623 0004 0390     		str	r0, [sp, #12]
 624 0006 0291     		str	r1, [sp, #8]
 625 0008 6B46     		mov	r3, sp
 626 000a 0633     		adds	r3, r3, #6
 627 000c 1A80     		strh	r2, [r3]
ARM GAS  /tmp/ccKk1bt9.s 			page 12


 628              		.loc 7 196 0
 629 000e FFF7FEFF 		bl	chDbgCheckClassS
 630              		.loc 7 197 0
 631 0012 039B     		ldr	r3, [sp, #12]
 632 0014 002B     		cmp	r3, #0
 633 0016 03D1     		bne	.L29
 634              		.loc 7 197 0 is_stmt 0 discriminator 2
 635 0018 214B     		ldr	r3, .L34
 636 001a 1800     		movs	r0, r3
 637 001c FFF7FEFF 		bl	chSysHalt
 638              	.L29:
 639              		.loc 7 201 0 is_stmt 1
 640 0020 039B     		ldr	r3, [sp, #12]
 641 0022 1B7D     		ldrb	r3, [r3, #20]
 642 0024 002B     		cmp	r3, #0
 643 0026 02D0     		beq	.L30
 644              		.loc 7 202 0
 645 0028 0223     		movs	r3, #2
 646 002a 5B42     		rsbs	r3, r3, #0
 647 002c 35E0     		b	.L31
 648              	.L30:
 649              		.loc 7 206 0
 650 002e 039B     		ldr	r3, [sp, #12]
 651 0030 1800     		movs	r0, r3
 652 0032 FFF7FEFF 		bl	chMBGetFreeCountI
 653 0036 031E     		subs	r3, r0, #0
 654 0038 1FDD     		ble	.L32
 655              		.loc 7 207 0
 656 003a 039B     		ldr	r3, [sp, #12]
 657 003c 9B68     		ldr	r3, [r3, #8]
 658 003e 191D     		adds	r1, r3, #4
 659 0040 039A     		ldr	r2, [sp, #12]
 660 0042 9160     		str	r1, [r2, #8]
 661 0044 029A     		ldr	r2, [sp, #8]
 662 0046 1A60     		str	r2, [r3]
 663              		.loc 7 208 0
 664 0048 039B     		ldr	r3, [sp, #12]
 665 004a 9A68     		ldr	r2, [r3, #8]
 666 004c 039B     		ldr	r3, [sp, #12]
 667 004e 5B68     		ldr	r3, [r3, #4]
 668 0050 9A42     		cmp	r2, r3
 669 0052 03D3     		bcc	.L33
 670              		.loc 7 209 0
 671 0054 039B     		ldr	r3, [sp, #12]
 672 0056 1A68     		ldr	r2, [r3]
 673 0058 039B     		ldr	r3, [sp, #12]
 674 005a 9A60     		str	r2, [r3, #8]
 675              	.L33:
 676              		.loc 7 211 0
 677 005c 039B     		ldr	r3, [sp, #12]
 678 005e 1B69     		ldr	r3, [r3, #16]
 679 0060 5A1C     		adds	r2, r3, #1
 680 0062 039B     		ldr	r3, [sp, #12]
 681 0064 1A61     		str	r2, [r3, #16]
 682              		.loc 7 214 0
 683 0066 039B     		ldr	r3, [sp, #12]
 684 0068 2033     		adds	r3, r3, #32
ARM GAS  /tmp/ccKk1bt9.s 			page 13


 685 006a 0021     		movs	r1, #0
 686 006c 1800     		movs	r0, r3
 687 006e FFF7FEFF 		bl	chThdDequeueNextI
 688              		.loc 7 215 0
 689 0072 FFF7FEFF 		bl	chSchRescheduleS
 690              		.loc 7 217 0
 691 0076 0023     		movs	r3, #0
 692 0078 0FE0     		b	.L31
 693              	.L32:
 694              		.loc 7 221 0
 695 007a 039B     		ldr	r3, [sp, #12]
 696 007c 1833     		adds	r3, r3, #24
 697 007e 1A00     		movs	r2, r3
 698 0080 6B46     		mov	r3, sp
 699 0082 0633     		adds	r3, r3, #6
 700 0084 1B88     		ldrh	r3, [r3]
 701 0086 1900     		movs	r1, r3
 702 0088 1000     		movs	r0, r2
 703 008a FFF7FEFF 		bl	chThdEnqueueTimeoutS
 704 008e 0300     		movs	r3, r0
 705 0090 0593     		str	r3, [sp, #20]
 706              		.loc 7 222 0
 707 0092 059B     		ldr	r3, [sp, #20]
 708 0094 002B     		cmp	r3, #0
 709 0096 C3D0     		beq	.L29
 710              		.loc 7 224 0
 711 0098 059B     		ldr	r3, [sp, #20]
 712              	.L31:
 713              		.loc 7 225 0
 714 009a 1800     		movs	r0, r3
 715 009c 07B0     		add	sp, sp, #28
 716              		@ sp needed
 717 009e 00BD     		pop	{pc}
 718              	.L35:
 719              		.align	2
 720              	.L34:
 721 00a0 00000000 		.word	__func__.5718
 722              		.cfi_endproc
 723              	.LFE156:
 724              		.size	chMBPostS, .-chMBPostS
 725              		.section	.text.chMBPostI,"ax",%progbits
 726              		.align	1
 727              		.p2align 4,,15
 728              		.global	chMBPostI
 729              		.syntax unified
 730              		.code	16
 731              		.thumb_func
 732              		.fpu softvfp
 733              		.type	chMBPostI, %function
 734              	chMBPostI:
 735              	.LFB157:
 736              		.loc 7 242 0
 737              		.cfi_startproc
 738              		@ args = 0, pretend = 0, frame = 8
 739              		@ frame_needed = 0, uses_anonymous_args = 0
 740 0000 00B5     		push	{lr}
 741              		.cfi_def_cfa_offset 4
ARM GAS  /tmp/ccKk1bt9.s 			page 14


 742              		.cfi_offset 14, -4
 743 0002 83B0     		sub	sp, sp, #12
 744              		.cfi_def_cfa_offset 16
 745 0004 0190     		str	r0, [sp, #4]
 746 0006 0091     		str	r1, [sp]
 747              		.loc 7 244 0
 748 0008 FFF7FEFF 		bl	chDbgCheckClassI
 749              		.loc 7 245 0
 750 000c 019B     		ldr	r3, [sp, #4]
 751 000e 002B     		cmp	r3, #0
 752 0010 03D1     		bne	.L37
 753              		.loc 7 245 0 is_stmt 0 discriminator 2
 754 0012 1A4B     		ldr	r3, .L42
 755 0014 1800     		movs	r0, r3
 756 0016 FFF7FEFF 		bl	chSysHalt
 757              	.L37:
 758              		.loc 7 248 0 is_stmt 1
 759 001a 019B     		ldr	r3, [sp, #4]
 760 001c 1B7D     		ldrb	r3, [r3, #20]
 761 001e 002B     		cmp	r3, #0
 762 0020 02D0     		beq	.L38
 763              		.loc 7 249 0
 764 0022 0223     		movs	r3, #2
 765 0024 5B42     		rsbs	r3, r3, #0
 766 0026 25E0     		b	.L39
 767              	.L38:
 768              		.loc 7 253 0
 769 0028 019B     		ldr	r3, [sp, #4]
 770 002a 1800     		movs	r0, r3
 771 002c FFF7FEFF 		bl	chMBGetFreeCountI
 772 0030 031E     		subs	r3, r0, #0
 773 0032 1DDD     		ble	.L40
 774              		.loc 7 254 0
 775 0034 019B     		ldr	r3, [sp, #4]
 776 0036 9B68     		ldr	r3, [r3, #8]
 777 0038 191D     		adds	r1, r3, #4
 778 003a 019A     		ldr	r2, [sp, #4]
 779 003c 9160     		str	r1, [r2, #8]
 780 003e 009A     		ldr	r2, [sp]
 781 0040 1A60     		str	r2, [r3]
 782              		.loc 7 255 0
 783 0042 019B     		ldr	r3, [sp, #4]
 784 0044 9A68     		ldr	r2, [r3, #8]
 785 0046 019B     		ldr	r3, [sp, #4]
 786 0048 5B68     		ldr	r3, [r3, #4]
 787 004a 9A42     		cmp	r2, r3
 788 004c 03D3     		bcc	.L41
 789              		.loc 7 256 0
 790 004e 019B     		ldr	r3, [sp, #4]
 791 0050 1A68     		ldr	r2, [r3]
 792 0052 019B     		ldr	r3, [sp, #4]
 793 0054 9A60     		str	r2, [r3, #8]
 794              	.L41:
 795              		.loc 7 258 0
 796 0056 019B     		ldr	r3, [sp, #4]
 797 0058 1B69     		ldr	r3, [r3, #16]
 798 005a 5A1C     		adds	r2, r3, #1
ARM GAS  /tmp/ccKk1bt9.s 			page 15


 799 005c 019B     		ldr	r3, [sp, #4]
 800 005e 1A61     		str	r2, [r3, #16]
 801              		.loc 7 261 0
 802 0060 019B     		ldr	r3, [sp, #4]
 803 0062 2033     		adds	r3, r3, #32
 804 0064 0021     		movs	r1, #0
 805 0066 1800     		movs	r0, r3
 806 0068 FFF7FEFF 		bl	chThdDequeueNextI
 807              		.loc 7 263 0
 808 006c 0023     		movs	r3, #0
 809 006e 01E0     		b	.L39
 810              	.L40:
 811              		.loc 7 267 0
 812 0070 0123     		movs	r3, #1
 813 0072 5B42     		rsbs	r3, r3, #0
 814              	.L39:
 815              		.loc 7 268 0
 816 0074 1800     		movs	r0, r3
 817 0076 03B0     		add	sp, sp, #12
 818              		@ sp needed
 819 0078 00BD     		pop	{pc}
 820              	.L43:
 821 007a C046     		.align	2
 822              	.L42:
 823 007c 00000000 		.word	__func__.5725
 824              		.cfi_endproc
 825              	.LFE157:
 826              		.size	chMBPostI, .-chMBPostI
 827              		.section	.text.chMBPostAhead,"ax",%progbits
 828              		.align	1
 829              		.p2align 4,,15
 830              		.global	chMBPostAhead
 831              		.syntax unified
 832              		.code	16
 833              		.thumb_func
 834              		.fpu softvfp
 835              		.type	chMBPostAhead, %function
 836              	chMBPostAhead:
 837              	.LFB158:
 838              		.loc 7 289 0
 839              		.cfi_startproc
 840              		@ args = 0, pretend = 0, frame = 24
 841              		@ frame_needed = 0, uses_anonymous_args = 0
 842 0000 00B5     		push	{lr}
 843              		.cfi_def_cfa_offset 4
 844              		.cfi_offset 14, -4
 845 0002 87B0     		sub	sp, sp, #28
 846              		.cfi_def_cfa_offset 32
 847 0004 0390     		str	r0, [sp, #12]
 848 0006 0291     		str	r1, [sp, #8]
 849 0008 6B46     		mov	r3, sp
 850 000a 0633     		adds	r3, r3, #6
 851 000c 1A80     		strh	r2, [r3]
 852              		.loc 7 292 0
 853 000e FFF7FEFF 		bl	chSysLock
 854              		.loc 7 293 0
 855 0012 6B46     		mov	r3, sp
ARM GAS  /tmp/ccKk1bt9.s 			page 16


 856 0014 0633     		adds	r3, r3, #6
 857 0016 1A88     		ldrh	r2, [r3]
 858 0018 0299     		ldr	r1, [sp, #8]
 859 001a 039B     		ldr	r3, [sp, #12]
 860 001c 1800     		movs	r0, r3
 861 001e FFF7FEFF 		bl	chMBPostAheadS
 862 0022 0300     		movs	r3, r0
 863 0024 0593     		str	r3, [sp, #20]
 864              		.loc 7 294 0
 865 0026 FFF7FEFF 		bl	chSysUnlock
 866              		.loc 7 296 0
 867 002a 059B     		ldr	r3, [sp, #20]
 868              		.loc 7 297 0
 869 002c 1800     		movs	r0, r3
 870 002e 07B0     		add	sp, sp, #28
 871              		@ sp needed
 872 0030 00BD     		pop	{pc}
 873              		.cfi_endproc
 874              	.LFE158:
 875              		.size	chMBPostAhead, .-chMBPostAhead
 876 0032 C046     		.section	.text.chMBPostAheadS,"ax",%progbits
 877              		.align	1
 878              		.p2align 4,,15
 879              		.global	chMBPostAheadS
 880              		.syntax unified
 881              		.code	16
 882              		.thumb_func
 883              		.fpu softvfp
 884              		.type	chMBPostAheadS, %function
 885              	chMBPostAheadS:
 886              	.LFB159:
 887              		.loc 7 318 0
 888              		.cfi_startproc
 889              		@ args = 0, pretend = 0, frame = 24
 890              		@ frame_needed = 0, uses_anonymous_args = 0
 891 0000 00B5     		push	{lr}
 892              		.cfi_def_cfa_offset 4
 893              		.cfi_offset 14, -4
 894 0002 87B0     		sub	sp, sp, #28
 895              		.cfi_def_cfa_offset 32
 896 0004 0390     		str	r0, [sp, #12]
 897 0006 0291     		str	r1, [sp, #8]
 898 0008 6B46     		mov	r3, sp
 899 000a 0633     		adds	r3, r3, #6
 900 000c 1A80     		strh	r2, [r3]
 901              		.loc 7 321 0
 902 000e FFF7FEFF 		bl	chDbgCheckClassS
 903              		.loc 7 322 0
 904 0012 039B     		ldr	r3, [sp, #12]
 905 0014 002B     		cmp	r3, #0
 906 0016 03D1     		bne	.L47
 907              		.loc 7 322 0 is_stmt 0 discriminator 2
 908 0018 234B     		ldr	r3, .L52
 909 001a 1800     		movs	r0, r3
 910 001c FFF7FEFF 		bl	chSysHalt
 911              	.L47:
 912              		.loc 7 326 0 is_stmt 1
ARM GAS  /tmp/ccKk1bt9.s 			page 17


 913 0020 039B     		ldr	r3, [sp, #12]
 914 0022 1B7D     		ldrb	r3, [r3, #20]
 915 0024 002B     		cmp	r3, #0
 916 0026 02D0     		beq	.L48
 917              		.loc 7 327 0
 918 0028 0223     		movs	r3, #2
 919 002a 5B42     		rsbs	r3, r3, #0
 920 002c 38E0     		b	.L49
 921              	.L48:
 922              		.loc 7 331 0
 923 002e 039B     		ldr	r3, [sp, #12]
 924 0030 1800     		movs	r0, r3
 925 0032 FFF7FEFF 		bl	chMBGetFreeCountI
 926 0036 031E     		subs	r3, r0, #0
 927 0038 22DD     		ble	.L50
 928              		.loc 7 332 0
 929 003a 039B     		ldr	r3, [sp, #12]
 930 003c DB68     		ldr	r3, [r3, #12]
 931 003e 1A1F     		subs	r2, r3, #4
 932 0040 039B     		ldr	r3, [sp, #12]
 933 0042 DA60     		str	r2, [r3, #12]
 934 0044 039B     		ldr	r3, [sp, #12]
 935 0046 DA68     		ldr	r2, [r3, #12]
 936 0048 039B     		ldr	r3, [sp, #12]
 937 004a 1B68     		ldr	r3, [r3]
 938 004c 9A42     		cmp	r2, r3
 939 004e 04D2     		bcs	.L51
 940              		.loc 7 333 0
 941 0050 039B     		ldr	r3, [sp, #12]
 942 0052 5B68     		ldr	r3, [r3, #4]
 943 0054 1A1F     		subs	r2, r3, #4
 944 0056 039B     		ldr	r3, [sp, #12]
 945 0058 DA60     		str	r2, [r3, #12]
 946              	.L51:
 947              		.loc 7 335 0
 948 005a 039B     		ldr	r3, [sp, #12]
 949 005c DB68     		ldr	r3, [r3, #12]
 950 005e 029A     		ldr	r2, [sp, #8]
 951 0060 1A60     		str	r2, [r3]
 952              		.loc 7 336 0
 953 0062 039B     		ldr	r3, [sp, #12]
 954 0064 1B69     		ldr	r3, [r3, #16]
 955 0066 5A1C     		adds	r2, r3, #1
 956 0068 039B     		ldr	r3, [sp, #12]
 957 006a 1A61     		str	r2, [r3, #16]
 958              		.loc 7 339 0
 959 006c 039B     		ldr	r3, [sp, #12]
 960 006e 2033     		adds	r3, r3, #32
 961 0070 0021     		movs	r1, #0
 962 0072 1800     		movs	r0, r3
 963 0074 FFF7FEFF 		bl	chThdDequeueNextI
 964              		.loc 7 340 0
 965 0078 FFF7FEFF 		bl	chSchRescheduleS
 966              		.loc 7 342 0
 967 007c 0023     		movs	r3, #0
 968 007e 0FE0     		b	.L49
 969              	.L50:
ARM GAS  /tmp/ccKk1bt9.s 			page 18


 970              		.loc 7 346 0
 971 0080 039B     		ldr	r3, [sp, #12]
 972 0082 1833     		adds	r3, r3, #24
 973 0084 1A00     		movs	r2, r3
 974 0086 6B46     		mov	r3, sp
 975 0088 0633     		adds	r3, r3, #6
 976 008a 1B88     		ldrh	r3, [r3]
 977 008c 1900     		movs	r1, r3
 978 008e 1000     		movs	r0, r2
 979 0090 FFF7FEFF 		bl	chThdEnqueueTimeoutS
 980 0094 0300     		movs	r3, r0
 981 0096 0593     		str	r3, [sp, #20]
 982              		.loc 7 347 0
 983 0098 059B     		ldr	r3, [sp, #20]
 984 009a 002B     		cmp	r3, #0
 985 009c C0D0     		beq	.L47
 986              		.loc 7 349 0
 987 009e 059B     		ldr	r3, [sp, #20]
 988              	.L49:
 989              		.loc 7 350 0
 990 00a0 1800     		movs	r0, r3
 991 00a2 07B0     		add	sp, sp, #28
 992              		@ sp needed
 993 00a4 00BD     		pop	{pc}
 994              	.L53:
 995 00a6 C046     		.align	2
 996              	.L52:
 997 00a8 00000000 		.word	__func__.5738
 998              		.cfi_endproc
 999              	.LFE159:
 1000              		.size	chMBPostAheadS, .-chMBPostAheadS
 1001              		.section	.text.chMBPostAheadI,"ax",%progbits
 1002              		.align	1
 1003              		.p2align 4,,15
 1004              		.global	chMBPostAheadI
 1005              		.syntax unified
 1006              		.code	16
 1007              		.thumb_func
 1008              		.fpu softvfp
 1009              		.type	chMBPostAheadI, %function
 1010              	chMBPostAheadI:
 1011              	.LFB160:
 1012              		.loc 7 367 0
 1013              		.cfi_startproc
 1014              		@ args = 0, pretend = 0, frame = 8
 1015              		@ frame_needed = 0, uses_anonymous_args = 0
 1016 0000 00B5     		push	{lr}
 1017              		.cfi_def_cfa_offset 4
 1018              		.cfi_offset 14, -4
 1019 0002 83B0     		sub	sp, sp, #12
 1020              		.cfi_def_cfa_offset 16
 1021 0004 0190     		str	r0, [sp, #4]
 1022 0006 0091     		str	r1, [sp]
 1023              		.loc 7 369 0
 1024 0008 FFF7FEFF 		bl	chDbgCheckClassI
 1025              		.loc 7 370 0
 1026 000c 019B     		ldr	r3, [sp, #4]
ARM GAS  /tmp/ccKk1bt9.s 			page 19


 1027 000e 002B     		cmp	r3, #0
 1028 0010 03D1     		bne	.L55
 1029              		.loc 7 370 0 is_stmt 0 discriminator 2
 1030 0012 1B4B     		ldr	r3, .L60
 1031 0014 1800     		movs	r0, r3
 1032 0016 FFF7FEFF 		bl	chSysHalt
 1033              	.L55:
 1034              		.loc 7 373 0 is_stmt 1
 1035 001a 019B     		ldr	r3, [sp, #4]
 1036 001c 1B7D     		ldrb	r3, [r3, #20]
 1037 001e 002B     		cmp	r3, #0
 1038 0020 02D0     		beq	.L56
 1039              		.loc 7 374 0
 1040 0022 0223     		movs	r3, #2
 1041 0024 5B42     		rsbs	r3, r3, #0
 1042 0026 28E0     		b	.L57
 1043              	.L56:
 1044              		.loc 7 378 0
 1045 0028 019B     		ldr	r3, [sp, #4]
 1046 002a 1800     		movs	r0, r3
 1047 002c FFF7FEFF 		bl	chMBGetFreeCountI
 1048 0030 031E     		subs	r3, r0, #0
 1049 0032 20DD     		ble	.L58
 1050              		.loc 7 379 0
 1051 0034 019B     		ldr	r3, [sp, #4]
 1052 0036 DB68     		ldr	r3, [r3, #12]
 1053 0038 1A1F     		subs	r2, r3, #4
 1054 003a 019B     		ldr	r3, [sp, #4]
 1055 003c DA60     		str	r2, [r3, #12]
 1056 003e 019B     		ldr	r3, [sp, #4]
 1057 0040 DA68     		ldr	r2, [r3, #12]
 1058 0042 019B     		ldr	r3, [sp, #4]
 1059 0044 1B68     		ldr	r3, [r3]
 1060 0046 9A42     		cmp	r2, r3
 1061 0048 04D2     		bcs	.L59
 1062              		.loc 7 380 0
 1063 004a 019B     		ldr	r3, [sp, #4]
 1064 004c 5B68     		ldr	r3, [r3, #4]
 1065 004e 1A1F     		subs	r2, r3, #4
 1066 0050 019B     		ldr	r3, [sp, #4]
 1067 0052 DA60     		str	r2, [r3, #12]
 1068              	.L59:
 1069              		.loc 7 382 0
 1070 0054 019B     		ldr	r3, [sp, #4]
 1071 0056 DB68     		ldr	r3, [r3, #12]
 1072 0058 009A     		ldr	r2, [sp]
 1073 005a 1A60     		str	r2, [r3]
 1074              		.loc 7 383 0
 1075 005c 019B     		ldr	r3, [sp, #4]
 1076 005e 1B69     		ldr	r3, [r3, #16]
 1077 0060 5A1C     		adds	r2, r3, #1
 1078 0062 019B     		ldr	r3, [sp, #4]
 1079 0064 1A61     		str	r2, [r3, #16]
 1080              		.loc 7 386 0
 1081 0066 019B     		ldr	r3, [sp, #4]
 1082 0068 2033     		adds	r3, r3, #32
 1083 006a 0021     		movs	r1, #0
ARM GAS  /tmp/ccKk1bt9.s 			page 20


 1084 006c 1800     		movs	r0, r3
 1085 006e FFF7FEFF 		bl	chThdDequeueNextI
 1086              		.loc 7 388 0
 1087 0072 0023     		movs	r3, #0
 1088 0074 01E0     		b	.L57
 1089              	.L58:
 1090              		.loc 7 392 0
 1091 0076 0123     		movs	r3, #1
 1092 0078 5B42     		rsbs	r3, r3, #0
 1093              	.L57:
 1094              		.loc 7 393 0
 1095 007a 1800     		movs	r0, r3
 1096 007c 03B0     		add	sp, sp, #12
 1097              		@ sp needed
 1098 007e 00BD     		pop	{pc}
 1099              	.L61:
 1100              		.align	2
 1101              	.L60:
 1102 0080 00000000 		.word	__func__.5745
 1103              		.cfi_endproc
 1104              	.LFE160:
 1105              		.size	chMBPostAheadI, .-chMBPostAheadI
 1106              		.section	.text.chMBFetch,"ax",%progbits
 1107              		.align	1
 1108              		.p2align 4,,15
 1109              		.global	chMBFetch
 1110              		.syntax unified
 1111              		.code	16
 1112              		.thumb_func
 1113              		.fpu softvfp
 1114              		.type	chMBFetch, %function
 1115              	chMBFetch:
 1116              	.LFB161:
 1117              		.loc 7 414 0
 1118              		.cfi_startproc
 1119              		@ args = 0, pretend = 0, frame = 24
 1120              		@ frame_needed = 0, uses_anonymous_args = 0
 1121 0000 00B5     		push	{lr}
 1122              		.cfi_def_cfa_offset 4
 1123              		.cfi_offset 14, -4
 1124 0002 87B0     		sub	sp, sp, #28
 1125              		.cfi_def_cfa_offset 32
 1126 0004 0390     		str	r0, [sp, #12]
 1127 0006 0291     		str	r1, [sp, #8]
 1128 0008 6B46     		mov	r3, sp
 1129 000a 0633     		adds	r3, r3, #6
 1130 000c 1A80     		strh	r2, [r3]
 1131              		.loc 7 417 0
 1132 000e FFF7FEFF 		bl	chSysLock
 1133              		.loc 7 418 0
 1134 0012 6B46     		mov	r3, sp
 1135 0014 0633     		adds	r3, r3, #6
 1136 0016 1A88     		ldrh	r2, [r3]
 1137 0018 0299     		ldr	r1, [sp, #8]
 1138 001a 039B     		ldr	r3, [sp, #12]
 1139 001c 1800     		movs	r0, r3
 1140 001e FFF7FEFF 		bl	chMBFetchS
ARM GAS  /tmp/ccKk1bt9.s 			page 21


 1141 0022 0300     		movs	r3, r0
 1142 0024 0593     		str	r3, [sp, #20]
 1143              		.loc 7 419 0
 1144 0026 FFF7FEFF 		bl	chSysUnlock
 1145              		.loc 7 421 0
 1146 002a 059B     		ldr	r3, [sp, #20]
 1147              		.loc 7 422 0
 1148 002c 1800     		movs	r0, r3
 1149 002e 07B0     		add	sp, sp, #28
 1150              		@ sp needed
 1151 0030 00BD     		pop	{pc}
 1152              		.cfi_endproc
 1153              	.LFE161:
 1154              		.size	chMBFetch, .-chMBFetch
 1155 0032 C046     		.section	.text.chMBFetchS,"ax",%progbits
 1156              		.align	1
 1157              		.p2align 4,,15
 1158              		.global	chMBFetchS
 1159              		.syntax unified
 1160              		.code	16
 1161              		.thumb_func
 1162              		.fpu softvfp
 1163              		.type	chMBFetchS, %function
 1164              	chMBFetchS:
 1165              	.LFB162:
 1166              		.loc 7 443 0
 1167              		.cfi_startproc
 1168              		@ args = 0, pretend = 0, frame = 24
 1169              		@ frame_needed = 0, uses_anonymous_args = 0
 1170 0000 00B5     		push	{lr}
 1171              		.cfi_def_cfa_offset 4
 1172              		.cfi_offset 14, -4
 1173 0002 87B0     		sub	sp, sp, #28
 1174              		.cfi_def_cfa_offset 32
 1175 0004 0390     		str	r0, [sp, #12]
 1176 0006 0291     		str	r1, [sp, #8]
 1177 0008 6B46     		mov	r3, sp
 1178 000a 0633     		adds	r3, r3, #6
 1179 000c 1A80     		strh	r2, [r3]
 1180              		.loc 7 446 0
 1181 000e FFF7FEFF 		bl	chDbgCheckClassS
 1182              		.loc 7 447 0
 1183 0012 039B     		ldr	r3, [sp, #12]
 1184 0014 002B     		cmp	r3, #0
 1185 0016 02D0     		beq	.L65
 1186              		.loc 7 447 0 is_stmt 0 discriminator 3
 1187 0018 029B     		ldr	r3, [sp, #8]
 1188 001a 002B     		cmp	r3, #0
 1189 001c 03D1     		bne	.L66
 1190              	.L65:
 1191              		.loc 7 447 0 discriminator 4
 1192 001e 224B     		ldr	r3, .L71
 1193 0020 1800     		movs	r0, r3
 1194 0022 FFF7FEFF 		bl	chSysHalt
 1195              	.L66:
 1196              		.loc 7 451 0 is_stmt 1
 1197 0026 039B     		ldr	r3, [sp, #12]
ARM GAS  /tmp/ccKk1bt9.s 			page 22


 1198 0028 1B7D     		ldrb	r3, [r3, #20]
 1199 002a 002B     		cmp	r3, #0
 1200 002c 02D0     		beq	.L67
 1201              		.loc 7 452 0
 1202 002e 0223     		movs	r3, #2
 1203 0030 5B42     		rsbs	r3, r3, #0
 1204 0032 36E0     		b	.L68
 1205              	.L67:
 1206              		.loc 7 456 0
 1207 0034 039B     		ldr	r3, [sp, #12]
 1208 0036 1800     		movs	r0, r3
 1209 0038 FFF7FEFF 		bl	chMBGetUsedCountI
 1210 003c 031E     		subs	r3, r0, #0
 1211 003e 20DD     		ble	.L69
 1212              		.loc 7 457 0
 1213 0040 039B     		ldr	r3, [sp, #12]
 1214 0042 DB68     		ldr	r3, [r3, #12]
 1215 0044 191D     		adds	r1, r3, #4
 1216 0046 039A     		ldr	r2, [sp, #12]
 1217 0048 D160     		str	r1, [r2, #12]
 1218 004a 1A68     		ldr	r2, [r3]
 1219 004c 029B     		ldr	r3, [sp, #8]
 1220 004e 1A60     		str	r2, [r3]
 1221              		.loc 7 458 0
 1222 0050 039B     		ldr	r3, [sp, #12]
 1223 0052 DA68     		ldr	r2, [r3, #12]
 1224 0054 039B     		ldr	r3, [sp, #12]
 1225 0056 5B68     		ldr	r3, [r3, #4]
 1226 0058 9A42     		cmp	r2, r3
 1227 005a 03D3     		bcc	.L70
 1228              		.loc 7 459 0
 1229 005c 039B     		ldr	r3, [sp, #12]
 1230 005e 1A68     		ldr	r2, [r3]
 1231 0060 039B     		ldr	r3, [sp, #12]
 1232 0062 DA60     		str	r2, [r3, #12]
 1233              	.L70:
 1234              		.loc 7 461 0
 1235 0064 039B     		ldr	r3, [sp, #12]
 1236 0066 1B69     		ldr	r3, [r3, #16]
 1237 0068 5A1E     		subs	r2, r3, #1
 1238 006a 039B     		ldr	r3, [sp, #12]
 1239 006c 1A61     		str	r2, [r3, #16]
 1240              		.loc 7 464 0
 1241 006e 039B     		ldr	r3, [sp, #12]
 1242 0070 1833     		adds	r3, r3, #24
 1243 0072 0021     		movs	r1, #0
 1244 0074 1800     		movs	r0, r3
 1245 0076 FFF7FEFF 		bl	chThdDequeueNextI
 1246              		.loc 7 465 0
 1247 007a FFF7FEFF 		bl	chSchRescheduleS
 1248              		.loc 7 467 0
 1249 007e 0023     		movs	r3, #0
 1250 0080 0FE0     		b	.L68
 1251              	.L69:
 1252              		.loc 7 471 0
 1253 0082 039B     		ldr	r3, [sp, #12]
 1254 0084 2033     		adds	r3, r3, #32
ARM GAS  /tmp/ccKk1bt9.s 			page 23


 1255 0086 1A00     		movs	r2, r3
 1256 0088 6B46     		mov	r3, sp
 1257 008a 0633     		adds	r3, r3, #6
 1258 008c 1B88     		ldrh	r3, [r3]
 1259 008e 1900     		movs	r1, r3
 1260 0090 1000     		movs	r0, r2
 1261 0092 FFF7FEFF 		bl	chThdEnqueueTimeoutS
 1262 0096 0300     		movs	r3, r0
 1263 0098 0593     		str	r3, [sp, #20]
 1264              		.loc 7 472 0
 1265 009a 059B     		ldr	r3, [sp, #20]
 1266 009c 002B     		cmp	r3, #0
 1267 009e C2D0     		beq	.L66
 1268              		.loc 7 474 0
 1269 00a0 059B     		ldr	r3, [sp, #20]
 1270              	.L68:
 1271              		.loc 7 475 0
 1272 00a2 1800     		movs	r0, r3
 1273 00a4 07B0     		add	sp, sp, #28
 1274              		@ sp needed
 1275 00a6 00BD     		pop	{pc}
 1276              	.L72:
 1277              		.align	2
 1278              	.L71:
 1279 00a8 00000000 		.word	__func__.5758
 1280              		.cfi_endproc
 1281              	.LFE162:
 1282              		.size	chMBFetchS, .-chMBFetchS
 1283              		.section	.text.chMBFetchI,"ax",%progbits
 1284              		.align	1
 1285              		.p2align 4,,15
 1286              		.global	chMBFetchI
 1287              		.syntax unified
 1288              		.code	16
 1289              		.thumb_func
 1290              		.fpu softvfp
 1291              		.type	chMBFetchI, %function
 1292              	chMBFetchI:
 1293              	.LFB163:
 1294              		.loc 7 492 0
 1295              		.cfi_startproc
 1296              		@ args = 0, pretend = 0, frame = 8
 1297              		@ frame_needed = 0, uses_anonymous_args = 0
 1298 0000 00B5     		push	{lr}
 1299              		.cfi_def_cfa_offset 4
 1300              		.cfi_offset 14, -4
 1301 0002 83B0     		sub	sp, sp, #12
 1302              		.cfi_def_cfa_offset 16
 1303 0004 0190     		str	r0, [sp, #4]
 1304 0006 0091     		str	r1, [sp]
 1305              		.loc 7 494 0
 1306 0008 FFF7FEFF 		bl	chDbgCheckClassI
 1307              		.loc 7 495 0
 1308 000c 019B     		ldr	r3, [sp, #4]
 1309 000e 002B     		cmp	r3, #0
 1310 0010 02D0     		beq	.L74
 1311              		.loc 7 495 0 is_stmt 0 discriminator 3
ARM GAS  /tmp/ccKk1bt9.s 			page 24


 1312 0012 009B     		ldr	r3, [sp]
 1313 0014 002B     		cmp	r3, #0
 1314 0016 03D1     		bne	.L75
 1315              	.L74:
 1316              		.loc 7 495 0 discriminator 4
 1317 0018 1A4B     		ldr	r3, .L80
 1318 001a 1800     		movs	r0, r3
 1319 001c FFF7FEFF 		bl	chSysHalt
 1320              	.L75:
 1321              		.loc 7 498 0 is_stmt 1
 1322 0020 019B     		ldr	r3, [sp, #4]
 1323 0022 1B7D     		ldrb	r3, [r3, #20]
 1324 0024 002B     		cmp	r3, #0
 1325 0026 02D0     		beq	.L76
 1326              		.loc 7 499 0
 1327 0028 0223     		movs	r3, #2
 1328 002a 5B42     		rsbs	r3, r3, #0
 1329 002c 26E0     		b	.L77
 1330              	.L76:
 1331              		.loc 7 503 0
 1332 002e 019B     		ldr	r3, [sp, #4]
 1333 0030 1800     		movs	r0, r3
 1334 0032 FFF7FEFF 		bl	chMBGetUsedCountI
 1335 0036 031E     		subs	r3, r0, #0
 1336 0038 1EDD     		ble	.L78
 1337              		.loc 7 504 0
 1338 003a 019B     		ldr	r3, [sp, #4]
 1339 003c DB68     		ldr	r3, [r3, #12]
 1340 003e 191D     		adds	r1, r3, #4
 1341 0040 019A     		ldr	r2, [sp, #4]
 1342 0042 D160     		str	r1, [r2, #12]
 1343 0044 1A68     		ldr	r2, [r3]
 1344 0046 009B     		ldr	r3, [sp]
 1345 0048 1A60     		str	r2, [r3]
 1346              		.loc 7 505 0
 1347 004a 019B     		ldr	r3, [sp, #4]
 1348 004c DA68     		ldr	r2, [r3, #12]
 1349 004e 019B     		ldr	r3, [sp, #4]
 1350 0050 5B68     		ldr	r3, [r3, #4]
 1351 0052 9A42     		cmp	r2, r3
 1352 0054 03D3     		bcc	.L79
 1353              		.loc 7 506 0
 1354 0056 019B     		ldr	r3, [sp, #4]
 1355 0058 1A68     		ldr	r2, [r3]
 1356 005a 019B     		ldr	r3, [sp, #4]
 1357 005c DA60     		str	r2, [r3, #12]
 1358              	.L79:
 1359              		.loc 7 508 0
 1360 005e 019B     		ldr	r3, [sp, #4]
 1361 0060 1B69     		ldr	r3, [r3, #16]
 1362 0062 5A1E     		subs	r2, r3, #1
 1363 0064 019B     		ldr	r3, [sp, #4]
 1364 0066 1A61     		str	r2, [r3, #16]
 1365              		.loc 7 511 0
 1366 0068 019B     		ldr	r3, [sp, #4]
 1367 006a 1833     		adds	r3, r3, #24
 1368 006c 0021     		movs	r1, #0
ARM GAS  /tmp/ccKk1bt9.s 			page 25


 1369 006e 1800     		movs	r0, r3
 1370 0070 FFF7FEFF 		bl	chThdDequeueNextI
 1371              		.loc 7 513 0
 1372 0074 0023     		movs	r3, #0
 1373 0076 01E0     		b	.L77
 1374              	.L78:
 1375              		.loc 7 517 0
 1376 0078 0123     		movs	r3, #1
 1377 007a 5B42     		rsbs	r3, r3, #0
 1378              	.L77:
 1379              		.loc 7 518 0
 1380 007c 1800     		movs	r0, r3
 1381 007e 03B0     		add	sp, sp, #12
 1382              		@ sp needed
 1383 0080 00BD     		pop	{pc}
 1384              	.L81:
 1385 0082 C046     		.align	2
 1386              	.L80:
 1387 0084 00000000 		.word	__func__.5765
 1388              		.cfi_endproc
 1389              	.LFE163:
 1390              		.size	chMBFetchI, .-chMBFetchI
 1391              		.section	.rodata.__func__.5698,"a",%progbits
 1392              		.align	2
 1393              		.type	__func__.5698, %object
 1394              		.size	__func__.5698, 15
 1395              	__func__.5698:
 1396 0000 63684D42 		.ascii	"chMBObjectInit\000"
 1396      4F626A65 
 1396      6374496E 
 1396      697400
 1397              		.section	.rodata.__func__.4993,"a",%progbits
 1398              		.align	2
 1399              		.type	__func__.4993, %object
 1400              		.size	__func__.4993, 12
 1401              	__func__.4993:
 1402 0000 63685379 		.ascii	"chSysUnlock\000"
 1402      73556E6C 
 1402      6F636B00 
 1403              		.section	.rodata.__func__.5705,"a",%progbits
 1404              		.align	2
 1405              		.type	__func__.5705, %object
 1406              		.size	__func__.5705, 11
 1407              	__func__.5705:
 1408 0000 63684D42 		.ascii	"chMBResetI\000"
 1408      52657365 
 1408      744900
 1409              		.section	.rodata.__func__.5718,"a",%progbits
 1410              		.align	2
 1411              		.type	__func__.5718, %object
 1412              		.size	__func__.5718, 10
 1413              	__func__.5718:
 1414 0000 63684D42 		.ascii	"chMBPostS\000"
 1414      506F7374 
 1414      5300
 1415              		.section	.rodata.__func__.5725,"a",%progbits
 1416              		.align	2
ARM GAS  /tmp/ccKk1bt9.s 			page 26


 1417              		.type	__func__.5725, %object
 1418              		.size	__func__.5725, 10
 1419              	__func__.5725:
 1420 0000 63684D42 		.ascii	"chMBPostI\000"
 1420      506F7374 
 1420      4900
 1421              		.section	.rodata.__func__.5738,"a",%progbits
 1422              		.align	2
 1423              		.type	__func__.5738, %object
 1424              		.size	__func__.5738, 15
 1425              	__func__.5738:
 1426 0000 63684D42 		.ascii	"chMBPostAheadS\000"
 1426      506F7374 
 1426      41686561 
 1426      645300
 1427              		.section	.rodata.__func__.5745,"a",%progbits
 1428              		.align	2
 1429              		.type	__func__.5745, %object
 1430              		.size	__func__.5745, 15
 1431              	__func__.5745:
 1432 0000 63684D42 		.ascii	"chMBPostAheadI\000"
 1432      506F7374 
 1432      41686561 
 1432      644900
 1433              		.section	.rodata.__func__.5758,"a",%progbits
 1434              		.align	2
 1435              		.type	__func__.5758, %object
 1436              		.size	__func__.5758, 11
 1437              	__func__.5758:
 1438 0000 63684D42 		.ascii	"chMBFetchS\000"
 1438      46657463 
 1438      685300
 1439              		.section	.rodata.__func__.5765,"a",%progbits
 1440              		.align	2
 1441              		.type	__func__.5765, %object
 1442              		.size	__func__.5765, 11
 1443              	__func__.5765:
 1444 0000 63684D42 		.ascii	"chMBFetchI\000"
 1444      46657463 
 1444      684900
 1445              		.text
 1446              	.Letext0:
 1447              		.file 8 "/home/felix/opt/gcc-arm-none-eabi-6-2017-q1-update/arm-none-eabi/include/machine/_default
 1448              		.file 9 "/home/felix/opt/gcc-arm-none-eabi-6-2017-q1-update/arm-none-eabi/include/sys/_stdint.h"
 1449              		.file 10 "ChibiOS/os/rt/ports/ARMCMx/compilers/GCC/chtypes.h"
 1450              		.file 11 "ChibiOS/os/rt/include/chsystypes.h"
 1451              		.file 12 "ChibiOS/os/rt/ports/ARMCMx/chcore.h"
 1452              		.file 13 "ChibiOS/os/rt/include/chdebug.h"
 1453              		.file 14 "ChibiOS/os/rt/include/chsem.h"
 1454              		.file 15 "ChibiOS/os/rt/include/chmtx.h"
 1455              		.file 16 "ChibiOS/os/rt/include/chregistry.h"
 1456              		.file 17 "ChibiOS/os/ext/CMSIS/ST/STM32F0xx/system_stm32f0xx.h"