ARM GAS  /tmp/ccKk1bt9.s 			page 1


   1              		.cpu cortex-m0
   2              		.eabi_attribute 20, 1
   3              		.eabi_attribute 21, 1
   4              		.eabi_attribute 23, 3
   5              		.eabi_attribute 24, 1
   6              		.eabi_attribute 25, 1
   7              		.eabi_attribute 26, 1
   8              		.eabi_attribute 30, 6
   9              		.eabi_attribute 34, 0
  10              		.eabi_attribute 18, 4
  11              		.file	"chmboxes.c"
  12              		.text
  13              	.Ltext0:
  14              		.cfi_sections	.debug_frame
  15              		.section	.text.port_lock,"ax",%progbits
  16              		.align	1
  17              		.p2align 4,,15
  18              		.syntax unified
  19              		.code	16
  20              		.thumb_func
  21              		.fpu softvfp
  22              		.type	port_lock, %function
  23              	port_lock:
  24              	.LFB38:
  25              		.file 1 "ChibiOS/os/rt/ports/ARMCMx/chcore_v6m.h"
  26              		.loc 1 330 0
  27              		.cfi_startproc
  28              		@ args = 0, pretend = 0, frame = 0
  29              		@ frame_needed = 0, uses_anonymous_args = 0
  30              		@ link register save eliminated.
  31              	.LBB6:
  32              	.LBB7:
  33              		.file 2 "ChibiOS/os/ext/CMSIS/include/core_cmFunc.h"
  34              		.loc 2 344 0
  35              		.syntax divided
  36              	@ 344 "ChibiOS/os/ext/CMSIS/include/core_cmFunc.h" 1
  37 0000 72B6     		cpsid i
  38              	@ 0 "" 2
  39              		.thumb
  40              		.syntax unified
  41              	.LBE7:
  42              	.LBE6:
  43              		.loc 1 333 0
  44 0002 C046     		nop
  45              		@ sp needed
  46 0004 7047     		bx	lr
  47              		.cfi_endproc
  48              	.LFE38:
  49              		.size	port_lock, .-port_lock
  50 0006 C046     		.section	.text.port_unlock,"ax",%progbits
  51              		.align	1
  52              		.p2align 4,,15
  53              		.syntax unified
  54              		.code	16
  55              		.thumb_func
  56              		.fpu softvfp
  57              		.type	port_unlock, %function
ARM GAS  /tmp/ccKk1bt9.s 			page 2


  58              	port_unlock:
  59              	.LFB39:
  60              		.loc 1 339 0
  61              		.cfi_startproc
  62              		@ args = 0, pretend = 0, frame = 0
  63              		@ frame_needed = 0, uses_anonymous_args = 0
  64              		@ link register save eliminated.
  65              	.LBB8:
  66              	.LBB9:
  67              		.loc 2 333 0
  68              		.syntax divided
  69              	@ 333 "ChibiOS/os/ext/CMSIS/include/core_cmFunc.h" 1
  70 0000 62B6     		cpsie i
  71              	@ 0 "" 2
  72              		.thumb
  73              		.syntax unified
  74              	.LBE9:
  75              	.LBE8:
  76              		.loc 1 342 0
  77 0002 C046     		nop
  78              		@ sp needed
  79 0004 7047     		bx	lr
  80              		.cfi_endproc
  81              	.LFE39:
  82              		.size	port_unlock, .-port_unlock
  83 0006 C046     		.section	.text.queue_init,"ax",%progbits
  84              		.align	1
  85              		.p2align 4,,15
  86              		.syntax unified
  87              		.code	16
  88              		.thumb_func
  89              		.fpu softvfp
  90              		.type	queue_init, %function
  91              	queue_init:
  92              	.LFB60:
  93              		.file 3 "ChibiOS/os/rt/include/chschd.h"
  94              		.loc 3 602 0
  95              		.cfi_startproc
  96              		@ args = 0, pretend = 0, frame = 8
  97              		@ frame_needed = 0, uses_anonymous_args = 0
  98              		@ link register save eliminated.
  99 0000 82B0     		sub	sp, sp, #8
 100              		.cfi_def_cfa_offset 8
 101 0002 0190     		str	r0, [sp, #4]
 102              		.loc 3 604 0
 103 0004 019B     		ldr	r3, [sp, #4]
 104 0006 019A     		ldr	r2, [sp, #4]
 105 0008 1A60     		str	r2, [r3]
 106              		.loc 3 605 0
 107 000a 019B     		ldr	r3, [sp, #4]
 108 000c 019A     		ldr	r2, [sp, #4]
 109 000e 5A60     		str	r2, [r3, #4]
 110              		.loc 3 606 0
 111 0010 C046     		nop
 112 0012 02B0     		add	sp, sp, #8
 113              		@ sp needed
 114 0014 7047     		bx	lr
ARM GAS  /tmp/ccKk1bt9.s 			page 3


 115              		.cfi_endproc
 116              	.LFE60:
 117              		.size	queue_init, .-queue_init
 118 0016 C046     		.section	.text.chSysLock,"ax",%progbits
 119              		.align	1
 120              		.p2align 4,,15
 121              		.syntax unified
 122              		.code	16
 123              		.thumb_func
 124              		.fpu softvfp
 125              		.type	chSysLock, %function
 126              	chSysLock:
 127              	.LFB77:
 128              		.file 4 "ChibiOS/os/rt/include/chsys.h"
 129              		.loc 4 346 0
 130              		.cfi_startproc
 131              		@ args = 0, pretend = 0, frame = 0
 132              		@ frame_needed = 0, uses_anonymous_args = 0
 133 0000 10B5     		push	{r4, lr}
 134              		.cfi_def_cfa_offset 8
 135              		.cfi_offset 4, -8
 136              		.cfi_offset 14, -4
 137              		.loc 4 348 0
 138 0002 FFF7FEFF 		bl	port_lock
 139              		.loc 4 350 0
 140 0006 FFF7FEFF 		bl	_dbg_check_lock
 141              		.loc 4 351 0
 142 000a C046     		nop
 143              		@ sp needed
 144 000c 10BD     		pop	{r4, pc}
 145              		.cfi_endproc
 146              	.LFE77:
 147              		.size	chSysLock, .-chSysLock
 148 000e C046     		.section	.text.chSysUnlock,"ax",%progbits
 149              		.align	1
 150              		.p2align 4,,15
 151              		.syntax unified
 152              		.code	16
 153              		.thumb_func
 154              		.fpu softvfp
 155              		.type	chSysUnlock, %function
 156              	chSysUnlock:
 157              	.LFB78:
 158              		.loc 4 358 0
 159              		.cfi_startproc
 160              		@ args = 0, pretend = 0, frame = 0
 161              		@ frame_needed = 0, uses_anonymous_args = 0
 162 0000 10B5     		push	{r4, lr}
 163              		.cfi_def_cfa_offset 8
 164              		.cfi_offset 4, -8
 165              		.cfi_offset 14, -4
 166              		.loc 4 360 0
 167 0002 FFF7FEFF 		bl	_dbg_check_unlock
 168              		.loc 4 367 0
 169 0006 0A4B     		ldr	r3, .L7
 170 0008 1A68     		ldr	r2, [r3]
 171 000a 094B     		ldr	r3, .L7
ARM GAS  /tmp/ccKk1bt9.s 			page 4


 172 000c 9A42     		cmp	r2, r3
 173 000e 0BD0     		beq	.L6
 174              		.loc 4 367 0 is_stmt 0 discriminator 2
 175 0010 074B     		ldr	r3, .L7
 176 0012 9B69     		ldr	r3, [r3, #24]
 177 0014 9A68     		ldr	r2, [r3, #8]
 178 0016 064B     		ldr	r3, .L7
 179 0018 1B68     		ldr	r3, [r3]
 180 001a 9B68     		ldr	r3, [r3, #8]
 181 001c 9A42     		cmp	r2, r3
 182 001e 03D2     		bcs	.L6
 183              		.loc 4 367 0 discriminator 3
 184 0020 044B     		ldr	r3, .L7+4
 185 0022 1800     		movs	r0, r3
 186 0024 FFF7FEFF 		bl	chSysHalt
 187              	.L6:
 188              		.loc 4 371 0 is_stmt 1
 189 0028 FFF7FEFF 		bl	port_unlock
 190              		.loc 4 372 0
 191 002c C046     		nop
 192              		@ sp needed
 193 002e 10BD     		pop	{r4, pc}
 194              	.L8:
 195              		.align	2
 196              	.L7:
 197 0030 00000000 		.word	ch
 198 0034 00000000 		.word	__func__.4993
 199              		.cfi_endproc
 200              	.LFE78:
 201              		.size	chSysUnlock, .-chSysUnlock
 202              		.section	.text.chThdQueueObjectInit,"ax",%progbits
 203              		.align	1
 204              		.p2align 4,,15
 205              		.syntax unified
 206              		.code	16
 207              		.thumb_func
 208              		.fpu softvfp
 209              		.type	chThdQueueObjectInit, %function
 210              	chThdQueueObjectInit:
 211              	.LFB105:
 212              		.file 5 "ChibiOS/os/rt/include/chthreads.h"
 213              		.loc 5 278 0
 214              		.cfi_startproc
 215              		@ args = 0, pretend = 0, frame = 8
 216              		@ frame_needed = 0, uses_anonymous_args = 0
 217 0000 00B5     		push	{lr}
 218              		.cfi_def_cfa_offset 4
 219              		.cfi_offset 14, -4
 220 0002 83B0     		sub	sp, sp, #12
 221              		.cfi_def_cfa_offset 16
 222 0004 0190     		str	r0, [sp, #4]
 223              		.loc 5 280 0
 224 0006 019B     		ldr	r3, [sp, #4]
 225 0008 1800     		movs	r0, r3
 226 000a FFF7FEFF 		bl	queue_init
 227              		.loc 5 281 0
 228 000e C046     		nop
ARM GAS  /tmp/ccKk1bt9.s 			page 5


 229 0010 03B0     		add	sp, sp, #12
 230              		@ sp needed
 231 0012 00BD     		pop	{pc}
 232              		.cfi_endproc
 233              	.LFE105:
 234              		.size	chThdQueueObjectInit, .-chThdQueueObjectInit
 235              		.section	.text.chMBGetSizeI,"ax",%progbits
 236              		.align	1
 237              		.p2align 4,,15
 238              		.syntax unified
 239              		.code	16
 240              		.thumb_func
 241              		.fpu softvfp
 242              		.type	chMBGetSizeI, %function
 243              	chMBGetSizeI:
 244              	.LFB135:
 245              		.file 6 "ChibiOS/os/rt/include/chmboxes.h"
 246              		.loc 6 136 0
 247              		.cfi_startproc
 248              		@ args = 0, pretend = 0, frame = 8
 249              		@ frame_needed = 0, uses_anonymous_args = 0
 250              		@ link register save eliminated.
 251 0000 82B0     		sub	sp, sp, #8
 252              		.cfi_def_cfa_offset 8
 253 0002 0190     		str	r0, [sp, #4]
 254              		.loc 6 140 0
 255 0004 019B     		ldr	r3, [sp, #4]
 256 0006 5B68     		ldr	r3, [r3, #4]
 257 0008 1A00     		movs	r2, r3
 258 000a 019B     		ldr	r3, [sp, #4]
 259 000c 1B68     		ldr	r3, [r3]
 260 000e D31A     		subs	r3, r2, r3
 261 0010 9B10     		asrs	r3, r3, #2
 262              		.loc 6 142 0
 263 0012 1800     		movs	r0, r3
 264 0014 02B0     		add	sp, sp, #8
 265              		@ sp needed
 266 0016 7047     		bx	lr
 267              		.cfi_endproc
 268              	.LFE135:
 269              		.size	chMBGetSizeI, .-chMBGetSizeI
 270              		.section	.text.chMBGetUsedCountI,"ax",%progbits
 271              		.align	1
 272              		.p2align 4,,15
 273              		.syntax unified
 274              		.code	16
 275              		.thumb_func
 276              		.fpu softvfp
 277              		.type	chMBGetUsedCountI, %function
 278              	chMBGetUsedCountI:
 279              	.LFB136:
 280              		.loc 6 153 0
 281              		.cfi_startproc
 282              		@ args = 0, pretend = 0, frame = 8
 283              		@ frame_needed = 0, uses_anonymous_args = 0
 284 0000 00B5     		push	{lr}
 285              		.cfi_def_cfa_offset 4
ARM GAS  /tmp/ccKk1bt9.s 			page 6


 286              		.cfi_offset 14, -4
 287 0002 83B0     		sub	sp, sp, #12
 288              		.cfi_def_cfa_offset 16
 289 0004 0190     		str	r0, [sp, #4]
 290              		.loc 6 155 0
 291 0006 FFF7FEFF 		bl	chDbgCheckClassI
 292              		.loc 6 157 0
 293 000a 019B     		ldr	r3, [sp, #4]
 294 000c 1B69     		ldr	r3, [r3, #16]
 295              		.loc 6 158 0
 296 000e 1800     		movs	r0, r3
 297 0010 03B0     		add	sp, sp, #12
 298              		@ sp needed
 299 0012 00BD     		pop	{pc}
 300              		.cfi_endproc
 301              	.LFE136:
 302              		.size	chMBGetUsedCountI, .-chMBGetUsedCountI
 303              		.section	.text.chMBGetFreeCountI,"ax",%progbits
 304              		.align	1
 305              		.p2align 4,,15
 306              		.syntax unified
 307              		.code	16
 308              		.thumb_func
 309              		.fpu softvfp
 310              		.type	chMBGetFreeCountI, %function
 311              	chMBGetFreeCountI:
 312              	.LFB137:
 313              		.loc 6 168 0
 314              		.cfi_startproc
 315              		@ args = 0, pretend = 0, frame = 8
 316              		@ frame_needed = 0, uses_anonymous_args = 0
 317 0000 10B5     		push	{r4, lr}
 318              		.cfi_def_cfa_offset 8
 319              		.cfi_offset 4, -8
 320              		.cfi_offset 14, -4
 321 0002 82B0     		sub	sp, sp, #8
 322              		.cfi_def_cfa_offset 16
 323 0004 0190     		str	r0, [sp, #4]
 324              		.loc 6 170 0
 325 0006 FFF7FEFF 		bl	chDbgCheckClassI
 326              		.loc 6 172 0
 327 000a 019B     		ldr	r3, [sp, #4]
 328 000c 1800     		movs	r0, r3
 329 000e FFF7FEFF 		bl	chMBGetSizeI
 330 0012 0400     		movs	r4, r0
 331 0014 019B     		ldr	r3, [sp, #4]
 332 0016 1800     		movs	r0, r3
 333 0018 FFF7FEFF 		bl	chMBGetUsedCountI
 334 001c 0300     		movs	r3, r0
 335 001e E31A     		subs	r3, r4, r3
 336              		.loc 6 173 0
 337 0020 1800     		movs	r0, r3
 338 0022 02B0     		add	sp, sp, #8
 339              		@ sp needed
 340 0024 10BD     		pop	{r4, pc}
 341              		.cfi_endproc
 342              	.LFE137:
ARM GAS  /tmp/ccKk1bt9.s 			page 7


 343              		.size	chMBGetFreeCountI, .-chMBGetFreeCountI
 344 0026 C046     		.section	.text.chMBObjectInit,"ax",%progbits
 345              		.align	1
 346              		.p2align 4,,15
 347              		.global	chMBObjectInit
 348              		.syntax unified
 349              		.code	16
 350              		.thumb_func
 351              		.fpu softvfp
 352              		.type	chMBObjectInit, %function
 353              	chMBObjectInit:
 354              	.LFB152:
 355              		.file 7 "ChibiOS/os/rt/src/chmboxes.c"
 356              		.loc 7 86 0
 357              		.cfi_startproc
 358              		@ args = 0, pretend = 0, frame = 16
 359              		@ frame_needed = 0, uses_anonymous_args = 0
 360 0000 00B5     		push	{lr}
 361              		.cfi_def_cfa_offset 4
 362              		.cfi_offset 14, -4
 363 0002 85B0     		sub	sp, sp, #20
 364              		.cfi_def_cfa_offset 24
 365 0004 0390     		str	r0, [sp, #12]
 366 0006 0291     		str	r1, [sp, #8]
 367 0008 0192     		str	r2, [sp, #4]
 368              		.loc 7 88 0
 369 000a 039B     		ldr	r3, [sp, #12]
 370 000c 002B     		cmp	r3, #0
 371 000e 05D0     		beq	.L17
 372              		.loc 7 88 0 is_stmt 0 discriminator 3
 373 0010 029B     		ldr	r3, [sp, #8]
 374 0012 002B     		cmp	r3, #0
 375 0014 02D0     		beq	.L17
 376              		.loc 7 88 0 discriminator 5
 377 0016 019B     		ldr	r3, [sp, #4]
 378 0018 002B     		cmp	r3, #0
 379 001a 03DC     		bgt	.L18
 380              	.L17:
 381              		.loc 7 88 0 discriminator 6
 382 001c 124B     		ldr	r3, .L19
 383 001e 1800     		movs	r0, r3
 384 0020 FFF7FEFF 		bl	chSysHalt
 385              	.L18:
 386              		.loc 7 90 0 is_stmt 1
 387 0024 039B     		ldr	r3, [sp, #12]
 388 0026 029A     		ldr	r2, [sp, #8]
 389 0028 1A60     		str	r2, [r3]
 390              		.loc 7 91 0
 391 002a 039B     		ldr	r3, [sp, #12]
 392 002c 029A     		ldr	r2, [sp, #8]
 393 002e DA60     		str	r2, [r3, #12]
 394              		.loc 7 92 0
 395 0030 039B     		ldr	r3, [sp, #12]
 396 0032 029A     		ldr	r2, [sp, #8]
 397 0034 9A60     		str	r2, [r3, #8]
 398              		.loc 7 93 0
 399 0036 019B     		ldr	r3, [sp, #4]
ARM GAS  /tmp/ccKk1bt9.s 			page 8


 400 0038 9B00     		lsls	r3, r3, #2
 401 003a 029A     		ldr	r2, [sp, #8]
 402 003c D218     		adds	r2, r2, r3
 403 003e 039B     		ldr	r3, [sp, #12]
 404 0040 5A60     		str	r2, [r3, #4]
 405              		.loc 7 94 0
 406 0042 039B     		ldr	r3, [sp, #12]
 407 0044 0022     		movs	r2, #0
 408 0046 1A61     		str	r2, [r3, #16]
 409              		.loc 7 95 0
 410 0048 039B     		ldr	r3, [sp, #12]
 411 004a 0022     		movs	r2, #0
 412 004c 1A75     		strb	r2, [r3, #20]
 413              		.loc 7 96 0
 414 004e 039B     		ldr	r3, [sp, #12]
 415 0050 1833     		adds	r3, r3, #24
 416 0052 1800     		movs	r0, r3
 417 0054 FFF7FEFF 		bl	chThdQueueObjectInit
 418              		.loc 7 97 0
 419 0058 039B     		ldr	r3, [sp, #12]
 420 005a 2033     		adds	r3, r3, #32
 421 005c 1800     		movs	r0, r3
 422 005e FFF7FEFF 		bl	chThdQueueObjectInit
 423              		.loc 7 98 0
 424 0062 C046     		nop
 425 0064 05B0     		add	sp, sp, #20
 426              		@ sp needed
 427 0066 00BD     		pop	{pc}
 428              	.L20:
 429              		.align	2
 430              	.L19:
 431 0068 00000000 		.word	__func__.5698
 432              		.cfi_endproc
 433              	.LFE152:
 434              		.size	chMBObjectInit, .-chMBObjectInit
 435              		.section	.text.chMBReset,"ax",%progbits
 436              		.align	1
 437              		.p2align 4,,15
 438              		.global	chMBReset
 439              		.syntax unified
 440              		.code	16
 441              		.thumb_func
 442              		.fpu softvfp
 443              		.type	chMBReset, %function
 444              	chMBReset:
 445              	.LFB153:
 446              		.loc 7 112 0
 447              		.cfi_startproc
 448              		@ args = 0, pretend = 0, frame = 8
 449              		@ frame_needed = 0, uses_anonymous_args = 0
 450 0000 00B5     		push	{lr}
 451              		.cfi_def_cfa_offset 4
 452              		.cfi_offset 14, -4
 453 0002 83B0     		sub	sp, sp, #12
 454              		.cfi_def_cfa_offset 16
 455 0004 0190     		str	r0, [sp, #4]
 456              		.loc 7 114 0
ARM GAS  /tmp/ccKk1bt9.s 			page 9


 457 0006 FFF7FEFF 		bl	chSysLock
 458              		.loc 7 115 0
 459 000a 019B     		ldr	r3, [sp, #4]
 460 000c 1800     		movs	r0, r3
 461 000e FFF7FEFF 		bl	chMBResetI
 462              		.loc 7 116 0
 463 0012 FFF7FEFF 		bl	chSchRescheduleS
 464              		.loc 7 117 0
 465 0016 FFF7FEFF 		bl	chSysUnlock
 466              		.loc 7 118 0
 467 001a C046     		nop
 468 001c 03B0     		add	sp, sp, #12
 469              		@ sp needed
 470 001e 00BD     		pop	{pc}
 471              		.cfi_endproc
 472              	.LFE153:
 473              		.size	chMBReset, .-chMBReset
 474              		.section	.text.chMBResetI,"ax",%progbits
 475              		.align	1
 476              		.p2align 4,,15
 477              		.global	chMBResetI
 478              		.syntax unified
 479              		.code	16
 480              		.thumb_func
 481              		.fpu softvfp
 482              		.type	chMBResetI, %function
 483              	chMBResetI:
 484              	.LFB154:
 485              		.loc 7 132 0
 486              		.cfi_startproc
 487              		@ args = 0, pretend = 0, frame = 8
 488              		@ frame_needed = 0, uses_anonymous_args = 0
 489 0000 00B5     		push	{lr}
 490              		.cfi_def_cfa_offset 4
 491              		.cfi_offset 14, -4
 492 0002 83B0     		sub	sp, sp, #12
 493              		.cfi_def_cfa_offset 16
 494 0004 0190     		str	r0, [sp, #4]
 495              		.loc 7 134 0
 496 0006 FFF7FEFF 		bl	chDbgCheckClassI
 497              		.loc 7 135 0
 498 000a 019B     		ldr	r3, [sp, #4]
 499 000c 002B     		cmp	r3, #0
 500 000e 03D1     		bne	.L23
 501              		.loc 7 135 0 is_stmt 0 discriminator 2
 502 0010 134B     		ldr	r3, .L24
 503 0012 1800     		movs	r0, r3
 504 0014 FFF7FEFF 		bl	chSysHalt
 505              	.L23:
 506              		.loc 7 137 0 is_stmt 1
 507 0018 019B     		ldr	r3, [sp, #4]
 508 001a 1A68     		ldr	r2, [r3]
 509 001c 019B     		ldr	r3, [sp, #4]
 510 001e 9A60     		str	r2, [r3, #8]
 511              		.loc 7 138 0
 512 0020 019B     		ldr	r3, [sp, #4]
 513 0022 1A68     		ldr	r2, [r3]
ARM GAS  /tmp/ccKk1bt9.s 			page 10


 514 0024 019B     		ldr	r3, [sp, #4]
 515 0026 DA60     		str	r2, [r3, #12]
 516              		.loc 7 139 0
 517 0028 019B     		ldr	r3, [sp, #4]
 518 002a 0022     		movs	r2, #0
 519 002c 1A61     		str	r2, [r3, #16]
 520              		.loc 7 140 0
 521 002e 019B     		ldr	r3, [sp, #4]
 522 0030 0122     		movs	r2, #1
 523 0032 1A75     		strb	r2, [r3, #20]
 524              		.loc 7 141 0
 525 0034 019B     		ldr	r3, [sp, #4]
 526 0036 1833     		adds	r3, r3, #24
 527 0038 1A00     		movs	r2, r3
 528 003a 0223     		movs	r3, #2
 529 003c 5B42     		rsbs	r3, r3, #0
 530 003e 1900     		movs	r1, r3
 531 0040 1000     		movs	r0, r2
 532 0042 FFF7FEFF 		bl	chThdDequeueAllI
 533              		.loc 7 142 0
 534 0046 019B     		ldr	r3, [sp, #4]
 535 0048 2033     		adds	r3, r3, #32
 536 004a 1A00     		movs	r2, r3
 537 004c 0223     		movs	r3, #2
 538 004e 5B42     		rsbs	r3, r3, #0
 539 0050 1900     		movs	r1, r3
 540 0052 1000     		movs	r0, r2
 541 0054 FFF7FEFF 		bl	chThdDequeueAllI
 542              		.loc 7 143 0
 543 0058 C046     		nop
 544 005a 03B0     		add	sp, sp, #12
 545              		@ sp needed
 546 005c 00BD     		pop	{pc}
 547              	.L25:
 548 005e C046     		.align	2
 549              	.L24:
 550 0060 00000000 		.word	__func__.5705
 551              		.cfi_endproc
 552              	.LFE154:
 553              		.size	chMBResetI, .-chMBResetI
 554              		.section	.text.chMBPost,"ax",%progbits
 555              		.align	1
 556              		.p2align 4,,15
 557              		.global	chMBPost
 558              		.syntax unified
 559              		.code	16
 560              		.thumb_func
 561              		.fpu softvfp
 562              		.type	chMBPost, %function
 563              	chMBPost:
 564              	.LFB155:
 565              		.loc 7 164 0
 566              		.cfi_startproc
 567              		@ args = 0, pretend = 0, frame = 24
 568              		@ frame_needed = 0, uses_anonymous_args = 0
 569 0000 00B5     		push	{lr}
 570              		.cfi_def_cfa_offset 4
ARM GAS  /tmp/ccKk1bt9.s 			page 11


 571              		.cfi_offset 14, -4
 572 0002 87B0     		sub	sp, sp, #28
 573              		.cfi_def_cfa_offset 32
 574 0004 0390     		str	r0, [sp, #12]
 575 0006 0291     		str	r1, [sp, #8]
 576 0008 6B46     		mov	r3, sp
 577 000a 0633     		adds	r3, r3, #6
 578 000c 1A80     		strh	r2, [r3]
 579              		.loc 7 167 0
 580 000e FFF7FEFF 		bl	chSysLock
 581              		.loc 7 168 0
 582 0012 6B46     		mov	r3, sp
 583 0014 0633     		adds	r3, r3, #6
 584 0016 1A88     		ldrh	r2, [r3]
 585 0018 0299     		ldr	r1, [sp, #8]
 586 001a 039B     		ldr	r3, [sp, #12]
 587 001c 1800     		movs	r0, r3
 588 001e FFF7FEFF 		bl	chMBPostS
 589 0022 0300     		movs	r3, r0
 590 0024 0593     		str	r3, [sp, #20]
 591              		.loc 7 169 0
 592 0026 FFF7FEFF 		bl	chSysUnlock
 593              		.loc 7 171 0
 594 002a 059B     		ldr	r3, [sp, #20]
 595              		.loc 7 172 0
 596 002c 1800     		movs	r0, r3
 597 002e 07B0     		add	sp, sp, #28
 598              		@ sp needed
 599 0030 00BD     		pop	{pc}
 600              		.cfi_endproc
 601              	.LFE155:
 602              		.size	chMBPost, .-chMBPost
 603 0032 C046     		.section	.text.chMBPostS,"ax",%progbits
 604              		.align	1
 605              		.p2align 4,,15
 606              		.global	chMBPostS
 607              		.syntax unified
 608              		.code	16
 609              		.thumb_func
 610              		.fpu softvfp
 611              		.type	chMBPostS, %function
 612              	chMBPostS:
 613              	.LFB156:
 614              		.loc 7 193 0
 615              		.cfi_startproc
 616              		@ args = 0, pretend = 0, frame = 24
 617              		@ frame_needed = 0, uses_anonymous_args = 0
 618 0000 00B5     		push	{lr}
 619              		.cfi_def_cfa_offset 4
 620              		.cfi_offset 14, -4
 621 0002 87B0     		sub	sp, sp, #28
 622              		.cfi_def_cfa_offset 32
 623 0004 0390     		str	r0, [sp, #12]
 624 0006 0291     		str	r1, [sp, #8]
 625 0008 6B46     		mov	r3, sp
 626 000a 0633     		adds	r3, r3, #6
 627 000c 1A80     		strh	r2, [r3]
ARM GAS  /tmp/ccKk1bt9.s 			page 12


 628              		.loc 7 196 0
 629 000e FFF7FEFF 		bl	chDbgCheckClassS
 630              		.loc 7 197 0
 631 0012 039B     		ldr	r3, [sp, #12]
 632 0014 002B     		cmp	r3, #0
 633 0016 03D1     		bne	.L29
 634              		.loc 7 197 0 is_stmt 0 discriminator 2
 635 0018 214B     		ldr	r3, .L34
 636 001a 1800     		movs	r0, r3
 637 001c FFF7FEFF 		bl	chSysHalt
 638              	.L29:
 639              		.loc 7 201 0 is_stmt 1
 640 0020 039B     		ldr	r3, [sp, #12]
 641 0022 1B7D     		ldrb	r3, [r3, #20]
 642 0024 002B     		cmp	r3, #0
 643 0026 02D0     		beq	.L30
 644              		.loc 7 202 0
 645 0028 0223     		movs	r3, #2
 646 002a 5B42     		rsbs	r3, r3, #0
 647 002c 35E0     		b	.L31
 648              	.L30:
 649              		.loc 7 206 0
 650 002e 039B     		ldr	r3, [sp, #12]
 651 0030 1800     		movs	r0, r3
 652 0032 FFF7FEFF 		bl	chMBGetFreeCountI
 653 0036 031E     		subs	r3, r0, #0
 654 0038 1FDD     		ble	.L32
 655              		.loc 7 207 0
 656 003a 039B     		ldr	r3, [sp, #12]
 657 003c 9B68     		ldr	r3, [r3, #8]
 658 003e 191D     		adds	r1, r3, #4
 659 0040 039A     		ldr	r2, [sp, #12]
 660 0042 9160     		str	r1, [r2, #8]
 661 0044 029A     		ldr	r2, [sp, #8]
 662 0046 1A60     		str	r2, [r3]
 663              		.loc 7 208 0
 664 0048 039B     		ldr	r3, [sp, #12]
 665 004a 9A68     		ldr	r2, [r3, #8]
 666 004c 039B     		ldr	r3, [sp, #12]
 667 004e 5B68     		ldr	r3, [r3, #4]
 668 0050 9A42     		cmp	r2, r3
 669 0052 03D3     		bcc	.L33
 670              		.loc 7 209 0
 671 0054 039B     		ldr	r3, [sp, #12]
 672 0056 1A68     		ldr	r2, [r3]
 673 0058 039B     		ldr	r3, [sp, #12]
 674 005a 9A60     		str	r2, [r3, #8]
 675              	.L33:
 676              		.loc 7 211 0
 677 005c 039B     		ldr	r3, [sp, #12]
 678 005e 1B69     		ldr	r3, [r3, #16]
 679 0060 5A1C     		adds	r2, r3, #1
 680 0062 039B     		ldr	r3, [sp, #12]
 681 0064 1A61     		str	r2, [r3, #16]
 682              		.loc 7 214 0
 683 0066 039B     		ldr	r3, [sp, #12]
 684 0068 2033     		adds	r3, r3, #32
ARM GAS  /tmp/ccKk1bt9.s 			page 13


 685 006a 0021     		movs	r1, #0
 686 006c 1800     		movs	r0, r3
 687 006e FFF7FEFF 		bl	chThdDequeueNextI
 688              		.loc 7 215 0
 689 0072 FFF7FEFF 		bl	chSchRescheduleS
 690              		.loc 7 217 0
 691 0076 0023     		movs	r3, #0
 692 0078 0FE0     		b	.L31
 693              	.L32:
 694              		.loc 7 221 0
 695 007a 039B     		ldr	r3, [sp, #12]
 696 007c 1833     		adds	r3, r3, #24
 697 007e 1A00     		movs	r2, r3
 698 0080 6B46     		mov	r3, sp
 699 0082 0633     		adds	r3, r3, #6
 700 0084 1B88     		ldrh	r3, [r3]
 701 0086 1900     		movs	r1, r3
 702 0088 1000     		movs	r0, r2
 703 008a FFF7FEFF 		bl	chThdEnqueueTimeoutS
 704 008e 0300     		movs	r3, r0
 705 0090 0593     		str	r3, [sp, #20]
 706              		.loc 7 222 0
 707 0092 059B     		ldr	r3, [sp, #20]
 708 0094 002B     		cmp	r3, #0
 709 0096 C3D0     		beq	.L29
 710              		.loc 7 224 0
 711 0098 059B     		ldr	r3, [sp, #20]
 712              	.L31:
 713              		.loc 7 225 0
 714 009a 1800     		movs	r0, r3
 715 009c 07B0     		add	sp, sp, #28
 716              		@ sp needed
 717 009e 00BD     		pop	{pc}
 718              	.L35:
 719              		.align	2
 720              	.L34:
 721 00a0 00000000 		.word	__func__.5718
 722              		.cfi_endproc
 723              	.LFE156:
 724              		.size	chMBPostS, .-chMBPostS
 725              		.section	.text.chMBPostI,"ax",%progbits
 726              		.align	1
 727              		.p2align 4,,15
 728              		.global	chMBPostI
 729              		.syntax unified
 730              		.code	16
 731              		.thumb_func
 732              		.fpu softvfp
 733              		.type	chMBPostI, %function
 734              	chMBPostI:
 735              	.LFB157:
 736              		.loc 7 242 0
 737              		.cfi_startproc
 738              		@ args = 0, pretend = 0, frame = 8
 739              		@ frame_needed = 0, uses_anonymous_args = 0
 740 0000 00B5     		push	{lr}
 741              		.cfi_def_cfa_offset 4
ARM GAS  /tmp/ccKk1bt9.s 			page 14


 742              		.cfi_offset 14, -4
 743 0002 83B0     		sub	sp, sp, #12
 744              		.cfi_def_cfa_offset 16
 745 0004 0190     		str	r0, [sp, #4]
 746 0006 0091     		str	r1, [sp]
 747              		.loc 7 244 0
 748 0008 FFF7FEFF 		bl	chDbgCheckClassI
 749              		.loc 7 245 0
 750 000c 019B     		ldr	r3, [sp, #4]
 751 000e 002B     		cmp	r3, #0
 752 0010 03D1     		bne	.L37
 753              		.loc 7 245 0 is_stmt 0 discriminator 2
 754 0012 1A4B     		ldr	r3, .L42
 755 0014 1800     		movs	r0, r3
 756 0016 FFF7FEFF 		bl	chSysHalt
 757              	.L37:
 758              		.loc 7 248 0 is_stmt 1
 759 001a 019B     		ldr	r3, [sp, #4]
 760 001c 1B7D     		ldrb	r3, [r3, #20]
 761 001e 002B     		cmp	r3, #0
 762 0020 02D0     		beq	.L38
 763              		.loc 7 249 0
 764 0022 0223     		movs	r3, #2
 765 0024 5B42     		rsbs	r3, r3, #0
 766 0026 25E0     		b	.L39
 767              	.L38:
 768              		.loc 7 253 0
 769 0028 019B     		ldr	r3, [sp, #4]
 770 002a 1800     		movs	r0, r3
 771 002c FFF7FEFF 		bl	chMBGetFreeCountI
 772 0030 031E     		subs	r3, r0, #0
 773 0032 1DDD     		ble	.L40
 774              		.loc 7 254 0
 775 0034 019B     		ldr	r3, [sp, #4]
 776 0036 9B68     		ldr	r3, [r3, #8]
 777 0038 191D     		adds	r1, r3, #4
 778 003a 019A     		ldr	r2, [sp, #4]
 779 003c 9160     		str	r1, [r2, #8]
 780 003e 009A     		ldr	r2, [sp]
 781 0040 1A60     		str	r2, [r3]
 782              		.loc 7 255 0
 783 0042 019B     		ldr	r3, [sp, #4]
 784 0044 9A68     		ldr	r2, [r3, #8]
 785 0046 019B     		ldr	r3, [sp, #4]
 786 0048 5B68     		ldr	r3, [r3, #4]
 787 004a 9A42     		cmp	r2, r3
 788 004c 03D3     		bcc	.L41
 789              		.loc 7 256 0
 790 004e 019B     		ldr	r3, [sp, #4]
 791 0050 1A68     		ldr	r2, [r3]
 792 0052 019B     		ldr	r3, [sp, #4]
 793 0054 9A60     		str	r2, [r3, #8]
 794              	.L41:
 795              		.loc 7 258 0
 796 0056 019B     		ldr	r3, [sp, #4]
 797 0058 1B69     		ldr	r3, [r3, #16]
 798 005a 5A1C     		adds	r2, r3, #1
ARM GAS  /tmp/ccKk1bt9.s 			page 15


 799 005c 019B     		ldr	r3, [sp, #4]
 800 005e 1A61     		str	r2, [r3, #16]
 801              		.loc 7 261 0
 802 0060 019B     		ldr	r3, [sp, #4]
 803 0062 2033     		adds	r3, r3, #32
 804 0064 0021     		movs	r1, #0
 805 0066 1800     		movs	r0, r3
 806 0068 FFF7FEFF 		bl	chThdDequeueNextI
 807              		.loc 7 263 0
 808 006c 0023     		movs	r3, #0
 809 006e 01E0     		b	.L39
 810              	.L40:
 811              		.loc 7 267 0
 812 0070 0123     		movs	r3, #1
 813 0072 5B42     		rsbs	r3, r3, #0
 814              	.L39:
 815              		.loc 7 268 0
 816 0074 1800     		movs	r0, r3
 817 0076 03B0     		add	sp, sp, #12
 818              		@ sp needed
 819 0078 00BD     		pop	{pc}
 820              	.L43:
 821 007a C046     		.align	2
 822              	.L42:
 823 007c 00000000 		.word	__func__.5725
 824              		.cfi_endproc
 825              	.LFE157:
 826              		.size	chMBPostI, .-chMBPostI
 827              		.section	.text.chMBPostAhead,"ax",%progbits
 828              		.align	1
 829              		.p2align 4,,15
 830              		.global	chMBPostAhead
 831              		.syntax unified
 832              		.code	16
 833              		.thumb_func
 834              		.fpu softvfp
 835              		.type	chMBPostAhead, %function
 836              	chMBPostAhead:
 837              	.LFB158:
 838              		.loc 7 289 0
 839              		.cfi_startproc
 840              		@ args = 0, pretend = 0, frame = 24
 841              		@ frame_needed = 0, uses_anonymous_args = 0
 842 0000 00B5     		push	{lr}
 843              		.cfi_def_cfa_offset 4
 844              		.cfi_offset 14, -4
 845 0002 87B0     		sub	sp, sp, #28
 846              		.cfi_def_cfa_offset 32
 847 0004 0390     		str	r0, [sp, #12]
 848 0006 0291     		str	r1, [sp, #8]
 849 0008 6B46     		mov	r3, sp
 850 000a 0633     		adds	r3, r3, #6
 851 000c 1A80     		strh	r2, [r3]
 852              		.loc 7 292 0
 853 000e FFF7FEFF 		bl	chSysLock
 854              		.loc 7 293 0
 855 0012 6B46     		mov	r3, sp
ARM GAS  /tmp/ccKk1bt9.s 			page 16


 856 0014 0633     		adds	r3, r3, #6
 857 0016 1A88     		ldrh	r2, [r3]
 858 0018 0299     		ldr	r1, [sp, #8]
 859 001a 039B     		ldr	r3, [sp, #12]
 860 001c 1800     		movs	r0, r3
 861 001e FFF7FEFF 		bl	chMBPostAheadS
 862 0022 0300     		movs	r3, r0
 863 0024 0593     		str	r3, [sp, #20]
 864              		.loc 7 294 0
 865 0026 FFF7FEFF 		bl	chSysUnlock
 866              		.loc 7 296 0
 867 002a 059B     		ldr	r3, [sp, #20]
 868              		.loc 7 297 0
 869 002c 1800     		movs	r0, r3
 870 002e 07B0     		add	sp, sp, #28
 871              		@ sp needed
 872 0030 00BD     		pop	{pc}
 873              		.cfi_endproc
 874              	.LFE158:
 875              		.size	chMBPostAhead, .-chMBPostAhead
 876 0032 C046     		.section	.text.chMBPostAheadS,"ax",%progbits
 877              		.align	1
 878              		.p2align 4,,15
 879              		.global	chMBPostAheadS
 880              		.syntax unified
 881              		.code	16
 882              		.thumb_func
 883              		.fpu softvfp
 884              		.type	chMBPostAheadS, %function
 885              	chMBPostAheadS:
 886              	.LFB159:
 887              		.loc 7 318 0
 888              		.cfi_startproc
 889              		@ args = 0, pretend = 0, frame = 24
 890              		@ frame_needed = 0, uses_anonymous_args = 0
 891 0000 00B5     		push	{lr}
 892              		.cfi_def_cfa_offset 4
 893              		.cfi_offset 14, -4
 894 0002 87B0     		sub	sp, sp, #28
 895              		.cfi_def_cfa_offset 32
 896 0004 0390     		str	r0, [sp, #12]
 897 0006 0291     		str	r1, [sp, #8]
 898 0008 6B46     		mov	r3, sp
 899 000a 0633     		adds	r3, r3, #6
 900 000c 1A80     		strh	r2, [r3]
 901              		.loc 7 321 0
 902 000e FFF7FEFF 		bl	chDbgCheckClassS
 903              		.loc 7 322 0
 904 0012 039B     		ldr	r3, [sp, #12]
 905 0014 002B     		cmp	r3, #0
 906 0016 03D1     		bne	.L47
 907              		.loc 7 322 0 is_stmt 0 discriminator 2
 908 0018 234B     		ldr	r3, .L52
 909 001a 1800     		movs	r0, r3
 910 001c FFF7FEFF 		bl	chSysHalt
 911              	.L47:
 912              		.loc 7 326 0 is_stmt 1
ARM GAS  /tmp/ccKk1bt9.s 			page 17


 913 0020 039B     		ldr	r3, [sp, #12]
 914 0022 1B7D     		ldrb	r3, [r3, #20]
 915 0024 002B     		cmp	r3, #0
 916 0026 02D0     		beq	.L48
 917              		.loc 7 327 0
 918 0028 0223     		movs	r3, #2
 919 002a 5B42     		rsbs	r3, r3, #0
 920 002c 38E0     		b	.L49
 921              	.L48:
 922              		.loc 7 331 0
 923 002e 039B     		ldr	r3, [sp, #12]
 924 0030 1800     		movs	r0, r3
 925 0032 FFF7FEFF 		bl	chMBGetFreeCountI
 926 0036 031E     		subs	r3, r0, #0
 927 0038 22DD     		ble	.L50
 928              		.loc 7 332 0
 929 003a 039B     		ldr	r3, [sp, #12]
 930 003c DB68     		ldr	r3, [r3, #12]
 931 003e 1A1F     		subs	r2, r3, #4
 932 0040 039B     		ldr	r3, [sp, #12]
 933 0042 DA60     		str	r2, [r3, #12]
 934 0044 039B     		ldr	r3, [sp, #12]
 935 0046 DA68     		ldr	r2, [r3, #12]
 936 0048 039B     		ldr	r3, [sp, #12]
 937 004a 1B68     		ldr	r3, [r3]
 938 004c 9A42     		cmp	r2, r3
 939 004e 04D2     		bcs	.L51
 940              		.loc 7 333 0
 941 0050 039B     		ldr	r3, [sp, #12]
 942 0052 5B68     		ldr	r3, [r3, #4]
 943 0054 1A1F     		subs	r2, r3, #4
 944 0056 039B     		ldr	r3, [sp, #12]
 945 0058 DA60     		str	r2, [r3, #12]
 946              	.L51:
 947              		.loc 7 335 0
 948 005a 039B     		ldr	r3, [sp, #12]
 949 005c DB68     		ldr	r3, [r3, #12]
 950 005e 029A     		ldr	r2, [sp, #8]
 951 0060 1A60     		str	r2, [r3]
 952              		.loc 7 336 0
 953 0062 039B     		ldr	r3, [sp, #12]
 954 0064 1B69     		ldr	r3, [r3, #16]
 955 0066 5A1C     		adds	r2, r3, #1
 956 0068 039B     		ldr	r3, [sp, #12]
 957 006a 1A61     		str	r2, [r3, #16]
 958              		.loc 7 339 0
 959 006c 039B     		ldr	r3, [sp, #12]
 960 006e 2033     		adds	r3, r3, #32
 961 0070 0021     		movs	r1, #0
 962 0072 1800     		movs	r0, r3
 963 0074 FFF7FEFF 		bl	chThdDequeueNextI
 964              		.loc 7 340 0
 965 0078 FFF7FEFF 		bl	chSchRescheduleS
 966              		.loc 7 342 0
 967 007c 0023     		movs	r3, #0
 968 007e 0FE0     		b	.L49
 969              	.L50:
ARM GAS  /tmp/ccKk1bt9.s 			page 18


 970              		.loc 7 346 0
 971 0080 039B     		ldr	r3, [sp, #12]
 972 0082 1833     		adds	r3, r3, #24
 973 0084 1A00     		movs	r2, r3
 974 0086 6B46     		mov	r3, sp
 975 0088 0633     		adds	r3, r3, #6
 976 008a 1B88     		ldrh	r3, [r3]
 977 008c 1900     		movs	r1, r3
 978 008e 1000     		movs	r0, r2
 979 0090 FFF7FEFF 		bl	chThdEnqueueTimeoutS
 980 0094 0300     		movs	r3, r0
 981 0096 0593     		str	r3, [sp, #20]
 982              		.loc 7 347 0
 983 0098 059B     		ldr	r3, [sp, #20]
 984 009a 002B     		cmp	r3, #0
 985 009c C0D0     		beq	.L47
 986              		.loc 7 349 0
 987 009e 059B     		ldr	r3, [sp, #20]
 988              	.L49:
 989              		.loc 7 350 0
 990 00a0 1800     		movs	r0, r3
 991 00a2 07B0     		add	sp, sp, #28
 992              		@ sp needed
 993 00a4 00BD     		pop	{pc}
 994              	.L53:
 995 00a6 C046     		.align	2
 996              	.L52:
 997 00a8 00000000 		.word	__func__.5738
 998              		.cfi_endproc
 999              	.LFE159:
 1000              		.size	chMBPostAheadS, .-chMBPostAheadS
 1001              		.section	.text.chMBPostAheadI,"ax",%progbits
 1002              		.align	1
 1003              		.p2align 4,,15
 1004              		.global	chMBPostAheadI
 1005              		.syntax unified
 1006              		.code	16
 1007              		.thumb_func
 1008              		.fpu softvfp
 1009              		.type	chMBPostAheadI, %function
 1010              	chMBPostAheadI:
 1011              	.LFB160:
 1012              		.loc 7 367 0
 1013              		.cfi_startproc
 1014              		@ args = 0, pretend = 0, frame = 8
 1015              		@ frame_needed = 0, uses_anonymous_args = 0
 1016 0000 00B5     		push	{lr}
 1017              		.cfi_def_cfa_offset 4
 1018              		.cfi_offset 14, -4
 1019 0002 83B0     		sub	sp, sp, #12
 1020              		.cfi_def_cfa_offset 16
 1021 0004 0190     		str	r0, [sp, #4]
 1022 0006 0091     		str	r1, [sp]
 1023              		.loc 7 369 0
 1024 0008 FFF7FEFF 		bl	chDbgCheckClassI
 1025              		.loc 7 370 0
 1026 000c 019B     		ldr	r3, [sp, #4]
ARM GAS  /tmp/ccKk1bt9.s 			page 19


 1027 000e 002B     		cmp	r3, #0
 1028 0010 03D1     		bne	.L55
 1029              		.loc 7 370 0 is_stmt 0 discriminator 2
 1030 0012 1B4B     		ldr	r3, .L60
 1031 0014 1800     		movs	r0, r3
 1032 0016 FFF7FEFF 		bl	chSysHalt
 1033              	.L55:
 1034              		.loc 7 373 0 is_stmt 1
 1035 001a 019B     		ldr	r3, [sp, #4]
 1036 001c 1B7D     		ldrb	r3, [r3, #20]
 1037 001e 002B     		cmp	r3, #0
 1038 0020 02D0     		beq	.L56
 1039              		.loc 7 374 0
 1040 0022 0223     		movs	r3, #2
 1041 0024 5B42     		rsbs	r3, r3, #0
 1042 0026 28E0     		b	.L57
 1043              	.L56:
 1044              		.loc 7 378 0
 1045 0028 019B     		ldr	r3, [sp, #4]
 1046 002a 1800     		movs	r0, r3
 1047 002c FFF7FEFF 		bl	chMBGetFreeCountI
 1048 0030 031E     		subs	r3, r0, #0
 1049 0032 20DD     		ble	.L58
 1050              		.loc 7 379 0
 1051 0034 019B     		ldr	r3, [sp, #4]
 1052 0036 DB68     		ldr	r3, [r3, #12]
 1053 0038 1A1F     		subs	r2, r3, #4
 1054 003a 019B     		ldr	r3, [sp, #4]
 1055 003c DA60     		str	r2, [r3, #12]
 1056 003e 019B     		ldr	r3, [sp, #4]
 1057 0040 DA68     		ldr	r2, [r3, #12]
 1058 0042 019B     		ldr	r3, [sp, #4]
 1059 0044 1B68     		ldr	r3, [r3]
 1060 0046 9A42     		cmp	r2, r3
 1061 0048 04D2     		bcs	.L59
 1062              		.loc 7 380 0
 1063 004a 019B     		ldr	r3, [sp, #4]
 1064 004c 5B68     		ldr	r3, [r3, #4]
 1065 004e 1A1F     		subs	r2, r3, #4
 1066 0050 019B     		ldr	r3, [sp, #4]
 1067 0052 DA60     		str	r2, [r3, #12]
 1068              	.L59:
 1069              		.loc 7 382 0
 1070 0054 019B     		ldr	r3, [sp, #4]
 1071 0056 DB68     		ldr	r3, [r3, #12]
 1072 0058 009A     		ldr	r2, [sp]
 1073 005a 1A60     		str	r2, [r3]
 1074              		.loc 7 383 0
 1075 005c 019B     		ldr	r3, [sp, #4]
 1076 005e 1B69     		ldr	r3, [r3, #16]
 1077 0060 5A1C     		adds	r2, r3, #1
 1078 0062 019B     		ldr	r3, [sp, #4]
 1079 0064 1A61     		str	r2, [r3, #16]
 1080              		.loc 7 386 0
 1081 0066 019B     		ldr	r3, [sp, #4]
 1082 0068 2033     		adds	r3, r3, #32
 1083 006a 0021     		movs	r1, #0
ARM GAS  /tmp/ccKk1bt9.s 			page 20


 1084 006c 1800     		movs	r0, r3
 1085 006e FFF7FEFF 		bl	chThdDequeueNextI
 1086              		.loc 7 388 0
 1087 0072 0023     		movs	r3, #0
 1088 0074 01E0     		b	.L57
 1089              	.L58:
 1090              		.loc 7 392 0
 1091 0076 0123     		movs	r3, #1
 1092 0078 5B42     		rsbs	r3, r3, #0
 1093              	.L57:
 1094              		.loc 7 393 0
 1095 007a 1800     		movs	r0, r3
 1096 007c 03B0     		add	sp, sp, #12
 1097              		@ sp needed
 1098 007e 00BD     		pop	{pc}
 1099              	.L61:
 1100              		.align	2
 1101              	.L60:
 1102 0080 00000000 		.word	__func__.5745
 1103              		.cfi_endproc
 1104              	.LFE160:
 1105              		.size	chMBPostAheadI, .-chMBPostAheadI
 1106              		.section	.text.chMBFetch,"ax",%progbits
 1107              		.align	1
 1108              		.p2align 4,,15
 1109              		.global	chMBFetch
 1110              		.syntax unified
 1111              		.code	16
 1112              		.thumb_func
 1113              		.fpu softvfp
 1114              		.type	chMBFetch, %function
 1115              	chMBFetch:
 1116              	.LFB161:
 1117              		.loc 7 414 0
 1118              		.cfi_startproc
 1119              		@ args = 0, pretend = 0, frame = 24
 1120              		@ frame_needed = 0, uses_anonymous_args = 0
 1121 0000 00B5     		push	{lr}
 1122              		.cfi_def_cfa_offset 4
 1123              		.cfi_offset 14, -4
 1124 0002 87B0     		sub	sp, sp, #28
 1125              		.cfi_def_cfa_offset 32
 1126 0004 0390     		str	r0, [sp, #12]
 1127 0006 0291     		str	r1, [sp, #8]
 1128 0008 6B46     		mov	r3, sp
 1129 000a 0633     		adds	r3, r3, #6
 1130 000c 1A80     		strh	r2, [r3]
 1131              		.loc 7 417 0
 1132 000e FFF7FEFF 		bl	chSysLock
 1133              		.loc 7 418 0
 1134 0012 6B46     		mov	r3, sp
 1135 0014 0633     		adds	r3, r3, #6
 1136 0016 1A88     		ldrh	r2, [r3]
 1137 0018 0299     		ldr	r1, [sp, #8]
 1138 001a 039B     		ldr	r3, [sp, #12]
 1139 001c 1800     		movs	r0, r3
 1140 001e FFF7FEFF 		bl	chMBFetchS
ARM GAS  /tmp/ccKk1bt9.s 			page 21


 1141 0022 0300     		movs	r3, r0
 1142 0024 0593     		str	r3, [sp, #20]
 1143              		.loc 7 419 0
 1144 0026 FFF7FEFF 		bl	chSysUnlock
 1145              		.loc 7 421 0
 1146 002a 059B     		ldr	r3, [sp, #20]
 1147              		.loc 7 422 0
 1148 002c 1800     		movs	r0, r3
 1149 002e 07B0     		add	sp, sp, #28
 1150              		@ sp needed
 1151 0030 00BD     		pop	{pc}
 1152              		.cfi_endproc
 1153              	.LFE161:
 1154              		.size	chMBFetch, .-chMBFetch
 1155 0032 C046     		.section	.text.chMBFetchS,"ax",%progbits
 1156              		.align	1
 1157              		.p2align 4,,15
 1158              		.global	chMBFetchS
 1159              		.syntax unified
 1160              		.code	16
 1161              		.thumb_func
 1162              		.fpu softvfp
 1163              		.type	chMBFetchS, %function
 1164              	chMBFetchS:
 1165              	.LFB162:
 1166              		.loc 7 443 0
 1167              		.cfi_startproc
 1168              		@ args = 0, pretend = 0, frame = 24
 1169              		@ frame_needed = 0, uses_anonymous_args = 0
 1170 0000 00B5     		push	{lr}
 1171              		.cfi_def_cfa_offset 4
 1172              		.cfi_offset 14, -4
 1173 0002 87B0     		sub	sp, sp, #28
 1174              		.cfi_def_cfa_offset 32
 1175 0004 0390     		str	r0, [sp, #12]
 1176 0006 0291     		str	r1, [sp, #8]
 1177 0008 6B46     		mov	r3, sp
 1178 000a 0633     		adds	r3, r3, #6
 1179 000c 1A80     		strh	r2, [r3]
 1180              		.loc 7 446 0
 1181 000e FFF7FEFF 		bl	chDbgCheckClassS
 1182              		.loc 7 447 0
 1183 0012 039B     		ldr	r3, [sp, #12]
 1184 0014 002B     		cmp	r3, #0
 1185 0016 02D0     		beq	.L65
 1186              		.loc 7 447 0 is_stmt 0 discriminator 3
 1187 0018 029B     		ldr	r3, [sp, #8]
 1188 001a 002B     		cmp	r3, #0
 1189 001c 03D1     		bne	.L66
 1190              	.L65:
 1191              		.loc 7 447 0 discriminator 4
 1192 001e 224B     		ldr	r3, .L71
 1193 0020 1800     		movs	r0, r3
 1194 0022 FFF7FEFF 		bl	chSysHalt
 1195              	.L66:
 1196              		.loc 7 451 0 is_stmt 1
 1197 0026 039B     		ldr	r3, [sp, #12]
ARM GAS  /tmp/ccKk1bt9.s 			page 22


 1198 0028 1B7D     		ldrb	r3, [r3, #20]
 1199 002a 002B     		cmp	r3, #0
 1200 002c 02D0     		beq	.L67
 1201              		.loc 7 452 0
 1202 002e 0223     		movs	r3, #2
 1203 0030 5B42     		rsbs	r3, r3, #0
 1204 0032 36E0     		b	.L68
 1205              	.L67:
 1206              		.loc 7 456 0
 1207 0034 039B     		ldr	r3, [sp, #12]
 1208 0036 1800     		movs	r0, r3
 1209 0038 FFF7FEFF 		bl	chMBGetUsedCountI
 1210 003c 031E     		subs	r3, r0, #0
 1211 003e 20DD     		ble	.L69
 1212              		.loc 7 457 0
 1213 0040 039B     		ldr	r3, [sp, #12]
 1214 0042 DB68     		ldr	r3, [r3, #12]
 1215 0044 191D     		adds	r1, r3, #4
 1216 0046 039A     		ldr	r2, [sp, #12]
 1217 0048 D160     		str	r1, [r2, #12]
 1218 004a 1A68     		ldr	r2, [r3]
 1219 004c 029B     		ldr	r3, [sp, #8]
 1220 004e 1A60     		str	r2, [r3]
 1221              		.loc 7 458 0
 1222 0050 039B     		ldr	r3, [sp, #12]
 1223 0052 DA68     		ldr	r2, [r3, #12]
 1224 0054 039B     		ldr	r3, [sp, #12]
 1225 0056 5B68     		ldr	r3, [r3, #4]
 1226 0058 9A42     		cmp	r2, r3
 1227 005a 03D3     		bcc	.L70
 1228              		.loc 7 459 0
 1229 005c 039B     		ldr	r3, [sp, #12]
 1230 005e 1A68     		ldr	r2, [r3]
 1231 0060 039B     		ldr	r3, [sp, #12]
 1232 0062 DA60     		str	r2, [r3, #12]
 1233              	.L70:
 1234              		.loc 7 461 0
 1235 0064 039B     		ldr	r3, [sp, #12]
 1236 0066 1B69     		ldr	r3, [r3, #16]
 1237 0068 5A1E     		subs	r2, r3, #1
 1238 006a 039B     		ldr	r3, [sp, #12]
 1239 006c 1A61     		str	r2, [r3, #16]
 1240              		.loc 7 464 0
 1241 006e 039B     		ldr	r3, [sp, #12]
 1242 0070 1833     		adds	r3, r3, #24
 1243 0072 0021     		movs	r1, #0
 1244 0074 1800     		movs	r0, r3
 1245 0076 FFF7FEFF 		bl	chThdDequeueNextI
 1246              		.loc 7 465 0
 1247 007a FFF7FEFF 		bl	chSchRescheduleS
 1248              		.loc 7 467 0
 1249 007e 0023     		movs	r3, #0
 1250 0080 0FE0     		b	.L68
 1251              	.L69:
 1252              		.loc 7 471 0
 1253 0082 039B     		ldr	r3, [sp, #12]
 1254 0084 2033     		adds	r3, r3, #32
ARM GAS  /tmp/ccKk1bt9.s 			page 23


 1255 0086 1A00     		movs	r2, r3
 1256 0088 6B46     		mov	r3, sp
 1257 008a 0633     		adds	r3, r3, #6
 1258 008c 1B88     		ldrh	r3, [r3]
 1259 008e 1900     		movs	r1, r3
 1260 0090 1000     		movs	r0, r2
 1261 0092 FFF7FEFF 		bl	chThdEnqueueTimeoutS
 1262 0096 0300     		movs	r3, r0
 1263 0098 0593     		str	r3, [sp, #20]
 1264              		.loc 7 472 0
 1265 009a 059B     		ldr	r3, [sp, #20]
 1266 009c 002B     		cmp	r3, #0
 1267 009e C2D0     		beq	.L66
 1268              		.loc 7 474 0
 1269 00a0 059B     		ldr	r3, [sp, #20]
 1270              	.L68:
 1271              		.loc 7 475 0
 1272 00a2 1800     		movs	r0, r3
 1273 00a4 07B0     		add	sp, sp, #28
 1274              		@ sp needed
 1275 00a6 00BD     		pop	{pc}
 1276              	.L72:
 1277              		.align	2
 1278              	.L71:
 1279 00a8 00000000 		.word	__func__.5758
 1280              		.cfi_endproc
 1281              	.LFE162:
 1282              		.size	chMBFetchS, .-chMBFetchS
 1283              		.section	.text.chMBFetchI,"ax",%progbits
 1284              		.align	1
 1285              		.p2align 4,,15
 1286              		.global	chMBFetchI
 1287              		.syntax unified
 1288              		.code	16
 1289              		.thumb_func
 1290              		.fpu softvfp
 1291              		.type	chMBFetchI, %function
 1292              	chMBFetchI:
 1293              	.LFB163:
 1294              		.loc 7 492 0
 1295              		.cfi_startproc
 1296              		@ args = 0, pretend = 0, frame = 8
 1297              		@ frame_needed = 0, uses_anonymous_args = 0
 1298 0000 00B5     		push	{lr}
 1299              		.cfi_def_cfa_offset 4
 1300              		.cfi_offset 14, -4
 1301 0002 83B0     		sub	sp, sp, #12
 1302              		.cfi_def_cfa_offset 16
 1303 0004 0190     		str	r0, [sp, #4]
 1304 0006 0091     		str	r1, [sp]
 1305              		.loc 7 494 0
 1306 0008 FFF7FEFF 		bl	chDbgCheckClassI
 1307              		.loc 7 495 0
 1308 000c 019B     		ldr	r3, [sp, #4]
 1309 000e 002B     		cmp	r3, #0
 1310 0010 02D0     		beq	.L74
 1311              		.loc 7 495 0 is_stmt 0 discriminator 3
ARM GAS  /tmp/ccKk1bt9.s 			page 24


 1312 0012 009B     		ldr	r3, [sp]
 1313 0014 002B     		cmp	r3, #0
 1314 0016 03D1     		bne	.L75
 1315              	.L74:
 1316              		.loc 7 495 0 discriminator 4
 1317 0018 1A4B     		ldr	r3, .L80
 1318 001a 1800     		movs	r0, r3
 1319 001c FFF7FEFF 		bl	chSysHalt
 1320              	.L75:
 1321              		.loc 7 498 0 is_stmt 1
 1322 0020 019B     		ldr	r3, [sp, #4]
 1323 0022 1B7D     		ldrb	r3, [r3, #20]
 1324 0024 002B     		cmp	r3, #0
 1325 0026 02D0     		beq	.L76
 1326              		.loc 7 499 0
 1327 0028 0223     		movs	r3, #2
 1328 002a 5B42     		rsbs	r3, r3, #0
 1329 002c 26E0     		b	.L77
 1330              	.L76:
 1331              		.loc 7 503 0
 1332 002e 019B     		ldr	r3, [sp, #4]
 1333 0030 1800     		movs	r0, r3
 1334 0032 FFF7FEFF 		bl	chMBGetUsedCountI
 1335 0036 031E     		subs	r3, r0, #0
 1336 0038 1EDD     		ble	.L78
 1337              		.loc 7 504 0
 1338 003a 019B     		ldr	r3, [sp, #4]
 1339 003c DB68     		ldr	r3, [r3, #12]
 1340 003e 191D     		adds	r1, r3, #4
 1341 0040 019A     		ldr	r2, [sp, #4]
 1342 0042 D160     		str	r1, [r2, #12]
 1343 0044 1A68     		ldr	r2, [r3]
 1344 0046 009B     		ldr	r3, [sp]
 1345 0048 1A60     		str	r2, [r3]
 1346              		.loc 7 505 0
 1347 004a 019B     		ldr	r3, [sp, #4]
 1348 004c DA68     		ldr	r2, [r3, #12]
 1349 004e 019B     		ldr	r3, [sp, #4]
 1350 0050 5B68     		ldr	r3, [r3, #4]
 1351 0052 9A42     		cmp	r2, r3
 1352 0054 03D3     		bcc	.L79
 1353              		.loc 7 506 0
 1354 0056 019B     		ldr	r3, [sp, #4]
 1355 0058 1A68     		ldr	r2, [r3]
 1356 005a 019B     		ldr	r3, [sp, #4]
 1357 005c DA60     		str	r2, [r3, #12]
 1358              	.L79:
 1359              		.loc 7 508 0
 1360 005e 019B     		ldr	r3, [sp, #4]
 1361 0060 1B69     		ldr	r3, [r3, #16]
 1362 0062 5A1E     		subs	r2, r3, #1
 1363 0064 019B     		ldr	r3, [sp, #4]
 1364 0066 1A61     		str	r2, [r3, #16]
 1365              		.loc 7 511 0
 1366 0068 019B     		ldr	r3, [sp, #4]
 1367 006a 1833     		adds	r3, r3, #24
 1368 006c 0021     		movs	r1, #0
ARM GAS  /tmp/ccKk1bt9.s 			page 25


 1369 006e 1800     		movs	r0, r3
 1370 0070 FFF7FEFF 		bl	chThdDequeueNextI
 1371              		.loc 7 513 0
 1372 0074 0023     		movs	r3, #0
 1373 0076 01E0     		b	.L77
 1374              	.L78:
 1375              		.loc 7 517 0
 1376 0078 0123     		movs	r3, #1
 1377 007a 5B42     		rsbs	r3, r3, #0
 1378              	.L77:
 1379              		.loc 7 518 0
 1380 007c 1800     		movs	r0, r3
 1381 007e 03B0     		add	sp, sp, #12
 1382              		@ sp needed
 1383 0080 00BD     		pop	{pc}
 1384              	.L81:
 1385 0082 C046     		.align	2
 1386              	.L80:
 1387 0084 00000000 		.word	__func__.5765
 1388              		.cfi_endproc
 1389              	.LFE163:
 1390              		.size	chMBFetchI, .-chMBFetchI
 1391              		.section	.rodata.__func__.5698,"a",%progbits
 1392              		.align	2
 1393              		.type	__func__.5698, %object
 1394              		.size	__func__.5698, 15
 1395              	__func__.5698:
 1396 0000 63684D42 		.ascii	"chMBObjectInit\000"
 1396      4F626A65 
 1396      6374496E 
 1396      697400
 1397              		.section	.rodata.__func__.4993,"a",%progbits
 1398              		.align	2
 1399              		.type	__func__.4993, %object
 1400              		.size	__func__.4993, 12
 1401              	__func__.4993:
 1402 0000 63685379 		.ascii	"chSysUnlock\000"
 1402      73556E6C 
 1402      6F636B00 
 1403              		.section	.rodata.__func__.5705,"a",%progbits
 1404              		.align	2
 1405              		.type	__func__.5705, %object
 1406              		.size	__func__.5705, 11
 1407              	__func__.5705:
 1408 0000 63684D42 		.ascii	"chMBResetI\000"
 1408      52657365 
 1408      744900
 1409              		.section	.rodata.__func__.5718,"a",%progbits
 1410              		.align	2
 1411              		.type	__func__.5718, %object
 1412              		.size	__func__.5718, 10
 1413              	__func__.5718:
 1414 0000 63684D42 		.ascii	"chMBPostS\000"
 1414      506F7374 
 1414      5300
 1415              		.section	.rodata.__func__.5725,"a",%progbits
 1416              		.align	2
ARM GAS  /tmp/ccKk1bt9.s 			page 26


 1417              		.type	__func__.5725, %object
 1418              		.size	__func__.5725, 10
 1419              	__func__.5725:
 1420 0000 63684D42 		.ascii	"chMBPostI\000"
 1420      506F7374 
 1420      4900
 1421              		.section	.rodata.__func__.5738,"a",%progbits
 1422              		.align	2
 1423              		.type	__func__.5738, %object
 1424              		.size	__func__.5738, 15
 1425              	__func__.5738:
 1426 0000 63684D42 		.ascii	"chMBPostAheadS\000"
 1426      506F7374 
 1426      41686561 
 1426      645300
 1427              		.section	.rodata.__func__.5745,"a",%progbits
 1428              		.align	2
 1429              		.type	__func__.5745, %object
 1430              		.size	__func__.5745, 15
 1431              	__func__.5745:
 1432 0000 63684D42 		.ascii	"chMBPostAheadI\000"
 1432      506F7374 
 1432      41686561 
 1432      644900
 1433              		.section	.rodata.__func__.5758,"a",%progbits
 1434              		.align	2
 1435              		.type	__func__.5758, %object
 1436              		.size	__func__.5758, 11
 1437              	__func__.5758:
 1438 0000 63684D42 		.ascii	"chMBFetchS\000"
 1438      46657463 
 1438      685300
 1439              		.section	.rodata.__func__.5765,"a",%progbits
 1440              		.align	2
 1441              		.type	__func__.5765, %object
 1442              		.size	__func__.5765, 11
 1443              	__func__.5765:
 1444 0000 63684D42 		.ascii	"chMBFetchI\000"
 1444      46657463 
 1444      684900
 1445              		.text
 1446              	.Letext0:
 1447              		.file 8 "/home/felix/opt/gcc-arm-none-eabi-6-2017-q1-update/arm-none-eabi/include/machine/_default
 1448              		.file 9 "/home/felix/opt/gcc-arm-none-eabi-6-2017-q1-update/arm-none-eabi/include/sys/_stdint.h"
 1449              		.file 10 "ChibiOS/os/rt/ports/ARMCMx/compilers/GCC/chtypes.h"
 1450              		.file 11 "ChibiOS/os/rt/include/chsystypes.h"
 1451              		.file 12 "ChibiOS/os/rt/ports/ARMCMx/chcore.h"
 1452              		.file 13 "ChibiOS/os/rt/include/chdebug.h"
 1453              		.file 14 "ChibiOS/os/rt/include/chsem.h"
 1454              		.file 15 "ChibiOS/os/rt/include/chmtx.h"
 1455              		.file 16 "ChibiOS/os/rt/include/chregistry.h"
 1456              		.file 17 "ChibiOS/os/ext/CMSIS/ST/STM32F0xx/system_stm32f0xx.h"
 1457              		.section	.debug_info,"",%progbits
 1458              	.Ldebug_info0:
 1459 0000 C40D0000 		.4byte	0xdc4
 1460 0004 0400     		.2byte	0x4
 1461 0006 00000000 		.4byte	.Ldebug_abbrev0
ARM GAS  /tmp/ccKk1bt9.s 			page 27


 1462 000a 04       		.byte	0x4
 1463 000b 01       		.uleb128 0x1
 1464 000c DD020000 		.4byte	.LASF170
 1465 0010 0C       		.byte	0xc
 1466 0011 CA060000 		.4byte	.LASF171
 1467 0015 8E010000 		.4byte	.LASF172
 1468 0019 00000000 		.4byte	.Ldebug_ranges0+0
 1469 001d 00000000 		.4byte	0
 1470 0021 00000000 		.4byte	.Ldebug_line0
 1471 0025 02       		.uleb128 0x2
 1472 0026 04       		.byte	0x4
 1473 0027 05       		.byte	0x5
 1474 0028 696E7400 		.ascii	"int\000"
 1475 002c 03       		.uleb128 0x3
 1476 002d 04       		.byte	0x4
 1477 002e 07       		.byte	0x7
 1478 002f 88000000 		.4byte	.LASF0
 1479 0033 03       		.uleb128 0x3
 1480 0034 08       		.byte	0x8
 1481 0035 05       		.byte	0x5
 1482 0036 9C040000 		.4byte	.LASF1
 1483 003a 03       		.uleb128 0x3
 1484 003b 08       		.byte	0x8
 1485 003c 04       		.byte	0x4
 1486 003d 71050000 		.4byte	.LASF2
 1487 0041 03       		.uleb128 0x3
 1488 0042 01       		.byte	0x1
 1489 0043 06       		.byte	0x6
 1490 0044 95070000 		.4byte	.LASF3
 1491 0048 04       		.uleb128 0x4
 1492 0049 55060000 		.4byte	.LASF6
 1493 004d 08       		.byte	0x8
 1494 004e 2B       		.byte	0x2b
 1495 004f 53000000 		.4byte	0x53
 1496 0053 03       		.uleb128 0x3
 1497 0054 01       		.byte	0x1
 1498 0055 08       		.byte	0x8
 1499 0056 10070000 		.4byte	.LASF4
 1500 005a 03       		.uleb128 0x3
 1501 005b 02       		.byte	0x2
 1502 005c 05       		.byte	0x5
 1503 005d B9050000 		.4byte	.LASF5
 1504 0061 04       		.uleb128 0x4
 1505 0062 2E020000 		.4byte	.LASF7
 1506 0066 08       		.byte	0x8
 1507 0067 39       		.byte	0x39
 1508 0068 6C000000 		.4byte	0x6c
 1509 006c 03       		.uleb128 0x3
 1510 006d 02       		.byte	0x2
 1511 006e 07       		.byte	0x7
 1512 006f AE070000 		.4byte	.LASF8
 1513 0073 04       		.uleb128 0x4
 1514 0074 A4000000 		.4byte	.LASF9
 1515 0078 08       		.byte	0x8
 1516 0079 4D       		.byte	0x4d
 1517 007a 7E000000 		.4byte	0x7e
 1518 007e 03       		.uleb128 0x3
ARM GAS  /tmp/ccKk1bt9.s 			page 28


 1519 007f 04       		.byte	0x4
 1520 0080 05       		.byte	0x5
 1521 0081 E9050000 		.4byte	.LASF10
 1522 0085 04       		.uleb128 0x4
 1523 0086 1E070000 		.4byte	.LASF11
 1524 008a 08       		.byte	0x8
 1525 008b 4F       		.byte	0x4f
 1526 008c 90000000 		.4byte	0x90
 1527 0090 03       		.uleb128 0x3
 1528 0091 04       		.byte	0x4
 1529 0092 07       		.byte	0x7
 1530 0093 8C060000 		.4byte	.LASF12
 1531 0097 04       		.uleb128 0x4
 1532 0098 C3030000 		.4byte	.LASF13
 1533 009c 08       		.byte	0x8
 1534 009d 69       		.byte	0x69
 1535 009e A2000000 		.4byte	0xa2
 1536 00a2 03       		.uleb128 0x3
 1537 00a3 08       		.byte	0x8
 1538 00a4 07       		.byte	0x7
 1539 00a5 00020000 		.4byte	.LASF14
 1540 00a9 04       		.uleb128 0x4
 1541 00aa 57040000 		.4byte	.LASF15
 1542 00ae 09       		.byte	0x9
 1543 00af 18       		.byte	0x18
 1544 00b0 48000000 		.4byte	0x48
 1545 00b4 04       		.uleb128 0x4
 1546 00b5 87050000 		.4byte	.LASF16
 1547 00b9 09       		.byte	0x9
 1548 00ba 24       		.byte	0x24
 1549 00bb 61000000 		.4byte	0x61
 1550 00bf 04       		.uleb128 0x4
 1551 00c0 C2060000 		.4byte	.LASF17
 1552 00c4 09       		.byte	0x9
 1553 00c5 2C       		.byte	0x2c
 1554 00c6 73000000 		.4byte	0x73
 1555 00ca 04       		.uleb128 0x4
 1556 00cb AB010000 		.4byte	.LASF18
 1557 00cf 09       		.byte	0x9
 1558 00d0 30       		.byte	0x30
 1559 00d1 85000000 		.4byte	0x85
 1560 00d5 04       		.uleb128 0x4
 1561 00d6 28060000 		.4byte	.LASF19
 1562 00da 09       		.byte	0x9
 1563 00db 3C       		.byte	0x3c
 1564 00dc 97000000 		.4byte	0x97
 1565 00e0 04       		.uleb128 0x4
 1566 00e1 48050000 		.4byte	.LASF20
 1567 00e5 0A       		.byte	0xa
 1568 00e6 3C       		.byte	0x3c
 1569 00e7 A9000000 		.4byte	0xa9
 1570 00eb 04       		.uleb128 0x4
 1571 00ec 2D040000 		.4byte	.LASF21
 1572 00f0 0A       		.byte	0xa
 1573 00f1 3D       		.byte	0x3d
 1574 00f2 A9000000 		.4byte	0xa9
 1575 00f6 04       		.uleb128 0x4
ARM GAS  /tmp/ccKk1bt9.s 			page 29


 1576 00f7 84060000 		.4byte	.LASF22
 1577 00fb 0A       		.byte	0xa
 1578 00fc 3E       		.byte	0x3e
 1579 00fd A9000000 		.4byte	0xa9
 1580 0101 04       		.uleb128 0x4
 1581 0102 E7010000 		.4byte	.LASF23
 1582 0106 0A       		.byte	0xa
 1583 0107 40       		.byte	0x40
 1584 0108 CA000000 		.4byte	0xca
 1585 010c 04       		.uleb128 0x4
 1586 010d C9040000 		.4byte	.LASF24
 1587 0111 0A       		.byte	0xa
 1588 0112 41       		.byte	0x41
 1589 0113 BF000000 		.4byte	0xbf
 1590 0117 04       		.uleb128 0x4
 1591 0118 C0010000 		.4byte	.LASF25
 1592 011c 0A       		.byte	0xa
 1593 011d 43       		.byte	0x43
 1594 011e CA000000 		.4byte	0xca
 1595 0122 04       		.uleb128 0x4
 1596 0123 39020000 		.4byte	.LASF26
 1597 0127 0A       		.byte	0xa
 1598 0128 45       		.byte	0x45
 1599 0129 BF000000 		.4byte	0xbf
 1600 012d 04       		.uleb128 0x4
 1601 012e 56000000 		.4byte	.LASF27
 1602 0132 0B       		.byte	0xb
 1603 0133 35       		.byte	0x35
 1604 0134 B4000000 		.4byte	0xb4
 1605 0138 04       		.uleb128 0x4
 1606 0139 7A020000 		.4byte	.LASF28
 1607 013d 0B       		.byte	0xb
 1608 013e 3F       		.byte	0x3f
 1609 013f 43010000 		.4byte	0x143
 1610 0143 05       		.uleb128 0x5
 1611 0144 7B040000 		.4byte	.LASF49
 1612 0148 48       		.byte	0x48
 1613 0149 03       		.byte	0x3
 1614 014a C2       		.byte	0xc2
 1615 014b 3C020000 		.4byte	0x23c
 1616 014f 06       		.uleb128 0x6
 1617 0150 21060000 		.4byte	.LASF29
 1618 0154 03       		.byte	0x3
 1619 0155 C3       		.byte	0xc3
 1620 0156 47020000 		.4byte	0x247
 1621 015a 00       		.byte	0
 1622 015b 06       		.uleb128 0x6
 1623 015c 74060000 		.4byte	.LASF30
 1624 0160 03       		.byte	0x3
 1625 0161 C5       		.byte	0xc5
 1626 0162 47020000 		.4byte	0x247
 1627 0166 04       		.byte	0x4
 1628 0167 06       		.uleb128 0x6
 1629 0168 4F000000 		.4byte	.LASF31
 1630 016c 03       		.byte	0x3
 1631 016d C7       		.byte	0xc7
 1632 016e 01010000 		.4byte	0x101
ARM GAS  /tmp/ccKk1bt9.s 			page 30


 1633 0172 08       		.byte	0x8
 1634 0173 06       		.uleb128 0x6
 1635 0174 31060000 		.4byte	.LASF32
 1636 0178 03       		.byte	0x3
 1637 0179 C8       		.byte	0xc8
 1638 017a A0040000 		.4byte	0x4a0
 1639 017e 0C       		.byte	0xc
 1640 017f 06       		.uleb128 0x6
 1641 0180 53020000 		.4byte	.LASF33
 1642 0184 03       		.byte	0x3
 1643 0185 CA       		.byte	0xca
 1644 0186 47020000 		.4byte	0x247
 1645 018a 10       		.byte	0x10
 1646 018b 06       		.uleb128 0x6
 1647 018c 3C040000 		.4byte	.LASF34
 1648 0190 03       		.byte	0x3
 1649 0191 CB       		.byte	0xcb
 1650 0192 47020000 		.4byte	0x247
 1651 0196 14       		.byte	0x14
 1652 0197 06       		.uleb128 0x6
 1653 0198 F3030000 		.4byte	.LASF35
 1654 019c 03       		.byte	0x3
 1655 019d D2       		.byte	0xd2
 1656 019e 89060000 		.4byte	0x689
 1657 01a2 18       		.byte	0x18
 1658 01a3 06       		.uleb128 0x6
 1659 01a4 4C040000 		.4byte	.LASF36
 1660 01a8 03       		.byte	0x3
 1661 01a9 D8       		.byte	0xd8
 1662 01aa A0060000 		.4byte	0x6a0
 1663 01ae 1C       		.byte	0x1c
 1664 01af 06       		.uleb128 0x6
 1665 01b0 44040000 		.4byte	.LASF37
 1666 01b4 03       		.byte	0x3
 1667 01b5 DD       		.byte	0xdd
 1668 01b6 EB000000 		.4byte	0xeb
 1669 01ba 20       		.byte	0x20
 1670 01bb 06       		.uleb128 0x6
 1671 01bc D7040000 		.4byte	.LASF38
 1672 01c0 03       		.byte	0x3
 1673 01c1 E1       		.byte	0xe1
 1674 01c2 E0000000 		.4byte	0xe0
 1675 01c6 21       		.byte	0x21
 1676 01c7 06       		.uleb128 0x6
 1677 01c8 3F070000 		.4byte	.LASF39
 1678 01cc 03       		.byte	0x3
 1679 01cd E6       		.byte	0xe6
 1680 01ce F6000000 		.4byte	0xf6
 1681 01d2 22       		.byte	0x22
 1682 01d3 07       		.uleb128 0x7
 1683 01d4 705F7500 		.ascii	"p_u\000"
 1684 01d8 03       		.byte	0x3
 1685 01d9 3101     		.2byte	0x131
 1686 01db C4050000 		.4byte	0x5c4
 1687 01df 24       		.byte	0x24
 1688 01e0 08       		.uleb128 0x8
 1689 01e1 20000000 		.4byte	.LASF40
ARM GAS  /tmp/ccKk1bt9.s 			page 31


 1690 01e5 03       		.byte	0x3
 1691 01e6 3601     		.2byte	0x136
 1692 01e8 4D020000 		.4byte	0x24d
 1693 01ec 28       		.byte	0x28
 1694 01ed 08       		.uleb128 0x8
 1695 01ee 7D000000 		.4byte	.LASF41
 1696 01f2 03       		.byte	0x3
 1697 01f3 3C01     		.2byte	0x13c
 1698 01f5 71020000 		.4byte	0x271
 1699 01f9 2C       		.byte	0x2c
 1700 01fa 08       		.uleb128 0x8
 1701 01fb 38050000 		.4byte	.LASF42
 1702 01ff 03       		.byte	0x3
 1703 0200 4001     		.2byte	0x140
 1704 0202 0C010000 		.4byte	0x10c
 1705 0206 34       		.byte	0x34
 1706 0207 08       		.uleb128 0x8
 1707 0208 D6050000 		.4byte	.LASF43
 1708 020c 03       		.byte	0x3
 1709 020d 4601     		.2byte	0x146
 1710 020f 17010000 		.4byte	0x117
 1711 0213 38       		.byte	0x38
 1712 0214 08       		.uleb128 0x8
 1713 0215 71040000 		.4byte	.LASF44
 1714 0219 03       		.byte	0x3
 1715 021a 4D01     		.2byte	0x14d
 1716 021c 83060000 		.4byte	0x683
 1717 0220 3C       		.byte	0x3c
 1718 0221 08       		.uleb128 0x8
 1719 0222 A3050000 		.4byte	.LASF45
 1720 0226 03       		.byte	0x3
 1721 0227 5101     		.2byte	0x151
 1722 0229 01010000 		.4byte	0x101
 1723 022d 40       		.byte	0x40
 1724 022e 08       		.uleb128 0x8
 1725 022f 69040000 		.4byte	.LASF46
 1726 0233 03       		.byte	0x3
 1727 0234 5801     		.2byte	0x158
 1728 0236 24030000 		.4byte	0x324
 1729 023a 44       		.byte	0x44
 1730 023b 00       		.byte	0
 1731 023c 04       		.uleb128 0x4
 1732 023d 0E040000 		.4byte	.LASF47
 1733 0241 0B       		.byte	0xb
 1734 0242 44       		.byte	0x44
 1735 0243 47020000 		.4byte	0x247
 1736 0247 09       		.uleb128 0x9
 1737 0248 04       		.byte	0x4
 1738 0249 38010000 		.4byte	0x138
 1739 024d 04       		.uleb128 0x4
 1740 024e 95000000 		.4byte	.LASF48
 1741 0252 0B       		.byte	0xb
 1742 0253 49       		.byte	0x49
 1743 0254 58020000 		.4byte	0x258
 1744 0258 05       		.uleb128 0x5
 1745 0259 00000000 		.4byte	.LASF50
 1746 025d 04       		.byte	0x4
ARM GAS  /tmp/ccKk1bt9.s 			page 32


 1747 025e 03       		.byte	0x3
 1748 025f B0       		.byte	0xb0
 1749 0260 71020000 		.4byte	0x271
 1750 0264 06       		.uleb128 0x6
 1751 0265 21060000 		.4byte	.LASF29
 1752 0269 03       		.byte	0x3
 1753 026a B1       		.byte	0xb1
 1754 026b 47020000 		.4byte	0x247
 1755 026f 00       		.byte	0
 1756 0270 00       		.byte	0
 1757 0271 04       		.uleb128 0x4
 1758 0272 10000000 		.4byte	.LASF51
 1759 0276 0B       		.byte	0xb
 1760 0277 50       		.byte	0x50
 1761 0278 7C020000 		.4byte	0x27c
 1762 027c 05       		.uleb128 0x5
 1763 027d 2A010000 		.4byte	.LASF52
 1764 0281 08       		.byte	0x8
 1765 0282 03       		.byte	0x3
 1766 0283 B7       		.byte	0xb7
 1767 0284 A1020000 		.4byte	0x2a1
 1768 0288 06       		.uleb128 0x6
 1769 0289 21060000 		.4byte	.LASF29
 1770 028d 03       		.byte	0x3
 1771 028e B8       		.byte	0xb8
 1772 028f 47020000 		.4byte	0x247
 1773 0293 00       		.byte	0
 1774 0294 06       		.uleb128 0x6
 1775 0295 74060000 		.4byte	.LASF30
 1776 0299 03       		.byte	0x3
 1777 029a B9       		.byte	0xb9
 1778 029b 47020000 		.4byte	0x247
 1779 029f 04       		.byte	0x4
 1780 02a0 00       		.byte	0
 1781 02a1 04       		.uleb128 0x4
 1782 02a2 B5060000 		.4byte	.LASF53
 1783 02a6 0B       		.byte	0xb
 1784 02a7 57       		.byte	0x57
 1785 02a8 AC020000 		.4byte	0x2ac
 1786 02ac 0A       		.uleb128 0xa
 1787 02ad DB000000 		.4byte	.LASF54
 1788 02b1 1C       		.byte	0x1c
 1789 02b2 03       		.byte	0x3
 1790 02b3 9001     		.2byte	0x190
 1791 02b5 08030000 		.4byte	0x308
 1792 02b9 08       		.uleb128 0x8
 1793 02ba B9040000 		.4byte	.LASF55
 1794 02be 03       		.byte	0x3
 1795 02bf 9101     		.2byte	0x191
 1796 02c1 71020000 		.4byte	0x271
 1797 02c5 00       		.byte	0
 1798 02c6 08       		.uleb128 0x8
 1799 02c7 CC010000 		.4byte	.LASF56
 1800 02cb 03       		.byte	0x3
 1801 02cc 9201     		.2byte	0x192
 1802 02ce 01010000 		.4byte	0x101
 1803 02d2 08       		.byte	0x8
ARM GAS  /tmp/ccKk1bt9.s 			page 33


 1804 02d3 08       		.uleb128 0x8
 1805 02d4 C1070000 		.4byte	.LASF57
 1806 02d8 03       		.byte	0x3
 1807 02d9 9401     		.2byte	0x194
 1808 02db A0040000 		.4byte	0x4a0
 1809 02df 0C       		.byte	0xc
 1810 02e0 08       		.uleb128 0x8
 1811 02e1 C1040000 		.4byte	.LASF58
 1812 02e5 03       		.byte	0x3
 1813 02e6 9701     		.2byte	0x197
 1814 02e8 47020000 		.4byte	0x247
 1815 02ec 10       		.byte	0x10
 1816 02ed 08       		.uleb128 0x8
 1817 02ee 11050000 		.4byte	.LASF59
 1818 02f2 03       		.byte	0x3
 1819 02f3 9801     		.2byte	0x198
 1820 02f5 47020000 		.4byte	0x247
 1821 02f9 14       		.byte	0x14
 1822 02fa 08       		.uleb128 0x8
 1823 02fb CC050000 		.4byte	.LASF60
 1824 02ff 03       		.byte	0x3
 1825 0300 9B01     		.2byte	0x19b
 1826 0302 47020000 		.4byte	0x247
 1827 0306 18       		.byte	0x18
 1828 0307 00       		.byte	0
 1829 0308 04       		.uleb128 0x4
 1830 0309 58010000 		.4byte	.LASF61
 1831 030d 0B       		.byte	0xb
 1832 030e 5C       		.byte	0x5c
 1833 030f 13030000 		.4byte	0x313
 1834 0313 09       		.uleb128 0x9
 1835 0314 04       		.byte	0x4
 1836 0315 19030000 		.4byte	0x319
 1837 0319 0B       		.uleb128 0xb
 1838 031a 24030000 		.4byte	0x324
 1839 031e 0C       		.uleb128 0xc
 1840 031f 24030000 		.4byte	0x324
 1841 0323 00       		.byte	0
 1842 0324 0D       		.uleb128 0xd
 1843 0325 04       		.byte	0x4
 1844 0326 04       		.uleb128 0x4
 1845 0327 DF040000 		.4byte	.LASF62
 1846 032b 0B       		.byte	0xb
 1847 032c 61       		.byte	0x61
 1848 032d 31030000 		.4byte	0x331
 1849 0331 0A       		.uleb128 0xa
 1850 0332 EF010000 		.4byte	.LASF63
 1851 0336 14       		.byte	0x14
 1852 0337 03       		.byte	0x3
 1853 0338 6B01     		.2byte	0x16b
 1854 033a 80030000 		.4byte	0x380
 1855 033e 08       		.uleb128 0x8
 1856 033f 62070000 		.4byte	.LASF64
 1857 0343 03       		.byte	0x3
 1858 0344 6C01     		.2byte	0x16c
 1859 0346 A6060000 		.4byte	0x6a6
 1860 034a 00       		.byte	0
ARM GAS  /tmp/ccKk1bt9.s 			page 34


 1861 034b 08       		.uleb128 0x8
 1862 034c 0F080000 		.4byte	.LASF65
 1863 0350 03       		.byte	0x3
 1864 0351 6D01     		.2byte	0x16d
 1865 0353 A6060000 		.4byte	0x6a6
 1866 0357 04       		.byte	0x4
 1867 0358 08       		.uleb128 0x8
 1868 0359 05040000 		.4byte	.LASF66
 1869 035d 03       		.byte	0x3
 1870 035e 6E01     		.2byte	0x16e
 1871 0360 2D010000 		.4byte	0x12d
 1872 0364 08       		.byte	0x8
 1873 0365 08       		.uleb128 0x8
 1874 0366 FB070000 		.4byte	.LASF67
 1875 036a 03       		.byte	0x3
 1876 036b 6F01     		.2byte	0x16f
 1877 036d 08030000 		.4byte	0x308
 1878 0371 0C       		.byte	0xc
 1879 0372 08       		.uleb128 0x8
 1880 0373 D3010000 		.4byte	.LASF68
 1881 0377 03       		.byte	0x3
 1882 0378 7101     		.2byte	0x171
 1883 037a 24030000 		.4byte	0x324
 1884 037e 10       		.byte	0x10
 1885 037f 00       		.byte	0
 1886 0380 04       		.uleb128 0x4
 1887 0381 29070000 		.4byte	.LASF69
 1888 0385 0B       		.byte	0xb
 1889 0386 66       		.byte	0x66
 1890 0387 8B030000 		.4byte	0x38b
 1891 038b 0A       		.uleb128 0xa
 1892 038c 5B020000 		.4byte	.LASF70
 1893 0390 0C       		.byte	0xc
 1894 0391 03       		.byte	0x3
 1895 0392 7B01     		.2byte	0x17b
 1896 0394 CD030000 		.4byte	0x3cd
 1897 0398 08       		.uleb128 0x8
 1898 0399 62070000 		.4byte	.LASF64
 1899 039d 03       		.byte	0x3
 1900 039e 7C01     		.2byte	0x17c
 1901 03a0 A6060000 		.4byte	0x6a6
 1902 03a4 00       		.byte	0
 1903 03a5 08       		.uleb128 0x8
 1904 03a6 0F080000 		.4byte	.LASF65
 1905 03aa 03       		.byte	0x3
 1906 03ab 7E01     		.2byte	0x17e
 1907 03ad A6060000 		.4byte	0x6a6
 1908 03b1 04       		.byte	0x4
 1909 03b2 08       		.uleb128 0x8
 1910 03b3 05040000 		.4byte	.LASF66
 1911 03b7 03       		.byte	0x3
 1912 03b8 8001     		.2byte	0x180
 1913 03ba 2D010000 		.4byte	0x12d
 1914 03be 08       		.byte	0x8
 1915 03bf 08       		.uleb128 0x8
 1916 03c0 21040000 		.4byte	.LASF71
 1917 03c4 03       		.byte	0x3
ARM GAS  /tmp/ccKk1bt9.s 			page 35


 1918 03c5 8801     		.2byte	0x188
 1919 03c7 2D010000 		.4byte	0x12d
 1920 03cb 0A       		.byte	0xa
 1921 03cc 00       		.byte	0
 1922 03cd 04       		.uleb128 0x4
 1923 03ce 8D040000 		.4byte	.LASF72
 1924 03d2 0B       		.byte	0xb
 1925 03d3 6B       		.byte	0x6b
 1926 03d4 D8030000 		.4byte	0x3d8
 1927 03d8 0E       		.uleb128 0xe
 1928 03d9 67010000 		.4byte	.LASF73
 1929 03dd 1404     		.2byte	0x414
 1930 03df 03       		.byte	0x3
 1931 03e0 A201     		.2byte	0x1a2
 1932 03e2 1B040000 		.4byte	0x41b
 1933 03e6 08       		.uleb128 0x8
 1934 03e7 19050000 		.4byte	.LASF74
 1935 03eb 03       		.byte	0x3
 1936 03ec AA01     		.2byte	0x1aa
 1937 03ee 8F060000 		.4byte	0x68f
 1938 03f2 00       		.byte	0
 1939 03f3 08       		.uleb128 0x8
 1940 03f4 4B020000 		.4byte	.LASF75
 1941 03f8 03       		.byte	0x3
 1942 03f9 AF01     		.2byte	0x1af
 1943 03fb 22010000 		.4byte	0x122
 1944 03ff 04       		.byte	0x4
 1945 0400 08       		.uleb128 0x8
 1946 0401 9A050000 		.4byte	.LASF76
 1947 0405 03       		.byte	0x3
 1948 0406 B301     		.2byte	0x1b3
 1949 0408 22010000 		.4byte	0x122
 1950 040c 08       		.byte	0x8
 1951 040d 08       		.uleb128 0x8
 1952 040e 21020000 		.4byte	.LASF77
 1953 0412 03       		.byte	0x3
 1954 0413 B901     		.2byte	0x1b9
 1955 0415 B9050000 		.4byte	0x5b9
 1956 0419 0C       		.byte	0xc
 1957 041a 00       		.byte	0
 1958 041b 04       		.uleb128 0x4
 1959 041c 6A070000 		.4byte	.LASF78
 1960 0420 0B       		.byte	0xb
 1961 0421 70       		.byte	0x70
 1962 0422 26040000 		.4byte	0x426
 1963 0426 0E       		.uleb128 0xe
 1964 0427 0B060000 		.4byte	.LASF79
 1965 042b 6805     		.2byte	0x568
 1966 042d 03       		.byte	0x3
 1967 042e C201     		.2byte	0x1c2
 1968 0430 78040000 		.4byte	0x478
 1969 0434 08       		.uleb128 0x8
 1970 0435 37060000 		.4byte	.LASF80
 1971 0439 03       		.byte	0x3
 1972 043a C601     		.2byte	0x1c6
 1973 043c A1020000 		.4byte	0x2a1
 1974 0440 00       		.byte	0
ARM GAS  /tmp/ccKk1bt9.s 			page 36


 1975 0441 08       		.uleb128 0x8
 1976 0442 D4000000 		.4byte	.LASF81
 1977 0446 03       		.byte	0x3
 1978 0447 CA01     		.2byte	0x1ca
 1979 0449 80030000 		.4byte	0x380
 1980 044d 1C       		.byte	0x1c
 1981 044e 07       		.uleb128 0x7
 1982 044f 64626700 		.ascii	"dbg\000"
 1983 0453 03       		.byte	0x3
 1984 0454 CE01     		.2byte	0x1ce
 1985 0456 CD030000 		.4byte	0x3cd
 1986 045a 28       		.byte	0x28
 1987 045b 0F       		.uleb128 0xf
 1988 045c 58050000 		.4byte	.LASF82
 1989 0460 03       		.byte	0x3
 1990 0461 D201     		.2byte	0x1d2
 1991 0463 38010000 		.4byte	0x138
 1992 0467 3C04     		.2byte	0x43c
 1993 0469 0F       		.uleb128 0xf
 1994 046a F2000000 		.4byte	.LASF83
 1995 046e 03       		.byte	0x3
 1996 046f E301     		.2byte	0x1e3
 1997 0471 AC060000 		.4byte	0x6ac
 1998 0475 8804     		.2byte	0x488
 1999 0477 00       		.byte	0
 2000 0478 03       		.uleb128 0x3
 2001 0479 04       		.byte	0x4
 2002 047a 07       		.byte	0x7
 2003 047b 7B060000 		.4byte	.LASF84
 2004 047f 10       		.uleb128 0x10
 2005 0480 2A000000 		.4byte	.LASF113
 2006 0484 11       		.byte	0x11
 2007 0485 4C       		.byte	0x4c
 2008 0486 CA000000 		.4byte	0xca
 2009 048a 04       		.uleb128 0x4
 2010 048b 46000000 		.4byte	.LASF85
 2011 048f 0C       		.byte	0xc
 2012 0490 65       		.byte	0x65
 2013 0491 24030000 		.4byte	0x324
 2014 0495 04       		.uleb128 0x4
 2015 0496 C7070000 		.4byte	.LASF86
 2016 049a 0C       		.byte	0xc
 2017 049b 6D       		.byte	0x6d
 2018 049c D5000000 		.4byte	0xd5
 2019 04a0 05       		.uleb128 0x5
 2020 04a1 CF040000 		.4byte	.LASF87
 2021 04a5 04       		.byte	0x4
 2022 04a6 0C       		.byte	0xc
 2023 04a7 89       		.byte	0x89
 2024 04a8 B9040000 		.4byte	0x4b9
 2025 04ac 11       		.uleb128 0x11
 2026 04ad 72313300 		.ascii	"r13\000"
 2027 04b1 0C       		.byte	0xc
 2028 04b2 8A       		.byte	0x8a
 2029 04b3 2B050000 		.4byte	0x52b
 2030 04b7 00       		.byte	0
 2031 04b8 00       		.byte	0
ARM GAS  /tmp/ccKk1bt9.s 			page 37


 2032 04b9 05       		.uleb128 0x5
 2033 04ba F2050000 		.4byte	.LASF88
 2034 04be 24       		.byte	0x24
 2035 04bf 01       		.byte	0x1
 2036 04c0 A4       		.byte	0xa4
 2037 04c1 2B050000 		.4byte	0x52b
 2038 04c5 11       		.uleb128 0x11
 2039 04c6 723800   		.ascii	"r8\000"
 2040 04c9 01       		.byte	0x1
 2041 04ca A5       		.byte	0xa5
 2042 04cb 8A040000 		.4byte	0x48a
 2043 04cf 00       		.byte	0
 2044 04d0 11       		.uleb128 0x11
 2045 04d1 723900   		.ascii	"r9\000"
 2046 04d4 01       		.byte	0x1
 2047 04d5 A6       		.byte	0xa6
 2048 04d6 8A040000 		.4byte	0x48a
 2049 04da 04       		.byte	0x4
 2050 04db 11       		.uleb128 0x11
 2051 04dc 72313000 		.ascii	"r10\000"
 2052 04e0 01       		.byte	0x1
 2053 04e1 A7       		.byte	0xa7
 2054 04e2 8A040000 		.4byte	0x48a
 2055 04e6 08       		.byte	0x8
 2056 04e7 11       		.uleb128 0x11
 2057 04e8 72313100 		.ascii	"r11\000"
 2058 04ec 01       		.byte	0x1
 2059 04ed A8       		.byte	0xa8
 2060 04ee 8A040000 		.4byte	0x48a
 2061 04f2 0C       		.byte	0xc
 2062 04f3 11       		.uleb128 0x11
 2063 04f4 723400   		.ascii	"r4\000"
 2064 04f7 01       		.byte	0x1
 2065 04f8 A9       		.byte	0xa9
 2066 04f9 8A040000 		.4byte	0x48a
 2067 04fd 10       		.byte	0x10
 2068 04fe 11       		.uleb128 0x11
 2069 04ff 723500   		.ascii	"r5\000"
 2070 0502 01       		.byte	0x1
 2071 0503 AA       		.byte	0xaa
 2072 0504 8A040000 		.4byte	0x48a
 2073 0508 14       		.byte	0x14
 2074 0509 11       		.uleb128 0x11
 2075 050a 723600   		.ascii	"r6\000"
 2076 050d 01       		.byte	0x1
 2077 050e AB       		.byte	0xab
 2078 050f 8A040000 		.4byte	0x48a
 2079 0513 18       		.byte	0x18
 2080 0514 11       		.uleb128 0x11
 2081 0515 723700   		.ascii	"r7\000"
 2082 0518 01       		.byte	0x1
 2083 0519 AC       		.byte	0xac
 2084 051a 8A040000 		.4byte	0x48a
 2085 051e 1C       		.byte	0x1c
 2086 051f 11       		.uleb128 0x11
 2087 0520 6C7200   		.ascii	"lr\000"
 2088 0523 01       		.byte	0x1
ARM GAS  /tmp/ccKk1bt9.s 			page 38


 2089 0524 AD       		.byte	0xad
 2090 0525 8A040000 		.4byte	0x48a
 2091 0529 20       		.byte	0x20
 2092 052a 00       		.byte	0
 2093 052b 09       		.uleb128 0x9
 2094 052c 04       		.byte	0x4
 2095 052d B9040000 		.4byte	0x4b9
 2096 0531 12       		.uleb128 0x12
 2097 0532 10       		.byte	0x10
 2098 0533 0D       		.byte	0xd
 2099 0534 51       		.byte	0x51
 2100 0535 6A050000 		.4byte	0x56a
 2101 0539 06       		.uleb128 0x6
 2102 053a 72020000 		.4byte	.LASF89
 2103 053e 0D       		.byte	0xd
 2104 053f 55       		.byte	0x55
 2105 0540 2D010000 		.4byte	0x12d
 2106 0544 00       		.byte	0
 2107 0545 06       		.uleb128 0x6
 2108 0546 36040000 		.4byte	.LASF90
 2109 054a 0D       		.byte	0xd
 2110 054b 59       		.byte	0x59
 2111 054c 47020000 		.4byte	0x247
 2112 0550 04       		.byte	0x4
 2113 0551 06       		.uleb128 0x6
 2114 0552 17020000 		.4byte	.LASF91
 2115 0556 0D       		.byte	0xd
 2116 0557 5D       		.byte	0x5d
 2117 0558 24030000 		.4byte	0x324
 2118 055c 08       		.byte	0x8
 2119 055d 06       		.uleb128 0x6
 2120 055e AE000000 		.4byte	.LASF92
 2121 0562 0D       		.byte	0xd
 2122 0563 61       		.byte	0x61
 2123 0564 A9000000 		.4byte	0xa9
 2124 0568 0C       		.byte	0xc
 2125 0569 00       		.byte	0
 2126 056a 04       		.uleb128 0x4
 2127 056b EE060000 		.4byte	.LASF93
 2128 056f 0D       		.byte	0xd
 2129 0570 62       		.byte	0x62
 2130 0571 31050000 		.4byte	0x531
 2131 0575 13       		.uleb128 0x13
 2132 0576 0804     		.2byte	0x408
 2133 0578 0D       		.byte	0xd
 2134 0579 67       		.byte	0x67
 2135 057a A3050000 		.4byte	0x5a3
 2136 057e 06       		.uleb128 0x6
 2137 057f 85040000 		.4byte	.LASF94
 2138 0583 0D       		.byte	0xd
 2139 0584 6B       		.byte	0x6b
 2140 0585 2C000000 		.4byte	0x2c
 2141 0589 00       		.byte	0
 2142 058a 06       		.uleb128 0x6
 2143 058b 0A050000 		.4byte	.LASF95
 2144 058f 0D       		.byte	0xd
 2145 0590 6F       		.byte	0x6f
ARM GAS  /tmp/ccKk1bt9.s 			page 39


 2146 0591 A3050000 		.4byte	0x5a3
 2147 0595 04       		.byte	0x4
 2148 0596 06       		.uleb128 0x6
 2149 0597 5F040000 		.4byte	.LASF96
 2150 059b 0D       		.byte	0xd
 2151 059c 73       		.byte	0x73
 2152 059d A9050000 		.4byte	0x5a9
 2153 05a1 08       		.byte	0x8
 2154 05a2 00       		.byte	0
 2155 05a3 09       		.uleb128 0x9
 2156 05a4 04       		.byte	0x4
 2157 05a5 6A050000 		.4byte	0x56a
 2158 05a9 14       		.uleb128 0x14
 2159 05aa 6A050000 		.4byte	0x56a
 2160 05ae B9050000 		.4byte	0x5b9
 2161 05b2 15       		.uleb128 0x15
 2162 05b3 78040000 		.4byte	0x478
 2163 05b7 3F       		.byte	0x3f
 2164 05b8 00       		.byte	0
 2165 05b9 04       		.uleb128 0x4
 2166 05ba 7C070000 		.4byte	.LASF97
 2167 05be 0D       		.byte	0xd
 2168 05bf 74       		.byte	0x74
 2169 05c0 75050000 		.4byte	0x575
 2170 05c4 16       		.uleb128 0x16
 2171 05c5 04       		.byte	0x4
 2172 05c6 03       		.byte	0x3
 2173 05c7 FA       		.byte	0xfa
 2174 05c8 21060000 		.4byte	0x621
 2175 05cc 17       		.uleb128 0x17
 2176 05cd 83020000 		.4byte	.LASF98
 2177 05d1 03       		.byte	0x3
 2178 05d2 0101     		.2byte	0x101
 2179 05d4 0C010000 		.4byte	0x10c
 2180 05d8 17       		.uleb128 0x17
 2181 05d9 17080000 		.4byte	.LASF99
 2182 05dd 03       		.byte	0x3
 2183 05de 0801     		.2byte	0x108
 2184 05e0 0C010000 		.4byte	0x10c
 2185 05e4 17       		.uleb128 0x17
 2186 05e5 C3000000 		.4byte	.LASF100
 2187 05e9 03       		.byte	0x3
 2188 05ea 0F01     		.2byte	0x10f
 2189 05ec 24030000 		.4byte	0x324
 2190 05f0 17       		.uleb128 0x17
 2191 05f1 76070000 		.4byte	.LASF101
 2192 05f5 03       		.byte	0x3
 2193 05f6 1601     		.2byte	0x116
 2194 05f8 21060000 		.4byte	0x621
 2195 05fc 17       		.uleb128 0x17
 2196 05fd E7060000 		.4byte	.LASF102
 2197 0601 03       		.byte	0x3
 2198 0602 1E01     		.2byte	0x11e
 2199 0604 4C060000 		.4byte	0x64c
 2200 0608 17       		.uleb128 0x17
 2201 0609 3A000000 		.4byte	.LASF103
 2202 060d 03       		.byte	0x3
ARM GAS  /tmp/ccKk1bt9.s 			page 40


 2203 060e 2701     		.2byte	0x127
 2204 0610 83060000 		.4byte	0x683
 2205 0614 17       		.uleb128 0x17
 2206 0615 16010000 		.4byte	.LASF104
 2207 0619 03       		.byte	0x3
 2208 061a 2F01     		.2byte	0x12f
 2209 061c 17010000 		.4byte	0x117
 2210 0620 00       		.byte	0
 2211 0621 09       		.uleb128 0x9
 2212 0622 04       		.byte	0x4
 2213 0623 3C020000 		.4byte	0x23c
 2214 0627 05       		.uleb128 0x5
 2215 0628 DA010000 		.4byte	.LASF105
 2216 062c 0C       		.byte	0xc
 2217 062d 0E       		.byte	0xe
 2218 062e 34       		.byte	0x34
 2219 062f 4C060000 		.4byte	0x64c
 2220 0633 06       		.uleb128 0x6
 2221 0634 75000000 		.4byte	.LASF106
 2222 0638 0E       		.byte	0xe
 2223 0639 35       		.byte	0x35
 2224 063a 71020000 		.4byte	0x271
 2225 063e 00       		.byte	0
 2226 063f 06       		.uleb128 0x6
 2227 0640 61010000 		.4byte	.LASF107
 2228 0644 0E       		.byte	0xe
 2229 0645 37       		.byte	0x37
 2230 0646 22010000 		.4byte	0x122
 2231 064a 08       		.byte	0x8
 2232 064b 00       		.byte	0
 2233 064c 09       		.uleb128 0x9
 2234 064d 04       		.byte	0x4
 2235 064e 27060000 		.4byte	0x627
 2236 0652 05       		.uleb128 0x5
 2237 0653 BA030000 		.4byte	.LASF108
 2238 0657 10       		.byte	0x10
 2239 0658 0F       		.byte	0xf
 2240 0659 39       		.byte	0x39
 2241 065a 83060000 		.4byte	0x683
 2242 065e 06       		.uleb128 0x6
 2243 065f E1050000 		.4byte	.LASF109
 2244 0663 0F       		.byte	0xf
 2245 0664 3A       		.byte	0x3a
 2246 0665 71020000 		.4byte	0x271
 2247 0669 00       		.byte	0
 2248 066a 06       		.uleb128 0x6
 2249 066b 6D000000 		.4byte	.LASF110
 2250 066f 0F       		.byte	0xf
 2251 0670 3C       		.byte	0x3c
 2252 0671 47020000 		.4byte	0x247
 2253 0675 08       		.byte	0x8
 2254 0676 06       		.uleb128 0x6
 2255 0677 8E070000 		.4byte	.LASF111
 2256 067b 0F       		.byte	0xf
 2257 067c 3E       		.byte	0x3e
 2258 067d DE070000 		.4byte	0x7de
 2259 0681 0C       		.byte	0xc
ARM GAS  /tmp/ccKk1bt9.s 			page 41


 2260 0682 00       		.byte	0
 2261 0683 09       		.uleb128 0x9
 2262 0684 04       		.byte	0x4
 2263 0685 52060000 		.4byte	0x652
 2264 0689 09       		.uleb128 0x9
 2265 068a 04       		.byte	0x4
 2266 068b 9B060000 		.4byte	0x69b
 2267 068f 18       		.uleb128 0x18
 2268 0690 89060000 		.4byte	0x689
 2269 0694 03       		.uleb128 0x3
 2270 0695 01       		.byte	0x1
 2271 0696 08       		.byte	0x8
 2272 0697 41000000 		.4byte	.LASF112
 2273 069b 19       		.uleb128 0x19
 2274 069c 94060000 		.4byte	0x694
 2275 06a0 09       		.uleb128 0x9
 2276 06a1 04       		.byte	0x4
 2277 06a2 95040000 		.4byte	0x495
 2278 06a6 09       		.uleb128 0x9
 2279 06a7 04       		.byte	0x4
 2280 06a8 26030000 		.4byte	0x326
 2281 06ac 14       		.uleb128 0x14
 2282 06ad 95040000 		.4byte	0x495
 2283 06b1 BC060000 		.4byte	0x6bc
 2284 06b5 15       		.uleb128 0x15
 2285 06b6 78040000 		.4byte	0x478
 2286 06ba 1B       		.byte	0x1b
 2287 06bb 00       		.byte	0
 2288 06bc 1A       		.uleb128 0x1a
 2289 06bd 636800   		.ascii	"ch\000"
 2290 06c0 03       		.byte	0x3
 2291 06c1 0902     		.2byte	0x209
 2292 06c3 1B040000 		.4byte	0x41b
 2293 06c7 12       		.uleb128 0x12
 2294 06c8 16       		.byte	0x16
 2295 06c9 10       		.byte	0x10
 2296 06ca 34       		.byte	0x34
 2297 06cb A8070000 		.4byte	0x7a8
 2298 06cf 06       		.uleb128 0x6
 2299 06d0 66060000 		.4byte	.LASF114
 2300 06d4 10       		.byte	0x10
 2301 06d5 35       		.byte	0x35
 2302 06d6 A8070000 		.4byte	0x7a8
 2303 06da 00       		.byte	0
 2304 06db 06       		.uleb128 0x6
 2305 06dc FB040000 		.4byte	.LASF115
 2306 06e0 10       		.byte	0x10
 2307 06e1 36       		.byte	0x36
 2308 06e2 A9000000 		.4byte	0xa9
 2309 06e6 04       		.byte	0x4
 2310 06e7 06       		.uleb128 0x6
 2311 06e8 50050000 		.4byte	.LASF116
 2312 06ec 10       		.byte	0x10
 2313 06ed 37       		.byte	0x37
 2314 06ee A9000000 		.4byte	0xa9
 2315 06f2 05       		.byte	0x5
 2316 06f3 06       		.uleb128 0x6
ARM GAS  /tmp/ccKk1bt9.s 			page 42


 2317 06f4 AE050000 		.4byte	.LASF117
 2318 06f8 10       		.byte	0x10
 2319 06f9 38       		.byte	0x38
 2320 06fa B4000000 		.4byte	0xb4
 2321 06fe 06       		.byte	0x6
 2322 06ff 06       		.uleb128 0x6
 2323 0700 3B010000 		.4byte	.LASF118
 2324 0704 10       		.byte	0x10
 2325 0705 39       		.byte	0x39
 2326 0706 A9000000 		.4byte	0xa9
 2327 070a 08       		.byte	0x8
 2328 070b 06       		.uleb128 0x6
 2329 070c B4010000 		.4byte	.LASF119
 2330 0710 10       		.byte	0x10
 2331 0711 3A       		.byte	0x3a
 2332 0712 A9000000 		.4byte	0xa9
 2333 0716 09       		.byte	0x9
 2334 0717 06       		.uleb128 0x6
 2335 0718 8A020000 		.4byte	.LASF120
 2336 071c 10       		.byte	0x10
 2337 071d 3B       		.byte	0x3b
 2338 071e A9000000 		.4byte	0xa9
 2339 0722 0A       		.byte	0xa
 2340 0723 06       		.uleb128 0x6
 2341 0724 49060000 		.4byte	.LASF121
 2342 0728 10       		.byte	0x10
 2343 0729 3C       		.byte	0x3c
 2344 072a A9000000 		.4byte	0xa9
 2345 072e 0B       		.byte	0xb
 2346 072f 06       		.uleb128 0x6
 2347 0730 D8030000 		.4byte	.LASF122
 2348 0734 10       		.byte	0x10
 2349 0735 3D       		.byte	0x3d
 2350 0736 A9000000 		.4byte	0xa9
 2351 073a 0C       		.byte	0xc
 2352 073b 06       		.uleb128 0x6
 2353 073c A1070000 		.4byte	.LASF123
 2354 0740 10       		.byte	0x10
 2355 0741 3E       		.byte	0x3e
 2356 0742 A9000000 		.4byte	0xa9
 2357 0746 0D       		.byte	0xd
 2358 0747 06       		.uleb128 0x6
 2359 0748 60000000 		.4byte	.LASF124
 2360 074c 10       		.byte	0x10
 2361 074d 3F       		.byte	0x3f
 2362 074e A9000000 		.4byte	0xa9
 2363 0752 0E       		.byte	0xe
 2364 0753 06       		.uleb128 0x6
 2365 0754 B7000000 		.4byte	.LASF125
 2366 0758 10       		.byte	0x10
 2367 0759 40       		.byte	0x40
 2368 075a A9000000 		.4byte	0xa9
 2369 075e 0F       		.byte	0xf
 2370 075f 06       		.uleb128 0x6
 2371 0760 E3030000 		.4byte	.LASF126
 2372 0764 10       		.byte	0x10
 2373 0765 41       		.byte	0x41
ARM GAS  /tmp/ccKk1bt9.s 			page 43


 2374 0766 A9000000 		.4byte	0xa9
 2375 076a 10       		.byte	0x10
 2376 076b 06       		.uleb128 0x6
 2377 076c A8060000 		.4byte	.LASF127
 2378 0770 10       		.byte	0x10
 2379 0771 43       		.byte	0x43
 2380 0772 A9000000 		.4byte	0xa9
 2381 0776 11       		.byte	0x11
 2382 0777 06       		.uleb128 0x6
 2383 0778 1D010000 		.4byte	.LASF128
 2384 077c 10       		.byte	0x10
 2385 077d 44       		.byte	0x44
 2386 077e A9000000 		.4byte	0xa9
 2387 0782 12       		.byte	0x12
 2388 0783 06       		.uleb128 0x6
 2389 0784 EF040000 		.4byte	.LASF129
 2390 0788 10       		.byte	0x10
 2391 0789 45       		.byte	0x45
 2392 078a A9000000 		.4byte	0xa9
 2393 078e 13       		.byte	0x13
 2394 078f 06       		.uleb128 0x6
 2395 0790 A6020000 		.4byte	.LASF130
 2396 0794 10       		.byte	0x10
 2397 0795 46       		.byte	0x46
 2398 0796 A9000000 		.4byte	0xa9
 2399 079a 14       		.byte	0x14
 2400 079b 06       		.uleb128 0x6
 2401 079c 3D060000 		.4byte	.LASF131
 2402 07a0 10       		.byte	0x10
 2403 07a1 48       		.byte	0x48
 2404 07a2 A9000000 		.4byte	0xa9
 2405 07a6 15       		.byte	0x15
 2406 07a7 00       		.byte	0
 2407 07a8 14       		.uleb128 0x14
 2408 07a9 94060000 		.4byte	0x694
 2409 07ad B8070000 		.4byte	0x7b8
 2410 07b1 15       		.uleb128 0x15
 2411 07b2 78040000 		.4byte	0x478
 2412 07b6 03       		.byte	0x3
 2413 07b7 00       		.byte	0
 2414 07b8 04       		.uleb128 0x4
 2415 07b9 90050000 		.4byte	.LASF132
 2416 07bd 10       		.byte	0x10
 2417 07be 49       		.byte	0x49
 2418 07bf C7060000 		.4byte	0x6c7
 2419 07c3 19       		.uleb128 0x19
 2420 07c4 B8070000 		.4byte	0x7b8
 2421 07c8 10       		.uleb128 0x10
 2422 07c9 F2070000 		.4byte	.LASF133
 2423 07cd 10       		.byte	0x10
 2424 07ce 6E       		.byte	0x6e
 2425 07cf C3070000 		.4byte	0x7c3
 2426 07d3 04       		.uleb128 0x4
 2427 07d4 FD060000 		.4byte	.LASF134
 2428 07d8 0F       		.byte	0xf
 2429 07d9 34       		.byte	0x34
 2430 07da 52060000 		.4byte	0x652
ARM GAS  /tmp/ccKk1bt9.s 			page 44


 2431 07de 09       		.uleb128 0x9
 2432 07df 04       		.byte	0x4
 2433 07e0 D3070000 		.4byte	0x7d3
 2434 07e4 12       		.uleb128 0x12
 2435 07e5 28       		.byte	0x28
 2436 07e6 06       		.byte	0x6
 2437 07e7 34       		.byte	0x34
 2438 07e8 4D080000 		.4byte	0x84d
 2439 07ec 06       		.uleb128 0x6
 2440 07ed 9E060000 		.4byte	.LASF135
 2441 07f1 06       		.byte	0x6
 2442 07f2 35       		.byte	0x35
 2443 07f3 4D080000 		.4byte	0x84d
 2444 07f7 00       		.byte	0
 2445 07f8 06       		.uleb128 0x6
 2446 07f9 03050000 		.4byte	.LASF136
 2447 07fd 06       		.byte	0x6
 2448 07fe 37       		.byte	0x37
 2449 07ff 4D080000 		.4byte	0x84d
 2450 0803 04       		.byte	0x4
 2451 0804 06       		.uleb128 0x6
 2452 0805 C3050000 		.4byte	.LASF137
 2453 0809 06       		.byte	0x6
 2454 080a 39       		.byte	0x39
 2455 080b 4D080000 		.4byte	0x84d
 2456 080f 08       		.byte	0x8
 2457 0810 06       		.uleb128 0x6
 2458 0811 BB020000 		.4byte	.LASF138
 2459 0815 06       		.byte	0x6
 2460 0816 3A       		.byte	0x3a
 2461 0817 4D080000 		.4byte	0x84d
 2462 081b 0C       		.byte	0xc
 2463 081c 06       		.uleb128 0x6
 2464 081d 5F060000 		.4byte	.LASF139
 2465 0821 06       		.byte	0x6
 2466 0822 3B       		.byte	0x3b
 2467 0823 22010000 		.4byte	0x122
 2468 0827 10       		.byte	0x10
 2469 0828 06       		.uleb128 0x6
 2470 0829 E9000000 		.4byte	.LASF140
 2471 082d 06       		.byte	0x6
 2472 082e 3C       		.byte	0x3c
 2473 082f 53080000 		.4byte	0x853
 2474 0833 14       		.byte	0x14
 2475 0834 06       		.uleb128 0x6
 2476 0835 1B060000 		.4byte	.LASF141
 2477 0839 06       		.byte	0x6
 2478 083a 3D       		.byte	0x3d
 2479 083b 71020000 		.4byte	0x271
 2480 083f 18       		.byte	0x18
 2481 0840 06       		.uleb128 0x6
 2482 0841 15060000 		.4byte	.LASF142
 2483 0845 06       		.byte	0x6
 2484 0846 3E       		.byte	0x3e
 2485 0847 71020000 		.4byte	0x271
 2486 084b 20       		.byte	0x20
 2487 084c 00       		.byte	0
ARM GAS  /tmp/ccKk1bt9.s 			page 45


 2488 084d 09       		.uleb128 0x9
 2489 084e 04       		.byte	0x4
 2490 084f 0C010000 		.4byte	0x10c
 2491 0853 03       		.uleb128 0x3
 2492 0854 01       		.byte	0x1
 2493 0855 02       		.byte	0x2
 2494 0856 B5020000 		.4byte	.LASF143
 2495 085a 04       		.uleb128 0x4
 2496 085b D3020000 		.4byte	.LASF144
 2497 085f 06       		.byte	0x6
 2498 0860 3F       		.byte	0x3f
 2499 0861 E4070000 		.4byte	0x7e4
 2500 0865 1B       		.uleb128 0x1b
 2501 0866 2D050000 		.4byte	.LASF146
 2502 086a 07       		.byte	0x7
 2503 086b EC01     		.2byte	0x1ec
 2504 086d 0C010000 		.4byte	0x10c
 2505 0871 00000000 		.4byte	.LFB163
 2506 0875 88000000 		.4byte	.LFE163-.LFB163
 2507 0879 01       		.uleb128 0x1
 2508 087a 9C       		.byte	0x9c
 2509 087b AD080000 		.4byte	0x8ad
 2510 087f 1C       		.uleb128 0x1c
 2511 0880 6D627000 		.ascii	"mbp\000"
 2512 0884 07       		.byte	0x7
 2513 0885 EC01     		.2byte	0x1ec
 2514 0887 AD080000 		.4byte	0x8ad
 2515 088b 02       		.uleb128 0x2
 2516 088c 91       		.byte	0x91
 2517 088d 74       		.sleb128 -12
 2518 088e 1D       		.uleb128 0x1d
 2519 088f ED070000 		.4byte	.LASF145
 2520 0893 07       		.byte	0x7
 2521 0894 EC01     		.2byte	0x1ec
 2522 0896 4D080000 		.4byte	0x84d
 2523 089a 02       		.uleb128 0x2
 2524 089b 91       		.byte	0x91
 2525 089c 70       		.sleb128 -16
 2526 089d 1E       		.uleb128 0x1e
 2527 089e E4070000 		.4byte	.LASF149
 2528 08a2 C3080000 		.4byte	0x8c3
 2529 08a6 05       		.uleb128 0x5
 2530 08a7 03       		.byte	0x3
 2531 08a8 00000000 		.4byte	__func__.5765
 2532 08ac 00       		.byte	0
 2533 08ad 09       		.uleb128 0x9
 2534 08ae 04       		.byte	0x4
 2535 08af 5A080000 		.4byte	0x85a
 2536 08b3 14       		.uleb128 0x14
 2537 08b4 9B060000 		.4byte	0x69b
 2538 08b8 C3080000 		.4byte	0x8c3
 2539 08bc 15       		.uleb128 0x15
 2540 08bd 78040000 		.4byte	0x478
 2541 08c1 0A       		.byte	0xa
 2542 08c2 00       		.byte	0
 2543 08c3 19       		.uleb128 0x19
 2544 08c4 B3080000 		.4byte	0x8b3
ARM GAS  /tmp/ccKk1bt9.s 			page 46


 2545 08c8 1B       		.uleb128 0x1b
 2546 08c9 FA030000 		.4byte	.LASF147
 2547 08cd 07       		.byte	0x7
 2548 08ce BB01     		.2byte	0x1bb
 2549 08d0 0C010000 		.4byte	0x10c
 2550 08d4 00000000 		.4byte	.LFB162
 2551 08d8 AC000000 		.4byte	.LFE162-.LFB162
 2552 08dc 01       		.uleb128 0x1
 2553 08dd 9C       		.byte	0x9c
 2554 08de 2E090000 		.4byte	0x92e
 2555 08e2 1C       		.uleb128 0x1c
 2556 08e3 6D627000 		.ascii	"mbp\000"
 2557 08e7 07       		.byte	0x7
 2558 08e8 BB01     		.2byte	0x1bb
 2559 08ea AD080000 		.4byte	0x8ad
 2560 08ee 02       		.uleb128 0x2
 2561 08ef 91       		.byte	0x91
 2562 08f0 6C       		.sleb128 -20
 2563 08f1 1D       		.uleb128 0x1d
 2564 08f2 ED070000 		.4byte	.LASF145
 2565 08f6 07       		.byte	0x7
 2566 08f7 BB01     		.2byte	0x1bb
 2567 08f9 4D080000 		.4byte	0x84d
 2568 08fd 02       		.uleb128 0x2
 2569 08fe 91       		.byte	0x91
 2570 08ff 68       		.sleb128 -24
 2571 0900 1D       		.uleb128 0x1d
 2572 0901 46070000 		.4byte	.LASF148
 2573 0905 07       		.byte	0x7
 2574 0906 BB01     		.2byte	0x1bb
 2575 0908 2D010000 		.4byte	0x12d
 2576 090c 02       		.uleb128 0x2
 2577 090d 91       		.byte	0x91
 2578 090e 66       		.sleb128 -26
 2579 090f 1F       		.uleb128 0x1f
 2580 0910 83020000 		.4byte	.LASF98
 2581 0914 07       		.byte	0x7
 2582 0915 BC01     		.2byte	0x1bc
 2583 0917 0C010000 		.4byte	0x10c
 2584 091b 02       		.uleb128 0x2
 2585 091c 91       		.byte	0x91
 2586 091d 74       		.sleb128 -12
 2587 091e 1E       		.uleb128 0x1e
 2588 091f E4070000 		.4byte	.LASF149
 2589 0923 C3080000 		.4byte	0x8c3
 2590 0927 05       		.uleb128 0x5
 2591 0928 03       		.byte	0x3
 2592 0929 00000000 		.4byte	__func__.5758
 2593 092d 00       		.byte	0
 2594 092e 1B       		.uleb128 0x1b
 2595 092f 7D050000 		.4byte	.LASF150
 2596 0933 07       		.byte	0x7
 2597 0934 9E01     		.2byte	0x19e
 2598 0936 0C010000 		.4byte	0x10c
 2599 093a 00000000 		.4byte	.LFB161
 2600 093e 32000000 		.4byte	.LFE161-.LFB161
 2601 0942 01       		.uleb128 0x1
ARM GAS  /tmp/ccKk1bt9.s 			page 47


 2602 0943 9C       		.byte	0x9c
 2603 0944 85090000 		.4byte	0x985
 2604 0948 1C       		.uleb128 0x1c
 2605 0949 6D627000 		.ascii	"mbp\000"
 2606 094d 07       		.byte	0x7
 2607 094e 9E01     		.2byte	0x19e
 2608 0950 AD080000 		.4byte	0x8ad
 2609 0954 02       		.uleb128 0x2
 2610 0955 91       		.byte	0x91
 2611 0956 6C       		.sleb128 -20
 2612 0957 1D       		.uleb128 0x1d
 2613 0958 ED070000 		.4byte	.LASF145
 2614 095c 07       		.byte	0x7
 2615 095d 9E01     		.2byte	0x19e
 2616 095f 4D080000 		.4byte	0x84d
 2617 0963 02       		.uleb128 0x2
 2618 0964 91       		.byte	0x91
 2619 0965 68       		.sleb128 -24
 2620 0966 1D       		.uleb128 0x1d
 2621 0967 46070000 		.4byte	.LASF148
 2622 096b 07       		.byte	0x7
 2623 096c 9E01     		.2byte	0x19e
 2624 096e 2D010000 		.4byte	0x12d
 2625 0972 02       		.uleb128 0x2
 2626 0973 91       		.byte	0x91
 2627 0974 66       		.sleb128 -26
 2628 0975 1F       		.uleb128 0x1f
 2629 0976 83020000 		.4byte	.LASF98
 2630 097a 07       		.byte	0x7
 2631 097b 9F01     		.2byte	0x19f
 2632 097d 0C010000 		.4byte	0x10c
 2633 0981 02       		.uleb128 0x2
 2634 0982 91       		.byte	0x91
 2635 0983 74       		.sleb128 -12
 2636 0984 00       		.byte	0
 2637 0985 1B       		.uleb128 0x1b
 2638 0986 C4020000 		.4byte	.LASF151
 2639 098a 07       		.byte	0x7
 2640 098b 6F01     		.2byte	0x16f
 2641 098d 0C010000 		.4byte	0x10c
 2642 0991 00000000 		.4byte	.LFB160
 2643 0995 84000000 		.4byte	.LFE160-.LFB160
 2644 0999 01       		.uleb128 0x1
 2645 099a 9C       		.byte	0x9c
 2646 099b CD090000 		.4byte	0x9cd
 2647 099f 1C       		.uleb128 0x1c
 2648 09a0 6D627000 		.ascii	"mbp\000"
 2649 09a4 07       		.byte	0x7
 2650 09a5 6F01     		.2byte	0x16f
 2651 09a7 AD080000 		.4byte	0x8ad
 2652 09ab 02       		.uleb128 0x2
 2653 09ac 91       		.byte	0x91
 2654 09ad 74       		.sleb128 -12
 2655 09ae 1C       		.uleb128 0x1c
 2656 09af 6D736700 		.ascii	"msg\000"
 2657 09b3 07       		.byte	0x7
 2658 09b4 6F01     		.2byte	0x16f
ARM GAS  /tmp/ccKk1bt9.s 			page 48


 2659 09b6 0C010000 		.4byte	0x10c
 2660 09ba 02       		.uleb128 0x2
 2661 09bb 91       		.byte	0x91
 2662 09bc 70       		.sleb128 -16
 2663 09bd 1E       		.uleb128 0x1e
 2664 09be E4070000 		.4byte	.LASF149
 2665 09c2 DD090000 		.4byte	0x9dd
 2666 09c6 05       		.uleb128 0x5
 2667 09c7 03       		.byte	0x3
 2668 09c8 00000000 		.4byte	__func__.5745
 2669 09cc 00       		.byte	0
 2670 09cd 14       		.uleb128 0x14
 2671 09ce 9B060000 		.4byte	0x69b
 2672 09d2 DD090000 		.4byte	0x9dd
 2673 09d6 15       		.uleb128 0x15
 2674 09d7 78040000 		.4byte	0x478
 2675 09db 0E       		.byte	0xe
 2676 09dc 00       		.byte	0
 2677 09dd 19       		.uleb128 0x19
 2678 09de CD090000 		.4byte	0x9cd
 2679 09e2 1B       		.uleb128 0x1b
 2680 09e3 AB030000 		.4byte	.LASF152
 2681 09e7 07       		.byte	0x7
 2682 09e8 3E01     		.2byte	0x13e
 2683 09ea 0C010000 		.4byte	0x10c
 2684 09ee 00000000 		.4byte	.LFB159
 2685 09f2 AC000000 		.4byte	.LFE159-.LFB159
 2686 09f6 01       		.uleb128 0x1
 2687 09f7 9C       		.byte	0x9c
 2688 09f8 480A0000 		.4byte	0xa48
 2689 09fc 1C       		.uleb128 0x1c
 2690 09fd 6D627000 		.ascii	"mbp\000"
 2691 0a01 07       		.byte	0x7
 2692 0a02 3E01     		.2byte	0x13e
 2693 0a04 AD080000 		.4byte	0x8ad
 2694 0a08 02       		.uleb128 0x2
 2695 0a09 91       		.byte	0x91
 2696 0a0a 6C       		.sleb128 -20
 2697 0a0b 1C       		.uleb128 0x1c
 2698 0a0c 6D736700 		.ascii	"msg\000"
 2699 0a10 07       		.byte	0x7
 2700 0a11 3E01     		.2byte	0x13e
 2701 0a13 0C010000 		.4byte	0x10c
 2702 0a17 02       		.uleb128 0x2
 2703 0a18 91       		.byte	0x91
 2704 0a19 68       		.sleb128 -24
 2705 0a1a 1D       		.uleb128 0x1d
 2706 0a1b 46070000 		.4byte	.LASF148
 2707 0a1f 07       		.byte	0x7
 2708 0a20 3E01     		.2byte	0x13e
 2709 0a22 2D010000 		.4byte	0x12d
 2710 0a26 02       		.uleb128 0x2
 2711 0a27 91       		.byte	0x91
 2712 0a28 66       		.sleb128 -26
 2713 0a29 1F       		.uleb128 0x1f
 2714 0a2a 83020000 		.4byte	.LASF98
 2715 0a2e 07       		.byte	0x7
ARM GAS  /tmp/ccKk1bt9.s 			page 49


 2716 0a2f 3F01     		.2byte	0x13f
 2717 0a31 0C010000 		.4byte	0x10c
 2718 0a35 02       		.uleb128 0x2
 2719 0a36 91       		.byte	0x91
 2720 0a37 74       		.sleb128 -12
 2721 0a38 1E       		.uleb128 0x1e
 2722 0a39 E4070000 		.4byte	.LASF149
 2723 0a3d DD090000 		.4byte	0x9dd
 2724 0a41 05       		.uleb128 0x5
 2725 0a42 03       		.byte	0x3
 2726 0a43 00000000 		.4byte	__func__.5738
 2727 0a47 00       		.byte	0
 2728 0a48 1B       		.uleb128 0x1b
 2729 0a49 63050000 		.4byte	.LASF153
 2730 0a4d 07       		.byte	0x7
 2731 0a4e 2101     		.2byte	0x121
 2732 0a50 0C010000 		.4byte	0x10c
 2733 0a54 00000000 		.4byte	.LFB158
 2734 0a58 32000000 		.4byte	.LFE158-.LFB158
 2735 0a5c 01       		.uleb128 0x1
 2736 0a5d 9C       		.byte	0x9c
 2737 0a5e 9F0A0000 		.4byte	0xa9f
 2738 0a62 1C       		.uleb128 0x1c
 2739 0a63 6D627000 		.ascii	"mbp\000"
 2740 0a67 07       		.byte	0x7
 2741 0a68 2101     		.2byte	0x121
 2742 0a6a AD080000 		.4byte	0x8ad
 2743 0a6e 02       		.uleb128 0x2
 2744 0a6f 91       		.byte	0x91
 2745 0a70 6C       		.sleb128 -20
 2746 0a71 1C       		.uleb128 0x1c
 2747 0a72 6D736700 		.ascii	"msg\000"
 2748 0a76 07       		.byte	0x7
 2749 0a77 2101     		.2byte	0x121
 2750 0a79 0C010000 		.4byte	0x10c
 2751 0a7d 02       		.uleb128 0x2
 2752 0a7e 91       		.byte	0x91
 2753 0a7f 68       		.sleb128 -24
 2754 0a80 1D       		.uleb128 0x1d
 2755 0a81 46070000 		.4byte	.LASF148
 2756 0a85 07       		.byte	0x7
 2757 0a86 2101     		.2byte	0x121
 2758 0a88 2D010000 		.4byte	0x12d
 2759 0a8c 02       		.uleb128 0x2
 2760 0a8d 91       		.byte	0x91
 2761 0a8e 66       		.sleb128 -26
 2762 0a8f 1F       		.uleb128 0x1f
 2763 0a90 83020000 		.4byte	.LASF98
 2764 0a94 07       		.byte	0x7
 2765 0a95 2201     		.2byte	0x122
 2766 0a97 0C010000 		.4byte	0x10c
 2767 0a9b 02       		.uleb128 0x2
 2768 0a9c 91       		.byte	0x91
 2769 0a9d 74       		.sleb128 -12
 2770 0a9e 00       		.byte	0
 2771 0a9f 20       		.uleb128 0x20
 2772 0aa0 23050000 		.4byte	.LASF154
ARM GAS  /tmp/ccKk1bt9.s 			page 50


 2773 0aa4 07       		.byte	0x7
 2774 0aa5 F2       		.byte	0xf2
 2775 0aa6 0C010000 		.4byte	0x10c
 2776 0aaa 00000000 		.4byte	.LFB157
 2777 0aae 80000000 		.4byte	.LFE157-.LFB157
 2778 0ab2 01       		.uleb128 0x1
 2779 0ab3 9C       		.byte	0x9c
 2780 0ab4 E40A0000 		.4byte	0xae4
 2781 0ab8 21       		.uleb128 0x21
 2782 0ab9 6D627000 		.ascii	"mbp\000"
 2783 0abd 07       		.byte	0x7
 2784 0abe F2       		.byte	0xf2
 2785 0abf AD080000 		.4byte	0x8ad
 2786 0ac3 02       		.uleb128 0x2
 2787 0ac4 91       		.byte	0x91
 2788 0ac5 74       		.sleb128 -12
 2789 0ac6 21       		.uleb128 0x21
 2790 0ac7 6D736700 		.ascii	"msg\000"
 2791 0acb 07       		.byte	0x7
 2792 0acc F2       		.byte	0xf2
 2793 0acd 0C010000 		.4byte	0x10c
 2794 0ad1 02       		.uleb128 0x2
 2795 0ad2 91       		.byte	0x91
 2796 0ad3 70       		.sleb128 -16
 2797 0ad4 1E       		.uleb128 0x1e
 2798 0ad5 E4070000 		.4byte	.LASF149
 2799 0ad9 F40A0000 		.4byte	0xaf4
 2800 0add 05       		.uleb128 0x5
 2801 0ade 03       		.byte	0x3
 2802 0adf 00000000 		.4byte	__func__.5725
 2803 0ae3 00       		.byte	0
 2804 0ae4 14       		.uleb128 0x14
 2805 0ae5 9B060000 		.4byte	0x69b
 2806 0ae9 F40A0000 		.4byte	0xaf4
 2807 0aed 15       		.uleb128 0x15
 2808 0aee 78040000 		.4byte	0x478
 2809 0af2 09       		.byte	0x9
 2810 0af3 00       		.byte	0
 2811 0af4 19       		.uleb128 0x19
 2812 0af5 E40A0000 		.4byte	0xae4
 2813 0af9 20       		.uleb128 0x20
 2814 0afa 3E050000 		.4byte	.LASF155
 2815 0afe 07       		.byte	0x7
 2816 0aff C1       		.byte	0xc1
 2817 0b00 0C010000 		.4byte	0x10c
 2818 0b04 00000000 		.4byte	.LFB156
 2819 0b08 A4000000 		.4byte	.LFE156-.LFB156
 2820 0b0c 01       		.uleb128 0x1
 2821 0b0d 9C       		.byte	0x9c
 2822 0b0e 5A0B0000 		.4byte	0xb5a
 2823 0b12 21       		.uleb128 0x21
 2824 0b13 6D627000 		.ascii	"mbp\000"
 2825 0b17 07       		.byte	0x7
 2826 0b18 C1       		.byte	0xc1
 2827 0b19 AD080000 		.4byte	0x8ad
 2828 0b1d 02       		.uleb128 0x2
 2829 0b1e 91       		.byte	0x91
ARM GAS  /tmp/ccKk1bt9.s 			page 51


 2830 0b1f 6C       		.sleb128 -20
 2831 0b20 21       		.uleb128 0x21
 2832 0b21 6D736700 		.ascii	"msg\000"
 2833 0b25 07       		.byte	0x7
 2834 0b26 C1       		.byte	0xc1
 2835 0b27 0C010000 		.4byte	0x10c
 2836 0b2b 02       		.uleb128 0x2
 2837 0b2c 91       		.byte	0x91
 2838 0b2d 68       		.sleb128 -24
 2839 0b2e 22       		.uleb128 0x22
 2840 0b2f 46070000 		.4byte	.LASF148
 2841 0b33 07       		.byte	0x7
 2842 0b34 C1       		.byte	0xc1
 2843 0b35 2D010000 		.4byte	0x12d
 2844 0b39 02       		.uleb128 0x2
 2845 0b3a 91       		.byte	0x91
 2846 0b3b 66       		.sleb128 -26
 2847 0b3c 23       		.uleb128 0x23
 2848 0b3d 83020000 		.4byte	.LASF98
 2849 0b41 07       		.byte	0x7
 2850 0b42 C2       		.byte	0xc2
 2851 0b43 0C010000 		.4byte	0x10c
 2852 0b47 02       		.uleb128 0x2
 2853 0b48 91       		.byte	0x91
 2854 0b49 74       		.sleb128 -12
 2855 0b4a 1E       		.uleb128 0x1e
 2856 0b4b E4070000 		.4byte	.LASF149
 2857 0b4f F40A0000 		.4byte	0xaf4
 2858 0b53 05       		.uleb128 0x5
 2859 0b54 03       		.byte	0x3
 2860 0b55 00000000 		.4byte	__func__.5718
 2861 0b59 00       		.byte	0
 2862 0b5a 20       		.uleb128 0x20
 2863 0b5b 59070000 		.4byte	.LASF156
 2864 0b5f 07       		.byte	0x7
 2865 0b60 A4       		.byte	0xa4
 2866 0b61 0C010000 		.4byte	0x10c
 2867 0b65 00000000 		.4byte	.LFB155
 2868 0b69 32000000 		.4byte	.LFE155-.LFB155
 2869 0b6d 01       		.uleb128 0x1
 2870 0b6e 9C       		.byte	0x9c
 2871 0b6f AC0B0000 		.4byte	0xbac
 2872 0b73 21       		.uleb128 0x21
 2873 0b74 6D627000 		.ascii	"mbp\000"
 2874 0b78 07       		.byte	0x7
 2875 0b79 A4       		.byte	0xa4
 2876 0b7a AD080000 		.4byte	0x8ad
 2877 0b7e 02       		.uleb128 0x2
 2878 0b7f 91       		.byte	0x91
 2879 0b80 6C       		.sleb128 -20
 2880 0b81 21       		.uleb128 0x21
 2881 0b82 6D736700 		.ascii	"msg\000"
 2882 0b86 07       		.byte	0x7
 2883 0b87 A4       		.byte	0xa4
 2884 0b88 0C010000 		.4byte	0x10c
 2885 0b8c 02       		.uleb128 0x2
 2886 0b8d 91       		.byte	0x91
ARM GAS  /tmp/ccKk1bt9.s 			page 52


 2887 0b8e 68       		.sleb128 -24
 2888 0b8f 22       		.uleb128 0x22
 2889 0b90 46070000 		.4byte	.LASF148
 2890 0b94 07       		.byte	0x7
 2891 0b95 A4       		.byte	0xa4
 2892 0b96 2D010000 		.4byte	0x12d
 2893 0b9a 02       		.uleb128 0x2
 2894 0b9b 91       		.byte	0x91
 2895 0b9c 66       		.sleb128 -26
 2896 0b9d 23       		.uleb128 0x23
 2897 0b9e 83020000 		.4byte	.LASF98
 2898 0ba2 07       		.byte	0x7
 2899 0ba3 A5       		.byte	0xa5
 2900 0ba4 0C010000 		.4byte	0x10c
 2901 0ba8 02       		.uleb128 0x2
 2902 0ba9 91       		.byte	0x91
 2903 0baa 74       		.sleb128 -12
 2904 0bab 00       		.byte	0
 2905 0bac 24       		.uleb128 0x24
 2906 0bad 4E070000 		.4byte	.LASF157
 2907 0bb1 07       		.byte	0x7
 2908 0bb2 84       		.byte	0x84
 2909 0bb3 00000000 		.4byte	.LFB154
 2910 0bb7 64000000 		.4byte	.LFE154-.LFB154
 2911 0bbb 01       		.uleb128 0x1
 2912 0bbc 9C       		.byte	0x9c
 2913 0bbd DF0B0000 		.4byte	0xbdf
 2914 0bc1 21       		.uleb128 0x21
 2915 0bc2 6D627000 		.ascii	"mbp\000"
 2916 0bc6 07       		.byte	0x7
 2917 0bc7 84       		.byte	0x84
 2918 0bc8 AD080000 		.4byte	0x8ad
 2919 0bcc 02       		.uleb128 0x2
 2920 0bcd 91       		.byte	0x91
 2921 0bce 74       		.sleb128 -12
 2922 0bcf 1E       		.uleb128 0x1e
 2923 0bd0 E4070000 		.4byte	.LASF149
 2924 0bd4 C3080000 		.4byte	0x8c3
 2925 0bd8 05       		.uleb128 0x5
 2926 0bd9 03       		.byte	0x3
 2927 0bda 00000000 		.4byte	__func__.5705
 2928 0bde 00       		.byte	0
 2929 0bdf 24       		.uleb128 0x24
 2930 0be0 84010000 		.4byte	.LASF158
 2931 0be4 07       		.byte	0x7
 2932 0be5 70       		.byte	0x70
 2933 0be6 00000000 		.4byte	.LFB153
 2934 0bea 20000000 		.4byte	.LFE153-.LFB153
 2935 0bee 01       		.uleb128 0x1
 2936 0bef 9C       		.byte	0x9c
 2937 0bf0 030C0000 		.4byte	0xc03
 2938 0bf4 21       		.uleb128 0x21
 2939 0bf5 6D627000 		.ascii	"mbp\000"
 2940 0bf9 07       		.byte	0x7
 2941 0bfa 70       		.byte	0x70
 2942 0bfb AD080000 		.4byte	0x8ad
 2943 0bff 02       		.uleb128 0x2
ARM GAS  /tmp/ccKk1bt9.s 			page 53


 2944 0c00 91       		.byte	0x91
 2945 0c01 74       		.sleb128 -12
 2946 0c02 00       		.byte	0
 2947 0c03 24       		.uleb128 0x24
 2948 0c04 AA040000 		.4byte	.LASF159
 2949 0c08 07       		.byte	0x7
 2950 0c09 56       		.byte	0x56
 2951 0c0a 00000000 		.4byte	.LFB152
 2952 0c0e 6C000000 		.4byte	.LFE152-.LFB152
 2953 0c12 01       		.uleb128 0x1
 2954 0c13 9C       		.byte	0x9c
 2955 0c14 500C0000 		.4byte	0xc50
 2956 0c18 21       		.uleb128 0x21
 2957 0c19 6D627000 		.ascii	"mbp\000"
 2958 0c1d 07       		.byte	0x7
 2959 0c1e 56       		.byte	0x56
 2960 0c1f AD080000 		.4byte	0x8ad
 2961 0c23 02       		.uleb128 0x2
 2962 0c24 91       		.byte	0x91
 2963 0c25 74       		.sleb128 -12
 2964 0c26 21       		.uleb128 0x21
 2965 0c27 62756600 		.ascii	"buf\000"
 2966 0c2b 07       		.byte	0x7
 2967 0c2c 56       		.byte	0x56
 2968 0c2d 4D080000 		.4byte	0x84d
 2969 0c31 02       		.uleb128 0x2
 2970 0c32 91       		.byte	0x91
 2971 0c33 70       		.sleb128 -16
 2972 0c34 21       		.uleb128 0x21
 2973 0c35 6E00     		.ascii	"n\000"
 2974 0c37 07       		.byte	0x7
 2975 0c38 56       		.byte	0x56
 2976 0c39 22010000 		.4byte	0x122
 2977 0c3d 02       		.uleb128 0x2
 2978 0c3e 91       		.byte	0x91
 2979 0c3f 6C       		.sleb128 -20
 2980 0c40 1E       		.uleb128 0x1e
 2981 0c41 E4070000 		.4byte	.LASF149
 2982 0c45 DD090000 		.4byte	0x9dd
 2983 0c49 05       		.uleb128 0x5
 2984 0c4a 03       		.byte	0x3
 2985 0c4b 00000000 		.4byte	__func__.5698
 2986 0c4f 00       		.byte	0
 2987 0c50 25       		.uleb128 0x25
 2988 0c51 D2070000 		.4byte	.LASF160
 2989 0c55 06       		.byte	0x6
 2990 0c56 A8       		.byte	0xa8
 2991 0c57 22010000 		.4byte	0x122
 2992 0c5b 00000000 		.4byte	.LFB137
 2993 0c5f 26000000 		.4byte	.LFE137-.LFB137
 2994 0c63 01       		.uleb128 0x1
 2995 0c64 9C       		.byte	0x9c
 2996 0c65 780C0000 		.4byte	0xc78
 2997 0c69 21       		.uleb128 0x21
 2998 0c6a 6D627000 		.ascii	"mbp\000"
 2999 0c6e 06       		.byte	0x6
 3000 0c6f A8       		.byte	0xa8
ARM GAS  /tmp/ccKk1bt9.s 			page 54


 3001 0c70 AD080000 		.4byte	0x8ad
 3002 0c74 02       		.uleb128 0x2
 3003 0c75 91       		.byte	0x91
 3004 0c76 74       		.sleb128 -12
 3005 0c77 00       		.byte	0
 3006 0c78 25       		.uleb128 0x25
 3007 0c79 46010000 		.4byte	.LASF161
 3008 0c7d 06       		.byte	0x6
 3009 0c7e 99       		.byte	0x99
 3010 0c7f 22010000 		.4byte	0x122
 3011 0c83 00000000 		.4byte	.LFB136
 3012 0c87 14000000 		.4byte	.LFE136-.LFB136
 3013 0c8b 01       		.uleb128 0x1
 3014 0c8c 9C       		.byte	0x9c
 3015 0c8d A00C0000 		.4byte	0xca0
 3016 0c91 21       		.uleb128 0x21
 3017 0c92 6D627000 		.ascii	"mbp\000"
 3018 0c96 06       		.byte	0x6
 3019 0c97 99       		.byte	0x99
 3020 0c98 AD080000 		.4byte	0x8ad
 3021 0c9c 02       		.uleb128 0x2
 3022 0c9d 91       		.byte	0x91
 3023 0c9e 74       		.sleb128 -12
 3024 0c9f 00       		.byte	0
 3025 0ca0 26       		.uleb128 0x26
 3026 0ca1 77010000 		.4byte	.LASF162
 3027 0ca5 06       		.byte	0x6
 3028 0ca6 88       		.byte	0x88
 3029 0ca7 22010000 		.4byte	0x122
 3030 0cab 00000000 		.4byte	.LFB135
 3031 0caf 18000000 		.4byte	.LFE135-.LFB135
 3032 0cb3 01       		.uleb128 0x1
 3033 0cb4 9C       		.byte	0x9c
 3034 0cb5 C80C0000 		.4byte	0xcc8
 3035 0cb9 21       		.uleb128 0x21
 3036 0cba 6D627000 		.ascii	"mbp\000"
 3037 0cbe 06       		.byte	0x6
 3038 0cbf 88       		.byte	0x88
 3039 0cc0 AD080000 		.4byte	0x8ad
 3040 0cc4 02       		.uleb128 0x2
 3041 0cc5 91       		.byte	0x91
 3042 0cc6 7C       		.sleb128 -4
 3043 0cc7 00       		.byte	0
 3044 0cc8 27       		.uleb128 0x27
 3045 0cc9 01010000 		.4byte	.LASF163
 3046 0ccd 05       		.byte	0x5
 3047 0cce 1601     		.2byte	0x116
 3048 0cd0 00000000 		.4byte	.LFB105
 3049 0cd4 14000000 		.4byte	.LFE105-.LFB105
 3050 0cd8 01       		.uleb128 0x1
 3051 0cd9 9C       		.byte	0x9c
 3052 0cda EE0C0000 		.4byte	0xcee
 3053 0cde 1C       		.uleb128 0x1c
 3054 0cdf 74717000 		.ascii	"tqp\000"
 3055 0ce3 05       		.byte	0x5
 3056 0ce4 1601     		.2byte	0x116
 3057 0ce6 EE0C0000 		.4byte	0xcee
ARM GAS  /tmp/ccKk1bt9.s 			page 55


 3058 0cea 02       		.uleb128 0x2
 3059 0ceb 91       		.byte	0x91
 3060 0cec 74       		.sleb128 -12
 3061 0ced 00       		.byte	0
 3062 0cee 09       		.uleb128 0x9
 3063 0cef 04       		.byte	0x4
 3064 0cf0 71020000 		.4byte	0x271
 3065 0cf4 27       		.uleb128 0x27
 3066 0cf5 3F020000 		.4byte	.LASF164
 3067 0cf9 04       		.byte	0x4
 3068 0cfa 6601     		.2byte	0x166
 3069 0cfc 00000000 		.4byte	.LFB78
 3070 0d00 38000000 		.4byte	.LFE78-.LFB78
 3071 0d04 01       		.uleb128 0x1
 3072 0d05 9C       		.byte	0x9c
 3073 0d06 1A0D0000 		.4byte	0xd1a
 3074 0d0a 1E       		.uleb128 0x1e
 3075 0d0b E4070000 		.4byte	.LASF149
 3076 0d0f 2A0D0000 		.4byte	0xd2a
 3077 0d13 05       		.uleb128 0x5
 3078 0d14 03       		.byte	0x3
 3079 0d15 00000000 		.4byte	__func__.4993
 3080 0d19 00       		.byte	0
 3081 0d1a 14       		.uleb128 0x14
 3082 0d1b 9B060000 		.4byte	0x69b
 3083 0d1f 2A0D0000 		.4byte	0xd2a
 3084 0d23 15       		.uleb128 0x15
 3085 0d24 78040000 		.4byte	0x478
 3086 0d28 0B       		.byte	0xb
 3087 0d29 00       		.byte	0
 3088 0d2a 19       		.uleb128 0x19
 3089 0d2b 1A0D0000 		.4byte	0xd1a
 3090 0d2f 28       		.uleb128 0x28
 3091 0d30 CE030000 		.4byte	.LASF173
 3092 0d34 04       		.byte	0x4
 3093 0d35 5A01     		.2byte	0x15a
 3094 0d37 00000000 		.4byte	.LFB77
 3095 0d3b 0E000000 		.4byte	.LFE77-.LFB77
 3096 0d3f 01       		.uleb128 0x1
 3097 0d40 9C       		.byte	0x9c
 3098 0d41 29       		.uleb128 0x29
 3099 0d42 05070000 		.4byte	.LASF165
 3100 0d46 03       		.byte	0x3
 3101 0d47 5A02     		.2byte	0x25a
 3102 0d49 00000000 		.4byte	.LFB60
 3103 0d4d 16000000 		.4byte	.LFE60-.LFB60
 3104 0d51 01       		.uleb128 0x1
 3105 0d52 9C       		.byte	0x9c
 3106 0d53 670D0000 		.4byte	0xd67
 3107 0d57 1C       		.uleb128 0x1c
 3108 0d58 74717000 		.ascii	"tqp\000"
 3109 0d5c 03       		.byte	0x3
 3110 0d5d 5A02     		.2byte	0x25a
 3111 0d5f EE0C0000 		.4byte	0xcee
 3112 0d63 02       		.uleb128 0x2
 3113 0d64 91       		.byte	0x91
 3114 0d65 7C       		.sleb128 -4
ARM GAS  /tmp/ccKk1bt9.s 			page 56


 3115 0d66 00       		.byte	0
 3116 0d67 29       		.uleb128 0x29
 3117 0d68 03080000 		.4byte	.LASF166
 3118 0d6c 01       		.byte	0x1
 3119 0d6d 5301     		.2byte	0x153
 3120 0d6f 00000000 		.4byte	.LFB39
 3121 0d73 06000000 		.4byte	.LFE39-.LFB39
 3122 0d77 01       		.uleb128 0x1
 3123 0d78 9C       		.byte	0x9c
 3124 0d79 8E0D0000 		.4byte	0xd8e
 3125 0d7d 2A       		.uleb128 0x2a
 3126 0d7e BE0D0000 		.4byte	0xdbe
 3127 0d82 00000000 		.4byte	.LBB8
 3128 0d86 02000000 		.4byte	.LBE8-.LBB8
 3129 0d8a 01       		.byte	0x1
 3130 0d8b 5501     		.2byte	0x155
 3131 0d8d 00       		.byte	0
 3132 0d8e 29       		.uleb128 0x29
 3133 0d8f CA000000 		.4byte	.LASF167
 3134 0d93 01       		.byte	0x1
 3135 0d94 4A01     		.2byte	0x14a
 3136 0d96 00000000 		.4byte	.LFB38
 3137 0d9a 06000000 		.4byte	.LFE38-.LFB38
 3138 0d9e 01       		.uleb128 0x1
 3139 0d9f 9C       		.byte	0x9c
 3140 0da0 B50D0000 		.4byte	0xdb5
 3141 0da4 2A       		.uleb128 0x2a
 3142 0da5 B50D0000 		.4byte	0xdb5
 3143 0da9 00000000 		.4byte	.LBB6
 3144 0dad 02000000 		.4byte	.LBE6-.LBB6
 3145 0db1 01       		.byte	0x1
 3146 0db2 4C01     		.2byte	0x14c
 3147 0db4 00       		.byte	0
 3148 0db5 2B       		.uleb128 0x2b
 3149 0db6 98020000 		.4byte	.LASF168
 3150 0dba 02       		.byte	0x2
 3151 0dbb 5601     		.2byte	0x156
 3152 0dbd 03       		.byte	0x3
 3153 0dbe 2B       		.uleb128 0x2b
 3154 0dbf FE050000 		.4byte	.LASF169
 3155 0dc3 02       		.byte	0x2
 3156 0dc4 4B01     		.2byte	0x14b
 3157 0dc6 03       		.byte	0x3
 3158 0dc7 00       		.byte	0
 3159              		.section	.debug_abbrev,"",%progbits
 3160              	.Ldebug_abbrev0:
 3161 0000 01       		.uleb128 0x1
 3162 0001 11       		.uleb128 0x11
 3163 0002 01       		.byte	0x1
 3164 0003 25       		.uleb128 0x25
 3165 0004 0E       		.uleb128 0xe
 3166 0005 13       		.uleb128 0x13
 3167 0006 0B       		.uleb128 0xb
 3168 0007 03       		.uleb128 0x3
 3169 0008 0E       		.uleb128 0xe
 3170 0009 1B       		.uleb128 0x1b
 3171 000a 0E       		.uleb128 0xe
ARM GAS  /tmp/ccKk1bt9.s 			page 57


 3172 000b 55       		.uleb128 0x55
 3173 000c 17       		.uleb128 0x17
 3174 000d 11       		.uleb128 0x11
 3175 000e 01       		.uleb128 0x1
 3176 000f 10       		.uleb128 0x10
 3177 0010 17       		.uleb128 0x17
 3178 0011 00       		.byte	0
 3179 0012 00       		.byte	0
 3180 0013 02       		.uleb128 0x2
 3181 0014 24       		.uleb128 0x24
 3182 0015 00       		.byte	0
 3183 0016 0B       		.uleb128 0xb
 3184 0017 0B       		.uleb128 0xb
 3185 0018 3E       		.uleb128 0x3e
 3186 0019 0B       		.uleb128 0xb
 3187 001a 03       		.uleb128 0x3
 3188 001b 08       		.uleb128 0x8
 3189 001c 00       		.byte	0
 3190 001d 00       		.byte	0
 3191 001e 03       		.uleb128 0x3
 3192 001f 24       		.uleb128 0x24
 3193 0020 00       		.byte	0
 3194 0021 0B       		.uleb128 0xb
 3195 0022 0B       		.uleb128 0xb
 3196 0023 3E       		.uleb128 0x3e
 3197 0024 0B       		.uleb128 0xb
 3198 0025 03       		.uleb128 0x3
 3199 0026 0E       		.uleb128 0xe
 3200 0027 00       		.byte	0
 3201 0028 00       		.byte	0
 3202 0029 04       		.uleb128 0x4
 3203 002a 16       		.uleb128 0x16
 3204 002b 00       		.byte	0
 3205 002c 03       		.uleb128 0x3
 3206 002d 0E       		.uleb128 0xe
 3207 002e 3A       		.uleb128 0x3a
 3208 002f 0B       		.uleb128 0xb
 3209 0030 3B       		.uleb128 0x3b
 3210 0031 0B       		.uleb128 0xb
 3211 0032 49       		.uleb128 0x49
 3212 0033 13       		.uleb128 0x13
 3213 0034 00       		.byte	0
 3214 0035 00       		.byte	0
 3215 0036 05       		.uleb128 0x5
 3216 0037 13       		.uleb128 0x13
 3217 0038 01       		.byte	0x1
 3218 0039 03       		.uleb128 0x3
 3219 003a 0E       		.uleb128 0xe
 3220 003b 0B       		.uleb128 0xb
 3221 003c 0B       		.uleb128 0xb
 3222 003d 3A       		.uleb128 0x3a
 3223 003e 0B       		.uleb128 0xb
 3224 003f 3B       		.uleb128 0x3b
 3225 0040 0B       		.uleb128 0xb
 3226 0041 01       		.uleb128 0x1
 3227 0042 13       		.uleb128 0x13
 3228 0043 00       		.byte	0
ARM GAS  /tmp/ccKk1bt9.s 			page 58


 3229 0044 00       		.byte	0
 3230 0045 06       		.uleb128 0x6
 3231 0046 0D       		.uleb128 0xd
 3232 0047 00       		.byte	0
 3233 0048 03       		.uleb128 0x3
 3234 0049 0E       		.uleb128 0xe
 3235 004a 3A       		.uleb128 0x3a
 3236 004b 0B       		.uleb128 0xb
 3237 004c 3B       		.uleb128 0x3b
 3238 004d 0B       		.uleb128 0xb
 3239 004e 49       		.uleb128 0x49
 3240 004f 13       		.uleb128 0x13
 3241 0050 38       		.uleb128 0x38
 3242 0051 0B       		.uleb128 0xb
 3243 0052 00       		.byte	0
 3244 0053 00       		.byte	0
 3245 0054 07       		.uleb128 0x7
 3246 0055 0D       		.uleb128 0xd
 3247 0056 00       		.byte	0
 3248 0057 03       		.uleb128 0x3
 3249 0058 08       		.uleb128 0x8
 3250 0059 3A       		.uleb128 0x3a
 3251 005a 0B       		.uleb128 0xb
 3252 005b 3B       		.uleb128 0x3b
 3253 005c 05       		.uleb128 0x5
 3254 005d 49       		.uleb128 0x49
 3255 005e 13       		.uleb128 0x13
 3256 005f 38       		.uleb128 0x38
 3257 0060 0B       		.uleb128 0xb
 3258 0061 00       		.byte	0
 3259 0062 00       		.byte	0
 3260 0063 08       		.uleb128 0x8
 3261 0064 0D       		.uleb128 0xd
 3262 0065 00       		.byte	0
 3263 0066 03       		.uleb128 0x3
 3264 0067 0E       		.uleb128 0xe
 3265 0068 3A       		.uleb128 0x3a
 3266 0069 0B       		.uleb128 0xb
 3267 006a 3B       		.uleb128 0x3b
 3268 006b 05       		.uleb128 0x5
 3269 006c 49       		.uleb128 0x49
 3270 006d 13       		.uleb128 0x13
 3271 006e 38       		.uleb128 0x38
 3272 006f 0B       		.uleb128 0xb
 3273 0070 00       		.byte	0
 3274 0071 00       		.byte	0
 3275 0072 09       		.uleb128 0x9
 3276 0073 0F       		.uleb128 0xf
 3277 0074 00       		.byte	0
 3278 0075 0B       		.uleb128 0xb
 3279 0076 0B       		.uleb128 0xb
 3280 0077 49       		.uleb128 0x49
 3281 0078 13       		.uleb128 0x13
 3282 0079 00       		.byte	0
 3283 007a 00       		.byte	0
 3284 007b 0A       		.uleb128 0xa
 3285 007c 13       		.uleb128 0x13
ARM GAS  /tmp/ccKk1bt9.s 			page 59


 3286 007d 01       		.byte	0x1
 3287 007e 03       		.uleb128 0x3
 3288 007f 0E       		.uleb128 0xe
 3289 0080 0B       		.uleb128 0xb
 3290 0081 0B       		.uleb128 0xb
 3291 0082 3A       		.uleb128 0x3a
 3292 0083 0B       		.uleb128 0xb
 3293 0084 3B       		.uleb128 0x3b
 3294 0085 05       		.uleb128 0x5
 3295 0086 01       		.uleb128 0x1
 3296 0087 13       		.uleb128 0x13
 3297 0088 00       		.byte	0
 3298 0089 00       		.byte	0
 3299 008a 0B       		.uleb128 0xb
 3300 008b 15       		.uleb128 0x15
 3301 008c 01       		.byte	0x1
 3302 008d 27       		.uleb128 0x27
 3303 008e 19       		.uleb128 0x19
 3304 008f 01       		.uleb128 0x1
 3305 0090 13       		.uleb128 0x13
 3306 0091 00       		.byte	0
 3307 0092 00       		.byte	0
 3308 0093 0C       		.uleb128 0xc
 3309 0094 05       		.uleb128 0x5
 3310 0095 00       		.byte	0
 3311 0096 49       		.uleb128 0x49
 3312 0097 13       		.uleb128 0x13
 3313 0098 00       		.byte	0
 3314 0099 00       		.byte	0
 3315 009a 0D       		.uleb128 0xd
 3316 009b 0F       		.uleb128 0xf
 3317 009c 00       		.byte	0
 3318 009d 0B       		.uleb128 0xb
 3319 009e 0B       		.uleb128 0xb
 3320 009f 00       		.byte	0
 3321 00a0 00       		.byte	0
 3322 00a1 0E       		.uleb128 0xe
 3323 00a2 13       		.uleb128 0x13
 3324 00a3 01       		.byte	0x1
 3325 00a4 03       		.uleb128 0x3
 3326 00a5 0E       		.uleb128 0xe
 3327 00a6 0B       		.uleb128 0xb
 3328 00a7 05       		.uleb128 0x5
 3329 00a8 3A       		.uleb128 0x3a
 3330 00a9 0B       		.uleb128 0xb
 3331 00aa 3B       		.uleb128 0x3b
 3332 00ab 05       		.uleb128 0x5
 3333 00ac 01       		.uleb128 0x1
 3334 00ad 13       		.uleb128 0x13
 3335 00ae 00       		.byte	0
 3336 00af 00       		.byte	0
 3337 00b0 0F       		.uleb128 0xf
 3338 00b1 0D       		.uleb128 0xd
 3339 00b2 00       		.byte	0
 3340 00b3 03       		.uleb128 0x3
 3341 00b4 0E       		.uleb128 0xe
 3342 00b5 3A       		.uleb128 0x3a
ARM GAS  /tmp/ccKk1bt9.s 			page 60


 3343 00b6 0B       		.uleb128 0xb
 3344 00b7 3B       		.uleb128 0x3b
 3345 00b8 05       		.uleb128 0x5
 3346 00b9 49       		.uleb128 0x49
 3347 00ba 13       		.uleb128 0x13
 3348 00bb 38       		.uleb128 0x38
 3349 00bc 05       		.uleb128 0x5
 3350 00bd 00       		.byte	0
 3351 00be 00       		.byte	0
 3352 00bf 10       		.uleb128 0x10
 3353 00c0 34       		.uleb128 0x34
 3354 00c1 00       		.byte	0
 3355 00c2 03       		.uleb128 0x3
 3356 00c3 0E       		.uleb128 0xe
 3357 00c4 3A       		.uleb128 0x3a
 3358 00c5 0B       		.uleb128 0xb
 3359 00c6 3B       		.uleb128 0x3b
 3360 00c7 0B       		.uleb128 0xb
 3361 00c8 49       		.uleb128 0x49
 3362 00c9 13       		.uleb128 0x13
 3363 00ca 3F       		.uleb128 0x3f
 3364 00cb 19       		.uleb128 0x19
 3365 00cc 3C       		.uleb128 0x3c
 3366 00cd 19       		.uleb128 0x19
 3367 00ce 00       		.byte	0
 3368 00cf 00       		.byte	0
 3369 00d0 11       		.uleb128 0x11
 3370 00d1 0D       		.uleb128 0xd
 3371 00d2 00       		.byte	0
 3372 00d3 03       		.uleb128 0x3
 3373 00d4 08       		.uleb128 0x8
 3374 00d5 3A       		.uleb128 0x3a
 3375 00d6 0B       		.uleb128 0xb
 3376 00d7 3B       		.uleb128 0x3b
 3377 00d8 0B       		.uleb128 0xb
 3378 00d9 49       		.uleb128 0x49
 3379 00da 13       		.uleb128 0x13
 3380 00db 38       		.uleb128 0x38
 3381 00dc 0B       		.uleb128 0xb
 3382 00dd 00       		.byte	0
 3383 00de 00       		.byte	0
 3384 00df 12       		.uleb128 0x12
 3385 00e0 13       		.uleb128 0x13
 3386 00e1 01       		.byte	0x1
 3387 00e2 0B       		.uleb128 0xb
 3388 00e3 0B       		.uleb128 0xb
 3389 00e4 3A       		.uleb128 0x3a
 3390 00e5 0B       		.uleb128 0xb
 3391 00e6 3B       		.uleb128 0x3b
 3392 00e7 0B       		.uleb128 0xb
 3393 00e8 01       		.uleb128 0x1
 3394 00e9 13       		.uleb128 0x13
 3395 00ea 00       		.byte	0
 3396 00eb 00       		.byte	0
 3397 00ec 13       		.uleb128 0x13
 3398 00ed 13       		.uleb128 0x13
 3399 00ee 01       		.byte	0x1
ARM GAS  /tmp/ccKk1bt9.s 			page 61


 3400 00ef 0B       		.uleb128 0xb
 3401 00f0 05       		.uleb128 0x5
 3402 00f1 3A       		.uleb128 0x3a
 3403 00f2 0B       		.uleb128 0xb
 3404 00f3 3B       		.uleb128 0x3b
 3405 00f4 0B       		.uleb128 0xb
 3406 00f5 01       		.uleb128 0x1
 3407 00f6 13       		.uleb128 0x13
 3408 00f7 00       		.byte	0
 3409 00f8 00       		.byte	0
 3410 00f9 14       		.uleb128 0x14
 3411 00fa 01       		.uleb128 0x1
 3412 00fb 01       		.byte	0x1
 3413 00fc 49       		.uleb128 0x49
 3414 00fd 13       		.uleb128 0x13
 3415 00fe 01       		.uleb128 0x1
 3416 00ff 13       		.uleb128 0x13
 3417 0100 00       		.byte	0
 3418 0101 00       		.byte	0
 3419 0102 15       		.uleb128 0x15
 3420 0103 21       		.uleb128 0x21
 3421 0104 00       		.byte	0
 3422 0105 49       		.uleb128 0x49
 3423 0106 13       		.uleb128 0x13
 3424 0107 2F       		.uleb128 0x2f
 3425 0108 0B       		.uleb128 0xb
 3426 0109 00       		.byte	0
 3427 010a 00       		.byte	0
 3428 010b 16       		.uleb128 0x16
 3429 010c 17       		.uleb128 0x17
 3430 010d 01       		.byte	0x1
 3431 010e 0B       		.uleb128 0xb
 3432 010f 0B       		.uleb128 0xb
 3433 0110 3A       		.uleb128 0x3a
 3434 0111 0B       		.uleb128 0xb
 3435 0112 3B       		.uleb128 0x3b
 3436 0113 0B       		.uleb128 0xb
 3437 0114 01       		.uleb128 0x1
 3438 0115 13       		.uleb128 0x13
 3439 0116 00       		.byte	0
 3440 0117 00       		.byte	0
 3441 0118 17       		.uleb128 0x17
 3442 0119 0D       		.uleb128 0xd
 3443 011a 00       		.byte	0
 3444 011b 03       		.uleb128 0x3
 3445 011c 0E       		.uleb128 0xe
 3446 011d 3A       		.uleb128 0x3a
 3447 011e 0B       		.uleb128 0xb
 3448 011f 3B       		.uleb128 0x3b
 3449 0120 05       		.uleb128 0x5
 3450 0121 49       		.uleb128 0x49
 3451 0122 13       		.uleb128 0x13
 3452 0123 00       		.byte	0
 3453 0124 00       		.byte	0
 3454 0125 18       		.uleb128 0x18
 3455 0126 35       		.uleb128 0x35
 3456 0127 00       		.byte	0
ARM GAS  /tmp/ccKk1bt9.s 			page 62


 3457 0128 49       		.uleb128 0x49
 3458 0129 13       		.uleb128 0x13
 3459 012a 00       		.byte	0
 3460 012b 00       		.byte	0
 3461 012c 19       		.uleb128 0x19
 3462 012d 26       		.uleb128 0x26
 3463 012e 00       		.byte	0
 3464 012f 49       		.uleb128 0x49
 3465 0130 13       		.uleb128 0x13
 3466 0131 00       		.byte	0
 3467 0132 00       		.byte	0
 3468 0133 1A       		.uleb128 0x1a
 3469 0134 34       		.uleb128 0x34
 3470 0135 00       		.byte	0
 3471 0136 03       		.uleb128 0x3
 3472 0137 08       		.uleb128 0x8
 3473 0138 3A       		.uleb128 0x3a
 3474 0139 0B       		.uleb128 0xb
 3475 013a 3B       		.uleb128 0x3b
 3476 013b 05       		.uleb128 0x5
 3477 013c 49       		.uleb128 0x49
 3478 013d 13       		.uleb128 0x13
 3479 013e 3F       		.uleb128 0x3f
 3480 013f 19       		.uleb128 0x19
 3481 0140 3C       		.uleb128 0x3c
 3482 0141 19       		.uleb128 0x19
 3483 0142 00       		.byte	0
 3484 0143 00       		.byte	0
 3485 0144 1B       		.uleb128 0x1b
 3486 0145 2E       		.uleb128 0x2e
 3487 0146 01       		.byte	0x1
 3488 0147 3F       		.uleb128 0x3f
 3489 0148 19       		.uleb128 0x19
 3490 0149 03       		.uleb128 0x3
 3491 014a 0E       		.uleb128 0xe
 3492 014b 3A       		.uleb128 0x3a
 3493 014c 0B       		.uleb128 0xb
 3494 014d 3B       		.uleb128 0x3b
 3495 014e 05       		.uleb128 0x5
 3496 014f 27       		.uleb128 0x27
 3497 0150 19       		.uleb128 0x19
 3498 0151 49       		.uleb128 0x49
 3499 0152 13       		.uleb128 0x13
 3500 0153 11       		.uleb128 0x11
 3501 0154 01       		.uleb128 0x1
 3502 0155 12       		.uleb128 0x12
 3503 0156 06       		.uleb128 0x6
 3504 0157 40       		.uleb128 0x40
 3505 0158 18       		.uleb128 0x18
 3506 0159 9642     		.uleb128 0x2116
 3507 015b 19       		.uleb128 0x19
 3508 015c 01       		.uleb128 0x1
 3509 015d 13       		.uleb128 0x13
 3510 015e 00       		.byte	0
 3511 015f 00       		.byte	0
 3512 0160 1C       		.uleb128 0x1c
 3513 0161 05       		.uleb128 0x5
ARM GAS  /tmp/ccKk1bt9.s 			page 63


 3514 0162 00       		.byte	0
 3515 0163 03       		.uleb128 0x3
 3516 0164 08       		.uleb128 0x8
 3517 0165 3A       		.uleb128 0x3a
 3518 0166 0B       		.uleb128 0xb
 3519 0167 3B       		.uleb128 0x3b
 3520 0168 05       		.uleb128 0x5
 3521 0169 49       		.uleb128 0x49
 3522 016a 13       		.uleb128 0x13
 3523 016b 02       		.uleb128 0x2
 3524 016c 18       		.uleb128 0x18
 3525 016d 00       		.byte	0
 3526 016e 00       		.byte	0
 3527 016f 1D       		.uleb128 0x1d
 3528 0170 05       		.uleb128 0x5
 3529 0171 00       		.byte	0
 3530 0172 03       		.uleb128 0x3
 3531 0173 0E       		.uleb128 0xe
 3532 0174 3A       		.uleb128 0x3a
 3533 0175 0B       		.uleb128 0xb
 3534 0176 3B       		.uleb128 0x3b
 3535 0177 05       		.uleb128 0x5
 3536 0178 49       		.uleb128 0x49
 3537 0179 13       		.uleb128 0x13
 3538 017a 02       		.uleb128 0x2
 3539 017b 18       		.uleb128 0x18
 3540 017c 00       		.byte	0
 3541 017d 00       		.byte	0
 3542 017e 1E       		.uleb128 0x1e
 3543 017f 34       		.uleb128 0x34
 3544 0180 00       		.byte	0
 3545 0181 03       		.uleb128 0x3
 3546 0182 0E       		.uleb128 0xe
 3547 0183 49       		.uleb128 0x49
 3548 0184 13       		.uleb128 0x13
 3549 0185 34       		.uleb128 0x34
 3550 0186 19       		.uleb128 0x19
 3551 0187 02       		.uleb128 0x2
 3552 0188 18       		.uleb128 0x18
 3553 0189 00       		.byte	0
 3554 018a 00       		.byte	0
 3555 018b 1F       		.uleb128 0x1f
 3556 018c 34       		.uleb128 0x34
 3557 018d 00       		.byte	0
 3558 018e 03       		.uleb128 0x3
 3559 018f 0E       		.uleb128 0xe
 3560 0190 3A       		.uleb128 0x3a
 3561 0191 0B       		.uleb128 0xb
 3562 0192 3B       		.uleb128 0x3b
 3563 0193 05       		.uleb128 0x5
 3564 0194 49       		.uleb128 0x49
 3565 0195 13       		.uleb128 0x13
 3566 0196 02       		.uleb128 0x2
 3567 0197 18       		.uleb128 0x18
 3568 0198 00       		.byte	0
 3569 0199 00       		.byte	0
 3570 019a 20       		.uleb128 0x20
ARM GAS  /tmp/ccKk1bt9.s 			page 64


 3571 019b 2E       		.uleb128 0x2e
 3572 019c 01       		.byte	0x1
 3573 019d 3F       		.uleb128 0x3f
 3574 019e 19       		.uleb128 0x19
 3575 019f 03       		.uleb128 0x3
 3576 01a0 0E       		.uleb128 0xe
 3577 01a1 3A       		.uleb128 0x3a
 3578 01a2 0B       		.uleb128 0xb
 3579 01a3 3B       		.uleb128 0x3b
 3580 01a4 0B       		.uleb128 0xb
 3581 01a5 27       		.uleb128 0x27
 3582 01a6 19       		.uleb128 0x19
 3583 01a7 49       		.uleb128 0x49
 3584 01a8 13       		.uleb128 0x13
 3585 01a9 11       		.uleb128 0x11
 3586 01aa 01       		.uleb128 0x1
 3587 01ab 12       		.uleb128 0x12
 3588 01ac 06       		.uleb128 0x6
 3589 01ad 40       		.uleb128 0x40
 3590 01ae 18       		.uleb128 0x18
 3591 01af 9642     		.uleb128 0x2116
 3592 01b1 19       		.uleb128 0x19
 3593 01b2 01       		.uleb128 0x1
 3594 01b3 13       		.uleb128 0x13
 3595 01b4 00       		.byte	0
 3596 01b5 00       		.byte	0
 3597 01b6 21       		.uleb128 0x21
 3598 01b7 05       		.uleb128 0x5
 3599 01b8 00       		.byte	0
 3600 01b9 03       		.uleb128 0x3
 3601 01ba 08       		.uleb128 0x8
 3602 01bb 3A       		.uleb128 0x3a
 3603 01bc 0B       		.uleb128 0xb
 3604 01bd 3B       		.uleb128 0x3b
 3605 01be 0B       		.uleb128 0xb
 3606 01bf 49       		.uleb128 0x49
 3607 01c0 13       		.uleb128 0x13
 3608 01c1 02       		.uleb128 0x2
 3609 01c2 18       		.uleb128 0x18
 3610 01c3 00       		.byte	0
 3611 01c4 00       		.byte	0
 3612 01c5 22       		.uleb128 0x22
 3613 01c6 05       		.uleb128 0x5
 3614 01c7 00       		.byte	0
 3615 01c8 03       		.uleb128 0x3
 3616 01c9 0E       		.uleb128 0xe
 3617 01ca 3A       		.uleb128 0x3a
 3618 01cb 0B       		.uleb128 0xb
 3619 01cc 3B       		.uleb128 0x3b
 3620 01cd 0B       		.uleb128 0xb
 3621 01ce 49       		.uleb128 0x49
 3622 01cf 13       		.uleb128 0x13
 3623 01d0 02       		.uleb128 0x2
 3624 01d1 18       		.uleb128 0x18
 3625 01d2 00       		.byte	0
 3626 01d3 00       		.byte	0
 3627 01d4 23       		.uleb128 0x23
ARM GAS  /tmp/ccKk1bt9.s 			page 65


 3628 01d5 34       		.uleb128 0x34
 3629 01d6 00       		.byte	0
 3630 01d7 03       		.uleb128 0x3
 3631 01d8 0E       		.uleb128 0xe
 3632 01d9 3A       		.uleb128 0x3a
 3633 01da 0B       		.uleb128 0xb
 3634 01db 3B       		.uleb128 0x3b
 3635 01dc 0B       		.uleb128 0xb
 3636 01dd 49       		.uleb128 0x49
 3637 01de 13       		.uleb128 0x13
 3638 01df 02       		.uleb128 0x2
 3639 01e0 18       		.uleb128 0x18
 3640 01e1 00       		.byte	0
 3641 01e2 00       		.byte	0
 3642 01e3 24       		.uleb128 0x24
 3643 01e4 2E       		.uleb128 0x2e
 3644 01e5 01       		.byte	0x1
 3645 01e6 3F       		.uleb128 0x3f
 3646 01e7 19       		.uleb128 0x19
 3647 01e8 03       		.uleb128 0x3
 3648 01e9 0E       		.uleb128 0xe
 3649 01ea 3A       		.uleb128 0x3a
 3650 01eb 0B       		.uleb128 0xb
 3651 01ec 3B       		.uleb128 0x3b
 3652 01ed 0B       		.uleb128 0xb
 3653 01ee 27       		.uleb128 0x27
 3654 01ef 19       		.uleb128 0x19
 3655 01f0 11       		.uleb128 0x11
 3656 01f1 01       		.uleb128 0x1
 3657 01f2 12       		.uleb128 0x12
 3658 01f3 06       		.uleb128 0x6
 3659 01f4 40       		.uleb128 0x40
 3660 01f5 18       		.uleb128 0x18
 3661 01f6 9642     		.uleb128 0x2116
 3662 01f8 19       		.uleb128 0x19
 3663 01f9 01       		.uleb128 0x1
 3664 01fa 13       		.uleb128 0x13
 3665 01fb 00       		.byte	0
 3666 01fc 00       		.byte	0
 3667 01fd 25       		.uleb128 0x25
 3668 01fe 2E       		.uleb128 0x2e
 3669 01ff 01       		.byte	0x1
 3670 0200 03       		.uleb128 0x3
 3671 0201 0E       		.uleb128 0xe
 3672 0202 3A       		.uleb128 0x3a
 3673 0203 0B       		.uleb128 0xb
 3674 0204 3B       		.uleb128 0x3b
 3675 0205 0B       		.uleb128 0xb
 3676 0206 27       		.uleb128 0x27
 3677 0207 19       		.uleb128 0x19
 3678 0208 49       		.uleb128 0x49
 3679 0209 13       		.uleb128 0x13
 3680 020a 11       		.uleb128 0x11
 3681 020b 01       		.uleb128 0x1
 3682 020c 12       		.uleb128 0x12
 3683 020d 06       		.uleb128 0x6
 3684 020e 40       		.uleb128 0x40
ARM GAS  /tmp/ccKk1bt9.s 			page 66


 3685 020f 18       		.uleb128 0x18
 3686 0210 9642     		.uleb128 0x2116
 3687 0212 19       		.uleb128 0x19
 3688 0213 01       		.uleb128 0x1
 3689 0214 13       		.uleb128 0x13
 3690 0215 00       		.byte	0
 3691 0216 00       		.byte	0
 3692 0217 26       		.uleb128 0x26
 3693 0218 2E       		.uleb128 0x2e
 3694 0219 01       		.byte	0x1
 3695 021a 03       		.uleb128 0x3
 3696 021b 0E       		.uleb128 0xe
 3697 021c 3A       		.uleb128 0x3a
 3698 021d 0B       		.uleb128 0xb
 3699 021e 3B       		.uleb128 0x3b
 3700 021f 0B       		.uleb128 0xb
 3701 0220 27       		.uleb128 0x27
 3702 0221 19       		.uleb128 0x19
 3703 0222 49       		.uleb128 0x49
 3704 0223 13       		.uleb128 0x13
 3705 0224 11       		.uleb128 0x11
 3706 0225 01       		.uleb128 0x1
 3707 0226 12       		.uleb128 0x12
 3708 0227 06       		.uleb128 0x6
 3709 0228 40       		.uleb128 0x40
 3710 0229 18       		.uleb128 0x18
 3711 022a 9742     		.uleb128 0x2117
 3712 022c 19       		.uleb128 0x19
 3713 022d 01       		.uleb128 0x1
 3714 022e 13       		.uleb128 0x13
 3715 022f 00       		.byte	0
 3716 0230 00       		.byte	0
 3717 0231 27       		.uleb128 0x27
 3718 0232 2E       		.uleb128 0x2e
 3719 0233 01       		.byte	0x1
 3720 0234 03       		.uleb128 0x3
 3721 0235 0E       		.uleb128 0xe
 3722 0236 3A       		.uleb128 0x3a
 3723 0237 0B       		.uleb128 0xb
 3724 0238 3B       		.uleb128 0x3b
 3725 0239 05       		.uleb128 0x5
 3726 023a 27       		.uleb128 0x27
 3727 023b 19       		.uleb128 0x19
 3728 023c 11       		.uleb128 0x11
 3729 023d 01       		.uleb128 0x1
 3730 023e 12       		.uleb128 0x12
 3731 023f 06       		.uleb128 0x6
 3732 0240 40       		.uleb128 0x40
 3733 0241 18       		.uleb128 0x18
 3734 0242 9642     		.uleb128 0x2116
 3735 0244 19       		.uleb128 0x19
 3736 0245 01       		.uleb128 0x1
 3737 0246 13       		.uleb128 0x13
 3738 0247 00       		.byte	0
 3739 0248 00       		.byte	0
 3740 0249 28       		.uleb128 0x28
 3741 024a 2E       		.uleb128 0x2e
ARM GAS  /tmp/ccKk1bt9.s 			page 67


 3742 024b 00       		.byte	0
 3743 024c 03       		.uleb128 0x3
 3744 024d 0E       		.uleb128 0xe
 3745 024e 3A       		.uleb128 0x3a
 3746 024f 0B       		.uleb128 0xb
 3747 0250 3B       		.uleb128 0x3b
 3748 0251 05       		.uleb128 0x5
 3749 0252 27       		.uleb128 0x27
 3750 0253 19       		.uleb128 0x19
 3751 0254 11       		.uleb128 0x11
 3752 0255 01       		.uleb128 0x1
 3753 0256 12       		.uleb128 0x12
 3754 0257 06       		.uleb128 0x6
 3755 0258 40       		.uleb128 0x40
 3756 0259 18       		.uleb128 0x18
 3757 025a 9642     		.uleb128 0x2116
 3758 025c 19       		.uleb128 0x19
 3759 025d 00       		.byte	0
 3760 025e 00       		.byte	0
 3761 025f 29       		.uleb128 0x29
 3762 0260 2E       		.uleb128 0x2e
 3763 0261 01       		.byte	0x1
 3764 0262 03       		.uleb128 0x3
 3765 0263 0E       		.uleb128 0xe
 3766 0264 3A       		.uleb128 0x3a
 3767 0265 0B       		.uleb128 0xb
 3768 0266 3B       		.uleb128 0x3b
 3769 0267 05       		.uleb128 0x5
 3770 0268 27       		.uleb128 0x27
 3771 0269 19       		.uleb128 0x19
 3772 026a 11       		.uleb128 0x11
 3773 026b 01       		.uleb128 0x1
 3774 026c 12       		.uleb128 0x12
 3775 026d 06       		.uleb128 0x6
 3776 026e 40       		.uleb128 0x40
 3777 026f 18       		.uleb128 0x18
 3778 0270 9742     		.uleb128 0x2117
 3779 0272 19       		.uleb128 0x19
 3780 0273 01       		.uleb128 0x1
 3781 0274 13       		.uleb128 0x13
 3782 0275 00       		.byte	0
 3783 0276 00       		.byte	0
 3784 0277 2A       		.uleb128 0x2a
 3785 0278 1D       		.uleb128 0x1d
 3786 0279 00       		.byte	0
 3787 027a 31       		.uleb128 0x31
 3788 027b 13       		.uleb128 0x13
 3789 027c 11       		.uleb128 0x11
 3790 027d 01       		.uleb128 0x1
 3791 027e 12       		.uleb128 0x12
 3792 027f 06       		.uleb128 0x6
 3793 0280 58       		.uleb128 0x58
 3794 0281 0B       		.uleb128 0xb
 3795 0282 59       		.uleb128 0x59
 3796 0283 05       		.uleb128 0x5
 3797 0284 00       		.byte	0
 3798 0285 00       		.byte	0
ARM GAS  /tmp/ccKk1bt9.s 			page 68


 3799 0286 2B       		.uleb128 0x2b
 3800 0287 2E       		.uleb128 0x2e
 3801 0288 00       		.byte	0
 3802 0289 03       		.uleb128 0x3
 3803 028a 0E       		.uleb128 0xe
 3804 028b 3A       		.uleb128 0x3a
 3805 028c 0B       		.uleb128 0xb
 3806 028d 3B       		.uleb128 0x3b
 3807 028e 05       		.uleb128 0x5
 3808 028f 27       		.uleb128 0x27
 3809 0290 19       		.uleb128 0x19
 3810 0291 20       		.uleb128 0x20
 3811 0292 0B       		.uleb128 0xb
 3812 0293 00       		.byte	0
 3813 0294 00       		.byte	0
 3814 0295 00       		.byte	0
 3815              		.section	.debug_aranges,"",%progbits
 3816 0000 BC000000 		.4byte	0xbc
 3817 0004 0200     		.2byte	0x2
 3818 0006 00000000 		.4byte	.Ldebug_info0
 3819 000a 04       		.byte	0x4
 3820 000b 00       		.byte	0
 3821 000c 0000     		.2byte	0
 3822 000e 0000     		.2byte	0
 3823 0010 00000000 		.4byte	.LFB38
 3824 0014 06000000 		.4byte	.LFE38-.LFB38
 3825 0018 00000000 		.4byte	.LFB39
 3826 001c 06000000 		.4byte	.LFE39-.LFB39
 3827 0020 00000000 		.4byte	.LFB60
 3828 0024 16000000 		.4byte	.LFE60-.LFB60
 3829 0028 00000000 		.4byte	.LFB77
 3830 002c 0E000000 		.4byte	.LFE77-.LFB77
 3831 0030 00000000 		.4byte	.LFB78
 3832 0034 38000000 		.4byte	.LFE78-.LFB78
 3833 0038 00000000 		.4byte	.LFB105
 3834 003c 14000000 		.4byte	.LFE105-.LFB105
 3835 0040 00000000 		.4byte	.LFB135
 3836 0044 18000000 		.4byte	.LFE135-.LFB135
 3837 0048 00000000 		.4byte	.LFB136
 3838 004c 14000000 		.4byte	.LFE136-.LFB136
 3839 0050 00000000 		.4byte	.LFB137
 3840 0054 26000000 		.4byte	.LFE137-.LFB137
 3841 0058 00000000 		.4byte	.LFB152
 3842 005c 6C000000 		.4byte	.LFE152-.LFB152
 3843 0060 00000000 		.4byte	.LFB153
 3844 0064 20000000 		.4byte	.LFE153-.LFB153
 3845 0068 00000000 		.4byte	.LFB154
 3846 006c 64000000 		.4byte	.LFE154-.LFB154
 3847 0070 00000000 		.4byte	.LFB155
 3848 0074 32000000 		.4byte	.LFE155-.LFB155
 3849 0078 00000000 		.4byte	.LFB156
 3850 007c A4000000 		.4byte	.LFE156-.LFB156
 3851 0080 00000000 		.4byte	.LFB157
 3852 0084 80000000 		.4byte	.LFE157-.LFB157
 3853 0088 00000000 		.4byte	.LFB158
 3854 008c 32000000 		.4byte	.LFE158-.LFB158
 3855 0090 00000000 		.4byte	.LFB159
ARM GAS  /tmp/ccKk1bt9.s 			page 69


 3856 0094 AC000000 		.4byte	.LFE159-.LFB159
 3857 0098 00000000 		.4byte	.LFB160
 3858 009c 84000000 		.4byte	.LFE160-.LFB160
 3859 00a0 00000000 		.4byte	.LFB161
 3860 00a4 32000000 		.4byte	.LFE161-.LFB161
 3861 00a8 00000000 		.4byte	.LFB162
 3862 00ac AC000000 		.4byte	.LFE162-.LFB162
 3863 00b0 00000000 		.4byte	.LFB163
 3864 00b4 88000000 		.4byte	.LFE163-.LFB163
 3865 00b8 00000000 		.4byte	0
 3866 00bc 00000000 		.4byte	0
 3867              		.section	.debug_ranges,"",%progbits
 3868              	.Ldebug_ranges0:
 3869 0000 00000000 		.4byte	.LFB38
 3870 0004 06000000 		.4byte	.LFE38
 3871 0008 00000000 		.4byte	.LFB39
 3872 000c 06000000 		.4byte	.LFE39
 3873 0010 00000000 		.4byte	.LFB60
 3874 0014 16000000 		.4byte	.LFE60
 3875 0018 00000000 		.4byte	.LFB77
 3876 001c 0E000000 		.4byte	.LFE77
 3877 0020 00000000 		.4byte	.LFB78
 3878 0024 38000000 		.4byte	.LFE78
 3879 0028 00000000 		.4byte	.LFB105
 3880 002c 14000000 		.4byte	.LFE105
 3881 0030 00000000 		.4byte	.LFB135
 3882 0034 18000000 		.4byte	.LFE135
 3883 0038 00000000 		.4byte	.LFB136
 3884 003c 14000000 		.4byte	.LFE136
 3885 0040 00000000 		.4byte	.LFB137
 3886 0044 26000000 		.4byte	.LFE137
 3887 0048 00000000 		.4byte	.LFB152
 3888 004c 6C000000 		.4byte	.LFE152
 3889 0050 00000000 		.4byte	.LFB153
 3890 0054 20000000 		.4byte	.LFE153
 3891 0058 00000000 		.4byte	.LFB154
 3892 005c 64000000 		.4byte	.LFE154
 3893 0060 00000000 		.4byte	.LFB155
 3894 0064 32000000 		.4byte	.LFE155
 3895 0068 00000000 		.4byte	.LFB156
 3896 006c A4000000 		.4byte	.LFE156
 3897 0070 00000000 		.4byte	.LFB157
 3898 0074 80000000 		.4byte	.LFE157
 3899 0078 00000000 		.4byte	.LFB158
 3900 007c 32000000 		.4byte	.LFE158
 3901 0080 00000000 		.4byte	.LFB159
 3902 0084 AC000000 		.4byte	.LFE159
 3903 0088 00000000 		.4byte	.LFB160
 3904 008c 84000000 		.4byte	.LFE160
 3905 0090 00000000 		.4byte	.LFB161
 3906 0094 32000000 		.4byte	.LFE161
 3907 0098 00000000 		.4byte	.LFB162
 3908 009c AC000000 		.4byte	.LFE162
 3909 00a0 00000000 		.4byte	.LFB163
 3910 00a4 88000000 		.4byte	.LFE163
 3911 00a8 00000000 		.4byte	0
 3912 00ac 00000000 		.4byte	0
ARM GAS  /tmp/ccKk1bt9.s 			page 70


 3913              		.section	.debug_line,"",%progbits
 3914              	.Ldebug_line0:
 3915 0000 CC040000 		.section	.debug_str,"MS",%progbits,1
 3915      02005202 
 3915      00000201 
 3915      FB0E0D00 
 3915      01010101 
 3916              	.LASF50:
 3917 0000 63685F74 		.ascii	"ch_threads_list\000"
 3917      68726561 
 3917      64735F6C 
 3917      69737400 
 3918              	.LASF51:
 3919 0010 74687265 		.ascii	"threads_queue_t\000"
 3919      6164735F 
 3919      71756575 
 3919      655F7400 
 3920              	.LASF40:
 3921 0020 705F7761 		.ascii	"p_waiting\000"
 3921      6974696E 
 3921      6700
 3922              	.LASF113:
 3923 002a 53797374 		.ascii	"SystemCoreClock\000"
 3923      656D436F 
 3923      7265436C 
 3923      6F636B00 
 3924              	.LASF103:
 3925 003a 77746D74 		.ascii	"wtmtxp\000"
 3925      787000
 3926              	.LASF112:
 3927 0041 63686172 		.ascii	"char\000"
 3927      00
 3928              	.LASF85:
 3929 0046 72656761 		.ascii	"regarm_t\000"
 3929      726D5F74 
 3929      00
 3930              	.LASF31:
 3931 004f 705F7072 		.ascii	"p_prio\000"
 3931      696F00
 3932              	.LASF27:
 3933 0056 73797374 		.ascii	"systime_t\000"
 3933      696D655F 
 3933      7400
 3934              	.LASF124:
 3935 0060 63665F6F 		.ascii	"cf_off_older\000"
 3935      66665F6F 
 3935      6C646572 
 3935      00
 3936              	.LASF110:
 3937 006d 6D5F6F77 		.ascii	"m_owner\000"
 3937      6E657200 
 3938              	.LASF106:
 3939 0075 735F7175 		.ascii	"s_queue\000"
 3939      65756500 
 3940              	.LASF41:
 3941 007d 705F6D73 		.ascii	"p_msgqueue\000"
 3941      67717565 
ARM GAS  /tmp/ccKk1bt9.s 			page 71


 3941      756500
 3942              	.LASF0:
 3943 0088 756E7369 		.ascii	"unsigned int\000"
 3943      676E6564 
 3943      20696E74 
 3943      00
 3944              	.LASF48:
 3945 0095 74687265 		.ascii	"threads_list_t\000"
 3945      6164735F 
 3945      6C697374 
 3945      5F7400
 3946              	.LASF9:
 3947 00a4 5F5F696E 		.ascii	"__int32_t\000"
 3947      7433325F 
 3947      7400
 3948              	.LASF92:
 3949 00ae 73655F73 		.ascii	"se_state\000"
 3949      74617465 
 3949      00
 3950              	.LASF125:
 3951 00b7 63665F6F 		.ascii	"cf_off_name\000"
 3951      66665F6E 
 3951      616D6500 
 3952              	.LASF100:
 3953 00c3 77746F62 		.ascii	"wtobjp\000"
 3953      6A7000
 3954              	.LASF167:
 3955 00ca 706F7274 		.ascii	"port_lock\000"
 3955      5F6C6F63 
 3955      6B00
 3956              	.LASF81:
 3957 00d4 76746C69 		.ascii	"vtlist\000"
 3957      737400
 3958              	.LASF54:
 3959 00db 63685F72 		.ascii	"ch_ready_list\000"
 3959      65616479 
 3959      5F6C6973 
 3959      7400
 3960              	.LASF140:
 3961 00e9 6D625F72 		.ascii	"mb_reset\000"
 3961      65736574 
 3961      00
 3962              	.LASF83:
 3963 00f2 69646C65 		.ascii	"idle_thread_wa\000"
 3963      5F746872 
 3963      6561645F 
 3963      776100
 3964              	.LASF163:
 3965 0101 63685468 		.ascii	"chThdQueueObjectInit\000"
 3965      64517565 
 3965      75654F62 
 3965      6A656374 
 3965      496E6974 
 3966              	.LASF104:
 3967 0116 65776D61 		.ascii	"ewmask\000"
 3967      736B00
 3968              	.LASF128:
ARM GAS  /tmp/ccKk1bt9.s 			page 72


 3969 011d 63665F6F 		.ascii	"cf_off_flags\000"
 3969      66665F66 
 3969      6C616773 
 3969      00
 3970              	.LASF52:
 3971 012a 63685F74 		.ascii	"ch_threads_queue\000"
 3971      68726561 
 3971      64735F71 
 3971      75657565 
 3971      00
 3972              	.LASF118:
 3973 013b 63685F70 		.ascii	"ch_ptrsize\000"
 3973      74727369 
 3973      7A6500
 3974              	.LASF161:
 3975 0146 63684D42 		.ascii	"chMBGetUsedCountI\000"
 3975      47657455 
 3975      73656443 
 3975      6F756E74 
 3975      4900
 3976              	.LASF61:
 3977 0158 76746675 		.ascii	"vtfunc_t\000"
 3977      6E635F74 
 3977      00
 3978              	.LASF107:
 3979 0161 735F636E 		.ascii	"s_cnt\000"
 3979      7400
 3980              	.LASF73:
 3981 0167 63685F73 		.ascii	"ch_system_debug\000"
 3981      79737465 
 3981      6D5F6465 
 3981      62756700 
 3982              	.LASF162:
 3983 0177 63684D42 		.ascii	"chMBGetSizeI\000"
 3983      47657453 
 3983      697A6549 
 3983      00
 3984              	.LASF158:
 3985 0184 63684D42 		.ascii	"chMBReset\000"
 3985      52657365 
 3985      7400
 3986              	.LASF172:
 3987 018e 2F686F6D 		.ascii	"/home/felix/esho/Ultrasound/\000"
 3987      652F6665 
 3987      6C69782F 
 3987      6573686F 
 3987      2F556C74 
 3988              	.LASF18:
 3989 01ab 75696E74 		.ascii	"uint32_t\000"
 3989      33325F74 
 3989      00
 3990              	.LASF119:
 3991 01b4 63685F74 		.ascii	"ch_timesize\000"
 3991      696D6573 
 3991      697A6500 
 3992              	.LASF25:
 3993 01c0 6576656E 		.ascii	"eventmask_t\000"
ARM GAS  /tmp/ccKk1bt9.s 			page 73


 3993      746D6173 
 3993      6B5F7400 
 3994              	.LASF56:
 3995 01cc 725F7072 		.ascii	"r_prio\000"
 3995      696F00
 3996              	.LASF68:
 3997 01d3 76745F70 		.ascii	"vt_par\000"
 3997      617200
 3998              	.LASF105:
 3999 01da 63685F73 		.ascii	"ch_semaphore\000"
 3999      656D6170 
 3999      686F7265 
 3999      00
 4000              	.LASF23:
 4001 01e7 74707269 		.ascii	"tprio_t\000"
 4001      6F5F7400 
 4002              	.LASF63:
 4003 01ef 63685F76 		.ascii	"ch_virtual_timer\000"
 4003      69727475 
 4003      616C5F74 
 4003      696D6572 
 4003      00
 4004              	.LASF14:
 4005 0200 6C6F6E67 		.ascii	"long long unsigned int\000"
 4005      206C6F6E 
 4005      6720756E 
 4005      7369676E 
 4005      65642069 
 4006              	.LASF91:
 4007 0217 73655F77 		.ascii	"se_wtobjp\000"
 4007      746F626A 
 4007      7000
 4008              	.LASF77:
 4009 0221 74726163 		.ascii	"trace_buffer\000"
 4009      655F6275 
 4009      66666572 
 4009      00
 4010              	.LASF7:
 4011 022e 5F5F7569 		.ascii	"__uint16_t\000"
 4011      6E743136 
 4011      5F7400
 4012              	.LASF26:
 4013 0239 636E745F 		.ascii	"cnt_t\000"
 4013      7400
 4014              	.LASF164:
 4015 023f 63685379 		.ascii	"chSysUnlock\000"
 4015      73556E6C 
 4015      6F636B00 
 4016              	.LASF75:
 4017 024b 6973725F 		.ascii	"isr_cnt\000"
 4017      636E7400 
 4018              	.LASF33:
 4019 0253 705F6E65 		.ascii	"p_newer\000"
 4019      77657200 
 4020              	.LASF70:
 4021 025b 63685F76 		.ascii	"ch_virtual_timers_list\000"
 4021      69727475 
ARM GAS  /tmp/ccKk1bt9.s 			page 74


 4021      616C5F74 
 4021      696D6572 
 4021      735F6C69 
 4022              	.LASF89:
 4023 0272 73655F74 		.ascii	"se_time\000"
 4023      696D6500 
 4024              	.LASF28:
 4025 027a 74687265 		.ascii	"thread_t\000"
 4025      61645F74 
 4025      00
 4026              	.LASF98:
 4027 0283 7264796D 		.ascii	"rdymsg\000"
 4027      736700
 4028              	.LASF120:
 4029 028a 63685F74 		.ascii	"ch_threadsize\000"
 4029      68726561 
 4029      6473697A 
 4029      6500
 4030              	.LASF168:
 4031 0298 5F5F6469 		.ascii	"__disable_irq\000"
 4031      7361626C 
 4031      655F6972 
 4031      7100
 4032              	.LASF130:
 4033 02a6 63665F6F 		.ascii	"cf_off_preempt\000"
 4033      66665F70 
 4033      7265656D 
 4033      707400
 4034              	.LASF143:
 4035 02b5 5F426F6F 		.ascii	"_Bool\000"
 4035      6C00
 4036              	.LASF138:
 4037 02bb 6D625F72 		.ascii	"mb_rdptr\000"
 4037      64707472 
 4037      00
 4038              	.LASF151:
 4039 02c4 63684D42 		.ascii	"chMBPostAheadI\000"
 4039      506F7374 
 4039      41686561 
 4039      644900
 4040              	.LASF144:
 4041 02d3 6D61696C 		.ascii	"mailbox_t\000"
 4041      626F785F 
 4041      7400
 4042              	.LASF170:
 4043 02dd 474E5520 		.ascii	"GNU C11 6.3.1 20170215 (release) [ARM/embedded-6-br"
 4043      43313120 
 4043      362E332E 
 4043      31203230 
 4043      31373032 
 4044 0310 616E6368 		.ascii	"anch revision 245512] -mcpu=cortex-m0 -mno-thumb-in"
 4044      20726576 
 4044      6973696F 
 4044      6E203234 
 4044      35353132 
 4045 0343 74657277 		.ascii	"terwork -mthumb -ggdb -O0 -fomit-frame-pointer -fal"
 4045      6F726B20 
ARM GAS  /tmp/ccKk1bt9.s 			page 75


 4045      2D6D7468 
 4045      756D6220 
 4045      2D676764 
 4046 0376 69676E2D 		.ascii	"ign-functions=16 -ffunction-sections -fdata-section"
 4046      66756E63 
 4046      74696F6E 
 4046      733D3136 
 4046      202D6666 
 4047 03a9 7300     		.ascii	"s\000"
 4048              	.LASF152:
 4049 03ab 63684D42 		.ascii	"chMBPostAheadS\000"
 4049      506F7374 
 4049      41686561 
 4049      645300
 4050              	.LASF108:
 4051 03ba 63685F6D 		.ascii	"ch_mutex\000"
 4051      75746578 
 4051      00
 4052              	.LASF13:
 4053 03c3 5F5F7569 		.ascii	"__uint64_t\000"
 4053      6E743634 
 4053      5F7400
 4054              	.LASF173:
 4055 03ce 63685379 		.ascii	"chSysLock\000"
 4055      734C6F63 
 4055      6B00
 4056              	.LASF122:
 4057 03d8 63665F6F 		.ascii	"cf_off_ctx\000"
 4057      66665F63 
 4057      747800
 4058              	.LASF126:
 4059 03e3 63665F6F 		.ascii	"cf_off_stklimit\000"
 4059      66665F73 
 4059      746B6C69 
 4059      6D697400 
 4060              	.LASF35:
 4061 03f3 705F6E61 		.ascii	"p_name\000"
 4061      6D6500
 4062              	.LASF147:
 4063 03fa 63684D42 		.ascii	"chMBFetchS\000"
 4063      46657463 
 4063      685300
 4064              	.LASF66:
 4065 0405 76745F64 		.ascii	"vt_delta\000"
 4065      656C7461 
 4065      00
 4066              	.LASF47:
 4067 040e 74687265 		.ascii	"thread_reference_t\000"
 4067      61645F72 
 4067      65666572 
 4067      656E6365 
 4067      5F7400
 4068              	.LASF71:
 4069 0421 76745F6C 		.ascii	"vt_lasttime\000"
 4069      61737474 
 4069      696D6500 
 4070              	.LASF21:
ARM GAS  /tmp/ccKk1bt9.s 			page 76


 4071 042d 74737461 		.ascii	"tstate_t\000"
 4071      74655F74 
 4071      00
 4072              	.LASF90:
 4073 0436 73655F74 		.ascii	"se_tp\000"
 4073      7000
 4074              	.LASF34:
 4075 043c 705F6F6C 		.ascii	"p_older\000"
 4075      64657200 
 4076              	.LASF37:
 4077 0444 705F7374 		.ascii	"p_state\000"
 4077      61746500 
 4078              	.LASF36:
 4079 044c 705F7374 		.ascii	"p_stklimit\000"
 4079      6B6C696D 
 4079      697400
 4080              	.LASF15:
 4081 0457 75696E74 		.ascii	"uint8_t\000"
 4081      385F7400 
 4082              	.LASF96:
 4083 045f 74625F62 		.ascii	"tb_buffer\000"
 4083      75666665 
 4083      7200
 4084              	.LASF46:
 4085 0469 705F6D70 		.ascii	"p_mpool\000"
 4085      6F6F6C00 
 4086              	.LASF44:
 4087 0471 705F6D74 		.ascii	"p_mtxlist\000"
 4087      786C6973 
 4087      7400
 4088              	.LASF49:
 4089 047b 63685F74 		.ascii	"ch_thread\000"
 4089      68726561 
 4089      6400
 4090              	.LASF94:
 4091 0485 74625F73 		.ascii	"tb_size\000"
 4091      697A6500 
 4092              	.LASF72:
 4093 048d 73797374 		.ascii	"system_debug_t\000"
 4093      656D5F64 
 4093      65627567 
 4093      5F7400
 4094              	.LASF1:
 4095 049c 6C6F6E67 		.ascii	"long long int\000"
 4095      206C6F6E 
 4095      6720696E 
 4095      7400
 4096              	.LASF159:
 4097 04aa 63684D42 		.ascii	"chMBObjectInit\000"
 4097      4F626A65 
 4097      6374496E 
 4097      697400
 4098              	.LASF55:
 4099 04b9 725F7175 		.ascii	"r_queue\000"
 4099      65756500 
 4100              	.LASF58:
 4101 04c1 725F6E65 		.ascii	"r_newer\000"
ARM GAS  /tmp/ccKk1bt9.s 			page 77


 4101      77657200 
 4102              	.LASF24:
 4103 04c9 6D73675F 		.ascii	"msg_t\000"
 4103      7400
 4104              	.LASF87:
 4105 04cf 636F6E74 		.ascii	"context\000"
 4105      65787400 
 4106              	.LASF38:
 4107 04d7 705F666C 		.ascii	"p_flags\000"
 4107      61677300 
 4108              	.LASF62:
 4109 04df 76697274 		.ascii	"virtual_timer_t\000"
 4109      75616C5F 
 4109      74696D65 
 4109      725F7400 
 4110              	.LASF129:
 4111 04ef 63665F6F 		.ascii	"cf_off_refs\000"
 4111      66665F72 
 4111      65667300 
 4112              	.LASF115:
 4113 04fb 63685F7A 		.ascii	"ch_zero\000"
 4113      65726F00 
 4114              	.LASF136:
 4115 0503 6D625F74 		.ascii	"mb_top\000"
 4115      6F7000
 4116              	.LASF95:
 4117 050a 74625F70 		.ascii	"tb_ptr\000"
 4117      747200
 4118              	.LASF59:
 4119 0511 725F6F6C 		.ascii	"r_older\000"
 4119      64657200 
 4120              	.LASF74:
 4121 0519 70616E69 		.ascii	"panic_msg\000"
 4121      635F6D73 
 4121      6700
 4122              	.LASF154:
 4123 0523 63684D42 		.ascii	"chMBPostI\000"
 4123      506F7374 
 4123      4900
 4124              	.LASF146:
 4125 052d 63684D42 		.ascii	"chMBFetchI\000"
 4125      46657463 
 4125      684900
 4126              	.LASF42:
 4127 0538 705F6D73 		.ascii	"p_msg\000"
 4127      6700
 4128              	.LASF155:
 4129 053e 63684D42 		.ascii	"chMBPostS\000"
 4129      506F7374 
 4129      5300
 4130              	.LASF20:
 4131 0548 746D6F64 		.ascii	"tmode_t\000"
 4131      655F7400 
 4132              	.LASF116:
 4133 0550 63685F73 		.ascii	"ch_size\000"
 4133      697A6500 
 4134              	.LASF82:
ARM GAS  /tmp/ccKk1bt9.s 			page 78


 4135 0558 6D61696E 		.ascii	"mainthread\000"
 4135      74687265 
 4135      616400
 4136              	.LASF153:
 4137 0563 63684D42 		.ascii	"chMBPostAhead\000"
 4137      506F7374 
 4137      41686561 
 4137      6400
 4138              	.LASF2:
 4139 0571 6C6F6E67 		.ascii	"long double\000"
 4139      20646F75 
 4139      626C6500 
 4140              	.LASF150:
 4141 057d 63684D42 		.ascii	"chMBFetch\000"
 4141      46657463 
 4141      6800
 4142              	.LASF16:
 4143 0587 75696E74 		.ascii	"uint16_t\000"
 4143      31365F74 
 4143      00
 4144              	.LASF132:
 4145 0590 63686465 		.ascii	"chdebug_t\000"
 4145      6275675F 
 4145      7400
 4146              	.LASF76:
 4147 059a 6C6F636B 		.ascii	"lock_cnt\000"
 4147      5F636E74 
 4147      00
 4148              	.LASF45:
 4149 05a3 705F7265 		.ascii	"p_realprio\000"
 4149      616C7072 
 4149      696F00
 4150              	.LASF117:
 4151 05ae 63685F76 		.ascii	"ch_version\000"
 4151      65727369 
 4151      6F6E00
 4152              	.LASF5:
 4153 05b9 73686F72 		.ascii	"short int\000"
 4153      7420696E 
 4153      7400
 4154              	.LASF137:
 4155 05c3 6D625F77 		.ascii	"mb_wrptr\000"
 4155      72707472 
 4155      00
 4156              	.LASF60:
 4157 05cc 725F6375 		.ascii	"r_current\000"
 4157      7272656E 
 4157      7400
 4158              	.LASF43:
 4159 05d6 705F6570 		.ascii	"p_epending\000"
 4159      656E6469 
 4159      6E6700
 4160              	.LASF109:
 4161 05e1 6D5F7175 		.ascii	"m_queue\000"
 4161      65756500 
 4162              	.LASF10:
 4163 05e9 6C6F6E67 		.ascii	"long int\000"
ARM GAS  /tmp/ccKk1bt9.s 			page 79


 4163      20696E74 
 4163      00
 4164              	.LASF88:
 4165 05f2 706F7274 		.ascii	"port_intctx\000"
 4165      5F696E74 
 4165      63747800 
 4166              	.LASF169:
 4167 05fe 5F5F656E 		.ascii	"__enable_irq\000"
 4167      61626C65 
 4167      5F697271 
 4167      00
 4168              	.LASF79:
 4169 060b 63685F73 		.ascii	"ch_system\000"
 4169      79737465 
 4169      6D00
 4170              	.LASF142:
 4171 0615 6D625F71 		.ascii	"mb_qr\000"
 4171      7200
 4172              	.LASF141:
 4173 061b 6D625F71 		.ascii	"mb_qw\000"
 4173      7700
 4174              	.LASF29:
 4175 0621 705F6E65 		.ascii	"p_next\000"
 4175      787400
 4176              	.LASF19:
 4177 0628 75696E74 		.ascii	"uint64_t\000"
 4177      36345F74 
 4177      00
 4178              	.LASF32:
 4179 0631 705F6374 		.ascii	"p_ctx\000"
 4179      7800
 4180              	.LASF80:
 4181 0637 726C6973 		.ascii	"rlist\000"
 4181      7400
 4182              	.LASF131:
 4183 063d 63665F6F 		.ascii	"cf_off_time\000"
 4183      66665F74 
 4183      696D6500 
 4184              	.LASF121:
 4185 0649 63665F6F 		.ascii	"cf_off_prio\000"
 4185      66665F70 
 4185      72696F00 
 4186              	.LASF6:
 4187 0655 5F5F7569 		.ascii	"__uint8_t\000"
 4187      6E74385F 
 4187      7400
 4188              	.LASF139:
 4189 065f 6D625F63 		.ascii	"mb_cnt\000"
 4189      6E7400
 4190              	.LASF114:
 4191 0666 63685F69 		.ascii	"ch_identifier\000"
 4191      64656E74 
 4191      69666965 
 4191      7200
 4192              	.LASF30:
 4193 0674 705F7072 		.ascii	"p_prev\000"
 4193      657600
ARM GAS  /tmp/ccKk1bt9.s 			page 80


 4194              	.LASF84:
 4195 067b 73697A65 		.ascii	"sizetype\000"
 4195      74797065 
 4195      00
 4196              	.LASF22:
 4197 0684 74726566 		.ascii	"trefs_t\000"
 4197      735F7400 
 4198              	.LASF12:
 4199 068c 6C6F6E67 		.ascii	"long unsigned int\000"
 4199      20756E73 
 4199      69676E65 
 4199      6420696E 
 4199      7400
 4200              	.LASF135:
 4201 069e 6D625F62 		.ascii	"mb_buffer\000"
 4201      75666665 
 4201      7200
 4202              	.LASF127:
 4203 06a8 63665F6F 		.ascii	"cf_off_state\000"
 4203      66665F73 
 4203      74617465 
 4203      00
 4204              	.LASF53:
 4205 06b5 72656164 		.ascii	"ready_list_t\000"
 4205      795F6C69 
 4205      73745F74 
 4205      00
 4206              	.LASF17:
 4207 06c2 696E7433 		.ascii	"int32_t\000"
 4207      325F7400 
 4208              	.LASF171:
 4209 06ca 43686962 		.ascii	"ChibiOS/os/rt/src/chmboxes.c\000"
 4209      694F532F 
 4209      6F732F72 
 4209      742F7372 
 4209      632F6368 
 4210              	.LASF102:
 4211 06e7 77747365 		.ascii	"wtsemp\000"
 4211      6D7000
 4212              	.LASF93:
 4213 06ee 63685F73 		.ascii	"ch_swc_event_t\000"
 4213      77635F65 
 4213      76656E74 
 4213      5F7400
 4214              	.LASF134:
 4215 06fd 6D757465 		.ascii	"mutex_t\000"
 4215      785F7400 
 4216              	.LASF165:
 4217 0705 71756575 		.ascii	"queue_init\000"
 4217      655F696E 
 4217      697400
 4218              	.LASF4:
 4219 0710 756E7369 		.ascii	"unsigned char\000"
 4219      676E6564 
 4219      20636861 
 4219      7200
 4220              	.LASF11:
ARM GAS  /tmp/ccKk1bt9.s 			page 81


 4221 071e 5F5F7569 		.ascii	"__uint32_t\000"
 4221      6E743332 
 4221      5F7400
 4222              	.LASF69:
 4223 0729 76697274 		.ascii	"virtual_timers_list_t\000"
 4223      75616C5F 
 4223      74696D65 
 4223      72735F6C 
 4223      6973745F 
 4224              	.LASF39:
 4225 073f 705F7265 		.ascii	"p_refs\000"
 4225      667300
 4226              	.LASF148:
 4227 0746 74696D65 		.ascii	"timeout\000"
 4227      6F757400 
 4228              	.LASF157:
 4229 074e 63684D42 		.ascii	"chMBResetI\000"
 4229      52657365 
 4229      744900
 4230              	.LASF156:
 4231 0759 63684D42 		.ascii	"chMBPost\000"
 4231      506F7374 
 4231      00
 4232              	.LASF64:
 4233 0762 76745F6E 		.ascii	"vt_next\000"
 4233      65787400 
 4234              	.LASF78:
 4235 076a 63685F73 		.ascii	"ch_system_t\000"
 4235      79737465 
 4235      6D5F7400 
 4236              	.LASF101:
 4237 0776 77747472 		.ascii	"wttrp\000"
 4237      7000
 4238              	.LASF97:
 4239 077c 63685F74 		.ascii	"ch_trace_buffer_t\000"
 4239      72616365 
 4239      5F627566 
 4239      6665725F 
 4239      7400
 4240              	.LASF111:
 4241 078e 6D5F6E65 		.ascii	"m_next\000"
 4241      787400
 4242              	.LASF3:
 4243 0795 7369676E 		.ascii	"signed char\000"
 4243      65642063 
 4243      68617200 
 4244              	.LASF123:
 4245 07a1 63665F6F 		.ascii	"cf_off_newer\000"
 4245      66665F6E 
 4245      65776572 
 4245      00
 4246              	.LASF8:
 4247 07ae 73686F72 		.ascii	"short unsigned int\000"
 4247      7420756E 
 4247      7369676E 
 4247      65642069 
 4247      6E7400
ARM GAS  /tmp/ccKk1bt9.s 			page 82


 4248              	.LASF57:
 4249 07c1 725F6374 		.ascii	"r_ctx\000"
 4249      7800
 4250              	.LASF86:
 4251 07c7 73746B61 		.ascii	"stkalign_t\000"
 4251      6C69676E 
 4251      5F7400
 4252              	.LASF160:
 4253 07d2 63684D42 		.ascii	"chMBGetFreeCountI\000"
 4253      47657446 
 4253      72656543 
 4253      6F756E74 
 4253      4900
 4254              	.LASF149:
 4255 07e4 5F5F6675 		.ascii	"__func__\000"
 4255      6E635F5F 
 4255      00
 4256              	.LASF145:
 4257 07ed 6D736770 		.ascii	"msgp\000"
 4257      00
 4258              	.LASF133:
 4259 07f2 63685F64 		.ascii	"ch_debug\000"
 4259      65627567 
 4259      00
 4260              	.LASF67:
 4261 07fb 76745F66 		.ascii	"vt_func\000"
 4261      756E6300 
 4262              	.LASF166:
 4263 0803 706F7274 		.ascii	"port_unlock\000"
 4263      5F756E6C 
 4263      6F636B00 
 4264              	.LASF65:
 4265 080f 76745F70 		.ascii	"vt_prev\000"
 4265      72657600 
 4266              	.LASF99:
 4267 0817 65786974 		.ascii	"exitcode\000"
 4267      636F6465 
 4267      00
 4268              		.ident	"GCC: (GNU Tools for ARM Embedded Processors 6-2017-q1-update) 6.3.1 20170215 (release) [AR
ARM GAS  /tmp/ccKk1bt9.s 			page 83


DEFINED SYMBOLS
                            *ABS*:0000000000000000 chmboxes.c
     /tmp/ccKk1bt9.s:16     .text.port_lock:0000000000000000 $t
     /tmp/ccKk1bt9.s:23     .text.port_lock:0000000000000000 port_lock
     /tmp/ccKk1bt9.s:51     .text.port_unlock:0000000000000000 $t
     /tmp/ccKk1bt9.s:58     .text.port_unlock:0000000000000000 port_unlock
     /tmp/ccKk1bt9.s:84     .text.queue_init:0000000000000000 $t
     /tmp/ccKk1bt9.s:91     .text.queue_init:0000000000000000 queue_init
     /tmp/ccKk1bt9.s:119    .text.chSysLock:0000000000000000 $t
     /tmp/ccKk1bt9.s:126    .text.chSysLock:0000000000000000 chSysLock
     /tmp/ccKk1bt9.s:149    .text.chSysUnlock:0000000000000000 $t
     /tmp/ccKk1bt9.s:156    .text.chSysUnlock:0000000000000000 chSysUnlock
     /tmp/ccKk1bt9.s:197    .text.chSysUnlock:0000000000000030 $d
     /tmp/ccKk1bt9.s:1401   .rodata.__func__.4993:0000000000000000 __func__.4993
     /tmp/ccKk1bt9.s:203    .text.chThdQueueObjectInit:0000000000000000 $t
     /tmp/ccKk1bt9.s:210    .text.chThdQueueObjectInit:0000000000000000 chThdQueueObjectInit
     /tmp/ccKk1bt9.s:236    .text.chMBGetSizeI:0000000000000000 $t
     /tmp/ccKk1bt9.s:243    .text.chMBGetSizeI:0000000000000000 chMBGetSizeI
     /tmp/ccKk1bt9.s:271    .text.chMBGetUsedCountI:0000000000000000 $t
     /tmp/ccKk1bt9.s:278    .text.chMBGetUsedCountI:0000000000000000 chMBGetUsedCountI
     /tmp/ccKk1bt9.s:304    .text.chMBGetFreeCountI:0000000000000000 $t
     /tmp/ccKk1bt9.s:311    .text.chMBGetFreeCountI:0000000000000000 chMBGetFreeCountI
     /tmp/ccKk1bt9.s:345    .text.chMBObjectInit:0000000000000000 $t
     /tmp/ccKk1bt9.s:353    .text.chMBObjectInit:0000000000000000 chMBObjectInit
     /tmp/ccKk1bt9.s:431    .text.chMBObjectInit:0000000000000068 $d
     /tmp/ccKk1bt9.s:1395   .rodata.__func__.5698:0000000000000000 __func__.5698
     /tmp/ccKk1bt9.s:436    .text.chMBReset:0000000000000000 $t
     /tmp/ccKk1bt9.s:444    .text.chMBReset:0000000000000000 chMBReset
     /tmp/ccKk1bt9.s:483    .text.chMBResetI:0000000000000000 chMBResetI
     /tmp/ccKk1bt9.s:475    .text.chMBResetI:0000000000000000 $t
     /tmp/ccKk1bt9.s:550    .text.chMBResetI:0000000000000060 $d
     /tmp/ccKk1bt9.s:1407   .rodata.__func__.5705:0000000000000000 __func__.5705
     /tmp/ccKk1bt9.s:555    .text.chMBPost:0000000000000000 $t
     /tmp/ccKk1bt9.s:563    .text.chMBPost:0000000000000000 chMBPost
     /tmp/ccKk1bt9.s:612    .text.chMBPostS:0000000000000000 chMBPostS
     /tmp/ccKk1bt9.s:604    .text.chMBPostS:0000000000000000 $t
     /tmp/ccKk1bt9.s:721    .text.chMBPostS:00000000000000a0 $d
     /tmp/ccKk1bt9.s:1413   .rodata.__func__.5718:0000000000000000 __func__.5718
     /tmp/ccKk1bt9.s:726    .text.chMBPostI:0000000000000000 $t
     /tmp/ccKk1bt9.s:734    .text.chMBPostI:0000000000000000 chMBPostI
     /tmp/ccKk1bt9.s:823    .text.chMBPostI:000000000000007c $d
     /tmp/ccKk1bt9.s:1419   .rodata.__func__.5725:0000000000000000 __func__.5725
     /tmp/ccKk1bt9.s:828    .text.chMBPostAhead:0000000000000000 $t
     /tmp/ccKk1bt9.s:836    .text.chMBPostAhead:0000000000000000 chMBPostAhead
     /tmp/ccKk1bt9.s:885    .text.chMBPostAheadS:0000000000000000 chMBPostAheadS
     /tmp/ccKk1bt9.s:877    .text.chMBPostAheadS:0000000000000000 $t
     /tmp/ccKk1bt9.s:997    .text.chMBPostAheadS:00000000000000a8 $d
     /tmp/ccKk1bt9.s:1425   .rodata.__func__.5738:0000000000000000 __func__.5738
     /tmp/ccKk1bt9.s:1002   .text.chMBPostAheadI:0000000000000000 $t
     /tmp/ccKk1bt9.s:1010   .text.chMBPostAheadI:0000000000000000 chMBPostAheadI
     /tmp/ccKk1bt9.s:1102   .text.chMBPostAheadI:0000000000000080 $d
     /tmp/ccKk1bt9.s:1431   .rodata.__func__.5745:0000000000000000 __func__.5745
     /tmp/ccKk1bt9.s:1107   .text.chMBFetch:0000000000000000 $t
     /tmp/ccKk1bt9.s:1115   .text.chMBFetch:0000000000000000 chMBFetch
     /tmp/ccKk1bt9.s:1164   .text.chMBFetchS:0000000000000000 chMBFetchS
     /tmp/ccKk1bt9.s:1156   .text.chMBFetchS:0000000000000000 $t
     /tmp/ccKk1bt9.s:1279   .text.chMBFetchS:00000000000000a8 $d
ARM GAS  /tmp/ccKk1bt9.s 			page 84


     /tmp/ccKk1bt9.s:1437   .rodata.__func__.5758:0000000000000000 __func__.5758
     /tmp/ccKk1bt9.s:1284   .text.chMBFetchI:0000000000000000 $t
     /tmp/ccKk1bt9.s:1292   .text.chMBFetchI:0000000000000000 chMBFetchI
     /tmp/ccKk1bt9.s:1387   .text.chMBFetchI:0000000000000084 $d
     /tmp/ccKk1bt9.s:1443   .rodata.__func__.5765:0000000000000000 __func__.5765
     /tmp/ccKk1bt9.s:1392   .rodata.__func__.5698:0000000000000000 $d
     /tmp/ccKk1bt9.s:1398   .rodata.__func__.4993:0000000000000000 $d
     /tmp/ccKk1bt9.s:1404   .rodata.__func__.5705:0000000000000000 $d
     /tmp/ccKk1bt9.s:1410   .rodata.__func__.5718:0000000000000000 $d
     /tmp/ccKk1bt9.s:1416   .rodata.__func__.5725:0000000000000000 $d
     /tmp/ccKk1bt9.s:1422   .rodata.__func__.5738:0000000000000000 $d
     /tmp/ccKk1bt9.s:1428   .rodata.__func__.5745:0000000000000000 $d
     /tmp/ccKk1bt9.s:1434   .rodata.__func__.5758:0000000000000000 $d
     /tmp/ccKk1bt9.s:1440   .rodata.__func__.5765:0000000000000000 $d
                     .debug_frame:0000000000000010 $d

UNDEFINED SYMBOLS
_dbg_check_lock
_dbg_check_unlock
chSysHalt
ch
chDbgCheckClassI
chSchRescheduleS
chThdDequeueAllI
chDbgCheckClassS
chThdDequeueNextI
chThdEnqueueTimeoutS
