ARM GAS  /tmp/ccc8xxcD.s 			page 1


   1              		.cpu cortex-m0
   2              		.eabi_attribute 20, 1
   3              		.eabi_attribute 21, 1
   4              		.eabi_attribute 23, 3
   5              		.eabi_attribute 24, 1
   6              		.eabi_attribute 25, 1
   7              		.eabi_attribute 26, 1
   8              		.eabi_attribute 30, 6
   9              		.eabi_attribute 34, 0
  10              		.eabi_attribute 18, 4
  11              		.file	"chmemcore.c"
  12              		.text
  13              	.Ltext0:
  14              		.cfi_sections	.debug_frame
  15              		.section	.text.port_lock,"ax",%progbits
  16              		.align	1
  17              		.p2align 4,,15
  18              		.syntax unified
  19              		.code	16
  20              		.thumb_func
  21              		.fpu softvfp
  22              		.type	port_lock, %function
  23              	port_lock:
  24              	.LFB38:
  25              		.file 1 "ChibiOS/os/rt/ports/ARMCMx/chcore_v6m.h"
  26              		.loc 1 330 0
  27              		.cfi_startproc
  28              		@ args = 0, pretend = 0, frame = 0
  29              		@ frame_needed = 0, uses_anonymous_args = 0
  30              		@ link register save eliminated.
  31              	.LBB6:
  32              	.LBB7:
  33              		.file 2 "ChibiOS/os/ext/CMSIS/include/core_cmFunc.h"
  34              		.loc 2 344 0
  35              		.syntax divided
  36              	@ 344 "ChibiOS/os/ext/CMSIS/include/core_cmFunc.h" 1
  37 0000 72B6     		cpsid i
  38              	@ 0 "" 2
  39              		.thumb
  40              		.syntax unified
  41              	.LBE7:
  42              	.LBE6:
  43              		.loc 1 333 0
  44 0002 C046     		nop
  45              		@ sp needed
  46 0004 7047     		bx	lr
  47              		.cfi_endproc
  48              	.LFE38:
  49              		.size	port_lock, .-port_lock
  50 0006 C046     		.section	.text.port_unlock,"ax",%progbits
  51              		.align	1
  52              		.p2align 4,,15
  53              		.syntax unified
  54              		.code	16
  55              		.thumb_func
  56              		.fpu softvfp
  57              		.type	port_unlock, %function
ARM GAS  /tmp/ccc8xxcD.s 			page 2


  58              	port_unlock:
  59              	.LFB39:
  60              		.loc 1 339 0
  61              		.cfi_startproc
  62              		@ args = 0, pretend = 0, frame = 0
  63              		@ frame_needed = 0, uses_anonymous_args = 0
  64              		@ link register save eliminated.
  65              	.LBB8:
  66              	.LBB9:
  67              		.loc 2 333 0
  68              		.syntax divided
  69              	@ 333 "ChibiOS/os/ext/CMSIS/include/core_cmFunc.h" 1
  70 0000 62B6     		cpsie i
  71              	@ 0 "" 2
  72              		.thumb
  73              		.syntax unified
  74              	.LBE9:
  75              	.LBE8:
  76              		.loc 1 342 0
  77 0002 C046     		nop
  78              		@ sp needed
  79 0004 7047     		bx	lr
  80              		.cfi_endproc
  81              	.LFE39:
  82              		.size	port_unlock, .-port_unlock
  83 0006 C046     		.section	.text.chSysLock,"ax",%progbits
  84              		.align	1
  85              		.p2align 4,,15
  86              		.syntax unified
  87              		.code	16
  88              		.thumb_func
  89              		.fpu softvfp
  90              		.type	chSysLock, %function
  91              	chSysLock:
  92              	.LFB77:
  93              		.file 3 "ChibiOS/os/rt/include/chsys.h"
  94              		.loc 3 346 0
  95              		.cfi_startproc
  96              		@ args = 0, pretend = 0, frame = 0
  97              		@ frame_needed = 0, uses_anonymous_args = 0
  98 0000 10B5     		push	{r4, lr}
  99              		.cfi_def_cfa_offset 8
 100              		.cfi_offset 4, -8
 101              		.cfi_offset 14, -4
 102              		.loc 3 348 0
 103 0002 FFF7FEFF 		bl	port_lock
 104              		.loc 3 350 0
 105 0006 FFF7FEFF 		bl	_dbg_check_lock
 106              		.loc 3 351 0
 107 000a C046     		nop
 108              		@ sp needed
 109 000c 10BD     		pop	{r4, pc}
 110              		.cfi_endproc
 111              	.LFE77:
 112              		.size	chSysLock, .-chSysLock
 113 000e C046     		.section	.text.chSysUnlock,"ax",%progbits
 114              		.align	1
ARM GAS  /tmp/ccc8xxcD.s 			page 3


 115              		.p2align 4,,15
 116              		.syntax unified
 117              		.code	16
 118              		.thumb_func
 119              		.fpu softvfp
 120              		.type	chSysUnlock, %function
 121              	chSysUnlock:
 122              	.LFB78:
 123              		.loc 3 358 0
 124              		.cfi_startproc
 125              		@ args = 0, pretend = 0, frame = 0
 126              		@ frame_needed = 0, uses_anonymous_args = 0
 127 0000 10B5     		push	{r4, lr}
 128              		.cfi_def_cfa_offset 8
 129              		.cfi_offset 4, -8
 130              		.cfi_offset 14, -4
 131              		.loc 3 360 0
 132 0002 FFF7FEFF 		bl	_dbg_check_unlock
 133              		.loc 3 367 0
 134 0006 0A4B     		ldr	r3, .L6
 135 0008 1A68     		ldr	r2, [r3]
 136 000a 094B     		ldr	r3, .L6
 137 000c 9A42     		cmp	r2, r3
 138 000e 0BD0     		beq	.L5
 139              		.loc 3 367 0 is_stmt 0 discriminator 2
 140 0010 074B     		ldr	r3, .L6
 141 0012 9B69     		ldr	r3, [r3, #24]
 142 0014 9A68     		ldr	r2, [r3, #8]
 143 0016 064B     		ldr	r3, .L6
 144 0018 1B68     		ldr	r3, [r3]
 145 001a 9B68     		ldr	r3, [r3, #8]
 146 001c 9A42     		cmp	r2, r3
 147 001e 03D2     		bcs	.L5
 148              		.loc 3 367 0 discriminator 3
 149 0020 044B     		ldr	r3, .L6+4
 150 0022 1800     		movs	r0, r3
 151 0024 FFF7FEFF 		bl	chSysHalt
 152              	.L5:
 153              		.loc 3 371 0 is_stmt 1
 154 0028 FFF7FEFF 		bl	port_unlock
 155              		.loc 3 372 0
 156 002c C046     		nop
 157              		@ sp needed
 158 002e 10BD     		pop	{r4, pc}
 159              	.L7:
 160              		.align	2
 161              	.L6:
 162 0030 00000000 		.word	ch
 163 0034 00000000 		.word	__func__.4993
 164              		.cfi_endproc
 165              	.LFE78:
 166              		.size	chSysUnlock, .-chSysUnlock
 167              		.section	.bss.nextmem,"aw",%nobits
 168              		.align	2
 169              		.type	nextmem, %object
 170              		.size	nextmem, 4
 171              	nextmem:
ARM GAS  /tmp/ccc8xxcD.s 			page 4


 172 0000 00000000 		.space	4
 173              		.section	.bss.endmem,"aw",%nobits
 174              		.align	2
 175              		.type	endmem, %object
 176              		.size	endmem, 4
 177              	endmem:
 178 0000 00000000 		.space	4
 179              		.section	.text._core_init,"ax",%progbits
 180              		.align	1
 181              		.p2align 4,,15
 182              		.global	_core_init
 183              		.syntax unified
 184              		.code	16
 185              		.thumb_func
 186              		.fpu softvfp
 187              		.type	_core_init, %function
 188              	_core_init:
 189              	.LFB152:
 190              		.file 4 "ChibiOS/os/rt/src/chmemcore.c"
 191              		.loc 4 78 0
 192              		.cfi_startproc
 193              		@ args = 0, pretend = 0, frame = 0
 194              		@ frame_needed = 0, uses_anonymous_args = 0
 195              		@ link register save eliminated.
 196              		.loc 4 84 0
 197 0000 074B     		ldr	r3, .L9
 198 0002 0733     		adds	r3, r3, #7
 199 0004 0722     		movs	r2, #7
 200 0006 9343     		bics	r3, r2
 201 0008 1A00     		movs	r2, r3
 202 000a 064B     		ldr	r3, .L9+4
 203 000c 1A60     		str	r2, [r3]
 204              		.loc 4 85 0
 205 000e 064B     		ldr	r3, .L9+8
 206 0010 0722     		movs	r2, #7
 207 0012 9343     		bics	r3, r2
 208 0014 1A00     		movs	r2, r3
 209 0016 054B     		ldr	r3, .L9+12
 210 0018 1A60     		str	r2, [r3]
 211              		.loc 4 95 0
 212 001a C046     		nop
 213              		@ sp needed
 214 001c 7047     		bx	lr
 215              	.L10:
 216 001e C046     		.align	2
 217              	.L9:
 218 0020 00000000 		.word	__heap_base__
 219 0024 00000000 		.word	nextmem
 220 0028 00000000 		.word	__heap_end__
 221 002c 00000000 		.word	endmem
 222              		.cfi_endproc
 223              	.LFE152:
 224              		.size	_core_init, .-_core_init
 225              		.section	.text.chCoreAlloc,"ax",%progbits
 226              		.align	1
 227              		.p2align 4,,15
 228              		.global	chCoreAlloc
ARM GAS  /tmp/ccc8xxcD.s 			page 5


 229              		.syntax unified
 230              		.code	16
 231              		.thumb_func
 232              		.fpu softvfp
 233              		.type	chCoreAlloc, %function
 234              	chCoreAlloc:
 235              	.LFB153:
 236              		.loc 4 109 0
 237              		.cfi_startproc
 238              		@ args = 0, pretend = 0, frame = 16
 239              		@ frame_needed = 0, uses_anonymous_args = 0
 240 0000 00B5     		push	{lr}
 241              		.cfi_def_cfa_offset 4
 242              		.cfi_offset 14, -4
 243 0002 85B0     		sub	sp, sp, #20
 244              		.cfi_def_cfa_offset 24
 245 0004 0190     		str	r0, [sp, #4]
 246              		.loc 4 112 0
 247 0006 FFF7FEFF 		bl	chSysLock
 248              		.loc 4 113 0
 249 000a 019B     		ldr	r3, [sp, #4]
 250 000c 1800     		movs	r0, r3
 251 000e FFF7FEFF 		bl	chCoreAllocI
 252 0012 0300     		movs	r3, r0
 253 0014 0393     		str	r3, [sp, #12]
 254              		.loc 4 114 0
 255 0016 FFF7FEFF 		bl	chSysUnlock
 256              		.loc 4 116 0
 257 001a 039B     		ldr	r3, [sp, #12]
 258              		.loc 4 117 0
 259 001c 1800     		movs	r0, r3
 260 001e 05B0     		add	sp, sp, #20
 261              		@ sp needed
 262 0020 00BD     		pop	{pc}
 263              		.cfi_endproc
 264              	.LFE153:
 265              		.size	chCoreAlloc, .-chCoreAlloc
 266 0022 C046     		.section	.text.chCoreAllocI,"ax",%progbits
 267              		.align	1
 268              		.p2align 4,,15
 269              		.global	chCoreAllocI
 270              		.syntax unified
 271              		.code	16
 272              		.thumb_func
 273              		.fpu softvfp
 274              		.type	chCoreAllocI, %function
 275              	chCoreAllocI:
 276              	.LFB154:
 277              		.loc 4 131 0
 278              		.cfi_startproc
 279              		@ args = 0, pretend = 0, frame = 16
 280              		@ frame_needed = 0, uses_anonymous_args = 0
 281 0000 00B5     		push	{lr}
 282              		.cfi_def_cfa_offset 4
 283              		.cfi_offset 14, -4
 284 0002 85B0     		sub	sp, sp, #20
 285              		.cfi_def_cfa_offset 24
ARM GAS  /tmp/ccc8xxcD.s 			page 6


 286 0004 0190     		str	r0, [sp, #4]
 287              		.loc 4 134 0
 288 0006 FFF7FEFF 		bl	chDbgCheckClassI
 289              		.loc 4 136 0
 290 000a 019B     		ldr	r3, [sp, #4]
 291 000c 0733     		adds	r3, r3, #7
 292 000e 0722     		movs	r2, #7
 293 0010 9343     		bics	r3, r2
 294 0012 0193     		str	r3, [sp, #4]
 295              		.loc 4 138 0
 296 0014 0C4B     		ldr	r3, .L16
 297 0016 1B68     		ldr	r3, [r3]
 298 0018 1A00     		movs	r2, r3
 299 001a 0C4B     		ldr	r3, .L16+4
 300 001c 1B68     		ldr	r3, [r3]
 301 001e D31A     		subs	r3, r2, r3
 302 0020 1A00     		movs	r2, r3
 303 0022 019B     		ldr	r3, [sp, #4]
 304 0024 9A42     		cmp	r2, r3
 305 0026 01D2     		bcs	.L14
 306              		.loc 4 140 0
 307 0028 0023     		movs	r3, #0
 308 002a 09E0     		b	.L15
 309              	.L14:
 310              		.loc 4 142 0
 311 002c 074B     		ldr	r3, .L16+4
 312 002e 1B68     		ldr	r3, [r3]
 313 0030 0393     		str	r3, [sp, #12]
 314              		.loc 4 143 0
 315 0032 064B     		ldr	r3, .L16+4
 316 0034 1A68     		ldr	r2, [r3]
 317 0036 019B     		ldr	r3, [sp, #4]
 318 0038 D218     		adds	r2, r2, r3
 319 003a 044B     		ldr	r3, .L16+4
 320 003c 1A60     		str	r2, [r3]
 321              		.loc 4 145 0
 322 003e 039B     		ldr	r3, [sp, #12]
 323              	.L15:
 324              		.loc 4 146 0
 325 0040 1800     		movs	r0, r3
 326 0042 05B0     		add	sp, sp, #20
 327              		@ sp needed
 328 0044 00BD     		pop	{pc}
 329              	.L17:
 330 0046 C046     		.align	2
 331              	.L16:
 332 0048 00000000 		.word	endmem
 333 004c 00000000 		.word	nextmem
 334              		.cfi_endproc
 335              	.LFE154:
 336              		.size	chCoreAllocI, .-chCoreAllocI
 337              		.section	.text.chCoreGetStatusX,"ax",%progbits
 338              		.align	1
 339              		.p2align 4,,15
 340              		.global	chCoreGetStatusX
 341              		.syntax unified
 342              		.code	16
ARM GAS  /tmp/ccc8xxcD.s 			page 7


 343              		.thumb_func
 344              		.fpu softvfp
 345              		.type	chCoreGetStatusX, %function
 346              	chCoreGetStatusX:
 347              	.LFB155:
 348              		.loc 4 155 0
 349              		.cfi_startproc
 350              		@ args = 0, pretend = 0, frame = 0
 351              		@ frame_needed = 0, uses_anonymous_args = 0
 352              		@ link register save eliminated.
 353              		.loc 4 158 0
 354 0000 034B     		ldr	r3, .L20
 355 0002 1B68     		ldr	r3, [r3]
 356 0004 1A00     		movs	r2, r3
 357 0006 034B     		ldr	r3, .L20+4
 358 0008 1B68     		ldr	r3, [r3]
 359 000a D31A     		subs	r3, r2, r3
 360              		.loc 4 160 0
 361 000c 1800     		movs	r0, r3
 362              		@ sp needed
 363 000e 7047     		bx	lr
 364              	.L21:
 365              		.align	2
 366              	.L20:
 367 0010 00000000 		.word	endmem
 368 0014 00000000 		.word	nextmem
 369              		.cfi_endproc
 370              	.LFE155:
 371              		.size	chCoreGetStatusX, .-chCoreGetStatusX
 372              		.section	.rodata.__func__.4993,"a",%progbits
 373              		.align	2
 374              		.type	__func__.4993, %object
 375              		.size	__func__.4993, 12
 376              	__func__.4993:
 377 0000 63685379 		.ascii	"chSysUnlock\000"
 377      73556E6C 
 377      6F636B00 
 378              		.text
 379              	.Letext0:
 380              		.file 5 "/home/felix/opt/gcc-arm-none-eabi-6-2017-q1-update/lib/gcc/arm-none-eabi/6.3.1/include/st
 381              		.file 6 "/home/felix/opt/gcc-arm-none-eabi-6-2017-q1-update/arm-none-eabi/include/machine/_default
 382              		.file 7 "/home/felix/opt/gcc-arm-none-eabi-6-2017-q1-update/arm-none-eabi/include/sys/_stdint.h"
 383              		.file 8 "ChibiOS/os/rt/ports/ARMCMx/compilers/GCC/chtypes.h"
 384              		.file 9 "ChibiOS/os/rt/include/chsystypes.h"
 385              		.file 10 "ChibiOS/os/rt/include/chschd.h"
 386              		.file 11 "ChibiOS/os/rt/ports/ARMCMx/chcore.h"
 387              		.file 12 "ChibiOS/os/rt/include/chdebug.h"
 388              		.file 13 "ChibiOS/os/rt/include/chsem.h"
 389              		.file 14 "ChibiOS/os/rt/include/chmtx.h"
 390              		.file 15 "ChibiOS/os/rt/include/chregistry.h"
 391              		.file 16 "ChibiOS/os/ext/CMSIS/ST/STM32F0xx/system_stm32f0xx.h"