ARM GAS  /tmp/ccWRZ51O.s 			page 1


   1              		.cpu cortex-m0
   2              		.eabi_attribute 20, 1
   3              		.eabi_attribute 21, 1
   4              		.eabi_attribute 23, 3
   5              		.eabi_attribute 24, 1
   6              		.eabi_attribute 25, 1
   7              		.eabi_attribute 26, 1
   8              		.eabi_attribute 30, 6
   9              		.eabi_attribute 34, 0
  10              		.eabi_attribute 18, 4
  11              		.file	"chmempools.c"
  12              		.text
  13              	.Ltext0:
  14              		.cfi_sections	.debug_frame
  15              		.section	.text.port_lock,"ax",%progbits
  16              		.align	1
  17              		.p2align 4,,15
  18              		.syntax unified
  19              		.code	16
  20              		.thumb_func
  21              		.fpu softvfp
  22              		.type	port_lock, %function
  23              	port_lock:
  24              	.LFB38:
  25              		.file 1 "ChibiOS/os/rt/ports/ARMCMx/chcore_v6m.h"
  26              		.loc 1 330 0
  27              		.cfi_startproc
  28              		@ args = 0, pretend = 0, frame = 0
  29              		@ frame_needed = 0, uses_anonymous_args = 0
  30              		@ link register save eliminated.
  31              	.LBB6:
  32              	.LBB7:
  33              		.file 2 "ChibiOS/os/ext/CMSIS/include/core_cmFunc.h"
  34              		.loc 2 344 0
  35              		.syntax divided
  36              	@ 344 "ChibiOS/os/ext/CMSIS/include/core_cmFunc.h" 1
  37 0000 72B6     		cpsid i
  38              	@ 0 "" 2
  39              		.thumb
  40              		.syntax unified
  41              	.LBE7:
  42              	.LBE6:
  43              		.loc 1 333 0
  44 0002 C046     		nop
  45              		@ sp needed
  46 0004 7047     		bx	lr
  47              		.cfi_endproc
  48              	.LFE38:
  49              		.size	port_lock, .-port_lock
  50 0006 C046     		.section	.text.port_unlock,"ax",%progbits
  51              		.align	1
  52              		.p2align 4,,15
  53              		.syntax unified
  54              		.code	16
  55              		.thumb_func
  56              		.fpu softvfp
  57              		.type	port_unlock, %function
ARM GAS  /tmp/ccWRZ51O.s 			page 2


  58              	port_unlock:
  59              	.LFB39:
  60              		.loc 1 339 0
  61              		.cfi_startproc
  62              		@ args = 0, pretend = 0, frame = 0
  63              		@ frame_needed = 0, uses_anonymous_args = 0
  64              		@ link register save eliminated.
  65              	.LBB8:
  66              	.LBB9:
  67              		.loc 2 333 0
  68              		.syntax divided
  69              	@ 333 "ChibiOS/os/ext/CMSIS/include/core_cmFunc.h" 1
  70 0000 62B6     		cpsie i
  71              	@ 0 "" 2
  72              		.thumb
  73              		.syntax unified
  74              	.LBE9:
  75              	.LBE8:
  76              		.loc 1 342 0
  77 0002 C046     		nop
  78              		@ sp needed
  79 0004 7047     		bx	lr
  80              		.cfi_endproc
  81              	.LFE39:
  82              		.size	port_unlock, .-port_unlock
  83 0006 C046     		.section	.text.chSysLock,"ax",%progbits
  84              		.align	1
  85              		.p2align 4,,15
  86              		.syntax unified
  87              		.code	16
  88              		.thumb_func
  89              		.fpu softvfp
  90              		.type	chSysLock, %function
  91              	chSysLock:
  92              	.LFB77:
  93              		.file 3 "ChibiOS/os/rt/include/chsys.h"
  94              		.loc 3 346 0
  95              		.cfi_startproc
  96              		@ args = 0, pretend = 0, frame = 0
  97              		@ frame_needed = 0, uses_anonymous_args = 0
  98 0000 10B5     		push	{r4, lr}
  99              		.cfi_def_cfa_offset 8
 100              		.cfi_offset 4, -8
 101              		.cfi_offset 14, -4
 102              		.loc 3 348 0
 103 0002 FFF7FEFF 		bl	port_lock
 104              		.loc 3 350 0
 105 0006 FFF7FEFF 		bl	_dbg_check_lock
 106              		.loc 3 351 0
 107 000a C046     		nop
 108              		@ sp needed
 109 000c 10BD     		pop	{r4, pc}
 110              		.cfi_endproc
 111              	.LFE77:
 112              		.size	chSysLock, .-chSysLock
 113 000e C046     		.section	.text.chSysUnlock,"ax",%progbits
 114              		.align	1
ARM GAS  /tmp/ccWRZ51O.s 			page 3


 115              		.p2align 4,,15
 116              		.syntax unified
 117              		.code	16
 118              		.thumb_func
 119              		.fpu softvfp
 120              		.type	chSysUnlock, %function
 121              	chSysUnlock:
 122              	.LFB78:
 123              		.loc 3 358 0
 124              		.cfi_startproc
 125              		@ args = 0, pretend = 0, frame = 0
 126              		@ frame_needed = 0, uses_anonymous_args = 0
 127 0000 10B5     		push	{r4, lr}
 128              		.cfi_def_cfa_offset 8
 129              		.cfi_offset 4, -8
 130              		.cfi_offset 14, -4
 131              		.loc 3 360 0
 132 0002 FFF7FEFF 		bl	_dbg_check_unlock
 133              		.loc 3 367 0
 134 0006 0A4B     		ldr	r3, .L6
 135 0008 1A68     		ldr	r2, [r3]
 136 000a 094B     		ldr	r3, .L6
 137 000c 9A42     		cmp	r2, r3
 138 000e 0BD0     		beq	.L5
 139              		.loc 3 367 0 is_stmt 0 discriminator 2
 140 0010 074B     		ldr	r3, .L6
 141 0012 9B69     		ldr	r3, [r3, #24]
 142 0014 9A68     		ldr	r2, [r3, #8]
 143 0016 064B     		ldr	r3, .L6
 144 0018 1B68     		ldr	r3, [r3]
 145 001a 9B68     		ldr	r3, [r3, #8]
 146 001c 9A42     		cmp	r2, r3
 147 001e 03D2     		bcs	.L5
 148              		.loc 3 367 0 discriminator 3
 149 0020 044B     		ldr	r3, .L6+4
 150 0022 1800     		movs	r0, r3
 151 0024 FFF7FEFF 		bl	chSysHalt
 152              	.L5:
 153              		.loc 3 371 0 is_stmt 1
 154 0028 FFF7FEFF 		bl	port_unlock
 155              		.loc 3 372 0
 156 002c C046     		nop
 157              		@ sp needed
 158 002e 10BD     		pop	{r4, pc}
 159              	.L7:
 160              		.align	2
 161              	.L6:
 162 0030 00000000 		.word	ch
 163 0034 00000000 		.word	__func__.4993
 164              		.cfi_endproc
 165              	.LFE78:
 166              		.size	chSysUnlock, .-chSysUnlock
 167              		.section	.text.chPoolAdd,"ax",%progbits
 168              		.align	1
 169              		.p2align 4,,15
 170              		.syntax unified
 171              		.code	16
ARM GAS  /tmp/ccWRZ51O.s 			page 4


 172              		.thumb_func
 173              		.fpu softvfp
 174              		.type	chPoolAdd, %function
 175              	chPoolAdd:
 176              	.LFB140:
 177              		.file 4 "ChibiOS/os/rt/include/chmempools.h"
 178              		.loc 4 137 0
 179              		.cfi_startproc
 180              		@ args = 0, pretend = 0, frame = 8
 181              		@ frame_needed = 0, uses_anonymous_args = 0
 182 0000 00B5     		push	{lr}
 183              		.cfi_def_cfa_offset 4
 184              		.cfi_offset 14, -4
 185 0002 83B0     		sub	sp, sp, #12
 186              		.cfi_def_cfa_offset 16
 187 0004 0190     		str	r0, [sp, #4]
 188 0006 0091     		str	r1, [sp]
 189              		.loc 4 139 0
 190 0008 009A     		ldr	r2, [sp]
 191 000a 019B     		ldr	r3, [sp, #4]
 192 000c 1100     		movs	r1, r2
 193 000e 1800     		movs	r0, r3
 194 0010 FFF7FEFF 		bl	chPoolFree
 195              		.loc 4 140 0
 196 0014 C046     		nop
 197 0016 03B0     		add	sp, sp, #12
 198              		@ sp needed
 199 0018 00BD     		pop	{pc}
 200              		.cfi_endproc
 201              	.LFE140:
 202              		.size	chPoolAdd, .-chPoolAdd
 203 001a C046     		.section	.text.chPoolObjectInit,"ax",%progbits
 204              		.align	1
 205              		.p2align 4,,15
 206              		.global	chPoolObjectInit
 207              		.syntax unified
 208              		.code	16
 209              		.thumb_func
 210              		.fpu softvfp
 211              		.type	chPoolObjectInit, %function
 212              	chPoolObjectInit:
 213              	.LFB152:
 214              		.file 5 "ChibiOS/os/rt/src/chmempools.c"
 215              		.loc 5 75 0
 216              		.cfi_startproc
 217              		@ args = 0, pretend = 0, frame = 16
 218              		@ frame_needed = 0, uses_anonymous_args = 0
 219 0000 00B5     		push	{lr}
 220              		.cfi_def_cfa_offset 4
 221              		.cfi_offset 14, -4
 222 0002 85B0     		sub	sp, sp, #20
 223              		.cfi_def_cfa_offset 24
 224 0004 0390     		str	r0, [sp, #12]
 225 0006 0291     		str	r1, [sp, #8]
 226 0008 0192     		str	r2, [sp, #4]
 227              		.loc 5 77 0
 228 000a 039B     		ldr	r3, [sp, #12]
ARM GAS  /tmp/ccWRZ51O.s 			page 5


 229 000c 002B     		cmp	r3, #0
 230 000e 02D0     		beq	.L10
 231              		.loc 5 77 0 is_stmt 0 discriminator 3
 232 0010 029B     		ldr	r3, [sp, #8]
 233 0012 032B     		cmp	r3, #3
 234 0014 03D8     		bhi	.L11
 235              	.L10:
 236              		.loc 5 77 0 discriminator 4
 237 0016 084B     		ldr	r3, .L12
 238 0018 1800     		movs	r0, r3
 239 001a FFF7FEFF 		bl	chSysHalt
 240              	.L11:
 241              		.loc 5 79 0 is_stmt 1
 242 001e 039B     		ldr	r3, [sp, #12]
 243 0020 0022     		movs	r2, #0
 244 0022 1A60     		str	r2, [r3]
 245              		.loc 5 80 0
 246 0024 039B     		ldr	r3, [sp, #12]
 247 0026 029A     		ldr	r2, [sp, #8]
 248 0028 5A60     		str	r2, [r3, #4]
 249              		.loc 5 81 0
 250 002a 039B     		ldr	r3, [sp, #12]
 251 002c 019A     		ldr	r2, [sp, #4]
 252 002e 9A60     		str	r2, [r3, #8]
 253              		.loc 5 82 0
 254 0030 C046     		nop
 255 0032 05B0     		add	sp, sp, #20
 256              		@ sp needed
 257 0034 00BD     		pop	{pc}
 258              	.L13:
 259 0036 C046     		.align	2
 260              	.L12:
 261 0038 00000000 		.word	__func__.5698
 262              		.cfi_endproc
 263              	.LFE152:
 264              		.size	chPoolObjectInit, .-chPoolObjectInit
 265              		.section	.text.chPoolLoadArray,"ax",%progbits
 266              		.align	1
 267              		.p2align 4,,15
 268              		.global	chPoolLoadArray
 269              		.syntax unified
 270              		.code	16
 271              		.thumb_func
 272              		.fpu softvfp
 273              		.type	chPoolLoadArray, %function
 274              	chPoolLoadArray:
 275              	.LFB153:
 276              		.loc 5 97 0
 277              		.cfi_startproc
 278              		@ args = 0, pretend = 0, frame = 16
 279              		@ frame_needed = 0, uses_anonymous_args = 0
 280 0000 00B5     		push	{lr}
 281              		.cfi_def_cfa_offset 4
 282              		.cfi_offset 14, -4
 283 0002 85B0     		sub	sp, sp, #20
 284              		.cfi_def_cfa_offset 24
 285 0004 0390     		str	r0, [sp, #12]
ARM GAS  /tmp/ccWRZ51O.s 			page 6


 286 0006 0291     		str	r1, [sp, #8]
 287 0008 0192     		str	r2, [sp, #4]
 288              		.loc 5 99 0
 289 000a 039B     		ldr	r3, [sp, #12]
 290 000c 002B     		cmp	r3, #0
 291 000e 02D0     		beq	.L15
 292              		.loc 5 99 0 is_stmt 0 discriminator 3
 293 0010 019B     		ldr	r3, [sp, #4]
 294 0012 002B     		cmp	r3, #0
 295 0014 12D1     		bne	.L17
 296              	.L15:
 297              		.loc 5 99 0 discriminator 4
 298 0016 0C4B     		ldr	r3, .L19
 299 0018 1800     		movs	r0, r3
 300 001a FFF7FEFF 		bl	chSysHalt
 301              		.loc 5 101 0 is_stmt 1 discriminator 4
 302 001e 0DE0     		b	.L17
 303              	.L18:
 304              		.loc 5 102 0
 305 0020 029A     		ldr	r2, [sp, #8]
 306 0022 039B     		ldr	r3, [sp, #12]
 307 0024 1100     		movs	r1, r2
 308 0026 1800     		movs	r0, r3
 309 0028 FFF7FEFF 		bl	chPoolAdd
 310              		.loc 5 104 0
 311 002c 039B     		ldr	r3, [sp, #12]
 312 002e 5B68     		ldr	r3, [r3, #4]
 313 0030 029A     		ldr	r2, [sp, #8]
 314 0032 D318     		adds	r3, r2, r3
 315 0034 0293     		str	r3, [sp, #8]
 316              		.loc 5 106 0
 317 0036 019B     		ldr	r3, [sp, #4]
 318 0038 013B     		subs	r3, r3, #1
 319 003a 0193     		str	r3, [sp, #4]
 320              	.L17:
 321              		.loc 5 101 0
 322 003c 019B     		ldr	r3, [sp, #4]
 323 003e 002B     		cmp	r3, #0
 324 0040 EED1     		bne	.L18
 325              		.loc 5 108 0
 326 0042 C046     		nop
 327 0044 05B0     		add	sp, sp, #20
 328              		@ sp needed
 329 0046 00BD     		pop	{pc}
 330              	.L20:
 331              		.align	2
 332              	.L19:
 333 0048 00000000 		.word	__func__.5704
 334              		.cfi_endproc
 335              	.LFE153:
 336              		.size	chPoolLoadArray, .-chPoolLoadArray
 337              		.section	.text.chPoolAllocI,"ax",%progbits
 338              		.align	1
 339              		.p2align 4,,15
 340              		.global	chPoolAllocI
 341              		.syntax unified
 342              		.code	16
ARM GAS  /tmp/ccWRZ51O.s 			page 7


 343              		.thumb_func
 344              		.fpu softvfp
 345              		.type	chPoolAllocI, %function
 346              	chPoolAllocI:
 347              	.LFB154:
 348              		.loc 5 120 0
 349              		.cfi_startproc
 350              		@ args = 0, pretend = 0, frame = 16
 351              		@ frame_needed = 0, uses_anonymous_args = 0
 352 0000 00B5     		push	{lr}
 353              		.cfi_def_cfa_offset 4
 354              		.cfi_offset 14, -4
 355 0002 85B0     		sub	sp, sp, #20
 356              		.cfi_def_cfa_offset 24
 357 0004 0190     		str	r0, [sp, #4]
 358              		.loc 5 123 0
 359 0006 FFF7FEFF 		bl	chDbgCheckClassI
 360              		.loc 5 124 0
 361 000a 019B     		ldr	r3, [sp, #4]
 362 000c 002B     		cmp	r3, #0
 363 000e 03D1     		bne	.L22
 364              		.loc 5 124 0 is_stmt 0 discriminator 2
 365 0010 0F4B     		ldr	r3, .L26
 366 0012 1800     		movs	r0, r3
 367 0014 FFF7FEFF 		bl	chSysHalt
 368              	.L22:
 369              		.loc 5 126 0 is_stmt 1
 370 0018 019B     		ldr	r3, [sp, #4]
 371 001a 1B68     		ldr	r3, [r3]
 372 001c 0393     		str	r3, [sp, #12]
 373              		.loc 5 128 0
 374 001e 039B     		ldr	r3, [sp, #12]
 375 0020 002B     		cmp	r3, #0
 376 0022 05D0     		beq	.L23
 377              		.loc 5 129 0
 378 0024 019B     		ldr	r3, [sp, #4]
 379 0026 1B68     		ldr	r3, [r3]
 380 0028 1A68     		ldr	r2, [r3]
 381 002a 019B     		ldr	r3, [sp, #4]
 382 002c 1A60     		str	r2, [r3]
 383 002e 0BE0     		b	.L24
 384              	.L23:
 385              		.loc 5 131 0
 386 0030 019B     		ldr	r3, [sp, #4]
 387 0032 9B68     		ldr	r3, [r3, #8]
 388 0034 002B     		cmp	r3, #0
 389 0036 07D0     		beq	.L24
 390              		.loc 5 132 0
 391 0038 019B     		ldr	r3, [sp, #4]
 392 003a 9A68     		ldr	r2, [r3, #8]
 393 003c 019B     		ldr	r3, [sp, #4]
 394 003e 5B68     		ldr	r3, [r3, #4]
 395 0040 1800     		movs	r0, r3
 396 0042 9047     		blx	r2
 397              	.LVL0:
 398 0044 0300     		movs	r3, r0
 399 0046 0393     		str	r3, [sp, #12]
ARM GAS  /tmp/ccWRZ51O.s 			page 8


 400              	.L24:
 401              		.loc 5 136 0
 402 0048 039B     		ldr	r3, [sp, #12]
 403              		.loc 5 137 0
 404 004a 1800     		movs	r0, r3
 405 004c 05B0     		add	sp, sp, #20
 406              		@ sp needed
 407 004e 00BD     		pop	{pc}
 408              	.L27:
 409              		.align	2
 410              	.L26:
 411 0050 00000000 		.word	__func__.5712
 412              		.cfi_endproc
 413              	.LFE154:
 414              		.size	chPoolAllocI, .-chPoolAllocI
 415              		.section	.text.chPoolAlloc,"ax",%progbits
 416              		.align	1
 417              		.p2align 4,,15
 418              		.global	chPoolAlloc
 419              		.syntax unified
 420              		.code	16
 421              		.thumb_func
 422              		.fpu softvfp
 423              		.type	chPoolAlloc, %function
 424              	chPoolAlloc:
 425              	.LFB155:
 426              		.loc 5 149 0
 427              		.cfi_startproc
 428              		@ args = 0, pretend = 0, frame = 16
 429              		@ frame_needed = 0, uses_anonymous_args = 0
 430 0000 00B5     		push	{lr}
 431              		.cfi_def_cfa_offset 4
 432              		.cfi_offset 14, -4
 433 0002 85B0     		sub	sp, sp, #20
 434              		.cfi_def_cfa_offset 24
 435 0004 0190     		str	r0, [sp, #4]
 436              		.loc 5 152 0
 437 0006 FFF7FEFF 		bl	chSysLock
 438              		.loc 5 153 0
 439 000a 019B     		ldr	r3, [sp, #4]
 440 000c 1800     		movs	r0, r3
 441 000e FFF7FEFF 		bl	chPoolAllocI
 442 0012 0300     		movs	r3, r0
 443 0014 0393     		str	r3, [sp, #12]
 444              		.loc 5 154 0
 445 0016 FFF7FEFF 		bl	chSysUnlock
 446              		.loc 5 156 0
 447 001a 039B     		ldr	r3, [sp, #12]
 448              		.loc 5 157 0
 449 001c 1800     		movs	r0, r3
 450 001e 05B0     		add	sp, sp, #20
 451              		@ sp needed
 452 0020 00BD     		pop	{pc}
 453              		.cfi_endproc
 454              	.LFE155:
 455              		.size	chPoolAlloc, .-chPoolAlloc
 456 0022 C046     		.section	.text.chPoolFreeI,"ax",%progbits
ARM GAS  /tmp/ccWRZ51O.s 			page 9


 457              		.align	1
 458              		.p2align 4,,15
 459              		.global	chPoolFreeI
 460              		.syntax unified
 461              		.code	16
 462              		.thumb_func
 463              		.fpu softvfp
 464              		.type	chPoolFreeI, %function
 465              	chPoolFreeI:
 466              	.LFB156:
 467              		.loc 5 171 0
 468              		.cfi_startproc
 469              		@ args = 0, pretend = 0, frame = 16
 470              		@ frame_needed = 0, uses_anonymous_args = 0
 471 0000 00B5     		push	{lr}
 472              		.cfi_def_cfa_offset 4
 473              		.cfi_offset 14, -4
 474 0002 85B0     		sub	sp, sp, #20
 475              		.cfi_def_cfa_offset 24
 476 0004 0190     		str	r0, [sp, #4]
 477 0006 0091     		str	r1, [sp]
 478              		.loc 5 172 0
 479 0008 009B     		ldr	r3, [sp]
 480 000a 0393     		str	r3, [sp, #12]
 481              		.loc 5 174 0
 482 000c FFF7FEFF 		bl	chDbgCheckClassI
 483              		.loc 5 175 0
 484 0010 019B     		ldr	r3, [sp, #4]
 485 0012 002B     		cmp	r3, #0
 486 0014 02D0     		beq	.L31
 487              		.loc 5 175 0 is_stmt 0 discriminator 3
 488 0016 009B     		ldr	r3, [sp]
 489 0018 002B     		cmp	r3, #0
 490 001a 03D1     		bne	.L32
 491              	.L31:
 492              		.loc 5 175 0 discriminator 4
 493 001c 064B     		ldr	r3, .L33
 494 001e 1800     		movs	r0, r3
 495 0020 FFF7FEFF 		bl	chSysHalt
 496              	.L32:
 497              		.loc 5 177 0 is_stmt 1
 498 0024 019B     		ldr	r3, [sp, #4]
 499 0026 1A68     		ldr	r2, [r3]
 500 0028 039B     		ldr	r3, [sp, #12]
 501 002a 1A60     		str	r2, [r3]
 502              		.loc 5 178 0
 503 002c 019B     		ldr	r3, [sp, #4]
 504 002e 039A     		ldr	r2, [sp, #12]
 505 0030 1A60     		str	r2, [r3]
 506              		.loc 5 179 0
 507 0032 C046     		nop
 508 0034 05B0     		add	sp, sp, #20
 509              		@ sp needed
 510 0036 00BD     		pop	{pc}
 511              	.L34:
 512              		.align	2
 513              	.L33:
ARM GAS  /tmp/ccWRZ51O.s 			page 10


 514 0038 00000000 		.word	__func__.5722
 515              		.cfi_endproc
 516              	.LFE156:
 517              		.size	chPoolFreeI, .-chPoolFreeI
 518              		.section	.text.chPoolFree,"ax",%progbits
 519              		.align	1
 520              		.p2align 4,,15
 521              		.global	chPoolFree
 522              		.syntax unified
 523              		.code	16
 524              		.thumb_func
 525              		.fpu softvfp
 526              		.type	chPoolFree, %function
 527              	chPoolFree:
 528              	.LFB157:
 529              		.loc 5 193 0
 530              		.cfi_startproc
 531              		@ args = 0, pretend = 0, frame = 8
 532              		@ frame_needed = 0, uses_anonymous_args = 0
 533 0000 00B5     		push	{lr}
 534              		.cfi_def_cfa_offset 4
 535              		.cfi_offset 14, -4
 536 0002 83B0     		sub	sp, sp, #12
 537              		.cfi_def_cfa_offset 16
 538 0004 0190     		str	r0, [sp, #4]
 539 0006 0091     		str	r1, [sp]
 540              		.loc 5 195 0
 541 0008 FFF7FEFF 		bl	chSysLock
 542              		.loc 5 196 0
 543 000c 009A     		ldr	r2, [sp]
 544 000e 019B     		ldr	r3, [sp, #4]
 545 0010 1100     		movs	r1, r2
 546 0012 1800     		movs	r0, r3
 547 0014 FFF7FEFF 		bl	chPoolFreeI
 548              		.loc 5 197 0
 549 0018 FFF7FEFF 		bl	chSysUnlock
 550              		.loc 5 198 0
 551 001c C046     		nop
 552 001e 03B0     		add	sp, sp, #12
 553              		@ sp needed
 554 0020 00BD     		pop	{pc}
 555              		.cfi_endproc
 556              	.LFE157:
 557              		.size	chPoolFree, .-chPoolFree
 558 0022 C046     		.section	.rodata.__func__.5698,"a",%progbits
 559              		.align	2
 560              		.type	__func__.5698, %object
 561              		.size	__func__.5698, 17
 562              	__func__.5698:
 563 0000 6368506F 		.ascii	"chPoolObjectInit\000"
 563      6F6C4F62 
 563      6A656374 
 563      496E6974 
 563      00
 564              		.section	.rodata.__func__.5704,"a",%progbits
 565              		.align	2
 566              		.type	__func__.5704, %object
ARM GAS  /tmp/ccWRZ51O.s 			page 11


 567              		.size	__func__.5704, 16
 568              	__func__.5704:
 569 0000 6368506F 		.ascii	"chPoolLoadArray\000"
 569      6F6C4C6F 
 569      61644172 
 569      72617900 
 570              		.section	.rodata.__func__.5712,"a",%progbits
 571              		.align	2
 572              		.type	__func__.5712, %object
 573              		.size	__func__.5712, 13
 574              	__func__.5712:
 575 0000 6368506F 		.ascii	"chPoolAllocI\000"
 575      6F6C416C 
 575      6C6F6349 
 575      00
 576              		.section	.rodata.__func__.4993,"a",%progbits
 577              		.align	2
 578              		.type	__func__.4993, %object
 579              		.size	__func__.4993, 12
 580              	__func__.4993:
 581 0000 63685379 		.ascii	"chSysUnlock\000"
 581      73556E6C 
 581      6F636B00 
 582              		.section	.rodata.__func__.5722,"a",%progbits
 583              		.align	2
 584              		.type	__func__.5722, %object
 585              		.size	__func__.5722, 12
 586              	__func__.5722:
 587 0000 6368506F 		.ascii	"chPoolFreeI\000"
 587      6F6C4672 
 587      65654900 
 588              		.text
 589              	.Letext0:
 590              		.file 6 "/home/felix/opt/gcc-arm-none-eabi-6-2017-q1-update/lib/gcc/arm-none-eabi/6.3.1/include/st
 591              		.file 7 "/home/felix/opt/gcc-arm-none-eabi-6-2017-q1-update/arm-none-eabi/include/machine/_default
 592              		.file 8 "/home/felix/opt/gcc-arm-none-eabi-6-2017-q1-update/arm-none-eabi/include/sys/_stdint.h"
 593              		.file 9 "ChibiOS/os/rt/ports/ARMCMx/compilers/GCC/chtypes.h"
 594              		.file 10 "ChibiOS/os/rt/include/chsystypes.h"
 595              		.file 11 "ChibiOS/os/rt/include/chschd.h"
 596              		.file 12 "ChibiOS/os/rt/ports/ARMCMx/chcore.h"
 597              		.file 13 "ChibiOS/os/rt/include/chdebug.h"
 598              		.file 14 "ChibiOS/os/rt/include/chsem.h"
 599              		.file 15 "ChibiOS/os/rt/include/chmtx.h"
 600              		.file 16 "ChibiOS/os/rt/include/chregistry.h"
 601              		.file 17 "ChibiOS/os/ext/CMSIS/ST/STM32F0xx/system_stm32f0xx.h"
 602              		.file 18 "ChibiOS/os/rt/include/chmemcore.h"
 603              		.section	.debug_info,"",%progbits
 604              	.Ldebug_info0:
 605 0000 1D0B0000 		.4byte	0xb1d
 606 0004 0400     		.2byte	0x4
 607 0006 00000000 		.4byte	.Ldebug_abbrev0
 608 000a 04       		.byte	0x4
 609 000b 01       		.uleb128 0x1
 610 000c 71020000 		.4byte	.LASF160
 611 0010 0C       		.byte	0xc
 612 0011 6B070000 		.4byte	.LASF161
 613 0015 93030000 		.4byte	.LASF162
ARM GAS  /tmp/ccWRZ51O.s 			page 12


 614 0019 00000000 		.4byte	.Ldebug_ranges0+0
 615 001d 00000000 		.4byte	0
 616 0021 00000000 		.4byte	.Ldebug_line0
 617 0025 02       		.uleb128 0x2
 618 0026 04       		.byte	0x4
 619 0027 05       		.byte	0x5
 620 0028 696E7400 		.ascii	"int\000"
 621 002c 03       		.uleb128 0x3
 622 002d 32020000 		.4byte	.LASF4
 623 0031 06       		.byte	0x6
 624 0032 D8       		.byte	0xd8
 625 0033 37000000 		.4byte	0x37
 626 0037 04       		.uleb128 0x4
 627 0038 04       		.byte	0x4
 628 0039 07       		.byte	0x7
 629 003a A0000000 		.4byte	.LASF0
 630 003e 04       		.uleb128 0x4
 631 003f 08       		.byte	0x8
 632 0040 05       		.byte	0x5
 633 0041 5E040000 		.4byte	.LASF1
 634 0045 04       		.uleb128 0x4
 635 0046 08       		.byte	0x8
 636 0047 04       		.byte	0x4
 637 0048 1A050000 		.4byte	.LASF2
 638 004c 04       		.uleb128 0x4
 639 004d 01       		.byte	0x1
 640 004e 06       		.byte	0x6
 641 004f 2E070000 		.4byte	.LASF3
 642 0053 03       		.uleb128 0x3
 643 0054 04060000 		.4byte	.LASF5
 644 0058 07       		.byte	0x7
 645 0059 2B       		.byte	0x2b
 646 005a 5E000000 		.4byte	0x5e
 647 005e 04       		.uleb128 0x4
 648 005f 01       		.byte	0x1
 649 0060 08       		.byte	0x8
 650 0061 AC060000 		.4byte	.LASF6
 651 0065 04       		.uleb128 0x4
 652 0066 02       		.byte	0x2
 653 0067 05       		.byte	0x5
 654 0068 58050000 		.4byte	.LASF7
 655 006c 03       		.uleb128 0x3
 656 006d DD010000 		.4byte	.LASF8
 657 0071 07       		.byte	0x7
 658 0072 39       		.byte	0x39
 659 0073 77000000 		.4byte	0x77
 660 0077 04       		.uleb128 0x4
 661 0078 02       		.byte	0x2
 662 0079 07       		.byte	0x7
 663 007a 47070000 		.4byte	.LASF9
 664 007e 03       		.uleb128 0x3
 665 007f BC000000 		.4byte	.LASF10
 666 0083 07       		.byte	0x7
 667 0084 4D       		.byte	0x4d
 668 0085 89000000 		.4byte	0x89
 669 0089 04       		.uleb128 0x4
 670 008a 04       		.byte	0x4
ARM GAS  /tmp/ccWRZ51O.s 			page 13


 671 008b 05       		.byte	0x5
 672 008c 7F050000 		.4byte	.LASF11
 673 0090 03       		.uleb128 0x3
 674 0091 BA060000 		.4byte	.LASF12
 675 0095 07       		.byte	0x7
 676 0096 4F       		.byte	0x4f
 677 0097 9B000000 		.4byte	0x9b
 678 009b 04       		.uleb128 0x4
 679 009c 04       		.byte	0x4
 680 009d 07       		.byte	0x7
 681 009e 41060000 		.4byte	.LASF13
 682 00a2 03       		.uleb128 0x3
 683 00a3 48030000 		.4byte	.LASF14
 684 00a7 07       		.byte	0x7
 685 00a8 69       		.byte	0x69
 686 00a9 AD000000 		.4byte	0xad
 687 00ad 04       		.uleb128 0x4
 688 00ae 08       		.byte	0x8
 689 00af 07       		.byte	0x7
 690 00b0 B4010000 		.4byte	.LASF15
 691 00b4 03       		.uleb128 0x3
 692 00b5 11040000 		.4byte	.LASF16
 693 00b9 08       		.byte	0x8
 694 00ba 18       		.byte	0x18
 695 00bb 53000000 		.4byte	0x53
 696 00bf 03       		.uleb128 0x3
 697 00c0 26050000 		.4byte	.LASF17
 698 00c4 08       		.byte	0x8
 699 00c5 24       		.byte	0x24
 700 00c6 6C000000 		.4byte	0x6c
 701 00ca 03       		.uleb128 0x3
 702 00cb 79060000 		.4byte	.LASF18
 703 00cf 08       		.byte	0x8
 704 00d0 2C       		.byte	0x2c
 705 00d1 7E000000 		.4byte	0x7e
 706 00d5 03       		.uleb128 0x3
 707 00d6 5F010000 		.4byte	.LASF19
 708 00da 08       		.byte	0x8
 709 00db 30       		.byte	0x30
 710 00dc 90000000 		.4byte	0x90
 711 00e0 03       		.uleb128 0x3
 712 00e1 CB050000 		.4byte	.LASF20
 713 00e5 08       		.byte	0x8
 714 00e6 3C       		.byte	0x3c
 715 00e7 A2000000 		.4byte	0xa2
 716 00eb 03       		.uleb128 0x3
 717 00ec FF040000 		.4byte	.LASF21
 718 00f0 09       		.byte	0x9
 719 00f1 3C       		.byte	0x3c
 720 00f2 B4000000 		.4byte	0xb4
 721 00f6 03       		.uleb128 0x3
 722 00f7 E7030000 		.4byte	.LASF22
 723 00fb 09       		.byte	0x9
 724 00fc 3D       		.byte	0x3d
 725 00fd B4000000 		.4byte	0xb4
 726 0101 03       		.uleb128 0x3
 727 0102 39060000 		.4byte	.LASF23
ARM GAS  /tmp/ccWRZ51O.s 			page 14


 728 0106 09       		.byte	0x9
 729 0107 3E       		.byte	0x3e
 730 0108 B4000000 		.4byte	0xb4
 731 010c 03       		.uleb128 0x3
 732 010d 9B010000 		.4byte	.LASF24
 733 0111 09       		.byte	0x9
 734 0112 40       		.byte	0x40
 735 0113 D5000000 		.4byte	0xd5
 736 0117 03       		.uleb128 0x3
 737 0118 7C040000 		.4byte	.LASF25
 738 011c 09       		.byte	0x9
 739 011d 41       		.byte	0x41
 740 011e CA000000 		.4byte	0xca
 741 0122 03       		.uleb128 0x3
 742 0123 74010000 		.4byte	.LASF26
 743 0127 09       		.byte	0x9
 744 0128 43       		.byte	0x43
 745 0129 D5000000 		.4byte	0xd5
 746 012d 03       		.uleb128 0x3
 747 012e E8010000 		.4byte	.LASF27
 748 0132 09       		.byte	0x9
 749 0133 45       		.byte	0x45
 750 0134 CA000000 		.4byte	0xca
 751 0138 03       		.uleb128 0x3
 752 0139 6E000000 		.4byte	.LASF28
 753 013d 0A       		.byte	0xa
 754 013e 35       		.byte	0x35
 755 013f BF000000 		.4byte	0xbf
 756 0143 03       		.uleb128 0x3
 757 0144 29020000 		.4byte	.LASF29
 758 0148 0A       		.byte	0xa
 759 0149 3F       		.byte	0x3f
 760 014a 4E010000 		.4byte	0x14e
 761 014e 05       		.uleb128 0x5
 762 014f 3D040000 		.4byte	.LASF50
 763 0153 48       		.byte	0x48
 764 0154 0B       		.byte	0xb
 765 0155 C2       		.byte	0xc2
 766 0156 47020000 		.4byte	0x247
 767 015a 06       		.uleb128 0x6
 768 015b BB050000 		.4byte	.LASF30
 769 015f 0B       		.byte	0xb
 770 0160 C3       		.byte	0xc3
 771 0161 52020000 		.4byte	0x252
 772 0165 00       		.byte	0
 773 0166 06       		.uleb128 0x6
 774 0167 29060000 		.4byte	.LASF31
 775 016b 0B       		.byte	0xb
 776 016c C5       		.byte	0xc5
 777 016d 52020000 		.4byte	0x252
 778 0171 04       		.byte	0x4
 779 0172 06       		.uleb128 0x6
 780 0173 5D000000 		.4byte	.LASF32
 781 0177 0B       		.byte	0xb
 782 0178 C7       		.byte	0xc7
 783 0179 0C010000 		.4byte	0x10c
 784 017d 08       		.byte	0x8
ARM GAS  /tmp/ccWRZ51O.s 			page 15


 785 017e 06       		.uleb128 0x6
 786 017f D4050000 		.4byte	.LASF33
 787 0183 0B       		.byte	0xb
 788 0184 C8       		.byte	0xc8
 789 0185 AB040000 		.4byte	0x4ab
 790 0189 0C       		.byte	0xc
 791 018a 06       		.uleb128 0x6
 792 018b 02020000 		.4byte	.LASF34
 793 018f 0B       		.byte	0xb
 794 0190 CA       		.byte	0xca
 795 0191 52020000 		.4byte	0x252
 796 0195 10       		.byte	0x10
 797 0196 06       		.uleb128 0x6
 798 0197 F6030000 		.4byte	.LASF35
 799 019b 0B       		.byte	0xb
 800 019c CB       		.byte	0xcb
 801 019d 52020000 		.4byte	0x252
 802 01a1 14       		.byte	0x14
 803 01a2 06       		.uleb128 0x6
 804 01a3 78030000 		.4byte	.LASF36
 805 01a7 0B       		.byte	0xb
 806 01a8 D2       		.byte	0xd2
 807 01a9 94060000 		.4byte	0x694
 808 01ad 18       		.byte	0x18
 809 01ae 06       		.uleb128 0x6
 810 01af 06040000 		.4byte	.LASF37
 811 01b3 0B       		.byte	0xb
 812 01b4 D8       		.byte	0xd8
 813 01b5 AB060000 		.4byte	0x6ab
 814 01b9 1C       		.byte	0x1c
 815 01ba 06       		.uleb128 0x6
 816 01bb FE030000 		.4byte	.LASF38
 817 01bf 0B       		.byte	0xb
 818 01c0 DD       		.byte	0xdd
 819 01c1 F6000000 		.4byte	0xf6
 820 01c5 20       		.byte	0x20
 821 01c6 06       		.uleb128 0x6
 822 01c7 9B040000 		.4byte	.LASF39
 823 01cb 0B       		.byte	0xb
 824 01cc E1       		.byte	0xe1
 825 01cd EB000000 		.4byte	0xeb
 826 01d1 21       		.byte	0x21
 827 01d2 06       		.uleb128 0x6
 828 01d3 DB060000 		.4byte	.LASF40
 829 01d7 0B       		.byte	0xb
 830 01d8 E6       		.byte	0xe6
 831 01d9 01010000 		.4byte	0x101
 832 01dd 22       		.byte	0x22
 833 01de 07       		.uleb128 0x7
 834 01df 705F7500 		.ascii	"p_u\000"
 835 01e3 0B       		.byte	0xb
 836 01e4 3101     		.2byte	0x131
 837 01e6 CF050000 		.4byte	0x5cf
 838 01ea 24       		.byte	0x24
 839 01eb 08       		.uleb128 0x8
 840 01ec 20000000 		.4byte	.LASF41
 841 01f0 0B       		.byte	0xb
ARM GAS  /tmp/ccWRZ51O.s 			page 16


 842 01f1 3601     		.2byte	0x136
 843 01f3 58020000 		.4byte	0x258
 844 01f7 28       		.byte	0x28
 845 01f8 08       		.uleb128 0x8
 846 01f9 95000000 		.4byte	.LASF42
 847 01fd 0B       		.byte	0xb
 848 01fe 3C01     		.2byte	0x13c
 849 0200 7C020000 		.4byte	0x27c
 850 0204 2C       		.byte	0x2c
 851 0205 08       		.uleb128 0x8
 852 0206 F9040000 		.4byte	.LASF43
 853 020a 0B       		.byte	0xb
 854 020b 4001     		.2byte	0x140
 855 020d 17010000 		.4byte	0x117
 856 0211 34       		.byte	0x34
 857 0212 08       		.uleb128 0x8
 858 0213 6C050000 		.4byte	.LASF44
 859 0217 0B       		.byte	0xb
 860 0218 4601     		.2byte	0x146
 861 021a 22010000 		.4byte	0x122
 862 021e 38       		.byte	0x38
 863 021f 08       		.uleb128 0x8
 864 0220 33040000 		.4byte	.LASF45
 865 0224 0B       		.byte	0xb
 866 0225 4D01     		.2byte	0x14d
 867 0227 8E060000 		.4byte	0x68e
 868 022b 3C       		.byte	0x3c
 869 022c 08       		.uleb128 0x8
 870 022d 42050000 		.4byte	.LASF46
 871 0231 0B       		.byte	0xb
 872 0232 5101     		.2byte	0x151
 873 0234 0C010000 		.4byte	0x10c
 874 0238 40       		.byte	0x40
 875 0239 08       		.uleb128 0x8
 876 023a 2B040000 		.4byte	.LASF47
 877 023e 0B       		.byte	0xb
 878 023f 5801     		.2byte	0x158
 879 0241 2F030000 		.4byte	0x32f
 880 0245 44       		.byte	0x44
 881 0246 00       		.byte	0
 882 0247 03       		.uleb128 0x3
 883 0248 C8030000 		.4byte	.LASF48
 884 024c 0A       		.byte	0xa
 885 024d 44       		.byte	0x44
 886 024e 52020000 		.4byte	0x252
 887 0252 09       		.uleb128 0x9
 888 0253 04       		.byte	0x4
 889 0254 43010000 		.4byte	0x143
 890 0258 03       		.uleb128 0x3
 891 0259 AD000000 		.4byte	.LASF49
 892 025d 0A       		.byte	0xa
 893 025e 49       		.byte	0x49
 894 025f 63020000 		.4byte	0x263
 895 0263 05       		.uleb128 0x5
 896 0264 00000000 		.4byte	.LASF51
 897 0268 04       		.byte	0x4
 898 0269 0B       		.byte	0xb
ARM GAS  /tmp/ccWRZ51O.s 			page 17


 899 026a B0       		.byte	0xb0
 900 026b 7C020000 		.4byte	0x27c
 901 026f 06       		.uleb128 0x6
 902 0270 BB050000 		.4byte	.LASF30
 903 0274 0B       		.byte	0xb
 904 0275 B1       		.byte	0xb1
 905 0276 52020000 		.4byte	0x252
 906 027a 00       		.byte	0
 907 027b 00       		.byte	0
 908 027c 03       		.uleb128 0x3
 909 027d 10000000 		.4byte	.LASF52
 910 0281 0A       		.byte	0xa
 911 0282 50       		.byte	0x50
 912 0283 87020000 		.4byte	0x287
 913 0287 05       		.uleb128 0x5
 914 0288 24010000 		.4byte	.LASF53
 915 028c 08       		.byte	0x8
 916 028d 0B       		.byte	0xb
 917 028e B7       		.byte	0xb7
 918 028f AC020000 		.4byte	0x2ac
 919 0293 06       		.uleb128 0x6
 920 0294 BB050000 		.4byte	.LASF30
 921 0298 0B       		.byte	0xb
 922 0299 B8       		.byte	0xb8
 923 029a 52020000 		.4byte	0x252
 924 029e 00       		.byte	0
 925 029f 06       		.uleb128 0x6
 926 02a0 29060000 		.4byte	.LASF31
 927 02a4 0B       		.byte	0xb
 928 02a5 B9       		.byte	0xb9
 929 02a6 52020000 		.4byte	0x252
 930 02aa 04       		.byte	0x4
 931 02ab 00       		.byte	0
 932 02ac 03       		.uleb128 0x3
 933 02ad 60060000 		.4byte	.LASF54
 934 02b1 0A       		.byte	0xa
 935 02b2 57       		.byte	0x57
 936 02b3 B7020000 		.4byte	0x2b7
 937 02b7 0A       		.uleb128 0xa
 938 02b8 F3000000 		.4byte	.LASF55
 939 02bc 1C       		.byte	0x1c
 940 02bd 0B       		.byte	0xb
 941 02be 9001     		.2byte	0x190
 942 02c0 13030000 		.4byte	0x313
 943 02c4 08       		.uleb128 0x8
 944 02c5 6C040000 		.4byte	.LASF56
 945 02c9 0B       		.byte	0xb
 946 02ca 9101     		.2byte	0x191
 947 02cc 7C020000 		.4byte	0x27c
 948 02d0 00       		.byte	0
 949 02d1 08       		.uleb128 0x8
 950 02d2 80010000 		.4byte	.LASF57
 951 02d6 0B       		.byte	0xb
 952 02d7 9201     		.2byte	0x192
 953 02d9 0C010000 		.4byte	0x10c
 954 02dd 08       		.byte	0x8
 955 02de 08       		.uleb128 0x8
ARM GAS  /tmp/ccWRZ51O.s 			page 18


 956 02df 5A070000 		.4byte	.LASF58
 957 02e3 0B       		.byte	0xb
 958 02e4 9401     		.2byte	0x194
 959 02e6 AB040000 		.4byte	0x4ab
 960 02ea 0C       		.byte	0xc
 961 02eb 08       		.uleb128 0x8
 962 02ec 74040000 		.4byte	.LASF59
 963 02f0 0B       		.byte	0xb
 964 02f1 9701     		.2byte	0x197
 965 02f3 52020000 		.4byte	0x252
 966 02f7 10       		.byte	0x10
 967 02f8 08       		.uleb128 0x8
 968 02f9 D8040000 		.4byte	.LASF60
 969 02fd 0B       		.byte	0xb
 970 02fe 9801     		.2byte	0x198
 971 0300 52020000 		.4byte	0x252
 972 0304 14       		.byte	0x14
 973 0305 08       		.uleb128 0x8
 974 0306 62050000 		.4byte	.LASF61
 975 030a 0B       		.byte	0xb
 976 030b 9B01     		.2byte	0x19b
 977 030d 52020000 		.4byte	0x252
 978 0311 18       		.byte	0x18
 979 0312 00       		.byte	0
 980 0313 03       		.uleb128 0x3
 981 0314 40010000 		.4byte	.LASF62
 982 0318 0A       		.byte	0xa
 983 0319 5C       		.byte	0x5c
 984 031a 1E030000 		.4byte	0x31e
 985 031e 09       		.uleb128 0x9
 986 031f 04       		.byte	0x4
 987 0320 24030000 		.4byte	0x324
 988 0324 0B       		.uleb128 0xb
 989 0325 2F030000 		.4byte	0x32f
 990 0329 0C       		.uleb128 0xc
 991 032a 2F030000 		.4byte	0x32f
 992 032e 00       		.byte	0
 993 032f 0D       		.uleb128 0xd
 994 0330 04       		.byte	0x4
 995 0331 03       		.uleb128 0x3
 996 0332 A3040000 		.4byte	.LASF63
 997 0336 0A       		.byte	0xa
 998 0337 61       		.byte	0x61
 999 0338 3C030000 		.4byte	0x33c
 1000 033c 0A       		.uleb128 0xa
 1001 033d A3010000 		.4byte	.LASF64
 1002 0341 14       		.byte	0x14
 1003 0342 0B       		.byte	0xb
 1004 0343 6B01     		.2byte	0x16b
 1005 0345 8B030000 		.4byte	0x38b
 1006 0349 08       		.uleb128 0x8
 1007 034a FB060000 		.4byte	.LASF65
 1008 034e 0B       		.byte	0xb
 1009 034f 6C01     		.2byte	0x16c
 1010 0351 B1060000 		.4byte	0x6b1
 1011 0355 00       		.byte	0
 1012 0356 08       		.uleb128 0x8
ARM GAS  /tmp/ccWRZ51O.s 			page 19


 1013 0357 B0070000 		.4byte	.LASF66
 1014 035b 0B       		.byte	0xb
 1015 035c 6D01     		.2byte	0x16d
 1016 035e B1060000 		.4byte	0x6b1
 1017 0362 04       		.byte	0x4
 1018 0363 08       		.uleb128 0x8
 1019 0364 8A030000 		.4byte	.LASF67
 1020 0368 0B       		.byte	0xb
 1021 0369 6E01     		.2byte	0x16e
 1022 036b 38010000 		.4byte	0x138
 1023 036f 08       		.byte	0x8
 1024 0370 08       		.uleb128 0x8
 1025 0371 9C070000 		.4byte	.LASF68
 1026 0375 0B       		.byte	0xb
 1027 0376 6F01     		.2byte	0x16f
 1028 0378 13030000 		.4byte	0x313
 1029 037c 0C       		.byte	0xc
 1030 037d 08       		.uleb128 0x8
 1031 037e 87010000 		.4byte	.LASF69
 1032 0382 0B       		.byte	0xb
 1033 0383 7101     		.2byte	0x171
 1034 0385 2F030000 		.4byte	0x32f
 1035 0389 10       		.byte	0x10
 1036 038a 00       		.byte	0
 1037 038b 03       		.uleb128 0x3
 1038 038c C5060000 		.4byte	.LASF70
 1039 0390 0A       		.byte	0xa
 1040 0391 66       		.byte	0x66
 1041 0392 96030000 		.4byte	0x396
 1042 0396 0A       		.uleb128 0xa
 1043 0397 0A020000 		.4byte	.LASF71
 1044 039b 0C       		.byte	0xc
 1045 039c 0B       		.byte	0xb
 1046 039d 7B01     		.2byte	0x17b
 1047 039f D8030000 		.4byte	0x3d8
 1048 03a3 08       		.uleb128 0x8
 1049 03a4 FB060000 		.4byte	.LASF65
 1050 03a8 0B       		.byte	0xb
 1051 03a9 7C01     		.2byte	0x17c
 1052 03ab B1060000 		.4byte	0x6b1
 1053 03af 00       		.byte	0
 1054 03b0 08       		.uleb128 0x8
 1055 03b1 B0070000 		.4byte	.LASF66
 1056 03b5 0B       		.byte	0xb
 1057 03b6 7E01     		.2byte	0x17e
 1058 03b8 B1060000 		.4byte	0x6b1
 1059 03bc 04       		.byte	0x4
 1060 03bd 08       		.uleb128 0x8
 1061 03be 8A030000 		.4byte	.LASF67
 1062 03c2 0B       		.byte	0xb
 1063 03c3 8001     		.2byte	0x180
 1064 03c5 38010000 		.4byte	0x138
 1065 03c9 08       		.byte	0x8
 1066 03ca 08       		.uleb128 0x8
 1067 03cb DB030000 		.4byte	.LASF72
 1068 03cf 0B       		.byte	0xb
 1069 03d0 8801     		.2byte	0x188
ARM GAS  /tmp/ccWRZ51O.s 			page 20


 1070 03d2 38010000 		.4byte	0x138
 1071 03d6 0A       		.byte	0xa
 1072 03d7 00       		.byte	0
 1073 03d8 03       		.uleb128 0x3
 1074 03d9 4F040000 		.4byte	.LASF73
 1075 03dd 0A       		.byte	0xa
 1076 03de 6B       		.byte	0x6b
 1077 03df E3030000 		.4byte	0x3e3
 1078 03e3 0E       		.uleb128 0xe
 1079 03e4 4F010000 		.4byte	.LASF74
 1080 03e8 1404     		.2byte	0x414
 1081 03ea 0B       		.byte	0xb
 1082 03eb A201     		.2byte	0x1a2
 1083 03ed 26040000 		.4byte	0x426
 1084 03f1 08       		.uleb128 0x8
 1085 03f2 EF040000 		.4byte	.LASF75
 1086 03f6 0B       		.byte	0xb
 1087 03f7 AA01     		.2byte	0x1aa
 1088 03f9 9A060000 		.4byte	0x69a
 1089 03fd 00       		.byte	0
 1090 03fe 08       		.uleb128 0x8
 1091 03ff FA010000 		.4byte	.LASF76
 1092 0403 0B       		.byte	0xb
 1093 0404 AF01     		.2byte	0x1af
 1094 0406 2D010000 		.4byte	0x12d
 1095 040a 04       		.byte	0x4
 1096 040b 08       		.uleb128 0x8
 1097 040c 39050000 		.4byte	.LASF77
 1098 0410 0B       		.byte	0xb
 1099 0411 B301     		.2byte	0x1b3
 1100 0413 2D010000 		.4byte	0x12d
 1101 0417 08       		.byte	0x8
 1102 0418 08       		.uleb128 0x8
 1103 0419 81060000 		.4byte	.LASF78
 1104 041d 0B       		.byte	0xb
 1105 041e B901     		.2byte	0x1b9
 1106 0420 C4050000 		.4byte	0x5c4
 1107 0424 0C       		.byte	0xc
 1108 0425 00       		.byte	0
 1109 0426 03       		.uleb128 0x3
 1110 0427 03070000 		.4byte	.LASF79
 1111 042b 0A       		.byte	0xa
 1112 042c 70       		.byte	0x70
 1113 042d 31040000 		.4byte	0x431
 1114 0431 0E       		.uleb128 0xe
 1115 0432 A1050000 		.4byte	.LASF80
 1116 0436 6805     		.2byte	0x568
 1117 0438 0B       		.byte	0xb
 1118 0439 C201     		.2byte	0x1c2
 1119 043b 83040000 		.4byte	0x483
 1120 043f 08       		.uleb128 0x8
 1121 0440 DA050000 		.4byte	.LASF81
 1122 0444 0B       		.byte	0xb
 1123 0445 C601     		.2byte	0x1c6
 1124 0447 AC020000 		.4byte	0x2ac
 1125 044b 00       		.byte	0
 1126 044c 08       		.uleb128 0x8
ARM GAS  /tmp/ccWRZ51O.s 			page 21


 1127 044d EC000000 		.4byte	.LASF82
 1128 0451 0B       		.byte	0xb
 1129 0452 CA01     		.2byte	0x1ca
 1130 0454 8B030000 		.4byte	0x38b
 1131 0458 1C       		.byte	0x1c
 1132 0459 07       		.uleb128 0x7
 1133 045a 64626700 		.ascii	"dbg\000"
 1134 045e 0B       		.byte	0xb
 1135 045f CE01     		.2byte	0x1ce
 1136 0461 D8030000 		.4byte	0x3d8
 1137 0465 28       		.byte	0x28
 1138 0466 0F       		.uleb128 0xf
 1139 0467 0F050000 		.4byte	.LASF83
 1140 046b 0B       		.byte	0xb
 1141 046c D201     		.2byte	0x1d2
 1142 046e 43010000 		.4byte	0x143
 1143 0472 3C04     		.2byte	0x43c
 1144 0474 0F       		.uleb128 0xf
 1145 0475 01010000 		.4byte	.LASF84
 1146 0479 0B       		.byte	0xb
 1147 047a E301     		.2byte	0x1e3
 1148 047c B7060000 		.4byte	0x6b7
 1149 0480 8804     		.2byte	0x488
 1150 0482 00       		.byte	0
 1151 0483 04       		.uleb128 0x4
 1152 0484 04       		.byte	0x4
 1153 0485 07       		.byte	0x7
 1154 0486 30060000 		.4byte	.LASF85
 1155 048a 10       		.uleb128 0x10
 1156 048b 2A000000 		.4byte	.LASF114
 1157 048f 11       		.byte	0x11
 1158 0490 4C       		.byte	0x4c
 1159 0491 D5000000 		.4byte	0xd5
 1160 0495 03       		.uleb128 0x3
 1161 0496 54000000 		.4byte	.LASF86
 1162 049a 0C       		.byte	0xc
 1163 049b 65       		.byte	0x65
 1164 049c 2F030000 		.4byte	0x32f
 1165 04a0 03       		.uleb128 0x3
 1166 04a1 60070000 		.4byte	.LASF87
 1167 04a5 0C       		.byte	0xc
 1168 04a6 6D       		.byte	0x6d
 1169 04a7 E0000000 		.4byte	0xe0
 1170 04ab 05       		.uleb128 0x5
 1171 04ac 82040000 		.4byte	.LASF88
 1172 04b0 04       		.byte	0x4
 1173 04b1 0C       		.byte	0xc
 1174 04b2 89       		.byte	0x89
 1175 04b3 C4040000 		.4byte	0x4c4
 1176 04b7 11       		.uleb128 0x11
 1177 04b8 72313300 		.ascii	"r13\000"
 1178 04bc 0C       		.byte	0xc
 1179 04bd 8A       		.byte	0x8a
 1180 04be 36050000 		.4byte	0x536
 1181 04c2 00       		.byte	0
 1182 04c3 00       		.byte	0
 1183 04c4 05       		.uleb128 0x5
ARM GAS  /tmp/ccWRZ51O.s 			page 22


 1184 04c5 88050000 		.4byte	.LASF89
 1185 04c9 24       		.byte	0x24
 1186 04ca 01       		.byte	0x1
 1187 04cb A4       		.byte	0xa4
 1188 04cc 36050000 		.4byte	0x536
 1189 04d0 11       		.uleb128 0x11
 1190 04d1 723800   		.ascii	"r8\000"
 1191 04d4 01       		.byte	0x1
 1192 04d5 A5       		.byte	0xa5
 1193 04d6 95040000 		.4byte	0x495
 1194 04da 00       		.byte	0
 1195 04db 11       		.uleb128 0x11
 1196 04dc 723900   		.ascii	"r9\000"
 1197 04df 01       		.byte	0x1
 1198 04e0 A6       		.byte	0xa6
 1199 04e1 95040000 		.4byte	0x495
 1200 04e5 04       		.byte	0x4
 1201 04e6 11       		.uleb128 0x11
 1202 04e7 72313000 		.ascii	"r10\000"
 1203 04eb 01       		.byte	0x1
 1204 04ec A7       		.byte	0xa7
 1205 04ed 95040000 		.4byte	0x495
 1206 04f1 08       		.byte	0x8
 1207 04f2 11       		.uleb128 0x11
 1208 04f3 72313100 		.ascii	"r11\000"
 1209 04f7 01       		.byte	0x1
 1210 04f8 A8       		.byte	0xa8
 1211 04f9 95040000 		.4byte	0x495
 1212 04fd 0C       		.byte	0xc
 1213 04fe 11       		.uleb128 0x11
 1214 04ff 723400   		.ascii	"r4\000"
 1215 0502 01       		.byte	0x1
 1216 0503 A9       		.byte	0xa9
 1217 0504 95040000 		.4byte	0x495
 1218 0508 10       		.byte	0x10
 1219 0509 11       		.uleb128 0x11
 1220 050a 723500   		.ascii	"r5\000"
 1221 050d 01       		.byte	0x1
 1222 050e AA       		.byte	0xaa
 1223 050f 95040000 		.4byte	0x495
 1224 0513 14       		.byte	0x14
 1225 0514 11       		.uleb128 0x11
 1226 0515 723600   		.ascii	"r6\000"
 1227 0518 01       		.byte	0x1
 1228 0519 AB       		.byte	0xab
 1229 051a 95040000 		.4byte	0x495
 1230 051e 18       		.byte	0x18
 1231 051f 11       		.uleb128 0x11
 1232 0520 723700   		.ascii	"r7\000"
 1233 0523 01       		.byte	0x1
 1234 0524 AC       		.byte	0xac
 1235 0525 95040000 		.4byte	0x495
 1236 0529 1C       		.byte	0x1c
 1237 052a 11       		.uleb128 0x11
 1238 052b 6C7200   		.ascii	"lr\000"
 1239 052e 01       		.byte	0x1
 1240 052f AD       		.byte	0xad
ARM GAS  /tmp/ccWRZ51O.s 			page 23


 1241 0530 95040000 		.4byte	0x495
 1242 0534 20       		.byte	0x20
 1243 0535 00       		.byte	0
 1244 0536 09       		.uleb128 0x9
 1245 0537 04       		.byte	0x4
 1246 0538 C4040000 		.4byte	0x4c4
 1247 053c 12       		.uleb128 0x12
 1248 053d 10       		.byte	0x10
 1249 053e 0D       		.byte	0xd
 1250 053f 51       		.byte	0x51
 1251 0540 75050000 		.4byte	0x575
 1252 0544 06       		.uleb128 0x6
 1253 0545 21020000 		.4byte	.LASF90
 1254 0549 0D       		.byte	0xd
 1255 054a 55       		.byte	0x55
 1256 054b 38010000 		.4byte	0x138
 1257 054f 00       		.byte	0
 1258 0550 06       		.uleb128 0x6
 1259 0551 F0030000 		.4byte	.LASF91
 1260 0555 0D       		.byte	0xd
 1261 0556 59       		.byte	0x59
 1262 0557 52020000 		.4byte	0x252
 1263 055b 04       		.byte	0x4
 1264 055c 06       		.uleb128 0x6
 1265 055d CB010000 		.4byte	.LASF92
 1266 0561 0D       		.byte	0xd
 1267 0562 5D       		.byte	0x5d
 1268 0563 2F030000 		.4byte	0x32f
 1269 0567 08       		.byte	0x8
 1270 0568 06       		.uleb128 0x6
 1271 0569 C6000000 		.4byte	.LASF93
 1272 056d 0D       		.byte	0xd
 1273 056e 61       		.byte	0x61
 1274 056f B4000000 		.4byte	0xb4
 1275 0573 0C       		.byte	0xc
 1276 0574 00       		.byte	0
 1277 0575 03       		.uleb128 0x3
 1278 0576 95060000 		.4byte	.LASF94
 1279 057a 0D       		.byte	0xd
 1280 057b 62       		.byte	0x62
 1281 057c 3C050000 		.4byte	0x53c
 1282 0580 13       		.uleb128 0x13
 1283 0581 0804     		.2byte	0x408
 1284 0583 0D       		.byte	0xd
 1285 0584 67       		.byte	0x67
 1286 0585 AE050000 		.4byte	0x5ae
 1287 0589 06       		.uleb128 0x6
 1288 058a 47040000 		.4byte	.LASF95
 1289 058e 0D       		.byte	0xd
 1290 058f 6B       		.byte	0x6b
 1291 0590 37000000 		.4byte	0x37
 1292 0594 00       		.byte	0
 1293 0595 06       		.uleb128 0x6
 1294 0596 D1040000 		.4byte	.LASF96
 1295 059a 0D       		.byte	0xd
 1296 059b 6F       		.byte	0x6f
 1297 059c AE050000 		.4byte	0x5ae
ARM GAS  /tmp/ccWRZ51O.s 			page 24


 1298 05a0 04       		.byte	0x4
 1299 05a1 06       		.uleb128 0x6
 1300 05a2 19040000 		.4byte	.LASF97
 1301 05a6 0D       		.byte	0xd
 1302 05a7 73       		.byte	0x73
 1303 05a8 B4050000 		.4byte	0x5b4
 1304 05ac 08       		.byte	0x8
 1305 05ad 00       		.byte	0
 1306 05ae 09       		.uleb128 0x9
 1307 05af 04       		.byte	0x4
 1308 05b0 75050000 		.4byte	0x575
 1309 05b4 14       		.uleb128 0x14
 1310 05b5 75050000 		.4byte	0x575
 1311 05b9 C4050000 		.4byte	0x5c4
 1312 05bd 15       		.uleb128 0x15
 1313 05be 83040000 		.4byte	0x483
 1314 05c2 3F       		.byte	0x3f
 1315 05c3 00       		.byte	0
 1316 05c4 03       		.uleb128 0x3
 1317 05c5 15070000 		.4byte	.LASF98
 1318 05c9 0D       		.byte	0xd
 1319 05ca 74       		.byte	0x74
 1320 05cb 80050000 		.4byte	0x580
 1321 05cf 16       		.uleb128 0x16
 1322 05d0 04       		.byte	0x4
 1323 05d1 0B       		.byte	0xb
 1324 05d2 FA       		.byte	0xfa
 1325 05d3 2C060000 		.4byte	0x62c
 1326 05d7 17       		.uleb128 0x17
 1327 05d8 39020000 		.4byte	.LASF99
 1328 05dc 0B       		.byte	0xb
 1329 05dd 0101     		.2byte	0x101
 1330 05df 17010000 		.4byte	0x117
 1331 05e3 17       		.uleb128 0x17
 1332 05e4 B8070000 		.4byte	.LASF100
 1333 05e8 0B       		.byte	0xb
 1334 05e9 0801     		.2byte	0x108
 1335 05eb 17010000 		.4byte	0x117
 1336 05ef 17       		.uleb128 0x17
 1337 05f0 DB000000 		.4byte	.LASF101
 1338 05f4 0B       		.byte	0xb
 1339 05f5 0F01     		.2byte	0x10f
 1340 05f7 2F030000 		.4byte	0x32f
 1341 05fb 17       		.uleb128 0x17
 1342 05fc 0F070000 		.4byte	.LASF102
 1343 0600 0B       		.byte	0xb
 1344 0601 1601     		.2byte	0x116
 1345 0603 2C060000 		.4byte	0x62c
 1346 0607 17       		.uleb128 0x17
 1347 0608 8E060000 		.4byte	.LASF103
 1348 060c 0B       		.byte	0xb
 1349 060d 1E01     		.2byte	0x11e
 1350 060f 57060000 		.4byte	0x657
 1351 0613 17       		.uleb128 0x17
 1352 0614 3A000000 		.4byte	.LASF104
 1353 0618 0B       		.byte	0xb
 1354 0619 2701     		.2byte	0x127
ARM GAS  /tmp/ccWRZ51O.s 			page 25


 1355 061b 8E060000 		.4byte	0x68e
 1356 061f 17       		.uleb128 0x17
 1357 0620 10010000 		.4byte	.LASF105
 1358 0624 0B       		.byte	0xb
 1359 0625 2F01     		.2byte	0x12f
 1360 0627 22010000 		.4byte	0x122
 1361 062b 00       		.byte	0
 1362 062c 09       		.uleb128 0x9
 1363 062d 04       		.byte	0x4
 1364 062e 47020000 		.4byte	0x247
 1365 0632 05       		.uleb128 0x5
 1366 0633 8E010000 		.4byte	.LASF106
 1367 0637 0C       		.byte	0xc
 1368 0638 0E       		.byte	0xe
 1369 0639 34       		.byte	0x34
 1370 063a 57060000 		.4byte	0x657
 1371 063e 06       		.uleb128 0x6
 1372 063f 8D000000 		.4byte	.LASF107
 1373 0643 0E       		.byte	0xe
 1374 0644 35       		.byte	0x35
 1375 0645 7C020000 		.4byte	0x27c
 1376 0649 00       		.byte	0
 1377 064a 06       		.uleb128 0x6
 1378 064b 49010000 		.4byte	.LASF108
 1379 064f 0E       		.byte	0xe
 1380 0650 37       		.byte	0x37
 1381 0651 2D010000 		.4byte	0x12d
 1382 0655 08       		.byte	0x8
 1383 0656 00       		.byte	0
 1384 0657 09       		.uleb128 0x9
 1385 0658 04       		.byte	0x4
 1386 0659 32060000 		.4byte	0x632
 1387 065d 05       		.uleb128 0x5
 1388 065e 3F030000 		.4byte	.LASF109
 1389 0662 10       		.byte	0x10
 1390 0663 0F       		.byte	0xf
 1391 0664 39       		.byte	0x39
 1392 0665 8E060000 		.4byte	0x68e
 1393 0669 06       		.uleb128 0x6
 1394 066a 77050000 		.4byte	.LASF110
 1395 066e 0F       		.byte	0xf
 1396 066f 3A       		.byte	0x3a
 1397 0670 7C020000 		.4byte	0x27c
 1398 0674 00       		.byte	0
 1399 0675 06       		.uleb128 0x6
 1400 0676 85000000 		.4byte	.LASF111
 1401 067a 0F       		.byte	0xf
 1402 067b 3C       		.byte	0x3c
 1403 067c 52020000 		.4byte	0x252
 1404 0680 08       		.byte	0x8
 1405 0681 06       		.uleb128 0x6
 1406 0682 27070000 		.4byte	.LASF112
 1407 0686 0F       		.byte	0xf
 1408 0687 3E       		.byte	0x3e
 1409 0688 E9070000 		.4byte	0x7e9
 1410 068c 0C       		.byte	0xc
 1411 068d 00       		.byte	0
ARM GAS  /tmp/ccWRZ51O.s 			page 26


 1412 068e 09       		.uleb128 0x9
 1413 068f 04       		.byte	0x4
 1414 0690 5D060000 		.4byte	0x65d
 1415 0694 09       		.uleb128 0x9
 1416 0695 04       		.byte	0x4
 1417 0696 A6060000 		.4byte	0x6a6
 1418 069a 18       		.uleb128 0x18
 1419 069b 94060000 		.4byte	0x694
 1420 069f 04       		.uleb128 0x4
 1421 06a0 01       		.byte	0x1
 1422 06a1 08       		.byte	0x8
 1423 06a2 4F000000 		.4byte	.LASF113
 1424 06a6 19       		.uleb128 0x19
 1425 06a7 9F060000 		.4byte	0x69f
 1426 06ab 09       		.uleb128 0x9
 1427 06ac 04       		.byte	0x4
 1428 06ad A0040000 		.4byte	0x4a0
 1429 06b1 09       		.uleb128 0x9
 1430 06b2 04       		.byte	0x4
 1431 06b3 31030000 		.4byte	0x331
 1432 06b7 14       		.uleb128 0x14
 1433 06b8 A0040000 		.4byte	0x4a0
 1434 06bc C7060000 		.4byte	0x6c7
 1435 06c0 15       		.uleb128 0x15
 1436 06c1 83040000 		.4byte	0x483
 1437 06c5 1B       		.byte	0x1b
 1438 06c6 00       		.byte	0
 1439 06c7 1A       		.uleb128 0x1a
 1440 06c8 636800   		.ascii	"ch\000"
 1441 06cb 0B       		.byte	0xb
 1442 06cc 0902     		.2byte	0x209
 1443 06ce 26040000 		.4byte	0x426
 1444 06d2 12       		.uleb128 0x12
 1445 06d3 16       		.byte	0x16
 1446 06d4 10       		.byte	0x10
 1447 06d5 34       		.byte	0x34
 1448 06d6 B3070000 		.4byte	0x7b3
 1449 06da 06       		.uleb128 0x6
 1450 06db 1B060000 		.4byte	.LASF115
 1451 06df 10       		.byte	0x10
 1452 06e0 35       		.byte	0x35
 1453 06e1 B3070000 		.4byte	0x7b3
 1454 06e5 00       		.byte	0
 1455 06e6 06       		.uleb128 0x6
 1456 06e7 C4040000 		.4byte	.LASF116
 1457 06eb 10       		.byte	0x10
 1458 06ec 36       		.byte	0x36
 1459 06ed B4000000 		.4byte	0xb4
 1460 06f1 04       		.byte	0x4
 1461 06f2 06       		.uleb128 0x6
 1462 06f3 07050000 		.4byte	.LASF117
 1463 06f7 10       		.byte	0x10
 1464 06f8 37       		.byte	0x37
 1465 06f9 B4000000 		.4byte	0xb4
 1466 06fd 05       		.byte	0x5
 1467 06fe 06       		.uleb128 0x6
 1468 06ff 4D050000 		.4byte	.LASF118
ARM GAS  /tmp/ccWRZ51O.s 			page 27


 1469 0703 10       		.byte	0x10
 1470 0704 38       		.byte	0x38
 1471 0705 BF000000 		.4byte	0xbf
 1472 0709 06       		.byte	0x6
 1473 070a 06       		.uleb128 0x6
 1474 070b 35010000 		.4byte	.LASF119
 1475 070f 10       		.byte	0x10
 1476 0710 39       		.byte	0x39
 1477 0711 B4000000 		.4byte	0xb4
 1478 0715 08       		.byte	0x8
 1479 0716 06       		.uleb128 0x6
 1480 0717 68010000 		.4byte	.LASF120
 1481 071b 10       		.byte	0x10
 1482 071c 3A       		.byte	0x3a
 1483 071d B4000000 		.4byte	0xb4
 1484 0721 09       		.byte	0x9
 1485 0722 06       		.uleb128 0x6
 1486 0723 40020000 		.4byte	.LASF121
 1487 0727 10       		.byte	0x10
 1488 0728 3B       		.byte	0x3b
 1489 0729 B4000000 		.4byte	0xb4
 1490 072d 0A       		.byte	0xa
 1491 072e 06       		.uleb128 0x6
 1492 072f EC050000 		.4byte	.LASF122
 1493 0733 10       		.byte	0x10
 1494 0734 3C       		.byte	0x3c
 1495 0735 B4000000 		.4byte	0xb4
 1496 0739 0B       		.byte	0xb
 1497 073a 06       		.uleb128 0x6
 1498 073b 5D030000 		.4byte	.LASF123
 1499 073f 10       		.byte	0x10
 1500 0740 3D       		.byte	0x3d
 1501 0741 B4000000 		.4byte	0xb4
 1502 0745 0C       		.byte	0xc
 1503 0746 06       		.uleb128 0x6
 1504 0747 3A070000 		.4byte	.LASF124
 1505 074b 10       		.byte	0x10
 1506 074c 3E       		.byte	0x3e
 1507 074d B4000000 		.4byte	0xb4
 1508 0751 0D       		.byte	0xd
 1509 0752 06       		.uleb128 0x6
 1510 0753 78000000 		.4byte	.LASF125
 1511 0757 10       		.byte	0x10
 1512 0758 3F       		.byte	0x3f
 1513 0759 B4000000 		.4byte	0xb4
 1514 075d 0E       		.byte	0xe
 1515 075e 06       		.uleb128 0x6
 1516 075f CF000000 		.4byte	.LASF126
 1517 0763 10       		.byte	0x10
 1518 0764 40       		.byte	0x40
 1519 0765 B4000000 		.4byte	0xb4
 1520 0769 0F       		.byte	0xf
 1521 076a 06       		.uleb128 0x6
 1522 076b 68030000 		.4byte	.LASF127
 1523 076f 10       		.byte	0x10
 1524 0770 41       		.byte	0x41
 1525 0771 B4000000 		.4byte	0xb4
ARM GAS  /tmp/ccWRZ51O.s 			page 28


 1526 0775 10       		.byte	0x10
 1527 0776 06       		.uleb128 0x6
 1528 0777 53060000 		.4byte	.LASF128
 1529 077b 10       		.byte	0x10
 1530 077c 43       		.byte	0x43
 1531 077d B4000000 		.4byte	0xb4
 1532 0781 11       		.byte	0x11
 1533 0782 06       		.uleb128 0x6
 1534 0783 17010000 		.4byte	.LASF129
 1535 0787 10       		.byte	0x10
 1536 0788 44       		.byte	0x44
 1537 0789 B4000000 		.4byte	0xb4
 1538 078d 12       		.byte	0x12
 1539 078e 06       		.uleb128 0x6
 1540 078f B8040000 		.4byte	.LASF130
 1541 0793 10       		.byte	0x10
 1542 0794 45       		.byte	0x45
 1543 0795 B4000000 		.4byte	0xb4
 1544 0799 13       		.byte	0x13
 1545 079a 06       		.uleb128 0x6
 1546 079b 5C020000 		.4byte	.LASF131
 1547 079f 10       		.byte	0x10
 1548 07a0 46       		.byte	0x46
 1549 07a1 B4000000 		.4byte	0xb4
 1550 07a5 14       		.byte	0x14
 1551 07a6 06       		.uleb128 0x6
 1552 07a7 E0050000 		.4byte	.LASF132
 1553 07ab 10       		.byte	0x10
 1554 07ac 48       		.byte	0x48
 1555 07ad B4000000 		.4byte	0xb4
 1556 07b1 15       		.byte	0x15
 1557 07b2 00       		.byte	0
 1558 07b3 14       		.uleb128 0x14
 1559 07b4 9F060000 		.4byte	0x69f
 1560 07b8 C3070000 		.4byte	0x7c3
 1561 07bc 15       		.uleb128 0x15
 1562 07bd 83040000 		.4byte	0x483
 1563 07c1 03       		.byte	0x3
 1564 07c2 00       		.byte	0
 1565 07c3 03       		.uleb128 0x3
 1566 07c4 2F050000 		.4byte	.LASF133
 1567 07c8 10       		.byte	0x10
 1568 07c9 49       		.byte	0x49
 1569 07ca D2060000 		.4byte	0x6d2
 1570 07ce 19       		.uleb128 0x19
 1571 07cf C3070000 		.4byte	0x7c3
 1572 07d3 10       		.uleb128 0x10
 1573 07d4 93070000 		.4byte	.LASF134
 1574 07d8 10       		.byte	0x10
 1575 07d9 6E       		.byte	0x6e
 1576 07da CE070000 		.4byte	0x7ce
 1577 07de 03       		.uleb128 0x3
 1578 07df A4060000 		.4byte	.LASF135
 1579 07e3 0F       		.byte	0xf
 1580 07e4 34       		.byte	0x34
 1581 07e5 5D060000 		.4byte	0x65d
 1582 07e9 09       		.uleb128 0x9
ARM GAS  /tmp/ccWRZ51O.s 			page 29


 1583 07ea 04       		.byte	0x4
 1584 07eb DE070000 		.4byte	0x7de
 1585 07ef 04       		.uleb128 0x4
 1586 07f0 01       		.byte	0x1
 1587 07f1 02       		.byte	0x2
 1588 07f2 6B020000 		.4byte	.LASF136
 1589 07f6 03       		.uleb128 0x3
 1590 07f7 0E060000 		.4byte	.LASF137
 1591 07fb 12       		.byte	0x12
 1592 07fc 34       		.byte	0x34
 1593 07fd 01080000 		.4byte	0x801
 1594 0801 09       		.uleb128 0x9
 1595 0802 04       		.byte	0x4
 1596 0803 07080000 		.4byte	0x807
 1597 0807 1B       		.uleb128 0x1b
 1598 0808 2F030000 		.4byte	0x32f
 1599 080c 16080000 		.4byte	0x816
 1600 0810 0C       		.uleb128 0xc
 1601 0811 2C000000 		.4byte	0x2c
 1602 0815 00       		.byte	0
 1603 0816 05       		.uleb128 0x5
 1604 0817 EF060000 		.4byte	.LASF138
 1605 081b 04       		.byte	0x4
 1606 081c 04       		.byte	0x4
 1607 081d 38       		.byte	0x38
 1608 081e 2F080000 		.4byte	0x82f
 1609 0822 06       		.uleb128 0x6
 1610 0823 D5010000 		.4byte	.LASF139
 1611 0827 04       		.byte	0x4
 1612 0828 39       		.byte	0x39
 1613 0829 2F080000 		.4byte	0x82f
 1614 082d 00       		.byte	0
 1615 082e 00       		.byte	0
 1616 082f 09       		.uleb128 0x9
 1617 0830 04       		.byte	0x4
 1618 0831 16080000 		.4byte	0x816
 1619 0835 12       		.uleb128 0x12
 1620 0836 0C       		.byte	0xc
 1621 0837 04       		.byte	0x4
 1622 0838 40       		.byte	0x40
 1623 0839 62080000 		.4byte	0x862
 1624 083d 06       		.uleb128 0x6
 1625 083e 23040000 		.4byte	.LASF140
 1626 0842 04       		.byte	0x4
 1627 0843 41       		.byte	0x41
 1628 0844 2F080000 		.4byte	0x82f
 1629 0848 00       		.byte	0
 1630 0849 06       		.uleb128 0x6
 1631 084a E0040000 		.4byte	.LASF141
 1632 084e 04       		.byte	0x4
 1633 084f 42       		.byte	0x42
 1634 0850 2C000000 		.4byte	0x2c
 1635 0854 04       		.byte	0x4
 1636 0855 06       		.uleb128 0x6
 1637 0856 C1070000 		.4byte	.LASF142
 1638 085a 04       		.byte	0x4
 1639 085b 44       		.byte	0x44
ARM GAS  /tmp/ccWRZ51O.s 			page 30


 1640 085c F6070000 		.4byte	0x7f6
 1641 0860 08       		.byte	0x8
 1642 0861 00       		.byte	0
 1643 0862 03       		.uleb128 0x3
 1644 0863 41000000 		.4byte	.LASF143
 1645 0867 04       		.byte	0x4
 1646 0868 46       		.byte	0x46
 1647 0869 35080000 		.4byte	0x835
 1648 086d 1C       		.uleb128 0x1c
 1649 086e 7F030000 		.4byte	.LASF145
 1650 0872 05       		.byte	0x5
 1651 0873 C1       		.byte	0xc1
 1652 0874 00000000 		.4byte	.LFB157
 1653 0878 22000000 		.4byte	.LFE157-.LFB157
 1654 087c 01       		.uleb128 0x1
 1655 087d 9C       		.byte	0x9c
 1656 087e 9E080000 		.4byte	0x89e
 1657 0882 1D       		.uleb128 0x1d
 1658 0883 6D7000   		.ascii	"mp\000"
 1659 0886 05       		.byte	0x5
 1660 0887 C1       		.byte	0xc1
 1661 0888 9E080000 		.4byte	0x89e
 1662 088c 02       		.uleb128 0x2
 1663 088d 91       		.byte	0x91
 1664 088e 74       		.sleb128 -12
 1665 088f 1E       		.uleb128 0x1e
 1666 0890 B3040000 		.4byte	.LASF144
 1667 0894 05       		.byte	0x5
 1668 0895 C1       		.byte	0xc1
 1669 0896 2F030000 		.4byte	0x32f
 1670 089a 02       		.uleb128 0x2
 1671 089b 91       		.byte	0x91
 1672 089c 70       		.sleb128 -16
 1673 089d 00       		.byte	0
 1674 089e 09       		.uleb128 0x9
 1675 089f 04       		.byte	0x4
 1676 08a0 62080000 		.4byte	0x862
 1677 08a4 1C       		.uleb128 0x1c
 1678 08a5 6D060000 		.4byte	.LASF146
 1679 08a9 05       		.byte	0x5
 1680 08aa AB       		.byte	0xab
 1681 08ab 00000000 		.4byte	.LFB156
 1682 08af 3C000000 		.4byte	.LFE156-.LFB156
 1683 08b3 01       		.uleb128 0x1
 1684 08b4 9C       		.byte	0x9c
 1685 08b5 F2080000 		.4byte	0x8f2
 1686 08b9 1D       		.uleb128 0x1d
 1687 08ba 6D7000   		.ascii	"mp\000"
 1688 08bd 05       		.byte	0x5
 1689 08be AB       		.byte	0xab
 1690 08bf 9E080000 		.4byte	0x89e
 1691 08c3 02       		.uleb128 0x2
 1692 08c4 91       		.byte	0x91
 1693 08c5 6C       		.sleb128 -20
 1694 08c6 1E       		.uleb128 0x1e
 1695 08c7 B3040000 		.4byte	.LASF144
 1696 08cb 05       		.byte	0x5
ARM GAS  /tmp/ccWRZ51O.s 			page 31


 1697 08cc AB       		.byte	0xab
 1698 08cd 2F030000 		.4byte	0x32f
 1699 08d1 02       		.uleb128 0x2
 1700 08d2 91       		.byte	0x91
 1701 08d3 68       		.sleb128 -24
 1702 08d4 1F       		.uleb128 0x1f
 1703 08d5 70687000 		.ascii	"php\000"
 1704 08d9 05       		.byte	0x5
 1705 08da AC       		.byte	0xac
 1706 08db 2F080000 		.4byte	0x82f
 1707 08df 02       		.uleb128 0x2
 1708 08e0 91       		.byte	0x91
 1709 08e1 74       		.sleb128 -12
 1710 08e2 20       		.uleb128 0x20
 1711 08e3 8A070000 		.4byte	.LASF149
 1712 08e7 02090000 		.4byte	0x902
 1713 08eb 05       		.uleb128 0x5
 1714 08ec 03       		.byte	0x3
 1715 08ed 00000000 		.4byte	__func__.5722
 1716 08f1 00       		.byte	0
 1717 08f2 14       		.uleb128 0x14
 1718 08f3 A6060000 		.4byte	0x6a6
 1719 08f7 02090000 		.4byte	0x902
 1720 08fb 15       		.uleb128 0x15
 1721 08fc 83040000 		.4byte	0x483
 1722 0900 0B       		.byte	0xb
 1723 0901 00       		.byte	0
 1724 0902 19       		.uleb128 0x19
 1725 0903 F2080000 		.4byte	0x8f2
 1726 0907 21       		.uleb128 0x21
 1727 0908 F8050000 		.4byte	.LASF147
 1728 090c 05       		.byte	0x5
 1729 090d 95       		.byte	0x95
 1730 090e 2F030000 		.4byte	0x32f
 1731 0912 00000000 		.4byte	.LFB155
 1732 0916 22000000 		.4byte	.LFE155-.LFB155
 1733 091a 01       		.uleb128 0x1
 1734 091b 9C       		.byte	0x9c
 1735 091c 3C090000 		.4byte	0x93c
 1736 0920 1D       		.uleb128 0x1d
 1737 0921 6D7000   		.ascii	"mp\000"
 1738 0924 05       		.byte	0x5
 1739 0925 95       		.byte	0x95
 1740 0926 9E080000 		.4byte	0x89e
 1741 092a 02       		.uleb128 0x2
 1742 092b 91       		.byte	0x91
 1743 092c 6C       		.sleb128 -20
 1744 092d 22       		.uleb128 0x22
 1745 092e B3040000 		.4byte	.LASF144
 1746 0932 05       		.byte	0x5
 1747 0933 96       		.byte	0x96
 1748 0934 2F030000 		.4byte	0x32f
 1749 0938 02       		.uleb128 0x2
 1750 0939 91       		.byte	0x91
 1751 093a 74       		.sleb128 -12
 1752 093b 00       		.byte	0
 1753 093c 21       		.uleb128 0x21
ARM GAS  /tmp/ccWRZ51O.s 			page 32


 1754 093d E2060000 		.4byte	.LASF148
 1755 0941 05       		.byte	0x5
 1756 0942 78       		.byte	0x78
 1757 0943 2F030000 		.4byte	0x32f
 1758 0947 00000000 		.4byte	.LFB154
 1759 094b 54000000 		.4byte	.LFE154-.LFB154
 1760 094f 01       		.uleb128 0x1
 1761 0950 9C       		.byte	0x9c
 1762 0951 80090000 		.4byte	0x980
 1763 0955 1D       		.uleb128 0x1d
 1764 0956 6D7000   		.ascii	"mp\000"
 1765 0959 05       		.byte	0x5
 1766 095a 78       		.byte	0x78
 1767 095b 9E080000 		.4byte	0x89e
 1768 095f 02       		.uleb128 0x2
 1769 0960 91       		.byte	0x91
 1770 0961 6C       		.sleb128 -20
 1771 0962 22       		.uleb128 0x22
 1772 0963 B3040000 		.4byte	.LASF144
 1773 0967 05       		.byte	0x5
 1774 0968 79       		.byte	0x79
 1775 0969 2F030000 		.4byte	0x32f
 1776 096d 02       		.uleb128 0x2
 1777 096e 91       		.byte	0x91
 1778 096f 74       		.sleb128 -12
 1779 0970 20       		.uleb128 0x20
 1780 0971 8A070000 		.4byte	.LASF149
 1781 0975 90090000 		.4byte	0x990
 1782 0979 05       		.uleb128 0x5
 1783 097a 03       		.byte	0x3
 1784 097b 00000000 		.4byte	__func__.5712
 1785 097f 00       		.byte	0
 1786 0980 14       		.uleb128 0x14
 1787 0981 A6060000 		.4byte	0x6a6
 1788 0985 90090000 		.4byte	0x990
 1789 0989 15       		.uleb128 0x15
 1790 098a 83040000 		.4byte	0x483
 1791 098e 0C       		.byte	0xc
 1792 098f 00       		.byte	0
 1793 0990 19       		.uleb128 0x19
 1794 0991 80090000 		.4byte	0x980
 1795 0995 1C       		.uleb128 0x1c
 1796 0996 AB050000 		.4byte	.LASF150
 1797 099a 05       		.byte	0x5
 1798 099b 61       		.byte	0x61
 1799 099c 00000000 		.4byte	.LFB153
 1800 09a0 4C000000 		.4byte	.LFE153-.LFB153
 1801 09a4 01       		.uleb128 0x1
 1802 09a5 9C       		.byte	0x9c
 1803 09a6 DF090000 		.4byte	0x9df
 1804 09aa 1D       		.uleb128 0x1d
 1805 09ab 6D7000   		.ascii	"mp\000"
 1806 09ae 05       		.byte	0x5
 1807 09af 61       		.byte	0x61
 1808 09b0 9E080000 		.4byte	0x89e
 1809 09b4 02       		.uleb128 0x2
 1810 09b5 91       		.byte	0x91
ARM GAS  /tmp/ccWRZ51O.s 			page 33


 1811 09b6 74       		.sleb128 -12
 1812 09b7 1D       		.uleb128 0x1d
 1813 09b8 7000     		.ascii	"p\000"
 1814 09ba 05       		.byte	0x5
 1815 09bb 61       		.byte	0x61
 1816 09bc 2F030000 		.4byte	0x32f
 1817 09c0 02       		.uleb128 0x2
 1818 09c1 91       		.byte	0x91
 1819 09c2 70       		.sleb128 -16
 1820 09c3 1D       		.uleb128 0x1d
 1821 09c4 6E00     		.ascii	"n\000"
 1822 09c6 05       		.byte	0x5
 1823 09c7 61       		.byte	0x61
 1824 09c8 2C000000 		.4byte	0x2c
 1825 09cc 02       		.uleb128 0x2
 1826 09cd 91       		.byte	0x91
 1827 09ce 6C       		.sleb128 -20
 1828 09cf 20       		.uleb128 0x20
 1829 09d0 8A070000 		.4byte	.LASF149
 1830 09d4 EF090000 		.4byte	0x9ef
 1831 09d8 05       		.uleb128 0x5
 1832 09d9 03       		.byte	0x3
 1833 09da 00000000 		.4byte	__func__.5704
 1834 09de 00       		.byte	0
 1835 09df 14       		.uleb128 0x14
 1836 09e0 A6060000 		.4byte	0x6a6
 1837 09e4 EF090000 		.4byte	0x9ef
 1838 09e8 15       		.uleb128 0x15
 1839 09e9 83040000 		.4byte	0x483
 1840 09ed 0F       		.byte	0xf
 1841 09ee 00       		.byte	0
 1842 09ef 19       		.uleb128 0x19
 1843 09f0 DF090000 		.4byte	0x9df
 1844 09f4 1C       		.uleb128 0x1c
 1845 09f5 8A040000 		.4byte	.LASF151
 1846 09f9 05       		.byte	0x5
 1847 09fa 4B       		.byte	0x4b
 1848 09fb 00000000 		.4byte	.LFB152
 1849 09ff 3C000000 		.4byte	.LFE152-.LFB152
 1850 0a03 01       		.uleb128 0x1
 1851 0a04 9C       		.byte	0x9c
 1852 0a05 420A0000 		.4byte	0xa42
 1853 0a09 1D       		.uleb128 0x1d
 1854 0a0a 6D7000   		.ascii	"mp\000"
 1855 0a0d 05       		.byte	0x5
 1856 0a0e 4B       		.byte	0x4b
 1857 0a0f 9E080000 		.4byte	0x89e
 1858 0a13 02       		.uleb128 0x2
 1859 0a14 91       		.byte	0x91
 1860 0a15 74       		.sleb128 -12
 1861 0a16 1E       		.uleb128 0x1e
 1862 0a17 CC040000 		.4byte	.LASF152
 1863 0a1b 05       		.byte	0x5
 1864 0a1c 4B       		.byte	0x4b
 1865 0a1d 2C000000 		.4byte	0x2c
 1866 0a21 02       		.uleb128 0x2
 1867 0a22 91       		.byte	0x91
ARM GAS  /tmp/ccWRZ51O.s 			page 34


 1868 0a23 70       		.sleb128 -16
 1869 0a24 1E       		.uleb128 0x1e
 1870 0a25 C2050000 		.4byte	.LASF153
 1871 0a29 05       		.byte	0x5
 1872 0a2a 4B       		.byte	0x4b
 1873 0a2b F6070000 		.4byte	0x7f6
 1874 0a2f 02       		.uleb128 0x2
 1875 0a30 91       		.byte	0x91
 1876 0a31 6C       		.sleb128 -20
 1877 0a32 20       		.uleb128 0x20
 1878 0a33 8A070000 		.4byte	.LASF149
 1879 0a37 520A0000 		.4byte	0xa52
 1880 0a3b 05       		.uleb128 0x5
 1881 0a3c 03       		.byte	0x3
 1882 0a3d 00000000 		.4byte	__func__.5698
 1883 0a41 00       		.byte	0
 1884 0a42 14       		.uleb128 0x14
 1885 0a43 A6060000 		.4byte	0x6a6
 1886 0a47 520A0000 		.4byte	0xa52
 1887 0a4b 15       		.uleb128 0x15
 1888 0a4c 83040000 		.4byte	0x483
 1889 0a50 10       		.byte	0x10
 1890 0a51 00       		.byte	0
 1891 0a52 19       		.uleb128 0x19
 1892 0a53 420A0000 		.4byte	0xa42
 1893 0a57 23       		.uleb128 0x23
 1894 0a58 64000000 		.4byte	.LASF154
 1895 0a5c 04       		.byte	0x4
 1896 0a5d 89       		.byte	0x89
 1897 0a5e 00000000 		.4byte	.LFB140
 1898 0a62 1A000000 		.4byte	.LFE140-.LFB140
 1899 0a66 01       		.uleb128 0x1
 1900 0a67 9C       		.byte	0x9c
 1901 0a68 880A0000 		.4byte	0xa88
 1902 0a6c 1D       		.uleb128 0x1d
 1903 0a6d 6D7000   		.ascii	"mp\000"
 1904 0a70 04       		.byte	0x4
 1905 0a71 89       		.byte	0x89
 1906 0a72 9E080000 		.4byte	0x89e
 1907 0a76 02       		.uleb128 0x2
 1908 0a77 91       		.byte	0x91
 1909 0a78 74       		.sleb128 -12
 1910 0a79 1E       		.uleb128 0x1e
 1911 0a7a B3040000 		.4byte	.LASF144
 1912 0a7e 04       		.byte	0x4
 1913 0a7f 89       		.byte	0x89
 1914 0a80 2F030000 		.4byte	0x32f
 1915 0a84 02       		.uleb128 0x2
 1916 0a85 91       		.byte	0x91
 1917 0a86 70       		.sleb128 -16
 1918 0a87 00       		.byte	0
 1919 0a88 24       		.uleb128 0x24
 1920 0a89 EE010000 		.4byte	.LASF155
 1921 0a8d 03       		.byte	0x3
 1922 0a8e 6601     		.2byte	0x166
 1923 0a90 00000000 		.4byte	.LFB78
 1924 0a94 38000000 		.4byte	.LFE78-.LFB78
ARM GAS  /tmp/ccWRZ51O.s 			page 35


 1925 0a98 01       		.uleb128 0x1
 1926 0a99 9C       		.byte	0x9c
 1927 0a9a AE0A0000 		.4byte	0xaae
 1928 0a9e 20       		.uleb128 0x20
 1929 0a9f 8A070000 		.4byte	.LASF149
 1930 0aa3 02090000 		.4byte	0x902
 1931 0aa7 05       		.uleb128 0x5
 1932 0aa8 03       		.byte	0x3
 1933 0aa9 00000000 		.4byte	__func__.4993
 1934 0aad 00       		.byte	0
 1935 0aae 25       		.uleb128 0x25
 1936 0aaf 53030000 		.4byte	.LASF163
 1937 0ab3 03       		.byte	0x3
 1938 0ab4 5A01     		.2byte	0x15a
 1939 0ab6 00000000 		.4byte	.LFB77
 1940 0aba 0E000000 		.4byte	.LFE77-.LFB77
 1941 0abe 01       		.uleb128 0x1
 1942 0abf 9C       		.byte	0x9c
 1943 0ac0 26       		.uleb128 0x26
 1944 0ac1 A4070000 		.4byte	.LASF156
 1945 0ac5 01       		.byte	0x1
 1946 0ac6 5301     		.2byte	0x153
 1947 0ac8 00000000 		.4byte	.LFB39
 1948 0acc 06000000 		.4byte	.LFE39-.LFB39
 1949 0ad0 01       		.uleb128 0x1
 1950 0ad1 9C       		.byte	0x9c
 1951 0ad2 E70A0000 		.4byte	0xae7
 1952 0ad6 27       		.uleb128 0x27
 1953 0ad7 170B0000 		.4byte	0xb17
 1954 0adb 00000000 		.4byte	.LBB8
 1955 0adf 02000000 		.4byte	.LBE8-.LBB8
 1956 0ae3 01       		.byte	0x1
 1957 0ae4 5501     		.2byte	0x155
 1958 0ae6 00       		.byte	0
 1959 0ae7 26       		.uleb128 0x26
 1960 0ae8 E2000000 		.4byte	.LASF157
 1961 0aec 01       		.byte	0x1
 1962 0aed 4A01     		.2byte	0x14a
 1963 0aef 00000000 		.4byte	.LFB38
 1964 0af3 06000000 		.4byte	.LFE38-.LFB38
 1965 0af7 01       		.uleb128 0x1
 1966 0af8 9C       		.byte	0x9c
 1967 0af9 0E0B0000 		.4byte	0xb0e
 1968 0afd 27       		.uleb128 0x27
 1969 0afe 0E0B0000 		.4byte	0xb0e
 1970 0b02 00000000 		.4byte	.LBB6
 1971 0b06 02000000 		.4byte	.LBE6-.LBB6
 1972 0b0a 01       		.byte	0x1
 1973 0b0b 4C01     		.2byte	0x14c
 1974 0b0d 00       		.byte	0
 1975 0b0e 28       		.uleb128 0x28
 1976 0b0f 4E020000 		.4byte	.LASF158
 1977 0b13 02       		.byte	0x2
 1978 0b14 5601     		.2byte	0x156
 1979 0b16 03       		.byte	0x3
 1980 0b17 28       		.uleb128 0x28
 1981 0b18 94050000 		.4byte	.LASF159
ARM GAS  /tmp/ccWRZ51O.s 			page 36


 1982 0b1c 02       		.byte	0x2
 1983 0b1d 4B01     		.2byte	0x14b
 1984 0b1f 03       		.byte	0x3
 1985 0b20 00       		.byte	0
 1986              		.section	.debug_abbrev,"",%progbits
 1987              	.Ldebug_abbrev0:
 1988 0000 01       		.uleb128 0x1
 1989 0001 11       		.uleb128 0x11
 1990 0002 01       		.byte	0x1
 1991 0003 25       		.uleb128 0x25
 1992 0004 0E       		.uleb128 0xe
 1993 0005 13       		.uleb128 0x13
 1994 0006 0B       		.uleb128 0xb
 1995 0007 03       		.uleb128 0x3
 1996 0008 0E       		.uleb128 0xe
 1997 0009 1B       		.uleb128 0x1b
 1998 000a 0E       		.uleb128 0xe
 1999 000b 55       		.uleb128 0x55
 2000 000c 17       		.uleb128 0x17
 2001 000d 11       		.uleb128 0x11
 2002 000e 01       		.uleb128 0x1
 2003 000f 10       		.uleb128 0x10
 2004 0010 17       		.uleb128 0x17
 2005 0011 00       		.byte	0
 2006 0012 00       		.byte	0
 2007 0013 02       		.uleb128 0x2
 2008 0014 24       		.uleb128 0x24
 2009 0015 00       		.byte	0
 2010 0016 0B       		.uleb128 0xb
 2011 0017 0B       		.uleb128 0xb
 2012 0018 3E       		.uleb128 0x3e
 2013 0019 0B       		.uleb128 0xb
 2014 001a 03       		.uleb128 0x3
 2015 001b 08       		.uleb128 0x8
 2016 001c 00       		.byte	0
 2017 001d 00       		.byte	0
 2018 001e 03       		.uleb128 0x3
 2019 001f 16       		.uleb128 0x16
 2020 0020 00       		.byte	0
 2021 0021 03       		.uleb128 0x3
 2022 0022 0E       		.uleb128 0xe
 2023 0023 3A       		.uleb128 0x3a
 2024 0024 0B       		.uleb128 0xb
 2025 0025 3B       		.uleb128 0x3b
 2026 0026 0B       		.uleb128 0xb
 2027 0027 49       		.uleb128 0x49
 2028 0028 13       		.uleb128 0x13
 2029 0029 00       		.byte	0
 2030 002a 00       		.byte	0
 2031 002b 04       		.uleb128 0x4
 2032 002c 24       		.uleb128 0x24
 2033 002d 00       		.byte	0
 2034 002e 0B       		.uleb128 0xb
 2035 002f 0B       		.uleb128 0xb
 2036 0030 3E       		.uleb128 0x3e
 2037 0031 0B       		.uleb128 0xb
 2038 0032 03       		.uleb128 0x3
ARM GAS  /tmp/ccWRZ51O.s 			page 37


 2039 0033 0E       		.uleb128 0xe
 2040 0034 00       		.byte	0
 2041 0035 00       		.byte	0
 2042 0036 05       		.uleb128 0x5
 2043 0037 13       		.uleb128 0x13
 2044 0038 01       		.byte	0x1
 2045 0039 03       		.uleb128 0x3
 2046 003a 0E       		.uleb128 0xe
 2047 003b 0B       		.uleb128 0xb
 2048 003c 0B       		.uleb128 0xb
 2049 003d 3A       		.uleb128 0x3a
 2050 003e 0B       		.uleb128 0xb
 2051 003f 3B       		.uleb128 0x3b
 2052 0040 0B       		.uleb128 0xb
 2053 0041 01       		.uleb128 0x1
 2054 0042 13       		.uleb128 0x13
 2055 0043 00       		.byte	0
 2056 0044 00       		.byte	0
 2057 0045 06       		.uleb128 0x6
 2058 0046 0D       		.uleb128 0xd
 2059 0047 00       		.byte	0
 2060 0048 03       		.uleb128 0x3
 2061 0049 0E       		.uleb128 0xe
 2062 004a 3A       		.uleb128 0x3a
 2063 004b 0B       		.uleb128 0xb
 2064 004c 3B       		.uleb128 0x3b
 2065 004d 0B       		.uleb128 0xb
 2066 004e 49       		.uleb128 0x49
 2067 004f 13       		.uleb128 0x13
 2068 0050 38       		.uleb128 0x38
 2069 0051 0B       		.uleb128 0xb
 2070 0052 00       		.byte	0
 2071 0053 00       		.byte	0
 2072 0054 07       		.uleb128 0x7
 2073 0055 0D       		.uleb128 0xd
 2074 0056 00       		.byte	0
 2075 0057 03       		.uleb128 0x3
 2076 0058 08       		.uleb128 0x8
 2077 0059 3A       		.uleb128 0x3a
 2078 005a 0B       		.uleb128 0xb
 2079 005b 3B       		.uleb128 0x3b
 2080 005c 05       		.uleb128 0x5
 2081 005d 49       		.uleb128 0x49
 2082 005e 13       		.uleb128 0x13
 2083 005f 38       		.uleb128 0x38
 2084 0060 0B       		.uleb128 0xb
 2085 0061 00       		.byte	0
 2086 0062 00       		.byte	0
 2087 0063 08       		.uleb128 0x8
 2088 0064 0D       		.uleb128 0xd
 2089 0065 00       		.byte	0
 2090 0066 03       		.uleb128 0x3
 2091 0067 0E       		.uleb128 0xe
 2092 0068 3A       		.uleb128 0x3a
 2093 0069 0B       		.uleb128 0xb
 2094 006a 3B       		.uleb128 0x3b
 2095 006b 05       		.uleb128 0x5
ARM GAS  /tmp/ccWRZ51O.s 			page 38


 2096 006c 49       		.uleb128 0x49
 2097 006d 13       		.uleb128 0x13
 2098 006e 38       		.uleb128 0x38
 2099 006f 0B       		.uleb128 0xb
 2100 0070 00       		.byte	0
 2101 0071 00       		.byte	0
 2102 0072 09       		.uleb128 0x9
 2103 0073 0F       		.uleb128 0xf
 2104 0074 00       		.byte	0
 2105 0075 0B       		.uleb128 0xb
 2106 0076 0B       		.uleb128 0xb
 2107 0077 49       		.uleb128 0x49
 2108 0078 13       		.uleb128 0x13
 2109 0079 00       		.byte	0
 2110 007a 00       		.byte	0
 2111 007b 0A       		.uleb128 0xa
 2112 007c 13       		.uleb128 0x13
 2113 007d 01       		.byte	0x1
 2114 007e 03       		.uleb128 0x3
 2115 007f 0E       		.uleb128 0xe
 2116 0080 0B       		.uleb128 0xb
 2117 0081 0B       		.uleb128 0xb
 2118 0082 3A       		.uleb128 0x3a
 2119 0083 0B       		.uleb128 0xb
 2120 0084 3B       		.uleb128 0x3b
 2121 0085 05       		.uleb128 0x5
 2122 0086 01       		.uleb128 0x1
 2123 0087 13       		.uleb128 0x13
 2124 0088 00       		.byte	0
 2125 0089 00       		.byte	0
 2126 008a 0B       		.uleb128 0xb
 2127 008b 15       		.uleb128 0x15
 2128 008c 01       		.byte	0x1
 2129 008d 27       		.uleb128 0x27
 2130 008e 19       		.uleb128 0x19
 2131 008f 01       		.uleb128 0x1
 2132 0090 13       		.uleb128 0x13
 2133 0091 00       		.byte	0
 2134 0092 00       		.byte	0
 2135 0093 0C       		.uleb128 0xc
 2136 0094 05       		.uleb128 0x5
 2137 0095 00       		.byte	0
 2138 0096 49       		.uleb128 0x49
 2139 0097 13       		.uleb128 0x13
 2140 0098 00       		.byte	0
 2141 0099 00       		.byte	0
 2142 009a 0D       		.uleb128 0xd
 2143 009b 0F       		.uleb128 0xf
 2144 009c 00       		.byte	0
 2145 009d 0B       		.uleb128 0xb
 2146 009e 0B       		.uleb128 0xb
 2147 009f 00       		.byte	0
 2148 00a0 00       		.byte	0
 2149 00a1 0E       		.uleb128 0xe
 2150 00a2 13       		.uleb128 0x13
 2151 00a3 01       		.byte	0x1
 2152 00a4 03       		.uleb128 0x3
ARM GAS  /tmp/ccWRZ51O.s 			page 39


 2153 00a5 0E       		.uleb128 0xe
 2154 00a6 0B       		.uleb128 0xb
 2155 00a7 05       		.uleb128 0x5
 2156 00a8 3A       		.uleb128 0x3a
 2157 00a9 0B       		.uleb128 0xb
 2158 00aa 3B       		.uleb128 0x3b
 2159 00ab 05       		.uleb128 0x5
 2160 00ac 01       		.uleb128 0x1
 2161 00ad 13       		.uleb128 0x13
 2162 00ae 00       		.byte	0
 2163 00af 00       		.byte	0
 2164 00b0 0F       		.uleb128 0xf
 2165 00b1 0D       		.uleb128 0xd
 2166 00b2 00       		.byte	0
 2167 00b3 03       		.uleb128 0x3
 2168 00b4 0E       		.uleb128 0xe
 2169 00b5 3A       		.uleb128 0x3a
 2170 00b6 0B       		.uleb128 0xb
 2171 00b7 3B       		.uleb128 0x3b
 2172 00b8 05       		.uleb128 0x5
 2173 00b9 49       		.uleb128 0x49
 2174 00ba 13       		.uleb128 0x13
 2175 00bb 38       		.uleb128 0x38
 2176 00bc 05       		.uleb128 0x5
 2177 00bd 00       		.byte	0
 2178 00be 00       		.byte	0
 2179 00bf 10       		.uleb128 0x10
 2180 00c0 34       		.uleb128 0x34
 2181 00c1 00       		.byte	0
 2182 00c2 03       		.uleb128 0x3
 2183 00c3 0E       		.uleb128 0xe
 2184 00c4 3A       		.uleb128 0x3a
 2185 00c5 0B       		.uleb128 0xb
 2186 00c6 3B       		.uleb128 0x3b
 2187 00c7 0B       		.uleb128 0xb
 2188 00c8 49       		.uleb128 0x49
 2189 00c9 13       		.uleb128 0x13
 2190 00ca 3F       		.uleb128 0x3f
 2191 00cb 19       		.uleb128 0x19
 2192 00cc 3C       		.uleb128 0x3c
 2193 00cd 19       		.uleb128 0x19
 2194 00ce 00       		.byte	0
 2195 00cf 00       		.byte	0
 2196 00d0 11       		.uleb128 0x11
 2197 00d1 0D       		.uleb128 0xd
 2198 00d2 00       		.byte	0
 2199 00d3 03       		.uleb128 0x3
 2200 00d4 08       		.uleb128 0x8
 2201 00d5 3A       		.uleb128 0x3a
 2202 00d6 0B       		.uleb128 0xb
 2203 00d7 3B       		.uleb128 0x3b
 2204 00d8 0B       		.uleb128 0xb
 2205 00d9 49       		.uleb128 0x49
 2206 00da 13       		.uleb128 0x13
 2207 00db 38       		.uleb128 0x38
 2208 00dc 0B       		.uleb128 0xb
 2209 00dd 00       		.byte	0
ARM GAS  /tmp/ccWRZ51O.s 			page 40


 2210 00de 00       		.byte	0
 2211 00df 12       		.uleb128 0x12
 2212 00e0 13       		.uleb128 0x13
 2213 00e1 01       		.byte	0x1
 2214 00e2 0B       		.uleb128 0xb
 2215 00e3 0B       		.uleb128 0xb
 2216 00e4 3A       		.uleb128 0x3a
 2217 00e5 0B       		.uleb128 0xb
 2218 00e6 3B       		.uleb128 0x3b
 2219 00e7 0B       		.uleb128 0xb
 2220 00e8 01       		.uleb128 0x1
 2221 00e9 13       		.uleb128 0x13
 2222 00ea 00       		.byte	0
 2223 00eb 00       		.byte	0
 2224 00ec 13       		.uleb128 0x13
 2225 00ed 13       		.uleb128 0x13
 2226 00ee 01       		.byte	0x1
 2227 00ef 0B       		.uleb128 0xb
 2228 00f0 05       		.uleb128 0x5
 2229 00f1 3A       		.uleb128 0x3a
 2230 00f2 0B       		.uleb128 0xb
 2231 00f3 3B       		.uleb128 0x3b
 2232 00f4 0B       		.uleb128 0xb
 2233 00f5 01       		.uleb128 0x1
 2234 00f6 13       		.uleb128 0x13
 2235 00f7 00       		.byte	0
 2236 00f8 00       		.byte	0
 2237 00f9 14       		.uleb128 0x14
 2238 00fa 01       		.uleb128 0x1
 2239 00fb 01       		.byte	0x1
 2240 00fc 49       		.uleb128 0x49
 2241 00fd 13       		.uleb128 0x13
 2242 00fe 01       		.uleb128 0x1
 2243 00ff 13       		.uleb128 0x13
 2244 0100 00       		.byte	0
 2245 0101 00       		.byte	0
 2246 0102 15       		.uleb128 0x15
 2247 0103 21       		.uleb128 0x21
 2248 0104 00       		.byte	0
 2249 0105 49       		.uleb128 0x49
 2250 0106 13       		.uleb128 0x13
 2251 0107 2F       		.uleb128 0x2f
 2252 0108 0B       		.uleb128 0xb
 2253 0109 00       		.byte	0
 2254 010a 00       		.byte	0
 2255 010b 16       		.uleb128 0x16
 2256 010c 17       		.uleb128 0x17
 2257 010d 01       		.byte	0x1
 2258 010e 0B       		.uleb128 0xb
 2259 010f 0B       		.uleb128 0xb
 2260 0110 3A       		.uleb128 0x3a
 2261 0111 0B       		.uleb128 0xb
 2262 0112 3B       		.uleb128 0x3b
 2263 0113 0B       		.uleb128 0xb
 2264 0114 01       		.uleb128 0x1
 2265 0115 13       		.uleb128 0x13
 2266 0116 00       		.byte	0
ARM GAS  /tmp/ccWRZ51O.s 			page 41


 2267 0117 00       		.byte	0
 2268 0118 17       		.uleb128 0x17
 2269 0119 0D       		.uleb128 0xd
 2270 011a 00       		.byte	0
 2271 011b 03       		.uleb128 0x3
 2272 011c 0E       		.uleb128 0xe
 2273 011d 3A       		.uleb128 0x3a
 2274 011e 0B       		.uleb128 0xb
 2275 011f 3B       		.uleb128 0x3b
 2276 0120 05       		.uleb128 0x5
 2277 0121 49       		.uleb128 0x49
 2278 0122 13       		.uleb128 0x13
 2279 0123 00       		.byte	0
 2280 0124 00       		.byte	0
 2281 0125 18       		.uleb128 0x18
 2282 0126 35       		.uleb128 0x35
 2283 0127 00       		.byte	0
 2284 0128 49       		.uleb128 0x49
 2285 0129 13       		.uleb128 0x13
 2286 012a 00       		.byte	0
 2287 012b 00       		.byte	0
 2288 012c 19       		.uleb128 0x19
 2289 012d 26       		.uleb128 0x26
 2290 012e 00       		.byte	0
 2291 012f 49       		.uleb128 0x49
 2292 0130 13       		.uleb128 0x13
 2293 0131 00       		.byte	0
 2294 0132 00       		.byte	0
 2295 0133 1A       		.uleb128 0x1a
 2296 0134 34       		.uleb128 0x34
 2297 0135 00       		.byte	0
 2298 0136 03       		.uleb128 0x3
 2299 0137 08       		.uleb128 0x8
 2300 0138 3A       		.uleb128 0x3a
 2301 0139 0B       		.uleb128 0xb
 2302 013a 3B       		.uleb128 0x3b
 2303 013b 05       		.uleb128 0x5
 2304 013c 49       		.uleb128 0x49
 2305 013d 13       		.uleb128 0x13
 2306 013e 3F       		.uleb128 0x3f
 2307 013f 19       		.uleb128 0x19
 2308 0140 3C       		.uleb128 0x3c
 2309 0141 19       		.uleb128 0x19
 2310 0142 00       		.byte	0
 2311 0143 00       		.byte	0
 2312 0144 1B       		.uleb128 0x1b
 2313 0145 15       		.uleb128 0x15
 2314 0146 01       		.byte	0x1
 2315 0147 27       		.uleb128 0x27
 2316 0148 19       		.uleb128 0x19
 2317 0149 49       		.uleb128 0x49
 2318 014a 13       		.uleb128 0x13
 2319 014b 01       		.uleb128 0x1
 2320 014c 13       		.uleb128 0x13
 2321 014d 00       		.byte	0
 2322 014e 00       		.byte	0
 2323 014f 1C       		.uleb128 0x1c
ARM GAS  /tmp/ccWRZ51O.s 			page 42


 2324 0150 2E       		.uleb128 0x2e
 2325 0151 01       		.byte	0x1
 2326 0152 3F       		.uleb128 0x3f
 2327 0153 19       		.uleb128 0x19
 2328 0154 03       		.uleb128 0x3
 2329 0155 0E       		.uleb128 0xe
 2330 0156 3A       		.uleb128 0x3a
 2331 0157 0B       		.uleb128 0xb
 2332 0158 3B       		.uleb128 0x3b
 2333 0159 0B       		.uleb128 0xb
 2334 015a 27       		.uleb128 0x27
 2335 015b 19       		.uleb128 0x19
 2336 015c 11       		.uleb128 0x11
 2337 015d 01       		.uleb128 0x1
 2338 015e 12       		.uleb128 0x12
 2339 015f 06       		.uleb128 0x6
 2340 0160 40       		.uleb128 0x40
 2341 0161 18       		.uleb128 0x18
 2342 0162 9642     		.uleb128 0x2116
 2343 0164 19       		.uleb128 0x19
 2344 0165 01       		.uleb128 0x1
 2345 0166 13       		.uleb128 0x13
 2346 0167 00       		.byte	0
 2347 0168 00       		.byte	0
 2348 0169 1D       		.uleb128 0x1d
 2349 016a 05       		.uleb128 0x5
 2350 016b 00       		.byte	0
 2351 016c 03       		.uleb128 0x3
 2352 016d 08       		.uleb128 0x8
 2353 016e 3A       		.uleb128 0x3a
 2354 016f 0B       		.uleb128 0xb
 2355 0170 3B       		.uleb128 0x3b
 2356 0171 0B       		.uleb128 0xb
 2357 0172 49       		.uleb128 0x49
 2358 0173 13       		.uleb128 0x13
 2359 0174 02       		.uleb128 0x2
 2360 0175 18       		.uleb128 0x18
 2361 0176 00       		.byte	0
 2362 0177 00       		.byte	0
 2363 0178 1E       		.uleb128 0x1e
 2364 0179 05       		.uleb128 0x5
 2365 017a 00       		.byte	0
 2366 017b 03       		.uleb128 0x3
 2367 017c 0E       		.uleb128 0xe
 2368 017d 3A       		.uleb128 0x3a
 2369 017e 0B       		.uleb128 0xb
 2370 017f 3B       		.uleb128 0x3b
 2371 0180 0B       		.uleb128 0xb
 2372 0181 49       		.uleb128 0x49
 2373 0182 13       		.uleb128 0x13
 2374 0183 02       		.uleb128 0x2
 2375 0184 18       		.uleb128 0x18
 2376 0185 00       		.byte	0
 2377 0186 00       		.byte	0
 2378 0187 1F       		.uleb128 0x1f
 2379 0188 34       		.uleb128 0x34
 2380 0189 00       		.byte	0
ARM GAS  /tmp/ccWRZ51O.s 			page 43


 2381 018a 03       		.uleb128 0x3
 2382 018b 08       		.uleb128 0x8
 2383 018c 3A       		.uleb128 0x3a
 2384 018d 0B       		.uleb128 0xb
 2385 018e 3B       		.uleb128 0x3b
 2386 018f 0B       		.uleb128 0xb
 2387 0190 49       		.uleb128 0x49
 2388 0191 13       		.uleb128 0x13
 2389 0192 02       		.uleb128 0x2
 2390 0193 18       		.uleb128 0x18
 2391 0194 00       		.byte	0
 2392 0195 00       		.byte	0
 2393 0196 20       		.uleb128 0x20
 2394 0197 34       		.uleb128 0x34
 2395 0198 00       		.byte	0
 2396 0199 03       		.uleb128 0x3
 2397 019a 0E       		.uleb128 0xe
 2398 019b 49       		.uleb128 0x49
 2399 019c 13       		.uleb128 0x13
 2400 019d 34       		.uleb128 0x34
 2401 019e 19       		.uleb128 0x19
 2402 019f 02       		.uleb128 0x2
 2403 01a0 18       		.uleb128 0x18
 2404 01a1 00       		.byte	0
 2405 01a2 00       		.byte	0
 2406 01a3 21       		.uleb128 0x21
 2407 01a4 2E       		.uleb128 0x2e
 2408 01a5 01       		.byte	0x1
 2409 01a6 3F       		.uleb128 0x3f
 2410 01a7 19       		.uleb128 0x19
 2411 01a8 03       		.uleb128 0x3
 2412 01a9 0E       		.uleb128 0xe
 2413 01aa 3A       		.uleb128 0x3a
 2414 01ab 0B       		.uleb128 0xb
 2415 01ac 3B       		.uleb128 0x3b
 2416 01ad 0B       		.uleb128 0xb
 2417 01ae 27       		.uleb128 0x27
 2418 01af 19       		.uleb128 0x19
 2419 01b0 49       		.uleb128 0x49
 2420 01b1 13       		.uleb128 0x13
 2421 01b2 11       		.uleb128 0x11
 2422 01b3 01       		.uleb128 0x1
 2423 01b4 12       		.uleb128 0x12
 2424 01b5 06       		.uleb128 0x6
 2425 01b6 40       		.uleb128 0x40
 2426 01b7 18       		.uleb128 0x18
 2427 01b8 9642     		.uleb128 0x2116
 2428 01ba 19       		.uleb128 0x19
 2429 01bb 01       		.uleb128 0x1
 2430 01bc 13       		.uleb128 0x13
 2431 01bd 00       		.byte	0
 2432 01be 00       		.byte	0
 2433 01bf 22       		.uleb128 0x22
 2434 01c0 34       		.uleb128 0x34
 2435 01c1 00       		.byte	0
 2436 01c2 03       		.uleb128 0x3
 2437 01c3 0E       		.uleb128 0xe
ARM GAS  /tmp/ccWRZ51O.s 			page 44


 2438 01c4 3A       		.uleb128 0x3a
 2439 01c5 0B       		.uleb128 0xb
 2440 01c6 3B       		.uleb128 0x3b
 2441 01c7 0B       		.uleb128 0xb
 2442 01c8 49       		.uleb128 0x49
 2443 01c9 13       		.uleb128 0x13
 2444 01ca 02       		.uleb128 0x2
 2445 01cb 18       		.uleb128 0x18
 2446 01cc 00       		.byte	0
 2447 01cd 00       		.byte	0
 2448 01ce 23       		.uleb128 0x23
 2449 01cf 2E       		.uleb128 0x2e
 2450 01d0 01       		.byte	0x1
 2451 01d1 03       		.uleb128 0x3
 2452 01d2 0E       		.uleb128 0xe
 2453 01d3 3A       		.uleb128 0x3a
 2454 01d4 0B       		.uleb128 0xb
 2455 01d5 3B       		.uleb128 0x3b
 2456 01d6 0B       		.uleb128 0xb
 2457 01d7 27       		.uleb128 0x27
 2458 01d8 19       		.uleb128 0x19
 2459 01d9 11       		.uleb128 0x11
 2460 01da 01       		.uleb128 0x1
 2461 01db 12       		.uleb128 0x12
 2462 01dc 06       		.uleb128 0x6
 2463 01dd 40       		.uleb128 0x40
 2464 01de 18       		.uleb128 0x18
 2465 01df 9642     		.uleb128 0x2116
 2466 01e1 19       		.uleb128 0x19
 2467 01e2 01       		.uleb128 0x1
 2468 01e3 13       		.uleb128 0x13
 2469 01e4 00       		.byte	0
 2470 01e5 00       		.byte	0
 2471 01e6 24       		.uleb128 0x24
 2472 01e7 2E       		.uleb128 0x2e
 2473 01e8 01       		.byte	0x1
 2474 01e9 03       		.uleb128 0x3
 2475 01ea 0E       		.uleb128 0xe
 2476 01eb 3A       		.uleb128 0x3a
 2477 01ec 0B       		.uleb128 0xb
 2478 01ed 3B       		.uleb128 0x3b
 2479 01ee 05       		.uleb128 0x5
 2480 01ef 27       		.uleb128 0x27
 2481 01f0 19       		.uleb128 0x19
 2482 01f1 11       		.uleb128 0x11
 2483 01f2 01       		.uleb128 0x1
 2484 01f3 12       		.uleb128 0x12
 2485 01f4 06       		.uleb128 0x6
 2486 01f5 40       		.uleb128 0x40
 2487 01f6 18       		.uleb128 0x18
 2488 01f7 9642     		.uleb128 0x2116
 2489 01f9 19       		.uleb128 0x19
 2490 01fa 01       		.uleb128 0x1
 2491 01fb 13       		.uleb128 0x13
 2492 01fc 00       		.byte	0
 2493 01fd 00       		.byte	0
 2494 01fe 25       		.uleb128 0x25
ARM GAS  /tmp/ccWRZ51O.s 			page 45


 2495 01ff 2E       		.uleb128 0x2e
 2496 0200 00       		.byte	0
 2497 0201 03       		.uleb128 0x3
 2498 0202 0E       		.uleb128 0xe
 2499 0203 3A       		.uleb128 0x3a
 2500 0204 0B       		.uleb128 0xb
 2501 0205 3B       		.uleb128 0x3b
 2502 0206 05       		.uleb128 0x5
 2503 0207 27       		.uleb128 0x27
 2504 0208 19       		.uleb128 0x19
 2505 0209 11       		.uleb128 0x11
 2506 020a 01       		.uleb128 0x1
 2507 020b 12       		.uleb128 0x12
 2508 020c 06       		.uleb128 0x6
 2509 020d 40       		.uleb128 0x40
 2510 020e 18       		.uleb128 0x18
 2511 020f 9642     		.uleb128 0x2116
 2512 0211 19       		.uleb128 0x19
 2513 0212 00       		.byte	0
 2514 0213 00       		.byte	0
 2515 0214 26       		.uleb128 0x26
 2516 0215 2E       		.uleb128 0x2e
 2517 0216 01       		.byte	0x1
 2518 0217 03       		.uleb128 0x3
 2519 0218 0E       		.uleb128 0xe
 2520 0219 3A       		.uleb128 0x3a
 2521 021a 0B       		.uleb128 0xb
 2522 021b 3B       		.uleb128 0x3b
 2523 021c 05       		.uleb128 0x5
 2524 021d 27       		.uleb128 0x27
 2525 021e 19       		.uleb128 0x19
 2526 021f 11       		.uleb128 0x11
 2527 0220 01       		.uleb128 0x1
 2528 0221 12       		.uleb128 0x12
 2529 0222 06       		.uleb128 0x6
 2530 0223 40       		.uleb128 0x40
 2531 0224 18       		.uleb128 0x18
 2532 0225 9742     		.uleb128 0x2117
 2533 0227 19       		.uleb128 0x19
 2534 0228 01       		.uleb128 0x1
 2535 0229 13       		.uleb128 0x13
 2536 022a 00       		.byte	0
 2537 022b 00       		.byte	0
 2538 022c 27       		.uleb128 0x27
 2539 022d 1D       		.uleb128 0x1d
 2540 022e 00       		.byte	0
 2541 022f 31       		.uleb128 0x31
 2542 0230 13       		.uleb128 0x13
 2543 0231 11       		.uleb128 0x11
 2544 0232 01       		.uleb128 0x1
 2545 0233 12       		.uleb128 0x12
 2546 0234 06       		.uleb128 0x6
 2547 0235 58       		.uleb128 0x58
 2548 0236 0B       		.uleb128 0xb
 2549 0237 59       		.uleb128 0x59
 2550 0238 05       		.uleb128 0x5
 2551 0239 00       		.byte	0
ARM GAS  /tmp/ccWRZ51O.s 			page 46


 2552 023a 00       		.byte	0
 2553 023b 28       		.uleb128 0x28
 2554 023c 2E       		.uleb128 0x2e
 2555 023d 00       		.byte	0
 2556 023e 03       		.uleb128 0x3
 2557 023f 0E       		.uleb128 0xe
 2558 0240 3A       		.uleb128 0x3a
 2559 0241 0B       		.uleb128 0xb
 2560 0242 3B       		.uleb128 0x3b
 2561 0243 05       		.uleb128 0x5
 2562 0244 27       		.uleb128 0x27
 2563 0245 19       		.uleb128 0x19
 2564 0246 20       		.uleb128 0x20
 2565 0247 0B       		.uleb128 0xb
 2566 0248 00       		.byte	0
 2567 0249 00       		.byte	0
 2568 024a 00       		.byte	0
 2569              		.section	.debug_aranges,"",%progbits
 2570 0000 6C000000 		.4byte	0x6c
 2571 0004 0200     		.2byte	0x2
 2572 0006 00000000 		.4byte	.Ldebug_info0
 2573 000a 04       		.byte	0x4
 2574 000b 00       		.byte	0
 2575 000c 0000     		.2byte	0
 2576 000e 0000     		.2byte	0
 2577 0010 00000000 		.4byte	.LFB38
 2578 0014 06000000 		.4byte	.LFE38-.LFB38
 2579 0018 00000000 		.4byte	.LFB39
 2580 001c 06000000 		.4byte	.LFE39-.LFB39
 2581 0020 00000000 		.4byte	.LFB77
 2582 0024 0E000000 		.4byte	.LFE77-.LFB77
 2583 0028 00000000 		.4byte	.LFB78
 2584 002c 38000000 		.4byte	.LFE78-.LFB78
 2585 0030 00000000 		.4byte	.LFB140
 2586 0034 1A000000 		.4byte	.LFE140-.LFB140
 2587 0038 00000000 		.4byte	.LFB152
 2588 003c 3C000000 		.4byte	.LFE152-.LFB152
 2589 0040 00000000 		.4byte	.LFB153
 2590 0044 4C000000 		.4byte	.LFE153-.LFB153
 2591 0048 00000000 		.4byte	.LFB154
 2592 004c 54000000 		.4byte	.LFE154-.LFB154
 2593 0050 00000000 		.4byte	.LFB155
 2594 0054 22000000 		.4byte	.LFE155-.LFB155
 2595 0058 00000000 		.4byte	.LFB156
 2596 005c 3C000000 		.4byte	.LFE156-.LFB156
 2597 0060 00000000 		.4byte	.LFB157
 2598 0064 22000000 		.4byte	.LFE157-.LFB157
 2599 0068 00000000 		.4byte	0
 2600 006c 00000000 		.4byte	0
 2601              		.section	.debug_ranges,"",%progbits
 2602              	.Ldebug_ranges0:
 2603 0000 00000000 		.4byte	.LFB38
 2604 0004 06000000 		.4byte	.LFE38
 2605 0008 00000000 		.4byte	.LFB39
 2606 000c 06000000 		.4byte	.LFE39
 2607 0010 00000000 		.4byte	.LFB77
 2608 0014 0E000000 		.4byte	.LFE77
ARM GAS  /tmp/ccWRZ51O.s 			page 47


 2609 0018 00000000 		.4byte	.LFB78
 2610 001c 38000000 		.4byte	.LFE78
 2611 0020 00000000 		.4byte	.LFB140
 2612 0024 1A000000 		.4byte	.LFE140
 2613 0028 00000000 		.4byte	.LFB152
 2614 002c 3C000000 		.4byte	.LFE152
 2615 0030 00000000 		.4byte	.LFB153
 2616 0034 4C000000 		.4byte	.LFE153
 2617 0038 00000000 		.4byte	.LFB154
 2618 003c 54000000 		.4byte	.LFE154
 2619 0040 00000000 		.4byte	.LFB155
 2620 0044 22000000 		.4byte	.LFE155
 2621 0048 00000000 		.4byte	.LFB156
 2622 004c 3C000000 		.4byte	.LFE156
 2623 0050 00000000 		.4byte	.LFB157
 2624 0054 22000000 		.4byte	.LFE157
 2625 0058 00000000 		.4byte	0
 2626 005c 00000000 		.4byte	0
 2627              		.section	.debug_line,"",%progbits
 2628              	.Ldebug_line0:
 2629 0000 FD030000 		.section	.debug_str,"MS",%progbits,1
 2629      0200B902 
 2629      00000201 
 2629      FB0E0D00 
 2629      01010101 
 2630              	.LASF51:
 2631 0000 63685F74 		.ascii	"ch_threads_list\000"
 2631      68726561 
 2631      64735F6C 
 2631      69737400 
 2632              	.LASF52:
 2633 0010 74687265 		.ascii	"threads_queue_t\000"
 2633      6164735F 
 2633      71756575 
 2633      655F7400 
 2634              	.LASF41:
 2635 0020 705F7761 		.ascii	"p_waiting\000"
 2635      6974696E 
 2635      6700
 2636              	.LASF114:
 2637 002a 53797374 		.ascii	"SystemCoreClock\000"
 2637      656D436F 
 2637      7265436C 
 2637      6F636B00 
 2638              	.LASF104:
 2639 003a 77746D74 		.ascii	"wtmtxp\000"
 2639      787000
 2640              	.LASF143:
 2641 0041 6D656D6F 		.ascii	"memory_pool_t\000"
 2641      72795F70 
 2641      6F6F6C5F 
 2641      7400
 2642              	.LASF113:
 2643 004f 63686172 		.ascii	"char\000"
 2643      00
 2644              	.LASF86:
 2645 0054 72656761 		.ascii	"regarm_t\000"
ARM GAS  /tmp/ccWRZ51O.s 			page 48


 2645      726D5F74 
 2645      00
 2646              	.LASF32:
 2647 005d 705F7072 		.ascii	"p_prio\000"
 2647      696F00
 2648              	.LASF154:
 2649 0064 6368506F 		.ascii	"chPoolAdd\000"
 2649      6F6C4164 
 2649      6400
 2650              	.LASF28:
 2651 006e 73797374 		.ascii	"systime_t\000"
 2651      696D655F 
 2651      7400
 2652              	.LASF125:
 2653 0078 63665F6F 		.ascii	"cf_off_older\000"
 2653      66665F6F 
 2653      6C646572 
 2653      00
 2654              	.LASF111:
 2655 0085 6D5F6F77 		.ascii	"m_owner\000"
 2655      6E657200 
 2656              	.LASF107:
 2657 008d 735F7175 		.ascii	"s_queue\000"
 2657      65756500 
 2658              	.LASF42:
 2659 0095 705F6D73 		.ascii	"p_msgqueue\000"
 2659      67717565 
 2659      756500
 2660              	.LASF0:
 2661 00a0 756E7369 		.ascii	"unsigned int\000"
 2661      676E6564 
 2661      20696E74 
 2661      00
 2662              	.LASF49:
 2663 00ad 74687265 		.ascii	"threads_list_t\000"
 2663      6164735F 
 2663      6C697374 
 2663      5F7400
 2664              	.LASF10:
 2665 00bc 5F5F696E 		.ascii	"__int32_t\000"
 2665      7433325F 
 2665      7400
 2666              	.LASF93:
 2667 00c6 73655F73 		.ascii	"se_state\000"
 2667      74617465 
 2667      00
 2668              	.LASF126:
 2669 00cf 63665F6F 		.ascii	"cf_off_name\000"
 2669      66665F6E 
 2669      616D6500 
 2670              	.LASF101:
 2671 00db 77746F62 		.ascii	"wtobjp\000"
 2671      6A7000
 2672              	.LASF157:
 2673 00e2 706F7274 		.ascii	"port_lock\000"
 2673      5F6C6F63 
 2673      6B00
ARM GAS  /tmp/ccWRZ51O.s 			page 49


 2674              	.LASF82:
 2675 00ec 76746C69 		.ascii	"vtlist\000"
 2675      737400
 2676              	.LASF55:
 2677 00f3 63685F72 		.ascii	"ch_ready_list\000"
 2677      65616479 
 2677      5F6C6973 
 2677      7400
 2678              	.LASF84:
 2679 0101 69646C65 		.ascii	"idle_thread_wa\000"
 2679      5F746872 
 2679      6561645F 
 2679      776100
 2680              	.LASF105:
 2681 0110 65776D61 		.ascii	"ewmask\000"
 2681      736B00
 2682              	.LASF129:
 2683 0117 63665F6F 		.ascii	"cf_off_flags\000"
 2683      66665F66 
 2683      6C616773 
 2683      00
 2684              	.LASF53:
 2685 0124 63685F74 		.ascii	"ch_threads_queue\000"
 2685      68726561 
 2685      64735F71 
 2685      75657565 
 2685      00
 2686              	.LASF119:
 2687 0135 63685F70 		.ascii	"ch_ptrsize\000"
 2687      74727369 
 2687      7A6500
 2688              	.LASF62:
 2689 0140 76746675 		.ascii	"vtfunc_t\000"
 2689      6E635F74 
 2689      00
 2690              	.LASF108:
 2691 0149 735F636E 		.ascii	"s_cnt\000"
 2691      7400
 2692              	.LASF74:
 2693 014f 63685F73 		.ascii	"ch_system_debug\000"
 2693      79737465 
 2693      6D5F6465 
 2693      62756700 
 2694              	.LASF19:
 2695 015f 75696E74 		.ascii	"uint32_t\000"
 2695      33325F74 
 2695      00
 2696              	.LASF120:
 2697 0168 63685F74 		.ascii	"ch_timesize\000"
 2697      696D6573 
 2697      697A6500 
 2698              	.LASF26:
 2699 0174 6576656E 		.ascii	"eventmask_t\000"
 2699      746D6173 
 2699      6B5F7400 
 2700              	.LASF57:
 2701 0180 725F7072 		.ascii	"r_prio\000"
ARM GAS  /tmp/ccWRZ51O.s 			page 50


 2701      696F00
 2702              	.LASF69:
 2703 0187 76745F70 		.ascii	"vt_par\000"
 2703      617200
 2704              	.LASF106:
 2705 018e 63685F73 		.ascii	"ch_semaphore\000"
 2705      656D6170 
 2705      686F7265 
 2705      00
 2706              	.LASF24:
 2707 019b 74707269 		.ascii	"tprio_t\000"
 2707      6F5F7400 
 2708              	.LASF64:
 2709 01a3 63685F76 		.ascii	"ch_virtual_timer\000"
 2709      69727475 
 2709      616C5F74 
 2709      696D6572 
 2709      00
 2710              	.LASF15:
 2711 01b4 6C6F6E67 		.ascii	"long long unsigned int\000"
 2711      206C6F6E 
 2711      6720756E 
 2711      7369676E 
 2711      65642069 
 2712              	.LASF92:
 2713 01cb 73655F77 		.ascii	"se_wtobjp\000"
 2713      746F626A 
 2713      7000
 2714              	.LASF139:
 2715 01d5 70685F6E 		.ascii	"ph_next\000"
 2715      65787400 
 2716              	.LASF8:
 2717 01dd 5F5F7569 		.ascii	"__uint16_t\000"
 2717      6E743136 
 2717      5F7400
 2718              	.LASF27:
 2719 01e8 636E745F 		.ascii	"cnt_t\000"
 2719      7400
 2720              	.LASF155:
 2721 01ee 63685379 		.ascii	"chSysUnlock\000"
 2721      73556E6C 
 2721      6F636B00 
 2722              	.LASF76:
 2723 01fa 6973725F 		.ascii	"isr_cnt\000"
 2723      636E7400 
 2724              	.LASF34:
 2725 0202 705F6E65 		.ascii	"p_newer\000"
 2725      77657200 
 2726              	.LASF71:
 2727 020a 63685F76 		.ascii	"ch_virtual_timers_list\000"
 2727      69727475 
 2727      616C5F74 
 2727      696D6572 
 2727      735F6C69 
 2728              	.LASF90:
 2729 0221 73655F74 		.ascii	"se_time\000"
 2729      696D6500 
ARM GAS  /tmp/ccWRZ51O.s 			page 51


 2730              	.LASF29:
 2731 0229 74687265 		.ascii	"thread_t\000"
 2731      61645F74 
 2731      00
 2732              	.LASF4:
 2733 0232 73697A65 		.ascii	"size_t\000"
 2733      5F7400
 2734              	.LASF99:
 2735 0239 7264796D 		.ascii	"rdymsg\000"
 2735      736700
 2736              	.LASF121:
 2737 0240 63685F74 		.ascii	"ch_threadsize\000"
 2737      68726561 
 2737      6473697A 
 2737      6500
 2738              	.LASF158:
 2739 024e 5F5F6469 		.ascii	"__disable_irq\000"
 2739      7361626C 
 2739      655F6972 
 2739      7100
 2740              	.LASF131:
 2741 025c 63665F6F 		.ascii	"cf_off_preempt\000"
 2741      66665F70 
 2741      7265656D 
 2741      707400
 2742              	.LASF136:
 2743 026b 5F426F6F 		.ascii	"_Bool\000"
 2743      6C00
 2744              	.LASF160:
 2745 0271 474E5520 		.ascii	"GNU C11 6.3.1 20170215 (release) [ARM/embedded-6-br"
 2745      43313120 
 2745      362E332E 
 2745      31203230 
 2745      31373032 
 2746 02a4 616E6368 		.ascii	"anch revision 245512] -mcpu=cortex-m0 -mno-thumb-in"
 2746      20726576 
 2746      6973696F 
 2746      6E203234 
 2746      35353132 
 2747 02d7 74657277 		.ascii	"terwork -mthumb -ggdb -O0 -fomit-frame-pointer -fal"
 2747      6F726B20 
 2747      2D6D7468 
 2747      756D6220 
 2747      2D676764 
 2748 030a 69676E2D 		.ascii	"ign-functions=16 -ffunction-sections -fdata-section"
 2748      66756E63 
 2748      74696F6E 
 2748      733D3136 
 2748      202D6666 
 2749 033d 7300     		.ascii	"s\000"
 2750              	.LASF109:
 2751 033f 63685F6D 		.ascii	"ch_mutex\000"
 2751      75746578 
 2751      00
 2752              	.LASF14:
 2753 0348 5F5F7569 		.ascii	"__uint64_t\000"
 2753      6E743634 
ARM GAS  /tmp/ccWRZ51O.s 			page 52


 2753      5F7400
 2754              	.LASF163:
 2755 0353 63685379 		.ascii	"chSysLock\000"
 2755      734C6F63 
 2755      6B00
 2756              	.LASF123:
 2757 035d 63665F6F 		.ascii	"cf_off_ctx\000"
 2757      66665F63 
 2757      747800
 2758              	.LASF127:
 2759 0368 63665F6F 		.ascii	"cf_off_stklimit\000"
 2759      66665F73 
 2759      746B6C69 
 2759      6D697400 
 2760              	.LASF36:
 2761 0378 705F6E61 		.ascii	"p_name\000"
 2761      6D6500
 2762              	.LASF145:
 2763 037f 6368506F 		.ascii	"chPoolFree\000"
 2763      6F6C4672 
 2763      656500
 2764              	.LASF67:
 2765 038a 76745F64 		.ascii	"vt_delta\000"
 2765      656C7461 
 2765      00
 2766              	.LASF162:
 2767 0393 2F686F6D 		.ascii	"/home/felix/Desktop/workspace/esho/UltrasonicCortex"
 2767      652F6665 
 2767      6C69782F 
 2767      4465736B 
 2767      746F702F 
 2768 03c6 2F00     		.ascii	"/\000"
 2769              	.LASF48:
 2770 03c8 74687265 		.ascii	"thread_reference_t\000"
 2770      61645F72 
 2770      65666572 
 2770      656E6365 
 2770      5F7400
 2771              	.LASF72:
 2772 03db 76745F6C 		.ascii	"vt_lasttime\000"
 2772      61737474 
 2772      696D6500 
 2773              	.LASF22:
 2774 03e7 74737461 		.ascii	"tstate_t\000"
 2774      74655F74 
 2774      00
 2775              	.LASF91:
 2776 03f0 73655F74 		.ascii	"se_tp\000"
 2776      7000
 2777              	.LASF35:
 2778 03f6 705F6F6C 		.ascii	"p_older\000"
 2778      64657200 
 2779              	.LASF38:
 2780 03fe 705F7374 		.ascii	"p_state\000"
 2780      61746500 
 2781              	.LASF37:
 2782 0406 705F7374 		.ascii	"p_stklimit\000"
ARM GAS  /tmp/ccWRZ51O.s 			page 53


 2782      6B6C696D 
 2782      697400
 2783              	.LASF16:
 2784 0411 75696E74 		.ascii	"uint8_t\000"
 2784      385F7400 
 2785              	.LASF97:
 2786 0419 74625F62 		.ascii	"tb_buffer\000"
 2786      75666665 
 2786      7200
 2787              	.LASF140:
 2788 0423 6D705F6E 		.ascii	"mp_next\000"
 2788      65787400 
 2789              	.LASF47:
 2790 042b 705F6D70 		.ascii	"p_mpool\000"
 2790      6F6F6C00 
 2791              	.LASF45:
 2792 0433 705F6D74 		.ascii	"p_mtxlist\000"
 2792      786C6973 
 2792      7400
 2793              	.LASF50:
 2794 043d 63685F74 		.ascii	"ch_thread\000"
 2794      68726561 
 2794      6400
 2795              	.LASF95:
 2796 0447 74625F73 		.ascii	"tb_size\000"
 2796      697A6500 
 2797              	.LASF73:
 2798 044f 73797374 		.ascii	"system_debug_t\000"
 2798      656D5F64 
 2798      65627567 
 2798      5F7400
 2799              	.LASF1:
 2800 045e 6C6F6E67 		.ascii	"long long int\000"
 2800      206C6F6E 
 2800      6720696E 
 2800      7400
 2801              	.LASF56:
 2802 046c 725F7175 		.ascii	"r_queue\000"
 2802      65756500 
 2803              	.LASF59:
 2804 0474 725F6E65 		.ascii	"r_newer\000"
 2804      77657200 
 2805              	.LASF25:
 2806 047c 6D73675F 		.ascii	"msg_t\000"
 2806      7400
 2807              	.LASF88:
 2808 0482 636F6E74 		.ascii	"context\000"
 2808      65787400 
 2809              	.LASF151:
 2810 048a 6368506F 		.ascii	"chPoolObjectInit\000"
 2810      6F6C4F62 
 2810      6A656374 
 2810      496E6974 
 2810      00
 2811              	.LASF39:
 2812 049b 705F666C 		.ascii	"p_flags\000"
 2812      61677300 
ARM GAS  /tmp/ccWRZ51O.s 			page 54


 2813              	.LASF63:
 2814 04a3 76697274 		.ascii	"virtual_timer_t\000"
 2814      75616C5F 
 2814      74696D65 
 2814      725F7400 
 2815              	.LASF144:
 2816 04b3 6F626A70 		.ascii	"objp\000"
 2816      00
 2817              	.LASF130:
 2818 04b8 63665F6F 		.ascii	"cf_off_refs\000"
 2818      66665F72 
 2818      65667300 
 2819              	.LASF116:
 2820 04c4 63685F7A 		.ascii	"ch_zero\000"
 2820      65726F00 
 2821              	.LASF152:
 2822 04cc 73697A65 		.ascii	"size\000"
 2822      00
 2823              	.LASF96:
 2824 04d1 74625F70 		.ascii	"tb_ptr\000"
 2824      747200
 2825              	.LASF60:
 2826 04d8 725F6F6C 		.ascii	"r_older\000"
 2826      64657200 
 2827              	.LASF141:
 2828 04e0 6D705F6F 		.ascii	"mp_object_size\000"
 2828      626A6563 
 2828      745F7369 
 2828      7A6500
 2829              	.LASF75:
 2830 04ef 70616E69 		.ascii	"panic_msg\000"
 2830      635F6D73 
 2830      6700
 2831              	.LASF43:
 2832 04f9 705F6D73 		.ascii	"p_msg\000"
 2832      6700
 2833              	.LASF21:
 2834 04ff 746D6F64 		.ascii	"tmode_t\000"
 2834      655F7400 
 2835              	.LASF117:
 2836 0507 63685F73 		.ascii	"ch_size\000"
 2836      697A6500 
 2837              	.LASF83:
 2838 050f 6D61696E 		.ascii	"mainthread\000"
 2838      74687265 
 2838      616400
 2839              	.LASF2:
 2840 051a 6C6F6E67 		.ascii	"long double\000"
 2840      20646F75 
 2840      626C6500 
 2841              	.LASF17:
 2842 0526 75696E74 		.ascii	"uint16_t\000"
 2842      31365F74 
 2842      00
 2843              	.LASF133:
 2844 052f 63686465 		.ascii	"chdebug_t\000"
 2844      6275675F 
ARM GAS  /tmp/ccWRZ51O.s 			page 55


 2844      7400
 2845              	.LASF77:
 2846 0539 6C6F636B 		.ascii	"lock_cnt\000"
 2846      5F636E74 
 2846      00
 2847              	.LASF46:
 2848 0542 705F7265 		.ascii	"p_realprio\000"
 2848      616C7072 
 2848      696F00
 2849              	.LASF118:
 2850 054d 63685F76 		.ascii	"ch_version\000"
 2850      65727369 
 2850      6F6E00
 2851              	.LASF7:
 2852 0558 73686F72 		.ascii	"short int\000"
 2852      7420696E 
 2852      7400
 2853              	.LASF61:
 2854 0562 725F6375 		.ascii	"r_current\000"
 2854      7272656E 
 2854      7400
 2855              	.LASF44:
 2856 056c 705F6570 		.ascii	"p_epending\000"
 2856      656E6469 
 2856      6E6700
 2857              	.LASF110:
 2858 0577 6D5F7175 		.ascii	"m_queue\000"
 2858      65756500 
 2859              	.LASF11:
 2860 057f 6C6F6E67 		.ascii	"long int\000"
 2860      20696E74 
 2860      00
 2861              	.LASF89:
 2862 0588 706F7274 		.ascii	"port_intctx\000"
 2862      5F696E74 
 2862      63747800 
 2863              	.LASF159:
 2864 0594 5F5F656E 		.ascii	"__enable_irq\000"
 2864      61626C65 
 2864      5F697271 
 2864      00
 2865              	.LASF80:
 2866 05a1 63685F73 		.ascii	"ch_system\000"
 2866      79737465 
 2866      6D00
 2867              	.LASF150:
 2868 05ab 6368506F 		.ascii	"chPoolLoadArray\000"
 2868      6F6C4C6F 
 2868      61644172 
 2868      72617900 
 2869              	.LASF30:
 2870 05bb 705F6E65 		.ascii	"p_next\000"
 2870      787400
 2871              	.LASF153:
 2872 05c2 70726F76 		.ascii	"provider\000"
 2872      69646572 
 2872      00
ARM GAS  /tmp/ccWRZ51O.s 			page 56


 2873              	.LASF20:
 2874 05cb 75696E74 		.ascii	"uint64_t\000"
 2874      36345F74 
 2874      00
 2875              	.LASF33:
 2876 05d4 705F6374 		.ascii	"p_ctx\000"
 2876      7800
 2877              	.LASF81:
 2878 05da 726C6973 		.ascii	"rlist\000"
 2878      7400
 2879              	.LASF132:
 2880 05e0 63665F6F 		.ascii	"cf_off_time\000"
 2880      66665F74 
 2880      696D6500 
 2881              	.LASF122:
 2882 05ec 63665F6F 		.ascii	"cf_off_prio\000"
 2882      66665F70 
 2882      72696F00 
 2883              	.LASF147:
 2884 05f8 6368506F 		.ascii	"chPoolAlloc\000"
 2884      6F6C416C 
 2884      6C6F6300 
 2885              	.LASF5:
 2886 0604 5F5F7569 		.ascii	"__uint8_t\000"
 2886      6E74385F 
 2886      7400
 2887              	.LASF137:
 2888 060e 6D656D67 		.ascii	"memgetfunc_t\000"
 2888      65746675 
 2888      6E635F74 
 2888      00
 2889              	.LASF115:
 2890 061b 63685F69 		.ascii	"ch_identifier\000"
 2890      64656E74 
 2890      69666965 
 2890      7200
 2891              	.LASF31:
 2892 0629 705F7072 		.ascii	"p_prev\000"
 2892      657600
 2893              	.LASF85:
 2894 0630 73697A65 		.ascii	"sizetype\000"
 2894      74797065 
 2894      00
 2895              	.LASF23:
 2896 0639 74726566 		.ascii	"trefs_t\000"
 2896      735F7400 
 2897              	.LASF13:
 2898 0641 6C6F6E67 		.ascii	"long unsigned int\000"
 2898      20756E73 
 2898      69676E65 
 2898      6420696E 
 2898      7400
 2899              	.LASF128:
 2900 0653 63665F6F 		.ascii	"cf_off_state\000"
 2900      66665F73 
 2900      74617465 
 2900      00
ARM GAS  /tmp/ccWRZ51O.s 			page 57


 2901              	.LASF54:
 2902 0660 72656164 		.ascii	"ready_list_t\000"
 2902      795F6C69 
 2902      73745F74 
 2902      00
 2903              	.LASF146:
 2904 066d 6368506F 		.ascii	"chPoolFreeI\000"
 2904      6F6C4672 
 2904      65654900 
 2905              	.LASF18:
 2906 0679 696E7433 		.ascii	"int32_t\000"
 2906      325F7400 
 2907              	.LASF78:
 2908 0681 74726163 		.ascii	"trace_buffer\000"
 2908      655F6275 
 2908      66666572 
 2908      00
 2909              	.LASF103:
 2910 068e 77747365 		.ascii	"wtsemp\000"
 2910      6D7000
 2911              	.LASF94:
 2912 0695 63685F73 		.ascii	"ch_swc_event_t\000"
 2912      77635F65 
 2912      76656E74 
 2912      5F7400
 2913              	.LASF135:
 2914 06a4 6D757465 		.ascii	"mutex_t\000"
 2914      785F7400 
 2915              	.LASF6:
 2916 06ac 756E7369 		.ascii	"unsigned char\000"
 2916      676E6564 
 2916      20636861 
 2916      7200
 2917              	.LASF12:
 2918 06ba 5F5F7569 		.ascii	"__uint32_t\000"
 2918      6E743332 
 2918      5F7400
 2919              	.LASF70:
 2920 06c5 76697274 		.ascii	"virtual_timers_list_t\000"
 2920      75616C5F 
 2920      74696D65 
 2920      72735F6C 
 2920      6973745F 
 2921              	.LASF40:
 2922 06db 705F7265 		.ascii	"p_refs\000"
 2922      667300
 2923              	.LASF148:
 2924 06e2 6368506F 		.ascii	"chPoolAllocI\000"
 2924      6F6C416C 
 2924      6C6F6349 
 2924      00
 2925              	.LASF138:
 2926 06ef 706F6F6C 		.ascii	"pool_header\000"
 2926      5F686561 
 2926      64657200 
 2927              	.LASF65:
 2928 06fb 76745F6E 		.ascii	"vt_next\000"
ARM GAS  /tmp/ccWRZ51O.s 			page 58


 2928      65787400 
 2929              	.LASF79:
 2930 0703 63685F73 		.ascii	"ch_system_t\000"
 2930      79737465 
 2930      6D5F7400 
 2931              	.LASF102:
 2932 070f 77747472 		.ascii	"wttrp\000"
 2932      7000
 2933              	.LASF98:
 2934 0715 63685F74 		.ascii	"ch_trace_buffer_t\000"
 2934      72616365 
 2934      5F627566 
 2934      6665725F 
 2934      7400
 2935              	.LASF112:
 2936 0727 6D5F6E65 		.ascii	"m_next\000"
 2936      787400
 2937              	.LASF3:
 2938 072e 7369676E 		.ascii	"signed char\000"
 2938      65642063 
 2938      68617200 
 2939              	.LASF124:
 2940 073a 63665F6F 		.ascii	"cf_off_newer\000"
 2940      66665F6E 
 2940      65776572 
 2940      00
 2941              	.LASF9:
 2942 0747 73686F72 		.ascii	"short unsigned int\000"
 2942      7420756E 
 2942      7369676E 
 2942      65642069 
 2942      6E7400
 2943              	.LASF58:
 2944 075a 725F6374 		.ascii	"r_ctx\000"
 2944      7800
 2945              	.LASF87:
 2946 0760 73746B61 		.ascii	"stkalign_t\000"
 2946      6C69676E 
 2946      5F7400
 2947              	.LASF161:
 2948 076b 43686962 		.ascii	"ChibiOS/os/rt/src/chmempools.c\000"
 2948      694F532F 
 2948      6F732F72 
 2948      742F7372 
 2948      632F6368 
 2949              	.LASF149:
 2950 078a 5F5F6675 		.ascii	"__func__\000"
 2950      6E635F5F 
 2950      00
 2951              	.LASF134:
 2952 0793 63685F64 		.ascii	"ch_debug\000"
 2952      65627567 
 2952      00
 2953              	.LASF68:
 2954 079c 76745F66 		.ascii	"vt_func\000"
 2954      756E6300 
 2955              	.LASF156:
ARM GAS  /tmp/ccWRZ51O.s 			page 59


 2956 07a4 706F7274 		.ascii	"port_unlock\000"
 2956      5F756E6C 
 2956      6F636B00 
 2957              	.LASF66:
 2958 07b0 76745F70 		.ascii	"vt_prev\000"
 2958      72657600 
 2959              	.LASF100:
 2960 07b8 65786974 		.ascii	"exitcode\000"
 2960      636F6465 
 2960      00
 2961              	.LASF142:
 2962 07c1 6D705F70 		.ascii	"mp_provider\000"
 2962      726F7669 
 2962      64657200 
 2963              		.ident	"GCC: (GNU Tools for ARM Embedded Processors 6-2017-q1-update) 6.3.1 20170215 (release) [AR
ARM GAS  /tmp/ccWRZ51O.s 			page 60


DEFINED SYMBOLS
                            *ABS*:0000000000000000 chmempools.c
     /tmp/ccWRZ51O.s:16     .text.port_lock:0000000000000000 $t
     /tmp/ccWRZ51O.s:23     .text.port_lock:0000000000000000 port_lock
     /tmp/ccWRZ51O.s:51     .text.port_unlock:0000000000000000 $t
     /tmp/ccWRZ51O.s:58     .text.port_unlock:0000000000000000 port_unlock
     /tmp/ccWRZ51O.s:84     .text.chSysLock:0000000000000000 $t
     /tmp/ccWRZ51O.s:91     .text.chSysLock:0000000000000000 chSysLock
     /tmp/ccWRZ51O.s:114    .text.chSysUnlock:0000000000000000 $t
     /tmp/ccWRZ51O.s:121    .text.chSysUnlock:0000000000000000 chSysUnlock
     /tmp/ccWRZ51O.s:162    .text.chSysUnlock:0000000000000030 $d
     /tmp/ccWRZ51O.s:580    .rodata.__func__.4993:0000000000000000 __func__.4993
     /tmp/ccWRZ51O.s:168    .text.chPoolAdd:0000000000000000 $t
     /tmp/ccWRZ51O.s:175    .text.chPoolAdd:0000000000000000 chPoolAdd
     /tmp/ccWRZ51O.s:527    .text.chPoolFree:0000000000000000 chPoolFree
     /tmp/ccWRZ51O.s:204    .text.chPoolObjectInit:0000000000000000 $t
     /tmp/ccWRZ51O.s:212    .text.chPoolObjectInit:0000000000000000 chPoolObjectInit
     /tmp/ccWRZ51O.s:261    .text.chPoolObjectInit:0000000000000038 $d
     /tmp/ccWRZ51O.s:562    .rodata.__func__.5698:0000000000000000 __func__.5698
     /tmp/ccWRZ51O.s:266    .text.chPoolLoadArray:0000000000000000 $t
     /tmp/ccWRZ51O.s:274    .text.chPoolLoadArray:0000000000000000 chPoolLoadArray
     /tmp/ccWRZ51O.s:333    .text.chPoolLoadArray:0000000000000048 $d
     /tmp/ccWRZ51O.s:568    .rodata.__func__.5704:0000000000000000 __func__.5704
     /tmp/ccWRZ51O.s:338    .text.chPoolAllocI:0000000000000000 $t
     /tmp/ccWRZ51O.s:346    .text.chPoolAllocI:0000000000000000 chPoolAllocI
     /tmp/ccWRZ51O.s:411    .text.chPoolAllocI:0000000000000050 $d
     /tmp/ccWRZ51O.s:574    .rodata.__func__.5712:0000000000000000 __func__.5712
     /tmp/ccWRZ51O.s:416    .text.chPoolAlloc:0000000000000000 $t
     /tmp/ccWRZ51O.s:424    .text.chPoolAlloc:0000000000000000 chPoolAlloc
     /tmp/ccWRZ51O.s:457    .text.chPoolFreeI:0000000000000000 $t
     /tmp/ccWRZ51O.s:465    .text.chPoolFreeI:0000000000000000 chPoolFreeI
     /tmp/ccWRZ51O.s:514    .text.chPoolFreeI:0000000000000038 $d
     /tmp/ccWRZ51O.s:586    .rodata.__func__.5722:0000000000000000 __func__.5722
     /tmp/ccWRZ51O.s:519    .text.chPoolFree:0000000000000000 $t
     /tmp/ccWRZ51O.s:559    .rodata.__func__.5698:0000000000000000 $d
     /tmp/ccWRZ51O.s:565    .rodata.__func__.5704:0000000000000000 $d
     /tmp/ccWRZ51O.s:571    .rodata.__func__.5712:0000000000000000 $d
     /tmp/ccWRZ51O.s:577    .rodata.__func__.4993:0000000000000000 $d
     /tmp/ccWRZ51O.s:583    .rodata.__func__.5722:0000000000000000 $d
                     .debug_frame:0000000000000010 $d

UNDEFINED SYMBOLS
_dbg_check_lock
_dbg_check_unlock
chSysHalt
ch
chDbgCheckClassI
