ARM GAS  /tmp/ccWRZ51O.s 			page 1


   1              		.cpu cortex-m0
   2              		.eabi_attribute 20, 1
   3              		.eabi_attribute 21, 1
   4              		.eabi_attribute 23, 3
   5              		.eabi_attribute 24, 1
   6              		.eabi_attribute 25, 1
   7              		.eabi_attribute 26, 1
   8              		.eabi_attribute 30, 6
   9              		.eabi_attribute 34, 0
  10              		.eabi_attribute 18, 4
  11              		.file	"chmempools.c"
  12              		.text
  13              	.Ltext0:
  14              		.cfi_sections	.debug_frame
  15              		.section	.text.port_lock,"ax",%progbits
  16              		.align	1
  17              		.p2align 4,,15
  18              		.syntax unified
  19              		.code	16
  20              		.thumb_func
  21              		.fpu softvfp
  22              		.type	port_lock, %function
  23              	port_lock:
  24              	.LFB38:
  25              		.file 1 "ChibiOS/os/rt/ports/ARMCMx/chcore_v6m.h"
  26              		.loc 1 330 0
  27              		.cfi_startproc
  28              		@ args = 0, pretend = 0, frame = 0
  29              		@ frame_needed = 0, uses_anonymous_args = 0
  30              		@ link register save eliminated.
  31              	.LBB6:
  32              	.LBB7:
  33              		.file 2 "ChibiOS/os/ext/CMSIS/include/core_cmFunc.h"
  34              		.loc 2 344 0
  35              		.syntax divided
  36              	@ 344 "ChibiOS/os/ext/CMSIS/include/core_cmFunc.h" 1
  37 0000 72B6     		cpsid i
  38              	@ 0 "" 2
  39              		.thumb
  40              		.syntax unified
  41              	.LBE7:
  42              	.LBE6:
  43              		.loc 1 333 0
  44 0002 C046     		nop
  45              		@ sp needed
  46 0004 7047     		bx	lr
  47              		.cfi_endproc
  48              	.LFE38:
  49              		.size	port_lock, .-port_lock
  50 0006 C046     		.section	.text.port_unlock,"ax",%progbits
  51              		.align	1
  52              		.p2align 4,,15
  53              		.syntax unified
  54              		.code	16
  55              		.thumb_func
  56              		.fpu softvfp
  57              		.type	port_unlock, %function
ARM GAS  /tmp/ccWRZ51O.s 			page 2


  58              	port_unlock:
  59              	.LFB39:
  60              		.loc 1 339 0
  61              		.cfi_startproc
  62              		@ args = 0, pretend = 0, frame = 0
  63              		@ frame_needed = 0, uses_anonymous_args = 0
  64              		@ link register save eliminated.
  65              	.LBB8:
  66              	.LBB9:
  67              		.loc 2 333 0
  68              		.syntax divided
  69              	@ 333 "ChibiOS/os/ext/CMSIS/include/core_cmFunc.h" 1
  70 0000 62B6     		cpsie i
  71              	@ 0 "" 2
  72              		.thumb
  73              		.syntax unified
  74              	.LBE9:
  75              	.LBE8:
  76              		.loc 1 342 0
  77 0002 C046     		nop
  78              		@ sp needed
  79 0004 7047     		bx	lr
  80              		.cfi_endproc
  81              	.LFE39:
  82              		.size	port_unlock, .-port_unlock
  83 0006 C046     		.section	.text.chSysLock,"ax",%progbits
  84              		.align	1
  85              		.p2align 4,,15
  86              		.syntax unified
  87              		.code	16
  88              		.thumb_func
  89              		.fpu softvfp
  90              		.type	chSysLock, %function
  91              	chSysLock:
  92              	.LFB77:
  93              		.file 3 "ChibiOS/os/rt/include/chsys.h"
  94              		.loc 3 346 0
  95              		.cfi_startproc
  96              		@ args = 0, pretend = 0, frame = 0
  97              		@ frame_needed = 0, uses_anonymous_args = 0
  98 0000 10B5     		push	{r4, lr}
  99              		.cfi_def_cfa_offset 8
 100              		.cfi_offset 4, -8
 101              		.cfi_offset 14, -4
 102              		.loc 3 348 0
 103 0002 FFF7FEFF 		bl	port_lock
 104              		.loc 3 350 0
 105 0006 FFF7FEFF 		bl	_dbg_check_lock
 106              		.loc 3 351 0
 107 000a C046     		nop
 108              		@ sp needed
 109 000c 10BD     		pop	{r4, pc}
 110              		.cfi_endproc
 111              	.LFE77:
 112              		.size	chSysLock, .-chSysLock
 113 000e C046     		.section	.text.chSysUnlock,"ax",%progbits
 114              		.align	1
ARM GAS  /tmp/ccWRZ51O.s 			page 3


 115              		.p2align 4,,15
 116              		.syntax unified
 117              		.code	16
 118              		.thumb_func
 119              		.fpu softvfp
 120              		.type	chSysUnlock, %function
 121              	chSysUnlock:
 122              	.LFB78:
 123              		.loc 3 358 0
 124              		.cfi_startproc
 125              		@ args = 0, pretend = 0, frame = 0
 126              		@ frame_needed = 0, uses_anonymous_args = 0
 127 0000 10B5     		push	{r4, lr}
 128              		.cfi_def_cfa_offset 8
 129              		.cfi_offset 4, -8
 130              		.cfi_offset 14, -4
 131              		.loc 3 360 0
 132 0002 FFF7FEFF 		bl	_dbg_check_unlock
 133              		.loc 3 367 0
 134 0006 0A4B     		ldr	r3, .L6
 135 0008 1A68     		ldr	r2, [r3]
 136 000a 094B     		ldr	r3, .L6
 137 000c 9A42     		cmp	r2, r3
 138 000e 0BD0     		beq	.L5
 139              		.loc 3 367 0 is_stmt 0 discriminator 2
 140 0010 074B     		ldr	r3, .L6
 141 0012 9B69     		ldr	r3, [r3, #24]
 142 0014 9A68     		ldr	r2, [r3, #8]
 143 0016 064B     		ldr	r3, .L6
 144 0018 1B68     		ldr	r3, [r3]
 145 001a 9B68     		ldr	r3, [r3, #8]
 146 001c 9A42     		cmp	r2, r3
 147 001e 03D2     		bcs	.L5
 148              		.loc 3 367 0 discriminator 3
 149 0020 044B     		ldr	r3, .L6+4
 150 0022 1800     		movs	r0, r3
 151 0024 FFF7FEFF 		bl	chSysHalt
 152              	.L5:
 153              		.loc 3 371 0 is_stmt 1
 154 0028 FFF7FEFF 		bl	port_unlock
 155              		.loc 3 372 0
 156 002c C046     		nop
 157              		@ sp needed
 158 002e 10BD     		pop	{r4, pc}
 159              	.L7:
 160              		.align	2
 161              	.L6:
 162 0030 00000000 		.word	ch
 163 0034 00000000 		.word	__func__.4993
 164              		.cfi_endproc
 165              	.LFE78:
 166              		.size	chSysUnlock, .-chSysUnlock
 167              		.section	.text.chPoolAdd,"ax",%progbits
 168              		.align	1
 169              		.p2align 4,,15
 170              		.syntax unified
 171              		.code	16
ARM GAS  /tmp/ccWRZ51O.s 			page 4


 172              		.thumb_func
 173              		.fpu softvfp
 174              		.type	chPoolAdd, %function
 175              	chPoolAdd:
 176              	.LFB140:
 177              		.file 4 "ChibiOS/os/rt/include/chmempools.h"
 178              		.loc 4 137 0
 179              		.cfi_startproc
 180              		@ args = 0, pretend = 0, frame = 8
 181              		@ frame_needed = 0, uses_anonymous_args = 0
 182 0000 00B5     		push	{lr}
 183              		.cfi_def_cfa_offset 4
 184              		.cfi_offset 14, -4
 185 0002 83B0     		sub	sp, sp, #12
 186              		.cfi_def_cfa_offset 16
 187 0004 0190     		str	r0, [sp, #4]
 188 0006 0091     		str	r1, [sp]
 189              		.loc 4 139 0
 190 0008 009A     		ldr	r2, [sp]
 191 000a 019B     		ldr	r3, [sp, #4]
 192 000c 1100     		movs	r1, r2
 193 000e 1800     		movs	r0, r3
 194 0010 FFF7FEFF 		bl	chPoolFree
 195              		.loc 4 140 0
 196 0014 C046     		nop
 197 0016 03B0     		add	sp, sp, #12
 198              		@ sp needed
 199 0018 00BD     		pop	{pc}
 200              		.cfi_endproc
 201              	.LFE140:
 202              		.size	chPoolAdd, .-chPoolAdd
 203 001a C046     		.section	.text.chPoolObjectInit,"ax",%progbits
 204              		.align	1
 205              		.p2align 4,,15
 206              		.global	chPoolObjectInit
 207              		.syntax unified
 208              		.code	16
 209              		.thumb_func
 210              		.fpu softvfp
 211              		.type	chPoolObjectInit, %function
 212              	chPoolObjectInit:
 213              	.LFB152:
 214              		.file 5 "ChibiOS/os/rt/src/chmempools.c"
 215              		.loc 5 75 0
 216              		.cfi_startproc
 217              		@ args = 0, pretend = 0, frame = 16
 218              		@ frame_needed = 0, uses_anonymous_args = 0
 219 0000 00B5     		push	{lr}
 220              		.cfi_def_cfa_offset 4
 221              		.cfi_offset 14, -4
 222 0002 85B0     		sub	sp, sp, #20
 223              		.cfi_def_cfa_offset 24
 224 0004 0390     		str	r0, [sp, #12]
 225 0006 0291     		str	r1, [sp, #8]
 226 0008 0192     		str	r2, [sp, #4]
 227              		.loc 5 77 0
 228 000a 039B     		ldr	r3, [sp, #12]
ARM GAS  /tmp/ccWRZ51O.s 			page 5


 229 000c 002B     		cmp	r3, #0
 230 000e 02D0     		beq	.L10
 231              		.loc 5 77 0 is_stmt 0 discriminator 3
 232 0010 029B     		ldr	r3, [sp, #8]
 233 0012 032B     		cmp	r3, #3
 234 0014 03D8     		bhi	.L11
 235              	.L10:
 236              		.loc 5 77 0 discriminator 4
 237 0016 084B     		ldr	r3, .L12
 238 0018 1800     		movs	r0, r3
 239 001a FFF7FEFF 		bl	chSysHalt
 240              	.L11:
 241              		.loc 5 79 0 is_stmt 1
 242 001e 039B     		ldr	r3, [sp, #12]
 243 0020 0022     		movs	r2, #0
 244 0022 1A60     		str	r2, [r3]
 245              		.loc 5 80 0
 246 0024 039B     		ldr	r3, [sp, #12]
 247 0026 029A     		ldr	r2, [sp, #8]
 248 0028 5A60     		str	r2, [r3, #4]
 249              		.loc 5 81 0
 250 002a 039B     		ldr	r3, [sp, #12]
 251 002c 019A     		ldr	r2, [sp, #4]
 252 002e 9A60     		str	r2, [r3, #8]
 253              		.loc 5 82 0
 254 0030 C046     		nop
 255 0032 05B0     		add	sp, sp, #20
 256              		@ sp needed
 257 0034 00BD     		pop	{pc}
 258              	.L13:
 259 0036 C046     		.align	2
 260              	.L12:
 261 0038 00000000 		.word	__func__.5698
 262              		.cfi_endproc
 263              	.LFE152:
 264              		.size	chPoolObjectInit, .-chPoolObjectInit
 265              		.section	.text.chPoolLoadArray,"ax",%progbits
 266              		.align	1
 267              		.p2align 4,,15
 268              		.global	chPoolLoadArray
 269              		.syntax unified
 270              		.code	16
 271              		.thumb_func
 272              		.fpu softvfp
 273              		.type	chPoolLoadArray, %function
 274              	chPoolLoadArray:
 275              	.LFB153:
 276              		.loc 5 97 0
 277              		.cfi_startproc
 278              		@ args = 0, pretend = 0, frame = 16
 279              		@ frame_needed = 0, uses_anonymous_args = 0
 280 0000 00B5     		push	{lr}
 281              		.cfi_def_cfa_offset 4
 282              		.cfi_offset 14, -4
 283 0002 85B0     		sub	sp, sp, #20
 284              		.cfi_def_cfa_offset 24
 285 0004 0390     		str	r0, [sp, #12]
ARM GAS  /tmp/ccWRZ51O.s 			page 6


 286 0006 0291     		str	r1, [sp, #8]
 287 0008 0192     		str	r2, [sp, #4]
 288              		.loc 5 99 0
 289 000a 039B     		ldr	r3, [sp, #12]
 290 000c 002B     		cmp	r3, #0
 291 000e 02D0     		beq	.L15
 292              		.loc 5 99 0 is_stmt 0 discriminator 3
 293 0010 019B     		ldr	r3, [sp, #4]
 294 0012 002B     		cmp	r3, #0
 295 0014 12D1     		bne	.L17
 296              	.L15:
 297              		.loc 5 99 0 discriminator 4
 298 0016 0C4B     		ldr	r3, .L19
 299 0018 1800     		movs	r0, r3
 300 001a FFF7FEFF 		bl	chSysHalt
 301              		.loc 5 101 0 is_stmt 1 discriminator 4
 302 001e 0DE0     		b	.L17
 303              	.L18:
 304              		.loc 5 102 0
 305 0020 029A     		ldr	r2, [sp, #8]
 306 0022 039B     		ldr	r3, [sp, #12]
 307 0024 1100     		movs	r1, r2
 308 0026 1800     		movs	r0, r3
 309 0028 FFF7FEFF 		bl	chPoolAdd
 310              		.loc 5 104 0
 311 002c 039B     		ldr	r3, [sp, #12]
 312 002e 5B68     		ldr	r3, [r3, #4]
 313 0030 029A     		ldr	r2, [sp, #8]
 314 0032 D318     		adds	r3, r2, r3
 315 0034 0293     		str	r3, [sp, #8]
 316              		.loc 5 106 0
 317 0036 019B     		ldr	r3, [sp, #4]
 318 0038 013B     		subs	r3, r3, #1
 319 003a 0193     		str	r3, [sp, #4]
 320              	.L17:
 321              		.loc 5 101 0
 322 003c 019B     		ldr	r3, [sp, #4]
 323 003e 002B     		cmp	r3, #0
 324 0040 EED1     		bne	.L18
 325              		.loc 5 108 0
 326 0042 C046     		nop
 327 0044 05B0     		add	sp, sp, #20
 328              		@ sp needed
 329 0046 00BD     		pop	{pc}
 330              	.L20:
 331              		.align	2
 332              	.L19:
 333 0048 00000000 		.word	__func__.5704
 334              		.cfi_endproc
 335              	.LFE153:
 336              		.size	chPoolLoadArray, .-chPoolLoadArray
 337              		.section	.text.chPoolAllocI,"ax",%progbits
 338              		.align	1
 339              		.p2align 4,,15
 340              		.global	chPoolAllocI
 341              		.syntax unified
 342              		.code	16
ARM GAS  /tmp/ccWRZ51O.s 			page 7


 343              		.thumb_func
 344              		.fpu softvfp
 345              		.type	chPoolAllocI, %function
 346              	chPoolAllocI:
 347              	.LFB154:
 348              		.loc 5 120 0
 349              		.cfi_startproc
 350              		@ args = 0, pretend = 0, frame = 16
 351              		@ frame_needed = 0, uses_anonymous_args = 0
 352 0000 00B5     		push	{lr}
 353              		.cfi_def_cfa_offset 4
 354              		.cfi_offset 14, -4
 355 0002 85B0     		sub	sp, sp, #20
 356              		.cfi_def_cfa_offset 24
 357 0004 0190     		str	r0, [sp, #4]
 358              		.loc 5 123 0
 359 0006 FFF7FEFF 		bl	chDbgCheckClassI
 360              		.loc 5 124 0
 361 000a 019B     		ldr	r3, [sp, #4]
 362 000c 002B     		cmp	r3, #0
 363 000e 03D1     		bne	.L22
 364              		.loc 5 124 0 is_stmt 0 discriminator 2
 365 0010 0F4B     		ldr	r3, .L26
 366 0012 1800     		movs	r0, r3
 367 0014 FFF7FEFF 		bl	chSysHalt
 368              	.L22:
 369              		.loc 5 126 0 is_stmt 1
 370 0018 019B     		ldr	r3, [sp, #4]
 371 001a 1B68     		ldr	r3, [r3]
 372 001c 0393     		str	r3, [sp, #12]
 373              		.loc 5 128 0
 374 001e 039B     		ldr	r3, [sp, #12]
 375 0020 002B     		cmp	r3, #0
 376 0022 05D0     		beq	.L23
 377              		.loc 5 129 0
 378 0024 019B     		ldr	r3, [sp, #4]
 379 0026 1B68     		ldr	r3, [r3]
 380 0028 1A68     		ldr	r2, [r3]
 381 002a 019B     		ldr	r3, [sp, #4]
 382 002c 1A60     		str	r2, [r3]
 383 002e 0BE0     		b	.L24
 384              	.L23:
 385              		.loc 5 131 0
 386 0030 019B     		ldr	r3, [sp, #4]
 387 0032 9B68     		ldr	r3, [r3, #8]
 388 0034 002B     		cmp	r3, #0
 389 0036 07D0     		beq	.L24
 390              		.loc 5 132 0
 391 0038 019B     		ldr	r3, [sp, #4]
 392 003a 9A68     		ldr	r2, [r3, #8]
 393 003c 019B     		ldr	r3, [sp, #4]
 394 003e 5B68     		ldr	r3, [r3, #4]
 395 0040 1800     		movs	r0, r3
 396 0042 9047     		blx	r2
 397              	.LVL0:
 398 0044 0300     		movs	r3, r0
 399 0046 0393     		str	r3, [sp, #12]
ARM GAS  /tmp/ccWRZ51O.s 			page 8


 400              	.L24:
 401              		.loc 5 136 0
 402 0048 039B     		ldr	r3, [sp, #12]
 403              		.loc 5 137 0
 404 004a 1800     		movs	r0, r3
 405 004c 05B0     		add	sp, sp, #20
 406              		@ sp needed
 407 004e 00BD     		pop	{pc}
 408              	.L27:
 409              		.align	2
 410              	.L26:
 411 0050 00000000 		.word	__func__.5712
 412              		.cfi_endproc
 413              	.LFE154:
 414              		.size	chPoolAllocI, .-chPoolAllocI
 415              		.section	.text.chPoolAlloc,"ax",%progbits
 416              		.align	1
 417              		.p2align 4,,15
 418              		.global	chPoolAlloc
 419              		.syntax unified
 420              		.code	16
 421              		.thumb_func
 422              		.fpu softvfp
 423              		.type	chPoolAlloc, %function
 424              	chPoolAlloc:
 425              	.LFB155:
 426              		.loc 5 149 0
 427              		.cfi_startproc
 428              		@ args = 0, pretend = 0, frame = 16
 429              		@ frame_needed = 0, uses_anonymous_args = 0
 430 0000 00B5     		push	{lr}
 431              		.cfi_def_cfa_offset 4
 432              		.cfi_offset 14, -4
 433 0002 85B0     		sub	sp, sp, #20
 434              		.cfi_def_cfa_offset 24
 435 0004 0190     		str	r0, [sp, #4]
 436              		.loc 5 152 0
 437 0006 FFF7FEFF 		bl	chSysLock
 438              		.loc 5 153 0
 439 000a 019B     		ldr	r3, [sp, #4]
 440 000c 1800     		movs	r0, r3
 441 000e FFF7FEFF 		bl	chPoolAllocI
 442 0012 0300     		movs	r3, r0
 443 0014 0393     		str	r3, [sp, #12]
 444              		.loc 5 154 0
 445 0016 FFF7FEFF 		bl	chSysUnlock
 446              		.loc 5 156 0
 447 001a 039B     		ldr	r3, [sp, #12]
 448              		.loc 5 157 0
 449 001c 1800     		movs	r0, r3
 450 001e 05B0     		add	sp, sp, #20
 451              		@ sp needed
 452 0020 00BD     		pop	{pc}
 453              		.cfi_endproc
 454              	.LFE155:
 455              		.size	chPoolAlloc, .-chPoolAlloc
 456 0022 C046     		.section	.text.chPoolFreeI,"ax",%progbits
ARM GAS  /tmp/ccWRZ51O.s 			page 9


 457              		.align	1
 458              		.p2align 4,,15
 459              		.global	chPoolFreeI
 460              		.syntax unified
 461              		.code	16
 462              		.thumb_func
 463              		.fpu softvfp
 464              		.type	chPoolFreeI, %function
 465              	chPoolFreeI:
 466              	.LFB156:
 467              		.loc 5 171 0
 468              		.cfi_startproc
 469              		@ args = 0, pretend = 0, frame = 16
 470              		@ frame_needed = 0, uses_anonymous_args = 0
 471 0000 00B5     		push	{lr}
 472              		.cfi_def_cfa_offset 4
 473              		.cfi_offset 14, -4
 474 0002 85B0     		sub	sp, sp, #20
 475              		.cfi_def_cfa_offset 24
 476 0004 0190     		str	r0, [sp, #4]
 477 0006 0091     		str	r1, [sp]
 478              		.loc 5 172 0
 479 0008 009B     		ldr	r3, [sp]
 480 000a 0393     		str	r3, [sp, #12]
 481              		.loc 5 174 0
 482 000c FFF7FEFF 		bl	chDbgCheckClassI
 483              		.loc 5 175 0
 484 0010 019B     		ldr	r3, [sp, #4]
 485 0012 002B     		cmp	r3, #0
 486 0014 02D0     		beq	.L31
 487              		.loc 5 175 0 is_stmt 0 discriminator 3
 488 0016 009B     		ldr	r3, [sp]
 489 0018 002B     		cmp	r3, #0
 490 001a 03D1     		bne	.L32
 491              	.L31:
 492              		.loc 5 175 0 discriminator 4
 493 001c 064B     		ldr	r3, .L33
 494 001e 1800     		movs	r0, r3
 495 0020 FFF7FEFF 		bl	chSysHalt
 496              	.L32:
 497              		.loc 5 177 0 is_stmt 1
 498 0024 019B     		ldr	r3, [sp, #4]
 499 0026 1A68     		ldr	r2, [r3]
 500 0028 039B     		ldr	r3, [sp, #12]
 501 002a 1A60     		str	r2, [r3]
 502              		.loc 5 178 0
 503 002c 019B     		ldr	r3, [sp, #4]
 504 002e 039A     		ldr	r2, [sp, #12]
 505 0030 1A60     		str	r2, [r3]
 506              		.loc 5 179 0
 507 0032 C046     		nop
 508 0034 05B0     		add	sp, sp, #20
 509              		@ sp needed
 510 0036 00BD     		pop	{pc}
 511              	.L34:
 512              		.align	2
 513              	.L33:
ARM GAS  /tmp/ccWRZ51O.s 			page 10


 514 0038 00000000 		.word	__func__.5722
 515              		.cfi_endproc
 516              	.LFE156:
 517              		.size	chPoolFreeI, .-chPoolFreeI
 518              		.section	.text.chPoolFree,"ax",%progbits
 519              		.align	1
 520              		.p2align 4,,15
 521              		.global	chPoolFree
 522              		.syntax unified
 523              		.code	16
 524              		.thumb_func
 525              		.fpu softvfp
 526              		.type	chPoolFree, %function
 527              	chPoolFree:
 528              	.LFB157:
 529              		.loc 5 193 0
 530              		.cfi_startproc
 531              		@ args = 0, pretend = 0, frame = 8
 532              		@ frame_needed = 0, uses_anonymous_args = 0
 533 0000 00B5     		push	{lr}
 534              		.cfi_def_cfa_offset 4
 535              		.cfi_offset 14, -4
 536 0002 83B0     		sub	sp, sp, #12
 537              		.cfi_def_cfa_offset 16
 538 0004 0190     		str	r0, [sp, #4]
 539 0006 0091     		str	r1, [sp]
 540              		.loc 5 195 0
 541 0008 FFF7FEFF 		bl	chSysLock
 542              		.loc 5 196 0
 543 000c 009A     		ldr	r2, [sp]
 544 000e 019B     		ldr	r3, [sp, #4]
 545 0010 1100     		movs	r1, r2
 546 0012 1800     		movs	r0, r3
 547 0014 FFF7FEFF 		bl	chPoolFreeI
 548              		.loc 5 197 0
 549 0018 FFF7FEFF 		bl	chSysUnlock
 550              		.loc 5 198 0
 551 001c C046     		nop
 552 001e 03B0     		add	sp, sp, #12
 553              		@ sp needed
 554 0020 00BD     		pop	{pc}
 555              		.cfi_endproc
 556              	.LFE157:
 557              		.size	chPoolFree, .-chPoolFree
 558 0022 C046     		.section	.rodata.__func__.5698,"a",%progbits
 559              		.align	2
 560              		.type	__func__.5698, %object
 561              		.size	__func__.5698, 17
 562              	__func__.5698:
 563 0000 6368506F 		.ascii	"chPoolObjectInit\000"
 563      6F6C4F62 
 563      6A656374 
 563      496E6974 
 563      00
 564              		.section	.rodata.__func__.5704,"a",%progbits
 565              		.align	2
 566              		.type	__func__.5704, %object
ARM GAS  /tmp/ccWRZ51O.s 			page 11


 567              		.size	__func__.5704, 16
 568              	__func__.5704:
 569 0000 6368506F 		.ascii	"chPoolLoadArray\000"
 569      6F6C4C6F 
 569      61644172 
 569      72617900 
 570              		.section	.rodata.__func__.5712,"a",%progbits
 571              		.align	2
 572              		.type	__func__.5712, %object
 573              		.size	__func__.5712, 13
 574              	__func__.5712:
 575 0000 6368506F 		.ascii	"chPoolAllocI\000"
 575      6F6C416C 
 575      6C6F6349 
 575      00
 576              		.section	.rodata.__func__.4993,"a",%progbits
 577              		.align	2
 578              		.type	__func__.4993, %object
 579              		.size	__func__.4993, 12
 580              	__func__.4993:
 581 0000 63685379 		.ascii	"chSysUnlock\000"
 581      73556E6C 
 581      6F636B00 
 582              		.section	.rodata.__func__.5722,"a",%progbits
 583              		.align	2
 584              		.type	__func__.5722, %object
 585              		.size	__func__.5722, 12
 586              	__func__.5722:
 587 0000 6368506F 		.ascii	"chPoolFreeI\000"
 587      6F6C4672 
 587      65654900 
 588              		.text
 589              	.Letext0:
 590              		.file 6 "/home/felix/opt/gcc-arm-none-eabi-6-2017-q1-update/lib/gcc/arm-none-eabi/6.3.1/include/st
 591              		.file 7 "/home/felix/opt/gcc-arm-none-eabi-6-2017-q1-update/arm-none-eabi/include/machine/_default
 592              		.file 8 "/home/felix/opt/gcc-arm-none-eabi-6-2017-q1-update/arm-none-eabi/include/sys/_stdint.h"
 593              		.file 9 "ChibiOS/os/rt/ports/ARMCMx/compilers/GCC/chtypes.h"
 594              		.file 10 "ChibiOS/os/rt/include/chsystypes.h"
 595              		.file 11 "ChibiOS/os/rt/include/chschd.h"
 596              		.file 12 "ChibiOS/os/rt/ports/ARMCMx/chcore.h"
 597              		.file 13 "ChibiOS/os/rt/include/chdebug.h"
 598              		.file 14 "ChibiOS/os/rt/include/chsem.h"
 599              		.file 15 "ChibiOS/os/rt/include/chmtx.h"
 600              		.file 16 "ChibiOS/os/rt/include/chregistry.h"
 601              		.file 17 "ChibiOS/os/ext/CMSIS/ST/STM32F0xx/system_stm32f0xx.h"
 602              		.file 18 "ChibiOS/os/rt/include/chmemcore.h"