ARM GAS  /tmp/ccN8vwv5.s 			page 1


   1              		.cpu cortex-m0
   2              		.eabi_attribute 20, 1
   3              		.eabi_attribute 21, 1
   4              		.eabi_attribute 23, 3
   5              		.eabi_attribute 24, 1
   6              		.eabi_attribute 25, 1
   7              		.eabi_attribute 26, 1
   8              		.eabi_attribute 30, 6
   9              		.eabi_attribute 34, 0
  10              		.eabi_attribute 18, 4
  11              		.file	"chmsg.c"
  12              		.text
  13              	.Ltext0:
  14              		.cfi_sections	.debug_frame
  15              		.section	.text.port_lock,"ax",%progbits
  16              		.align	1
  17              		.p2align 4,,15
  18              		.syntax unified
  19              		.code	16
  20              		.thumb_func
  21              		.fpu softvfp
  22              		.type	port_lock, %function
  23              	port_lock:
  24              	.LFB38:
  25              		.file 1 "ChibiOS/os/rt/ports/ARMCMx/chcore_v6m.h"
  26              		.loc 1 330 0
  27              		.cfi_startproc
  28              		@ args = 0, pretend = 0, frame = 0
  29              		@ frame_needed = 0, uses_anonymous_args = 0
  30              		@ link register save eliminated.
  31              	.LBB6:
  32              	.LBB7:
  33              		.file 2 "ChibiOS/os/ext/CMSIS/include/core_cmFunc.h"
  34              		.loc 2 344 0
  35              		.syntax divided
  36              	@ 344 "ChibiOS/os/ext/CMSIS/include/core_cmFunc.h" 1
  37 0000 72B6     		cpsid i
  38              	@ 0 "" 2
  39              		.thumb
  40              		.syntax unified
  41              	.LBE7:
  42              	.LBE6:
  43              		.loc 1 333 0
  44 0002 C046     		nop
  45              		@ sp needed
  46 0004 7047     		bx	lr
  47              		.cfi_endproc
  48              	.LFE38:
  49              		.size	port_lock, .-port_lock
  50 0006 C046     		.section	.text.port_unlock,"ax",%progbits
  51              		.align	1
  52              		.p2align 4,,15
  53              		.syntax unified
  54              		.code	16
  55              		.thumb_func
  56              		.fpu softvfp
  57              		.type	port_unlock, %function
ARM GAS  /tmp/ccN8vwv5.s 			page 2


  58              	port_unlock:
  59              	.LFB39:
  60              		.loc 1 339 0
  61              		.cfi_startproc
  62              		@ args = 0, pretend = 0, frame = 0
  63              		@ frame_needed = 0, uses_anonymous_args = 0
  64              		@ link register save eliminated.
  65              	.LBB8:
  66              	.LBB9:
  67              		.loc 2 333 0
  68              		.syntax divided
  69              	@ 333 "ChibiOS/os/ext/CMSIS/include/core_cmFunc.h" 1
  70 0000 62B6     		cpsie i
  71              	@ 0 "" 2
  72              		.thumb
  73              		.syntax unified
  74              	.LBE9:
  75              	.LBE8:
  76              		.loc 1 342 0
  77 0002 C046     		nop
  78              		@ sp needed
  79 0004 7047     		bx	lr
  80              		.cfi_endproc
  81              	.LFE39:
  82              		.size	port_unlock, .-port_unlock
  83 0006 C046     		.section	.text.queue_insert,"ax",%progbits
  84              		.align	1
  85              		.p2align 4,,15
  86              		.syntax unified
  87              		.code	16
  88              		.thumb_func
  89              		.fpu softvfp
  90              		.type	queue_insert, %function
  91              	queue_insert:
  92              	.LFB66:
  93              		.file 3 "ChibiOS/os/rt/include/chschd.h"
  94              		.loc 3 663 0
  95              		.cfi_startproc
  96              		@ args = 0, pretend = 0, frame = 8
  97              		@ frame_needed = 0, uses_anonymous_args = 0
  98              		@ link register save eliminated.
  99 0000 82B0     		sub	sp, sp, #8
 100              		.cfi_def_cfa_offset 8
 101 0002 0190     		str	r0, [sp, #4]
 102 0004 0091     		str	r1, [sp]
 103              		.loc 3 665 0
 104 0006 019B     		ldr	r3, [sp, #4]
 105 0008 009A     		ldr	r2, [sp]
 106 000a 1A60     		str	r2, [r3]
 107              		.loc 3 666 0
 108 000c 009B     		ldr	r3, [sp]
 109 000e 5A68     		ldr	r2, [r3, #4]
 110 0010 019B     		ldr	r3, [sp, #4]
 111 0012 5A60     		str	r2, [r3, #4]
 112              		.loc 3 667 0
 113 0014 019B     		ldr	r3, [sp, #4]
 114 0016 5B68     		ldr	r3, [r3, #4]
ARM GAS  /tmp/ccN8vwv5.s 			page 3


 115 0018 019A     		ldr	r2, [sp, #4]
 116 001a 1A60     		str	r2, [r3]
 117              		.loc 3 668 0
 118 001c 009B     		ldr	r3, [sp]
 119 001e 019A     		ldr	r2, [sp, #4]
 120 0020 5A60     		str	r2, [r3, #4]
 121              		.loc 3 669 0
 122 0022 C046     		nop
 123 0024 02B0     		add	sp, sp, #8
 124              		@ sp needed
 125 0026 7047     		bx	lr
 126              		.cfi_endproc
 127              	.LFE66:
 128              		.size	queue_insert, .-queue_insert
 129              		.section	.text.queue_fifo_remove,"ax",%progbits
 130              		.align	1
 131              		.p2align 4,,15
 132              		.syntax unified
 133              		.code	16
 134              		.thumb_func
 135              		.fpu softvfp
 136              		.type	queue_fifo_remove, %function
 137              	queue_fifo_remove:
 138              	.LFB67:
 139              		.loc 3 671 0
 140              		.cfi_startproc
 141              		@ args = 0, pretend = 0, frame = 16
 142              		@ frame_needed = 0, uses_anonymous_args = 0
 143              		@ link register save eliminated.
 144 0000 84B0     		sub	sp, sp, #16
 145              		.cfi_def_cfa_offset 16
 146 0002 0190     		str	r0, [sp, #4]
 147              		.loc 3 672 0
 148 0004 019B     		ldr	r3, [sp, #4]
 149 0006 1B68     		ldr	r3, [r3]
 150 0008 0393     		str	r3, [sp, #12]
 151              		.loc 3 674 0
 152 000a 039B     		ldr	r3, [sp, #12]
 153 000c 1A68     		ldr	r2, [r3]
 154 000e 019B     		ldr	r3, [sp, #4]
 155 0010 1A60     		str	r2, [r3]
 156              		.loc 3 675 0
 157 0012 019B     		ldr	r3, [sp, #4]
 158 0014 1B68     		ldr	r3, [r3]
 159 0016 019A     		ldr	r2, [sp, #4]
 160 0018 5A60     		str	r2, [r3, #4]
 161              		.loc 3 677 0
 162 001a 039B     		ldr	r3, [sp, #12]
 163              		.loc 3 678 0
 164 001c 1800     		movs	r0, r3
 165 001e 04B0     		add	sp, sp, #16
 166              		@ sp needed
 167 0020 7047     		bx	lr
 168              		.cfi_endproc
 169              	.LFE67:
 170              		.size	queue_fifo_remove, .-queue_fifo_remove
 171 0022 C046     		.section	.text.chSysLock,"ax",%progbits
ARM GAS  /tmp/ccN8vwv5.s 			page 4


 172              		.align	1
 173              		.p2align 4,,15
 174              		.syntax unified
 175              		.code	16
 176              		.thumb_func
 177              		.fpu softvfp
 178              		.type	chSysLock, %function
 179              	chSysLock:
 180              	.LFB77:
 181              		.file 4 "ChibiOS/os/rt/include/chsys.h"
 182              		.loc 4 346 0
 183              		.cfi_startproc
 184              		@ args = 0, pretend = 0, frame = 0
 185              		@ frame_needed = 0, uses_anonymous_args = 0
 186 0000 10B5     		push	{r4, lr}
 187              		.cfi_def_cfa_offset 8
 188              		.cfi_offset 4, -8
 189              		.cfi_offset 14, -4
 190              		.loc 4 348 0
 191 0002 FFF7FEFF 		bl	port_lock
 192              		.loc 4 350 0
 193 0006 FFF7FEFF 		bl	_dbg_check_lock
 194              		.loc 4 351 0
 195 000a C046     		nop
 196              		@ sp needed
 197 000c 10BD     		pop	{r4, pc}
 198              		.cfi_endproc
 199              	.LFE77:
 200              		.size	chSysLock, .-chSysLock
 201 000e C046     		.section	.text.chSysUnlock,"ax",%progbits
 202              		.align	1
 203              		.p2align 4,,15
 204              		.syntax unified
 205              		.code	16
 206              		.thumb_func
 207              		.fpu softvfp
 208              		.type	chSysUnlock, %function
 209              	chSysUnlock:
 210              	.LFB78:
 211              		.loc 4 358 0
 212              		.cfi_startproc
 213              		@ args = 0, pretend = 0, frame = 0
 214              		@ frame_needed = 0, uses_anonymous_args = 0
 215 0000 10B5     		push	{r4, lr}
 216              		.cfi_def_cfa_offset 8
 217              		.cfi_offset 4, -8
 218              		.cfi_offset 14, -4
 219              		.loc 4 360 0
 220 0002 FFF7FEFF 		bl	_dbg_check_unlock
 221              		.loc 4 367 0
 222 0006 0A4B     		ldr	r3, .L9
 223 0008 1A68     		ldr	r2, [r3]
 224 000a 094B     		ldr	r3, .L9
 225 000c 9A42     		cmp	r2, r3
 226 000e 0BD0     		beq	.L8
 227              		.loc 4 367 0 is_stmt 0 discriminator 2
 228 0010 074B     		ldr	r3, .L9
ARM GAS  /tmp/ccN8vwv5.s 			page 5


 229 0012 9B69     		ldr	r3, [r3, #24]
 230 0014 9A68     		ldr	r2, [r3, #8]
 231 0016 064B     		ldr	r3, .L9
 232 0018 1B68     		ldr	r3, [r3]
 233 001a 9B68     		ldr	r3, [r3, #8]
 234 001c 9A42     		cmp	r2, r3
 235 001e 03D2     		bcs	.L8
 236              		.loc 4 367 0 discriminator 3
 237 0020 044B     		ldr	r3, .L9+4
 238 0022 1800     		movs	r0, r3
 239 0024 FFF7FEFF 		bl	chSysHalt
 240              	.L8:
 241              		.loc 4 371 0 is_stmt 1
 242 0028 FFF7FEFF 		bl	port_unlock
 243              		.loc 4 372 0
 244 002c C046     		nop
 245              		@ sp needed
 246 002e 10BD     		pop	{r4, pc}
 247              	.L10:
 248              		.align	2
 249              	.L9:
 250 0030 00000000 		.word	ch
 251 0034 00000000 		.word	__func__.4993
 252              		.cfi_endproc
 253              	.LFE78:
 254              		.size	chSysUnlock, .-chSysUnlock
 255              		.section	.text.chMsgIsPendingI,"ax",%progbits
 256              		.align	1
 257              		.p2align 4,,15
 258              		.syntax unified
 259              		.code	16
 260              		.thumb_func
 261              		.fpu softvfp
 262              		.type	chMsgIsPendingI, %function
 263              	chMsgIsPendingI:
 264              	.LFB132:
 265              		.file 5 "ChibiOS/os/rt/include/chmsg.h"
 266              		.loc 5 79 0
 267              		.cfi_startproc
 268              		@ args = 0, pretend = 0, frame = 8
 269              		@ frame_needed = 0, uses_anonymous_args = 0
 270 0000 00B5     		push	{lr}
 271              		.cfi_def_cfa_offset 4
 272              		.cfi_offset 14, -4
 273 0002 83B0     		sub	sp, sp, #12
 274              		.cfi_def_cfa_offset 16
 275 0004 0190     		str	r0, [sp, #4]
 276              		.loc 5 81 0
 277 0006 FFF7FEFF 		bl	chDbgCheckClassI
 278              		.loc 5 83 0
 279 000a 019B     		ldr	r3, [sp, #4]
 280 000c DA6A     		ldr	r2, [r3, #44]
 281 000e 019B     		ldr	r3, [sp, #4]
 282 0010 2C33     		adds	r3, r3, #44
 283 0012 D31A     		subs	r3, r2, r3
 284 0014 5A1E     		subs	r2, r3, #1
 285 0016 9341     		sbcs	r3, r3, r2
ARM GAS  /tmp/ccN8vwv5.s 			page 6


 286 0018 DBB2     		uxtb	r3, r3
 287              		.loc 5 84 0
 288 001a 1800     		movs	r0, r3
 289 001c 03B0     		add	sp, sp, #12
 290              		@ sp needed
 291 001e 00BD     		pop	{pc}
 292              		.cfi_endproc
 293              	.LFE132:
 294              		.size	chMsgIsPendingI, .-chMsgIsPendingI
 295              		.section	.text.chMsgReleaseS,"ax",%progbits
 296              		.align	1
 297              		.p2align 4,,15
 298              		.syntax unified
 299              		.code	16
 300              		.thumb_func
 301              		.fpu softvfp
 302              		.type	chMsgReleaseS, %function
 303              	chMsgReleaseS:
 304              	.LFB134:
 305              		.loc 5 111 0
 306              		.cfi_startproc
 307              		@ args = 0, pretend = 0, frame = 8
 308              		@ frame_needed = 0, uses_anonymous_args = 0
 309 0000 00B5     		push	{lr}
 310              		.cfi_def_cfa_offset 4
 311              		.cfi_offset 14, -4
 312 0002 83B0     		sub	sp, sp, #12
 313              		.cfi_def_cfa_offset 16
 314 0004 0190     		str	r0, [sp, #4]
 315 0006 0091     		str	r1, [sp]
 316              		.loc 5 113 0
 317 0008 FFF7FEFF 		bl	chDbgCheckClassS
 318              		.loc 5 115 0
 319 000c 009A     		ldr	r2, [sp]
 320 000e 019B     		ldr	r3, [sp, #4]
 321 0010 1100     		movs	r1, r2
 322 0012 1800     		movs	r0, r3
 323 0014 FFF7FEFF 		bl	chSchWakeupS
 324              		.loc 5 116 0
 325 0018 C046     		nop
 326 001a 03B0     		add	sp, sp, #12
 327              		@ sp needed
 328 001c 00BD     		pop	{pc}
 329              		.cfi_endproc
 330              	.LFE134:
 331              		.size	chMsgReleaseS, .-chMsgReleaseS
 332 001e C046     		.section	.text.chMsgSend,"ax",%progbits
 333              		.align	1
 334              		.p2align 4,,15
 335              		.global	chMsgSend
 336              		.syntax unified
 337              		.code	16
 338              		.thumb_func
 339              		.fpu softvfp
 340              		.type	chMsgSend, %function
 341              	chMsgSend:
 342              	.LFB152:
ARM GAS  /tmp/ccN8vwv5.s 			page 7


 343              		.file 6 "ChibiOS/os/rt/src/chmsg.c"
 344              		.loc 6 87 0
 345              		.cfi_startproc
 346              		@ args = 0, pretend = 0, frame = 16
 347              		@ frame_needed = 0, uses_anonymous_args = 0
 348 0000 00B5     		push	{lr}
 349              		.cfi_def_cfa_offset 4
 350              		.cfi_offset 14, -4
 351 0002 85B0     		sub	sp, sp, #20
 352              		.cfi_def_cfa_offset 24
 353 0004 0190     		str	r0, [sp, #4]
 354 0006 0091     		str	r1, [sp]
 355              		.loc 6 88 0
 356 0008 184B     		ldr	r3, .L18
 357 000a 9B69     		ldr	r3, [r3, #24]
 358 000c 0393     		str	r3, [sp, #12]
 359              		.loc 6 90 0
 360 000e 019B     		ldr	r3, [sp, #4]
 361 0010 002B     		cmp	r3, #0
 362 0012 03D1     		bne	.L15
 363              		.loc 6 90 0 is_stmt 0 discriminator 2
 364 0014 164B     		ldr	r3, .L18+4
 365 0016 1800     		movs	r0, r3
 366 0018 FFF7FEFF 		bl	chSysHalt
 367              	.L15:
 368              		.loc 6 92 0 is_stmt 1
 369 001c FFF7FEFF 		bl	chSysLock
 370              		.loc 6 93 0
 371 0020 039B     		ldr	r3, [sp, #12]
 372 0022 009A     		ldr	r2, [sp]
 373 0024 5A63     		str	r2, [r3, #52]
 374              		.loc 6 94 0
 375 0026 019B     		ldr	r3, [sp, #4]
 376 0028 2C33     		adds	r3, r3, #44
 377 002a 1A00     		movs	r2, r3
 378 002c 039B     		ldr	r3, [sp, #12]
 379 002e 5A62     		str	r2, [r3, #36]
 380              		.loc 6 95 0
 381 0030 019B     		ldr	r3, [sp, #4]
 382 0032 2C33     		adds	r3, r3, #44
 383 0034 1A00     		movs	r2, r3
 384 0036 039B     		ldr	r3, [sp, #12]
 385 0038 1100     		movs	r1, r2
 386 003a 1800     		movs	r0, r3
 387 003c FFF7FEFF 		bl	queue_insert
 388              		.loc 6 96 0
 389 0040 019B     		ldr	r3, [sp, #4]
 390 0042 2022     		movs	r2, #32
 391 0044 9B5C     		ldrb	r3, [r3, r2]
 392 0046 0E2B     		cmp	r3, #14
 393 0048 03D1     		bne	.L16
 394              		.loc 6 97 0
 395 004a 019B     		ldr	r3, [sp, #4]
 396 004c 1800     		movs	r0, r3
 397 004e FFF7FEFF 		bl	chSchReadyI
 398              	.L16:
 399              		.loc 6 99 0
ARM GAS  /tmp/ccN8vwv5.s 			page 8


 400 0052 0C20     		movs	r0, #12
 401 0054 FFF7FEFF 		bl	chSchGoSleepS
 402              		.loc 6 100 0
 403 0058 039B     		ldr	r3, [sp, #12]
 404 005a 5B6A     		ldr	r3, [r3, #36]
 405 005c 0093     		str	r3, [sp]
 406              		.loc 6 101 0
 407 005e FFF7FEFF 		bl	chSysUnlock
 408              		.loc 6 103 0
 409 0062 009B     		ldr	r3, [sp]
 410              		.loc 6 104 0
 411 0064 1800     		movs	r0, r3
 412 0066 05B0     		add	sp, sp, #20
 413              		@ sp needed
 414 0068 00BD     		pop	{pc}
 415              	.L19:
 416 006a C046     		.align	2
 417              	.L18:
 418 006c 00000000 		.word	ch
 419 0070 00000000 		.word	__func__.5698
 420              		.cfi_endproc
 421              	.LFE152:
 422              		.size	chMsgSend, .-chMsgSend
 423              		.section	.text.chMsgWait,"ax",%progbits
 424              		.align	1
 425              		.p2align 4,,15
 426              		.global	chMsgWait
 427              		.syntax unified
 428              		.code	16
 429              		.thumb_func
 430              		.fpu softvfp
 431              		.type	chMsgWait, %function
 432              	chMsgWait:
 433              	.LFB153:
 434              		.loc 6 120 0
 435              		.cfi_startproc
 436              		@ args = 0, pretend = 0, frame = 8
 437              		@ frame_needed = 0, uses_anonymous_args = 0
 438 0000 00B5     		push	{lr}
 439              		.cfi_def_cfa_offset 4
 440              		.cfi_offset 14, -4
 441 0002 83B0     		sub	sp, sp, #12
 442              		.cfi_def_cfa_offset 16
 443              		.loc 6 123 0
 444 0004 FFF7FEFF 		bl	chSysLock
 445              		.loc 6 124 0
 446 0008 104B     		ldr	r3, .L23
 447 000a 9B69     		ldr	r3, [r3, #24]
 448 000c 1800     		movs	r0, r3
 449 000e FFF7FEFF 		bl	chMsgIsPendingI
 450 0012 0300     		movs	r3, r0
 451 0014 1A00     		movs	r2, r3
 452 0016 0123     		movs	r3, #1
 453 0018 5340     		eors	r3, r2
 454 001a DBB2     		uxtb	r3, r3
 455 001c 002B     		cmp	r3, #0
 456 001e 02D0     		beq	.L21
ARM GAS  /tmp/ccN8vwv5.s 			page 9


 457              		.loc 6 125 0
 458 0020 0E20     		movs	r0, #14
 459 0022 FFF7FEFF 		bl	chSchGoSleepS
 460              	.L21:
 461              		.loc 6 127 0
 462 0026 094B     		ldr	r3, .L23
 463 0028 9B69     		ldr	r3, [r3, #24]
 464 002a 2C33     		adds	r3, r3, #44
 465 002c 1800     		movs	r0, r3
 466 002e FFF7FEFF 		bl	queue_fifo_remove
 467 0032 0300     		movs	r3, r0
 468 0034 0193     		str	r3, [sp, #4]
 469              		.loc 6 128 0
 470 0036 019B     		ldr	r3, [sp, #4]
 471 0038 2022     		movs	r2, #32
 472 003a 0D21     		movs	r1, #13
 473 003c 9954     		strb	r1, [r3, r2]
 474              		.loc 6 129 0
 475 003e FFF7FEFF 		bl	chSysUnlock
 476              		.loc 6 131 0
 477 0042 019B     		ldr	r3, [sp, #4]
 478              		.loc 6 132 0
 479 0044 1800     		movs	r0, r3
 480 0046 03B0     		add	sp, sp, #12
 481              		@ sp needed
 482 0048 00BD     		pop	{pc}
 483              	.L24:
 484 004a C046     		.align	2
 485              	.L23:
 486 004c 00000000 		.word	ch
 487              		.cfi_endproc
 488              	.LFE153:
 489              		.size	chMsgWait, .-chMsgWait
 490              		.section	.text.chMsgRelease,"ax",%progbits
 491              		.align	1
 492              		.p2align 4,,15
 493              		.global	chMsgRelease
 494              		.syntax unified
 495              		.code	16
 496              		.thumb_func
 497              		.fpu softvfp
 498              		.type	chMsgRelease, %function
 499              	chMsgRelease:
 500              	.LFB154:
 501              		.loc 6 144 0
 502              		.cfi_startproc
 503              		@ args = 0, pretend = 0, frame = 8
 504              		@ frame_needed = 0, uses_anonymous_args = 0
 505 0000 00B5     		push	{lr}
 506              		.cfi_def_cfa_offset 4
 507              		.cfi_offset 14, -4
 508 0002 83B0     		sub	sp, sp, #12
 509              		.cfi_def_cfa_offset 16
 510 0004 0190     		str	r0, [sp, #4]
 511 0006 0091     		str	r1, [sp]
 512              		.loc 6 146 0
 513 0008 FFF7FEFF 		bl	chSysLock
ARM GAS  /tmp/ccN8vwv5.s 			page 10


 514              		.loc 6 147 0
 515 000c 019B     		ldr	r3, [sp, #4]
 516 000e 2022     		movs	r2, #32
 517 0010 9B5C     		ldrb	r3, [r3, r2]
 518 0012 0D2B     		cmp	r3, #13
 519 0014 03D0     		beq	.L26
 520              		.loc 6 147 0 is_stmt 0 discriminator 2
 521 0016 074B     		ldr	r3, .L27
 522 0018 1800     		movs	r0, r3
 523 001a FFF7FEFF 		bl	chSysHalt
 524              	.L26:
 525              		.loc 6 148 0 is_stmt 1
 526 001e 009A     		ldr	r2, [sp]
 527 0020 019B     		ldr	r3, [sp, #4]
 528 0022 1100     		movs	r1, r2
 529 0024 1800     		movs	r0, r3
 530 0026 FFF7FEFF 		bl	chMsgReleaseS
 531              		.loc 6 149 0
 532 002a FFF7FEFF 		bl	chSysUnlock
 533              		.loc 6 150 0
 534 002e C046     		nop
 535 0030 03B0     		add	sp, sp, #12
 536              		@ sp needed
 537 0032 00BD     		pop	{pc}
 538              	.L28:
 539              		.align	2
 540              	.L27:
 541 0034 00000000 		.word	__func__.5707
 542              		.cfi_endproc
 543              	.LFE154:
 544              		.size	chMsgRelease, .-chMsgRelease
 545              		.section	.rodata.__func__.5698,"a",%progbits
 546              		.align	2
 547              		.type	__func__.5698, %object
 548              		.size	__func__.5698, 10
 549              	__func__.5698:
 550 0000 63684D73 		.ascii	"chMsgSend\000"
 550      6753656E 
 550      6400
 551              		.section	.rodata.__func__.4993,"a",%progbits
 552              		.align	2
 553              		.type	__func__.4993, %object
 554              		.size	__func__.4993, 12
 555              	__func__.4993:
 556 0000 63685379 		.ascii	"chSysUnlock\000"
 556      73556E6C 
 556      6F636B00 
 557              		.section	.rodata.__func__.5707,"a",%progbits
 558              		.align	2
 559              		.type	__func__.5707, %object
 560              		.size	__func__.5707, 13
 561              	__func__.5707:
 562 0000 63684D73 		.ascii	"chMsgRelease\000"
 562      6752656C 
 562      65617365 
 562      00
 563              		.text
ARM GAS  /tmp/ccN8vwv5.s 			page 11


 564              	.Letext0:
 565              		.file 7 "/home/felix/opt/gcc-arm-none-eabi-6-2017-q1-update/arm-none-eabi/include/machine/_default
 566              		.file 8 "/home/felix/opt/gcc-arm-none-eabi-6-2017-q1-update/arm-none-eabi/include/sys/_stdint.h"
 567              		.file 9 "ChibiOS/os/rt/ports/ARMCMx/compilers/GCC/chtypes.h"
 568              		.file 10 "ChibiOS/os/rt/include/chsystypes.h"
 569              		.file 11 "ChibiOS/os/rt/ports/ARMCMx/chcore.h"
 570              		.file 12 "ChibiOS/os/rt/include/chdebug.h"
 571              		.file 13 "ChibiOS/os/rt/include/chsem.h"
 572              		.file 14 "ChibiOS/os/rt/include/chmtx.h"
 573              		.file 15 "ChibiOS/os/rt/include/chregistry.h"
 574              		.file 16 "ChibiOS/os/ext/CMSIS/ST/STM32F0xx/system_stm32f0xx.h"
 575              		.section	.debug_info,"",%progbits
 576              	.Ldebug_info0:
 577 0000 420A0000 		.4byte	0xa42
 578 0004 0400     		.2byte	0x4
 579 0006 00000000 		.4byte	.Ldebug_abbrev0
 580 000a 04       		.byte	0x4
 581 000b 01       		.uleb128 0x1
 582 000c 7E020000 		.4byte	.LASF148
 583 0010 0C       		.byte	0xc
 584 0011 97050000 		.4byte	.LASF149
 585 0015 5E010000 		.4byte	.LASF150
 586 0019 00000000 		.4byte	.Ldebug_ranges0+0
 587 001d 00000000 		.4byte	0
 588 0021 00000000 		.4byte	.Ldebug_line0
 589 0025 02       		.uleb128 0x2
 590 0026 04       		.byte	0x4
 591 0027 05       		.byte	0x5
 592 0028 696E7400 		.ascii	"int\000"
 593 002c 03       		.uleb128 0x3
 594 002d 04       		.byte	0x4
 595 002e 07       		.byte	0x7
 596 002f 88000000 		.4byte	.LASF0
 597 0033 03       		.uleb128 0x3
 598 0034 08       		.byte	0x8
 599 0035 05       		.byte	0x5
 600 0036 23040000 		.4byte	.LASF1
 601 003a 03       		.uleb128 0x3
 602 003b 08       		.byte	0x8
 603 003c 04       		.byte	0x4
 604 003d D1040000 		.4byte	.LASF2
 605 0041 03       		.uleb128 0x3
 606 0042 01       		.byte	0x1
 607 0043 06       		.byte	0x6
 608 0044 D3060000 		.4byte	.LASF3
 609 0048 04       		.uleb128 0x4
 610 0049 BD050000 		.4byte	.LASF6
 611 004d 07       		.byte	0x7
 612 004e 2B       		.byte	0x2b
 613 004f 53000000 		.4byte	0x53
 614 0053 03       		.uleb128 0x3
 615 0054 01       		.byte	0x1
 616 0055 08       		.byte	0x8
 617 0056 4C060000 		.4byte	.LASF4
 618 005a 03       		.uleb128 0x3
 619 005b 02       		.byte	0x2
 620 005c 05       		.byte	0x5
ARM GAS  /tmp/ccN8vwv5.s 			page 12


 621 005d 0F050000 		.4byte	.LASF5
 622 0061 04       		.uleb128 0x4
 623 0062 F1010000 		.4byte	.LASF7
 624 0066 07       		.byte	0x7
 625 0067 39       		.byte	0x39
 626 0068 6C000000 		.4byte	0x6c
 627 006c 03       		.uleb128 0x3
 628 006d 02       		.byte	0x2
 629 006e 07       		.byte	0x7
 630 006f EC060000 		.4byte	.LASF8
 631 0073 04       		.uleb128 0x4
 632 0074 A4000000 		.4byte	.LASF9
 633 0078 07       		.byte	0x7
 634 0079 4D       		.byte	0x4d
 635 007a 7E000000 		.4byte	0x7e
 636 007e 03       		.uleb128 0x3
 637 007f 04       		.byte	0x4
 638 0080 05       		.byte	0x5
 639 0081 36050000 		.4byte	.LASF10
 640 0085 04       		.uleb128 0x4
 641 0086 5A060000 		.4byte	.LASF11
 642 008a 07       		.byte	0x7
 643 008b 4F       		.byte	0x4f
 644 008c 90000000 		.4byte	0x90
 645 0090 03       		.uleb128 0x3
 646 0091 04       		.byte	0x4
 647 0092 07       		.byte	0x7
 648 0093 ED050000 		.4byte	.LASF12
 649 0097 04       		.uleb128 0x4
 650 0098 55030000 		.4byte	.LASF13
 651 009c 07       		.byte	0x7
 652 009d 69       		.byte	0x69
 653 009e A2000000 		.4byte	0xa2
 654 00a2 03       		.uleb128 0x3
 655 00a3 08       		.byte	0x8
 656 00a4 07       		.byte	0x7
 657 00a5 D0010000 		.4byte	.LASF14
 658 00a9 04       		.uleb128 0x4
 659 00aa DE030000 		.4byte	.LASF15
 660 00ae 08       		.byte	0x8
 661 00af 18       		.byte	0x18
 662 00b0 48000000 		.4byte	0x48
 663 00b4 04       		.uleb128 0x4
 664 00b5 DD040000 		.4byte	.LASF16
 665 00b9 08       		.byte	0x8
 666 00ba 24       		.byte	0x24
 667 00bb 61000000 		.4byte	0x61
 668 00bf 04       		.uleb128 0x4
 669 00c0 19060000 		.4byte	.LASF17
 670 00c4 08       		.byte	0x8
 671 00c5 2C       		.byte	0x2c
 672 00c6 73000000 		.4byte	0x73
 673 00ca 04       		.uleb128 0x4
 674 00cb 7B010000 		.4byte	.LASF18
 675 00cf 08       		.byte	0x8
 676 00d0 30       		.byte	0x30
 677 00d1 85000000 		.4byte	0x85
ARM GAS  /tmp/ccN8vwv5.s 			page 13


 678 00d5 04       		.uleb128 0x4
 679 00d6 76050000 		.4byte	.LASF19
 680 00da 08       		.byte	0x8
 681 00db 3C       		.byte	0x3c
 682 00dc 97000000 		.4byte	0x97
 683 00e0 04       		.uleb128 0x4
 684 00e1 B6040000 		.4byte	.LASF20
 685 00e5 09       		.byte	0x9
 686 00e6 3C       		.byte	0x3c
 687 00e7 A9000000 		.4byte	0xa9
 688 00eb 04       		.uleb128 0x4
 689 00ec B4030000 		.4byte	.LASF21
 690 00f0 09       		.byte	0x9
 691 00f1 3D       		.byte	0x3d
 692 00f2 A9000000 		.4byte	0xa9
 693 00f6 04       		.uleb128 0x4
 694 00f7 E5050000 		.4byte	.LASF22
 695 00fb 09       		.byte	0x9
 696 00fc 3E       		.byte	0x3e
 697 00fd A9000000 		.4byte	0xa9
 698 0101 04       		.uleb128 0x4
 699 0102 B7010000 		.4byte	.LASF23
 700 0106 09       		.byte	0x9
 701 0107 40       		.byte	0x40
 702 0108 CA000000 		.4byte	0xca
 703 010c 04       		.uleb128 0x4
 704 010d 41040000 		.4byte	.LASF24
 705 0111 09       		.byte	0x9
 706 0112 41       		.byte	0x41
 707 0113 BF000000 		.4byte	0xbf
 708 0117 04       		.uleb128 0x4
 709 0118 90010000 		.4byte	.LASF25
 710 011c 09       		.byte	0x9
 711 011d 43       		.byte	0x43
 712 011e CA000000 		.4byte	0xca
 713 0122 04       		.uleb128 0x4
 714 0123 FC010000 		.4byte	.LASF26
 715 0127 09       		.byte	0x9
 716 0128 45       		.byte	0x45
 717 0129 BF000000 		.4byte	0xbf
 718 012d 04       		.uleb128 0x4
 719 012e 56000000 		.4byte	.LASF27
 720 0132 0A       		.byte	0xa
 721 0133 35       		.byte	0x35
 722 0134 B4000000 		.4byte	0xb4
 723 0138 04       		.uleb128 0x4
 724 0139 3D020000 		.4byte	.LASF28
 725 013d 0A       		.byte	0xa
 726 013e 3F       		.byte	0x3f
 727 013f 43010000 		.4byte	0x143
 728 0143 05       		.uleb128 0x5
 729 0144 02040000 		.4byte	.LASF49
 730 0148 48       		.byte	0x48
 731 0149 03       		.byte	0x3
 732 014a C2       		.byte	0xc2
 733 014b 3C020000 		.4byte	0x23c
 734 014f 06       		.uleb128 0x6
ARM GAS  /tmp/ccN8vwv5.s 			page 14


 735 0150 6F050000 		.4byte	.LASF29
 736 0154 03       		.byte	0x3
 737 0155 C3       		.byte	0xc3
 738 0156 47020000 		.4byte	0x247
 739 015a 00       		.byte	0
 740 015b 06       		.uleb128 0x6
 741 015c D5050000 		.4byte	.LASF30
 742 0160 03       		.byte	0x3
 743 0161 C5       		.byte	0xc5
 744 0162 47020000 		.4byte	0x247
 745 0166 04       		.byte	0x4
 746 0167 06       		.uleb128 0x6
 747 0168 4F000000 		.4byte	.LASF31
 748 016c 03       		.byte	0x3
 749 016d C7       		.byte	0xc7
 750 016e 01010000 		.4byte	0x101
 751 0172 08       		.byte	0x8
 752 0173 06       		.uleb128 0x6
 753 0174 7F050000 		.4byte	.LASF32
 754 0178 03       		.byte	0x3
 755 0179 C8       		.byte	0xc8
 756 017a A0040000 		.4byte	0x4a0
 757 017e 0C       		.byte	0xc
 758 017f 06       		.uleb128 0x6
 759 0180 16020000 		.4byte	.LASF33
 760 0184 03       		.byte	0x3
 761 0185 CA       		.byte	0xca
 762 0186 47020000 		.4byte	0x247
 763 018a 10       		.byte	0x10
 764 018b 06       		.uleb128 0x6
 765 018c C3030000 		.4byte	.LASF34
 766 0190 03       		.byte	0x3
 767 0191 CB       		.byte	0xcb
 768 0192 47020000 		.4byte	0x247
 769 0196 14       		.byte	0x14
 770 0197 06       		.uleb128 0x6
 771 0198 85030000 		.4byte	.LASF35
 772 019c 03       		.byte	0x3
 773 019d D2       		.byte	0xd2
 774 019e 89060000 		.4byte	0x689
 775 01a2 18       		.byte	0x18
 776 01a3 06       		.uleb128 0x6
 777 01a4 D3030000 		.4byte	.LASF36
 778 01a8 03       		.byte	0x3
 779 01a9 D8       		.byte	0xd8
 780 01aa A0060000 		.4byte	0x6a0
 781 01ae 1C       		.byte	0x1c
 782 01af 06       		.uleb128 0x6
 783 01b0 CB030000 		.4byte	.LASF37
 784 01b4 03       		.byte	0x3
 785 01b5 DD       		.byte	0xdd
 786 01b6 EB000000 		.4byte	0xeb
 787 01ba 20       		.byte	0x20
 788 01bb 06       		.uleb128 0x6
 789 01bc 59040000 		.4byte	.LASF38
 790 01c0 03       		.byte	0x3
 791 01c1 E1       		.byte	0xe1
ARM GAS  /tmp/ccN8vwv5.s 			page 15


 792 01c2 E0000000 		.4byte	0xe0
 793 01c6 21       		.byte	0x21
 794 01c7 06       		.uleb128 0x6
 795 01c8 7B060000 		.4byte	.LASF39
 796 01cc 03       		.byte	0x3
 797 01cd E6       		.byte	0xe6
 798 01ce F6000000 		.4byte	0xf6
 799 01d2 22       		.byte	0x22
 800 01d3 07       		.uleb128 0x7
 801 01d4 705F7500 		.ascii	"p_u\000"
 802 01d8 03       		.byte	0x3
 803 01d9 3101     		.2byte	0x131
 804 01db C4050000 		.4byte	0x5c4
 805 01df 24       		.byte	0x24
 806 01e0 08       		.uleb128 0x8
 807 01e1 20000000 		.4byte	.LASF40
 808 01e5 03       		.byte	0x3
 809 01e6 3601     		.2byte	0x136
 810 01e8 4D020000 		.4byte	0x24d
 811 01ec 28       		.byte	0x28
 812 01ed 08       		.uleb128 0x8
 813 01ee 7D000000 		.4byte	.LASF41
 814 01f2 03       		.byte	0x3
 815 01f3 3C01     		.2byte	0x13c
 816 01f5 71020000 		.4byte	0x271
 817 01f9 2C       		.byte	0x2c
 818 01fa 08       		.uleb128 0x8
 819 01fb B0040000 		.4byte	.LASF42
 820 01ff 03       		.byte	0x3
 821 0200 4001     		.2byte	0x140
 822 0202 0C010000 		.4byte	0x10c
 823 0206 34       		.byte	0x34
 824 0207 08       		.uleb128 0x8
 825 0208 23050000 		.4byte	.LASF43
 826 020c 03       		.byte	0x3
 827 020d 4601     		.2byte	0x146
 828 020f 17010000 		.4byte	0x117
 829 0213 38       		.byte	0x38
 830 0214 08       		.uleb128 0x8
 831 0215 F8030000 		.4byte	.LASF44
 832 0219 03       		.byte	0x3
 833 021a 4D01     		.2byte	0x14d
 834 021c 83060000 		.4byte	0x683
 835 0220 3C       		.byte	0x3c
 836 0221 08       		.uleb128 0x8
 837 0222 F9040000 		.4byte	.LASF45
 838 0226 03       		.byte	0x3
 839 0227 5101     		.2byte	0x151
 840 0229 01010000 		.4byte	0x101
 841 022d 40       		.byte	0x40
 842 022e 08       		.uleb128 0x8
 843 022f F0030000 		.4byte	.LASF46
 844 0233 03       		.byte	0x3
 845 0234 5801     		.2byte	0x158
 846 0236 24030000 		.4byte	0x324
 847 023a 44       		.byte	0x44
 848 023b 00       		.byte	0
ARM GAS  /tmp/ccN8vwv5.s 			page 16


 849 023c 04       		.uleb128 0x4
 850 023d 95030000 		.4byte	.LASF47
 851 0241 0A       		.byte	0xa
 852 0242 44       		.byte	0x44
 853 0243 47020000 		.4byte	0x247
 854 0247 09       		.uleb128 0x9
 855 0248 04       		.byte	0x4
 856 0249 38010000 		.4byte	0x138
 857 024d 04       		.uleb128 0x4
 858 024e 95000000 		.4byte	.LASF48
 859 0252 0A       		.byte	0xa
 860 0253 49       		.byte	0x49
 861 0254 58020000 		.4byte	0x258
 862 0258 05       		.uleb128 0x5
 863 0259 00000000 		.4byte	.LASF50
 864 025d 04       		.byte	0x4
 865 025e 03       		.byte	0x3
 866 025f B0       		.byte	0xb0
 867 0260 71020000 		.4byte	0x271
 868 0264 06       		.uleb128 0x6
 869 0265 6F050000 		.4byte	.LASF29
 870 0269 03       		.byte	0x3
 871 026a B1       		.byte	0xb1
 872 026b 47020000 		.4byte	0x247
 873 026f 00       		.byte	0
 874 0270 00       		.byte	0
 875 0271 04       		.uleb128 0x4
 876 0272 10000000 		.4byte	.LASF51
 877 0276 0A       		.byte	0xa
 878 0277 50       		.byte	0x50
 879 0278 7C020000 		.4byte	0x27c
 880 027c 05       		.uleb128 0x5
 881 027d 16010000 		.4byte	.LASF52
 882 0281 08       		.byte	0x8
 883 0282 03       		.byte	0x3
 884 0283 B7       		.byte	0xb7
 885 0284 A1020000 		.4byte	0x2a1
 886 0288 06       		.uleb128 0x6
 887 0289 6F050000 		.4byte	.LASF29
 888 028d 03       		.byte	0x3
 889 028e B8       		.byte	0xb8
 890 028f 47020000 		.4byte	0x247
 891 0293 00       		.byte	0
 892 0294 06       		.uleb128 0x6
 893 0295 D5050000 		.4byte	.LASF30
 894 0299 03       		.byte	0x3
 895 029a B9       		.byte	0xb9
 896 029b 47020000 		.4byte	0x247
 897 029f 04       		.byte	0x4
 898 02a0 00       		.byte	0
 899 02a1 04       		.uleb128 0x4
 900 02a2 0C060000 		.4byte	.LASF53
 901 02a6 0A       		.byte	0xa
 902 02a7 57       		.byte	0x57
 903 02a8 AC020000 		.4byte	0x2ac
 904 02ac 0A       		.uleb128 0xa
 905 02ad E5000000 		.4byte	.LASF54
ARM GAS  /tmp/ccN8vwv5.s 			page 17


 906 02b1 1C       		.byte	0x1c
 907 02b2 03       		.byte	0x3
 908 02b3 9001     		.2byte	0x190
 909 02b5 08030000 		.4byte	0x308
 910 02b9 08       		.uleb128 0x8
 911 02ba 31040000 		.4byte	.LASF55
 912 02be 03       		.byte	0x3
 913 02bf 9101     		.2byte	0x191
 914 02c1 71020000 		.4byte	0x271
 915 02c5 00       		.byte	0
 916 02c6 08       		.uleb128 0x8
 917 02c7 9C010000 		.4byte	.LASF56
 918 02cb 03       		.byte	0x3
 919 02cc 9201     		.2byte	0x192
 920 02ce 01010000 		.4byte	0x101
 921 02d2 08       		.byte	0x8
 922 02d3 08       		.uleb128 0x8
 923 02d4 FF060000 		.4byte	.LASF57
 924 02d8 03       		.byte	0x3
 925 02d9 9401     		.2byte	0x194
 926 02db A0040000 		.4byte	0x4a0
 927 02df 0C       		.byte	0xc
 928 02e0 08       		.uleb128 0x8
 929 02e1 39040000 		.4byte	.LASF58
 930 02e5 03       		.byte	0x3
 931 02e6 9701     		.2byte	0x197
 932 02e8 47020000 		.4byte	0x247
 933 02ec 10       		.byte	0x10
 934 02ed 08       		.uleb128 0x8
 935 02ee 9E040000 		.4byte	.LASF59
 936 02f2 03       		.byte	0x3
 937 02f3 9801     		.2byte	0x198
 938 02f5 47020000 		.4byte	0x247
 939 02f9 14       		.byte	0x14
 940 02fa 08       		.uleb128 0x8
 941 02fb 19050000 		.4byte	.LASF60
 942 02ff 03       		.byte	0x3
 943 0300 9B01     		.2byte	0x19b
 944 0302 47020000 		.4byte	0x247
 945 0306 18       		.byte	0x18
 946 0307 00       		.byte	0
 947 0308 04       		.uleb128 0x4
 948 0309 32010000 		.4byte	.LASF61
 949 030d 0A       		.byte	0xa
 950 030e 5C       		.byte	0x5c
 951 030f 13030000 		.4byte	0x313
 952 0313 09       		.uleb128 0x9
 953 0314 04       		.byte	0x4
 954 0315 19030000 		.4byte	0x319
 955 0319 0B       		.uleb128 0xb
 956 031a 24030000 		.4byte	0x324
 957 031e 0C       		.uleb128 0xc
 958 031f 24030000 		.4byte	0x324
 959 0323 00       		.byte	0
 960 0324 0D       		.uleb128 0xd
 961 0325 04       		.byte	0x4
 962 0326 04       		.uleb128 0x4
ARM GAS  /tmp/ccN8vwv5.s 			page 18


 963 0327 61040000 		.4byte	.LASF62
 964 032b 0A       		.byte	0xa
 965 032c 61       		.byte	0x61
 966 032d 31030000 		.4byte	0x331
 967 0331 0A       		.uleb128 0xa
 968 0332 BF010000 		.4byte	.LASF63
 969 0336 14       		.byte	0x14
 970 0337 03       		.byte	0x3
 971 0338 6B01     		.2byte	0x16b
 972 033a 80030000 		.4byte	0x380
 973 033e 08       		.uleb128 0x8
 974 033f A0060000 		.4byte	.LASF64
 975 0343 03       		.byte	0x3
 976 0344 6C01     		.2byte	0x16c
 977 0346 A6060000 		.4byte	0x6a6
 978 034a 00       		.byte	0
 979 034b 08       		.uleb128 0x8
 980 034c 36070000 		.4byte	.LASF65
 981 0350 03       		.byte	0x3
 982 0351 6D01     		.2byte	0x16d
 983 0353 A6060000 		.4byte	0x6a6
 984 0357 04       		.byte	0x4
 985 0358 08       		.uleb128 0x8
 986 0359 8C030000 		.4byte	.LASF66
 987 035d 03       		.byte	0x3
 988 035e 6E01     		.2byte	0x16e
 989 0360 2D010000 		.4byte	0x12d
 990 0364 08       		.byte	0x8
 991 0365 08       		.uleb128 0x8
 992 0366 22070000 		.4byte	.LASF67
 993 036a 03       		.byte	0x3
 994 036b 6F01     		.2byte	0x16f
 995 036d 08030000 		.4byte	0x308
 996 0371 0C       		.byte	0xc
 997 0372 08       		.uleb128 0x8
 998 0373 A3010000 		.4byte	.LASF68
 999 0377 03       		.byte	0x3
 1000 0378 7101     		.2byte	0x171
 1001 037a 24030000 		.4byte	0x324
 1002 037e 10       		.byte	0x10
 1003 037f 00       		.byte	0
 1004 0380 04       		.uleb128 0x4
 1005 0381 65060000 		.4byte	.LASF69
 1006 0385 0A       		.byte	0xa
 1007 0386 66       		.byte	0x66
 1008 0387 8B030000 		.4byte	0x38b
 1009 038b 0A       		.uleb128 0xa
 1010 038c 1E020000 		.4byte	.LASF70
 1011 0390 0C       		.byte	0xc
 1012 0391 03       		.byte	0x3
 1013 0392 7B01     		.2byte	0x17b
 1014 0394 CD030000 		.4byte	0x3cd
 1015 0398 08       		.uleb128 0x8
 1016 0399 A0060000 		.4byte	.LASF64
 1017 039d 03       		.byte	0x3
 1018 039e 7C01     		.2byte	0x17c
 1019 03a0 A6060000 		.4byte	0x6a6
ARM GAS  /tmp/ccN8vwv5.s 			page 19


 1020 03a4 00       		.byte	0
 1021 03a5 08       		.uleb128 0x8
 1022 03a6 36070000 		.4byte	.LASF65
 1023 03aa 03       		.byte	0x3
 1024 03ab 7E01     		.2byte	0x17e
 1025 03ad A6060000 		.4byte	0x6a6
 1026 03b1 04       		.byte	0x4
 1027 03b2 08       		.uleb128 0x8
 1028 03b3 8C030000 		.4byte	.LASF66
 1029 03b7 03       		.byte	0x3
 1030 03b8 8001     		.2byte	0x180
 1031 03ba 2D010000 		.4byte	0x12d
 1032 03be 08       		.byte	0x8
 1033 03bf 08       		.uleb128 0x8
 1034 03c0 A8030000 		.4byte	.LASF71
 1035 03c4 03       		.byte	0x3
 1036 03c5 8801     		.2byte	0x188
 1037 03c7 2D010000 		.4byte	0x12d
 1038 03cb 0A       		.byte	0xa
 1039 03cc 00       		.byte	0
 1040 03cd 04       		.uleb128 0x4
 1041 03ce 14040000 		.4byte	.LASF72
 1042 03d2 0A       		.byte	0xa
 1043 03d3 6B       		.byte	0x6b
 1044 03d4 D8030000 		.4byte	0x3d8
 1045 03d8 0E       		.uleb128 0xe
 1046 03d9 4E010000 		.4byte	.LASF73
 1047 03dd 1404     		.2byte	0x414
 1048 03df 03       		.byte	0x3
 1049 03e0 A201     		.2byte	0x1a2
 1050 03e2 1B040000 		.4byte	0x41b
 1051 03e6 08       		.uleb128 0x8
 1052 03e7 A6040000 		.4byte	.LASF74
 1053 03eb 03       		.byte	0x3
 1054 03ec AA01     		.2byte	0x1aa
 1055 03ee 8F060000 		.4byte	0x68f
 1056 03f2 00       		.byte	0
 1057 03f3 08       		.uleb128 0x8
 1058 03f4 0E020000 		.4byte	.LASF75
 1059 03f8 03       		.byte	0x3
 1060 03f9 AF01     		.2byte	0x1af
 1061 03fb 22010000 		.4byte	0x122
 1062 03ff 04       		.byte	0x4
 1063 0400 08       		.uleb128 0x8
 1064 0401 F0040000 		.4byte	.LASF76
 1065 0405 03       		.byte	0x3
 1066 0406 B301     		.2byte	0x1b3
 1067 0408 22010000 		.4byte	0x122
 1068 040c 08       		.byte	0x8
 1069 040d 08       		.uleb128 0x8
 1070 040e 21060000 		.4byte	.LASF77
 1071 0412 03       		.byte	0x3
 1072 0413 B901     		.2byte	0x1b9
 1073 0415 B9050000 		.4byte	0x5b9
 1074 0419 0C       		.byte	0xc
 1075 041a 00       		.byte	0
 1076 041b 04       		.uleb128 0x4
ARM GAS  /tmp/ccN8vwv5.s 			page 20


 1077 041c A8060000 		.4byte	.LASF78
 1078 0420 0A       		.byte	0xa
 1079 0421 70       		.byte	0x70
 1080 0422 26040000 		.4byte	0x426
 1081 0426 0E       		.uleb128 0xe
 1082 0427 58050000 		.4byte	.LASF79
 1083 042b 6805     		.2byte	0x568
 1084 042d 03       		.byte	0x3
 1085 042e C201     		.2byte	0x1c2
 1086 0430 78040000 		.4byte	0x478
 1087 0434 08       		.uleb128 0x8
 1088 0435 85050000 		.4byte	.LASF80
 1089 0439 03       		.byte	0x3
 1090 043a C601     		.2byte	0x1c6
 1091 043c A1020000 		.4byte	0x2a1
 1092 0440 00       		.byte	0
 1093 0441 08       		.uleb128 0x8
 1094 0442 DE000000 		.4byte	.LASF81
 1095 0446 03       		.byte	0x3
 1096 0447 CA01     		.2byte	0x1ca
 1097 0449 80030000 		.4byte	0x380
 1098 044d 1C       		.byte	0x1c
 1099 044e 07       		.uleb128 0x7
 1100 044f 64626700 		.ascii	"dbg\000"
 1101 0453 03       		.byte	0x3
 1102 0454 CE01     		.2byte	0x1ce
 1103 0456 CD030000 		.4byte	0x3cd
 1104 045a 28       		.byte	0x28
 1105 045b 0F       		.uleb128 0xf
 1106 045c C6040000 		.4byte	.LASF82
 1107 0460 03       		.byte	0x3
 1108 0461 D201     		.2byte	0x1d2
 1109 0463 38010000 		.4byte	0x138
 1110 0467 3C04     		.2byte	0x43c
 1111 0469 0F       		.uleb128 0xf
 1112 046a F3000000 		.4byte	.LASF83
 1113 046e 03       		.byte	0x3
 1114 046f E301     		.2byte	0x1e3
 1115 0471 AC060000 		.4byte	0x6ac
 1116 0475 8804     		.2byte	0x488
 1117 0477 00       		.byte	0
 1118 0478 03       		.uleb128 0x3
 1119 0479 04       		.byte	0x4
 1120 047a 07       		.byte	0x7
 1121 047b DC050000 		.4byte	.LASF84
 1122 047f 10       		.uleb128 0x10
 1123 0480 2A000000 		.4byte	.LASF113
 1124 0484 10       		.byte	0x10
 1125 0485 4C       		.byte	0x4c
 1126 0486 CA000000 		.4byte	0xca
 1127 048a 04       		.uleb128 0x4
 1128 048b 46000000 		.4byte	.LASF85
 1129 048f 0B       		.byte	0xb
 1130 0490 65       		.byte	0x65
 1131 0491 24030000 		.4byte	0x324
 1132 0495 04       		.uleb128 0x4
 1133 0496 05070000 		.4byte	.LASF86
ARM GAS  /tmp/ccN8vwv5.s 			page 21


 1134 049a 0B       		.byte	0xb
 1135 049b 6D       		.byte	0x6d
 1136 049c D5000000 		.4byte	0xd5
 1137 04a0 05       		.uleb128 0x5
 1138 04a1 51040000 		.4byte	.LASF87
 1139 04a5 04       		.byte	0x4
 1140 04a6 0B       		.byte	0xb
 1141 04a7 89       		.byte	0x89
 1142 04a8 B9040000 		.4byte	0x4b9
 1143 04ac 11       		.uleb128 0x11
 1144 04ad 72313300 		.ascii	"r13\000"
 1145 04b1 0B       		.byte	0xb
 1146 04b2 8A       		.byte	0x8a
 1147 04b3 2B050000 		.4byte	0x52b
 1148 04b7 00       		.byte	0
 1149 04b8 00       		.byte	0
 1150 04b9 05       		.uleb128 0x5
 1151 04ba 3F050000 		.4byte	.LASF88
 1152 04be 24       		.byte	0x24
 1153 04bf 01       		.byte	0x1
 1154 04c0 A4       		.byte	0xa4
 1155 04c1 2B050000 		.4byte	0x52b
 1156 04c5 11       		.uleb128 0x11
 1157 04c6 723800   		.ascii	"r8\000"
 1158 04c9 01       		.byte	0x1
 1159 04ca A5       		.byte	0xa5
 1160 04cb 8A040000 		.4byte	0x48a
 1161 04cf 00       		.byte	0
 1162 04d0 11       		.uleb128 0x11
 1163 04d1 723900   		.ascii	"r9\000"
 1164 04d4 01       		.byte	0x1
 1165 04d5 A6       		.byte	0xa6
 1166 04d6 8A040000 		.4byte	0x48a
 1167 04da 04       		.byte	0x4
 1168 04db 11       		.uleb128 0x11
 1169 04dc 72313000 		.ascii	"r10\000"
 1170 04e0 01       		.byte	0x1
 1171 04e1 A7       		.byte	0xa7
 1172 04e2 8A040000 		.4byte	0x48a
 1173 04e6 08       		.byte	0x8
 1174 04e7 11       		.uleb128 0x11
 1175 04e8 72313100 		.ascii	"r11\000"
 1176 04ec 01       		.byte	0x1
 1177 04ed A8       		.byte	0xa8
 1178 04ee 8A040000 		.4byte	0x48a
 1179 04f2 0C       		.byte	0xc
 1180 04f3 11       		.uleb128 0x11
 1181 04f4 723400   		.ascii	"r4\000"
 1182 04f7 01       		.byte	0x1
 1183 04f8 A9       		.byte	0xa9
 1184 04f9 8A040000 		.4byte	0x48a
 1185 04fd 10       		.byte	0x10
 1186 04fe 11       		.uleb128 0x11
 1187 04ff 723500   		.ascii	"r5\000"
 1188 0502 01       		.byte	0x1
 1189 0503 AA       		.byte	0xaa
 1190 0504 8A040000 		.4byte	0x48a
ARM GAS  /tmp/ccN8vwv5.s 			page 22


 1191 0508 14       		.byte	0x14
 1192 0509 11       		.uleb128 0x11
 1193 050a 723600   		.ascii	"r6\000"
 1194 050d 01       		.byte	0x1
 1195 050e AB       		.byte	0xab
 1196 050f 8A040000 		.4byte	0x48a
 1197 0513 18       		.byte	0x18
 1198 0514 11       		.uleb128 0x11
 1199 0515 723700   		.ascii	"r7\000"
 1200 0518 01       		.byte	0x1
 1201 0519 AC       		.byte	0xac
 1202 051a 8A040000 		.4byte	0x48a
 1203 051e 1C       		.byte	0x1c
 1204 051f 11       		.uleb128 0x11
 1205 0520 6C7200   		.ascii	"lr\000"
 1206 0523 01       		.byte	0x1
 1207 0524 AD       		.byte	0xad
 1208 0525 8A040000 		.4byte	0x48a
 1209 0529 20       		.byte	0x20
 1210 052a 00       		.byte	0
 1211 052b 09       		.uleb128 0x9
 1212 052c 04       		.byte	0x4
 1213 052d B9040000 		.4byte	0x4b9
 1214 0531 12       		.uleb128 0x12
 1215 0532 10       		.byte	0x10
 1216 0533 0C       		.byte	0xc
 1217 0534 51       		.byte	0x51
 1218 0535 6A050000 		.4byte	0x56a
 1219 0539 06       		.uleb128 0x6
 1220 053a 35020000 		.4byte	.LASF89
 1221 053e 0C       		.byte	0xc
 1222 053f 55       		.byte	0x55
 1223 0540 2D010000 		.4byte	0x12d
 1224 0544 00       		.byte	0
 1225 0545 06       		.uleb128 0x6
 1226 0546 BD030000 		.4byte	.LASF90
 1227 054a 0C       		.byte	0xc
 1228 054b 59       		.byte	0x59
 1229 054c 47020000 		.4byte	0x247
 1230 0550 04       		.byte	0x4
 1231 0551 06       		.uleb128 0x6
 1232 0552 E7010000 		.4byte	.LASF91
 1233 0556 0C       		.byte	0xc
 1234 0557 5D       		.byte	0x5d
 1235 0558 24030000 		.4byte	0x324
 1236 055c 08       		.byte	0x8
 1237 055d 06       		.uleb128 0x6
 1238 055e AE000000 		.4byte	.LASF92
 1239 0562 0C       		.byte	0xc
 1240 0563 61       		.byte	0x61
 1241 0564 A9000000 		.4byte	0xa9
 1242 0568 0C       		.byte	0xc
 1243 0569 00       		.byte	0
 1244 056a 04       		.uleb128 0x4
 1245 056b 35060000 		.4byte	.LASF93
 1246 056f 0C       		.byte	0xc
 1247 0570 62       		.byte	0x62
ARM GAS  /tmp/ccN8vwv5.s 			page 23


 1248 0571 31050000 		.4byte	0x531
 1249 0575 13       		.uleb128 0x13
 1250 0576 0804     		.2byte	0x408
 1251 0578 0C       		.byte	0xc
 1252 0579 67       		.byte	0x67
 1253 057a A3050000 		.4byte	0x5a3
 1254 057e 06       		.uleb128 0x6
 1255 057f 0C040000 		.4byte	.LASF94
 1256 0583 0C       		.byte	0xc
 1257 0584 6B       		.byte	0x6b
 1258 0585 2C000000 		.4byte	0x2c
 1259 0589 00       		.byte	0
 1260 058a 06       		.uleb128 0x6
 1261 058b 97040000 		.4byte	.LASF95
 1262 058f 0C       		.byte	0xc
 1263 0590 6F       		.byte	0x6f
 1264 0591 A3050000 		.4byte	0x5a3
 1265 0595 04       		.byte	0x4
 1266 0596 06       		.uleb128 0x6
 1267 0597 E6030000 		.4byte	.LASF96
 1268 059b 0C       		.byte	0xc
 1269 059c 73       		.byte	0x73
 1270 059d A9050000 		.4byte	0x5a9
 1271 05a1 08       		.byte	0x8
 1272 05a2 00       		.byte	0
 1273 05a3 09       		.uleb128 0x9
 1274 05a4 04       		.byte	0x4
 1275 05a5 6A050000 		.4byte	0x56a
 1276 05a9 14       		.uleb128 0x14
 1277 05aa 6A050000 		.4byte	0x56a
 1278 05ae B9050000 		.4byte	0x5b9
 1279 05b2 15       		.uleb128 0x15
 1280 05b3 78040000 		.4byte	0x478
 1281 05b7 3F       		.byte	0x3f
 1282 05b8 00       		.byte	0
 1283 05b9 04       		.uleb128 0x4
 1284 05ba BA060000 		.4byte	.LASF97
 1285 05be 0C       		.byte	0xc
 1286 05bf 74       		.byte	0x74
 1287 05c0 75050000 		.4byte	0x575
 1288 05c4 16       		.uleb128 0x16
 1289 05c5 04       		.byte	0x4
 1290 05c6 03       		.byte	0x3
 1291 05c7 FA       		.byte	0xfa
 1292 05c8 21060000 		.4byte	0x621
 1293 05cc 17       		.uleb128 0x17
 1294 05cd 46020000 		.4byte	.LASF98
 1295 05d1 03       		.byte	0x3
 1296 05d2 0101     		.2byte	0x101
 1297 05d4 0C010000 		.4byte	0x10c
 1298 05d8 17       		.uleb128 0x17
 1299 05d9 3E070000 		.4byte	.LASF99
 1300 05dd 03       		.byte	0x3
 1301 05de 0801     		.2byte	0x108
 1302 05e0 0C010000 		.4byte	0x10c
 1303 05e4 17       		.uleb128 0x17
 1304 05e5 CD000000 		.4byte	.LASF100
ARM GAS  /tmp/ccN8vwv5.s 			page 24


 1305 05e9 03       		.byte	0x3
 1306 05ea 0F01     		.2byte	0x10f
 1307 05ec 24030000 		.4byte	0x324
 1308 05f0 17       		.uleb128 0x17
 1309 05f1 B4060000 		.4byte	.LASF101
 1310 05f5 03       		.byte	0x3
 1311 05f6 1601     		.2byte	0x116
 1312 05f8 21060000 		.4byte	0x621
 1313 05fc 17       		.uleb128 0x17
 1314 05fd 2E060000 		.4byte	.LASF102
 1315 0601 03       		.byte	0x3
 1316 0602 1E01     		.2byte	0x11e
 1317 0604 4C060000 		.4byte	0x64c
 1318 0608 17       		.uleb128 0x17
 1319 0609 3A000000 		.4byte	.LASF103
 1320 060d 03       		.byte	0x3
 1321 060e 2701     		.2byte	0x127
 1322 0610 83060000 		.4byte	0x683
 1323 0614 17       		.uleb128 0x17
 1324 0615 02010000 		.4byte	.LASF104
 1325 0619 03       		.byte	0x3
 1326 061a 2F01     		.2byte	0x12f
 1327 061c 17010000 		.4byte	0x117
 1328 0620 00       		.byte	0
 1329 0621 09       		.uleb128 0x9
 1330 0622 04       		.byte	0x4
 1331 0623 3C020000 		.4byte	0x23c
 1332 0627 05       		.uleb128 0x5
 1333 0628 AA010000 		.4byte	.LASF105
 1334 062c 0C       		.byte	0xc
 1335 062d 0D       		.byte	0xd
 1336 062e 34       		.byte	0x34
 1337 062f 4C060000 		.4byte	0x64c
 1338 0633 06       		.uleb128 0x6
 1339 0634 75000000 		.4byte	.LASF106
 1340 0638 0D       		.byte	0xd
 1341 0639 35       		.byte	0x35
 1342 063a 71020000 		.4byte	0x271
 1343 063e 00       		.byte	0
 1344 063f 06       		.uleb128 0x6
 1345 0640 48010000 		.4byte	.LASF107
 1346 0644 0D       		.byte	0xd
 1347 0645 37       		.byte	0x37
 1348 0646 22010000 		.4byte	0x122
 1349 064a 08       		.byte	0x8
 1350 064b 00       		.byte	0
 1351 064c 09       		.uleb128 0x9
 1352 064d 04       		.byte	0x4
 1353 064e 27060000 		.4byte	0x627
 1354 0652 05       		.uleb128 0x5
 1355 0653 4C030000 		.4byte	.LASF108
 1356 0657 10       		.byte	0x10
 1357 0658 0E       		.byte	0xe
 1358 0659 39       		.byte	0x39
 1359 065a 83060000 		.4byte	0x683
 1360 065e 06       		.uleb128 0x6
 1361 065f 2E050000 		.4byte	.LASF109
ARM GAS  /tmp/ccN8vwv5.s 			page 25


 1362 0663 0E       		.byte	0xe
 1363 0664 3A       		.byte	0x3a
 1364 0665 71020000 		.4byte	0x271
 1365 0669 00       		.byte	0
 1366 066a 06       		.uleb128 0x6
 1367 066b 6D000000 		.4byte	.LASF110
 1368 066f 0E       		.byte	0xe
 1369 0670 3C       		.byte	0x3c
 1370 0671 47020000 		.4byte	0x247
 1371 0675 08       		.byte	0x8
 1372 0676 06       		.uleb128 0x6
 1373 0677 CC060000 		.4byte	.LASF111
 1374 067b 0E       		.byte	0xe
 1375 067c 3E       		.byte	0x3e
 1376 067d DE070000 		.4byte	0x7de
 1377 0681 0C       		.byte	0xc
 1378 0682 00       		.byte	0
 1379 0683 09       		.uleb128 0x9
 1380 0684 04       		.byte	0x4
 1381 0685 52060000 		.4byte	0x652
 1382 0689 09       		.uleb128 0x9
 1383 068a 04       		.byte	0x4
 1384 068b 9B060000 		.4byte	0x69b
 1385 068f 18       		.uleb128 0x18
 1386 0690 89060000 		.4byte	0x689
 1387 0694 03       		.uleb128 0x3
 1388 0695 01       		.byte	0x1
 1389 0696 08       		.byte	0x8
 1390 0697 41000000 		.4byte	.LASF112
 1391 069b 19       		.uleb128 0x19
 1392 069c 94060000 		.4byte	0x694
 1393 06a0 09       		.uleb128 0x9
 1394 06a1 04       		.byte	0x4
 1395 06a2 95040000 		.4byte	0x495
 1396 06a6 09       		.uleb128 0x9
 1397 06a7 04       		.byte	0x4
 1398 06a8 26030000 		.4byte	0x326
 1399 06ac 14       		.uleb128 0x14
 1400 06ad 95040000 		.4byte	0x495
 1401 06b1 BC060000 		.4byte	0x6bc
 1402 06b5 15       		.uleb128 0x15
 1403 06b6 78040000 		.4byte	0x478
 1404 06ba 1B       		.byte	0x1b
 1405 06bb 00       		.byte	0
 1406 06bc 1A       		.uleb128 0x1a
 1407 06bd 636800   		.ascii	"ch\000"
 1408 06c0 03       		.byte	0x3
 1409 06c1 0902     		.2byte	0x209
 1410 06c3 1B040000 		.4byte	0x41b
 1411 06c7 12       		.uleb128 0x12
 1412 06c8 16       		.byte	0x16
 1413 06c9 0F       		.byte	0xf
 1414 06ca 34       		.byte	0x34
 1415 06cb A8070000 		.4byte	0x7a8
 1416 06cf 06       		.uleb128 0x6
 1417 06d0 C7050000 		.4byte	.LASF114
 1418 06d4 0F       		.byte	0xf
ARM GAS  /tmp/ccN8vwv5.s 			page 26


 1419 06d5 35       		.byte	0x35
 1420 06d6 A8070000 		.4byte	0x7a8
 1421 06da 00       		.byte	0
 1422 06db 06       		.uleb128 0x6
 1423 06dc 8F040000 		.4byte	.LASF115
 1424 06e0 0F       		.byte	0xf
 1425 06e1 36       		.byte	0x36
 1426 06e2 A9000000 		.4byte	0xa9
 1427 06e6 04       		.byte	0x4
 1428 06e7 06       		.uleb128 0x6
 1429 06e8 BE040000 		.4byte	.LASF116
 1430 06ec 0F       		.byte	0xf
 1431 06ed 37       		.byte	0x37
 1432 06ee A9000000 		.4byte	0xa9
 1433 06f2 05       		.byte	0x5
 1434 06f3 06       		.uleb128 0x6
 1435 06f4 04050000 		.4byte	.LASF117
 1436 06f8 0F       		.byte	0xf
 1437 06f9 38       		.byte	0x38
 1438 06fa B4000000 		.4byte	0xb4
 1439 06fe 06       		.byte	0x6
 1440 06ff 06       		.uleb128 0x6
 1441 0700 27010000 		.4byte	.LASF118
 1442 0704 0F       		.byte	0xf
 1443 0705 39       		.byte	0x39
 1444 0706 A9000000 		.4byte	0xa9
 1445 070a 08       		.byte	0x8
 1446 070b 06       		.uleb128 0x6
 1447 070c 84010000 		.4byte	.LASF119
 1448 0710 0F       		.byte	0xf
 1449 0711 3A       		.byte	0x3a
 1450 0712 A9000000 		.4byte	0xa9
 1451 0716 09       		.byte	0x9
 1452 0717 06       		.uleb128 0x6
 1453 0718 4D020000 		.4byte	.LASF120
 1454 071c 0F       		.byte	0xf
 1455 071d 3B       		.byte	0x3b
 1456 071e A9000000 		.4byte	0xa9
 1457 0722 0A       		.byte	0xa
 1458 0723 06       		.uleb128 0x6
 1459 0724 B1050000 		.4byte	.LASF121
 1460 0728 0F       		.byte	0xf
 1461 0729 3C       		.byte	0x3c
 1462 072a A9000000 		.4byte	0xa9
 1463 072e 0B       		.byte	0xb
 1464 072f 06       		.uleb128 0x6
 1465 0730 6A030000 		.4byte	.LASF122
 1466 0734 0F       		.byte	0xf
 1467 0735 3D       		.byte	0x3d
 1468 0736 A9000000 		.4byte	0xa9
 1469 073a 0C       		.byte	0xc
 1470 073b 06       		.uleb128 0x6
 1471 073c DF060000 		.4byte	.LASF123
 1472 0740 0F       		.byte	0xf
 1473 0741 3E       		.byte	0x3e
 1474 0742 A9000000 		.4byte	0xa9
 1475 0746 0D       		.byte	0xd
ARM GAS  /tmp/ccN8vwv5.s 			page 27


 1476 0747 06       		.uleb128 0x6
 1477 0748 60000000 		.4byte	.LASF124
 1478 074c 0F       		.byte	0xf
 1479 074d 3F       		.byte	0x3f
 1480 074e A9000000 		.4byte	0xa9
 1481 0752 0E       		.byte	0xe
 1482 0753 06       		.uleb128 0x6
 1483 0754 B7000000 		.4byte	.LASF125
 1484 0758 0F       		.byte	0xf
 1485 0759 40       		.byte	0x40
 1486 075a A9000000 		.4byte	0xa9
 1487 075e 0F       		.byte	0xf
 1488 075f 06       		.uleb128 0x6
 1489 0760 75030000 		.4byte	.LASF126
 1490 0764 0F       		.byte	0xf
 1491 0765 41       		.byte	0x41
 1492 0766 A9000000 		.4byte	0xa9
 1493 076a 10       		.byte	0x10
 1494 076b 06       		.uleb128 0x6
 1495 076c FF050000 		.4byte	.LASF127
 1496 0770 0F       		.byte	0xf
 1497 0771 43       		.byte	0x43
 1498 0772 A9000000 		.4byte	0xa9
 1499 0776 11       		.byte	0x11
 1500 0777 06       		.uleb128 0x6
 1501 0778 09010000 		.4byte	.LASF128
 1502 077c 0F       		.byte	0xf
 1503 077d 44       		.byte	0x44
 1504 077e A9000000 		.4byte	0xa9
 1505 0782 12       		.byte	0x12
 1506 0783 06       		.uleb128 0x6
 1507 0784 83040000 		.4byte	.LASF129
 1508 0788 0F       		.byte	0xf
 1509 0789 45       		.byte	0x45
 1510 078a A9000000 		.4byte	0xa9
 1511 078e 13       		.byte	0x13
 1512 078f 06       		.uleb128 0x6
 1513 0790 69020000 		.4byte	.LASF130
 1514 0794 0F       		.byte	0xf
 1515 0795 46       		.byte	0x46
 1516 0796 A9000000 		.4byte	0xa9
 1517 079a 14       		.byte	0x14
 1518 079b 06       		.uleb128 0x6
 1519 079c 8B050000 		.4byte	.LASF131
 1520 07a0 0F       		.byte	0xf
 1521 07a1 48       		.byte	0x48
 1522 07a2 A9000000 		.4byte	0xa9
 1523 07a6 15       		.byte	0x15
 1524 07a7 00       		.byte	0
 1525 07a8 14       		.uleb128 0x14
 1526 07a9 94060000 		.4byte	0x694
 1527 07ad B8070000 		.4byte	0x7b8
 1528 07b1 15       		.uleb128 0x15
 1529 07b2 78040000 		.4byte	0x478
 1530 07b6 03       		.byte	0x3
 1531 07b7 00       		.byte	0
 1532 07b8 04       		.uleb128 0x4
ARM GAS  /tmp/ccN8vwv5.s 			page 28


 1533 07b9 E6040000 		.4byte	.LASF132
 1534 07bd 0F       		.byte	0xf
 1535 07be 49       		.byte	0x49
 1536 07bf C7060000 		.4byte	0x6c7
 1537 07c3 19       		.uleb128 0x19
 1538 07c4 B8070000 		.4byte	0x7b8
 1539 07c8 10       		.uleb128 0x10
 1540 07c9 19070000 		.4byte	.LASF133
 1541 07cd 0F       		.byte	0xf
 1542 07ce 6E       		.byte	0x6e
 1543 07cf C3070000 		.4byte	0x7c3
 1544 07d3 04       		.uleb128 0x4
 1545 07d4 44060000 		.4byte	.LASF134
 1546 07d8 0E       		.byte	0xe
 1547 07d9 34       		.byte	0x34
 1548 07da 52060000 		.4byte	0x652
 1549 07de 09       		.uleb128 0x9
 1550 07df 04       		.byte	0x4
 1551 07e0 D3070000 		.4byte	0x7d3
 1552 07e4 03       		.uleb128 0x3
 1553 07e5 01       		.byte	0x1
 1554 07e6 02       		.byte	0x2
 1555 07e7 78020000 		.4byte	.LASF135
 1556 07eb 1B       		.uleb128 0x1b
 1557 07ec 3B010000 		.4byte	.LASF151
 1558 07f0 06       		.byte	0x6
 1559 07f1 90       		.byte	0x90
 1560 07f2 00000000 		.4byte	.LFB154
 1561 07f6 38000000 		.4byte	.LFE154-.LFB154
 1562 07fa 01       		.uleb128 0x1
 1563 07fb 9C       		.byte	0x9c
 1564 07fc 2B080000 		.4byte	0x82b
 1565 0800 1C       		.uleb128 0x1c
 1566 0801 747000   		.ascii	"tp\000"
 1567 0804 06       		.byte	0x6
 1568 0805 90       		.byte	0x90
 1569 0806 47020000 		.4byte	0x247
 1570 080a 02       		.uleb128 0x2
 1571 080b 91       		.byte	0x91
 1572 080c 74       		.sleb128 -12
 1573 080d 1C       		.uleb128 0x1c
 1574 080e 6D736700 		.ascii	"msg\000"
 1575 0812 06       		.byte	0x6
 1576 0813 90       		.byte	0x90
 1577 0814 0C010000 		.4byte	0x10c
 1578 0818 02       		.uleb128 0x2
 1579 0819 91       		.byte	0x91
 1580 081a 70       		.sleb128 -16
 1581 081b 1D       		.uleb128 0x1d
 1582 081c 10070000 		.4byte	.LASF138
 1583 0820 3B080000 		.4byte	0x83b
 1584 0824 05       		.uleb128 0x5
 1585 0825 03       		.byte	0x3
 1586 0826 00000000 		.4byte	__func__.5707
 1587 082a 00       		.byte	0
 1588 082b 14       		.uleb128 0x14
 1589 082c 9B060000 		.4byte	0x69b
ARM GAS  /tmp/ccN8vwv5.s 			page 29


 1590 0830 3B080000 		.4byte	0x83b
 1591 0834 15       		.uleb128 0x15
 1592 0835 78040000 		.4byte	0x478
 1593 0839 0C       		.byte	0xc
 1594 083a 00       		.byte	0
 1595 083b 19       		.uleb128 0x19
 1596 083c 2B080000 		.4byte	0x82b
 1597 0840 1E       		.uleb128 0x1e
 1598 0841 47040000 		.4byte	.LASF136
 1599 0845 06       		.byte	0x6
 1600 0846 78       		.byte	0x78
 1601 0847 47020000 		.4byte	0x247
 1602 084b 00000000 		.4byte	.LFB153
 1603 084f 50000000 		.4byte	.LFE153-.LFB153
 1604 0853 01       		.uleb128 0x1
 1605 0854 9C       		.byte	0x9c
 1606 0855 67080000 		.4byte	0x867
 1607 0859 1F       		.uleb128 0x1f
 1608 085a 747000   		.ascii	"tp\000"
 1609 085d 06       		.byte	0x6
 1610 085e 79       		.byte	0x79
 1611 085f 47020000 		.4byte	0x247
 1612 0863 02       		.uleb128 0x2
 1613 0864 91       		.byte	0x91
 1614 0865 74       		.sleb128 -12
 1615 0866 00       		.byte	0
 1616 0867 1E       		.uleb128 0x1e
 1617 0868 C3000000 		.4byte	.LASF137
 1618 086c 06       		.byte	0x6
 1619 086d 57       		.byte	0x57
 1620 086e 0C010000 		.4byte	0x10c
 1621 0872 00000000 		.4byte	.LFB152
 1622 0876 74000000 		.4byte	.LFE152-.LFB152
 1623 087a 01       		.uleb128 0x1
 1624 087b 9C       		.byte	0x9c
 1625 087c B9080000 		.4byte	0x8b9
 1626 0880 1C       		.uleb128 0x1c
 1627 0881 747000   		.ascii	"tp\000"
 1628 0884 06       		.byte	0x6
 1629 0885 57       		.byte	0x57
 1630 0886 47020000 		.4byte	0x247
 1631 088a 02       		.uleb128 0x2
 1632 088b 91       		.byte	0x91
 1633 088c 6C       		.sleb128 -20
 1634 088d 1C       		.uleb128 0x1c
 1635 088e 6D736700 		.ascii	"msg\000"
 1636 0892 06       		.byte	0x6
 1637 0893 57       		.byte	0x57
 1638 0894 0C010000 		.4byte	0x10c
 1639 0898 02       		.uleb128 0x2
 1640 0899 91       		.byte	0x91
 1641 089a 68       		.sleb128 -24
 1642 089b 1F       		.uleb128 0x1f
 1643 089c 63747000 		.ascii	"ctp\000"
 1644 08a0 06       		.byte	0x6
 1645 08a1 58       		.byte	0x58
 1646 08a2 47020000 		.4byte	0x247
ARM GAS  /tmp/ccN8vwv5.s 			page 30


 1647 08a6 02       		.uleb128 0x2
 1648 08a7 91       		.byte	0x91
 1649 08a8 74       		.sleb128 -12
 1650 08a9 1D       		.uleb128 0x1d
 1651 08aa 10070000 		.4byte	.LASF138
 1652 08ae C9080000 		.4byte	0x8c9
 1653 08b2 05       		.uleb128 0x5
 1654 08b3 03       		.byte	0x3
 1655 08b4 00000000 		.4byte	__func__.5698
 1656 08b8 00       		.byte	0
 1657 08b9 14       		.uleb128 0x14
 1658 08ba 9B060000 		.4byte	0x69b
 1659 08be C9080000 		.4byte	0x8c9
 1660 08c2 15       		.uleb128 0x15
 1661 08c3 78040000 		.4byte	0x478
 1662 08c7 09       		.byte	0x9
 1663 08c8 00       		.byte	0
 1664 08c9 19       		.uleb128 0x19
 1665 08ca B9080000 		.4byte	0x8b9
 1666 08ce 20       		.uleb128 0x20
 1667 08cf 82060000 		.4byte	.LASF139
 1668 08d3 05       		.byte	0x5
 1669 08d4 6F       		.byte	0x6f
 1670 08d5 00000000 		.4byte	.LFB134
 1671 08d9 1E000000 		.4byte	.LFE134-.LFB134
 1672 08dd 01       		.uleb128 0x1
 1673 08de 9C       		.byte	0x9c
 1674 08df FF080000 		.4byte	0x8ff
 1675 08e3 1C       		.uleb128 0x1c
 1676 08e4 747000   		.ascii	"tp\000"
 1677 08e7 05       		.byte	0x5
 1678 08e8 6F       		.byte	0x6f
 1679 08e9 47020000 		.4byte	0x247
 1680 08ed 02       		.uleb128 0x2
 1681 08ee 91       		.byte	0x91
 1682 08ef 74       		.sleb128 -12
 1683 08f0 1C       		.uleb128 0x1c
 1684 08f1 6D736700 		.ascii	"msg\000"
 1685 08f5 05       		.byte	0x5
 1686 08f6 6F       		.byte	0x6f
 1687 08f7 0C010000 		.4byte	0x10c
 1688 08fb 02       		.uleb128 0x2
 1689 08fc 91       		.byte	0x91
 1690 08fd 70       		.sleb128 -16
 1691 08fe 00       		.byte	0
 1692 08ff 21       		.uleb128 0x21
 1693 0900 90060000 		.4byte	.LASF141
 1694 0904 05       		.byte	0x5
 1695 0905 4F       		.byte	0x4f
 1696 0906 E4070000 		.4byte	0x7e4
 1697 090a 00000000 		.4byte	.LFB132
 1698 090e 20000000 		.4byte	.LFE132-.LFB132
 1699 0912 01       		.uleb128 0x1
 1700 0913 9C       		.byte	0x9c
 1701 0914 26090000 		.4byte	0x926
 1702 0918 1C       		.uleb128 0x1c
 1703 0919 747000   		.ascii	"tp\000"
ARM GAS  /tmp/ccN8vwv5.s 			page 31


 1704 091c 05       		.byte	0x5
 1705 091d 4F       		.byte	0x4f
 1706 091e 47020000 		.4byte	0x247
 1707 0922 02       		.uleb128 0x2
 1708 0923 91       		.byte	0x91
 1709 0924 74       		.sleb128 -12
 1710 0925 00       		.byte	0
 1711 0926 22       		.uleb128 0x22
 1712 0927 02020000 		.4byte	.LASF140
 1713 092b 04       		.byte	0x4
 1714 092c 6601     		.2byte	0x166
 1715 092e 00000000 		.4byte	.LFB78
 1716 0932 38000000 		.4byte	.LFE78-.LFB78
 1717 0936 01       		.uleb128 0x1
 1718 0937 9C       		.byte	0x9c
 1719 0938 4C090000 		.4byte	0x94c
 1720 093c 1D       		.uleb128 0x1d
 1721 093d 10070000 		.4byte	.LASF138
 1722 0941 5C090000 		.4byte	0x95c
 1723 0945 05       		.uleb128 0x5
 1724 0946 03       		.byte	0x3
 1725 0947 00000000 		.4byte	__func__.4993
 1726 094b 00       		.byte	0
 1727 094c 14       		.uleb128 0x14
 1728 094d 9B060000 		.4byte	0x69b
 1729 0951 5C090000 		.4byte	0x95c
 1730 0955 15       		.uleb128 0x15
 1731 0956 78040000 		.4byte	0x478
 1732 095a 0B       		.byte	0xb
 1733 095b 00       		.byte	0
 1734 095c 19       		.uleb128 0x19
 1735 095d 4C090000 		.4byte	0x94c
 1736 0961 23       		.uleb128 0x23
 1737 0962 60030000 		.4byte	.LASF152
 1738 0966 04       		.byte	0x4
 1739 0967 5A01     		.2byte	0x15a
 1740 0969 00000000 		.4byte	.LFB77
 1741 096d 0E000000 		.4byte	.LFE77-.LFB77
 1742 0971 01       		.uleb128 0x1
 1743 0972 9C       		.byte	0x9c
 1744 0973 24       		.uleb128 0x24
 1745 0974 71040000 		.4byte	.LASF142
 1746 0978 03       		.byte	0x3
 1747 0979 9F02     		.2byte	0x29f
 1748 097b 47020000 		.4byte	0x247
 1749 097f 00000000 		.4byte	.LFB67
 1750 0983 22000000 		.4byte	.LFE67-.LFB67
 1751 0987 01       		.uleb128 0x1
 1752 0988 9C       		.byte	0x9c
 1753 0989 AB090000 		.4byte	0x9ab
 1754 098d 25       		.uleb128 0x25
 1755 098e 74717000 		.ascii	"tqp\000"
 1756 0992 03       		.byte	0x3
 1757 0993 9F02     		.2byte	0x29f
 1758 0995 AB090000 		.4byte	0x9ab
 1759 0999 02       		.uleb128 0x2
 1760 099a 91       		.byte	0x91
ARM GAS  /tmp/ccN8vwv5.s 			page 32


 1761 099b 74       		.sleb128 -12
 1762 099c 26       		.uleb128 0x26
 1763 099d 747000   		.ascii	"tp\000"
 1764 09a0 03       		.byte	0x3
 1765 09a1 A002     		.2byte	0x2a0
 1766 09a3 47020000 		.4byte	0x247
 1767 09a7 02       		.uleb128 0x2
 1768 09a8 91       		.byte	0x91
 1769 09a9 7C       		.sleb128 -4
 1770 09aa 00       		.byte	0
 1771 09ab 09       		.uleb128 0x9
 1772 09ac 04       		.byte	0x4
 1773 09ad 71020000 		.4byte	0x271
 1774 09b1 27       		.uleb128 0x27
 1775 09b2 62050000 		.4byte	.LASF143
 1776 09b6 03       		.byte	0x3
 1777 09b7 9702     		.2byte	0x297
 1778 09b9 00000000 		.4byte	.LFB66
 1779 09bd 28000000 		.4byte	.LFE66-.LFB66
 1780 09c1 01       		.uleb128 0x1
 1781 09c2 9C       		.byte	0x9c
 1782 09c3 E5090000 		.4byte	0x9e5
 1783 09c7 25       		.uleb128 0x25
 1784 09c8 747000   		.ascii	"tp\000"
 1785 09cb 03       		.byte	0x3
 1786 09cc 9702     		.2byte	0x297
 1787 09ce 47020000 		.4byte	0x247
 1788 09d2 02       		.uleb128 0x2
 1789 09d3 91       		.byte	0x91
 1790 09d4 7C       		.sleb128 -4
 1791 09d5 25       		.uleb128 0x25
 1792 09d6 74717000 		.ascii	"tqp\000"
 1793 09da 03       		.byte	0x3
 1794 09db 9702     		.2byte	0x297
 1795 09dd AB090000 		.4byte	0x9ab
 1796 09e1 02       		.uleb128 0x2
 1797 09e2 91       		.byte	0x91
 1798 09e3 78       		.sleb128 -8
 1799 09e4 00       		.byte	0
 1800 09e5 27       		.uleb128 0x27
 1801 09e6 2A070000 		.4byte	.LASF144
 1802 09ea 01       		.byte	0x1
 1803 09eb 5301     		.2byte	0x153
 1804 09ed 00000000 		.4byte	.LFB39
 1805 09f1 06000000 		.4byte	.LFE39-.LFB39
 1806 09f5 01       		.uleb128 0x1
 1807 09f6 9C       		.byte	0x9c
 1808 09f7 0C0A0000 		.4byte	0xa0c
 1809 09fb 28       		.uleb128 0x28
 1810 09fc 3C0A0000 		.4byte	0xa3c
 1811 0a00 00000000 		.4byte	.LBB8
 1812 0a04 02000000 		.4byte	.LBE8-.LBB8
 1813 0a08 01       		.byte	0x1
 1814 0a09 5501     		.2byte	0x155
 1815 0a0b 00       		.byte	0
 1816 0a0c 27       		.uleb128 0x27
 1817 0a0d D4000000 		.4byte	.LASF145
ARM GAS  /tmp/ccN8vwv5.s 			page 33


 1818 0a11 01       		.byte	0x1
 1819 0a12 4A01     		.2byte	0x14a
 1820 0a14 00000000 		.4byte	.LFB38
 1821 0a18 06000000 		.4byte	.LFE38-.LFB38
 1822 0a1c 01       		.uleb128 0x1
 1823 0a1d 9C       		.byte	0x9c
 1824 0a1e 330A0000 		.4byte	0xa33
 1825 0a22 28       		.uleb128 0x28
 1826 0a23 330A0000 		.4byte	0xa33
 1827 0a27 00000000 		.4byte	.LBB6
 1828 0a2b 02000000 		.4byte	.LBE6-.LBB6
 1829 0a2f 01       		.byte	0x1
 1830 0a30 4C01     		.2byte	0x14c
 1831 0a32 00       		.byte	0
 1832 0a33 29       		.uleb128 0x29
 1833 0a34 5B020000 		.4byte	.LASF146
 1834 0a38 02       		.byte	0x2
 1835 0a39 5601     		.2byte	0x156
 1836 0a3b 03       		.byte	0x3
 1837 0a3c 29       		.uleb128 0x29
 1838 0a3d 4B050000 		.4byte	.LASF147
 1839 0a41 02       		.byte	0x2
 1840 0a42 4B01     		.2byte	0x14b
 1841 0a44 03       		.byte	0x3
 1842 0a45 00       		.byte	0
 1843              		.section	.debug_abbrev,"",%progbits
 1844              	.Ldebug_abbrev0:
 1845 0000 01       		.uleb128 0x1
 1846 0001 11       		.uleb128 0x11
 1847 0002 01       		.byte	0x1
 1848 0003 25       		.uleb128 0x25
 1849 0004 0E       		.uleb128 0xe
 1850 0005 13       		.uleb128 0x13
 1851 0006 0B       		.uleb128 0xb
 1852 0007 03       		.uleb128 0x3
 1853 0008 0E       		.uleb128 0xe
 1854 0009 1B       		.uleb128 0x1b
 1855 000a 0E       		.uleb128 0xe
 1856 000b 55       		.uleb128 0x55
 1857 000c 17       		.uleb128 0x17
 1858 000d 11       		.uleb128 0x11
 1859 000e 01       		.uleb128 0x1
 1860 000f 10       		.uleb128 0x10
 1861 0010 17       		.uleb128 0x17
 1862 0011 00       		.byte	0
 1863 0012 00       		.byte	0
 1864 0013 02       		.uleb128 0x2
 1865 0014 24       		.uleb128 0x24
 1866 0015 00       		.byte	0
 1867 0016 0B       		.uleb128 0xb
 1868 0017 0B       		.uleb128 0xb
 1869 0018 3E       		.uleb128 0x3e
 1870 0019 0B       		.uleb128 0xb
 1871 001a 03       		.uleb128 0x3
 1872 001b 08       		.uleb128 0x8
 1873 001c 00       		.byte	0
 1874 001d 00       		.byte	0
ARM GAS  /tmp/ccN8vwv5.s 			page 34


 1875 001e 03       		.uleb128 0x3
 1876 001f 24       		.uleb128 0x24
 1877 0020 00       		.byte	0
 1878 0021 0B       		.uleb128 0xb
 1879 0022 0B       		.uleb128 0xb
 1880 0023 3E       		.uleb128 0x3e
 1881 0024 0B       		.uleb128 0xb
 1882 0025 03       		.uleb128 0x3
 1883 0026 0E       		.uleb128 0xe
 1884 0027 00       		.byte	0
 1885 0028 00       		.byte	0
 1886 0029 04       		.uleb128 0x4
 1887 002a 16       		.uleb128 0x16
 1888 002b 00       		.byte	0
 1889 002c 03       		.uleb128 0x3
 1890 002d 0E       		.uleb128 0xe
 1891 002e 3A       		.uleb128 0x3a
 1892 002f 0B       		.uleb128 0xb
 1893 0030 3B       		.uleb128 0x3b
 1894 0031 0B       		.uleb128 0xb
 1895 0032 49       		.uleb128 0x49
 1896 0033 13       		.uleb128 0x13
 1897 0034 00       		.byte	0
 1898 0035 00       		.byte	0
 1899 0036 05       		.uleb128 0x5
 1900 0037 13       		.uleb128 0x13
 1901 0038 01       		.byte	0x1
 1902 0039 03       		.uleb128 0x3
 1903 003a 0E       		.uleb128 0xe
 1904 003b 0B       		.uleb128 0xb
 1905 003c 0B       		.uleb128 0xb
 1906 003d 3A       		.uleb128 0x3a
 1907 003e 0B       		.uleb128 0xb
 1908 003f 3B       		.uleb128 0x3b
 1909 0040 0B       		.uleb128 0xb
 1910 0041 01       		.uleb128 0x1
 1911 0042 13       		.uleb128 0x13
 1912 0043 00       		.byte	0
 1913 0044 00       		.byte	0
 1914 0045 06       		.uleb128 0x6
 1915 0046 0D       		.uleb128 0xd
 1916 0047 00       		.byte	0
 1917 0048 03       		.uleb128 0x3
 1918 0049 0E       		.uleb128 0xe
 1919 004a 3A       		.uleb128 0x3a
 1920 004b 0B       		.uleb128 0xb
 1921 004c 3B       		.uleb128 0x3b
 1922 004d 0B       		.uleb128 0xb
 1923 004e 49       		.uleb128 0x49
 1924 004f 13       		.uleb128 0x13
 1925 0050 38       		.uleb128 0x38
 1926 0051 0B       		.uleb128 0xb
 1927 0052 00       		.byte	0
 1928 0053 00       		.byte	0
 1929 0054 07       		.uleb128 0x7
 1930 0055 0D       		.uleb128 0xd
 1931 0056 00       		.byte	0
ARM GAS  /tmp/ccN8vwv5.s 			page 35


 1932 0057 03       		.uleb128 0x3
 1933 0058 08       		.uleb128 0x8
 1934 0059 3A       		.uleb128 0x3a
 1935 005a 0B       		.uleb128 0xb
 1936 005b 3B       		.uleb128 0x3b
 1937 005c 05       		.uleb128 0x5
 1938 005d 49       		.uleb128 0x49
 1939 005e 13       		.uleb128 0x13
 1940 005f 38       		.uleb128 0x38
 1941 0060 0B       		.uleb128 0xb
 1942 0061 00       		.byte	0
 1943 0062 00       		.byte	0
 1944 0063 08       		.uleb128 0x8
 1945 0064 0D       		.uleb128 0xd
 1946 0065 00       		.byte	0
 1947 0066 03       		.uleb128 0x3
 1948 0067 0E       		.uleb128 0xe
 1949 0068 3A       		.uleb128 0x3a
 1950 0069 0B       		.uleb128 0xb
 1951 006a 3B       		.uleb128 0x3b
 1952 006b 05       		.uleb128 0x5
 1953 006c 49       		.uleb128 0x49
 1954 006d 13       		.uleb128 0x13
 1955 006e 38       		.uleb128 0x38
 1956 006f 0B       		.uleb128 0xb
 1957 0070 00       		.byte	0
 1958 0071 00       		.byte	0
 1959 0072 09       		.uleb128 0x9
 1960 0073 0F       		.uleb128 0xf
 1961 0074 00       		.byte	0
 1962 0075 0B       		.uleb128 0xb
 1963 0076 0B       		.uleb128 0xb
 1964 0077 49       		.uleb128 0x49
 1965 0078 13       		.uleb128 0x13
 1966 0079 00       		.byte	0
 1967 007a 00       		.byte	0
 1968 007b 0A       		.uleb128 0xa
 1969 007c 13       		.uleb128 0x13
 1970 007d 01       		.byte	0x1
 1971 007e 03       		.uleb128 0x3
 1972 007f 0E       		.uleb128 0xe
 1973 0080 0B       		.uleb128 0xb
 1974 0081 0B       		.uleb128 0xb
 1975 0082 3A       		.uleb128 0x3a
 1976 0083 0B       		.uleb128 0xb
 1977 0084 3B       		.uleb128 0x3b
 1978 0085 05       		.uleb128 0x5
 1979 0086 01       		.uleb128 0x1
 1980 0087 13       		.uleb128 0x13
 1981 0088 00       		.byte	0
 1982 0089 00       		.byte	0
 1983 008a 0B       		.uleb128 0xb
 1984 008b 15       		.uleb128 0x15
 1985 008c 01       		.byte	0x1
 1986 008d 27       		.uleb128 0x27
 1987 008e 19       		.uleb128 0x19
 1988 008f 01       		.uleb128 0x1
ARM GAS  /tmp/ccN8vwv5.s 			page 36


 1989 0090 13       		.uleb128 0x13
 1990 0091 00       		.byte	0
 1991 0092 00       		.byte	0
 1992 0093 0C       		.uleb128 0xc
 1993 0094 05       		.uleb128 0x5
 1994 0095 00       		.byte	0
 1995 0096 49       		.uleb128 0x49
 1996 0097 13       		.uleb128 0x13
 1997 0098 00       		.byte	0
 1998 0099 00       		.byte	0
 1999 009a 0D       		.uleb128 0xd
 2000 009b 0F       		.uleb128 0xf
 2001 009c 00       		.byte	0
 2002 009d 0B       		.uleb128 0xb
 2003 009e 0B       		.uleb128 0xb
 2004 009f 00       		.byte	0
 2005 00a0 00       		.byte	0
 2006 00a1 0E       		.uleb128 0xe
 2007 00a2 13       		.uleb128 0x13
 2008 00a3 01       		.byte	0x1
 2009 00a4 03       		.uleb128 0x3
 2010 00a5 0E       		.uleb128 0xe
 2011 00a6 0B       		.uleb128 0xb
 2012 00a7 05       		.uleb128 0x5
 2013 00a8 3A       		.uleb128 0x3a
 2014 00a9 0B       		.uleb128 0xb
 2015 00aa 3B       		.uleb128 0x3b
 2016 00ab 05       		.uleb128 0x5
 2017 00ac 01       		.uleb128 0x1
 2018 00ad 13       		.uleb128 0x13
 2019 00ae 00       		.byte	0
 2020 00af 00       		.byte	0
 2021 00b0 0F       		.uleb128 0xf
 2022 00b1 0D       		.uleb128 0xd
 2023 00b2 00       		.byte	0
 2024 00b3 03       		.uleb128 0x3
 2025 00b4 0E       		.uleb128 0xe
 2026 00b5 3A       		.uleb128 0x3a
 2027 00b6 0B       		.uleb128 0xb
 2028 00b7 3B       		.uleb128 0x3b
 2029 00b8 05       		.uleb128 0x5
 2030 00b9 49       		.uleb128 0x49
 2031 00ba 13       		.uleb128 0x13
 2032 00bb 38       		.uleb128 0x38
 2033 00bc 05       		.uleb128 0x5
 2034 00bd 00       		.byte	0
 2035 00be 00       		.byte	0
 2036 00bf 10       		.uleb128 0x10
 2037 00c0 34       		.uleb128 0x34
 2038 00c1 00       		.byte	0
 2039 00c2 03       		.uleb128 0x3
 2040 00c3 0E       		.uleb128 0xe
 2041 00c4 3A       		.uleb128 0x3a
 2042 00c5 0B       		.uleb128 0xb
 2043 00c6 3B       		.uleb128 0x3b
 2044 00c7 0B       		.uleb128 0xb
 2045 00c8 49       		.uleb128 0x49
ARM GAS  /tmp/ccN8vwv5.s 			page 37


 2046 00c9 13       		.uleb128 0x13
 2047 00ca 3F       		.uleb128 0x3f
 2048 00cb 19       		.uleb128 0x19
 2049 00cc 3C       		.uleb128 0x3c
 2050 00cd 19       		.uleb128 0x19
 2051 00ce 00       		.byte	0
 2052 00cf 00       		.byte	0
 2053 00d0 11       		.uleb128 0x11
 2054 00d1 0D       		.uleb128 0xd
 2055 00d2 00       		.byte	0
 2056 00d3 03       		.uleb128 0x3
 2057 00d4 08       		.uleb128 0x8
 2058 00d5 3A       		.uleb128 0x3a
 2059 00d6 0B       		.uleb128 0xb
 2060 00d7 3B       		.uleb128 0x3b
 2061 00d8 0B       		.uleb128 0xb
 2062 00d9 49       		.uleb128 0x49
 2063 00da 13       		.uleb128 0x13
 2064 00db 38       		.uleb128 0x38
 2065 00dc 0B       		.uleb128 0xb
 2066 00dd 00       		.byte	0
 2067 00de 00       		.byte	0
 2068 00df 12       		.uleb128 0x12
 2069 00e0 13       		.uleb128 0x13
 2070 00e1 01       		.byte	0x1
 2071 00e2 0B       		.uleb128 0xb
 2072 00e3 0B       		.uleb128 0xb
 2073 00e4 3A       		.uleb128 0x3a
 2074 00e5 0B       		.uleb128 0xb
 2075 00e6 3B       		.uleb128 0x3b
 2076 00e7 0B       		.uleb128 0xb
 2077 00e8 01       		.uleb128 0x1
 2078 00e9 13       		.uleb128 0x13
 2079 00ea 00       		.byte	0
 2080 00eb 00       		.byte	0
 2081 00ec 13       		.uleb128 0x13
 2082 00ed 13       		.uleb128 0x13
 2083 00ee 01       		.byte	0x1
 2084 00ef 0B       		.uleb128 0xb
 2085 00f0 05       		.uleb128 0x5
 2086 00f1 3A       		.uleb128 0x3a
 2087 00f2 0B       		.uleb128 0xb
 2088 00f3 3B       		.uleb128 0x3b
 2089 00f4 0B       		.uleb128 0xb
 2090 00f5 01       		.uleb128 0x1
 2091 00f6 13       		.uleb128 0x13
 2092 00f7 00       		.byte	0
 2093 00f8 00       		.byte	0
 2094 00f9 14       		.uleb128 0x14
 2095 00fa 01       		.uleb128 0x1
 2096 00fb 01       		.byte	0x1
 2097 00fc 49       		.uleb128 0x49
 2098 00fd 13       		.uleb128 0x13
 2099 00fe 01       		.uleb128 0x1
 2100 00ff 13       		.uleb128 0x13
 2101 0100 00       		.byte	0
 2102 0101 00       		.byte	0
ARM GAS  /tmp/ccN8vwv5.s 			page 38


 2103 0102 15       		.uleb128 0x15
 2104 0103 21       		.uleb128 0x21
 2105 0104 00       		.byte	0
 2106 0105 49       		.uleb128 0x49
 2107 0106 13       		.uleb128 0x13
 2108 0107 2F       		.uleb128 0x2f
 2109 0108 0B       		.uleb128 0xb
 2110 0109 00       		.byte	0
 2111 010a 00       		.byte	0
 2112 010b 16       		.uleb128 0x16
 2113 010c 17       		.uleb128 0x17
 2114 010d 01       		.byte	0x1
 2115 010e 0B       		.uleb128 0xb
 2116 010f 0B       		.uleb128 0xb
 2117 0110 3A       		.uleb128 0x3a
 2118 0111 0B       		.uleb128 0xb
 2119 0112 3B       		.uleb128 0x3b
 2120 0113 0B       		.uleb128 0xb
 2121 0114 01       		.uleb128 0x1
 2122 0115 13       		.uleb128 0x13
 2123 0116 00       		.byte	0
 2124 0117 00       		.byte	0
 2125 0118 17       		.uleb128 0x17
 2126 0119 0D       		.uleb128 0xd
 2127 011a 00       		.byte	0
 2128 011b 03       		.uleb128 0x3
 2129 011c 0E       		.uleb128 0xe
 2130 011d 3A       		.uleb128 0x3a
 2131 011e 0B       		.uleb128 0xb
 2132 011f 3B       		.uleb128 0x3b
 2133 0120 05       		.uleb128 0x5
 2134 0121 49       		.uleb128 0x49
 2135 0122 13       		.uleb128 0x13
 2136 0123 00       		.byte	0
 2137 0124 00       		.byte	0
 2138 0125 18       		.uleb128 0x18
 2139 0126 35       		.uleb128 0x35
 2140 0127 00       		.byte	0
 2141 0128 49       		.uleb128 0x49
 2142 0129 13       		.uleb128 0x13
 2143 012a 00       		.byte	0
 2144 012b 00       		.byte	0
 2145 012c 19       		.uleb128 0x19
 2146 012d 26       		.uleb128 0x26
 2147 012e 00       		.byte	0
 2148 012f 49       		.uleb128 0x49
 2149 0130 13       		.uleb128 0x13
 2150 0131 00       		.byte	0
 2151 0132 00       		.byte	0
 2152 0133 1A       		.uleb128 0x1a
 2153 0134 34       		.uleb128 0x34
 2154 0135 00       		.byte	0
 2155 0136 03       		.uleb128 0x3
 2156 0137 08       		.uleb128 0x8
 2157 0138 3A       		.uleb128 0x3a
 2158 0139 0B       		.uleb128 0xb
 2159 013a 3B       		.uleb128 0x3b
ARM GAS  /tmp/ccN8vwv5.s 			page 39


 2160 013b 05       		.uleb128 0x5
 2161 013c 49       		.uleb128 0x49
 2162 013d 13       		.uleb128 0x13
 2163 013e 3F       		.uleb128 0x3f
 2164 013f 19       		.uleb128 0x19
 2165 0140 3C       		.uleb128 0x3c
 2166 0141 19       		.uleb128 0x19
 2167 0142 00       		.byte	0
 2168 0143 00       		.byte	0
 2169 0144 1B       		.uleb128 0x1b
 2170 0145 2E       		.uleb128 0x2e
 2171 0146 01       		.byte	0x1
 2172 0147 3F       		.uleb128 0x3f
 2173 0148 19       		.uleb128 0x19
 2174 0149 03       		.uleb128 0x3
 2175 014a 0E       		.uleb128 0xe
 2176 014b 3A       		.uleb128 0x3a
 2177 014c 0B       		.uleb128 0xb
 2178 014d 3B       		.uleb128 0x3b
 2179 014e 0B       		.uleb128 0xb
 2180 014f 27       		.uleb128 0x27
 2181 0150 19       		.uleb128 0x19
 2182 0151 11       		.uleb128 0x11
 2183 0152 01       		.uleb128 0x1
 2184 0153 12       		.uleb128 0x12
 2185 0154 06       		.uleb128 0x6
 2186 0155 40       		.uleb128 0x40
 2187 0156 18       		.uleb128 0x18
 2188 0157 9642     		.uleb128 0x2116
 2189 0159 19       		.uleb128 0x19
 2190 015a 01       		.uleb128 0x1
 2191 015b 13       		.uleb128 0x13
 2192 015c 00       		.byte	0
 2193 015d 00       		.byte	0
 2194 015e 1C       		.uleb128 0x1c
 2195 015f 05       		.uleb128 0x5
 2196 0160 00       		.byte	0
 2197 0161 03       		.uleb128 0x3
 2198 0162 08       		.uleb128 0x8
 2199 0163 3A       		.uleb128 0x3a
 2200 0164 0B       		.uleb128 0xb
 2201 0165 3B       		.uleb128 0x3b
 2202 0166 0B       		.uleb128 0xb
 2203 0167 49       		.uleb128 0x49
 2204 0168 13       		.uleb128 0x13
 2205 0169 02       		.uleb128 0x2
 2206 016a 18       		.uleb128 0x18
 2207 016b 00       		.byte	0
 2208 016c 00       		.byte	0
 2209 016d 1D       		.uleb128 0x1d
 2210 016e 34       		.uleb128 0x34
 2211 016f 00       		.byte	0
 2212 0170 03       		.uleb128 0x3
 2213 0171 0E       		.uleb128 0xe
 2214 0172 49       		.uleb128 0x49
 2215 0173 13       		.uleb128 0x13
 2216 0174 34       		.uleb128 0x34
ARM GAS  /tmp/ccN8vwv5.s 			page 40


 2217 0175 19       		.uleb128 0x19
 2218 0176 02       		.uleb128 0x2
 2219 0177 18       		.uleb128 0x18
 2220 0178 00       		.byte	0
 2221 0179 00       		.byte	0
 2222 017a 1E       		.uleb128 0x1e
 2223 017b 2E       		.uleb128 0x2e
 2224 017c 01       		.byte	0x1
 2225 017d 3F       		.uleb128 0x3f
 2226 017e 19       		.uleb128 0x19
 2227 017f 03       		.uleb128 0x3
 2228 0180 0E       		.uleb128 0xe
 2229 0181 3A       		.uleb128 0x3a
 2230 0182 0B       		.uleb128 0xb
 2231 0183 3B       		.uleb128 0x3b
 2232 0184 0B       		.uleb128 0xb
 2233 0185 27       		.uleb128 0x27
 2234 0186 19       		.uleb128 0x19
 2235 0187 49       		.uleb128 0x49
 2236 0188 13       		.uleb128 0x13
 2237 0189 11       		.uleb128 0x11
 2238 018a 01       		.uleb128 0x1
 2239 018b 12       		.uleb128 0x12
 2240 018c 06       		.uleb128 0x6
 2241 018d 40       		.uleb128 0x40
 2242 018e 18       		.uleb128 0x18
 2243 018f 9642     		.uleb128 0x2116
 2244 0191 19       		.uleb128 0x19
 2245 0192 01       		.uleb128 0x1
 2246 0193 13       		.uleb128 0x13
 2247 0194 00       		.byte	0
 2248 0195 00       		.byte	0
 2249 0196 1F       		.uleb128 0x1f
 2250 0197 34       		.uleb128 0x34
 2251 0198 00       		.byte	0
 2252 0199 03       		.uleb128 0x3
 2253 019a 08       		.uleb128 0x8
 2254 019b 3A       		.uleb128 0x3a
 2255 019c 0B       		.uleb128 0xb
 2256 019d 3B       		.uleb128 0x3b
 2257 019e 0B       		.uleb128 0xb
 2258 019f 49       		.uleb128 0x49
 2259 01a0 13       		.uleb128 0x13
 2260 01a1 02       		.uleb128 0x2
 2261 01a2 18       		.uleb128 0x18
 2262 01a3 00       		.byte	0
 2263 01a4 00       		.byte	0
 2264 01a5 20       		.uleb128 0x20
 2265 01a6 2E       		.uleb128 0x2e
 2266 01a7 01       		.byte	0x1
 2267 01a8 03       		.uleb128 0x3
 2268 01a9 0E       		.uleb128 0xe
 2269 01aa 3A       		.uleb128 0x3a
 2270 01ab 0B       		.uleb128 0xb
 2271 01ac 3B       		.uleb128 0x3b
 2272 01ad 0B       		.uleb128 0xb
 2273 01ae 27       		.uleb128 0x27
ARM GAS  /tmp/ccN8vwv5.s 			page 41


 2274 01af 19       		.uleb128 0x19
 2275 01b0 11       		.uleb128 0x11
 2276 01b1 01       		.uleb128 0x1
 2277 01b2 12       		.uleb128 0x12
 2278 01b3 06       		.uleb128 0x6
 2279 01b4 40       		.uleb128 0x40
 2280 01b5 18       		.uleb128 0x18
 2281 01b6 9642     		.uleb128 0x2116
 2282 01b8 19       		.uleb128 0x19
 2283 01b9 01       		.uleb128 0x1
 2284 01ba 13       		.uleb128 0x13
 2285 01bb 00       		.byte	0
 2286 01bc 00       		.byte	0
 2287 01bd 21       		.uleb128 0x21
 2288 01be 2E       		.uleb128 0x2e
 2289 01bf 01       		.byte	0x1
 2290 01c0 03       		.uleb128 0x3
 2291 01c1 0E       		.uleb128 0xe
 2292 01c2 3A       		.uleb128 0x3a
 2293 01c3 0B       		.uleb128 0xb
 2294 01c4 3B       		.uleb128 0x3b
 2295 01c5 0B       		.uleb128 0xb
 2296 01c6 27       		.uleb128 0x27
 2297 01c7 19       		.uleb128 0x19
 2298 01c8 49       		.uleb128 0x49
 2299 01c9 13       		.uleb128 0x13
 2300 01ca 11       		.uleb128 0x11
 2301 01cb 01       		.uleb128 0x1
 2302 01cc 12       		.uleb128 0x12
 2303 01cd 06       		.uleb128 0x6
 2304 01ce 40       		.uleb128 0x40
 2305 01cf 18       		.uleb128 0x18
 2306 01d0 9642     		.uleb128 0x2116
 2307 01d2 19       		.uleb128 0x19
 2308 01d3 01       		.uleb128 0x1
 2309 01d4 13       		.uleb128 0x13
 2310 01d5 00       		.byte	0
 2311 01d6 00       		.byte	0
 2312 01d7 22       		.uleb128 0x22
 2313 01d8 2E       		.uleb128 0x2e
 2314 01d9 01       		.byte	0x1
 2315 01da 03       		.uleb128 0x3
 2316 01db 0E       		.uleb128 0xe
 2317 01dc 3A       		.uleb128 0x3a
 2318 01dd 0B       		.uleb128 0xb
 2319 01de 3B       		.uleb128 0x3b
 2320 01df 05       		.uleb128 0x5
 2321 01e0 27       		.uleb128 0x27
 2322 01e1 19       		.uleb128 0x19
 2323 01e2 11       		.uleb128 0x11
 2324 01e3 01       		.uleb128 0x1
 2325 01e4 12       		.uleb128 0x12
 2326 01e5 06       		.uleb128 0x6
 2327 01e6 40       		.uleb128 0x40
 2328 01e7 18       		.uleb128 0x18
 2329 01e8 9642     		.uleb128 0x2116
 2330 01ea 19       		.uleb128 0x19
ARM GAS  /tmp/ccN8vwv5.s 			page 42


 2331 01eb 01       		.uleb128 0x1
 2332 01ec 13       		.uleb128 0x13
 2333 01ed 00       		.byte	0
 2334 01ee 00       		.byte	0
 2335 01ef 23       		.uleb128 0x23
 2336 01f0 2E       		.uleb128 0x2e
 2337 01f1 00       		.byte	0
 2338 01f2 03       		.uleb128 0x3
 2339 01f3 0E       		.uleb128 0xe
 2340 01f4 3A       		.uleb128 0x3a
 2341 01f5 0B       		.uleb128 0xb
 2342 01f6 3B       		.uleb128 0x3b
 2343 01f7 05       		.uleb128 0x5
 2344 01f8 27       		.uleb128 0x27
 2345 01f9 19       		.uleb128 0x19
 2346 01fa 11       		.uleb128 0x11
 2347 01fb 01       		.uleb128 0x1
 2348 01fc 12       		.uleb128 0x12
 2349 01fd 06       		.uleb128 0x6
 2350 01fe 40       		.uleb128 0x40
 2351 01ff 18       		.uleb128 0x18
 2352 0200 9642     		.uleb128 0x2116
 2353 0202 19       		.uleb128 0x19
 2354 0203 00       		.byte	0
 2355 0204 00       		.byte	0
 2356 0205 24       		.uleb128 0x24
 2357 0206 2E       		.uleb128 0x2e
 2358 0207 01       		.byte	0x1
 2359 0208 03       		.uleb128 0x3
 2360 0209 0E       		.uleb128 0xe
 2361 020a 3A       		.uleb128 0x3a
 2362 020b 0B       		.uleb128 0xb
 2363 020c 3B       		.uleb128 0x3b
 2364 020d 05       		.uleb128 0x5
 2365 020e 27       		.uleb128 0x27
 2366 020f 19       		.uleb128 0x19
 2367 0210 49       		.uleb128 0x49
 2368 0211 13       		.uleb128 0x13
 2369 0212 11       		.uleb128 0x11
 2370 0213 01       		.uleb128 0x1
 2371 0214 12       		.uleb128 0x12
 2372 0215 06       		.uleb128 0x6
 2373 0216 40       		.uleb128 0x40
 2374 0217 18       		.uleb128 0x18
 2375 0218 9742     		.uleb128 0x2117
 2376 021a 19       		.uleb128 0x19
 2377 021b 01       		.uleb128 0x1
 2378 021c 13       		.uleb128 0x13
 2379 021d 00       		.byte	0
 2380 021e 00       		.byte	0
 2381 021f 25       		.uleb128 0x25
 2382 0220 05       		.uleb128 0x5
 2383 0221 00       		.byte	0
 2384 0222 03       		.uleb128 0x3
 2385 0223 08       		.uleb128 0x8
 2386 0224 3A       		.uleb128 0x3a
 2387 0225 0B       		.uleb128 0xb
ARM GAS  /tmp/ccN8vwv5.s 			page 43


 2388 0226 3B       		.uleb128 0x3b
 2389 0227 05       		.uleb128 0x5
 2390 0228 49       		.uleb128 0x49
 2391 0229 13       		.uleb128 0x13
 2392 022a 02       		.uleb128 0x2
 2393 022b 18       		.uleb128 0x18
 2394 022c 00       		.byte	0
 2395 022d 00       		.byte	0
 2396 022e 26       		.uleb128 0x26
 2397 022f 34       		.uleb128 0x34
 2398 0230 00       		.byte	0
 2399 0231 03       		.uleb128 0x3
 2400 0232 08       		.uleb128 0x8
 2401 0233 3A       		.uleb128 0x3a
 2402 0234 0B       		.uleb128 0xb
 2403 0235 3B       		.uleb128 0x3b
 2404 0236 05       		.uleb128 0x5
 2405 0237 49       		.uleb128 0x49
 2406 0238 13       		.uleb128 0x13
 2407 0239 02       		.uleb128 0x2
 2408 023a 18       		.uleb128 0x18
 2409 023b 00       		.byte	0
 2410 023c 00       		.byte	0
 2411 023d 27       		.uleb128 0x27
 2412 023e 2E       		.uleb128 0x2e
 2413 023f 01       		.byte	0x1
 2414 0240 03       		.uleb128 0x3
 2415 0241 0E       		.uleb128 0xe
 2416 0242 3A       		.uleb128 0x3a
 2417 0243 0B       		.uleb128 0xb
 2418 0244 3B       		.uleb128 0x3b
 2419 0245 05       		.uleb128 0x5
 2420 0246 27       		.uleb128 0x27
 2421 0247 19       		.uleb128 0x19
 2422 0248 11       		.uleb128 0x11
 2423 0249 01       		.uleb128 0x1
 2424 024a 12       		.uleb128 0x12
 2425 024b 06       		.uleb128 0x6
 2426 024c 40       		.uleb128 0x40
 2427 024d 18       		.uleb128 0x18
 2428 024e 9742     		.uleb128 0x2117
 2429 0250 19       		.uleb128 0x19
 2430 0251 01       		.uleb128 0x1
 2431 0252 13       		.uleb128 0x13
 2432 0253 00       		.byte	0
 2433 0254 00       		.byte	0
 2434 0255 28       		.uleb128 0x28
 2435 0256 1D       		.uleb128 0x1d
 2436 0257 00       		.byte	0
 2437 0258 31       		.uleb128 0x31
 2438 0259 13       		.uleb128 0x13
 2439 025a 11       		.uleb128 0x11
 2440 025b 01       		.uleb128 0x1
 2441 025c 12       		.uleb128 0x12
 2442 025d 06       		.uleb128 0x6
 2443 025e 58       		.uleb128 0x58
 2444 025f 0B       		.uleb128 0xb
ARM GAS  /tmp/ccN8vwv5.s 			page 44


 2445 0260 59       		.uleb128 0x59
 2446 0261 05       		.uleb128 0x5
 2447 0262 00       		.byte	0
 2448 0263 00       		.byte	0
 2449 0264 29       		.uleb128 0x29
 2450 0265 2E       		.uleb128 0x2e
 2451 0266 00       		.byte	0
 2452 0267 03       		.uleb128 0x3
 2453 0268 0E       		.uleb128 0xe
 2454 0269 3A       		.uleb128 0x3a
 2455 026a 0B       		.uleb128 0xb
 2456 026b 3B       		.uleb128 0x3b
 2457 026c 05       		.uleb128 0x5
 2458 026d 27       		.uleb128 0x27
 2459 026e 19       		.uleb128 0x19
 2460 026f 20       		.uleb128 0x20
 2461 0270 0B       		.uleb128 0xb
 2462 0271 00       		.byte	0
 2463 0272 00       		.byte	0
 2464 0273 00       		.byte	0
 2465              		.section	.debug_aranges,"",%progbits
 2466 0000 6C000000 		.4byte	0x6c
 2467 0004 0200     		.2byte	0x2
 2468 0006 00000000 		.4byte	.Ldebug_info0
 2469 000a 04       		.byte	0x4
 2470 000b 00       		.byte	0
 2471 000c 0000     		.2byte	0
 2472 000e 0000     		.2byte	0
 2473 0010 00000000 		.4byte	.LFB38
 2474 0014 06000000 		.4byte	.LFE38-.LFB38
 2475 0018 00000000 		.4byte	.LFB39
 2476 001c 06000000 		.4byte	.LFE39-.LFB39
 2477 0020 00000000 		.4byte	.LFB66
 2478 0024 28000000 		.4byte	.LFE66-.LFB66
 2479 0028 00000000 		.4byte	.LFB67
 2480 002c 22000000 		.4byte	.LFE67-.LFB67
 2481 0030 00000000 		.4byte	.LFB77
 2482 0034 0E000000 		.4byte	.LFE77-.LFB77
 2483 0038 00000000 		.4byte	.LFB78
 2484 003c 38000000 		.4byte	.LFE78-.LFB78
 2485 0040 00000000 		.4byte	.LFB132
 2486 0044 20000000 		.4byte	.LFE132-.LFB132
 2487 0048 00000000 		.4byte	.LFB134
 2488 004c 1E000000 		.4byte	.LFE134-.LFB134
 2489 0050 00000000 		.4byte	.LFB152
 2490 0054 74000000 		.4byte	.LFE152-.LFB152
 2491 0058 00000000 		.4byte	.LFB153
 2492 005c 50000000 		.4byte	.LFE153-.LFB153
 2493 0060 00000000 		.4byte	.LFB154
 2494 0064 38000000 		.4byte	.LFE154-.LFB154
 2495 0068 00000000 		.4byte	0
 2496 006c 00000000 		.4byte	0
 2497              		.section	.debug_ranges,"",%progbits
 2498              	.Ldebug_ranges0:
 2499 0000 00000000 		.4byte	.LFB38
 2500 0004 06000000 		.4byte	.LFE38
 2501 0008 00000000 		.4byte	.LFB39
ARM GAS  /tmp/ccN8vwv5.s 			page 45


 2502 000c 06000000 		.4byte	.LFE39
 2503 0010 00000000 		.4byte	.LFB66
 2504 0014 28000000 		.4byte	.LFE66
 2505 0018 00000000 		.4byte	.LFB67
 2506 001c 22000000 		.4byte	.LFE67
 2507 0020 00000000 		.4byte	.LFB77
 2508 0024 0E000000 		.4byte	.LFE77
 2509 0028 00000000 		.4byte	.LFB78
 2510 002c 38000000 		.4byte	.LFE78
 2511 0030 00000000 		.4byte	.LFB132
 2512 0034 20000000 		.4byte	.LFE132
 2513 0038 00000000 		.4byte	.LFB134
 2514 003c 1E000000 		.4byte	.LFE134
 2515 0040 00000000 		.4byte	.LFB152
 2516 0044 74000000 		.4byte	.LFE152
 2517 0048 00000000 		.4byte	.LFB153
 2518 004c 50000000 		.4byte	.LFE153
 2519 0050 00000000 		.4byte	.LFB154
 2520 0054 38000000 		.4byte	.LFE154
 2521 0058 00000000 		.4byte	0
 2522 005c 00000000 		.4byte	0
 2523              		.section	.debug_line,"",%progbits
 2524              	.Ldebug_line0:
 2525 0000 64030000 		.section	.debug_str,"MS",%progbits,1
 2525      02003D02 
 2525      00000201 
 2525      FB0E0D00 
 2525      01010101 
 2526              	.LASF50:
 2527 0000 63685F74 		.ascii	"ch_threads_list\000"
 2527      68726561 
 2527      64735F6C 
 2527      69737400 
 2528              	.LASF51:
 2529 0010 74687265 		.ascii	"threads_queue_t\000"
 2529      6164735F 
 2529      71756575 
 2529      655F7400 
 2530              	.LASF40:
 2531 0020 705F7761 		.ascii	"p_waiting\000"
 2531      6974696E 
 2531      6700
 2532              	.LASF113:
 2533 002a 53797374 		.ascii	"SystemCoreClock\000"
 2533      656D436F 
 2533      7265436C 
 2533      6F636B00 
 2534              	.LASF103:
 2535 003a 77746D74 		.ascii	"wtmtxp\000"
 2535      787000
 2536              	.LASF112:
 2537 0041 63686172 		.ascii	"char\000"
 2537      00
 2538              	.LASF85:
 2539 0046 72656761 		.ascii	"regarm_t\000"
 2539      726D5F74 
 2539      00
ARM GAS  /tmp/ccN8vwv5.s 			page 46


 2540              	.LASF31:
 2541 004f 705F7072 		.ascii	"p_prio\000"
 2541      696F00
 2542              	.LASF27:
 2543 0056 73797374 		.ascii	"systime_t\000"
 2543      696D655F 
 2543      7400
 2544              	.LASF124:
 2545 0060 63665F6F 		.ascii	"cf_off_older\000"
 2545      66665F6F 
 2545      6C646572 
 2545      00
 2546              	.LASF110:
 2547 006d 6D5F6F77 		.ascii	"m_owner\000"
 2547      6E657200 
 2548              	.LASF106:
 2549 0075 735F7175 		.ascii	"s_queue\000"
 2549      65756500 
 2550              	.LASF41:
 2551 007d 705F6D73 		.ascii	"p_msgqueue\000"
 2551      67717565 
 2551      756500
 2552              	.LASF0:
 2553 0088 756E7369 		.ascii	"unsigned int\000"
 2553      676E6564 
 2553      20696E74 
 2553      00
 2554              	.LASF48:
 2555 0095 74687265 		.ascii	"threads_list_t\000"
 2555      6164735F 
 2555      6C697374 
 2555      5F7400
 2556              	.LASF9:
 2557 00a4 5F5F696E 		.ascii	"__int32_t\000"
 2557      7433325F 
 2557      7400
 2558              	.LASF92:
 2559 00ae 73655F73 		.ascii	"se_state\000"
 2559      74617465 
 2559      00
 2560              	.LASF125:
 2561 00b7 63665F6F 		.ascii	"cf_off_name\000"
 2561      66665F6E 
 2561      616D6500 
 2562              	.LASF137:
 2563 00c3 63684D73 		.ascii	"chMsgSend\000"
 2563      6753656E 
 2563      6400
 2564              	.LASF100:
 2565 00cd 77746F62 		.ascii	"wtobjp\000"
 2565      6A7000
 2566              	.LASF145:
 2567 00d4 706F7274 		.ascii	"port_lock\000"
 2567      5F6C6F63 
 2567      6B00
 2568              	.LASF81:
 2569 00de 76746C69 		.ascii	"vtlist\000"
ARM GAS  /tmp/ccN8vwv5.s 			page 47


 2569      737400
 2570              	.LASF54:
 2571 00e5 63685F72 		.ascii	"ch_ready_list\000"
 2571      65616479 
 2571      5F6C6973 
 2571      7400
 2572              	.LASF83:
 2573 00f3 69646C65 		.ascii	"idle_thread_wa\000"
 2573      5F746872 
 2573      6561645F 
 2573      776100
 2574              	.LASF104:
 2575 0102 65776D61 		.ascii	"ewmask\000"
 2575      736B00
 2576              	.LASF128:
 2577 0109 63665F6F 		.ascii	"cf_off_flags\000"
 2577      66665F66 
 2577      6C616773 
 2577      00
 2578              	.LASF52:
 2579 0116 63685F74 		.ascii	"ch_threads_queue\000"
 2579      68726561 
 2579      64735F71 
 2579      75657565 
 2579      00
 2580              	.LASF118:
 2581 0127 63685F70 		.ascii	"ch_ptrsize\000"
 2581      74727369 
 2581      7A6500
 2582              	.LASF61:
 2583 0132 76746675 		.ascii	"vtfunc_t\000"
 2583      6E635F74 
 2583      00
 2584              	.LASF151:
 2585 013b 63684D73 		.ascii	"chMsgRelease\000"
 2585      6752656C 
 2585      65617365 
 2585      00
 2586              	.LASF107:
 2587 0148 735F636E 		.ascii	"s_cnt\000"
 2587      7400
 2588              	.LASF73:
 2589 014e 63685F73 		.ascii	"ch_system_debug\000"
 2589      79737465 
 2589      6D5F6465 
 2589      62756700 
 2590              	.LASF150:
 2591 015e 2F686F6D 		.ascii	"/home/felix/esho/Ultrasound/\000"
 2591      652F6665 
 2591      6C69782F 
 2591      6573686F 
 2591      2F556C74 
 2592              	.LASF18:
 2593 017b 75696E74 		.ascii	"uint32_t\000"
 2593      33325F74 
 2593      00
 2594              	.LASF119:
ARM GAS  /tmp/ccN8vwv5.s 			page 48


 2595 0184 63685F74 		.ascii	"ch_timesize\000"
 2595      696D6573 
 2595      697A6500 
 2596              	.LASF25:
 2597 0190 6576656E 		.ascii	"eventmask_t\000"
 2597      746D6173 
 2597      6B5F7400 
 2598              	.LASF56:
 2599 019c 725F7072 		.ascii	"r_prio\000"
 2599      696F00
 2600              	.LASF68:
 2601 01a3 76745F70 		.ascii	"vt_par\000"
 2601      617200
 2602              	.LASF105:
 2603 01aa 63685F73 		.ascii	"ch_semaphore\000"
 2603      656D6170 
 2603      686F7265 
 2603      00
 2604              	.LASF23:
 2605 01b7 74707269 		.ascii	"tprio_t\000"
 2605      6F5F7400 
 2606              	.LASF63:
 2607 01bf 63685F76 		.ascii	"ch_virtual_timer\000"
 2607      69727475 
 2607      616C5F74 
 2607      696D6572 
 2607      00
 2608              	.LASF14:
 2609 01d0 6C6F6E67 		.ascii	"long long unsigned int\000"
 2609      206C6F6E 
 2609      6720756E 
 2609      7369676E 
 2609      65642069 
 2610              	.LASF91:
 2611 01e7 73655F77 		.ascii	"se_wtobjp\000"
 2611      746F626A 
 2611      7000
 2612              	.LASF7:
 2613 01f1 5F5F7569 		.ascii	"__uint16_t\000"
 2613      6E743136 
 2613      5F7400
 2614              	.LASF26:
 2615 01fc 636E745F 		.ascii	"cnt_t\000"
 2615      7400
 2616              	.LASF140:
 2617 0202 63685379 		.ascii	"chSysUnlock\000"
 2617      73556E6C 
 2617      6F636B00 
 2618              	.LASF75:
 2619 020e 6973725F 		.ascii	"isr_cnt\000"
 2619      636E7400 
 2620              	.LASF33:
 2621 0216 705F6E65 		.ascii	"p_newer\000"
 2621      77657200 
 2622              	.LASF70:
 2623 021e 63685F76 		.ascii	"ch_virtual_timers_list\000"
 2623      69727475 
ARM GAS  /tmp/ccN8vwv5.s 			page 49


 2623      616C5F74 
 2623      696D6572 
 2623      735F6C69 
 2624              	.LASF89:
 2625 0235 73655F74 		.ascii	"se_time\000"
 2625      696D6500 
 2626              	.LASF28:
 2627 023d 74687265 		.ascii	"thread_t\000"
 2627      61645F74 
 2627      00
 2628              	.LASF98:
 2629 0246 7264796D 		.ascii	"rdymsg\000"
 2629      736700
 2630              	.LASF120:
 2631 024d 63685F74 		.ascii	"ch_threadsize\000"
 2631      68726561 
 2631      6473697A 
 2631      6500
 2632              	.LASF146:
 2633 025b 5F5F6469 		.ascii	"__disable_irq\000"
 2633      7361626C 
 2633      655F6972 
 2633      7100
 2634              	.LASF130:
 2635 0269 63665F6F 		.ascii	"cf_off_preempt\000"
 2635      66665F70 
 2635      7265656D 
 2635      707400
 2636              	.LASF135:
 2637 0278 5F426F6F 		.ascii	"_Bool\000"
 2637      6C00
 2638              	.LASF148:
 2639 027e 474E5520 		.ascii	"GNU C11 6.3.1 20170215 (release) [ARM/embedded-6-br"
 2639      43313120 
 2639      362E332E 
 2639      31203230 
 2639      31373032 
 2640 02b1 616E6368 		.ascii	"anch revision 245512] -mcpu=cortex-m0 -mno-thumb-in"
 2640      20726576 
 2640      6973696F 
 2640      6E203234 
 2640      35353132 
 2641 02e4 74657277 		.ascii	"terwork -mthumb -ggdb -O0 -fomit-frame-pointer -fal"
 2641      6F726B20 
 2641      2D6D7468 
 2641      756D6220 
 2641      2D676764 
 2642 0317 69676E2D 		.ascii	"ign-functions=16 -ffunction-sections -fdata-section"
 2642      66756E63 
 2642      74696F6E 
 2642      733D3136 
 2642      202D6666 
 2643 034a 7300     		.ascii	"s\000"
 2644              	.LASF108:
 2645 034c 63685F6D 		.ascii	"ch_mutex\000"
 2645      75746578 
 2645      00
ARM GAS  /tmp/ccN8vwv5.s 			page 50


 2646              	.LASF13:
 2647 0355 5F5F7569 		.ascii	"__uint64_t\000"
 2647      6E743634 
 2647      5F7400
 2648              	.LASF152:
 2649 0360 63685379 		.ascii	"chSysLock\000"
 2649      734C6F63 
 2649      6B00
 2650              	.LASF122:
 2651 036a 63665F6F 		.ascii	"cf_off_ctx\000"
 2651      66665F63 
 2651      747800
 2652              	.LASF126:
 2653 0375 63665F6F 		.ascii	"cf_off_stklimit\000"
 2653      66665F73 
 2653      746B6C69 
 2653      6D697400 
 2654              	.LASF35:
 2655 0385 705F6E61 		.ascii	"p_name\000"
 2655      6D6500
 2656              	.LASF66:
 2657 038c 76745F64 		.ascii	"vt_delta\000"
 2657      656C7461 
 2657      00
 2658              	.LASF47:
 2659 0395 74687265 		.ascii	"thread_reference_t\000"
 2659      61645F72 
 2659      65666572 
 2659      656E6365 
 2659      5F7400
 2660              	.LASF71:
 2661 03a8 76745F6C 		.ascii	"vt_lasttime\000"
 2661      61737474 
 2661      696D6500 
 2662              	.LASF21:
 2663 03b4 74737461 		.ascii	"tstate_t\000"
 2663      74655F74 
 2663      00
 2664              	.LASF90:
 2665 03bd 73655F74 		.ascii	"se_tp\000"
 2665      7000
 2666              	.LASF34:
 2667 03c3 705F6F6C 		.ascii	"p_older\000"
 2667      64657200 
 2668              	.LASF37:
 2669 03cb 705F7374 		.ascii	"p_state\000"
 2669      61746500 
 2670              	.LASF36:
 2671 03d3 705F7374 		.ascii	"p_stklimit\000"
 2671      6B6C696D 
 2671      697400
 2672              	.LASF15:
 2673 03de 75696E74 		.ascii	"uint8_t\000"
 2673      385F7400 
 2674              	.LASF96:
 2675 03e6 74625F62 		.ascii	"tb_buffer\000"
 2675      75666665 
ARM GAS  /tmp/ccN8vwv5.s 			page 51


 2675      7200
 2676              	.LASF46:
 2677 03f0 705F6D70 		.ascii	"p_mpool\000"
 2677      6F6F6C00 
 2678              	.LASF44:
 2679 03f8 705F6D74 		.ascii	"p_mtxlist\000"
 2679      786C6973 
 2679      7400
 2680              	.LASF49:
 2681 0402 63685F74 		.ascii	"ch_thread\000"
 2681      68726561 
 2681      6400
 2682              	.LASF94:
 2683 040c 74625F73 		.ascii	"tb_size\000"
 2683      697A6500 
 2684              	.LASF72:
 2685 0414 73797374 		.ascii	"system_debug_t\000"
 2685      656D5F64 
 2685      65627567 
 2685      5F7400
 2686              	.LASF1:
 2687 0423 6C6F6E67 		.ascii	"long long int\000"
 2687      206C6F6E 
 2687      6720696E 
 2687      7400
 2688              	.LASF55:
 2689 0431 725F7175 		.ascii	"r_queue\000"
 2689      65756500 
 2690              	.LASF58:
 2691 0439 725F6E65 		.ascii	"r_newer\000"
 2691      77657200 
 2692              	.LASF24:
 2693 0441 6D73675F 		.ascii	"msg_t\000"
 2693      7400
 2694              	.LASF136:
 2695 0447 63684D73 		.ascii	"chMsgWait\000"
 2695      67576169 
 2695      7400
 2696              	.LASF87:
 2697 0451 636F6E74 		.ascii	"context\000"
 2697      65787400 
 2698              	.LASF38:
 2699 0459 705F666C 		.ascii	"p_flags\000"
 2699      61677300 
 2700              	.LASF62:
 2701 0461 76697274 		.ascii	"virtual_timer_t\000"
 2701      75616C5F 
 2701      74696D65 
 2701      725F7400 
 2702              	.LASF142:
 2703 0471 71756575 		.ascii	"queue_fifo_remove\000"
 2703      655F6669 
 2703      666F5F72 
 2703      656D6F76 
 2703      6500
 2704              	.LASF129:
 2705 0483 63665F6F 		.ascii	"cf_off_refs\000"
ARM GAS  /tmp/ccN8vwv5.s 			page 52


 2705      66665F72 
 2705      65667300 
 2706              	.LASF115:
 2707 048f 63685F7A 		.ascii	"ch_zero\000"
 2707      65726F00 
 2708              	.LASF95:
 2709 0497 74625F70 		.ascii	"tb_ptr\000"
 2709      747200
 2710              	.LASF59:
 2711 049e 725F6F6C 		.ascii	"r_older\000"
 2711      64657200 
 2712              	.LASF74:
 2713 04a6 70616E69 		.ascii	"panic_msg\000"
 2713      635F6D73 
 2713      6700
 2714              	.LASF42:
 2715 04b0 705F6D73 		.ascii	"p_msg\000"
 2715      6700
 2716              	.LASF20:
 2717 04b6 746D6F64 		.ascii	"tmode_t\000"
 2717      655F7400 
 2718              	.LASF116:
 2719 04be 63685F73 		.ascii	"ch_size\000"
 2719      697A6500 
 2720              	.LASF82:
 2721 04c6 6D61696E 		.ascii	"mainthread\000"
 2721      74687265 
 2721      616400
 2722              	.LASF2:
 2723 04d1 6C6F6E67 		.ascii	"long double\000"
 2723      20646F75 
 2723      626C6500 
 2724              	.LASF16:
 2725 04dd 75696E74 		.ascii	"uint16_t\000"
 2725      31365F74 
 2725      00
 2726              	.LASF132:
 2727 04e6 63686465 		.ascii	"chdebug_t\000"
 2727      6275675F 
 2727      7400
 2728              	.LASF76:
 2729 04f0 6C6F636B 		.ascii	"lock_cnt\000"
 2729      5F636E74 
 2729      00
 2730              	.LASF45:
 2731 04f9 705F7265 		.ascii	"p_realprio\000"
 2731      616C7072 
 2731      696F00
 2732              	.LASF117:
 2733 0504 63685F76 		.ascii	"ch_version\000"
 2733      65727369 
 2733      6F6E00
 2734              	.LASF5:
 2735 050f 73686F72 		.ascii	"short int\000"
 2735      7420696E 
 2735      7400
 2736              	.LASF60:
ARM GAS  /tmp/ccN8vwv5.s 			page 53


 2737 0519 725F6375 		.ascii	"r_current\000"
 2737      7272656E 
 2737      7400
 2738              	.LASF43:
 2739 0523 705F6570 		.ascii	"p_epending\000"
 2739      656E6469 
 2739      6E6700
 2740              	.LASF109:
 2741 052e 6D5F7175 		.ascii	"m_queue\000"
 2741      65756500 
 2742              	.LASF10:
 2743 0536 6C6F6E67 		.ascii	"long int\000"
 2743      20696E74 
 2743      00
 2744              	.LASF88:
 2745 053f 706F7274 		.ascii	"port_intctx\000"
 2745      5F696E74 
 2745      63747800 
 2746              	.LASF147:
 2747 054b 5F5F656E 		.ascii	"__enable_irq\000"
 2747      61626C65 
 2747      5F697271 
 2747      00
 2748              	.LASF79:
 2749 0558 63685F73 		.ascii	"ch_system\000"
 2749      79737465 
 2749      6D00
 2750              	.LASF143:
 2751 0562 71756575 		.ascii	"queue_insert\000"
 2751      655F696E 
 2751      73657274 
 2751      00
 2752              	.LASF29:
 2753 056f 705F6E65 		.ascii	"p_next\000"
 2753      787400
 2754              	.LASF19:
 2755 0576 75696E74 		.ascii	"uint64_t\000"
 2755      36345F74 
 2755      00
 2756              	.LASF32:
 2757 057f 705F6374 		.ascii	"p_ctx\000"
 2757      7800
 2758              	.LASF80:
 2759 0585 726C6973 		.ascii	"rlist\000"
 2759      7400
 2760              	.LASF131:
 2761 058b 63665F6F 		.ascii	"cf_off_time\000"
 2761      66665F74 
 2761      696D6500 
 2762              	.LASF149:
 2763 0597 43686962 		.ascii	"ChibiOS/os/rt/src/chmsg.c\000"
 2763      694F532F 
 2763      6F732F72 
 2763      742F7372 
 2763      632F6368 
 2764              	.LASF121:
 2765 05b1 63665F6F 		.ascii	"cf_off_prio\000"
ARM GAS  /tmp/ccN8vwv5.s 			page 54


 2765      66665F70 
 2765      72696F00 
 2766              	.LASF6:
 2767 05bd 5F5F7569 		.ascii	"__uint8_t\000"
 2767      6E74385F 
 2767      7400
 2768              	.LASF114:
 2769 05c7 63685F69 		.ascii	"ch_identifier\000"
 2769      64656E74 
 2769      69666965 
 2769      7200
 2770              	.LASF30:
 2771 05d5 705F7072 		.ascii	"p_prev\000"
 2771      657600
 2772              	.LASF84:
 2773 05dc 73697A65 		.ascii	"sizetype\000"
 2773      74797065 
 2773      00
 2774              	.LASF22:
 2775 05e5 74726566 		.ascii	"trefs_t\000"
 2775      735F7400 
 2776              	.LASF12:
 2777 05ed 6C6F6E67 		.ascii	"long unsigned int\000"
 2777      20756E73 
 2777      69676E65 
 2777      6420696E 
 2777      7400
 2778              	.LASF127:
 2779 05ff 63665F6F 		.ascii	"cf_off_state\000"
 2779      66665F73 
 2779      74617465 
 2779      00
 2780              	.LASF53:
 2781 060c 72656164 		.ascii	"ready_list_t\000"
 2781      795F6C69 
 2781      73745F74 
 2781      00
 2782              	.LASF17:
 2783 0619 696E7433 		.ascii	"int32_t\000"
 2783      325F7400 
 2784              	.LASF77:
 2785 0621 74726163 		.ascii	"trace_buffer\000"
 2785      655F6275 
 2785      66666572 
 2785      00
 2786              	.LASF102:
 2787 062e 77747365 		.ascii	"wtsemp\000"
 2787      6D7000
 2788              	.LASF93:
 2789 0635 63685F73 		.ascii	"ch_swc_event_t\000"
 2789      77635F65 
 2789      76656E74 
 2789      5F7400
 2790              	.LASF134:
 2791 0644 6D757465 		.ascii	"mutex_t\000"
 2791      785F7400 
 2792              	.LASF4:
ARM GAS  /tmp/ccN8vwv5.s 			page 55


 2793 064c 756E7369 		.ascii	"unsigned char\000"
 2793      676E6564 
 2793      20636861 
 2793      7200
 2794              	.LASF11:
 2795 065a 5F5F7569 		.ascii	"__uint32_t\000"
 2795      6E743332 
 2795      5F7400
 2796              	.LASF69:
 2797 0665 76697274 		.ascii	"virtual_timers_list_t\000"
 2797      75616C5F 
 2797      74696D65 
 2797      72735F6C 
 2797      6973745F 
 2798              	.LASF39:
 2799 067b 705F7265 		.ascii	"p_refs\000"
 2799      667300
 2800              	.LASF139:
 2801 0682 63684D73 		.ascii	"chMsgReleaseS\000"
 2801      6752656C 
 2801      65617365 
 2801      5300
 2802              	.LASF141:
 2803 0690 63684D73 		.ascii	"chMsgIsPendingI\000"
 2803      67497350 
 2803      656E6469 
 2803      6E674900 
 2804              	.LASF64:
 2805 06a0 76745F6E 		.ascii	"vt_next\000"
 2805      65787400 
 2806              	.LASF78:
 2807 06a8 63685F73 		.ascii	"ch_system_t\000"
 2807      79737465 
 2807      6D5F7400 
 2808              	.LASF101:
 2809 06b4 77747472 		.ascii	"wttrp\000"
 2809      7000
 2810              	.LASF97:
 2811 06ba 63685F74 		.ascii	"ch_trace_buffer_t\000"
 2811      72616365 
 2811      5F627566 
 2811      6665725F 
 2811      7400
 2812              	.LASF111:
 2813 06cc 6D5F6E65 		.ascii	"m_next\000"
 2813      787400
 2814              	.LASF3:
 2815 06d3 7369676E 		.ascii	"signed char\000"
 2815      65642063 
 2815      68617200 
 2816              	.LASF123:
 2817 06df 63665F6F 		.ascii	"cf_off_newer\000"
 2817      66665F6E 
 2817      65776572 
 2817      00
 2818              	.LASF8:
 2819 06ec 73686F72 		.ascii	"short unsigned int\000"
ARM GAS  /tmp/ccN8vwv5.s 			page 56


 2819      7420756E 
 2819      7369676E 
 2819      65642069 
 2819      6E7400
 2820              	.LASF57:
 2821 06ff 725F6374 		.ascii	"r_ctx\000"
 2821      7800
 2822              	.LASF86:
 2823 0705 73746B61 		.ascii	"stkalign_t\000"
 2823      6C69676E 
 2823      5F7400
 2824              	.LASF138:
 2825 0710 5F5F6675 		.ascii	"__func__\000"
 2825      6E635F5F 
 2825      00
 2826              	.LASF133:
 2827 0719 63685F64 		.ascii	"ch_debug\000"
 2827      65627567 
 2827      00
 2828              	.LASF67:
 2829 0722 76745F66 		.ascii	"vt_func\000"
 2829      756E6300 
 2830              	.LASF144:
 2831 072a 706F7274 		.ascii	"port_unlock\000"
 2831      5F756E6C 
 2831      6F636B00 
 2832              	.LASF65:
 2833 0736 76745F70 		.ascii	"vt_prev\000"
 2833      72657600 
 2834              	.LASF99:
 2835 073e 65786974 		.ascii	"exitcode\000"
 2835      636F6465 
 2835      00
 2836              		.ident	"GCC: (GNU Tools for ARM Embedded Processors 6-2017-q1-update) 6.3.1 20170215 (release) [AR
ARM GAS  /tmp/ccN8vwv5.s 			page 57


DEFINED SYMBOLS
                            *ABS*:0000000000000000 chmsg.c
     /tmp/ccN8vwv5.s:16     .text.port_lock:0000000000000000 $t
     /tmp/ccN8vwv5.s:23     .text.port_lock:0000000000000000 port_lock
     /tmp/ccN8vwv5.s:51     .text.port_unlock:0000000000000000 $t
     /tmp/ccN8vwv5.s:58     .text.port_unlock:0000000000000000 port_unlock
     /tmp/ccN8vwv5.s:84     .text.queue_insert:0000000000000000 $t
     /tmp/ccN8vwv5.s:91     .text.queue_insert:0000000000000000 queue_insert
     /tmp/ccN8vwv5.s:130    .text.queue_fifo_remove:0000000000000000 $t
     /tmp/ccN8vwv5.s:137    .text.queue_fifo_remove:0000000000000000 queue_fifo_remove
     /tmp/ccN8vwv5.s:172    .text.chSysLock:0000000000000000 $t
     /tmp/ccN8vwv5.s:179    .text.chSysLock:0000000000000000 chSysLock
     /tmp/ccN8vwv5.s:202    .text.chSysUnlock:0000000000000000 $t
     /tmp/ccN8vwv5.s:209    .text.chSysUnlock:0000000000000000 chSysUnlock
     /tmp/ccN8vwv5.s:250    .text.chSysUnlock:0000000000000030 $d
     /tmp/ccN8vwv5.s:555    .rodata.__func__.4993:0000000000000000 __func__.4993
     /tmp/ccN8vwv5.s:256    .text.chMsgIsPendingI:0000000000000000 $t
     /tmp/ccN8vwv5.s:263    .text.chMsgIsPendingI:0000000000000000 chMsgIsPendingI
     /tmp/ccN8vwv5.s:296    .text.chMsgReleaseS:0000000000000000 $t
     /tmp/ccN8vwv5.s:303    .text.chMsgReleaseS:0000000000000000 chMsgReleaseS
     /tmp/ccN8vwv5.s:333    .text.chMsgSend:0000000000000000 $t
     /tmp/ccN8vwv5.s:341    .text.chMsgSend:0000000000000000 chMsgSend
     /tmp/ccN8vwv5.s:418    .text.chMsgSend:000000000000006c $d
     /tmp/ccN8vwv5.s:549    .rodata.__func__.5698:0000000000000000 __func__.5698
     /tmp/ccN8vwv5.s:424    .text.chMsgWait:0000000000000000 $t
     /tmp/ccN8vwv5.s:432    .text.chMsgWait:0000000000000000 chMsgWait
     /tmp/ccN8vwv5.s:486    .text.chMsgWait:000000000000004c $d
     /tmp/ccN8vwv5.s:491    .text.chMsgRelease:0000000000000000 $t
     /tmp/ccN8vwv5.s:499    .text.chMsgRelease:0000000000000000 chMsgRelease
     /tmp/ccN8vwv5.s:541    .text.chMsgRelease:0000000000000034 $d
     /tmp/ccN8vwv5.s:561    .rodata.__func__.5707:0000000000000000 __func__.5707
     /tmp/ccN8vwv5.s:546    .rodata.__func__.5698:0000000000000000 $d
     /tmp/ccN8vwv5.s:552    .rodata.__func__.4993:0000000000000000 $d
     /tmp/ccN8vwv5.s:558    .rodata.__func__.5707:0000000000000000 $d
                     .debug_frame:0000000000000010 $d

UNDEFINED SYMBOLS
_dbg_check_lock
_dbg_check_unlock
chSysHalt
ch
chDbgCheckClassI
chDbgCheckClassS
chSchWakeupS
chSchReadyI
chSchGoSleepS
