ARM GAS  /tmp/ccN8vwv5.s 			page 1


   1              		.cpu cortex-m0
   2              		.eabi_attribute 20, 1
   3              		.eabi_attribute 21, 1
   4              		.eabi_attribute 23, 3
   5              		.eabi_attribute 24, 1
   6              		.eabi_attribute 25, 1
   7              		.eabi_attribute 26, 1
   8              		.eabi_attribute 30, 6
   9              		.eabi_attribute 34, 0
  10              		.eabi_attribute 18, 4
  11              		.file	"chmsg.c"
  12              		.text
  13              	.Ltext0:
  14              		.cfi_sections	.debug_frame
  15              		.section	.text.port_lock,"ax",%progbits
  16              		.align	1
  17              		.p2align 4,,15
  18              		.syntax unified
  19              		.code	16
  20              		.thumb_func
  21              		.fpu softvfp
  22              		.type	port_lock, %function
  23              	port_lock:
  24              	.LFB38:
  25              		.file 1 "ChibiOS/os/rt/ports/ARMCMx/chcore_v6m.h"
  26              		.loc 1 330 0
  27              		.cfi_startproc
  28              		@ args = 0, pretend = 0, frame = 0
  29              		@ frame_needed = 0, uses_anonymous_args = 0
  30              		@ link register save eliminated.
  31              	.LBB6:
  32              	.LBB7:
  33              		.file 2 "ChibiOS/os/ext/CMSIS/include/core_cmFunc.h"
  34              		.loc 2 344 0
  35              		.syntax divided
  36              	@ 344 "ChibiOS/os/ext/CMSIS/include/core_cmFunc.h" 1
  37 0000 72B6     		cpsid i
  38              	@ 0 "" 2
  39              		.thumb
  40              		.syntax unified
  41              	.LBE7:
  42              	.LBE6:
  43              		.loc 1 333 0
  44 0002 C046     		nop
  45              		@ sp needed
  46 0004 7047     		bx	lr
  47              		.cfi_endproc
  48              	.LFE38:
  49              		.size	port_lock, .-port_lock
  50 0006 C046     		.section	.text.port_unlock,"ax",%progbits
  51              		.align	1
  52              		.p2align 4,,15
  53              		.syntax unified
  54              		.code	16
  55              		.thumb_func
  56              		.fpu softvfp
  57              		.type	port_unlock, %function
ARM GAS  /tmp/ccN8vwv5.s 			page 2


  58              	port_unlock:
  59              	.LFB39:
  60              		.loc 1 339 0
  61              		.cfi_startproc
  62              		@ args = 0, pretend = 0, frame = 0
  63              		@ frame_needed = 0, uses_anonymous_args = 0
  64              		@ link register save eliminated.
  65              	.LBB8:
  66              	.LBB9:
  67              		.loc 2 333 0
  68              		.syntax divided
  69              	@ 333 "ChibiOS/os/ext/CMSIS/include/core_cmFunc.h" 1
  70 0000 62B6     		cpsie i
  71              	@ 0 "" 2
  72              		.thumb
  73              		.syntax unified
  74              	.LBE9:
  75              	.LBE8:
  76              		.loc 1 342 0
  77 0002 C046     		nop
  78              		@ sp needed
  79 0004 7047     		bx	lr
  80              		.cfi_endproc
  81              	.LFE39:
  82              		.size	port_unlock, .-port_unlock
  83 0006 C046     		.section	.text.queue_insert,"ax",%progbits
  84              		.align	1
  85              		.p2align 4,,15
  86              		.syntax unified
  87              		.code	16
  88              		.thumb_func
  89              		.fpu softvfp
  90              		.type	queue_insert, %function
  91              	queue_insert:
  92              	.LFB66:
  93              		.file 3 "ChibiOS/os/rt/include/chschd.h"
  94              		.loc 3 663 0
  95              		.cfi_startproc
  96              		@ args = 0, pretend = 0, frame = 8
  97              		@ frame_needed = 0, uses_anonymous_args = 0
  98              		@ link register save eliminated.
  99 0000 82B0     		sub	sp, sp, #8
 100              		.cfi_def_cfa_offset 8
 101 0002 0190     		str	r0, [sp, #4]
 102 0004 0091     		str	r1, [sp]
 103              		.loc 3 665 0
 104 0006 019B     		ldr	r3, [sp, #4]
 105 0008 009A     		ldr	r2, [sp]
 106 000a 1A60     		str	r2, [r3]
 107              		.loc 3 666 0
 108 000c 009B     		ldr	r3, [sp]
 109 000e 5A68     		ldr	r2, [r3, #4]
 110 0010 019B     		ldr	r3, [sp, #4]
 111 0012 5A60     		str	r2, [r3, #4]
 112              		.loc 3 667 0
 113 0014 019B     		ldr	r3, [sp, #4]
 114 0016 5B68     		ldr	r3, [r3, #4]
ARM GAS  /tmp/ccN8vwv5.s 			page 3


 115 0018 019A     		ldr	r2, [sp, #4]
 116 001a 1A60     		str	r2, [r3]
 117              		.loc 3 668 0
 118 001c 009B     		ldr	r3, [sp]
 119 001e 019A     		ldr	r2, [sp, #4]
 120 0020 5A60     		str	r2, [r3, #4]
 121              		.loc 3 669 0
 122 0022 C046     		nop
 123 0024 02B0     		add	sp, sp, #8
 124              		@ sp needed
 125 0026 7047     		bx	lr
 126              		.cfi_endproc
 127              	.LFE66:
 128              		.size	queue_insert, .-queue_insert
 129              		.section	.text.queue_fifo_remove,"ax",%progbits
 130              		.align	1
 131              		.p2align 4,,15
 132              		.syntax unified
 133              		.code	16
 134              		.thumb_func
 135              		.fpu softvfp
 136              		.type	queue_fifo_remove, %function
 137              	queue_fifo_remove:
 138              	.LFB67:
 139              		.loc 3 671 0
 140              		.cfi_startproc
 141              		@ args = 0, pretend = 0, frame = 16
 142              		@ frame_needed = 0, uses_anonymous_args = 0
 143              		@ link register save eliminated.
 144 0000 84B0     		sub	sp, sp, #16
 145              		.cfi_def_cfa_offset 16
 146 0002 0190     		str	r0, [sp, #4]
 147              		.loc 3 672 0
 148 0004 019B     		ldr	r3, [sp, #4]
 149 0006 1B68     		ldr	r3, [r3]
 150 0008 0393     		str	r3, [sp, #12]
 151              		.loc 3 674 0
 152 000a 039B     		ldr	r3, [sp, #12]
 153 000c 1A68     		ldr	r2, [r3]
 154 000e 019B     		ldr	r3, [sp, #4]
 155 0010 1A60     		str	r2, [r3]
 156              		.loc 3 675 0
 157 0012 019B     		ldr	r3, [sp, #4]
 158 0014 1B68     		ldr	r3, [r3]
 159 0016 019A     		ldr	r2, [sp, #4]
 160 0018 5A60     		str	r2, [r3, #4]
 161              		.loc 3 677 0
 162 001a 039B     		ldr	r3, [sp, #12]
 163              		.loc 3 678 0
 164 001c 1800     		movs	r0, r3
 165 001e 04B0     		add	sp, sp, #16
 166              		@ sp needed
 167 0020 7047     		bx	lr
 168              		.cfi_endproc
 169              	.LFE67:
 170              		.size	queue_fifo_remove, .-queue_fifo_remove
 171 0022 C046     		.section	.text.chSysLock,"ax",%progbits
ARM GAS  /tmp/ccN8vwv5.s 			page 4


 172              		.align	1
 173              		.p2align 4,,15
 174              		.syntax unified
 175              		.code	16
 176              		.thumb_func
 177              		.fpu softvfp
 178              		.type	chSysLock, %function
 179              	chSysLock:
 180              	.LFB77:
 181              		.file 4 "ChibiOS/os/rt/include/chsys.h"
 182              		.loc 4 346 0
 183              		.cfi_startproc
 184              		@ args = 0, pretend = 0, frame = 0
 185              		@ frame_needed = 0, uses_anonymous_args = 0
 186 0000 10B5     		push	{r4, lr}
 187              		.cfi_def_cfa_offset 8
 188              		.cfi_offset 4, -8
 189              		.cfi_offset 14, -4
 190              		.loc 4 348 0
 191 0002 FFF7FEFF 		bl	port_lock
 192              		.loc 4 350 0
 193 0006 FFF7FEFF 		bl	_dbg_check_lock
 194              		.loc 4 351 0
 195 000a C046     		nop
 196              		@ sp needed
 197 000c 10BD     		pop	{r4, pc}
 198              		.cfi_endproc
 199              	.LFE77:
 200              		.size	chSysLock, .-chSysLock
 201 000e C046     		.section	.text.chSysUnlock,"ax",%progbits
 202              		.align	1
 203              		.p2align 4,,15
 204              		.syntax unified
 205              		.code	16
 206              		.thumb_func
 207              		.fpu softvfp
 208              		.type	chSysUnlock, %function
 209              	chSysUnlock:
 210              	.LFB78:
 211              		.loc 4 358 0
 212              		.cfi_startproc
 213              		@ args = 0, pretend = 0, frame = 0
 214              		@ frame_needed = 0, uses_anonymous_args = 0
 215 0000 10B5     		push	{r4, lr}
 216              		.cfi_def_cfa_offset 8
 217              		.cfi_offset 4, -8
 218              		.cfi_offset 14, -4
 219              		.loc 4 360 0
 220 0002 FFF7FEFF 		bl	_dbg_check_unlock
 221              		.loc 4 367 0
 222 0006 0A4B     		ldr	r3, .L9
 223 0008 1A68     		ldr	r2, [r3]
 224 000a 094B     		ldr	r3, .L9
 225 000c 9A42     		cmp	r2, r3
 226 000e 0BD0     		beq	.L8
 227              		.loc 4 367 0 is_stmt 0 discriminator 2
 228 0010 074B     		ldr	r3, .L9
ARM GAS  /tmp/ccN8vwv5.s 			page 5


 229 0012 9B69     		ldr	r3, [r3, #24]
 230 0014 9A68     		ldr	r2, [r3, #8]
 231 0016 064B     		ldr	r3, .L9
 232 0018 1B68     		ldr	r3, [r3]
 233 001a 9B68     		ldr	r3, [r3, #8]
 234 001c 9A42     		cmp	r2, r3
 235 001e 03D2     		bcs	.L8
 236              		.loc 4 367 0 discriminator 3
 237 0020 044B     		ldr	r3, .L9+4
 238 0022 1800     		movs	r0, r3
 239 0024 FFF7FEFF 		bl	chSysHalt
 240              	.L8:
 241              		.loc 4 371 0 is_stmt 1
 242 0028 FFF7FEFF 		bl	port_unlock
 243              		.loc 4 372 0
 244 002c C046     		nop
 245              		@ sp needed
 246 002e 10BD     		pop	{r4, pc}
 247              	.L10:
 248              		.align	2
 249              	.L9:
 250 0030 00000000 		.word	ch
 251 0034 00000000 		.word	__func__.4993
 252              		.cfi_endproc
 253              	.LFE78:
 254              		.size	chSysUnlock, .-chSysUnlock
 255              		.section	.text.chMsgIsPendingI,"ax",%progbits
 256              		.align	1
 257              		.p2align 4,,15
 258              		.syntax unified
 259              		.code	16
 260              		.thumb_func
 261              		.fpu softvfp
 262              		.type	chMsgIsPendingI, %function
 263              	chMsgIsPendingI:
 264              	.LFB132:
 265              		.file 5 "ChibiOS/os/rt/include/chmsg.h"
 266              		.loc 5 79 0
 267              		.cfi_startproc
 268              		@ args = 0, pretend = 0, frame = 8
 269              		@ frame_needed = 0, uses_anonymous_args = 0
 270 0000 00B5     		push	{lr}
 271              		.cfi_def_cfa_offset 4
 272              		.cfi_offset 14, -4
 273 0002 83B0     		sub	sp, sp, #12
 274              		.cfi_def_cfa_offset 16
 275 0004 0190     		str	r0, [sp, #4]
 276              		.loc 5 81 0
 277 0006 FFF7FEFF 		bl	chDbgCheckClassI
 278              		.loc 5 83 0
 279 000a 019B     		ldr	r3, [sp, #4]
 280 000c DA6A     		ldr	r2, [r3, #44]
 281 000e 019B     		ldr	r3, [sp, #4]
 282 0010 2C33     		adds	r3, r3, #44
 283 0012 D31A     		subs	r3, r2, r3
 284 0014 5A1E     		subs	r2, r3, #1
 285 0016 9341     		sbcs	r3, r3, r2
ARM GAS  /tmp/ccN8vwv5.s 			page 6


 286 0018 DBB2     		uxtb	r3, r3
 287              		.loc 5 84 0
 288 001a 1800     		movs	r0, r3
 289 001c 03B0     		add	sp, sp, #12
 290              		@ sp needed
 291 001e 00BD     		pop	{pc}
 292              		.cfi_endproc
 293              	.LFE132:
 294              		.size	chMsgIsPendingI, .-chMsgIsPendingI
 295              		.section	.text.chMsgReleaseS,"ax",%progbits
 296              		.align	1
 297              		.p2align 4,,15
 298              		.syntax unified
 299              		.code	16
 300              		.thumb_func
 301              		.fpu softvfp
 302              		.type	chMsgReleaseS, %function
 303              	chMsgReleaseS:
 304              	.LFB134:
 305              		.loc 5 111 0
 306              		.cfi_startproc
 307              		@ args = 0, pretend = 0, frame = 8
 308              		@ frame_needed = 0, uses_anonymous_args = 0
 309 0000 00B5     		push	{lr}
 310              		.cfi_def_cfa_offset 4
 311              		.cfi_offset 14, -4
 312 0002 83B0     		sub	sp, sp, #12
 313              		.cfi_def_cfa_offset 16
 314 0004 0190     		str	r0, [sp, #4]
 315 0006 0091     		str	r1, [sp]
 316              		.loc 5 113 0
 317 0008 FFF7FEFF 		bl	chDbgCheckClassS
 318              		.loc 5 115 0
 319 000c 009A     		ldr	r2, [sp]
 320 000e 019B     		ldr	r3, [sp, #4]
 321 0010 1100     		movs	r1, r2
 322 0012 1800     		movs	r0, r3
 323 0014 FFF7FEFF 		bl	chSchWakeupS
 324              		.loc 5 116 0
 325 0018 C046     		nop
 326 001a 03B0     		add	sp, sp, #12
 327              		@ sp needed
 328 001c 00BD     		pop	{pc}
 329              		.cfi_endproc
 330              	.LFE134:
 331              		.size	chMsgReleaseS, .-chMsgReleaseS
 332 001e C046     		.section	.text.chMsgSend,"ax",%progbits
 333              		.align	1
 334              		.p2align 4,,15
 335              		.global	chMsgSend
 336              		.syntax unified
 337              		.code	16
 338              		.thumb_func
 339              		.fpu softvfp
 340              		.type	chMsgSend, %function
 341              	chMsgSend:
 342              	.LFB152:
ARM GAS  /tmp/ccN8vwv5.s 			page 7


 343              		.file 6 "ChibiOS/os/rt/src/chmsg.c"
 344              		.loc 6 87 0
 345              		.cfi_startproc
 346              		@ args = 0, pretend = 0, frame = 16
 347              		@ frame_needed = 0, uses_anonymous_args = 0
 348 0000 00B5     		push	{lr}
 349              		.cfi_def_cfa_offset 4
 350              		.cfi_offset 14, -4
 351 0002 85B0     		sub	sp, sp, #20
 352              		.cfi_def_cfa_offset 24
 353 0004 0190     		str	r0, [sp, #4]
 354 0006 0091     		str	r1, [sp]
 355              		.loc 6 88 0
 356 0008 184B     		ldr	r3, .L18
 357 000a 9B69     		ldr	r3, [r3, #24]
 358 000c 0393     		str	r3, [sp, #12]
 359              		.loc 6 90 0
 360 000e 019B     		ldr	r3, [sp, #4]
 361 0010 002B     		cmp	r3, #0
 362 0012 03D1     		bne	.L15
 363              		.loc 6 90 0 is_stmt 0 discriminator 2
 364 0014 164B     		ldr	r3, .L18+4
 365 0016 1800     		movs	r0, r3
 366 0018 FFF7FEFF 		bl	chSysHalt
 367              	.L15:
 368              		.loc 6 92 0 is_stmt 1
 369 001c FFF7FEFF 		bl	chSysLock
 370              		.loc 6 93 0
 371 0020 039B     		ldr	r3, [sp, #12]
 372 0022 009A     		ldr	r2, [sp]
 373 0024 5A63     		str	r2, [r3, #52]
 374              		.loc 6 94 0
 375 0026 019B     		ldr	r3, [sp, #4]
 376 0028 2C33     		adds	r3, r3, #44
 377 002a 1A00     		movs	r2, r3
 378 002c 039B     		ldr	r3, [sp, #12]
 379 002e 5A62     		str	r2, [r3, #36]
 380              		.loc 6 95 0
 381 0030 019B     		ldr	r3, [sp, #4]
 382 0032 2C33     		adds	r3, r3, #44
 383 0034 1A00     		movs	r2, r3
 384 0036 039B     		ldr	r3, [sp, #12]
 385 0038 1100     		movs	r1, r2
 386 003a 1800     		movs	r0, r3
 387 003c FFF7FEFF 		bl	queue_insert
 388              		.loc 6 96 0
 389 0040 019B     		ldr	r3, [sp, #4]
 390 0042 2022     		movs	r2, #32
 391 0044 9B5C     		ldrb	r3, [r3, r2]
 392 0046 0E2B     		cmp	r3, #14
 393 0048 03D1     		bne	.L16
 394              		.loc 6 97 0
 395 004a 019B     		ldr	r3, [sp, #4]
 396 004c 1800     		movs	r0, r3
 397 004e FFF7FEFF 		bl	chSchReadyI
 398              	.L16:
 399              		.loc 6 99 0
ARM GAS  /tmp/ccN8vwv5.s 			page 8


 400 0052 0C20     		movs	r0, #12
 401 0054 FFF7FEFF 		bl	chSchGoSleepS
 402              		.loc 6 100 0
 403 0058 039B     		ldr	r3, [sp, #12]
 404 005a 5B6A     		ldr	r3, [r3, #36]
 405 005c 0093     		str	r3, [sp]
 406              		.loc 6 101 0
 407 005e FFF7FEFF 		bl	chSysUnlock
 408              		.loc 6 103 0
 409 0062 009B     		ldr	r3, [sp]
 410              		.loc 6 104 0
 411 0064 1800     		movs	r0, r3
 412 0066 05B0     		add	sp, sp, #20
 413              		@ sp needed
 414 0068 00BD     		pop	{pc}
 415              	.L19:
 416 006a C046     		.align	2
 417              	.L18:
 418 006c 00000000 		.word	ch
 419 0070 00000000 		.word	__func__.5698
 420              		.cfi_endproc
 421              	.LFE152:
 422              		.size	chMsgSend, .-chMsgSend
 423              		.section	.text.chMsgWait,"ax",%progbits
 424              		.align	1
 425              		.p2align 4,,15
 426              		.global	chMsgWait
 427              		.syntax unified
 428              		.code	16
 429              		.thumb_func
 430              		.fpu softvfp
 431              		.type	chMsgWait, %function
 432              	chMsgWait:
 433              	.LFB153:
 434              		.loc 6 120 0
 435              		.cfi_startproc
 436              		@ args = 0, pretend = 0, frame = 8
 437              		@ frame_needed = 0, uses_anonymous_args = 0
 438 0000 00B5     		push	{lr}
 439              		.cfi_def_cfa_offset 4
 440              		.cfi_offset 14, -4
 441 0002 83B0     		sub	sp, sp, #12
 442              		.cfi_def_cfa_offset 16
 443              		.loc 6 123 0
 444 0004 FFF7FEFF 		bl	chSysLock
 445              		.loc 6 124 0
 446 0008 104B     		ldr	r3, .L23
 447 000a 9B69     		ldr	r3, [r3, #24]
 448 000c 1800     		movs	r0, r3
 449 000e FFF7FEFF 		bl	chMsgIsPendingI
 450 0012 0300     		movs	r3, r0
 451 0014 1A00     		movs	r2, r3
 452 0016 0123     		movs	r3, #1
 453 0018 5340     		eors	r3, r2
 454 001a DBB2     		uxtb	r3, r3
 455 001c 002B     		cmp	r3, #0
 456 001e 02D0     		beq	.L21
ARM GAS  /tmp/ccN8vwv5.s 			page 9


 457              		.loc 6 125 0
 458 0020 0E20     		movs	r0, #14
 459 0022 FFF7FEFF 		bl	chSchGoSleepS
 460              	.L21:
 461              		.loc 6 127 0
 462 0026 094B     		ldr	r3, .L23
 463 0028 9B69     		ldr	r3, [r3, #24]
 464 002a 2C33     		adds	r3, r3, #44
 465 002c 1800     		movs	r0, r3
 466 002e FFF7FEFF 		bl	queue_fifo_remove
 467 0032 0300     		movs	r3, r0
 468 0034 0193     		str	r3, [sp, #4]
 469              		.loc 6 128 0
 470 0036 019B     		ldr	r3, [sp, #4]
 471 0038 2022     		movs	r2, #32
 472 003a 0D21     		movs	r1, #13
 473 003c 9954     		strb	r1, [r3, r2]
 474              		.loc 6 129 0
 475 003e FFF7FEFF 		bl	chSysUnlock
 476              		.loc 6 131 0
 477 0042 019B     		ldr	r3, [sp, #4]
 478              		.loc 6 132 0
 479 0044 1800     		movs	r0, r3
 480 0046 03B0     		add	sp, sp, #12
 481              		@ sp needed
 482 0048 00BD     		pop	{pc}
 483              	.L24:
 484 004a C046     		.align	2
 485              	.L23:
 486 004c 00000000 		.word	ch
 487              		.cfi_endproc
 488              	.LFE153:
 489              		.size	chMsgWait, .-chMsgWait
 490              		.section	.text.chMsgRelease,"ax",%progbits
 491              		.align	1
 492              		.p2align 4,,15
 493              		.global	chMsgRelease
 494              		.syntax unified
 495              		.code	16
 496              		.thumb_func
 497              		.fpu softvfp
 498              		.type	chMsgRelease, %function
 499              	chMsgRelease:
 500              	.LFB154:
 501              		.loc 6 144 0
 502              		.cfi_startproc
 503              		@ args = 0, pretend = 0, frame = 8
 504              		@ frame_needed = 0, uses_anonymous_args = 0
 505 0000 00B5     		push	{lr}
 506              		.cfi_def_cfa_offset 4
 507              		.cfi_offset 14, -4
 508 0002 83B0     		sub	sp, sp, #12
 509              		.cfi_def_cfa_offset 16
 510 0004 0190     		str	r0, [sp, #4]
 511 0006 0091     		str	r1, [sp]
 512              		.loc 6 146 0
 513 0008 FFF7FEFF 		bl	chSysLock
ARM GAS  /tmp/ccN8vwv5.s 			page 10


 514              		.loc 6 147 0
 515 000c 019B     		ldr	r3, [sp, #4]
 516 000e 2022     		movs	r2, #32
 517 0010 9B5C     		ldrb	r3, [r3, r2]
 518 0012 0D2B     		cmp	r3, #13
 519 0014 03D0     		beq	.L26
 520              		.loc 6 147 0 is_stmt 0 discriminator 2
 521 0016 074B     		ldr	r3, .L27
 522 0018 1800     		movs	r0, r3
 523 001a FFF7FEFF 		bl	chSysHalt
 524              	.L26:
 525              		.loc 6 148 0 is_stmt 1
 526 001e 009A     		ldr	r2, [sp]
 527 0020 019B     		ldr	r3, [sp, #4]
 528 0022 1100     		movs	r1, r2
 529 0024 1800     		movs	r0, r3
 530 0026 FFF7FEFF 		bl	chMsgReleaseS
 531              		.loc 6 149 0
 532 002a FFF7FEFF 		bl	chSysUnlock
 533              		.loc 6 150 0
 534 002e C046     		nop
 535 0030 03B0     		add	sp, sp, #12
 536              		@ sp needed
 537 0032 00BD     		pop	{pc}
 538              	.L28:
 539              		.align	2
 540              	.L27:
 541 0034 00000000 		.word	__func__.5707
 542              		.cfi_endproc
 543              	.LFE154:
 544              		.size	chMsgRelease, .-chMsgRelease
 545              		.section	.rodata.__func__.5698,"a",%progbits
 546              		.align	2
 547              		.type	__func__.5698, %object
 548              		.size	__func__.5698, 10
 549              	__func__.5698:
 550 0000 63684D73 		.ascii	"chMsgSend\000"
 550      6753656E 
 550      6400
 551              		.section	.rodata.__func__.4993,"a",%progbits
 552              		.align	2
 553              		.type	__func__.4993, %object
 554              		.size	__func__.4993, 12
 555              	__func__.4993:
 556 0000 63685379 		.ascii	"chSysUnlock\000"
 556      73556E6C 
 556      6F636B00 
 557              		.section	.rodata.__func__.5707,"a",%progbits
 558              		.align	2
 559              		.type	__func__.5707, %object
 560              		.size	__func__.5707, 13
 561              	__func__.5707:
 562 0000 63684D73 		.ascii	"chMsgRelease\000"
 562      6752656C 
 562      65617365 
 562      00
 563              		.text
ARM GAS  /tmp/ccN8vwv5.s 			page 11


 564              	.Letext0:
 565              		.file 7 "/home/felix/opt/gcc-arm-none-eabi-6-2017-q1-update/arm-none-eabi/include/machine/_default
 566              		.file 8 "/home/felix/opt/gcc-arm-none-eabi-6-2017-q1-update/arm-none-eabi/include/sys/_stdint.h"
 567              		.file 9 "ChibiOS/os/rt/ports/ARMCMx/compilers/GCC/chtypes.h"
 568              		.file 10 "ChibiOS/os/rt/include/chsystypes.h"
 569              		.file 11 "ChibiOS/os/rt/ports/ARMCMx/chcore.h"
 570              		.file 12 "ChibiOS/os/rt/include/chdebug.h"
 571              		.file 13 "ChibiOS/os/rt/include/chsem.h"
 572              		.file 14 "ChibiOS/os/rt/include/chmtx.h"
 573              		.file 15 "ChibiOS/os/rt/include/chregistry.h"
 574              		.file 16 "ChibiOS/os/ext/CMSIS/ST/STM32F0xx/system_stm32f0xx.h"