ARM GAS  /tmp/ccYcLGGQ.s 			page 1


   1              		.cpu cortex-m0
   2              		.eabi_attribute 20, 1
   3              		.eabi_attribute 21, 1
   4              		.eabi_attribute 23, 3
   5              		.eabi_attribute 24, 1
   6              		.eabi_attribute 25, 1
   7              		.eabi_attribute 26, 1
   8              		.eabi_attribute 30, 6
   9              		.eabi_attribute 34, 0
  10              		.eabi_attribute 18, 4
  11              		.file	"chregistry.c"
  12              		.text
  13              	.Ltext0:
  14              		.cfi_sections	.debug_frame
  15              		.section	.text.port_lock,"ax",%progbits
  16              		.align	1
  17              		.p2align 4,,15
  18              		.syntax unified
  19              		.code	16
  20              		.thumb_func
  21              		.fpu softvfp
  22              		.type	port_lock, %function
  23              	port_lock:
  24              	.LFB38:
  25              		.file 1 "ChibiOS/os/rt/ports/ARMCMx/chcore_v6m.h"
  26              		.loc 1 330 0
  27              		.cfi_startproc
  28              		@ args = 0, pretend = 0, frame = 0
  29              		@ frame_needed = 0, uses_anonymous_args = 0
  30              		@ link register save eliminated.
  31              	.LBB6:
  32              	.LBB7:
  33              		.file 2 "ChibiOS/os/ext/CMSIS/include/core_cmFunc.h"
  34              		.loc 2 344 0
  35              		.syntax divided
  36              	@ 344 "ChibiOS/os/ext/CMSIS/include/core_cmFunc.h" 1
  37 0000 72B6     		cpsid i
  38              	@ 0 "" 2
  39              		.thumb
  40              		.syntax unified
  41              	.LBE7:
  42              	.LBE6:
  43              		.loc 1 333 0
  44 0002 C046     		nop
  45              		@ sp needed
  46 0004 7047     		bx	lr
  47              		.cfi_endproc
  48              	.LFE38:
  49              		.size	port_lock, .-port_lock
  50 0006 C046     		.section	.text.port_unlock,"ax",%progbits
  51              		.align	1
  52              		.p2align 4,,15
  53              		.syntax unified
  54              		.code	16
  55              		.thumb_func
  56              		.fpu softvfp
  57              		.type	port_unlock, %function
ARM GAS  /tmp/ccYcLGGQ.s 			page 2


  58              	port_unlock:
  59              	.LFB39:
  60              		.loc 1 339 0
  61              		.cfi_startproc
  62              		@ args = 0, pretend = 0, frame = 0
  63              		@ frame_needed = 0, uses_anonymous_args = 0
  64              		@ link register save eliminated.
  65              	.LBB8:
  66              	.LBB9:
  67              		.loc 2 333 0
  68              		.syntax divided
  69              	@ 333 "ChibiOS/os/ext/CMSIS/include/core_cmFunc.h" 1
  70 0000 62B6     		cpsie i
  71              	@ 0 "" 2
  72              		.thumb
  73              		.syntax unified
  74              	.LBE9:
  75              	.LBE8:
  76              		.loc 1 342 0
  77 0002 C046     		nop
  78              		@ sp needed
  79 0004 7047     		bx	lr
  80              		.cfi_endproc
  81              	.LFE39:
  82              		.size	port_unlock, .-port_unlock
  83 0006 C046     		.section	.text.chSysLock,"ax",%progbits
  84              		.align	1
  85              		.p2align 4,,15
  86              		.syntax unified
  87              		.code	16
  88              		.thumb_func
  89              		.fpu softvfp
  90              		.type	chSysLock, %function
  91              	chSysLock:
  92              	.LFB77:
  93              		.file 3 "ChibiOS/os/rt/include/chsys.h"
  94              		.loc 3 346 0
  95              		.cfi_startproc
  96              		@ args = 0, pretend = 0, frame = 0
  97              		@ frame_needed = 0, uses_anonymous_args = 0
  98 0000 10B5     		push	{r4, lr}
  99              		.cfi_def_cfa_offset 8
 100              		.cfi_offset 4, -8
 101              		.cfi_offset 14, -4
 102              		.loc 3 348 0
 103 0002 FFF7FEFF 		bl	port_lock
 104              		.loc 3 350 0
 105 0006 FFF7FEFF 		bl	_dbg_check_lock
 106              		.loc 3 351 0
 107 000a C046     		nop
 108              		@ sp needed
 109 000c 10BD     		pop	{r4, pc}
 110              		.cfi_endproc
 111              	.LFE77:
 112              		.size	chSysLock, .-chSysLock
 113 000e C046     		.section	.text.chSysUnlock,"ax",%progbits
 114              		.align	1
ARM GAS  /tmp/ccYcLGGQ.s 			page 3


 115              		.p2align 4,,15
 116              		.syntax unified
 117              		.code	16
 118              		.thumb_func
 119              		.fpu softvfp
 120              		.type	chSysUnlock, %function
 121              	chSysUnlock:
 122              	.LFB78:
 123              		.loc 3 358 0
 124              		.cfi_startproc
 125              		@ args = 0, pretend = 0, frame = 0
 126              		@ frame_needed = 0, uses_anonymous_args = 0
 127 0000 10B5     		push	{r4, lr}
 128              		.cfi_def_cfa_offset 8
 129              		.cfi_offset 4, -8
 130              		.cfi_offset 14, -4
 131              		.loc 3 360 0
 132 0002 FFF7FEFF 		bl	_dbg_check_unlock
 133              		.loc 3 367 0
 134 0006 0A4B     		ldr	r3, .L6
 135 0008 1A68     		ldr	r2, [r3]
 136 000a 094B     		ldr	r3, .L6
 137 000c 9A42     		cmp	r2, r3
 138 000e 0BD0     		beq	.L5
 139              		.loc 3 367 0 is_stmt 0 discriminator 2
 140 0010 074B     		ldr	r3, .L6
 141 0012 9B69     		ldr	r3, [r3, #24]
 142 0014 9A68     		ldr	r2, [r3, #8]
 143 0016 064B     		ldr	r3, .L6
 144 0018 1B68     		ldr	r3, [r3]
 145 001a 9B68     		ldr	r3, [r3, #8]
 146 001c 9A42     		cmp	r2, r3
 147 001e 03D2     		bcs	.L5
 148              		.loc 3 367 0 discriminator 3
 149 0020 044B     		ldr	r3, .L6+4
 150 0022 1800     		movs	r0, r3
 151 0024 FFF7FEFF 		bl	chSysHalt
 152              	.L5:
 153              		.loc 3 371 0 is_stmt 1
 154 0028 FFF7FEFF 		bl	port_unlock
 155              		.loc 3 372 0
 156 002c C046     		nop
 157              		@ sp needed
 158 002e 10BD     		pop	{r4, pc}
 159              	.L7:
 160              		.align	2
 161              	.L6:
 162 0030 00000000 		.word	ch
 163 0034 00000000 		.word	__func__.4993
 164              		.cfi_endproc
 165              	.LFE78:
 166              		.size	chSysUnlock, .-chSysUnlock
 167              		.global	ch_debug
 168              		.section	.rodata.ch_debug,"a",%progbits
 169              		.align	2
 170              		.type	ch_debug, %object
 171              		.size	ch_debug, 22
ARM GAS  /tmp/ccYcLGGQ.s 			page 4


 172              	ch_debug:
 173 0000 6D       		.byte	109
 174 0001 61       		.byte	97
 175 0002 69       		.byte	105
 176 0003 6E       		.byte	110
 177 0004 00       		.byte	0
 178 0005 16       		.byte	22
 179 0006 8018     		.short	6272
 180 0008 04       		.byte	4
 181 0009 02       		.byte	2
 182 000a 48       		.byte	72
 183 000b 08       		.byte	8
 184 000c 0C       		.byte	12
 185 000d 10       		.byte	16
 186 000e 14       		.byte	20
 187 000f 18       		.byte	24
 188 0010 1C       		.byte	28
 189 0011 20       		.byte	32
 190 0012 21       		.byte	33
 191 0013 22       		.byte	34
 192 0014 00       		.byte	0
 193 0015 00       		.byte	0
 194              		.section	.text.chRegFirstThread,"ax",%progbits
 195              		.align	1
 196              		.p2align 4,,15
 197              		.global	chRegFirstThread
 198              		.syntax unified
 199              		.code	16
 200              		.thumb_func
 201              		.fpu softvfp
 202              		.type	chRegFirstThread, %function
 203              	chRegFirstThread:
 204              	.LFB152:
 205              		.file 4 "ChibiOS/os/rt/src/chregistry.c"
 206              		.loc 4 131 0
 207              		.cfi_startproc
 208              		@ args = 0, pretend = 0, frame = 8
 209              		@ frame_needed = 0, uses_anonymous_args = 0
 210 0000 00B5     		push	{lr}
 211              		.cfi_def_cfa_offset 4
 212              		.cfi_offset 14, -4
 213 0002 83B0     		sub	sp, sp, #12
 214              		.cfi_def_cfa_offset 16
 215              		.loc 4 134 0
 216 0004 FFF7FEFF 		bl	chSysLock
 217              		.loc 4 135 0
 218 0008 084B     		ldr	r3, .L10
 219 000a 1B69     		ldr	r3, [r3, #16]
 220 000c 0193     		str	r3, [sp, #4]
 221              		.loc 4 137 0
 222 000e 019B     		ldr	r3, [sp, #4]
 223 0010 2222     		movs	r2, #34
 224 0012 9B5C     		ldrb	r3, [r3, r2]
 225 0014 0133     		adds	r3, r3, #1
 226 0016 D9B2     		uxtb	r1, r3
 227 0018 019B     		ldr	r3, [sp, #4]
 228 001a 2222     		movs	r2, #34
ARM GAS  /tmp/ccYcLGGQ.s 			page 5


 229 001c 9954     		strb	r1, [r3, r2]
 230              		.loc 4 139 0
 231 001e FFF7FEFF 		bl	chSysUnlock
 232              		.loc 4 141 0
 233 0022 019B     		ldr	r3, [sp, #4]
 234              		.loc 4 142 0
 235 0024 1800     		movs	r0, r3
 236 0026 03B0     		add	sp, sp, #12
 237              		@ sp needed
 238 0028 00BD     		pop	{pc}
 239              	.L11:
 240 002a C046     		.align	2
 241              	.L10:
 242 002c 00000000 		.word	ch
 243              		.cfi_endproc
 244              	.LFE152:
 245              		.size	chRegFirstThread, .-chRegFirstThread
 246              		.section	.text.chRegNextThread,"ax",%progbits
 247              		.align	1
 248              		.p2align 4,,15
 249              		.global	chRegNextThread
 250              		.syntax unified
 251              		.code	16
 252              		.thumb_func
 253              		.fpu softvfp
 254              		.type	chRegNextThread, %function
 255              	chRegNextThread:
 256              	.LFB153:
 257              		.loc 4 155 0
 258              		.cfi_startproc
 259              		@ args = 0, pretend = 0, frame = 16
 260              		@ frame_needed = 0, uses_anonymous_args = 0
 261 0000 00B5     		push	{lr}
 262              		.cfi_def_cfa_offset 4
 263              		.cfi_offset 14, -4
 264 0002 85B0     		sub	sp, sp, #20
 265              		.cfi_def_cfa_offset 24
 266 0004 0190     		str	r0, [sp, #4]
 267              		.loc 4 158 0
 268 0006 FFF7FEFF 		bl	chSysLock
 269              		.loc 4 159 0
 270 000a 019B     		ldr	r3, [sp, #4]
 271 000c 1B69     		ldr	r3, [r3, #16]
 272 000e 0393     		str	r3, [sp, #12]
 273              		.loc 4 161 0
 274 0010 039A     		ldr	r2, [sp, #12]
 275 0012 104B     		ldr	r3, .L17
 276 0014 9A42     		cmp	r2, r3
 277 0016 02D1     		bne	.L13
 278              		.loc 4 163 0
 279 0018 0023     		movs	r3, #0
 280 001a 0393     		str	r3, [sp, #12]
 281 001c 10E0     		b	.L14
 282              	.L13:
 283              		.loc 4 167 0 discriminator 1
 284 001e 039B     		ldr	r3, [sp, #12]
 285 0020 2222     		movs	r2, #34
ARM GAS  /tmp/ccYcLGGQ.s 			page 6


 286 0022 9B5C     		ldrb	r3, [r3, r2]
 287 0024 FF2B     		cmp	r3, #255
 288 0026 03D1     		bne	.L15
 289              		.loc 4 167 0 is_stmt 0 discriminator 2
 290 0028 0B4B     		ldr	r3, .L17+4
 291 002a 1800     		movs	r0, r3
 292 002c FFF7FEFF 		bl	chSysHalt
 293              	.L15:
 294              		.loc 4 168 0 is_stmt 1
 295 0030 039B     		ldr	r3, [sp, #12]
 296 0032 2222     		movs	r2, #34
 297 0034 9B5C     		ldrb	r3, [r3, r2]
 298 0036 0133     		adds	r3, r3, #1
 299 0038 D9B2     		uxtb	r1, r3
 300 003a 039B     		ldr	r3, [sp, #12]
 301 003c 2222     		movs	r2, #34
 302 003e 9954     		strb	r1, [r3, r2]
 303              	.L14:
 304              		.loc 4 171 0
 305 0040 FFF7FEFF 		bl	chSysUnlock
 306              		.loc 4 173 0
 307 0044 019B     		ldr	r3, [sp, #4]
 308 0046 1800     		movs	r0, r3
 309 0048 FFF7FEFF 		bl	chThdRelease
 310              		.loc 4 176 0
 311 004c 039B     		ldr	r3, [sp, #12]
 312              		.loc 4 177 0
 313 004e 1800     		movs	r0, r3
 314 0050 05B0     		add	sp, sp, #20
 315              		@ sp needed
 316 0052 00BD     		pop	{pc}
 317              	.L18:
 318              		.align	2
 319              	.L17:
 320 0054 00000000 		.word	ch
 321 0058 00000000 		.word	__func__.5702
 322              		.cfi_endproc
 323              	.LFE153:
 324              		.size	chRegNextThread, .-chRegNextThread
 325              		.section	.rodata.__func__.4993,"a",%progbits
 326              		.align	2
 327              		.type	__func__.4993, %object
 328              		.size	__func__.4993, 12
 329              	__func__.4993:
 330 0000 63685379 		.ascii	"chSysUnlock\000"
 330      73556E6C 
 330      6F636B00 
 331              		.section	.rodata.__func__.5702,"a",%progbits
 332              		.align	2
 333              		.type	__func__.5702, %object
 334              		.size	__func__.5702, 16
 335              	__func__.5702:
 336 0000 63685265 		.ascii	"chRegNextThread\000"
 336      674E6578 
 336      74546872 
 336      65616400 
 337              		.text
ARM GAS  /tmp/ccYcLGGQ.s 			page 7


 338              	.Letext0:
 339              		.file 5 "/home/felix/opt/gcc-arm-none-eabi-6-2017-q1-update/lib/gcc/arm-none-eabi/6.3.1/include/st
 340              		.file 6 "/home/felix/opt/gcc-arm-none-eabi-6-2017-q1-update/arm-none-eabi/include/machine/_default
 341              		.file 7 "/home/felix/opt/gcc-arm-none-eabi-6-2017-q1-update/arm-none-eabi/include/sys/_stdint.h"
 342              		.file 8 "ChibiOS/os/rt/ports/ARMCMx/compilers/GCC/chtypes.h"
 343              		.file 9 "ChibiOS/os/rt/include/chsystypes.h"
 344              		.file 10 "ChibiOS/os/rt/include/chschd.h"
 345              		.file 11 "ChibiOS/os/rt/ports/ARMCMx/chcore.h"
 346              		.file 12 "ChibiOS/os/rt/include/chdebug.h"
 347              		.file 13 "ChibiOS/os/rt/include/chsem.h"
 348              		.file 14 "ChibiOS/os/rt/include/chmtx.h"
 349              		.file 15 "ChibiOS/os/rt/include/chregistry.h"
 350              		.file 16 "ChibiOS/os/ext/CMSIS/ST/STM32F0xx/system_stm32f0xx.h"