ARM GAS  /tmp/cc4BC4YD.s 			page 1


   1              		.cpu cortex-m0
   2              		.eabi_attribute 20, 1
   3              		.eabi_attribute 21, 1
   4              		.eabi_attribute 23, 3
   5              		.eabi_attribute 24, 1
   6              		.eabi_attribute 25, 1
   7              		.eabi_attribute 26, 1
   8              		.eabi_attribute 30, 6
   9              		.eabi_attribute 34, 0
  10              		.eabi_attribute 18, 4
  11              		.file	"chschd.c"
  12              		.text
  13              	.Ltext0:
  14              		.cfi_sections	.debug_frame
  15              		.section	.text.port_lock,"ax",%progbits
  16              		.align	1
  17              		.p2align 4,,15
  18              		.syntax unified
  19              		.code	16
  20              		.thumb_func
  21              		.fpu softvfp
  22              		.type	port_lock, %function
  23              	port_lock:
  24              	.LFB38:
  25              		.file 1 "ChibiOS/os/rt/ports/ARMCMx/chcore_v6m.h"
  26              		.loc 1 330 0
  27              		.cfi_startproc
  28              		@ args = 0, pretend = 0, frame = 0
  29              		@ frame_needed = 0, uses_anonymous_args = 0
  30              		@ link register save eliminated.
  31              	.LBB19:
  32              	.LBB20:
  33              		.file 2 "ChibiOS/os/ext/CMSIS/include/core_cmFunc.h"
  34              		.loc 2 344 0
  35              		.syntax divided
  36              	@ 344 "ChibiOS/os/ext/CMSIS/include/core_cmFunc.h" 1
  37 0000 72B6     		cpsid i
  38              	@ 0 "" 2
  39              		.thumb
  40              		.syntax unified
  41              	.LBE20:
  42              	.LBE19:
  43              		.loc 1 333 0
  44 0002 C046     		nop
  45              		@ sp needed
  46 0004 7047     		bx	lr
  47              		.cfi_endproc
  48              	.LFE38:
  49              		.size	port_lock, .-port_lock
  50 0006 C046     		.section	.text.port_unlock,"ax",%progbits
  51              		.align	1
  52              		.p2align 4,,15
  53              		.syntax unified
  54              		.code	16
  55              		.thumb_func
  56              		.fpu softvfp
  57              		.type	port_unlock, %function
ARM GAS  /tmp/cc4BC4YD.s 			page 2


  58              	port_unlock:
  59              	.LFB39:
  60              		.loc 1 339 0
  61              		.cfi_startproc
  62              		@ args = 0, pretend = 0, frame = 0
  63              		@ frame_needed = 0, uses_anonymous_args = 0
  64              		@ link register save eliminated.
  65              	.LBB21:
  66              	.LBB22:
  67              		.loc 2 333 0
  68              		.syntax divided
  69              	@ 333 "ChibiOS/os/ext/CMSIS/include/core_cmFunc.h" 1
  70 0000 62B6     		cpsie i
  71              	@ 0 "" 2
  72              		.thumb
  73              		.syntax unified
  74              	.LBE22:
  75              	.LBE21:
  76              		.loc 1 342 0
  77 0002 C046     		nop
  78              		@ sp needed
  79 0004 7047     		bx	lr
  80              		.cfi_endproc
  81              	.LFE39:
  82              		.size	port_unlock, .-port_unlock
  83 0006 C046     		.section	.text.port_lock_from_isr,"ax",%progbits
  84              		.align	1
  85              		.p2align 4,,15
  86              		.syntax unified
  87              		.code	16
  88              		.thumb_func
  89              		.fpu softvfp
  90              		.type	port_lock_from_isr, %function
  91              	port_lock_from_isr:
  92              	.LFB40:
  93              		.loc 1 349 0
  94              		.cfi_startproc
  95              		@ args = 0, pretend = 0, frame = 0
  96              		@ frame_needed = 0, uses_anonymous_args = 0
  97 0000 10B5     		push	{r4, lr}
  98              		.cfi_def_cfa_offset 8
  99              		.cfi_offset 4, -8
 100              		.cfi_offset 14, -4
 101              		.loc 1 351 0
 102 0002 FFF7FEFF 		bl	port_lock
 103              		.loc 1 352 0
 104 0006 C046     		nop
 105              		@ sp needed
 106 0008 10BD     		pop	{r4, pc}
 107              		.cfi_endproc
 108              	.LFE40:
 109              		.size	port_lock_from_isr, .-port_lock_from_isr
 110 000a C046     		.section	.text.port_unlock_from_isr,"ax",%progbits
 111              		.align	1
 112              		.p2align 4,,15
 113              		.syntax unified
 114              		.code	16
ARM GAS  /tmp/cc4BC4YD.s 			page 3


 115              		.thumb_func
 116              		.fpu softvfp
 117              		.type	port_unlock_from_isr, %function
 118              	port_unlock_from_isr:
 119              	.LFB41:
 120              		.loc 1 359 0
 121              		.cfi_startproc
 122              		@ args = 0, pretend = 0, frame = 0
 123              		@ frame_needed = 0, uses_anonymous_args = 0
 124 0000 10B5     		push	{r4, lr}
 125              		.cfi_def_cfa_offset 8
 126              		.cfi_offset 4, -8
 127              		.cfi_offset 14, -4
 128              		.loc 1 361 0
 129 0002 FFF7FEFF 		bl	port_unlock
 130              		.loc 1 362 0
 131 0006 C046     		nop
 132              		@ sp needed
 133 0008 10BD     		pop	{r4, pc}
 134              		.cfi_endproc
 135              	.LFE41:
 136              		.size	port_unlock_from_isr, .-port_unlock_from_isr
 137 000a C046     		.section	.text.queue_init,"ax",%progbits
 138              		.align	1
 139              		.p2align 4,,15
 140              		.syntax unified
 141              		.code	16
 142              		.thumb_func
 143              		.fpu softvfp
 144              		.type	queue_init, %function
 145              	queue_init:
 146              	.LFB60:
 147              		.file 3 "ChibiOS/os/rt/include/chschd.h"
 148              		.loc 3 602 0
 149              		.cfi_startproc
 150              		@ args = 0, pretend = 0, frame = 8
 151              		@ frame_needed = 0, uses_anonymous_args = 0
 152              		@ link register save eliminated.
 153 0000 82B0     		sub	sp, sp, #8
 154              		.cfi_def_cfa_offset 8
 155 0002 0190     		str	r0, [sp, #4]
 156              		.loc 3 604 0
 157 0004 019B     		ldr	r3, [sp, #4]
 158 0006 019A     		ldr	r2, [sp, #4]
 159 0008 1A60     		str	r2, [r3]
 160              		.loc 3 605 0
 161 000a 019B     		ldr	r3, [sp, #4]
 162 000c 019A     		ldr	r2, [sp, #4]
 163 000e 5A60     		str	r2, [r3, #4]
 164              		.loc 3 606 0
 165 0010 C046     		nop
 166 0012 02B0     		add	sp, sp, #8
 167              		@ sp needed
 168 0014 7047     		bx	lr
 169              		.cfi_endproc
 170              	.LFE60:
 171              		.size	queue_init, .-queue_init
ARM GAS  /tmp/cc4BC4YD.s 			page 4


 172 0016 C046     		.section	.text.queue_fifo_remove,"ax",%progbits
 173              		.align	1
 174              		.p2align 4,,15
 175              		.syntax unified
 176              		.code	16
 177              		.thumb_func
 178              		.fpu softvfp
 179              		.type	queue_fifo_remove, %function
 180              	queue_fifo_remove:
 181              	.LFB67:
 182              		.loc 3 671 0
 183              		.cfi_startproc
 184              		@ args = 0, pretend = 0, frame = 16
 185              		@ frame_needed = 0, uses_anonymous_args = 0
 186              		@ link register save eliminated.
 187 0000 84B0     		sub	sp, sp, #16
 188              		.cfi_def_cfa_offset 16
 189 0002 0190     		str	r0, [sp, #4]
 190              		.loc 3 672 0
 191 0004 019B     		ldr	r3, [sp, #4]
 192 0006 1B68     		ldr	r3, [r3]
 193 0008 0393     		str	r3, [sp, #12]
 194              		.loc 3 674 0
 195 000a 039B     		ldr	r3, [sp, #12]
 196 000c 1A68     		ldr	r2, [r3]
 197 000e 019B     		ldr	r3, [sp, #4]
 198 0010 1A60     		str	r2, [r3]
 199              		.loc 3 675 0
 200 0012 019B     		ldr	r3, [sp, #4]
 201 0014 1B68     		ldr	r3, [r3]
 202 0016 019A     		ldr	r2, [sp, #4]
 203 0018 5A60     		str	r2, [r3, #4]
 204              		.loc 3 677 0
 205 001a 039B     		ldr	r3, [sp, #12]
 206              		.loc 3 678 0
 207 001c 1800     		movs	r0, r3
 208 001e 04B0     		add	sp, sp, #16
 209              		@ sp needed
 210 0020 7047     		bx	lr
 211              		.cfi_endproc
 212              	.LFE67:
 213              		.size	queue_fifo_remove, .-queue_fifo_remove
 214 0022 C046     		.section	.text.queue_dequeue,"ax",%progbits
 215              		.align	1
 216              		.p2align 4,,15
 217              		.syntax unified
 218              		.code	16
 219              		.thumb_func
 220              		.fpu softvfp
 221              		.type	queue_dequeue, %function
 222              	queue_dequeue:
 223              	.LFB69:
 224              		.loc 3 689 0
 225              		.cfi_startproc
 226              		@ args = 0, pretend = 0, frame = 8
 227              		@ frame_needed = 0, uses_anonymous_args = 0
 228              		@ link register save eliminated.
ARM GAS  /tmp/cc4BC4YD.s 			page 5


 229 0000 82B0     		sub	sp, sp, #8
 230              		.cfi_def_cfa_offset 8
 231 0002 0190     		str	r0, [sp, #4]
 232              		.loc 3 691 0
 233 0004 019B     		ldr	r3, [sp, #4]
 234 0006 5B68     		ldr	r3, [r3, #4]
 235 0008 019A     		ldr	r2, [sp, #4]
 236 000a 1268     		ldr	r2, [r2]
 237 000c 1A60     		str	r2, [r3]
 238              		.loc 3 692 0
 239 000e 019B     		ldr	r3, [sp, #4]
 240 0010 1B68     		ldr	r3, [r3]
 241 0012 019A     		ldr	r2, [sp, #4]
 242 0014 5268     		ldr	r2, [r2, #4]
 243 0016 5A60     		str	r2, [r3, #4]
 244              		.loc 3 694 0
 245 0018 019B     		ldr	r3, [sp, #4]
 246              		.loc 3 695 0
 247 001a 1800     		movs	r0, r3
 248 001c 02B0     		add	sp, sp, #8
 249              		@ sp needed
 250 001e 7047     		bx	lr
 251              		.cfi_endproc
 252              	.LFE69:
 253              		.size	queue_dequeue, .-queue_dequeue
 254              		.section	.text.chSchIsRescRequiredI,"ax",%progbits
 255              		.align	1
 256              		.p2align 4,,15
 257              		.syntax unified
 258              		.code	16
 259              		.thumb_func
 260              		.fpu softvfp
 261              		.type	chSchIsRescRequiredI, %function
 262              	chSchIsRescRequiredI:
 263              	.LFB70:
 264              		.loc 3 709 0
 265              		.cfi_startproc
 266              		@ args = 0, pretend = 0, frame = 0
 267              		@ frame_needed = 0, uses_anonymous_args = 0
 268 0000 10B5     		push	{r4, lr}
 269              		.cfi_def_cfa_offset 8
 270              		.cfi_offset 4, -8
 271              		.cfi_offset 14, -4
 272              		.loc 3 711 0
 273 0002 FFF7FEFF 		bl	chDbgCheckClassI
 274              		.loc 3 713 0
 275 0006 064B     		ldr	r3, .L12
 276 0008 1B68     		ldr	r3, [r3]
 277 000a 9A68     		ldr	r2, [r3, #8]
 278 000c 044B     		ldr	r3, .L12
 279 000e 9B69     		ldr	r3, [r3, #24]
 280 0010 9B68     		ldr	r3, [r3, #8]
 281 0012 9342     		cmp	r3, r2
 282 0014 9B41     		sbcs	r3, r3, r3
 283 0016 5B42     		rsbs	r3, r3, #0
 284 0018 DBB2     		uxtb	r3, r3
 285              		.loc 3 714 0
ARM GAS  /tmp/cc4BC4YD.s 			page 6


 286 001a 1800     		movs	r0, r3
 287              		@ sp needed
 288 001c 10BD     		pop	{r4, pc}
 289              	.L13:
 290 001e C046     		.align	2
 291              	.L12:
 292 0020 00000000 		.word	ch
 293              		.cfi_endproc
 294              	.LFE70:
 295              		.size	chSchIsRescRequiredI, .-chSchIsRescRequiredI
 296              		.section	.text.chSysLockFromISR,"ax",%progbits
 297              		.align	1
 298              		.p2align 4,,15
 299              		.syntax unified
 300              		.code	16
 301              		.thumb_func
 302              		.fpu softvfp
 303              		.type	chSysLockFromISR, %function
 304              	chSysLockFromISR:
 305              	.LFB79:
 306              		.file 4 "ChibiOS/os/rt/include/chsys.h"
 307              		.loc 4 386 0
 308              		.cfi_startproc
 309              		@ args = 0, pretend = 0, frame = 0
 310              		@ frame_needed = 0, uses_anonymous_args = 0
 311 0000 10B5     		push	{r4, lr}
 312              		.cfi_def_cfa_offset 8
 313              		.cfi_offset 4, -8
 314              		.cfi_offset 14, -4
 315              		.loc 4 388 0
 316 0002 FFF7FEFF 		bl	port_lock_from_isr
 317              		.loc 4 390 0
 318 0006 FFF7FEFF 		bl	_dbg_check_lock_from_isr
 319              		.loc 4 391 0
 320 000a C046     		nop
 321              		@ sp needed
 322 000c 10BD     		pop	{r4, pc}
 323              		.cfi_endproc
 324              	.LFE79:
 325              		.size	chSysLockFromISR, .-chSysLockFromISR
 326 000e C046     		.section	.text.chSysUnlockFromISR,"ax",%progbits
 327              		.align	1
 328              		.p2align 4,,15
 329              		.syntax unified
 330              		.code	16
 331              		.thumb_func
 332              		.fpu softvfp
 333              		.type	chSysUnlockFromISR, %function
 334              	chSysUnlockFromISR:
 335              	.LFB80:
 336              		.loc 4 406 0
 337              		.cfi_startproc
 338              		@ args = 0, pretend = 0, frame = 0
 339              		@ frame_needed = 0, uses_anonymous_args = 0
 340 0000 10B5     		push	{r4, lr}
 341              		.cfi_def_cfa_offset 8
 342              		.cfi_offset 4, -8
ARM GAS  /tmp/cc4BC4YD.s 			page 7


 343              		.cfi_offset 14, -4
 344              		.loc 4 408 0
 345 0002 FFF7FEFF 		bl	_dbg_check_unlock_from_isr
 346              		.loc 4 410 0
 347 0006 FFF7FEFF 		bl	port_unlock_from_isr
 348              		.loc 4 411 0
 349 000a C046     		nop
 350              		@ sp needed
 351 000c 10BD     		pop	{r4, pc}
 352              		.cfi_endproc
 353              	.LFE80:
 354              		.size	chSysUnlockFromISR, .-chSysUnlockFromISR
 355 000e C046     		.section	.text.chVTIsArmedI,"ax",%progbits
 356              		.align	1
 357              		.p2align 4,,15
 358              		.syntax unified
 359              		.code	16
 360              		.thumb_func
 361              		.fpu softvfp
 362              		.type	chVTIsArmedI, %function
 363              	chVTIsArmedI:
 364              	.LFB92:
 365              		.file 5 "ChibiOS/os/rt/include/chvt.h"
 366              		.loc 5 373 0
 367              		.cfi_startproc
 368              		@ args = 0, pretend = 0, frame = 8
 369              		@ frame_needed = 0, uses_anonymous_args = 0
 370 0000 00B5     		push	{lr}
 371              		.cfi_def_cfa_offset 4
 372              		.cfi_offset 14, -4
 373 0002 83B0     		sub	sp, sp, #12
 374              		.cfi_def_cfa_offset 16
 375 0004 0190     		str	r0, [sp, #4]
 376              		.loc 5 375 0
 377 0006 FFF7FEFF 		bl	chDbgCheckClassI
 378              		.loc 5 377 0
 379 000a 019B     		ldr	r3, [sp, #4]
 380 000c DB68     		ldr	r3, [r3, #12]
 381 000e 5A1E     		subs	r2, r3, #1
 382 0010 9341     		sbcs	r3, r3, r2
 383 0012 DBB2     		uxtb	r3, r3
 384              		.loc 5 378 0
 385 0014 1800     		movs	r0, r3
 386 0016 03B0     		add	sp, sp, #12
 387              		@ sp needed
 388 0018 00BD     		pop	{pc}
 389              		.cfi_endproc
 390              	.LFE92:
 391              		.size	chVTIsArmedI, .-chVTIsArmedI
 392 001a C046     		.section	.text.chSemFastSignalI,"ax",%progbits
 393              		.align	1
 394              		.p2align 4,,15
 395              		.syntax unified
 396              		.code	16
 397              		.thumb_func
 398              		.fpu softvfp
 399              		.type	chSemFastSignalI, %function
ARM GAS  /tmp/cc4BC4YD.s 			page 8


 400              	chSemFastSignalI:
 401              	.LFB112:
 402              		.file 6 "ChibiOS/os/rt/include/chsem.h"
 403              		.loc 6 134 0
 404              		.cfi_startproc
 405              		@ args = 0, pretend = 0, frame = 8
 406              		@ frame_needed = 0, uses_anonymous_args = 0
 407 0000 00B5     		push	{lr}
 408              		.cfi_def_cfa_offset 4
 409              		.cfi_offset 14, -4
 410 0002 83B0     		sub	sp, sp, #12
 411              		.cfi_def_cfa_offset 16
 412 0004 0190     		str	r0, [sp, #4]
 413              		.loc 6 136 0
 414 0006 FFF7FEFF 		bl	chDbgCheckClassI
 415              		.loc 6 138 0
 416 000a 019B     		ldr	r3, [sp, #4]
 417 000c 9B68     		ldr	r3, [r3, #8]
 418 000e 5A1C     		adds	r2, r3, #1
 419 0010 019B     		ldr	r3, [sp, #4]
 420 0012 9A60     		str	r2, [r3, #8]
 421              		.loc 6 139 0
 422 0014 C046     		nop
 423 0016 03B0     		add	sp, sp, #12
 424              		@ sp needed
 425 0018 00BD     		pop	{pc}
 426              		.cfi_endproc
 427              	.LFE112:
 428              		.size	chSemFastSignalI, .-chSemFastSignalI
 429              		.comm	ch,1384,8
 430 001a C046     		.section	.text._scheduler_init,"ax",%progbits
 431              		.align	1
 432              		.p2align 4,,15
 433              		.global	_scheduler_init
 434              		.syntax unified
 435              		.code	16
 436              		.thumb_func
 437              		.fpu softvfp
 438              		.type	_scheduler_init, %function
 439              	_scheduler_init:
 440              	.LFB152:
 441              		.file 7 "ChibiOS/os/rt/src/chschd.c"
 442              		.loc 7 65 0
 443              		.cfi_startproc
 444              		@ args = 0, pretend = 0, frame = 0
 445              		@ frame_needed = 0, uses_anonymous_args = 0
 446 0000 10B5     		push	{r4, lr}
 447              		.cfi_def_cfa_offset 8
 448              		.cfi_offset 4, -8
 449              		.cfi_offset 14, -4
 450              		.loc 7 67 0
 451 0002 074B     		ldr	r3, .L20
 452 0004 1800     		movs	r0, r3
 453 0006 FFF7FEFF 		bl	queue_init
 454              		.loc 7 68 0
 455 000a 054B     		ldr	r3, .L20
 456 000c 0022     		movs	r2, #0
ARM GAS  /tmp/cc4BC4YD.s 			page 9


 457 000e 9A60     		str	r2, [r3, #8]
 458              		.loc 7 70 0
 459 0010 034B     		ldr	r3, .L20
 460 0012 034A     		ldr	r2, .L20
 461 0014 1A61     		str	r2, [r3, #16]
 462              		.loc 7 71 0
 463 0016 024B     		ldr	r3, .L20
 464 0018 014A     		ldr	r2, .L20
 465 001a 5A61     		str	r2, [r3, #20]
 466              		.loc 7 73 0
 467 001c C046     		nop
 468              		@ sp needed
 469 001e 10BD     		pop	{r4, pc}
 470              	.L21:
 471              		.align	2
 472              	.L20:
 473 0020 00000000 		.word	ch
 474              		.cfi_endproc
 475              	.LFE152:
 476              		.size	_scheduler_init, .-_scheduler_init
 477              		.section	.text.chSchReadyI,"ax",%progbits
 478              		.align	1
 479              		.p2align 4,,15
 480              		.global	chSchReadyI
 481              		.syntax unified
 482              		.code	16
 483              		.thumb_func
 484              		.fpu softvfp
 485              		.type	chSchReadyI, %function
 486              	chSchReadyI:
 487              	.LFB153:
 488              		.loc 7 218 0
 489              		.cfi_startproc
 490              		@ args = 0, pretend = 0, frame = 16
 491              		@ frame_needed = 0, uses_anonymous_args = 0
 492 0000 00B5     		push	{lr}
 493              		.cfi_def_cfa_offset 4
 494              		.cfi_offset 14, -4
 495 0002 85B0     		sub	sp, sp, #20
 496              		.cfi_def_cfa_offset 24
 497 0004 0190     		str	r0, [sp, #4]
 498              		.loc 7 221 0
 499 0006 FFF7FEFF 		bl	chDbgCheckClassI
 500              		.loc 7 222 0
 501 000a 019B     		ldr	r3, [sp, #4]
 502 000c 002B     		cmp	r3, #0
 503 000e 03D1     		bne	.L28
 504              		.loc 7 222 0 is_stmt 0 discriminator 2
 505 0010 194B     		ldr	r3, .L29
 506 0012 1800     		movs	r0, r3
 507 0014 FFF7FEFF 		bl	chSysHalt
 508              	.L28:
 509              		.loc 7 223 0 is_stmt 1 discriminator 1
 510 0018 019B     		ldr	r3, [sp, #4]
 511 001a 2022     		movs	r2, #32
 512 001c 9B5C     		ldrb	r3, [r3, r2]
 513 001e 002B     		cmp	r3, #0
ARM GAS  /tmp/cc4BC4YD.s 			page 10


 514 0020 04D0     		beq	.L24
 515              		.loc 7 223 0 is_stmt 0 discriminator 3
 516 0022 019B     		ldr	r3, [sp, #4]
 517 0024 2022     		movs	r2, #32
 518 0026 9B5C     		ldrb	r3, [r3, r2]
 519 0028 0F2B     		cmp	r3, #15
 520 002a 03D1     		bne	.L25
 521              	.L24:
 522              		.loc 7 223 0 discriminator 4
 523 002c 124B     		ldr	r3, .L29
 524 002e 1800     		movs	r0, r3
 525 0030 FFF7FEFF 		bl	chSysHalt
 526              	.L25:
 527              		.loc 7 227 0 is_stmt 1
 528 0034 019B     		ldr	r3, [sp, #4]
 529 0036 2022     		movs	r2, #32
 530 0038 0021     		movs	r1, #0
 531 003a 9954     		strb	r1, [r3, r2]
 532              		.loc 7 228 0
 533 003c 0F4B     		ldr	r3, .L29+4
 534 003e 0393     		str	r3, [sp, #12]
 535              	.L26:
 536              		.loc 7 230 0 discriminator 1
 537 0040 039B     		ldr	r3, [sp, #12]
 538 0042 1B68     		ldr	r3, [r3]
 539 0044 0393     		str	r3, [sp, #12]
 540              		.loc 7 231 0 discriminator 1
 541 0046 039B     		ldr	r3, [sp, #12]
 542 0048 9A68     		ldr	r2, [r3, #8]
 543 004a 019B     		ldr	r3, [sp, #4]
 544 004c 9B68     		ldr	r3, [r3, #8]
 545 004e 9A42     		cmp	r2, r3
 546 0050 F6D2     		bcs	.L26
 547              		.loc 7 233 0
 548 0052 019B     		ldr	r3, [sp, #4]
 549 0054 039A     		ldr	r2, [sp, #12]
 550 0056 1A60     		str	r2, [r3]
 551              		.loc 7 234 0
 552 0058 039B     		ldr	r3, [sp, #12]
 553 005a 5A68     		ldr	r2, [r3, #4]
 554 005c 019B     		ldr	r3, [sp, #4]
 555 005e 5A60     		str	r2, [r3, #4]
 556              		.loc 7 235 0
 557 0060 019B     		ldr	r3, [sp, #4]
 558 0062 5B68     		ldr	r3, [r3, #4]
 559 0064 019A     		ldr	r2, [sp, #4]
 560 0066 1A60     		str	r2, [r3]
 561              		.loc 7 236 0
 562 0068 039B     		ldr	r3, [sp, #12]
 563 006a 019A     		ldr	r2, [sp, #4]
 564 006c 5A60     		str	r2, [r3, #4]
 565              		.loc 7 238 0
 566 006e 019B     		ldr	r3, [sp, #4]
 567              		.loc 7 239 0
 568 0070 1800     		movs	r0, r3
 569 0072 05B0     		add	sp, sp, #20
 570              		@ sp needed
ARM GAS  /tmp/cc4BC4YD.s 			page 11


 571 0074 00BD     		pop	{pc}
 572              	.L30:
 573 0076 C046     		.align	2
 574              	.L29:
 575 0078 00000000 		.word	__func__.5701
 576 007c 00000000 		.word	ch
 577              		.cfi_endproc
 578              	.LFE153:
 579              		.size	chSchReadyI, .-chSchReadyI
 580              		.section	.rodata
 581              		.align	2
 582              	.LC5:
 583 0000 73746163 		.ascii	"stack overflow\000"
 583      6B206F76 
 583      6572666C 
 583      6F7700
 584              		.section	.text.chSchGoSleepS,"ax",%progbits
 585              		.align	1
 586              		.p2align 4,,15
 587              		.global	chSchGoSleepS
 588              		.syntax unified
 589              		.code	16
 590              		.thumb_func
 591              		.fpu softvfp
 592              		.type	chSchGoSleepS, %function
 593              	chSchGoSleepS:
 594              	.LFB154:
 595              		.loc 7 250 0
 596              		.cfi_startproc
 597              		@ args = 0, pretend = 0, frame = 16
 598              		@ frame_needed = 0, uses_anonymous_args = 0
 599 0000 10B5     		push	{r4, lr}
 600              		.cfi_def_cfa_offset 8
 601              		.cfi_offset 4, -8
 602              		.cfi_offset 14, -4
 603 0002 84B0     		sub	sp, sp, #16
 604              		.cfi_def_cfa_offset 24
 605 0004 0200     		movs	r2, r0
 606 0006 6B46     		mov	r3, sp
 607 0008 0733     		adds	r3, r3, #7
 608 000a 1A70     		strb	r2, [r3]
 609              		.loc 7 253 0
 610 000c FFF7FEFF 		bl	chDbgCheckClassS
 611              		.loc 7 255 0
 612 0010 194B     		ldr	r3, .L34
 613 0012 9B69     		ldr	r3, [r3, #24]
 614 0014 0393     		str	r3, [sp, #12]
 615              		.loc 7 256 0
 616 0016 039B     		ldr	r3, [sp, #12]
 617 0018 6A46     		mov	r2, sp
 618 001a 0732     		adds	r2, r2, #7
 619 001c 2021     		movs	r1, #32
 620 001e 1278     		ldrb	r2, [r2]
 621 0020 5A54     		strb	r2, [r3, r1]
 622              		.loc 7 262 0
 623 0022 154B     		ldr	r3, .L34
 624 0024 1800     		movs	r0, r3
ARM GAS  /tmp/cc4BC4YD.s 			page 12


 625 0026 FFF7FEFF 		bl	queue_fifo_remove
 626 002a 0200     		movs	r2, r0
 627 002c 124B     		ldr	r3, .L34
 628 002e 9A61     		str	r2, [r3, #24]
 629              		.loc 7 268 0
 630 0030 114B     		ldr	r3, .L34
 631 0032 9B69     		ldr	r3, [r3, #24]
 632 0034 2022     		movs	r2, #32
 633 0036 0121     		movs	r1, #1
 634 0038 9954     		strb	r1, [r3, r2]
 635              		.loc 7 269 0
 636 003a 039B     		ldr	r3, [sp, #12]
 637 003c 1800     		movs	r0, r3
 638 003e FFF7FEFF 		bl	_dbg_trace
 639              	.LBB23:
 640              	.LBB24:
 641              	.LBB25:
 642              		.loc 2 430 0
 643              		.syntax divided
 644              	@ 430 "ChibiOS/os/ext/CMSIS/include/core_cmFunc.h" 1
 645 0042 EFF30983 		MRS r3, psp
 646              	
 647              	@ 0 "" 2
 648              		.thumb
 649              		.syntax unified
 650 0046 1C00     		movs	r4, r3
 651              		.loc 2 431 0
 652 0048 2300     		movs	r3, r4
 653              	.LBE25:
 654              	.LBE24:
 655              		.loc 7 269 0
 656 004a 0293     		str	r3, [sp, #8]
 657 004c 029B     		ldr	r3, [sp, #8]
 658 004e 243B     		subs	r3, r3, #36
 659 0050 1A00     		movs	r2, r3
 660 0052 039B     		ldr	r3, [sp, #12]
 661 0054 DB69     		ldr	r3, [r3, #28]
 662 0056 9A42     		cmp	r2, r3
 663 0058 03D2     		bcs	.L33
 664              		.loc 7 269 0 is_stmt 0 discriminator 1
 665 005a 084B     		ldr	r3, .L34+4
 666 005c 1800     		movs	r0, r3
 667 005e FFF7FEFF 		bl	chSysHalt
 668              	.L33:
 669              		.loc 7 269 0 discriminator 3
 670 0062 054B     		ldr	r3, .L34
 671 0064 9B69     		ldr	r3, [r3, #24]
 672 0066 039A     		ldr	r2, [sp, #12]
 673 0068 1100     		movs	r1, r2
 674 006a 1800     		movs	r0, r3
 675 006c FFF7FEFF 		bl	_port_switch
 676              	.LBE23:
 677              		.loc 7 270 0 is_stmt 1 discriminator 3
 678 0070 C046     		nop
 679 0072 04B0     		add	sp, sp, #16
 680              		@ sp needed
 681 0074 10BD     		pop	{r4, pc}
ARM GAS  /tmp/cc4BC4YD.s 			page 13


 682              	.L35:
 683 0076 C046     		.align	2
 684              	.L34:
 685 0078 00000000 		.word	ch
 686 007c 00000000 		.word	.LC5
 687              		.cfi_endproc
 688              	.LFE154:
 689              		.size	chSchGoSleepS, .-chSchGoSleepS
 690              		.section	.text.wakeup,"ax",%progbits
 691              		.align	1
 692              		.p2align 4,,15
 693              		.syntax unified
 694              		.code	16
 695              		.thumb_func
 696              		.fpu softvfp
 697              		.type	wakeup, %function
 698              	wakeup:
 699              	.LFB155:
 700              		.loc 7 275 0
 701              		.cfi_startproc
 702              		@ args = 0, pretend = 0, frame = 16
 703              		@ frame_needed = 0, uses_anonymous_args = 0
 704 0000 00B5     		push	{lr}
 705              		.cfi_def_cfa_offset 4
 706              		.cfi_offset 14, -4
 707 0002 85B0     		sub	sp, sp, #20
 708              		.cfi_def_cfa_offset 24
 709 0004 0190     		str	r0, [sp, #4]
 710              		.loc 7 276 0
 711 0006 019B     		ldr	r3, [sp, #4]
 712 0008 0393     		str	r3, [sp, #12]
 713              		.loc 7 278 0
 714 000a FFF7FEFF 		bl	chSysLockFromISR
 715              		.loc 7 279 0
 716 000e 039B     		ldr	r3, [sp, #12]
 717 0010 2022     		movs	r2, #32
 718 0012 9B5C     		ldrb	r3, [r3, r2]
 719 0014 072B     		cmp	r3, #7
 720 0016 16D8     		bhi	.L45
 721 0018 9A00     		lsls	r2, r3, #2
 722 001a 114B     		ldr	r3, .L46
 723 001c D318     		adds	r3, r2, r3
 724 001e 1B68     		ldr	r3, [r3]
 725 0020 9F46     		mov	pc, r3
 726              		.section	.rodata.wakeup,"a",%progbits
 727              		.align	2
 728              	.L39:
 729 0000 22000000 		.word	.L38
 730 0004 46000000 		.word	.L45
 731 0008 46000000 		.word	.L45
 732 000c 28000000 		.word	.L40
 733 0010 3C000000 		.word	.L41
 734 0014 32000000 		.word	.L42
 735 0018 46000000 		.word	.L45
 736 001c 3C000000 		.word	.L41
 737              		.section	.text.wakeup
 738              	.L38:
ARM GAS  /tmp/cc4BC4YD.s 			page 14


 739              		.loc 7 283 0
 740 0022 FFF7FEFF 		bl	chSysUnlockFromISR
 741              		.loc 7 284 0
 742 0026 19E0     		b	.L36
 743              	.L40:
 744              		.loc 7 286 0
 745 0028 039B     		ldr	r3, [sp, #12]
 746 002a 5B6A     		ldr	r3, [r3, #36]
 747 002c 0022     		movs	r2, #0
 748 002e 1A60     		str	r2, [r3]
 749              		.loc 7 287 0
 750 0030 0AE0     		b	.L44
 751              	.L42:
 752              		.loc 7 290 0
 753 0032 039B     		ldr	r3, [sp, #12]
 754 0034 5B6A     		ldr	r3, [r3, #36]
 755 0036 1800     		movs	r0, r3
 756 0038 FFF7FEFF 		bl	chSemFastSignalI
 757              	.L41:
 758              		.loc 7 298 0
 759 003c 039B     		ldr	r3, [sp, #12]
 760 003e 1800     		movs	r0, r3
 761 0040 FFF7FEFF 		bl	queue_dequeue
 762              		.loc 7 299 0
 763 0044 00E0     		b	.L44
 764              	.L45:
 765              		.loc 7 302 0
 766 0046 C046     		nop
 767              	.L44:
 768              		.loc 7 304 0
 769 0048 039B     		ldr	r3, [sp, #12]
 770 004a 0122     		movs	r2, #1
 771 004c 5242     		rsbs	r2, r2, #0
 772 004e 5A62     		str	r2, [r3, #36]
 773              		.loc 7 305 0
 774 0050 039B     		ldr	r3, [sp, #12]
 775 0052 1800     		movs	r0, r3
 776 0054 FFF7FEFF 		bl	chSchReadyI
 777              		.loc 7 306 0
 778 0058 FFF7FEFF 		bl	chSysUnlockFromISR
 779              	.L36:
 780              		.loc 7 307 0
 781 005c 05B0     		add	sp, sp, #20
 782              		@ sp needed
 783 005e 00BD     		pop	{pc}
 784              	.L47:
 785              		.align	2
 786              	.L46:
 787 0060 00000000 		.word	.L39
 788              		.cfi_endproc
 789              	.LFE155:
 790              		.size	wakeup, .-wakeup
 791              		.section	.text.chSchGoSleepTimeoutS,"ax",%progbits
 792              		.align	1
 793              		.p2align 4,,15
 794              		.global	chSchGoSleepTimeoutS
 795              		.syntax unified
ARM GAS  /tmp/cc4BC4YD.s 			page 15


 796              		.code	16
 797              		.thumb_func
 798              		.fpu softvfp
 799              		.type	chSchGoSleepTimeoutS, %function
 800              	chSchGoSleepTimeoutS:
 801              	.LFB156:
 802              		.loc 7 330 0
 803              		.cfi_startproc
 804              		@ args = 0, pretend = 0, frame = 32
 805              		@ frame_needed = 0, uses_anonymous_args = 0
 806 0000 10B5     		push	{r4, lr}
 807              		.cfi_def_cfa_offset 8
 808              		.cfi_offset 4, -8
 809              		.cfi_offset 14, -4
 810 0002 88B0     		sub	sp, sp, #32
 811              		.cfi_def_cfa_offset 40
 812 0004 0200     		movs	r2, r0
 813 0006 6B46     		mov	r3, sp
 814 0008 0733     		adds	r3, r3, #7
 815 000a 1A70     		strb	r2, [r3]
 816 000c 01AB     		add	r3, sp, #4
 817 000e 0A1C     		adds	r2, r1, #0
 818 0010 1A80     		strh	r2, [r3]
 819              		.loc 7 332 0
 820 0012 FFF7FEFF 		bl	chDbgCheckClassS
 821              		.loc 7 334 0
 822 0016 01AB     		add	r3, sp, #4
 823 0018 1B88     		ldrh	r3, [r3]
 824 001a 144A     		ldr	r2, .L53
 825 001c 9342     		cmp	r3, r2
 826 001e 19D0     		beq	.L49
 827              	.LBB26:
 828              		.loc 7 337 0
 829 0020 134B     		ldr	r3, .L53+4
 830 0022 9C69     		ldr	r4, [r3, #24]
 831 0024 134A     		ldr	r2, .L53+8
 832 0026 01AB     		add	r3, sp, #4
 833 0028 1988     		ldrh	r1, [r3]
 834 002a 03A8     		add	r0, sp, #12
 835 002c 2300     		movs	r3, r4
 836 002e FFF7FEFF 		bl	chVTDoSetI
 837              		.loc 7 338 0
 838 0032 6B46     		mov	r3, sp
 839 0034 0733     		adds	r3, r3, #7
 840 0036 1B78     		ldrb	r3, [r3]
 841 0038 1800     		movs	r0, r3
 842 003a FFF7FEFF 		bl	chSchGoSleepS
 843              		.loc 7 339 0
 844 003e 03AB     		add	r3, sp, #12
 845 0040 1800     		movs	r0, r3
 846 0042 FFF7FEFF 		bl	chVTIsArmedI
 847 0046 031E     		subs	r3, r0, #0
 848 0048 0AD0     		beq	.L51
 849              		.loc 7 340 0
 850 004a 03AB     		add	r3, sp, #12
 851 004c 1800     		movs	r0, r3
 852 004e FFF7FEFF 		bl	chVTDoResetI
ARM GAS  /tmp/cc4BC4YD.s 			page 16


 853 0052 05E0     		b	.L51
 854              	.L49:
 855              	.LBE26:
 856              		.loc 7 344 0
 857 0054 6B46     		mov	r3, sp
 858 0056 0733     		adds	r3, r3, #7
 859 0058 1B78     		ldrb	r3, [r3]
 860 005a 1800     		movs	r0, r3
 861 005c FFF7FEFF 		bl	chSchGoSleepS
 862              	.L51:
 863              		.loc 7 347 0
 864 0060 034B     		ldr	r3, .L53+4
 865 0062 9B69     		ldr	r3, [r3, #24]
 866 0064 5B6A     		ldr	r3, [r3, #36]
 867              		.loc 7 348 0
 868 0066 1800     		movs	r0, r3
 869 0068 08B0     		add	sp, sp, #32
 870              		@ sp needed
 871 006a 10BD     		pop	{r4, pc}
 872              	.L54:
 873              		.align	2
 874              	.L53:
 875 006c FFFF0000 		.word	65535
 876 0070 00000000 		.word	ch
 877 0074 00000000 		.word	wakeup
 878              		.cfi_endproc
 879              	.LFE156:
 880              		.size	chSchGoSleepTimeoutS, .-chSchGoSleepTimeoutS
 881              		.section	.text.chSchWakeupS,"ax",%progbits
 882              		.align	1
 883              		.p2align 4,,15
 884              		.global	chSchWakeupS
 885              		.syntax unified
 886              		.code	16
 887              		.thumb_func
 888              		.fpu softvfp
 889              		.type	chSchWakeupS, %function
 890              	chSchWakeupS:
 891              	.LFB157:
 892              		.loc 7 367 0
 893              		.cfi_startproc
 894              		@ args = 0, pretend = 0, frame = 16
 895              		@ frame_needed = 0, uses_anonymous_args = 0
 896 0000 10B5     		push	{r4, lr}
 897              		.cfi_def_cfa_offset 8
 898              		.cfi_offset 4, -8
 899              		.cfi_offset 14, -4
 900 0002 84B0     		sub	sp, sp, #16
 901              		.cfi_def_cfa_offset 24
 902 0004 0190     		str	r0, [sp, #4]
 903 0006 0091     		str	r1, [sp]
 904              		.loc 7 369 0
 905 0008 FFF7FEFF 		bl	chDbgCheckClassS
 906              		.loc 7 371 0
 907 000c 254B     		ldr	r3, .L62
 908 000e 1A68     		ldr	r2, [r3]
 909 0010 244B     		ldr	r3, .L62
ARM GAS  /tmp/cc4BC4YD.s 			page 17


 910 0012 9A42     		cmp	r2, r3
 911 0014 0BD0     		beq	.L56
 912              		.loc 7 371 0 is_stmt 0 discriminator 2
 913 0016 234B     		ldr	r3, .L62
 914 0018 9B69     		ldr	r3, [r3, #24]
 915 001a 9A68     		ldr	r2, [r3, #8]
 916 001c 214B     		ldr	r3, .L62
 917 001e 1B68     		ldr	r3, [r3]
 918 0020 9B68     		ldr	r3, [r3, #8]
 919 0022 9A42     		cmp	r2, r3
 920 0024 03D2     		bcs	.L56
 921              		.loc 7 371 0 discriminator 3
 922 0026 204B     		ldr	r3, .L62+4
 923 0028 1800     		movs	r0, r3
 924 002a FFF7FEFF 		bl	chSysHalt
 925              	.L56:
 926              		.loc 7 377 0 is_stmt 1
 927 002e 019B     		ldr	r3, [sp, #4]
 928 0030 009A     		ldr	r2, [sp]
 929 0032 5A62     		str	r2, [r3, #36]
 930              		.loc 7 383 0
 931 0034 019B     		ldr	r3, [sp, #4]
 932 0036 9A68     		ldr	r2, [r3, #8]
 933 0038 1A4B     		ldr	r3, .L62
 934 003a 9B69     		ldr	r3, [r3, #24]
 935 003c 9B68     		ldr	r3, [r3, #8]
 936 003e 9A42     		cmp	r2, r3
 937 0040 04D8     		bhi	.L57
 938              		.loc 7 384 0
 939 0042 019B     		ldr	r3, [sp, #4]
 940 0044 1800     		movs	r0, r3
 941 0046 FFF7FEFF 		bl	chSchReadyI
 942              		.loc 7 397 0
 943 004a 27E0     		b	.L61
 944              	.L57:
 945              	.LBB27:
 946              		.loc 7 387 0
 947 004c 154B     		ldr	r3, .L62
 948 004e 9B69     		ldr	r3, [r3, #24]
 949 0050 1800     		movs	r0, r3
 950 0052 FFF7FEFF 		bl	chSchReadyI
 951 0056 0300     		movs	r3, r0
 952 0058 0393     		str	r3, [sp, #12]
 953              		.loc 7 388 0
 954 005a 124B     		ldr	r3, .L62
 955 005c 019A     		ldr	r2, [sp, #4]
 956 005e 9A61     		str	r2, [r3, #24]
 957              		.loc 7 394 0
 958 0060 019B     		ldr	r3, [sp, #4]
 959 0062 2022     		movs	r2, #32
 960 0064 0121     		movs	r1, #1
 961 0066 9954     		strb	r1, [r3, r2]
 962              		.loc 7 395 0
 963 0068 039B     		ldr	r3, [sp, #12]
 964 006a 1800     		movs	r0, r3
 965 006c FFF7FEFF 		bl	_dbg_trace
 966              	.LBB28:
ARM GAS  /tmp/cc4BC4YD.s 			page 18


 967              	.LBB29:
 968              	.LBB30:
 969              		.loc 2 430 0
 970              		.syntax divided
 971              	@ 430 "ChibiOS/os/ext/CMSIS/include/core_cmFunc.h" 1
 972 0070 EFF30983 		MRS r3, psp
 973              	
 974              	@ 0 "" 2
 975              		.thumb
 976              		.syntax unified
 977 0074 1C00     		movs	r4, r3
 978              		.loc 2 431 0
 979 0076 2300     		movs	r3, r4
 980              	.LBE30:
 981              	.LBE29:
 982              		.loc 7 395 0
 983 0078 0293     		str	r3, [sp, #8]
 984 007a 029B     		ldr	r3, [sp, #8]
 985 007c 243B     		subs	r3, r3, #36
 986 007e 1A00     		movs	r2, r3
 987 0080 039B     		ldr	r3, [sp, #12]
 988 0082 DB69     		ldr	r3, [r3, #28]
 989 0084 9A42     		cmp	r2, r3
 990 0086 03D2     		bcs	.L60
 991              		.loc 7 395 0 is_stmt 0 discriminator 1
 992 0088 084B     		ldr	r3, .L62+8
 993 008a 1800     		movs	r0, r3
 994 008c FFF7FEFF 		bl	chSysHalt
 995              	.L60:
 996              		.loc 7 395 0 discriminator 3
 997 0090 039A     		ldr	r2, [sp, #12]
 998 0092 019B     		ldr	r3, [sp, #4]
 999 0094 1100     		movs	r1, r2
 1000 0096 1800     		movs	r0, r3
 1001 0098 FFF7FEFF 		bl	_port_switch
 1002              	.L61:
 1003              	.LBE28:
 1004              	.LBE27:
 1005              		.loc 7 397 0 is_stmt 1
 1006 009c C046     		nop
 1007 009e 04B0     		add	sp, sp, #16
 1008              		@ sp needed
 1009 00a0 10BD     		pop	{r4, pc}
 1010              	.L63:
 1011 00a2 C046     		.align	2
 1012              	.L62:
 1013 00a4 00000000 		.word	ch
 1014 00a8 00000000 		.word	__func__.5729
 1015 00ac 00000000 		.word	.LC5
 1016              		.cfi_endproc
 1017              	.LFE157:
 1018              		.size	chSchWakeupS, .-chSchWakeupS
 1019              		.section	.text.chSchRescheduleS,"ax",%progbits
 1020              		.align	1
 1021              		.p2align 4,,15
 1022              		.global	chSchRescheduleS
 1023              		.syntax unified
ARM GAS  /tmp/cc4BC4YD.s 			page 19


 1024              		.code	16
 1025              		.thumb_func
 1026              		.fpu softvfp
 1027              		.type	chSchRescheduleS, %function
 1028              	chSchRescheduleS:
 1029              	.LFB158:
 1030              		.loc 7 406 0
 1031              		.cfi_startproc
 1032              		@ args = 0, pretend = 0, frame = 0
 1033              		@ frame_needed = 0, uses_anonymous_args = 0
 1034 0000 10B5     		push	{r4, lr}
 1035              		.cfi_def_cfa_offset 8
 1036              		.cfi_offset 4, -8
 1037              		.cfi_offset 14, -4
 1038              		.loc 7 408 0
 1039 0002 FFF7FEFF 		bl	chDbgCheckClassS
 1040              		.loc 7 410 0
 1041 0006 FFF7FEFF 		bl	chSchIsRescRequiredI
 1042 000a 031E     		subs	r3, r0, #0
 1043 000c 01D0     		beq	.L66
 1044              		.loc 7 411 0
 1045 000e FFF7FEFF 		bl	chSchDoRescheduleAhead
 1046              	.L66:
 1047              		.loc 7 413 0
 1048 0012 C046     		nop
 1049              		@ sp needed
 1050 0014 10BD     		pop	{r4, pc}
 1051              		.cfi_endproc
 1052              	.LFE158:
 1053              		.size	chSchRescheduleS, .-chSchRescheduleS
 1054 0016 C046     		.section	.text.chSchIsPreemptionRequired,"ax",%progbits
 1055              		.align	1
 1056              		.p2align 4,,15
 1057              		.global	chSchIsPreemptionRequired
 1058              		.syntax unified
 1059              		.code	16
 1060              		.thumb_func
 1061              		.fpu softvfp
 1062              		.type	chSchIsPreemptionRequired, %function
 1063              	chSchIsPreemptionRequired:
 1064              	.LFB159:
 1065              		.loc 7 428 0
 1066              		.cfi_startproc
 1067              		@ args = 0, pretend = 0, frame = 8
 1068              		@ frame_needed = 0, uses_anonymous_args = 0
 1069              		@ link register save eliminated.
 1070 0000 82B0     		sub	sp, sp, #8
 1071              		.cfi_def_cfa_offset 8
 1072              		.loc 7 429 0
 1073 0002 084B     		ldr	r3, .L69
 1074 0004 1B68     		ldr	r3, [r3]
 1075 0006 9B68     		ldr	r3, [r3, #8]
 1076 0008 0193     		str	r3, [sp, #4]
 1077              		.loc 7 430 0
 1078 000a 064B     		ldr	r3, .L69
 1079 000c 9B69     		ldr	r3, [r3, #24]
 1080 000e 9B68     		ldr	r3, [r3, #8]
ARM GAS  /tmp/cc4BC4YD.s 			page 20


 1081 0010 0093     		str	r3, [sp]
 1082              		.loc 7 441 0
 1083 0012 019B     		ldr	r3, [sp, #4]
 1084 0014 009A     		ldr	r2, [sp]
 1085 0016 9A42     		cmp	r2, r3
 1086 0018 9B41     		sbcs	r3, r3, r3
 1087 001a 5B42     		rsbs	r3, r3, #0
 1088 001c DBB2     		uxtb	r3, r3
 1089              		.loc 7 443 0
 1090 001e 1800     		movs	r0, r3
 1091 0020 02B0     		add	sp, sp, #8
 1092              		@ sp needed
 1093 0022 7047     		bx	lr
 1094              	.L70:
 1095              		.align	2
 1096              	.L69:
 1097 0024 00000000 		.word	ch
 1098              		.cfi_endproc
 1099              	.LFE159:
 1100              		.size	chSchIsPreemptionRequired, .-chSchIsPreemptionRequired
 1101              		.section	.text.chSchDoRescheduleBehind,"ax",%progbits
 1102              		.align	1
 1103              		.p2align 4,,15
 1104              		.global	chSchDoRescheduleBehind
 1105              		.syntax unified
 1106              		.code	16
 1107              		.thumb_func
 1108              		.fpu softvfp
 1109              		.type	chSchDoRescheduleBehind, %function
 1110              	chSchDoRescheduleBehind:
 1111              	.LFB160:
 1112              		.loc 7 455 0
 1113              		.cfi_startproc
 1114              		@ args = 0, pretend = 0, frame = 8
 1115              		@ frame_needed = 0, uses_anonymous_args = 0
 1116 0000 10B5     		push	{r4, lr}
 1117              		.cfi_def_cfa_offset 8
 1118              		.cfi_offset 4, -8
 1119              		.cfi_offset 14, -4
 1120 0002 82B0     		sub	sp, sp, #8
 1121              		.cfi_def_cfa_offset 16
 1122              		.loc 7 458 0
 1123 0004 184B     		ldr	r3, .L74
 1124 0006 9B69     		ldr	r3, [r3, #24]
 1125 0008 0193     		str	r3, [sp, #4]
 1126              		.loc 7 460 0
 1127 000a 174B     		ldr	r3, .L74
 1128 000c 1800     		movs	r0, r3
 1129 000e FFF7FEFF 		bl	queue_fifo_remove
 1130 0012 0200     		movs	r2, r0
 1131 0014 144B     		ldr	r3, .L74
 1132 0016 9A61     		str	r2, [r3, #24]
 1133              		.loc 7 466 0
 1134 0018 134B     		ldr	r3, .L74
 1135 001a 9B69     		ldr	r3, [r3, #24]
 1136 001c 2022     		movs	r2, #32
 1137 001e 0121     		movs	r1, #1
ARM GAS  /tmp/cc4BC4YD.s 			page 21


 1138 0020 9954     		strb	r1, [r3, r2]
 1139              		.loc 7 470 0
 1140 0022 019B     		ldr	r3, [sp, #4]
 1141 0024 1800     		movs	r0, r3
 1142 0026 FFF7FEFF 		bl	chSchReadyI
 1143              		.loc 7 471 0
 1144 002a 019B     		ldr	r3, [sp, #4]
 1145 002c 1800     		movs	r0, r3
 1146 002e FFF7FEFF 		bl	_dbg_trace
 1147              	.LBB31:
 1148              	.LBB32:
 1149              	.LBB33:
 1150              		.loc 2 430 0
 1151              		.syntax divided
 1152              	@ 430 "ChibiOS/os/ext/CMSIS/include/core_cmFunc.h" 1
 1153 0032 EFF30983 		MRS r3, psp
 1154              	
 1155              	@ 0 "" 2
 1156              		.thumb
 1157              		.syntax unified
 1158 0036 1C00     		movs	r4, r3
 1159              		.loc 2 431 0
 1160 0038 2300     		movs	r3, r4
 1161              	.LBE33:
 1162              	.LBE32:
 1163              		.loc 7 471 0
 1164 003a 0093     		str	r3, [sp]
 1165 003c 009B     		ldr	r3, [sp]
 1166 003e 243B     		subs	r3, r3, #36
 1167 0040 1A00     		movs	r2, r3
 1168 0042 019B     		ldr	r3, [sp, #4]
 1169 0044 DB69     		ldr	r3, [r3, #28]
 1170 0046 9A42     		cmp	r2, r3
 1171 0048 03D2     		bcs	.L73
 1172              		.loc 7 471 0 is_stmt 0 discriminator 1
 1173 004a 084B     		ldr	r3, .L74+4
 1174 004c 1800     		movs	r0, r3
 1175 004e FFF7FEFF 		bl	chSysHalt
 1176              	.L73:
 1177              		.loc 7 471 0 discriminator 3
 1178 0052 054B     		ldr	r3, .L74
 1179 0054 9B69     		ldr	r3, [r3, #24]
 1180 0056 019A     		ldr	r2, [sp, #4]
 1181 0058 1100     		movs	r1, r2
 1182 005a 1800     		movs	r0, r3
 1183 005c FFF7FEFF 		bl	_port_switch
 1184              	.LBE31:
 1185              		.loc 7 472 0 is_stmt 1 discriminator 3
 1186 0060 C046     		nop
 1187 0062 02B0     		add	sp, sp, #8
 1188              		@ sp needed
 1189 0064 10BD     		pop	{r4, pc}
 1190              	.L75:
 1191 0066 C046     		.align	2
 1192              	.L74:
 1193 0068 00000000 		.word	ch
 1194 006c 00000000 		.word	.LC5
ARM GAS  /tmp/cc4BC4YD.s 			page 22


 1195              		.cfi_endproc
 1196              	.LFE160:
 1197              		.size	chSchDoRescheduleBehind, .-chSchDoRescheduleBehind
 1198              		.section	.text.chSchDoRescheduleAhead,"ax",%progbits
 1199              		.align	1
 1200              		.p2align 4,,15
 1201              		.global	chSchDoRescheduleAhead
 1202              		.syntax unified
 1203              		.code	16
 1204              		.thumb_func
 1205              		.fpu softvfp
 1206              		.type	chSchDoRescheduleAhead, %function
 1207              	chSchDoRescheduleAhead:
 1208              	.LFB161:
 1209              		.loc 7 483 0
 1210              		.cfi_startproc
 1211              		@ args = 0, pretend = 0, frame = 16
 1212              		@ frame_needed = 0, uses_anonymous_args = 0
 1213 0000 10B5     		push	{r4, lr}
 1214              		.cfi_def_cfa_offset 8
 1215              		.cfi_offset 4, -8
 1216              		.cfi_offset 14, -4
 1217 0002 84B0     		sub	sp, sp, #16
 1218              		.cfi_def_cfa_offset 24
 1219              		.loc 7 486 0
 1220 0004 244B     		ldr	r3, .L80
 1221 0006 9B69     		ldr	r3, [r3, #24]
 1222 0008 0293     		str	r3, [sp, #8]
 1223              		.loc 7 488 0
 1224 000a 234B     		ldr	r3, .L80
 1225 000c 1800     		movs	r0, r3
 1226 000e FFF7FEFF 		bl	queue_fifo_remove
 1227 0012 0200     		movs	r2, r0
 1228 0014 204B     		ldr	r3, .L80
 1229 0016 9A61     		str	r2, [r3, #24]
 1230              		.loc 7 494 0
 1231 0018 1F4B     		ldr	r3, .L80
 1232 001a 9B69     		ldr	r3, [r3, #24]
 1233 001c 2022     		movs	r2, #32
 1234 001e 0121     		movs	r1, #1
 1235 0020 9954     		strb	r1, [r3, r2]
 1236              		.loc 7 496 0
 1237 0022 029B     		ldr	r3, [sp, #8]
 1238 0024 2022     		movs	r2, #32
 1239 0026 0021     		movs	r1, #0
 1240 0028 9954     		strb	r1, [r3, r2]
 1241              		.loc 7 497 0
 1242 002a 1B4B     		ldr	r3, .L80
 1243 002c 0393     		str	r3, [sp, #12]
 1244              	.L77:
 1245              		.loc 7 499 0 discriminator 1
 1246 002e 039B     		ldr	r3, [sp, #12]
 1247 0030 1B68     		ldr	r3, [r3]
 1248 0032 0393     		str	r3, [sp, #12]
 1249              		.loc 7 500 0 discriminator 1
 1250 0034 039B     		ldr	r3, [sp, #12]
 1251 0036 9A68     		ldr	r2, [r3, #8]
ARM GAS  /tmp/cc4BC4YD.s 			page 23


 1252 0038 029B     		ldr	r3, [sp, #8]
 1253 003a 9B68     		ldr	r3, [r3, #8]
 1254 003c 9A42     		cmp	r2, r3
 1255 003e F6D8     		bhi	.L77
 1256              		.loc 7 502 0
 1257 0040 029B     		ldr	r3, [sp, #8]
 1258 0042 039A     		ldr	r2, [sp, #12]
 1259 0044 1A60     		str	r2, [r3]
 1260              		.loc 7 503 0
 1261 0046 039B     		ldr	r3, [sp, #12]
 1262 0048 5A68     		ldr	r2, [r3, #4]
 1263 004a 029B     		ldr	r3, [sp, #8]
 1264 004c 5A60     		str	r2, [r3, #4]
 1265              		.loc 7 504 0
 1266 004e 029B     		ldr	r3, [sp, #8]
 1267 0050 5B68     		ldr	r3, [r3, #4]
 1268 0052 029A     		ldr	r2, [sp, #8]
 1269 0054 1A60     		str	r2, [r3]
 1270              		.loc 7 505 0
 1271 0056 039B     		ldr	r3, [sp, #12]
 1272 0058 029A     		ldr	r2, [sp, #8]
 1273 005a 5A60     		str	r2, [r3, #4]
 1274              		.loc 7 507 0
 1275 005c 029B     		ldr	r3, [sp, #8]
 1276 005e 1800     		movs	r0, r3
 1277 0060 FFF7FEFF 		bl	_dbg_trace
 1278              	.LBB34:
 1279              	.LBB35:
 1280              	.LBB36:
 1281              		.loc 2 430 0
 1282              		.syntax divided
 1283              	@ 430 "ChibiOS/os/ext/CMSIS/include/core_cmFunc.h" 1
 1284 0064 EFF30983 		MRS r3, psp
 1285              	
 1286              	@ 0 "" 2
 1287              		.thumb
 1288              		.syntax unified
 1289 0068 1C00     		movs	r4, r3
 1290              		.loc 2 431 0
 1291 006a 2300     		movs	r3, r4
 1292              	.LBE36:
 1293              	.LBE35:
 1294              		.loc 7 507 0
 1295 006c 0193     		str	r3, [sp, #4]
 1296 006e 019B     		ldr	r3, [sp, #4]
 1297 0070 243B     		subs	r3, r3, #36
 1298 0072 1A00     		movs	r2, r3
 1299 0074 029B     		ldr	r3, [sp, #8]
 1300 0076 DB69     		ldr	r3, [r3, #28]
 1301 0078 9A42     		cmp	r2, r3
 1302 007a 03D2     		bcs	.L79
 1303              		.loc 7 507 0 is_stmt 0 discriminator 1
 1304 007c 074B     		ldr	r3, .L80+4
 1305 007e 1800     		movs	r0, r3
 1306 0080 FFF7FEFF 		bl	chSysHalt
 1307              	.L79:
 1308              		.loc 7 507 0 discriminator 3
ARM GAS  /tmp/cc4BC4YD.s 			page 24


 1309 0084 044B     		ldr	r3, .L80
 1310 0086 9B69     		ldr	r3, [r3, #24]
 1311 0088 029A     		ldr	r2, [sp, #8]
 1312 008a 1100     		movs	r1, r2
 1313 008c 1800     		movs	r0, r3
 1314 008e FFF7FEFF 		bl	_port_switch
 1315              	.LBE34:
 1316              		.loc 7 508 0 is_stmt 1 discriminator 3
 1317 0092 C046     		nop
 1318 0094 04B0     		add	sp, sp, #16
 1319              		@ sp needed
 1320 0096 10BD     		pop	{r4, pc}
 1321              	.L81:
 1322              		.align	2
 1323              	.L80:
 1324 0098 00000000 		.word	ch
 1325 009c 00000000 		.word	.LC5
 1326              		.cfi_endproc
 1327              	.LFE161:
 1328              		.size	chSchDoRescheduleAhead, .-chSchDoRescheduleAhead
 1329              		.section	.text.chSchDoReschedule,"ax",%progbits
 1330              		.align	1
 1331              		.p2align 4,,15
 1332              		.global	chSchDoReschedule
 1333              		.syntax unified
 1334              		.code	16
 1335              		.thumb_func
 1336              		.fpu softvfp
 1337              		.type	chSchDoReschedule, %function
 1338              	chSchDoReschedule:
 1339              	.LFB162:
 1340              		.loc 7 520 0
 1341              		.cfi_startproc
 1342              		@ args = 0, pretend = 0, frame = 0
 1343              		@ frame_needed = 0, uses_anonymous_args = 0
 1344 0000 10B5     		push	{r4, lr}
 1345              		.cfi_def_cfa_offset 8
 1346              		.cfi_offset 4, -8
 1347              		.cfi_offset 14, -4
 1348              		.loc 7 538 0
 1349 0002 FFF7FEFF 		bl	chSchDoRescheduleAhead
 1350              		.loc 7 540 0
 1351 0006 C046     		nop
 1352              		@ sp needed
 1353 0008 10BD     		pop	{r4, pc}
 1354              		.cfi_endproc
 1355              	.LFE162:
 1356              		.size	chSchDoReschedule, .-chSchDoReschedule
 1357 000a C046     		.section	.rodata.__func__.5701,"a",%progbits
 1358              		.align	2
 1359              		.type	__func__.5701, %object
 1360              		.size	__func__.5701, 12
 1361              	__func__.5701:
 1362 0000 63685363 		.ascii	"chSchReadyI\000"
 1362      68526561 
 1362      64794900 
 1363              		.section	.rodata.__func__.5729,"a",%progbits
ARM GAS  /tmp/cc4BC4YD.s 			page 25


 1364              		.align	2
 1365              		.type	__func__.5729, %object
 1366              		.size	__func__.5729, 13
 1367              	__func__.5729:
 1368 0000 63685363 		.ascii	"chSchWakeupS\000"
 1368      6857616B 
 1368      65757053 
 1368      00
 1369              		.text
 1370              	.Letext0:
 1371              		.file 8 "/home/felix/opt/gcc-arm-none-eabi-6-2017-q1-update/lib/gcc/arm-none-eabi/6.3.1/include/st
 1372              		.file 9 "/home/felix/opt/gcc-arm-none-eabi-6-2017-q1-update/arm-none-eabi/include/machine/_default
 1373              		.file 10 "/home/felix/opt/gcc-arm-none-eabi-6-2017-q1-update/arm-none-eabi/include/sys/_stdint.h"
 1374              		.file 11 "ChibiOS/os/rt/ports/ARMCMx/compilers/GCC/chtypes.h"
 1375              		.file 12 "ChibiOS/os/rt/include/chsystypes.h"
 1376              		.file 13 "ChibiOS/os/rt/ports/ARMCMx/chcore.h"
 1377              		.file 14 "ChibiOS/os/rt/include/chdebug.h"
 1378              		.file 15 "ChibiOS/os/rt/include/chmtx.h"
 1379              		.file 16 "ChibiOS/os/rt/include/chregistry.h"
 1380              		.file 17 "ChibiOS/os/ext/CMSIS/ST/STM32F0xx/system_stm32f0xx.h"