ARM GAS  /tmp/ccR802FU.s 			page 1


   1              		.cpu cortex-m0
   2              		.eabi_attribute 20, 1
   3              		.eabi_attribute 21, 1
   4              		.eabi_attribute 23, 3
   5              		.eabi_attribute 24, 1
   6              		.eabi_attribute 25, 1
   7              		.eabi_attribute 26, 1
   8              		.eabi_attribute 30, 6
   9              		.eabi_attribute 34, 0
  10              		.eabi_attribute 18, 4
  11              		.file	"chsem.c"
  12              		.text
  13              	.Ltext0:
  14              		.cfi_sections	.debug_frame
  15              		.section	.text.port_lock,"ax",%progbits
  16              		.align	1
  17              		.p2align 4,,15
  18              		.syntax unified
  19              		.code	16
  20              		.thumb_func
  21              		.fpu softvfp
  22              		.type	port_lock, %function
  23              	port_lock:
  24              	.LFB38:
  25              		.file 1 "ChibiOS/os/rt/ports/ARMCMx/chcore_v6m.h"
  26              		.loc 1 330 0
  27              		.cfi_startproc
  28              		@ args = 0, pretend = 0, frame = 0
  29              		@ frame_needed = 0, uses_anonymous_args = 0
  30              		@ link register save eliminated.
  31              	.LBB6:
  32              	.LBB7:
  33              		.file 2 "ChibiOS/os/ext/CMSIS/include/core_cmFunc.h"
  34              		.loc 2 344 0
  35              		.syntax divided
  36              	@ 344 "ChibiOS/os/ext/CMSIS/include/core_cmFunc.h" 1
  37 0000 72B6     		cpsid i
  38              	@ 0 "" 2
  39              		.thumb
  40              		.syntax unified
  41              	.LBE7:
  42              	.LBE6:
  43              		.loc 1 333 0
  44 0002 C046     		nop
  45              		@ sp needed
  46 0004 7047     		bx	lr
  47              		.cfi_endproc
  48              	.LFE38:
  49              		.size	port_lock, .-port_lock
  50 0006 C046     		.section	.text.port_unlock,"ax",%progbits
  51              		.align	1
  52              		.p2align 4,,15
  53              		.syntax unified
  54              		.code	16
  55              		.thumb_func
  56              		.fpu softvfp
  57              		.type	port_unlock, %function
ARM GAS  /tmp/ccR802FU.s 			page 2


  58              	port_unlock:
  59              	.LFB39:
  60              		.loc 1 339 0
  61              		.cfi_startproc
  62              		@ args = 0, pretend = 0, frame = 0
  63              		@ frame_needed = 0, uses_anonymous_args = 0
  64              		@ link register save eliminated.
  65              	.LBB8:
  66              	.LBB9:
  67              		.loc 2 333 0
  68              		.syntax divided
  69              	@ 333 "ChibiOS/os/ext/CMSIS/include/core_cmFunc.h" 1
  70 0000 62B6     		cpsie i
  71              	@ 0 "" 2
  72              		.thumb
  73              		.syntax unified
  74              	.LBE9:
  75              	.LBE8:
  76              		.loc 1 342 0
  77 0002 C046     		nop
  78              		@ sp needed
  79 0004 7047     		bx	lr
  80              		.cfi_endproc
  81              	.LFE39:
  82              		.size	port_unlock, .-port_unlock
  83 0006 C046     		.section	.text.queue_init,"ax",%progbits
  84              		.align	1
  85              		.p2align 4,,15
  86              		.syntax unified
  87              		.code	16
  88              		.thumb_func
  89              		.fpu softvfp
  90              		.type	queue_init, %function
  91              	queue_init:
  92              	.LFB60:
  93              		.file 3 "ChibiOS/os/rt/include/chschd.h"
  94              		.loc 3 602 0
  95              		.cfi_startproc
  96              		@ args = 0, pretend = 0, frame = 8
  97              		@ frame_needed = 0, uses_anonymous_args = 0
  98              		@ link register save eliminated.
  99 0000 82B0     		sub	sp, sp, #8
 100              		.cfi_def_cfa_offset 8
 101 0002 0190     		str	r0, [sp, #4]
 102              		.loc 3 604 0
 103 0004 019B     		ldr	r3, [sp, #4]
 104 0006 019A     		ldr	r2, [sp, #4]
 105 0008 1A60     		str	r2, [r3]
 106              		.loc 3 605 0
 107 000a 019B     		ldr	r3, [sp, #4]
 108 000c 019A     		ldr	r2, [sp, #4]
 109 000e 5A60     		str	r2, [r3, #4]
 110              		.loc 3 606 0
 111 0010 C046     		nop
 112 0012 02B0     		add	sp, sp, #8
 113              		@ sp needed
 114 0014 7047     		bx	lr
ARM GAS  /tmp/ccR802FU.s 			page 3


 115              		.cfi_endproc
 116              	.LFE60:
 117              		.size	queue_init, .-queue_init
 118 0016 C046     		.section	.text.queue_isempty,"ax",%progbits
 119              		.align	1
 120              		.p2align 4,,15
 121              		.syntax unified
 122              		.code	16
 123              		.thumb_func
 124              		.fpu softvfp
 125              		.type	queue_isempty, %function
 126              	queue_isempty:
 127              	.LFB61:
 128              		.loc 3 616 0
 129              		.cfi_startproc
 130              		@ args = 0, pretend = 0, frame = 8
 131              		@ frame_needed = 0, uses_anonymous_args = 0
 132              		@ link register save eliminated.
 133 0000 82B0     		sub	sp, sp, #8
 134              		.cfi_def_cfa_offset 8
 135 0002 0190     		str	r0, [sp, #4]
 136              		.loc 3 618 0
 137 0004 019B     		ldr	r3, [sp, #4]
 138 0006 1A68     		ldr	r2, [r3]
 139 0008 019B     		ldr	r3, [sp, #4]
 140 000a D31A     		subs	r3, r2, r3
 141 000c 5A42     		rsbs	r2, r3, #0
 142 000e 5341     		adcs	r3, r3, r2
 143 0010 DBB2     		uxtb	r3, r3
 144              		.loc 3 619 0
 145 0012 1800     		movs	r0, r3
 146 0014 02B0     		add	sp, sp, #8
 147              		@ sp needed
 148 0016 7047     		bx	lr
 149              		.cfi_endproc
 150              	.LFE61:
 151              		.size	queue_isempty, .-queue_isempty
 152              		.section	.text.queue_notempty,"ax",%progbits
 153              		.align	1
 154              		.p2align 4,,15
 155              		.syntax unified
 156              		.code	16
 157              		.thumb_func
 158              		.fpu softvfp
 159              		.type	queue_notempty, %function
 160              	queue_notempty:
 161              	.LFB62:
 162              		.loc 3 629 0
 163              		.cfi_startproc
 164              		@ args = 0, pretend = 0, frame = 8
 165              		@ frame_needed = 0, uses_anonymous_args = 0
 166              		@ link register save eliminated.
 167 0000 82B0     		sub	sp, sp, #8
 168              		.cfi_def_cfa_offset 8
 169 0002 0190     		str	r0, [sp, #4]
 170              		.loc 3 631 0
 171 0004 019B     		ldr	r3, [sp, #4]
ARM GAS  /tmp/ccR802FU.s 			page 4


 172 0006 1A68     		ldr	r2, [r3]
 173 0008 019B     		ldr	r3, [sp, #4]
 174 000a D31A     		subs	r3, r2, r3
 175 000c 5A1E     		subs	r2, r3, #1
 176 000e 9341     		sbcs	r3, r3, r2
 177 0010 DBB2     		uxtb	r3, r3
 178              		.loc 3 632 0
 179 0012 1800     		movs	r0, r3
 180 0014 02B0     		add	sp, sp, #8
 181              		@ sp needed
 182 0016 7047     		bx	lr
 183              		.cfi_endproc
 184              	.LFE62:
 185              		.size	queue_notempty, .-queue_notempty
 186              		.section	.text.queue_insert,"ax",%progbits
 187              		.align	1
 188              		.p2align 4,,15
 189              		.syntax unified
 190              		.code	16
 191              		.thumb_func
 192              		.fpu softvfp
 193              		.type	queue_insert, %function
 194              	queue_insert:
 195              	.LFB66:
 196              		.loc 3 663 0
 197              		.cfi_startproc
 198              		@ args = 0, pretend = 0, frame = 8
 199              		@ frame_needed = 0, uses_anonymous_args = 0
 200              		@ link register save eliminated.
 201 0000 82B0     		sub	sp, sp, #8
 202              		.cfi_def_cfa_offset 8
 203 0002 0190     		str	r0, [sp, #4]
 204 0004 0091     		str	r1, [sp]
 205              		.loc 3 665 0
 206 0006 019B     		ldr	r3, [sp, #4]
 207 0008 009A     		ldr	r2, [sp]
 208 000a 1A60     		str	r2, [r3]
 209              		.loc 3 666 0
 210 000c 009B     		ldr	r3, [sp]
 211 000e 5A68     		ldr	r2, [r3, #4]
 212 0010 019B     		ldr	r3, [sp, #4]
 213 0012 5A60     		str	r2, [r3, #4]
 214              		.loc 3 667 0
 215 0014 019B     		ldr	r3, [sp, #4]
 216 0016 5B68     		ldr	r3, [r3, #4]
 217 0018 019A     		ldr	r2, [sp, #4]
 218 001a 1A60     		str	r2, [r3]
 219              		.loc 3 668 0
 220 001c 009B     		ldr	r3, [sp]
 221 001e 019A     		ldr	r2, [sp, #4]
 222 0020 5A60     		str	r2, [r3, #4]
 223              		.loc 3 669 0
 224 0022 C046     		nop
 225 0024 02B0     		add	sp, sp, #8
 226              		@ sp needed
 227 0026 7047     		bx	lr
 228              		.cfi_endproc
ARM GAS  /tmp/ccR802FU.s 			page 5


 229              	.LFE66:
 230              		.size	queue_insert, .-queue_insert
 231              		.section	.text.queue_fifo_remove,"ax",%progbits
 232              		.align	1
 233              		.p2align 4,,15
 234              		.syntax unified
 235              		.code	16
 236              		.thumb_func
 237              		.fpu softvfp
 238              		.type	queue_fifo_remove, %function
 239              	queue_fifo_remove:
 240              	.LFB67:
 241              		.loc 3 671 0
 242              		.cfi_startproc
 243              		@ args = 0, pretend = 0, frame = 16
 244              		@ frame_needed = 0, uses_anonymous_args = 0
 245              		@ link register save eliminated.
 246 0000 84B0     		sub	sp, sp, #16
 247              		.cfi_def_cfa_offset 16
 248 0002 0190     		str	r0, [sp, #4]
 249              		.loc 3 672 0
 250 0004 019B     		ldr	r3, [sp, #4]
 251 0006 1B68     		ldr	r3, [r3]
 252 0008 0393     		str	r3, [sp, #12]
 253              		.loc 3 674 0
 254 000a 039B     		ldr	r3, [sp, #12]
 255 000c 1A68     		ldr	r2, [r3]
 256 000e 019B     		ldr	r3, [sp, #4]
 257 0010 1A60     		str	r2, [r3]
 258              		.loc 3 675 0
 259 0012 019B     		ldr	r3, [sp, #4]
 260 0014 1B68     		ldr	r3, [r3]
 261 0016 019A     		ldr	r2, [sp, #4]
 262 0018 5A60     		str	r2, [r3, #4]
 263              		.loc 3 677 0
 264 001a 039B     		ldr	r3, [sp, #12]
 265              		.loc 3 678 0
 266 001c 1800     		movs	r0, r3
 267 001e 04B0     		add	sp, sp, #16
 268              		@ sp needed
 269 0020 7047     		bx	lr
 270              		.cfi_endproc
 271              	.LFE67:
 272              		.size	queue_fifo_remove, .-queue_fifo_remove
 273 0022 C046     		.section	.text.queue_lifo_remove,"ax",%progbits
 274              		.align	1
 275              		.p2align 4,,15
 276              		.syntax unified
 277              		.code	16
 278              		.thumb_func
 279              		.fpu softvfp
 280              		.type	queue_lifo_remove, %function
 281              	queue_lifo_remove:
 282              	.LFB68:
 283              		.loc 3 680 0
 284              		.cfi_startproc
 285              		@ args = 0, pretend = 0, frame = 16
ARM GAS  /tmp/ccR802FU.s 			page 6


 286              		@ frame_needed = 0, uses_anonymous_args = 0
 287              		@ link register save eliminated.
 288 0000 84B0     		sub	sp, sp, #16
 289              		.cfi_def_cfa_offset 16
 290 0002 0190     		str	r0, [sp, #4]
 291              		.loc 3 681 0
 292 0004 019B     		ldr	r3, [sp, #4]
 293 0006 5B68     		ldr	r3, [r3, #4]
 294 0008 0393     		str	r3, [sp, #12]
 295              		.loc 3 683 0
 296 000a 039B     		ldr	r3, [sp, #12]
 297 000c 5A68     		ldr	r2, [r3, #4]
 298 000e 019B     		ldr	r3, [sp, #4]
 299 0010 5A60     		str	r2, [r3, #4]
 300              		.loc 3 684 0
 301 0012 019B     		ldr	r3, [sp, #4]
 302 0014 5B68     		ldr	r3, [r3, #4]
 303 0016 019A     		ldr	r2, [sp, #4]
 304 0018 1A60     		str	r2, [r3]
 305              		.loc 3 686 0
 306 001a 039B     		ldr	r3, [sp, #12]
 307              		.loc 3 687 0
 308 001c 1800     		movs	r0, r3
 309 001e 04B0     		add	sp, sp, #16
 310              		@ sp needed
 311 0020 7047     		bx	lr
 312              		.cfi_endproc
 313              	.LFE68:
 314              		.size	queue_lifo_remove, .-queue_lifo_remove
 315 0022 C046     		.section	.text.chSysLock,"ax",%progbits
 316              		.align	1
 317              		.p2align 4,,15
 318              		.syntax unified
 319              		.code	16
 320              		.thumb_func
 321              		.fpu softvfp
 322              		.type	chSysLock, %function
 323              	chSysLock:
 324              	.LFB77:
 325              		.file 4 "ChibiOS/os/rt/include/chsys.h"
 326              		.loc 4 346 0
 327              		.cfi_startproc
 328              		@ args = 0, pretend = 0, frame = 0
 329              		@ frame_needed = 0, uses_anonymous_args = 0
 330 0000 10B5     		push	{r4, lr}
 331              		.cfi_def_cfa_offset 8
 332              		.cfi_offset 4, -8
 333              		.cfi_offset 14, -4
 334              		.loc 4 348 0
 335 0002 FFF7FEFF 		bl	port_lock
 336              		.loc 4 350 0
 337 0006 FFF7FEFF 		bl	_dbg_check_lock
 338              		.loc 4 351 0
 339 000a C046     		nop
 340              		@ sp needed
 341 000c 10BD     		pop	{r4, pc}
 342              		.cfi_endproc
ARM GAS  /tmp/ccR802FU.s 			page 7


 343              	.LFE77:
 344              		.size	chSysLock, .-chSysLock
 345 000e C046     		.section	.text.chSysUnlock,"ax",%progbits
 346              		.align	1
 347              		.p2align 4,,15
 348              		.syntax unified
 349              		.code	16
 350              		.thumb_func
 351              		.fpu softvfp
 352              		.type	chSysUnlock, %function
 353              	chSysUnlock:
 354              	.LFB78:
 355              		.loc 4 358 0
 356              		.cfi_startproc
 357              		@ args = 0, pretend = 0, frame = 0
 358              		@ frame_needed = 0, uses_anonymous_args = 0
 359 0000 10B5     		push	{r4, lr}
 360              		.cfi_def_cfa_offset 8
 361              		.cfi_offset 4, -8
 362              		.cfi_offset 14, -4
 363              		.loc 4 360 0
 364 0002 FFF7FEFF 		bl	_dbg_check_unlock
 365              		.loc 4 367 0
 366 0006 0A4B     		ldr	r3, .L16
 367 0008 1A68     		ldr	r2, [r3]
 368 000a 094B     		ldr	r3, .L16
 369 000c 9A42     		cmp	r2, r3
 370 000e 0BD0     		beq	.L15
 371              		.loc 4 367 0 is_stmt 0 discriminator 2
 372 0010 074B     		ldr	r3, .L16
 373 0012 9B69     		ldr	r3, [r3, #24]
 374 0014 9A68     		ldr	r2, [r3, #8]
 375 0016 064B     		ldr	r3, .L16
 376 0018 1B68     		ldr	r3, [r3]
 377 001a 9B68     		ldr	r3, [r3, #8]
 378 001c 9A42     		cmp	r2, r3
 379 001e 03D2     		bcs	.L15
 380              		.loc 4 367 0 discriminator 3
 381 0020 044B     		ldr	r3, .L16+4
 382 0022 1800     		movs	r0, r3
 383 0024 FFF7FEFF 		bl	chSysHalt
 384              	.L15:
 385              		.loc 4 371 0 is_stmt 1
 386 0028 FFF7FEFF 		bl	port_unlock
 387              		.loc 4 372 0
 388 002c C046     		nop
 389              		@ sp needed
 390 002e 10BD     		pop	{r4, pc}
 391              	.L17:
 392              		.align	2
 393              	.L16:
 394 0030 00000000 		.word	ch
 395 0034 00000000 		.word	__func__.4993
 396              		.cfi_endproc
 397              	.LFE78:
 398              		.size	chSysUnlock, .-chSysUnlock
 399              		.section	.text.chSemObjectInit,"ax",%progbits
ARM GAS  /tmp/ccR802FU.s 			page 8


 400              		.align	1
 401              		.p2align 4,,15
 402              		.global	chSemObjectInit
 403              		.syntax unified
 404              		.code	16
 405              		.thumb_func
 406              		.fpu softvfp
 407              		.type	chSemObjectInit, %function
 408              	chSemObjectInit:
 409              	.LFB152:
 410              		.file 5 "ChibiOS/os/rt/src/chsem.c"
 411              		.loc 5 97 0
 412              		.cfi_startproc
 413              		@ args = 0, pretend = 0, frame = 8
 414              		@ frame_needed = 0, uses_anonymous_args = 0
 415 0000 00B5     		push	{lr}
 416              		.cfi_def_cfa_offset 4
 417              		.cfi_offset 14, -4
 418 0002 83B0     		sub	sp, sp, #12
 419              		.cfi_def_cfa_offset 16
 420 0004 0190     		str	r0, [sp, #4]
 421 0006 0091     		str	r1, [sp]
 422              		.loc 5 99 0
 423 0008 019B     		ldr	r3, [sp, #4]
 424 000a 002B     		cmp	r3, #0
 425 000c 02D0     		beq	.L19
 426              		.loc 5 99 0 is_stmt 0 discriminator 3
 427 000e 009B     		ldr	r3, [sp]
 428 0010 002B     		cmp	r3, #0
 429 0012 03DA     		bge	.L20
 430              	.L19:
 431              		.loc 5 99 0 discriminator 4
 432 0014 064B     		ldr	r3, .L21
 433 0016 1800     		movs	r0, r3
 434 0018 FFF7FEFF 		bl	chSysHalt
 435              	.L20:
 436              		.loc 5 101 0 is_stmt 1
 437 001c 019B     		ldr	r3, [sp, #4]
 438 001e 1800     		movs	r0, r3
 439 0020 FFF7FEFF 		bl	queue_init
 440              		.loc 5 102 0
 441 0024 019B     		ldr	r3, [sp, #4]
 442 0026 009A     		ldr	r2, [sp]
 443 0028 9A60     		str	r2, [r3, #8]
 444              		.loc 5 103 0
 445 002a C046     		nop
 446 002c 03B0     		add	sp, sp, #12
 447              		@ sp needed
 448 002e 00BD     		pop	{pc}
 449              	.L22:
 450              		.align	2
 451              	.L21:
 452 0030 00000000 		.word	__func__.5697
 453              		.cfi_endproc
 454              	.LFE152:
 455              		.size	chSemObjectInit, .-chSemObjectInit
 456              		.section	.text.chSemReset,"ax",%progbits
ARM GAS  /tmp/ccR802FU.s 			page 9


 457              		.align	1
 458              		.p2align 4,,15
 459              		.global	chSemReset
 460              		.syntax unified
 461              		.code	16
 462              		.thumb_func
 463              		.fpu softvfp
 464              		.type	chSemReset, %function
 465              	chSemReset:
 466              	.LFB153:
 467              		.loc 5 120 0
 468              		.cfi_startproc
 469              		@ args = 0, pretend = 0, frame = 8
 470              		@ frame_needed = 0, uses_anonymous_args = 0
 471 0000 00B5     		push	{lr}
 472              		.cfi_def_cfa_offset 4
 473              		.cfi_offset 14, -4
 474 0002 83B0     		sub	sp, sp, #12
 475              		.cfi_def_cfa_offset 16
 476 0004 0190     		str	r0, [sp, #4]
 477 0006 0091     		str	r1, [sp]
 478              		.loc 5 122 0
 479 0008 FFF7FEFF 		bl	chSysLock
 480              		.loc 5 123 0
 481 000c 009A     		ldr	r2, [sp]
 482 000e 019B     		ldr	r3, [sp, #4]
 483 0010 1100     		movs	r1, r2
 484 0012 1800     		movs	r0, r3
 485 0014 FFF7FEFF 		bl	chSemResetI
 486              		.loc 5 124 0
 487 0018 FFF7FEFF 		bl	chSchRescheduleS
 488              		.loc 5 125 0
 489 001c FFF7FEFF 		bl	chSysUnlock
 490              		.loc 5 126 0
 491 0020 C046     		nop
 492 0022 03B0     		add	sp, sp, #12
 493              		@ sp needed
 494 0024 00BD     		pop	{pc}
 495              		.cfi_endproc
 496              	.LFE153:
 497              		.size	chSemReset, .-chSemReset
 498 0026 C046     		.section	.text.chSemResetI,"ax",%progbits
 499              		.align	1
 500              		.p2align 4,,15
 501              		.global	chSemResetI
 502              		.syntax unified
 503              		.code	16
 504              		.thumb_func
 505              		.fpu softvfp
 506              		.type	chSemResetI, %function
 507              	chSemResetI:
 508              	.LFB154:
 509              		.loc 5 147 0
 510              		.cfi_startproc
 511              		@ args = 0, pretend = 0, frame = 16
 512              		@ frame_needed = 0, uses_anonymous_args = 0
 513 0000 00B5     		push	{lr}
ARM GAS  /tmp/ccR802FU.s 			page 10


 514              		.cfi_def_cfa_offset 4
 515              		.cfi_offset 14, -4
 516 0002 85B0     		sub	sp, sp, #20
 517              		.cfi_def_cfa_offset 24
 518 0004 0190     		str	r0, [sp, #4]
 519 0006 0091     		str	r1, [sp]
 520              		.loc 5 150 0
 521 0008 FFF7FEFF 		bl	chDbgCheckClassI
 522              		.loc 5 151 0
 523 000c 019B     		ldr	r3, [sp, #4]
 524 000e 002B     		cmp	r3, #0
 525 0010 02D0     		beq	.L25
 526              		.loc 5 151 0 is_stmt 0 discriminator 3
 527 0012 009B     		ldr	r3, [sp]
 528 0014 002B     		cmp	r3, #0
 529 0016 03DA     		bge	.L32
 530              	.L25:
 531              		.loc 5 151 0 discriminator 4
 532 0018 204B     		ldr	r3, .L33
 533 001a 1800     		movs	r0, r3
 534 001c FFF7FEFF 		bl	chSysHalt
 535              	.L32:
 536              		.loc 5 152 0 is_stmt 1 discriminator 1
 537 0020 019B     		ldr	r3, [sp, #4]
 538 0022 9B68     		ldr	r3, [r3, #8]
 539 0024 002B     		cmp	r3, #0
 540 0026 0ADB     		blt	.L27
 541              		.loc 5 152 0 is_stmt 0 discriminator 3
 542 0028 019B     		ldr	r3, [sp, #4]
 543 002a 1800     		movs	r0, r3
 544 002c FFF7FEFF 		bl	queue_isempty
 545 0030 0300     		movs	r3, r0
 546 0032 1A00     		movs	r2, r3
 547 0034 0123     		movs	r3, #1
 548 0036 5340     		eors	r3, r2
 549 0038 DBB2     		uxtb	r3, r3
 550 003a 002B     		cmp	r3, #0
 551 003c 12D0     		beq	.L28
 552              	.L27:
 553              		.loc 5 152 0 discriminator 4
 554 003e 019B     		ldr	r3, [sp, #4]
 555 0040 9B68     		ldr	r3, [r3, #8]
 556 0042 002B     		cmp	r3, #0
 557 0044 0ADA     		bge	.L29
 558              		.loc 5 152 0 discriminator 6
 559 0046 019B     		ldr	r3, [sp, #4]
 560 0048 1800     		movs	r0, r3
 561 004a FFF7FEFF 		bl	queue_notempty
 562 004e 0300     		movs	r3, r0
 563 0050 1A00     		movs	r2, r3
 564 0052 0123     		movs	r3, #1
 565 0054 5340     		eors	r3, r2
 566 0056 DBB2     		uxtb	r3, r3
 567 0058 002B     		cmp	r3, #0
 568 005a 03D0     		beq	.L28
 569              	.L29:
 570              		.loc 5 152 0 discriminator 7
ARM GAS  /tmp/ccR802FU.s 			page 11


 571 005c 0F4B     		ldr	r3, .L33
 572 005e 1800     		movs	r0, r3
 573 0060 FFF7FEFF 		bl	chSysHalt
 574              	.L28:
 575              		.loc 5 156 0 is_stmt 1
 576 0064 019B     		ldr	r3, [sp, #4]
 577 0066 9B68     		ldr	r3, [r3, #8]
 578 0068 0393     		str	r3, [sp, #12]
 579              		.loc 5 157 0
 580 006a 019B     		ldr	r3, [sp, #4]
 581 006c 009A     		ldr	r2, [sp]
 582 006e 9A60     		str	r2, [r3, #8]
 583              		.loc 5 158 0
 584 0070 0BE0     		b	.L30
 585              	.L31:
 586              		.loc 5 159 0
 587 0072 019B     		ldr	r3, [sp, #4]
 588 0074 1800     		movs	r0, r3
 589 0076 FFF7FEFF 		bl	queue_lifo_remove
 590 007a 0300     		movs	r3, r0
 591 007c 1800     		movs	r0, r3
 592 007e FFF7FEFF 		bl	chSchReadyI
 593 0082 0300     		movs	r3, r0
 594 0084 0222     		movs	r2, #2
 595 0086 5242     		rsbs	r2, r2, #0
 596 0088 5A62     		str	r2, [r3, #36]
 597              	.L30:
 598              		.loc 5 158 0
 599 008a 039B     		ldr	r3, [sp, #12]
 600 008c 0133     		adds	r3, r3, #1
 601 008e 0393     		str	r3, [sp, #12]
 602 0090 039B     		ldr	r3, [sp, #12]
 603 0092 002B     		cmp	r3, #0
 604 0094 EDDD     		ble	.L31
 605              		.loc 5 161 0
 606 0096 C046     		nop
 607 0098 05B0     		add	sp, sp, #20
 608              		@ sp needed
 609 009a 00BD     		pop	{pc}
 610              	.L34:
 611              		.align	2
 612              	.L33:
 613 009c 00000000 		.word	__func__.5707
 614              		.cfi_endproc
 615              	.LFE154:
 616              		.size	chSemResetI, .-chSemResetI
 617              		.section	.text.chSemWait,"ax",%progbits
 618              		.align	1
 619              		.p2align 4,,15
 620              		.global	chSemWait
 621              		.syntax unified
 622              		.code	16
 623              		.thumb_func
 624              		.fpu softvfp
 625              		.type	chSemWait, %function
 626              	chSemWait:
 627              	.LFB155:
ARM GAS  /tmp/ccR802FU.s 			page 12


 628              		.loc 5 175 0
 629              		.cfi_startproc
 630              		@ args = 0, pretend = 0, frame = 16
 631              		@ frame_needed = 0, uses_anonymous_args = 0
 632 0000 00B5     		push	{lr}
 633              		.cfi_def_cfa_offset 4
 634              		.cfi_offset 14, -4
 635 0002 85B0     		sub	sp, sp, #20
 636              		.cfi_def_cfa_offset 24
 637 0004 0190     		str	r0, [sp, #4]
 638              		.loc 5 178 0
 639 0006 FFF7FEFF 		bl	chSysLock
 640              		.loc 5 179 0
 641 000a 019B     		ldr	r3, [sp, #4]
 642 000c 1800     		movs	r0, r3
 643 000e FFF7FEFF 		bl	chSemWaitS
 644 0012 0300     		movs	r3, r0
 645 0014 0393     		str	r3, [sp, #12]
 646              		.loc 5 180 0
 647 0016 FFF7FEFF 		bl	chSysUnlock
 648              		.loc 5 182 0
 649 001a 039B     		ldr	r3, [sp, #12]
 650              		.loc 5 183 0
 651 001c 1800     		movs	r0, r3
 652 001e 05B0     		add	sp, sp, #20
 653              		@ sp needed
 654 0020 00BD     		pop	{pc}
 655              		.cfi_endproc
 656              	.LFE155:
 657              		.size	chSemWait, .-chSemWait
 658 0022 C046     		.section	.text.chSemWaitS,"ax",%progbits
 659              		.align	1
 660              		.p2align 4,,15
 661              		.global	chSemWaitS
 662              		.syntax unified
 663              		.code	16
 664              		.thumb_func
 665              		.fpu softvfp
 666              		.type	chSemWaitS, %function
 667              	chSemWaitS:
 668              	.LFB156:
 669              		.loc 5 197 0
 670              		.cfi_startproc
 671              		@ args = 0, pretend = 0, frame = 8
 672              		@ frame_needed = 0, uses_anonymous_args = 0
 673 0000 00B5     		push	{lr}
 674              		.cfi_def_cfa_offset 4
 675              		.cfi_offset 14, -4
 676 0002 83B0     		sub	sp, sp, #12
 677              		.cfi_def_cfa_offset 16
 678 0004 0190     		str	r0, [sp, #4]
 679              		.loc 5 199 0
 680 0006 FFF7FEFF 		bl	chDbgCheckClassS
 681              		.loc 5 200 0
 682 000a 019B     		ldr	r3, [sp, #4]
 683 000c 002B     		cmp	r3, #0
 684 000e 03D1     		bne	.L44
ARM GAS  /tmp/ccR802FU.s 			page 13


 685              		.loc 5 200 0 is_stmt 0 discriminator 2
 686 0010 224B     		ldr	r3, .L45
 687 0012 1800     		movs	r0, r3
 688 0014 FFF7FEFF 		bl	chSysHalt
 689              	.L44:
 690              		.loc 5 201 0 is_stmt 1 discriminator 1
 691 0018 019B     		ldr	r3, [sp, #4]
 692 001a 9B68     		ldr	r3, [r3, #8]
 693 001c 002B     		cmp	r3, #0
 694 001e 0ADB     		blt	.L39
 695              		.loc 5 201 0 is_stmt 0 discriminator 3
 696 0020 019B     		ldr	r3, [sp, #4]
 697 0022 1800     		movs	r0, r3
 698 0024 FFF7FEFF 		bl	queue_isempty
 699 0028 0300     		movs	r3, r0
 700 002a 1A00     		movs	r2, r3
 701 002c 0123     		movs	r3, #1
 702 002e 5340     		eors	r3, r2
 703 0030 DBB2     		uxtb	r3, r3
 704 0032 002B     		cmp	r3, #0
 705 0034 12D0     		beq	.L40
 706              	.L39:
 707              		.loc 5 201 0 discriminator 4
 708 0036 019B     		ldr	r3, [sp, #4]
 709 0038 9B68     		ldr	r3, [r3, #8]
 710 003a 002B     		cmp	r3, #0
 711 003c 0ADA     		bge	.L41
 712              		.loc 5 201 0 discriminator 6
 713 003e 019B     		ldr	r3, [sp, #4]
 714 0040 1800     		movs	r0, r3
 715 0042 FFF7FEFF 		bl	queue_notempty
 716 0046 0300     		movs	r3, r0
 717 0048 1A00     		movs	r2, r3
 718 004a 0123     		movs	r3, #1
 719 004c 5340     		eors	r3, r2
 720 004e DBB2     		uxtb	r3, r3
 721 0050 002B     		cmp	r3, #0
 722 0052 03D0     		beq	.L40
 723              	.L41:
 724              		.loc 5 201 0 discriminator 7
 725 0054 114B     		ldr	r3, .L45
 726 0056 1800     		movs	r0, r3
 727 0058 FFF7FEFF 		bl	chSysHalt
 728              	.L40:
 729              		.loc 5 205 0 is_stmt 1
 730 005c 019B     		ldr	r3, [sp, #4]
 731 005e 9B68     		ldr	r3, [r3, #8]
 732 0060 5A1E     		subs	r2, r3, #1
 733 0062 019B     		ldr	r3, [sp, #4]
 734 0064 9A60     		str	r2, [r3, #8]
 735 0066 019B     		ldr	r3, [sp, #4]
 736 0068 9B68     		ldr	r3, [r3, #8]
 737 006a 002B     		cmp	r3, #0
 738 006c 11DA     		bge	.L42
 739              		.loc 5 206 0
 740 006e 0C4B     		ldr	r3, .L45+4
 741 0070 9B69     		ldr	r3, [r3, #24]
ARM GAS  /tmp/ccR802FU.s 			page 14


 742 0072 019A     		ldr	r2, [sp, #4]
 743 0074 5A62     		str	r2, [r3, #36]
 744              		.loc 5 207 0
 745 0076 0A4B     		ldr	r3, .L45+4
 746 0078 9B69     		ldr	r3, [r3, #24]
 747 007a 019A     		ldr	r2, [sp, #4]
 748 007c 1100     		movs	r1, r2
 749 007e 1800     		movs	r0, r3
 750 0080 FFF7FEFF 		bl	queue_insert
 751              		.loc 5 208 0
 752 0084 0520     		movs	r0, #5
 753 0086 FFF7FEFF 		bl	chSchGoSleepS
 754              		.loc 5 210 0
 755 008a 054B     		ldr	r3, .L45+4
 756 008c 9B69     		ldr	r3, [r3, #24]
 757 008e 5B6A     		ldr	r3, [r3, #36]
 758 0090 00E0     		b	.L43
 759              	.L42:
 760              		.loc 5 213 0
 761 0092 0023     		movs	r3, #0
 762              	.L43:
 763              		.loc 5 214 0
 764 0094 1800     		movs	r0, r3
 765 0096 03B0     		add	sp, sp, #12
 766              		@ sp needed
 767 0098 00BD     		pop	{pc}
 768              	.L46:
 769 009a C046     		.align	2
 770              	.L45:
 771 009c 00000000 		.word	__func__.5718
 772 00a0 00000000 		.word	ch
 773              		.cfi_endproc
 774              	.LFE156:
 775              		.size	chSemWaitS, .-chSemWaitS
 776              		.section	.text.chSemWaitTimeout,"ax",%progbits
 777              		.align	1
 778              		.p2align 4,,15
 779              		.global	chSemWaitTimeout
 780              		.syntax unified
 781              		.code	16
 782              		.thumb_func
 783              		.fpu softvfp
 784              		.type	chSemWaitTimeout, %function
 785              	chSemWaitTimeout:
 786              	.LFB157:
 787              		.loc 5 235 0
 788              		.cfi_startproc
 789              		@ args = 0, pretend = 0, frame = 16
 790              		@ frame_needed = 0, uses_anonymous_args = 0
 791 0000 00B5     		push	{lr}
 792              		.cfi_def_cfa_offset 4
 793              		.cfi_offset 14, -4
 794 0002 85B0     		sub	sp, sp, #20
 795              		.cfi_def_cfa_offset 24
 796 0004 0190     		str	r0, [sp, #4]
 797 0006 0A00     		movs	r2, r1
 798 0008 6B46     		mov	r3, sp
ARM GAS  /tmp/ccR802FU.s 			page 15


 799 000a 0233     		adds	r3, r3, #2
 800 000c 1A80     		strh	r2, [r3]
 801              		.loc 5 238 0
 802 000e FFF7FEFF 		bl	chSysLock
 803              		.loc 5 239 0
 804 0012 6B46     		mov	r3, sp
 805 0014 0233     		adds	r3, r3, #2
 806 0016 1A88     		ldrh	r2, [r3]
 807 0018 019B     		ldr	r3, [sp, #4]
 808 001a 1100     		movs	r1, r2
 809 001c 1800     		movs	r0, r3
 810 001e FFF7FEFF 		bl	chSemWaitTimeoutS
 811 0022 0300     		movs	r3, r0
 812 0024 0393     		str	r3, [sp, #12]
 813              		.loc 5 240 0
 814 0026 FFF7FEFF 		bl	chSysUnlock
 815              		.loc 5 242 0
 816 002a 039B     		ldr	r3, [sp, #12]
 817              		.loc 5 243 0
 818 002c 1800     		movs	r0, r3
 819 002e 05B0     		add	sp, sp, #20
 820              		@ sp needed
 821 0030 00BD     		pop	{pc}
 822              		.cfi_endproc
 823              	.LFE157:
 824              		.size	chSemWaitTimeout, .-chSemWaitTimeout
 825 0032 C046     		.section	.text.chSemWaitTimeoutS,"ax",%progbits
 826              		.align	1
 827              		.p2align 4,,15
 828              		.global	chSemWaitTimeoutS
 829              		.syntax unified
 830              		.code	16
 831              		.thumb_func
 832              		.fpu softvfp
 833              		.type	chSemWaitTimeoutS, %function
 834              	chSemWaitTimeoutS:
 835              	.LFB158:
 836              		.loc 5 264 0
 837              		.cfi_startproc
 838              		@ args = 0, pretend = 0, frame = 8
 839              		@ frame_needed = 0, uses_anonymous_args = 0
 840 0000 00B5     		push	{lr}
 841              		.cfi_def_cfa_offset 4
 842              		.cfi_offset 14, -4
 843 0002 83B0     		sub	sp, sp, #12
 844              		.cfi_def_cfa_offset 16
 845 0004 0190     		str	r0, [sp, #4]
 846 0006 0A00     		movs	r2, r1
 847 0008 6B46     		mov	r3, sp
 848 000a 0233     		adds	r3, r3, #2
 849 000c 1A80     		strh	r2, [r3]
 850              		.loc 5 266 0
 851 000e FFF7FEFF 		bl	chDbgCheckClassS
 852              		.loc 5 267 0
 853 0012 019B     		ldr	r3, [sp, #4]
 854 0014 002B     		cmp	r3, #0
 855 0016 03D1     		bne	.L57
ARM GAS  /tmp/ccR802FU.s 			page 16


 856              		.loc 5 267 0 is_stmt 0 discriminator 2
 857 0018 294B     		ldr	r3, .L58
 858 001a 1800     		movs	r0, r3
 859 001c FFF7FEFF 		bl	chSysHalt
 860              	.L57:
 861              		.loc 5 268 0 is_stmt 1 discriminator 1
 862 0020 019B     		ldr	r3, [sp, #4]
 863 0022 9B68     		ldr	r3, [r3, #8]
 864 0024 002B     		cmp	r3, #0
 865 0026 0ADB     		blt	.L51
 866              		.loc 5 268 0 is_stmt 0 discriminator 3
 867 0028 019B     		ldr	r3, [sp, #4]
 868 002a 1800     		movs	r0, r3
 869 002c FFF7FEFF 		bl	queue_isempty
 870 0030 0300     		movs	r3, r0
 871 0032 1A00     		movs	r2, r3
 872 0034 0123     		movs	r3, #1
 873 0036 5340     		eors	r3, r2
 874 0038 DBB2     		uxtb	r3, r3
 875 003a 002B     		cmp	r3, #0
 876 003c 12D0     		beq	.L52
 877              	.L51:
 878              		.loc 5 268 0 discriminator 4
 879 003e 019B     		ldr	r3, [sp, #4]
 880 0040 9B68     		ldr	r3, [r3, #8]
 881 0042 002B     		cmp	r3, #0
 882 0044 0ADA     		bge	.L53
 883              		.loc 5 268 0 discriminator 6
 884 0046 019B     		ldr	r3, [sp, #4]
 885 0048 1800     		movs	r0, r3
 886 004a FFF7FEFF 		bl	queue_notempty
 887 004e 0300     		movs	r3, r0
 888 0050 1A00     		movs	r2, r3
 889 0052 0123     		movs	r3, #1
 890 0054 5340     		eors	r3, r2
 891 0056 DBB2     		uxtb	r3, r3
 892 0058 002B     		cmp	r3, #0
 893 005a 03D0     		beq	.L52
 894              	.L53:
 895              		.loc 5 268 0 discriminator 7
 896 005c 184B     		ldr	r3, .L58
 897 005e 1800     		movs	r0, r3
 898 0060 FFF7FEFF 		bl	chSysHalt
 899              	.L52:
 900              		.loc 5 272 0 is_stmt 1
 901 0064 019B     		ldr	r3, [sp, #4]
 902 0066 9B68     		ldr	r3, [r3, #8]
 903 0068 5A1E     		subs	r2, r3, #1
 904 006a 019B     		ldr	r3, [sp, #4]
 905 006c 9A60     		str	r2, [r3, #8]
 906 006e 019B     		ldr	r3, [sp, #4]
 907 0070 9B68     		ldr	r3, [r3, #8]
 908 0072 002B     		cmp	r3, #0
 909 0074 20DA     		bge	.L54
 910              		.loc 5 273 0
 911 0076 6B46     		mov	r3, sp
 912 0078 0233     		adds	r3, r3, #2
ARM GAS  /tmp/ccR802FU.s 			page 17


 913 007a 1B88     		ldrh	r3, [r3]
 914 007c 002B     		cmp	r3, #0
 915 007e 07D1     		bne	.L55
 916              		.loc 5 274 0
 917 0080 019B     		ldr	r3, [sp, #4]
 918 0082 9B68     		ldr	r3, [r3, #8]
 919 0084 5A1C     		adds	r2, r3, #1
 920 0086 019B     		ldr	r3, [sp, #4]
 921 0088 9A60     		str	r2, [r3, #8]
 922              		.loc 5 276 0
 923 008a 0123     		movs	r3, #1
 924 008c 5B42     		rsbs	r3, r3, #0
 925 008e 14E0     		b	.L56
 926              	.L55:
 927              		.loc 5 278 0
 928 0090 0C4B     		ldr	r3, .L58+4
 929 0092 9B69     		ldr	r3, [r3, #24]
 930 0094 019A     		ldr	r2, [sp, #4]
 931 0096 5A62     		str	r2, [r3, #36]
 932              		.loc 5 279 0
 933 0098 0A4B     		ldr	r3, .L58+4
 934 009a 9B69     		ldr	r3, [r3, #24]
 935 009c 019A     		ldr	r2, [sp, #4]
 936 009e 1100     		movs	r1, r2
 937 00a0 1800     		movs	r0, r3
 938 00a2 FFF7FEFF 		bl	queue_insert
 939              		.loc 5 281 0
 940 00a6 6B46     		mov	r3, sp
 941 00a8 0233     		adds	r3, r3, #2
 942 00aa 1B88     		ldrh	r3, [r3]
 943 00ac 1900     		movs	r1, r3
 944 00ae 0520     		movs	r0, #5
 945 00b0 FFF7FEFF 		bl	chSchGoSleepTimeoutS
 946 00b4 0300     		movs	r3, r0
 947 00b6 00E0     		b	.L56
 948              	.L54:
 949              		.loc 5 284 0
 950 00b8 0023     		movs	r3, #0
 951              	.L56:
 952              		.loc 5 285 0
 953 00ba 1800     		movs	r0, r3
 954 00bc 03B0     		add	sp, sp, #12
 955              		@ sp needed
 956 00be 00BD     		pop	{pc}
 957              	.L59:
 958              		.align	2
 959              	.L58:
 960 00c0 00000000 		.word	__func__.5728
 961 00c4 00000000 		.word	ch
 962              		.cfi_endproc
 963              	.LFE158:
 964              		.size	chSemWaitTimeoutS, .-chSemWaitTimeoutS
 965              		.section	.text.chSemSignal,"ax",%progbits
 966              		.align	1
 967              		.p2align 4,,15
 968              		.global	chSemSignal
 969              		.syntax unified
ARM GAS  /tmp/ccR802FU.s 			page 18


 970              		.code	16
 971              		.thumb_func
 972              		.fpu softvfp
 973              		.type	chSemSignal, %function
 974              	chSemSignal:
 975              	.LFB159:
 976              		.loc 5 294 0
 977              		.cfi_startproc
 978              		@ args = 0, pretend = 0, frame = 8
 979              		@ frame_needed = 0, uses_anonymous_args = 0
 980 0000 00B5     		push	{lr}
 981              		.cfi_def_cfa_offset 4
 982              		.cfi_offset 14, -4
 983 0002 83B0     		sub	sp, sp, #12
 984              		.cfi_def_cfa_offset 16
 985 0004 0190     		str	r0, [sp, #4]
 986              		.loc 5 296 0
 987 0006 019B     		ldr	r3, [sp, #4]
 988 0008 002B     		cmp	r3, #0
 989 000a 03D1     		bne	.L66
 990              		.loc 5 296 0 is_stmt 0 discriminator 2
 991 000c 1F4B     		ldr	r3, .L67
 992 000e 1800     		movs	r0, r3
 993 0010 FFF7FEFF 		bl	chSysHalt
 994              	.L66:
 995              		.loc 5 297 0 is_stmt 1 discriminator 1
 996 0014 019B     		ldr	r3, [sp, #4]
 997 0016 9B68     		ldr	r3, [r3, #8]
 998 0018 002B     		cmp	r3, #0
 999 001a 0ADB     		blt	.L62
 1000              		.loc 5 297 0 is_stmt 0 discriminator 3
 1001 001c 019B     		ldr	r3, [sp, #4]
 1002 001e 1800     		movs	r0, r3
 1003 0020 FFF7FEFF 		bl	queue_isempty
 1004 0024 0300     		movs	r3, r0
 1005 0026 1A00     		movs	r2, r3
 1006 0028 0123     		movs	r3, #1
 1007 002a 5340     		eors	r3, r2
 1008 002c DBB2     		uxtb	r3, r3
 1009 002e 002B     		cmp	r3, #0
 1010 0030 12D0     		beq	.L63
 1011              	.L62:
 1012              		.loc 5 297 0 discriminator 4
 1013 0032 019B     		ldr	r3, [sp, #4]
 1014 0034 9B68     		ldr	r3, [r3, #8]
 1015 0036 002B     		cmp	r3, #0
 1016 0038 0ADA     		bge	.L64
 1017              		.loc 5 297 0 discriminator 6
 1018 003a 019B     		ldr	r3, [sp, #4]
 1019 003c 1800     		movs	r0, r3
 1020 003e FFF7FEFF 		bl	queue_notempty
 1021 0042 0300     		movs	r3, r0
 1022 0044 1A00     		movs	r2, r3
 1023 0046 0123     		movs	r3, #1
 1024 0048 5340     		eors	r3, r2
 1025 004a DBB2     		uxtb	r3, r3
 1026 004c 002B     		cmp	r3, #0
ARM GAS  /tmp/ccR802FU.s 			page 19


 1027 004e 03D0     		beq	.L63
 1028              	.L64:
 1029              		.loc 5 297 0 discriminator 7
 1030 0050 0E4B     		ldr	r3, .L67
 1031 0052 1800     		movs	r0, r3
 1032 0054 FFF7FEFF 		bl	chSysHalt
 1033              	.L63:
 1034              		.loc 5 301 0 is_stmt 1
 1035 0058 FFF7FEFF 		bl	chSysLock
 1036              		.loc 5 302 0
 1037 005c 019B     		ldr	r3, [sp, #4]
 1038 005e 9B68     		ldr	r3, [r3, #8]
 1039 0060 5A1C     		adds	r2, r3, #1
 1040 0062 019B     		ldr	r3, [sp, #4]
 1041 0064 9A60     		str	r2, [r3, #8]
 1042 0066 019B     		ldr	r3, [sp, #4]
 1043 0068 9B68     		ldr	r3, [r3, #8]
 1044 006a 002B     		cmp	r3, #0
 1045 006c 08DC     		bgt	.L65
 1046              		.loc 5 303 0
 1047 006e 019B     		ldr	r3, [sp, #4]
 1048 0070 1800     		movs	r0, r3
 1049 0072 FFF7FEFF 		bl	queue_fifo_remove
 1050 0076 0300     		movs	r3, r0
 1051 0078 0021     		movs	r1, #0
 1052 007a 1800     		movs	r0, r3
 1053 007c FFF7FEFF 		bl	chSchWakeupS
 1054              	.L65:
 1055              		.loc 5 305 0
 1056 0080 FFF7FEFF 		bl	chSysUnlock
 1057              		.loc 5 306 0
 1058 0084 C046     		nop
 1059 0086 03B0     		add	sp, sp, #12
 1060              		@ sp needed
 1061 0088 00BD     		pop	{pc}
 1062              	.L68:
 1063 008a C046     		.align	2
 1064              	.L67:
 1065 008c 00000000 		.word	__func__.5732
 1066              		.cfi_endproc
 1067              	.LFE159:
 1068              		.size	chSemSignal, .-chSemSignal
 1069              		.section	.text.chSemSignalI,"ax",%progbits
 1070              		.align	1
 1071              		.p2align 4,,15
 1072              		.global	chSemSignalI
 1073              		.syntax unified
 1074              		.code	16
 1075              		.thumb_func
 1076              		.fpu softvfp
 1077              		.type	chSemSignalI, %function
 1078              	chSemSignalI:
 1079              	.LFB160:
 1080              		.loc 5 319 0
 1081              		.cfi_startproc
 1082              		@ args = 0, pretend = 0, frame = 16
 1083              		@ frame_needed = 0, uses_anonymous_args = 0
ARM GAS  /tmp/ccR802FU.s 			page 20


 1084 0000 00B5     		push	{lr}
 1085              		.cfi_def_cfa_offset 4
 1086              		.cfi_offset 14, -4
 1087 0002 85B0     		sub	sp, sp, #20
 1088              		.cfi_def_cfa_offset 24
 1089 0004 0190     		str	r0, [sp, #4]
 1090              		.loc 5 321 0
 1091 0006 FFF7FEFF 		bl	chDbgCheckClassI
 1092              		.loc 5 322 0
 1093 000a 019B     		ldr	r3, [sp, #4]
 1094 000c 002B     		cmp	r3, #0
 1095 000e 03D1     		bne	.L75
 1096              		.loc 5 322 0 is_stmt 0 discriminator 2
 1097 0010 1F4B     		ldr	r3, .L77
 1098 0012 1800     		movs	r0, r3
 1099 0014 FFF7FEFF 		bl	chSysHalt
 1100              	.L75:
 1101              		.loc 5 323 0 is_stmt 1 discriminator 1
 1102 0018 019B     		ldr	r3, [sp, #4]
 1103 001a 9B68     		ldr	r3, [r3, #8]
 1104 001c 002B     		cmp	r3, #0
 1105 001e 0ADB     		blt	.L71
 1106              		.loc 5 323 0 is_stmt 0 discriminator 3
 1107 0020 019B     		ldr	r3, [sp, #4]
 1108 0022 1800     		movs	r0, r3
 1109 0024 FFF7FEFF 		bl	queue_isempty
 1110 0028 0300     		movs	r3, r0
 1111 002a 1A00     		movs	r2, r3
 1112 002c 0123     		movs	r3, #1
 1113 002e 5340     		eors	r3, r2
 1114 0030 DBB2     		uxtb	r3, r3
 1115 0032 002B     		cmp	r3, #0
 1116 0034 12D0     		beq	.L72
 1117              	.L71:
 1118              		.loc 5 323 0 discriminator 4
 1119 0036 019B     		ldr	r3, [sp, #4]
 1120 0038 9B68     		ldr	r3, [r3, #8]
 1121 003a 002B     		cmp	r3, #0
 1122 003c 0ADA     		bge	.L73
 1123              		.loc 5 323 0 discriminator 6
 1124 003e 019B     		ldr	r3, [sp, #4]
 1125 0040 1800     		movs	r0, r3
 1126 0042 FFF7FEFF 		bl	queue_notempty
 1127 0046 0300     		movs	r3, r0
 1128 0048 1A00     		movs	r2, r3
 1129 004a 0123     		movs	r3, #1
 1130 004c 5340     		eors	r3, r2
 1131 004e DBB2     		uxtb	r3, r3
 1132 0050 002B     		cmp	r3, #0
 1133 0052 03D0     		beq	.L72
 1134              	.L73:
 1135              		.loc 5 323 0 discriminator 7
 1136 0054 0E4B     		ldr	r3, .L77
 1137 0056 1800     		movs	r0, r3
 1138 0058 FFF7FEFF 		bl	chSysHalt
 1139              	.L72:
 1140              		.loc 5 327 0 is_stmt 1
ARM GAS  /tmp/ccR802FU.s 			page 21


 1141 005c 019B     		ldr	r3, [sp, #4]
 1142 005e 9B68     		ldr	r3, [r3, #8]
 1143 0060 5A1C     		adds	r2, r3, #1
 1144 0062 019B     		ldr	r3, [sp, #4]
 1145 0064 9A60     		str	r2, [r3, #8]
 1146 0066 019B     		ldr	r3, [sp, #4]
 1147 0068 9B68     		ldr	r3, [r3, #8]
 1148 006a 002B     		cmp	r3, #0
 1149 006c 0CDC     		bgt	.L76
 1150              	.LBB10:
 1151              		.loc 5 330 0
 1152 006e 019B     		ldr	r3, [sp, #4]
 1153 0070 1800     		movs	r0, r3
 1154 0072 FFF7FEFF 		bl	queue_fifo_remove
 1155 0076 0300     		movs	r3, r0
 1156 0078 0393     		str	r3, [sp, #12]
 1157              		.loc 5 331 0
 1158 007a 039B     		ldr	r3, [sp, #12]
 1159 007c 0022     		movs	r2, #0
 1160 007e 5A62     		str	r2, [r3, #36]
 1161              		.loc 5 332 0
 1162 0080 039B     		ldr	r3, [sp, #12]
 1163 0082 1800     		movs	r0, r3
 1164 0084 FFF7FEFF 		bl	chSchReadyI
 1165              	.L76:
 1166              	.LBE10:
 1167              		.loc 5 334 0
 1168 0088 C046     		nop
 1169 008a 05B0     		add	sp, sp, #20
 1170              		@ sp needed
 1171 008c 00BD     		pop	{pc}
 1172              	.L78:
 1173 008e C046     		.align	2
 1174              	.L77:
 1175 0090 00000000 		.word	__func__.5736
 1176              		.cfi_endproc
 1177              	.LFE160:
 1178              		.size	chSemSignalI, .-chSemSignalI
 1179              		.section	.text.chSemAddCounterI,"ax",%progbits
 1180              		.align	1
 1181              		.p2align 4,,15
 1182              		.global	chSemAddCounterI
 1183              		.syntax unified
 1184              		.code	16
 1185              		.thumb_func
 1186              		.fpu softvfp
 1187              		.type	chSemAddCounterI, %function
 1188              	chSemAddCounterI:
 1189              	.LFB161:
 1190              		.loc 5 349 0
 1191              		.cfi_startproc
 1192              		@ args = 0, pretend = 0, frame = 8
 1193              		@ frame_needed = 0, uses_anonymous_args = 0
 1194 0000 00B5     		push	{lr}
 1195              		.cfi_def_cfa_offset 4
 1196              		.cfi_offset 14, -4
 1197 0002 83B0     		sub	sp, sp, #12
ARM GAS  /tmp/ccR802FU.s 			page 22


 1198              		.cfi_def_cfa_offset 16
 1199 0004 0190     		str	r0, [sp, #4]
 1200 0006 0091     		str	r1, [sp]
 1201              		.loc 5 351 0
 1202 0008 FFF7FEFF 		bl	chDbgCheckClassI
 1203              		.loc 5 352 0
 1204 000c 019B     		ldr	r3, [sp, #4]
 1205 000e 002B     		cmp	r3, #0
 1206 0010 02D0     		beq	.L80
 1207              		.loc 5 352 0 is_stmt 0 discriminator 3
 1208 0012 009B     		ldr	r3, [sp]
 1209 0014 002B     		cmp	r3, #0
 1210 0016 03DC     		bgt	.L88
 1211              	.L80:
 1212              		.loc 5 352 0 discriminator 4
 1213 0018 214B     		ldr	r3, .L89
 1214 001a 1800     		movs	r0, r3
 1215 001c FFF7FEFF 		bl	chSysHalt
 1216              	.L88:
 1217              		.loc 5 353 0 is_stmt 1 discriminator 1
 1218 0020 019B     		ldr	r3, [sp, #4]
 1219 0022 9B68     		ldr	r3, [r3, #8]
 1220 0024 002B     		cmp	r3, #0
 1221 0026 0ADB     		blt	.L82
 1222              		.loc 5 353 0 is_stmt 0 discriminator 3
 1223 0028 019B     		ldr	r3, [sp, #4]
 1224 002a 1800     		movs	r0, r3
 1225 002c FFF7FEFF 		bl	queue_isempty
 1226 0030 0300     		movs	r3, r0
 1227 0032 1A00     		movs	r2, r3
 1228 0034 0123     		movs	r3, #1
 1229 0036 5340     		eors	r3, r2
 1230 0038 DBB2     		uxtb	r3, r3
 1231 003a 002B     		cmp	r3, #0
 1232 003c 2AD0     		beq	.L85
 1233              	.L82:
 1234              		.loc 5 353 0 discriminator 4
 1235 003e 019B     		ldr	r3, [sp, #4]
 1236 0040 9B68     		ldr	r3, [r3, #8]
 1237 0042 002B     		cmp	r3, #0
 1238 0044 0ADA     		bge	.L84
 1239              		.loc 5 353 0 discriminator 6
 1240 0046 019B     		ldr	r3, [sp, #4]
 1241 0048 1800     		movs	r0, r3
 1242 004a FFF7FEFF 		bl	queue_notempty
 1243 004e 0300     		movs	r3, r0
 1244 0050 1A00     		movs	r2, r3
 1245 0052 0123     		movs	r3, #1
 1246 0054 5340     		eors	r3, r2
 1247 0056 DBB2     		uxtb	r3, r3
 1248 0058 002B     		cmp	r3, #0
 1249 005a 1BD0     		beq	.L85
 1250              	.L84:
 1251              		.loc 5 353 0 discriminator 7
 1252 005c 104B     		ldr	r3, .L89
 1253 005e 1800     		movs	r0, r3
 1254 0060 FFF7FEFF 		bl	chSysHalt
ARM GAS  /tmp/ccR802FU.s 			page 23


 1255              		.loc 5 357 0 is_stmt 1 discriminator 7
 1256 0064 16E0     		b	.L85
 1257              	.L87:
 1258              		.loc 5 358 0
 1259 0066 019B     		ldr	r3, [sp, #4]
 1260 0068 9B68     		ldr	r3, [r3, #8]
 1261 006a 5A1C     		adds	r2, r3, #1
 1262 006c 019B     		ldr	r3, [sp, #4]
 1263 006e 9A60     		str	r2, [r3, #8]
 1264 0070 019B     		ldr	r3, [sp, #4]
 1265 0072 9B68     		ldr	r3, [r3, #8]
 1266 0074 002B     		cmp	r3, #0
 1267 0076 0ADC     		bgt	.L86
 1268              		.loc 5 359 0
 1269 0078 019B     		ldr	r3, [sp, #4]
 1270 007a 1800     		movs	r0, r3
 1271 007c FFF7FEFF 		bl	queue_fifo_remove
 1272 0080 0300     		movs	r3, r0
 1273 0082 1800     		movs	r0, r3
 1274 0084 FFF7FEFF 		bl	chSchReadyI
 1275 0088 0300     		movs	r3, r0
 1276 008a 0022     		movs	r2, #0
 1277 008c 5A62     		str	r2, [r3, #36]
 1278              	.L86:
 1279              		.loc 5 361 0
 1280 008e 009B     		ldr	r3, [sp]
 1281 0090 013B     		subs	r3, r3, #1
 1282 0092 0093     		str	r3, [sp]
 1283              	.L85:
 1284              		.loc 5 357 0
 1285 0094 009B     		ldr	r3, [sp]
 1286 0096 002B     		cmp	r3, #0
 1287 0098 E5DC     		bgt	.L87
 1288              		.loc 5 363 0
 1289 009a C046     		nop
 1290 009c 03B0     		add	sp, sp, #12
 1291              		@ sp needed
 1292 009e 00BD     		pop	{pc}
 1293              	.L90:
 1294              		.align	2
 1295              	.L89:
 1296 00a0 00000000 		.word	__func__.5742
 1297              		.cfi_endproc
 1298              	.LFE161:
 1299              		.size	chSemAddCounterI, .-chSemAddCounterI
 1300              		.section	.text.chSemSignalWait,"ax",%progbits
 1301              		.align	1
 1302              		.p2align 4,,15
 1303              		.global	chSemSignalWait
 1304              		.syntax unified
 1305              		.code	16
 1306              		.thumb_func
 1307              		.fpu softvfp
 1308              		.type	chSemSignalWait, %function
 1309              	chSemSignalWait:
 1310              	.LFB162:
 1311              		.loc 5 378 0
ARM GAS  /tmp/ccR802FU.s 			page 24


 1312              		.cfi_startproc
 1313              		@ args = 0, pretend = 0, frame = 16
 1314              		@ frame_needed = 0, uses_anonymous_args = 0
 1315 0000 00B5     		push	{lr}
 1316              		.cfi_def_cfa_offset 4
 1317              		.cfi_offset 14, -4
 1318 0002 85B0     		sub	sp, sp, #20
 1319              		.cfi_def_cfa_offset 24
 1320 0004 0190     		str	r0, [sp, #4]
 1321 0006 0091     		str	r1, [sp]
 1322              		.loc 5 381 0
 1323 0008 019B     		ldr	r3, [sp, #4]
 1324 000a 002B     		cmp	r3, #0
 1325 000c 02D0     		beq	.L92
 1326              		.loc 5 381 0 is_stmt 0 discriminator 3
 1327 000e 009B     		ldr	r3, [sp]
 1328 0010 002B     		cmp	r3, #0
 1329 0012 03D1     		bne	.L104
 1330              	.L92:
 1331              		.loc 5 381 0 discriminator 4
 1332 0014 414B     		ldr	r3, .L106
 1333 0016 1800     		movs	r0, r3
 1334 0018 FFF7FEFF 		bl	chSysHalt
 1335              	.L104:
 1336              		.loc 5 382 0 is_stmt 1 discriminator 1
 1337 001c 019B     		ldr	r3, [sp, #4]
 1338 001e 9B68     		ldr	r3, [r3, #8]
 1339 0020 002B     		cmp	r3, #0
 1340 0022 0ADB     		blt	.L94
 1341              		.loc 5 382 0 is_stmt 0 discriminator 3
 1342 0024 019B     		ldr	r3, [sp, #4]
 1343 0026 1800     		movs	r0, r3
 1344 0028 FFF7FEFF 		bl	queue_isempty
 1345 002c 0300     		movs	r3, r0
 1346 002e 1A00     		movs	r2, r3
 1347 0030 0123     		movs	r3, #1
 1348 0032 5340     		eors	r3, r2
 1349 0034 DBB2     		uxtb	r3, r3
 1350 0036 002B     		cmp	r3, #0
 1351 0038 12D0     		beq	.L105
 1352              	.L94:
 1353              		.loc 5 382 0 discriminator 4
 1354 003a 019B     		ldr	r3, [sp, #4]
 1355 003c 9B68     		ldr	r3, [r3, #8]
 1356 003e 002B     		cmp	r3, #0
 1357 0040 0ADA     		bge	.L96
 1358              		.loc 5 382 0 discriminator 6
 1359 0042 019B     		ldr	r3, [sp, #4]
 1360 0044 1800     		movs	r0, r3
 1361 0046 FFF7FEFF 		bl	queue_notempty
 1362 004a 0300     		movs	r3, r0
 1363 004c 1A00     		movs	r2, r3
 1364 004e 0123     		movs	r3, #1
 1365 0050 5340     		eors	r3, r2
 1366 0052 DBB2     		uxtb	r3, r3
 1367 0054 002B     		cmp	r3, #0
 1368 0056 03D0     		beq	.L105
ARM GAS  /tmp/ccR802FU.s 			page 25


 1369              	.L96:
 1370              		.loc 5 382 0 discriminator 7
 1371 0058 304B     		ldr	r3, .L106
 1372 005a 1800     		movs	r0, r3
 1373 005c FFF7FEFF 		bl	chSysHalt
 1374              	.L105:
 1375              		.loc 5 385 0 is_stmt 1 discriminator 1
 1376 0060 009B     		ldr	r3, [sp]
 1377 0062 9B68     		ldr	r3, [r3, #8]
 1378 0064 002B     		cmp	r3, #0
 1379 0066 0ADB     		blt	.L97
 1380              		.loc 5 385 0 is_stmt 0 discriminator 3
 1381 0068 009B     		ldr	r3, [sp]
 1382 006a 1800     		movs	r0, r3
 1383 006c FFF7FEFF 		bl	queue_isempty
 1384 0070 0300     		movs	r3, r0
 1385 0072 1A00     		movs	r2, r3
 1386 0074 0123     		movs	r3, #1
 1387 0076 5340     		eors	r3, r2
 1388 0078 DBB2     		uxtb	r3, r3
 1389 007a 002B     		cmp	r3, #0
 1390 007c 12D0     		beq	.L98
 1391              	.L97:
 1392              		.loc 5 385 0 discriminator 4
 1393 007e 009B     		ldr	r3, [sp]
 1394 0080 9B68     		ldr	r3, [r3, #8]
 1395 0082 002B     		cmp	r3, #0
 1396 0084 0ADA     		bge	.L99
 1397              		.loc 5 385 0 discriminator 6
 1398 0086 009B     		ldr	r3, [sp]
 1399 0088 1800     		movs	r0, r3
 1400 008a FFF7FEFF 		bl	queue_notempty
 1401 008e 0300     		movs	r3, r0
 1402 0090 1A00     		movs	r2, r3
 1403 0092 0123     		movs	r3, #1
 1404 0094 5340     		eors	r3, r2
 1405 0096 DBB2     		uxtb	r3, r3
 1406 0098 002B     		cmp	r3, #0
 1407 009a 03D0     		beq	.L98
 1408              	.L99:
 1409              		.loc 5 385 0 discriminator 7
 1410 009c 1F4B     		ldr	r3, .L106
 1411 009e 1800     		movs	r0, r3
 1412 00a0 FFF7FEFF 		bl	chSysHalt
 1413              	.L98:
 1414              		.loc 5 389 0 is_stmt 1
 1415 00a4 FFF7FEFF 		bl	chSysLock
 1416              		.loc 5 390 0
 1417 00a8 019B     		ldr	r3, [sp, #4]
 1418 00aa 9B68     		ldr	r3, [r3, #8]
 1419 00ac 5A1C     		adds	r2, r3, #1
 1420 00ae 019B     		ldr	r3, [sp, #4]
 1421 00b0 9A60     		str	r2, [r3, #8]
 1422 00b2 019B     		ldr	r3, [sp, #4]
 1423 00b4 9B68     		ldr	r3, [r3, #8]
 1424 00b6 002B     		cmp	r3, #0
 1425 00b8 0ADC     		bgt	.L100
ARM GAS  /tmp/ccR802FU.s 			page 26


 1426              		.loc 5 391 0
 1427 00ba 019B     		ldr	r3, [sp, #4]
 1428 00bc 1800     		movs	r0, r3
 1429 00be FFF7FEFF 		bl	queue_fifo_remove
 1430 00c2 0300     		movs	r3, r0
 1431 00c4 1800     		movs	r0, r3
 1432 00c6 FFF7FEFF 		bl	chSchReadyI
 1433 00ca 0300     		movs	r3, r0
 1434 00cc 0022     		movs	r2, #0
 1435 00ce 5A62     		str	r2, [r3, #36]
 1436              	.L100:
 1437              		.loc 5 393 0
 1438 00d0 009B     		ldr	r3, [sp]
 1439 00d2 9B68     		ldr	r3, [r3, #8]
 1440 00d4 5A1E     		subs	r2, r3, #1
 1441 00d6 009B     		ldr	r3, [sp]
 1442 00d8 9A60     		str	r2, [r3, #8]
 1443 00da 009B     		ldr	r3, [sp]
 1444 00dc 9B68     		ldr	r3, [r3, #8]
 1445 00de 002B     		cmp	r3, #0
 1446 00e0 12DA     		bge	.L101
 1447              	.LBB11:
 1448              		.loc 5 394 0
 1449 00e2 0F4B     		ldr	r3, .L106+4
 1450 00e4 9B69     		ldr	r3, [r3, #24]
 1451 00e6 0293     		str	r3, [sp, #8]
 1452              		.loc 5 395 0
 1453 00e8 009A     		ldr	r2, [sp]
 1454 00ea 029B     		ldr	r3, [sp, #8]
 1455 00ec 1100     		movs	r1, r2
 1456 00ee 1800     		movs	r0, r3
 1457 00f0 FFF7FEFF 		bl	queue_insert
 1458              		.loc 5 396 0
 1459 00f4 029B     		ldr	r3, [sp, #8]
 1460 00f6 009A     		ldr	r2, [sp]
 1461 00f8 5A62     		str	r2, [r3, #36]
 1462              		.loc 5 397 0
 1463 00fa 0520     		movs	r0, #5
 1464 00fc FFF7FEFF 		bl	chSchGoSleepS
 1465              		.loc 5 398 0
 1466 0100 029B     		ldr	r3, [sp, #8]
 1467 0102 5B6A     		ldr	r3, [r3, #36]
 1468 0104 0393     		str	r3, [sp, #12]
 1469              	.LBE11:
 1470 0106 03E0     		b	.L102
 1471              	.L101:
 1472              		.loc 5 401 0
 1473 0108 FFF7FEFF 		bl	chSchRescheduleS
 1474              		.loc 5 402 0
 1475 010c 0023     		movs	r3, #0
 1476 010e 0393     		str	r3, [sp, #12]
 1477              	.L102:
 1478              		.loc 5 404 0
 1479 0110 FFF7FEFF 		bl	chSysUnlock
 1480              		.loc 5 406 0
 1481 0114 039B     		ldr	r3, [sp, #12]
 1482              		.loc 5 407 0
ARM GAS  /tmp/ccR802FU.s 			page 27


 1483 0116 1800     		movs	r0, r3
 1484 0118 05B0     		add	sp, sp, #20
 1485              		@ sp needed
 1486 011a 00BD     		pop	{pc}
 1487              	.L107:
 1488              		.align	2
 1489              	.L106:
 1490 011c 00000000 		.word	__func__.5751
 1491 0120 00000000 		.word	ch
 1492              		.cfi_endproc
 1493              	.LFE162:
 1494              		.size	chSemSignalWait, .-chSemSignalWait
 1495              		.section	.rodata.__func__.5697,"a",%progbits
 1496              		.align	2
 1497              		.type	__func__.5697, %object
 1498              		.size	__func__.5697, 16
 1499              	__func__.5697:
 1500 0000 63685365 		.ascii	"chSemObjectInit\000"
 1500      6D4F626A 
 1500      65637449 
 1500      6E697400 
 1501              		.section	.rodata.__func__.4993,"a",%progbits
 1502              		.align	2
 1503              		.type	__func__.4993, %object
 1504              		.size	__func__.4993, 12
 1505              	__func__.4993:
 1506 0000 63685379 		.ascii	"chSysUnlock\000"
 1506      73556E6C 
 1506      6F636B00 
 1507              		.section	.rodata.__func__.5707,"a",%progbits
 1508              		.align	2
 1509              		.type	__func__.5707, %object
 1510              		.size	__func__.5707, 12
 1511              	__func__.5707:
 1512 0000 63685365 		.ascii	"chSemResetI\000"
 1512      6D526573 
 1512      65744900 
 1513              		.section	.rodata.__func__.5718,"a",%progbits
 1514              		.align	2
 1515              		.type	__func__.5718, %object
 1516              		.size	__func__.5718, 11
 1517              	__func__.5718:
 1518 0000 63685365 		.ascii	"chSemWaitS\000"
 1518      6D576169 
 1518      745300
 1519              		.section	.rodata.__func__.5728,"a",%progbits
 1520              		.align	2
 1521              		.type	__func__.5728, %object
 1522              		.size	__func__.5728, 18
 1523              	__func__.5728:
 1524 0000 63685365 		.ascii	"chSemWaitTimeoutS\000"
 1524      6D576169 
 1524      7454696D 
 1524      656F7574 
 1524      5300
 1525              		.section	.rodata.__func__.5732,"a",%progbits
 1526              		.align	2
ARM GAS  /tmp/ccR802FU.s 			page 28


 1527              		.type	__func__.5732, %object
 1528              		.size	__func__.5732, 12
 1529              	__func__.5732:
 1530 0000 63685365 		.ascii	"chSemSignal\000"
 1530      6D536967 
 1530      6E616C00 
 1531              		.section	.rodata.__func__.5736,"a",%progbits
 1532              		.align	2
 1533              		.type	__func__.5736, %object
 1534              		.size	__func__.5736, 13
 1535              	__func__.5736:
 1536 0000 63685365 		.ascii	"chSemSignalI\000"
 1536      6D536967 
 1536      6E616C49 
 1536      00
 1537              		.section	.rodata.__func__.5742,"a",%progbits
 1538              		.align	2
 1539              		.type	__func__.5742, %object
 1540              		.size	__func__.5742, 17
 1541              	__func__.5742:
 1542 0000 63685365 		.ascii	"chSemAddCounterI\000"
 1542      6D416464 
 1542      436F756E 
 1542      74657249 
 1542      00
 1543              		.section	.rodata.__func__.5751,"a",%progbits
 1544              		.align	2
 1545              		.type	__func__.5751, %object
 1546              		.size	__func__.5751, 16
 1547              	__func__.5751:
 1548 0000 63685365 		.ascii	"chSemSignalWait\000"
 1548      6D536967 
 1548      6E616C57 
 1548      61697400 
 1549              		.text
 1550              	.Letext0:
 1551              		.file 6 "/home/felix/opt/gcc-arm-none-eabi-6-2017-q1-update/arm-none-eabi/include/machine/_default
 1552              		.file 7 "/home/felix/opt/gcc-arm-none-eabi-6-2017-q1-update/arm-none-eabi/include/sys/_stdint.h"
 1553              		.file 8 "ChibiOS/os/rt/ports/ARMCMx/compilers/GCC/chtypes.h"
 1554              		.file 9 "ChibiOS/os/rt/include/chsystypes.h"
 1555              		.file 10 "ChibiOS/os/rt/ports/ARMCMx/chcore.h"
 1556              		.file 11 "ChibiOS/os/rt/include/chdebug.h"
 1557              		.file 12 "ChibiOS/os/rt/include/chsem.h"
 1558              		.file 13 "ChibiOS/os/rt/include/chmtx.h"
 1559              		.file 14 "ChibiOS/os/rt/include/chregistry.h"
 1560              		.file 15 "ChibiOS/os/ext/CMSIS/ST/STM32F0xx/system_stm32f0xx.h"
 1561              		.section	.debug_info,"",%progbits
 1562              	.Ldebug_info0:
 1563 0000 1D0D0000 		.4byte	0xd1d
 1564 0004 0400     		.2byte	0x4
 1565 0006 00000000 		.4byte	.Ldebug_abbrev0
 1566 000a 04       		.byte	0x4
 1567 000b 01       		.uleb128 0x1
 1568 000c C7020000 		.4byte	.LASF161
 1569 0010 0C       		.byte	0xc
 1570 0011 E1070000 		.4byte	.LASF162
 1571 0015 DE030000 		.4byte	.LASF163
ARM GAS  /tmp/ccR802FU.s 			page 29


 1572 0019 00000000 		.4byte	.Ldebug_ranges0+0
 1573 001d 00000000 		.4byte	0
 1574 0021 00000000 		.4byte	.Ldebug_line0
 1575 0025 02       		.uleb128 0x2
 1576 0026 04       		.byte	0x4
 1577 0027 05       		.byte	0x5
 1578 0028 696E7400 		.ascii	"int\000"
 1579 002c 03       		.uleb128 0x3
 1580 002d 04       		.byte	0x4
 1581 002e 07       		.byte	0x7
 1582 002f 93000000 		.4byte	.LASF0
 1583 0033 03       		.uleb128 0x3
 1584 0034 08       		.byte	0x8
 1585 0035 05       		.byte	0x5
 1586 0036 C2040000 		.4byte	.LASF1
 1587 003a 03       		.uleb128 0x3
 1588 003b 08       		.byte	0x8
 1589 003c 04       		.byte	0x4
 1590 003d 66050000 		.4byte	.LASF2
 1591 0041 03       		.uleb128 0x3
 1592 0042 01       		.byte	0x1
 1593 0043 06       		.byte	0x6
 1594 0044 68070000 		.4byte	.LASF3
 1595 0048 04       		.uleb128 0x4
 1596 0049 38060000 		.4byte	.LASF6
 1597 004d 06       		.byte	0x6
 1598 004e 2B       		.byte	0x2b
 1599 004f 53000000 		.4byte	0x53
 1600 0053 03       		.uleb128 0x3
 1601 0054 01       		.byte	0x1
 1602 0055 08       		.byte	0x8
 1603 0056 EF060000 		.4byte	.LASF4
 1604 005a 03       		.uleb128 0x3
 1605 005b 02       		.byte	0x2
 1606 005c 05       		.byte	0x5
 1607 005d A4050000 		.4byte	.LASF5
 1608 0061 04       		.uleb128 0x4
 1609 0062 0D020000 		.4byte	.LASF7
 1610 0066 06       		.byte	0x6
 1611 0067 39       		.byte	0x39
 1612 0068 6C000000 		.4byte	0x6c
 1613 006c 03       		.uleb128 0x3
 1614 006d 02       		.byte	0x2
 1615 006e 07       		.byte	0x7
 1616 006f 81070000 		.4byte	.LASF8
 1617 0073 04       		.uleb128 0x4
 1618 0074 BA000000 		.4byte	.LASF9
 1619 0078 06       		.byte	0x6
 1620 0079 4D       		.byte	0x4d
 1621 007a 7E000000 		.4byte	0x7e
 1622 007e 03       		.uleb128 0x3
 1623 007f 04       		.byte	0x4
 1624 0080 05       		.byte	0x5
 1625 0081 CB050000 		.4byte	.LASF10
 1626 0085 04       		.uleb128 0x4
 1627 0086 FD060000 		.4byte	.LASF11
 1628 008a 06       		.byte	0x6
ARM GAS  /tmp/ccR802FU.s 			page 30


 1629 008b 4F       		.byte	0x4f
 1630 008c 90000000 		.4byte	0x90
 1631 0090 03       		.uleb128 0x3
 1632 0091 04       		.byte	0x4
 1633 0092 07       		.byte	0x7
 1634 0093 74060000 		.4byte	.LASF12
 1635 0097 04       		.uleb128 0x4
 1636 0098 9E030000 		.4byte	.LASF13
 1637 009c 06       		.byte	0x6
 1638 009d 69       		.byte	0x69
 1639 009e A2000000 		.4byte	0xa2
 1640 00a2 03       		.uleb128 0x3
 1641 00a3 08       		.byte	0x8
 1642 00a4 07       		.byte	0x7
 1643 00a5 EC010000 		.4byte	.LASF14
 1644 00a9 04       		.uleb128 0x4
 1645 00aa 6B040000 		.4byte	.LASF15
 1646 00ae 07       		.byte	0x7
 1647 00af 18       		.byte	0x18
 1648 00b0 48000000 		.4byte	0x48
 1649 00b4 04       		.uleb128 0x4
 1650 00b5 72050000 		.4byte	.LASF16
 1651 00b9 07       		.byte	0x7
 1652 00ba 24       		.byte	0x24
 1653 00bb 61000000 		.4byte	0x61
 1654 00bf 04       		.uleb128 0x4
 1655 00c0 A0060000 		.4byte	.LASF17
 1656 00c4 07       		.byte	0x7
 1657 00c5 2C       		.byte	0x2c
 1658 00c6 73000000 		.4byte	0x73
 1659 00ca 04       		.uleb128 0x4
 1660 00cb 7A010000 		.4byte	.LASF18
 1661 00cf 07       		.byte	0x7
 1662 00d0 30       		.byte	0x30
 1663 00d1 85000000 		.4byte	0x85
 1664 00d5 04       		.uleb128 0x4
 1665 00d6 0B060000 		.4byte	.LASF19
 1666 00da 07       		.byte	0x7
 1667 00db 3C       		.byte	0x3c
 1668 00dc 97000000 		.4byte	0x97
 1669 00e0 04       		.uleb128 0x4
 1670 00e1 4B050000 		.4byte	.LASF20
 1671 00e5 08       		.byte	0x8
 1672 00e6 3C       		.byte	0x3c
 1673 00e7 A9000000 		.4byte	0xa9
 1674 00eb 04       		.uleb128 0x4
 1675 00ec 41040000 		.4byte	.LASF21
 1676 00f0 08       		.byte	0x8
 1677 00f1 3D       		.byte	0x3d
 1678 00f2 A9000000 		.4byte	0xa9
 1679 00f6 04       		.uleb128 0x4
 1680 00f7 6C060000 		.4byte	.LASF22
 1681 00fb 08       		.byte	0x8
 1682 00fc 3E       		.byte	0x3e
 1683 00fd A9000000 		.4byte	0xa9
 1684 0101 04       		.uleb128 0x4
 1685 0102 B6010000 		.4byte	.LASF23
ARM GAS  /tmp/ccR802FU.s 			page 31


 1686 0106 08       		.byte	0x8
 1687 0107 40       		.byte	0x40
 1688 0108 CA000000 		.4byte	0xca
 1689 010c 04       		.uleb128 0x4
 1690 010d E0040000 		.4byte	.LASF24
 1691 0111 08       		.byte	0x8
 1692 0112 41       		.byte	0x41
 1693 0113 BF000000 		.4byte	0xbf
 1694 0117 04       		.uleb128 0x4
 1695 0118 8F010000 		.4byte	.LASF25
 1696 011c 08       		.byte	0x8
 1697 011d 43       		.byte	0x43
 1698 011e CA000000 		.4byte	0xca
 1699 0122 04       		.uleb128 0x4
 1700 0123 18020000 		.4byte	.LASF26
 1701 0127 08       		.byte	0x8
 1702 0128 45       		.byte	0x45
 1703 0129 BF000000 		.4byte	0xbf
 1704 012d 04       		.uleb128 0x4
 1705 012e 61000000 		.4byte	.LASF27
 1706 0132 09       		.byte	0x9
 1707 0133 35       		.byte	0x35
 1708 0134 B4000000 		.4byte	0xb4
 1709 0138 04       		.uleb128 0x4
 1710 0139 74020000 		.4byte	.LASF28
 1711 013d 09       		.byte	0x9
 1712 013e 3F       		.byte	0x3f
 1713 013f 43010000 		.4byte	0x143
 1714 0143 05       		.uleb128 0x5
 1715 0144 8F040000 		.4byte	.LASF49
 1716 0148 48       		.byte	0x48
 1717 0149 03       		.byte	0x3
 1718 014a C2       		.byte	0xc2
 1719 014b 3C020000 		.4byte	0x23c
 1720 014f 06       		.uleb128 0x6
 1721 0150 04060000 		.4byte	.LASF29
 1722 0154 03       		.byte	0x3
 1723 0155 C3       		.byte	0xc3
 1724 0156 47020000 		.4byte	0x247
 1725 015a 00       		.byte	0
 1726 015b 06       		.uleb128 0x6
 1727 015c 5C060000 		.4byte	.LASF30
 1728 0160 03       		.byte	0x3
 1729 0161 C5       		.byte	0xc5
 1730 0162 47020000 		.4byte	0x247
 1731 0166 04       		.byte	0x4
 1732 0167 06       		.uleb128 0x6
 1733 0168 5A000000 		.4byte	.LASF31
 1734 016c 03       		.byte	0x3
 1735 016d C7       		.byte	0xc7
 1736 016e 01010000 		.4byte	0x101
 1737 0172 08       		.byte	0x8
 1738 0173 06       		.uleb128 0x6
 1739 0174 14060000 		.4byte	.LASF32
 1740 0178 03       		.byte	0x3
 1741 0179 C8       		.byte	0xc8
 1742 017a A5040000 		.4byte	0x4a5
ARM GAS  /tmp/ccR802FU.s 			page 32


 1743 017e 0C       		.byte	0xc
 1744 017f 06       		.uleb128 0x6
 1745 0180 4D020000 		.4byte	.LASF33
 1746 0184 03       		.byte	0x3
 1747 0185 CA       		.byte	0xca
 1748 0186 47020000 		.4byte	0x247
 1749 018a 10       		.byte	0x10
 1750 018b 06       		.uleb128 0x6
 1751 018c 50040000 		.4byte	.LASF34
 1752 0190 03       		.byte	0x3
 1753 0191 CB       		.byte	0xcb
 1754 0192 47020000 		.4byte	0x247
 1755 0196 14       		.byte	0x14
 1756 0197 06       		.uleb128 0x6
 1757 0198 CE030000 		.4byte	.LASF35
 1758 019c 03       		.byte	0x3
 1759 019d D2       		.byte	0xd2
 1760 019e 8E060000 		.4byte	0x68e
 1761 01a2 18       		.byte	0x18
 1762 01a3 06       		.uleb128 0x6
 1763 01a4 60040000 		.4byte	.LASF36
 1764 01a8 03       		.byte	0x3
 1765 01a9 D8       		.byte	0xd8
 1766 01aa A5060000 		.4byte	0x6a5
 1767 01ae 1C       		.byte	0x1c
 1768 01af 06       		.uleb128 0x6
 1769 01b0 58040000 		.4byte	.LASF37
 1770 01b4 03       		.byte	0x3
 1771 01b5 DD       		.byte	0xdd
 1772 01b6 EB000000 		.4byte	0xeb
 1773 01ba 20       		.byte	0x20
 1774 01bb 06       		.uleb128 0x6
 1775 01bc EE040000 		.4byte	.LASF38
 1776 01c0 03       		.byte	0x3
 1777 01c1 E1       		.byte	0xe1
 1778 01c2 E0000000 		.4byte	0xe0
 1779 01c6 21       		.byte	0x21
 1780 01c7 06       		.uleb128 0x6
 1781 01c8 1E070000 		.4byte	.LASF39
 1782 01cc 03       		.byte	0x3
 1783 01cd E6       		.byte	0xe6
 1784 01ce F6000000 		.4byte	0xf6
 1785 01d2 22       		.byte	0x22
 1786 01d3 07       		.uleb128 0x7
 1787 01d4 705F7500 		.ascii	"p_u\000"
 1788 01d8 03       		.byte	0x3
 1789 01d9 3101     		.2byte	0x131
 1790 01db C9050000 		.4byte	0x5c9
 1791 01df 24       		.byte	0x24
 1792 01e0 08       		.uleb128 0x8
 1793 01e1 20000000 		.4byte	.LASF40
 1794 01e5 03       		.byte	0x3
 1795 01e6 3601     		.2byte	0x136
 1796 01e8 4D020000 		.4byte	0x24d
 1797 01ec 28       		.byte	0x28
 1798 01ed 08       		.uleb128 0x8
 1799 01ee 88000000 		.4byte	.LASF41
ARM GAS  /tmp/ccR802FU.s 			page 33


 1800 01f2 03       		.byte	0x3
 1801 01f3 3C01     		.2byte	0x13c
 1802 01f5 71020000 		.4byte	0x271
 1803 01f9 2C       		.byte	0x2c
 1804 01fa 08       		.uleb128 0x8
 1805 01fb 45050000 		.4byte	.LASF42
 1806 01ff 03       		.byte	0x3
 1807 0200 4001     		.2byte	0x140
 1808 0202 0C010000 		.4byte	0x10c
 1809 0206 34       		.byte	0x34
 1810 0207 08       		.uleb128 0x8
 1811 0208 B8050000 		.4byte	.LASF43
 1812 020c 03       		.byte	0x3
 1813 020d 4601     		.2byte	0x146
 1814 020f 17010000 		.4byte	0x117
 1815 0213 38       		.byte	0x38
 1816 0214 08       		.uleb128 0x8
 1817 0215 85040000 		.4byte	.LASF44
 1818 0219 03       		.byte	0x3
 1819 021a 4D01     		.2byte	0x14d
 1820 021c 88060000 		.4byte	0x688
 1821 0220 3C       		.byte	0x3c
 1822 0221 08       		.uleb128 0x8
 1823 0222 8E050000 		.4byte	.LASF45
 1824 0226 03       		.byte	0x3
 1825 0227 5101     		.2byte	0x151
 1826 0229 01010000 		.4byte	0x101
 1827 022d 40       		.byte	0x40
 1828 022e 08       		.uleb128 0x8
 1829 022f 7D040000 		.4byte	.LASF46
 1830 0233 03       		.byte	0x3
 1831 0234 5801     		.2byte	0x158
 1832 0236 29030000 		.4byte	0x329
 1833 023a 44       		.byte	0x44
 1834 023b 00       		.byte	0
 1835 023c 04       		.uleb128 0x4
 1836 023d 13040000 		.4byte	.LASF47
 1837 0241 09       		.byte	0x9
 1838 0242 44       		.byte	0x44
 1839 0243 47020000 		.4byte	0x247
 1840 0247 09       		.uleb128 0x9
 1841 0248 04       		.byte	0x4
 1842 0249 38010000 		.4byte	0x138
 1843 024d 04       		.uleb128 0x4
 1844 024e AB000000 		.4byte	.LASF48
 1845 0252 09       		.byte	0x9
 1846 0253 49       		.byte	0x49
 1847 0254 58020000 		.4byte	0x258
 1848 0258 05       		.uleb128 0x5
 1849 0259 00000000 		.4byte	.LASF50
 1850 025d 04       		.byte	0x4
 1851 025e 03       		.byte	0x3
 1852 025f B0       		.byte	0xb0
 1853 0260 71020000 		.4byte	0x271
 1854 0264 06       		.uleb128 0x6
 1855 0265 04060000 		.4byte	.LASF29
 1856 0269 03       		.byte	0x3
ARM GAS  /tmp/ccR802FU.s 			page 34


 1857 026a B1       		.byte	0xb1
 1858 026b 47020000 		.4byte	0x247
 1859 026f 00       		.byte	0
 1860 0270 00       		.byte	0
 1861 0271 04       		.uleb128 0x4
 1862 0272 10000000 		.4byte	.LASF51
 1863 0276 09       		.byte	0x9
 1864 0277 50       		.byte	0x50
 1865 0278 81020000 		.4byte	0x281
 1866 027c 0A       		.uleb128 0xa
 1867 027d 71020000 		.4byte	0x271
 1868 0281 05       		.uleb128 0x5
 1869 0282 22010000 		.4byte	.LASF52
 1870 0286 08       		.byte	0x8
 1871 0287 03       		.byte	0x3
 1872 0288 B7       		.byte	0xb7
 1873 0289 A6020000 		.4byte	0x2a6
 1874 028d 06       		.uleb128 0x6
 1875 028e 04060000 		.4byte	.LASF29
 1876 0292 03       		.byte	0x3
 1877 0293 B8       		.byte	0xb8
 1878 0294 47020000 		.4byte	0x247
 1879 0298 00       		.byte	0
 1880 0299 06       		.uleb128 0x6
 1881 029a 5C060000 		.4byte	.LASF30
 1882 029e 03       		.byte	0x3
 1883 029f B9       		.byte	0xb9
 1884 02a0 47020000 		.4byte	0x247
 1885 02a4 04       		.byte	0x4
 1886 02a5 00       		.byte	0
 1887 02a6 04       		.uleb128 0x4
 1888 02a7 93060000 		.4byte	.LASF53
 1889 02ab 09       		.byte	0x9
 1890 02ac 57       		.byte	0x57
 1891 02ad B1020000 		.4byte	0x2b1
 1892 02b1 0B       		.uleb128 0xb
 1893 02b2 F1000000 		.4byte	.LASF54
 1894 02b6 1C       		.byte	0x1c
 1895 02b7 03       		.byte	0x3
 1896 02b8 9001     		.2byte	0x190
 1897 02ba 0D030000 		.4byte	0x30d
 1898 02be 08       		.uleb128 0x8
 1899 02bf D0040000 		.4byte	.LASF55
 1900 02c3 03       		.byte	0x3
 1901 02c4 9101     		.2byte	0x191
 1902 02c6 71020000 		.4byte	0x271
 1903 02ca 00       		.byte	0
 1904 02cb 08       		.uleb128 0x8
 1905 02cc 9B010000 		.4byte	.LASF56
 1906 02d0 03       		.byte	0x3
 1907 02d1 9201     		.2byte	0x192
 1908 02d3 01010000 		.4byte	0x101
 1909 02d7 08       		.byte	0x8
 1910 02d8 08       		.uleb128 0x8
 1911 02d9 94070000 		.4byte	.LASF57
 1912 02dd 03       		.byte	0x3
 1913 02de 9401     		.2byte	0x194
ARM GAS  /tmp/ccR802FU.s 			page 35


 1914 02e0 A5040000 		.4byte	0x4a5
 1915 02e4 0C       		.byte	0xc
 1916 02e5 08       		.uleb128 0x8
 1917 02e6 D8040000 		.4byte	.LASF58
 1918 02ea 03       		.byte	0x3
 1919 02eb 9701     		.2byte	0x197
 1920 02ed 47020000 		.4byte	0x247
 1921 02f1 10       		.byte	0x10
 1922 02f2 08       		.uleb128 0x8
 1923 02f3 33050000 		.4byte	.LASF59
 1924 02f7 03       		.byte	0x3
 1925 02f8 9801     		.2byte	0x198
 1926 02fa 47020000 		.4byte	0x247
 1927 02fe 14       		.byte	0x14
 1928 02ff 08       		.uleb128 0x8
 1929 0300 AE050000 		.4byte	.LASF60
 1930 0304 03       		.byte	0x3
 1931 0305 9B01     		.2byte	0x19b
 1932 0307 47020000 		.4byte	0x247
 1933 030b 18       		.byte	0x18
 1934 030c 00       		.byte	0
 1935 030d 04       		.uleb128 0x4
 1936 030e 4F010000 		.4byte	.LASF61
 1937 0312 09       		.byte	0x9
 1938 0313 5C       		.byte	0x5c
 1939 0314 18030000 		.4byte	0x318
 1940 0318 09       		.uleb128 0x9
 1941 0319 04       		.byte	0x4
 1942 031a 1E030000 		.4byte	0x31e
 1943 031e 0C       		.uleb128 0xc
 1944 031f 29030000 		.4byte	0x329
 1945 0323 0D       		.uleb128 0xd
 1946 0324 29030000 		.4byte	0x329
 1947 0328 00       		.byte	0
 1948 0329 0E       		.uleb128 0xe
 1949 032a 04       		.byte	0x4
 1950 032b 04       		.uleb128 0x4
 1951 032c F6040000 		.4byte	.LASF62
 1952 0330 09       		.byte	0x9
 1953 0331 61       		.byte	0x61
 1954 0332 36030000 		.4byte	0x336
 1955 0336 0B       		.uleb128 0xb
 1956 0337 CB010000 		.4byte	.LASF63
 1957 033b 14       		.byte	0x14
 1958 033c 03       		.byte	0x3
 1959 033d 6B01     		.2byte	0x16b
 1960 033f 85030000 		.4byte	0x385
 1961 0343 08       		.uleb128 0x8
 1962 0344 35070000 		.4byte	.LASF64
 1963 0348 03       		.byte	0x3
 1964 0349 6C01     		.2byte	0x16c
 1965 034b AB060000 		.4byte	0x6ab
 1966 034f 00       		.byte	0
 1967 0350 08       		.uleb128 0x8
 1968 0351 D9070000 		.4byte	.LASF65
 1969 0355 03       		.byte	0x3
 1970 0356 6D01     		.2byte	0x16d
ARM GAS  /tmp/ccR802FU.s 			page 36


 1971 0358 AB060000 		.4byte	0x6ab
 1972 035c 04       		.byte	0x4
 1973 035d 08       		.uleb128 0x8
 1974 035e D5030000 		.4byte	.LASF66
 1975 0362 03       		.byte	0x3
 1976 0363 6E01     		.2byte	0x16e
 1977 0365 2D010000 		.4byte	0x12d
 1978 0369 08       		.byte	0x8
 1979 036a 08       		.uleb128 0x8
 1980 036b C5070000 		.4byte	.LASF67
 1981 036f 03       		.byte	0x3
 1982 0370 6F01     		.2byte	0x16f
 1983 0372 0D030000 		.4byte	0x30d
 1984 0376 0C       		.byte	0xc
 1985 0377 08       		.uleb128 0x8
 1986 0378 A2010000 		.4byte	.LASF68
 1987 037c 03       		.byte	0x3
 1988 037d 7101     		.2byte	0x171
 1989 037f 29030000 		.4byte	0x329
 1990 0383 10       		.byte	0x10
 1991 0384 00       		.byte	0
 1992 0385 04       		.uleb128 0x4
 1993 0386 08070000 		.4byte	.LASF69
 1994 038a 09       		.byte	0x9
 1995 038b 66       		.byte	0x66
 1996 038c 90030000 		.4byte	0x390
 1997 0390 0B       		.uleb128 0xb
 1998 0391 55020000 		.4byte	.LASF70
 1999 0395 0C       		.byte	0xc
 2000 0396 03       		.byte	0x3
 2001 0397 7B01     		.2byte	0x17b
 2002 0399 D2030000 		.4byte	0x3d2
 2003 039d 08       		.uleb128 0x8
 2004 039e 35070000 		.4byte	.LASF64
 2005 03a2 03       		.byte	0x3
 2006 03a3 7C01     		.2byte	0x17c
 2007 03a5 AB060000 		.4byte	0x6ab
 2008 03a9 00       		.byte	0
 2009 03aa 08       		.uleb128 0x8
 2010 03ab D9070000 		.4byte	.LASF65
 2011 03af 03       		.byte	0x3
 2012 03b0 7E01     		.2byte	0x17e
 2013 03b2 AB060000 		.4byte	0x6ab
 2014 03b6 04       		.byte	0x4
 2015 03b7 08       		.uleb128 0x8
 2016 03b8 D5030000 		.4byte	.LASF66
 2017 03bc 03       		.byte	0x3
 2018 03bd 8001     		.2byte	0x180
 2019 03bf 2D010000 		.4byte	0x12d
 2020 03c3 08       		.byte	0x8
 2021 03c4 08       		.uleb128 0x8
 2022 03c5 26040000 		.4byte	.LASF71
 2023 03c9 03       		.byte	0x3
 2024 03ca 8801     		.2byte	0x188
 2025 03cc 2D010000 		.4byte	0x12d
 2026 03d0 0A       		.byte	0xa
 2027 03d1 00       		.byte	0
ARM GAS  /tmp/ccR802FU.s 			page 37


 2028 03d2 04       		.uleb128 0x4
 2029 03d3 A1040000 		.4byte	.LASF72
 2030 03d7 09       		.byte	0x9
 2031 03d8 6B       		.byte	0x6b
 2032 03d9 DD030000 		.4byte	0x3dd
 2033 03dd 0F       		.uleb128 0xf
 2034 03de 5E010000 		.4byte	.LASF73
 2035 03e2 1404     		.2byte	0x414
 2036 03e4 03       		.byte	0x3
 2037 03e5 A201     		.2byte	0x1a2
 2038 03e7 20040000 		.4byte	0x420
 2039 03eb 08       		.uleb128 0x8
 2040 03ec 3B050000 		.4byte	.LASF74
 2041 03f0 03       		.byte	0x3
 2042 03f1 AA01     		.2byte	0x1aa
 2043 03f3 94060000 		.4byte	0x694
 2044 03f7 00       		.byte	0
 2045 03f8 08       		.uleb128 0x8
 2046 03f9 2F020000 		.4byte	.LASF75
 2047 03fd 03       		.byte	0x3
 2048 03fe AF01     		.2byte	0x1af
 2049 0400 22010000 		.4byte	0x122
 2050 0404 04       		.byte	0x4
 2051 0405 08       		.uleb128 0x8
 2052 0406 85050000 		.4byte	.LASF76
 2053 040a 03       		.byte	0x3
 2054 040b B301     		.2byte	0x1b3
 2055 040d 22010000 		.4byte	0x122
 2056 0411 08       		.byte	0x8
 2057 0412 08       		.uleb128 0x8
 2058 0413 A8060000 		.4byte	.LASF77
 2059 0417 03       		.byte	0x3
 2060 0418 B901     		.2byte	0x1b9
 2061 041a BE050000 		.4byte	0x5be
 2062 041e 0C       		.byte	0xc
 2063 041f 00       		.byte	0
 2064 0420 04       		.uleb128 0x4
 2065 0421 3D070000 		.4byte	.LASF78
 2066 0425 09       		.byte	0x9
 2067 0426 70       		.byte	0x70
 2068 0427 2B040000 		.4byte	0x42b
 2069 042b 0F       		.uleb128 0xf
 2070 042c ED050000 		.4byte	.LASF79
 2071 0430 6805     		.2byte	0x568
 2072 0432 03       		.byte	0x3
 2073 0433 C201     		.2byte	0x1c2
 2074 0435 7D040000 		.4byte	0x47d
 2075 0439 08       		.uleb128 0x8
 2076 043a 1A060000 		.4byte	.LASF80
 2077 043e 03       		.byte	0x3
 2078 043f C601     		.2byte	0x1c6
 2079 0441 A6020000 		.4byte	0x2a6
 2080 0445 00       		.byte	0
 2081 0446 08       		.uleb128 0x8
 2082 0447 EA000000 		.4byte	.LASF81
 2083 044b 03       		.byte	0x3
 2084 044c CA01     		.2byte	0x1ca
ARM GAS  /tmp/ccR802FU.s 			page 38


 2085 044e 85030000 		.4byte	0x385
 2086 0452 1C       		.byte	0x1c
 2087 0453 07       		.uleb128 0x7
 2088 0454 64626700 		.ascii	"dbg\000"
 2089 0458 03       		.byte	0x3
 2090 0459 CE01     		.2byte	0x1ce
 2091 045b D2030000 		.4byte	0x3d2
 2092 045f 28       		.byte	0x28
 2093 0460 10       		.uleb128 0x10
 2094 0461 5B050000 		.4byte	.LASF82
 2095 0465 03       		.byte	0x3
 2096 0466 D201     		.2byte	0x1d2
 2097 0468 38010000 		.4byte	0x138
 2098 046c 3C04     		.2byte	0x43c
 2099 046e 10       		.uleb128 0x10
 2100 046f FF000000 		.4byte	.LASF83
 2101 0473 03       		.byte	0x3
 2102 0474 E301     		.2byte	0x1e3
 2103 0476 B1060000 		.4byte	0x6b1
 2104 047a 8804     		.2byte	0x488
 2105 047c 00       		.byte	0
 2106 047d 03       		.uleb128 0x3
 2107 047e 04       		.byte	0x4
 2108 047f 07       		.byte	0x7
 2109 0480 63060000 		.4byte	.LASF84
 2110 0484 11       		.uleb128 0x11
 2111 0485 35000000 		.4byte	.LASF113
 2112 0489 0F       		.byte	0xf
 2113 048a 4C       		.byte	0x4c
 2114 048b CA000000 		.4byte	0xca
 2115 048f 04       		.uleb128 0x4
 2116 0490 51000000 		.4byte	.LASF85
 2117 0494 0A       		.byte	0xa
 2118 0495 65       		.byte	0x65
 2119 0496 29030000 		.4byte	0x329
 2120 049a 04       		.uleb128 0x4
 2121 049b 9A070000 		.4byte	.LASF86
 2122 049f 0A       		.byte	0xa
 2123 04a0 6D       		.byte	0x6d
 2124 04a1 D5000000 		.4byte	0xd5
 2125 04a5 05       		.uleb128 0x5
 2126 04a6 E6040000 		.4byte	.LASF87
 2127 04aa 04       		.byte	0x4
 2128 04ab 0A       		.byte	0xa
 2129 04ac 89       		.byte	0x89
 2130 04ad BE040000 		.4byte	0x4be
 2131 04b1 12       		.uleb128 0x12
 2132 04b2 72313300 		.ascii	"r13\000"
 2133 04b6 0A       		.byte	0xa
 2134 04b7 8A       		.byte	0x8a
 2135 04b8 30050000 		.4byte	0x530
 2136 04bc 00       		.byte	0
 2137 04bd 00       		.byte	0
 2138 04be 05       		.uleb128 0x5
 2139 04bf D4050000 		.4byte	.LASF88
 2140 04c3 24       		.byte	0x24
 2141 04c4 01       		.byte	0x1
ARM GAS  /tmp/ccR802FU.s 			page 39


 2142 04c5 A4       		.byte	0xa4
 2143 04c6 30050000 		.4byte	0x530
 2144 04ca 12       		.uleb128 0x12
 2145 04cb 723800   		.ascii	"r8\000"
 2146 04ce 01       		.byte	0x1
 2147 04cf A5       		.byte	0xa5
 2148 04d0 8F040000 		.4byte	0x48f
 2149 04d4 00       		.byte	0
 2150 04d5 12       		.uleb128 0x12
 2151 04d6 723900   		.ascii	"r9\000"
 2152 04d9 01       		.byte	0x1
 2153 04da A6       		.byte	0xa6
 2154 04db 8F040000 		.4byte	0x48f
 2155 04df 04       		.byte	0x4
 2156 04e0 12       		.uleb128 0x12
 2157 04e1 72313000 		.ascii	"r10\000"
 2158 04e5 01       		.byte	0x1
 2159 04e6 A7       		.byte	0xa7
 2160 04e7 8F040000 		.4byte	0x48f
 2161 04eb 08       		.byte	0x8
 2162 04ec 12       		.uleb128 0x12
 2163 04ed 72313100 		.ascii	"r11\000"
 2164 04f1 01       		.byte	0x1
 2165 04f2 A8       		.byte	0xa8
 2166 04f3 8F040000 		.4byte	0x48f
 2167 04f7 0C       		.byte	0xc
 2168 04f8 12       		.uleb128 0x12
 2169 04f9 723400   		.ascii	"r4\000"
 2170 04fc 01       		.byte	0x1
 2171 04fd A9       		.byte	0xa9
 2172 04fe 8F040000 		.4byte	0x48f
 2173 0502 10       		.byte	0x10
 2174 0503 12       		.uleb128 0x12
 2175 0504 723500   		.ascii	"r5\000"
 2176 0507 01       		.byte	0x1
 2177 0508 AA       		.byte	0xaa
 2178 0509 8F040000 		.4byte	0x48f
 2179 050d 14       		.byte	0x14
 2180 050e 12       		.uleb128 0x12
 2181 050f 723600   		.ascii	"r6\000"
 2182 0512 01       		.byte	0x1
 2183 0513 AB       		.byte	0xab
 2184 0514 8F040000 		.4byte	0x48f
 2185 0518 18       		.byte	0x18
 2186 0519 12       		.uleb128 0x12
 2187 051a 723700   		.ascii	"r7\000"
 2188 051d 01       		.byte	0x1
 2189 051e AC       		.byte	0xac
 2190 051f 8F040000 		.4byte	0x48f
 2191 0523 1C       		.byte	0x1c
 2192 0524 12       		.uleb128 0x12
 2193 0525 6C7200   		.ascii	"lr\000"
 2194 0528 01       		.byte	0x1
 2195 0529 AD       		.byte	0xad
 2196 052a 8F040000 		.4byte	0x48f
 2197 052e 20       		.byte	0x20
 2198 052f 00       		.byte	0
ARM GAS  /tmp/ccR802FU.s 			page 40


 2199 0530 09       		.uleb128 0x9
 2200 0531 04       		.byte	0x4
 2201 0532 BE040000 		.4byte	0x4be
 2202 0536 13       		.uleb128 0x13
 2203 0537 10       		.byte	0x10
 2204 0538 0B       		.byte	0xb
 2205 0539 51       		.byte	0x51
 2206 053a 6F050000 		.4byte	0x56f
 2207 053e 06       		.uleb128 0x6
 2208 053f 6C020000 		.4byte	.LASF89
 2209 0543 0B       		.byte	0xb
 2210 0544 55       		.byte	0x55
 2211 0545 2D010000 		.4byte	0x12d
 2212 0549 00       		.byte	0
 2213 054a 06       		.uleb128 0x6
 2214 054b 4A040000 		.4byte	.LASF90
 2215 054f 0B       		.byte	0xb
 2216 0550 59       		.byte	0x59
 2217 0551 47020000 		.4byte	0x247
 2218 0555 04       		.byte	0x4
 2219 0556 06       		.uleb128 0x6
 2220 0557 03020000 		.4byte	.LASF91
 2221 055b 0B       		.byte	0xb
 2222 055c 5D       		.byte	0x5d
 2223 055d 29030000 		.4byte	0x329
 2224 0561 08       		.byte	0x8
 2225 0562 06       		.uleb128 0x6
 2226 0563 C4000000 		.4byte	.LASF92
 2227 0567 0B       		.byte	0xb
 2228 0568 61       		.byte	0x61
 2229 0569 A9000000 		.4byte	0xa9
 2230 056d 0C       		.byte	0xc
 2231 056e 00       		.byte	0
 2232 056f 04       		.uleb128 0x4
 2233 0570 BC060000 		.4byte	.LASF93
 2234 0574 0B       		.byte	0xb
 2235 0575 62       		.byte	0x62
 2236 0576 36050000 		.4byte	0x536
 2237 057a 14       		.uleb128 0x14
 2238 057b 0804     		.2byte	0x408
 2239 057d 0B       		.byte	0xb
 2240 057e 67       		.byte	0x67
 2241 057f A8050000 		.4byte	0x5a8
 2242 0583 06       		.uleb128 0x6
 2243 0584 99040000 		.4byte	.LASF94
 2244 0588 0B       		.byte	0xb
 2245 0589 6B       		.byte	0x6b
 2246 058a 2C000000 		.4byte	0x2c
 2247 058e 00       		.byte	0
 2248 058f 06       		.uleb128 0x6
 2249 0590 2C050000 		.4byte	.LASF95
 2250 0594 0B       		.byte	0xb
 2251 0595 6F       		.byte	0x6f
 2252 0596 A8050000 		.4byte	0x5a8
 2253 059a 04       		.byte	0x4
 2254 059b 06       		.uleb128 0x6
 2255 059c 73040000 		.4byte	.LASF96
ARM GAS  /tmp/ccR802FU.s 			page 41


 2256 05a0 0B       		.byte	0xb
 2257 05a1 73       		.byte	0x73
 2258 05a2 AE050000 		.4byte	0x5ae
 2259 05a6 08       		.byte	0x8
 2260 05a7 00       		.byte	0
 2261 05a8 09       		.uleb128 0x9
 2262 05a9 04       		.byte	0x4
 2263 05aa 6F050000 		.4byte	0x56f
 2264 05ae 15       		.uleb128 0x15
 2265 05af 6F050000 		.4byte	0x56f
 2266 05b3 BE050000 		.4byte	0x5be
 2267 05b7 16       		.uleb128 0x16
 2268 05b8 7D040000 		.4byte	0x47d
 2269 05bc 3F       		.byte	0x3f
 2270 05bd 00       		.byte	0
 2271 05be 04       		.uleb128 0x4
 2272 05bf 4F070000 		.4byte	.LASF97
 2273 05c3 0B       		.byte	0xb
 2274 05c4 74       		.byte	0x74
 2275 05c5 7A050000 		.4byte	0x57a
 2276 05c9 17       		.uleb128 0x17
 2277 05ca 04       		.byte	0x4
 2278 05cb 03       		.byte	0x3
 2279 05cc FA       		.byte	0xfa
 2280 05cd 26060000 		.4byte	0x626
 2281 05d1 18       		.uleb128 0x18
 2282 05d2 8F020000 		.4byte	.LASF98
 2283 05d6 03       		.byte	0x3
 2284 05d7 0101     		.2byte	0x101
 2285 05d9 0C010000 		.4byte	0x10c
 2286 05dd 18       		.uleb128 0x18
 2287 05de FB070000 		.4byte	.LASF99
 2288 05e2 03       		.byte	0x3
 2289 05e3 0801     		.2byte	0x108
 2290 05e5 0C010000 		.4byte	0x10c
 2291 05e9 18       		.uleb128 0x18
 2292 05ea D9000000 		.4byte	.LASF100
 2293 05ee 03       		.byte	0x3
 2294 05ef 0F01     		.2byte	0x10f
 2295 05f1 29030000 		.4byte	0x329
 2296 05f5 18       		.uleb128 0x18
 2297 05f6 49070000 		.4byte	.LASF101
 2298 05fa 03       		.byte	0x3
 2299 05fb 1601     		.2byte	0x116
 2300 05fd 26060000 		.4byte	0x626
 2301 0601 18       		.uleb128 0x18
 2302 0602 B5060000 		.4byte	.LASF102
 2303 0606 03       		.byte	0x3
 2304 0607 1E01     		.2byte	0x11e
 2305 0609 51060000 		.4byte	0x651
 2306 060d 18       		.uleb128 0x18
 2307 060e 45000000 		.4byte	.LASF103
 2308 0612 03       		.byte	0x3
 2309 0613 2701     		.2byte	0x127
 2310 0615 88060000 		.4byte	0x688
 2311 0619 18       		.uleb128 0x18
 2312 061a 0E010000 		.4byte	.LASF104
ARM GAS  /tmp/ccR802FU.s 			page 42


 2313 061e 03       		.byte	0x3
 2314 061f 2F01     		.2byte	0x12f
 2315 0621 17010000 		.4byte	0x117
 2316 0625 00       		.byte	0
 2317 0626 09       		.uleb128 0x9
 2318 0627 04       		.byte	0x4
 2319 0628 3C020000 		.4byte	0x23c
 2320 062c 05       		.uleb128 0x5
 2321 062d A9010000 		.4byte	.LASF105
 2322 0631 0C       		.byte	0xc
 2323 0632 0C       		.byte	0xc
 2324 0633 34       		.byte	0x34
 2325 0634 51060000 		.4byte	0x651
 2326 0638 06       		.uleb128 0x6
 2327 0639 80000000 		.4byte	.LASF106
 2328 063d 0C       		.byte	0xc
 2329 063e 35       		.byte	0x35
 2330 063f 71020000 		.4byte	0x271
 2331 0643 00       		.byte	0
 2332 0644 06       		.uleb128 0x6
 2333 0645 58010000 		.4byte	.LASF107
 2334 0649 0C       		.byte	0xc
 2335 064a 37       		.byte	0x37
 2336 064b 22010000 		.4byte	0x122
 2337 064f 08       		.byte	0x8
 2338 0650 00       		.byte	0
 2339 0651 09       		.uleb128 0x9
 2340 0652 04       		.byte	0x4
 2341 0653 2C060000 		.4byte	0x62c
 2342 0657 05       		.uleb128 0x5
 2343 0658 95030000 		.4byte	.LASF108
 2344 065c 10       		.byte	0x10
 2345 065d 0D       		.byte	0xd
 2346 065e 39       		.byte	0x39
 2347 065f 88060000 		.4byte	0x688
 2348 0663 06       		.uleb128 0x6
 2349 0664 C3050000 		.4byte	.LASF109
 2350 0668 0D       		.byte	0xd
 2351 0669 3A       		.byte	0x3a
 2352 066a 71020000 		.4byte	0x271
 2353 066e 00       		.byte	0
 2354 066f 06       		.uleb128 0x6
 2355 0670 78000000 		.4byte	.LASF110
 2356 0674 0D       		.byte	0xd
 2357 0675 3C       		.byte	0x3c
 2358 0676 47020000 		.4byte	0x247
 2359 067a 08       		.byte	0x8
 2360 067b 06       		.uleb128 0x6
 2361 067c 61070000 		.4byte	.LASF111
 2362 0680 0D       		.byte	0xd
 2363 0681 3E       		.byte	0x3e
 2364 0682 EE070000 		.4byte	0x7ee
 2365 0686 0C       		.byte	0xc
 2366 0687 00       		.byte	0
 2367 0688 09       		.uleb128 0x9
 2368 0689 04       		.byte	0x4
 2369 068a 57060000 		.4byte	0x657
ARM GAS  /tmp/ccR802FU.s 			page 43


 2370 068e 09       		.uleb128 0x9
 2371 068f 04       		.byte	0x4
 2372 0690 A0060000 		.4byte	0x6a0
 2373 0694 19       		.uleb128 0x19
 2374 0695 8E060000 		.4byte	0x68e
 2375 0699 03       		.uleb128 0x3
 2376 069a 01       		.byte	0x1
 2377 069b 08       		.byte	0x8
 2378 069c 4C000000 		.4byte	.LASF112
 2379 06a0 0A       		.uleb128 0xa
 2380 06a1 99060000 		.4byte	0x699
 2381 06a5 09       		.uleb128 0x9
 2382 06a6 04       		.byte	0x4
 2383 06a7 9A040000 		.4byte	0x49a
 2384 06ab 09       		.uleb128 0x9
 2385 06ac 04       		.byte	0x4
 2386 06ad 2B030000 		.4byte	0x32b
 2387 06b1 15       		.uleb128 0x15
 2388 06b2 9A040000 		.4byte	0x49a
 2389 06b6 C1060000 		.4byte	0x6c1
 2390 06ba 16       		.uleb128 0x16
 2391 06bb 7D040000 		.4byte	0x47d
 2392 06bf 1B       		.byte	0x1b
 2393 06c0 00       		.byte	0
 2394 06c1 1A       		.uleb128 0x1a
 2395 06c2 636800   		.ascii	"ch\000"
 2396 06c5 03       		.byte	0x3
 2397 06c6 0902     		.2byte	0x209
 2398 06c8 20040000 		.4byte	0x420
 2399 06cc 13       		.uleb128 0x13
 2400 06cd 16       		.byte	0x16
 2401 06ce 0E       		.byte	0xe
 2402 06cf 34       		.byte	0x34
 2403 06d0 AD070000 		.4byte	0x7ad
 2404 06d4 06       		.uleb128 0x6
 2405 06d5 4E060000 		.4byte	.LASF114
 2406 06d9 0E       		.byte	0xe
 2407 06da 35       		.byte	0x35
 2408 06db AD070000 		.4byte	0x7ad
 2409 06df 00       		.byte	0
 2410 06e0 06       		.uleb128 0x6
 2411 06e1 24050000 		.4byte	.LASF115
 2412 06e5 0E       		.byte	0xe
 2413 06e6 36       		.byte	0x36
 2414 06e7 A9000000 		.4byte	0xa9
 2415 06eb 04       		.byte	0x4
 2416 06ec 06       		.uleb128 0x6
 2417 06ed 53050000 		.4byte	.LASF116
 2418 06f1 0E       		.byte	0xe
 2419 06f2 37       		.byte	0x37
 2420 06f3 A9000000 		.4byte	0xa9
 2421 06f7 05       		.byte	0x5
 2422 06f8 06       		.uleb128 0x6
 2423 06f9 99050000 		.4byte	.LASF117
 2424 06fd 0E       		.byte	0xe
 2425 06fe 38       		.byte	0x38
 2426 06ff B4000000 		.4byte	0xb4
ARM GAS  /tmp/ccR802FU.s 			page 44


 2427 0703 06       		.byte	0x6
 2428 0704 06       		.uleb128 0x6
 2429 0705 33010000 		.4byte	.LASF118
 2430 0709 0E       		.byte	0xe
 2431 070a 39       		.byte	0x39
 2432 070b A9000000 		.4byte	0xa9
 2433 070f 08       		.byte	0x8
 2434 0710 06       		.uleb128 0x6
 2435 0711 83010000 		.4byte	.LASF119
 2436 0715 0E       		.byte	0xe
 2437 0716 3A       		.byte	0x3a
 2438 0717 A9000000 		.4byte	0xa9
 2439 071b 09       		.byte	0x9
 2440 071c 06       		.uleb128 0x6
 2441 071d 96020000 		.4byte	.LASF120
 2442 0721 0E       		.byte	0xe
 2443 0722 3B       		.byte	0x3b
 2444 0723 A9000000 		.4byte	0xa9
 2445 0727 0A       		.byte	0xa
 2446 0728 06       		.uleb128 0x6
 2447 0729 2C060000 		.4byte	.LASF121
 2448 072d 0E       		.byte	0xe
 2449 072e 3C       		.byte	0x3c
 2450 072f A9000000 		.4byte	0xa9
 2451 0733 0B       		.byte	0xb
 2452 0734 06       		.uleb128 0x6
 2453 0735 B3030000 		.4byte	.LASF122
 2454 0739 0E       		.byte	0xe
 2455 073a 3D       		.byte	0x3d
 2456 073b A9000000 		.4byte	0xa9
 2457 073f 0C       		.byte	0xc
 2458 0740 06       		.uleb128 0x6
 2459 0741 74070000 		.4byte	.LASF123
 2460 0745 0E       		.byte	0xe
 2461 0746 3E       		.byte	0x3e
 2462 0747 A9000000 		.4byte	0xa9
 2463 074b 0D       		.byte	0xd
 2464 074c 06       		.uleb128 0x6
 2465 074d 6B000000 		.4byte	.LASF124
 2466 0751 0E       		.byte	0xe
 2467 0752 3F       		.byte	0x3f
 2468 0753 A9000000 		.4byte	0xa9
 2469 0757 0E       		.byte	0xe
 2470 0758 06       		.uleb128 0x6
 2471 0759 CD000000 		.4byte	.LASF125
 2472 075d 0E       		.byte	0xe
 2473 075e 40       		.byte	0x40
 2474 075f A9000000 		.4byte	0xa9
 2475 0763 0F       		.byte	0xf
 2476 0764 06       		.uleb128 0x6
 2477 0765 BE030000 		.4byte	.LASF126
 2478 0769 0E       		.byte	0xe
 2479 076a 41       		.byte	0x41
 2480 076b A9000000 		.4byte	0xa9
 2481 076f 10       		.byte	0x10
 2482 0770 06       		.uleb128 0x6
 2483 0771 86060000 		.4byte	.LASF127
ARM GAS  /tmp/ccR802FU.s 			page 45


 2484 0775 0E       		.byte	0xe
 2485 0776 43       		.byte	0x43
 2486 0777 A9000000 		.4byte	0xa9
 2487 077b 11       		.byte	0x11
 2488 077c 06       		.uleb128 0x6
 2489 077d 15010000 		.4byte	.LASF128
 2490 0781 0E       		.byte	0xe
 2491 0782 44       		.byte	0x44
 2492 0783 A9000000 		.4byte	0xa9
 2493 0787 12       		.byte	0x12
 2494 0788 06       		.uleb128 0x6
 2495 0789 18050000 		.4byte	.LASF129
 2496 078d 0E       		.byte	0xe
 2497 078e 45       		.byte	0x45
 2498 078f A9000000 		.4byte	0xa9
 2499 0793 13       		.byte	0x13
 2500 0794 06       		.uleb128 0x6
 2501 0795 B2020000 		.4byte	.LASF130
 2502 0799 0E       		.byte	0xe
 2503 079a 46       		.byte	0x46
 2504 079b A9000000 		.4byte	0xa9
 2505 079f 14       		.byte	0x14
 2506 07a0 06       		.uleb128 0x6
 2507 07a1 20060000 		.4byte	.LASF131
 2508 07a5 0E       		.byte	0xe
 2509 07a6 48       		.byte	0x48
 2510 07a7 A9000000 		.4byte	0xa9
 2511 07ab 15       		.byte	0x15
 2512 07ac 00       		.byte	0
 2513 07ad 15       		.uleb128 0x15
 2514 07ae 99060000 		.4byte	0x699
 2515 07b2 BD070000 		.4byte	0x7bd
 2516 07b6 16       		.uleb128 0x16
 2517 07b7 7D040000 		.4byte	0x47d
 2518 07bb 03       		.byte	0x3
 2519 07bc 00       		.byte	0
 2520 07bd 04       		.uleb128 0x4
 2521 07be 7B050000 		.4byte	.LASF132
 2522 07c2 0E       		.byte	0xe
 2523 07c3 49       		.byte	0x49
 2524 07c4 CC060000 		.4byte	0x6cc
 2525 07c8 0A       		.uleb128 0xa
 2526 07c9 BD070000 		.4byte	0x7bd
 2527 07cd 11       		.uleb128 0x11
 2528 07ce BC070000 		.4byte	.LASF133
 2529 07d2 0E       		.byte	0xe
 2530 07d3 6E       		.byte	0x6e
 2531 07d4 C8070000 		.4byte	0x7c8
 2532 07d8 04       		.uleb128 0x4
 2533 07d9 41020000 		.4byte	.LASF134
 2534 07dd 0C       		.byte	0xc
 2535 07de 38       		.byte	0x38
 2536 07df 2C060000 		.4byte	0x62c
 2537 07e3 04       		.uleb128 0x4
 2538 07e4 CB060000 		.4byte	.LASF135
 2539 07e8 0D       		.byte	0xd
 2540 07e9 34       		.byte	0x34
ARM GAS  /tmp/ccR802FU.s 			page 46


 2541 07ea 57060000 		.4byte	0x657
 2542 07ee 09       		.uleb128 0x9
 2543 07ef 04       		.byte	0x4
 2544 07f0 E3070000 		.4byte	0x7e3
 2545 07f4 03       		.uleb128 0x3
 2546 07f5 01       		.byte	0x1
 2547 07f6 02       		.byte	0x2
 2548 07f7 C1020000 		.4byte	.LASF136
 2549 07fb 1B       		.uleb128 0x1b
 2550 07fc DC010000 		.4byte	.LASF141
 2551 0800 05       		.byte	0x5
 2552 0801 7A01     		.2byte	0x17a
 2553 0803 0C010000 		.4byte	0x10c
 2554 0807 00000000 		.4byte	.LFB162
 2555 080b 24010000 		.4byte	.LFE162-.LFB162
 2556 080f 01       		.uleb128 0x1
 2557 0810 9C       		.byte	0x9c
 2558 0811 6B080000 		.4byte	0x86b
 2559 0815 1C       		.uleb128 0x1c
 2560 0816 73707300 		.ascii	"sps\000"
 2561 081a 05       		.byte	0x5
 2562 081b 7A01     		.2byte	0x17a
 2563 081d 6B080000 		.4byte	0x86b
 2564 0821 02       		.uleb128 0x2
 2565 0822 91       		.byte	0x91
 2566 0823 6C       		.sleb128 -20
 2567 0824 1C       		.uleb128 0x1c
 2568 0825 73707700 		.ascii	"spw\000"
 2569 0829 05       		.byte	0x5
 2570 082a 7A01     		.2byte	0x17a
 2571 082c 6B080000 		.4byte	0x86b
 2572 0830 02       		.uleb128 0x2
 2573 0831 91       		.byte	0x91
 2574 0832 68       		.sleb128 -24
 2575 0833 1D       		.uleb128 0x1d
 2576 0834 6D736700 		.ascii	"msg\000"
 2577 0838 05       		.byte	0x5
 2578 0839 7B01     		.2byte	0x17b
 2579 083b 0C010000 		.4byte	0x10c
 2580 083f 02       		.uleb128 0x2
 2581 0840 91       		.byte	0x91
 2582 0841 74       		.sleb128 -12
 2583 0842 1E       		.uleb128 0x1e
 2584 0843 B3070000 		.4byte	.LASF137
 2585 0847 81080000 		.4byte	0x881
 2586 084b 05       		.uleb128 0x5
 2587 084c 03       		.byte	0x3
 2588 084d 00000000 		.4byte	__func__.5751
 2589 0851 1F       		.uleb128 0x1f
 2590 0852 E2000000 		.4byte	.LBB11
 2591 0856 24000000 		.4byte	.LBE11-.LBB11
 2592 085a 1D       		.uleb128 0x1d
 2593 085b 63747000 		.ascii	"ctp\000"
 2594 085f 05       		.byte	0x5
 2595 0860 8A01     		.2byte	0x18a
 2596 0862 47020000 		.4byte	0x247
 2597 0866 02       		.uleb128 0x2
ARM GAS  /tmp/ccR802FU.s 			page 47


 2598 0867 91       		.byte	0x91
 2599 0868 70       		.sleb128 -16
 2600 0869 00       		.byte	0
 2601 086a 00       		.byte	0
 2602 086b 09       		.uleb128 0x9
 2603 086c 04       		.byte	0x4
 2604 086d D8070000 		.4byte	0x7d8
 2605 0871 15       		.uleb128 0x15
 2606 0872 A0060000 		.4byte	0x6a0
 2607 0876 81080000 		.4byte	0x881
 2608 087a 16       		.uleb128 0x16
 2609 087b 7D040000 		.4byte	0x47d
 2610 087f 0F       		.byte	0xf
 2611 0880 00       		.byte	0
 2612 0881 0A       		.uleb128 0xa
 2613 0882 71080000 		.4byte	0x871
 2614 0886 20       		.uleb128 0x20
 2615 0887 3E010000 		.4byte	.LASF138
 2616 088b 05       		.byte	0x5
 2617 088c 5D01     		.2byte	0x15d
 2618 088e 00000000 		.4byte	.LFB161
 2619 0892 A4000000 		.4byte	.LFE161-.LFB161
 2620 0896 01       		.uleb128 0x1
 2621 0897 9C       		.byte	0x9c
 2622 0898 C7080000 		.4byte	0x8c7
 2623 089c 1C       		.uleb128 0x1c
 2624 089d 737000   		.ascii	"sp\000"
 2625 08a0 05       		.byte	0x5
 2626 08a1 5D01     		.2byte	0x15d
 2627 08a3 6B080000 		.4byte	0x86b
 2628 08a7 02       		.uleb128 0x2
 2629 08a8 91       		.byte	0x91
 2630 08a9 74       		.sleb128 -12
 2631 08aa 1C       		.uleb128 0x1c
 2632 08ab 6E00     		.ascii	"n\000"
 2633 08ad 05       		.byte	0x5
 2634 08ae 5D01     		.2byte	0x15d
 2635 08b0 22010000 		.4byte	0x122
 2636 08b4 02       		.uleb128 0x2
 2637 08b5 91       		.byte	0x91
 2638 08b6 70       		.sleb128 -16
 2639 08b7 1E       		.uleb128 0x1e
 2640 08b8 B3070000 		.4byte	.LASF137
 2641 08bc D7080000 		.4byte	0x8d7
 2642 08c0 05       		.uleb128 0x5
 2643 08c1 03       		.byte	0x3
 2644 08c2 00000000 		.4byte	__func__.5742
 2645 08c6 00       		.byte	0
 2646 08c7 15       		.uleb128 0x15
 2647 08c8 A0060000 		.4byte	0x6a0
 2648 08cc D7080000 		.4byte	0x8d7
 2649 08d0 16       		.uleb128 0x16
 2650 08d1 7D040000 		.4byte	0x47d
 2651 08d5 10       		.byte	0x10
 2652 08d6 00       		.byte	0
 2653 08d7 0A       		.uleb128 0xa
 2654 08d8 C7080000 		.4byte	0x8c7
ARM GAS  /tmp/ccR802FU.s 			page 48


 2655 08dc 20       		.uleb128 0x20
 2656 08dd BE010000 		.4byte	.LASF139
 2657 08e1 05       		.byte	0x5
 2658 08e2 3F01     		.2byte	0x13f
 2659 08e4 00000000 		.4byte	.LFB160
 2660 08e8 94000000 		.4byte	.LFE160-.LFB160
 2661 08ec 01       		.uleb128 0x1
 2662 08ed 9C       		.byte	0x9c
 2663 08ee 28090000 		.4byte	0x928
 2664 08f2 1C       		.uleb128 0x1c
 2665 08f3 737000   		.ascii	"sp\000"
 2666 08f6 05       		.byte	0x5
 2667 08f7 3F01     		.2byte	0x13f
 2668 08f9 6B080000 		.4byte	0x86b
 2669 08fd 02       		.uleb128 0x2
 2670 08fe 91       		.byte	0x91
 2671 08ff 6C       		.sleb128 -20
 2672 0900 1E       		.uleb128 0x1e
 2673 0901 B3070000 		.4byte	.LASF137
 2674 0905 38090000 		.4byte	0x938
 2675 0909 05       		.uleb128 0x5
 2676 090a 03       		.byte	0x3
 2677 090b 00000000 		.4byte	__func__.5736
 2678 090f 1F       		.uleb128 0x1f
 2679 0910 6E000000 		.4byte	.LBB10
 2680 0914 1A000000 		.4byte	.LBE10-.LBB10
 2681 0918 1D       		.uleb128 0x1d
 2682 0919 747000   		.ascii	"tp\000"
 2683 091c 05       		.byte	0x5
 2684 091d 4A01     		.2byte	0x14a
 2685 091f 47020000 		.4byte	0x247
 2686 0923 02       		.uleb128 0x2
 2687 0924 91       		.byte	0x91
 2688 0925 74       		.sleb128 -12
 2689 0926 00       		.byte	0
 2690 0927 00       		.byte	0
 2691 0928 15       		.uleb128 0x15
 2692 0929 A0060000 		.4byte	0x6a0
 2693 092d 38090000 		.4byte	0x938
 2694 0931 16       		.uleb128 0x16
 2695 0932 7D040000 		.4byte	0x47d
 2696 0936 0C       		.byte	0xc
 2697 0937 00       		.byte	0
 2698 0938 0A       		.uleb128 0xa
 2699 0939 28090000 		.4byte	0x928
 2700 093d 20       		.uleb128 0x20
 2701 093e 42060000 		.4byte	.LASF140
 2702 0942 05       		.byte	0x5
 2703 0943 2601     		.2byte	0x126
 2704 0945 00000000 		.4byte	.LFB159
 2705 0949 90000000 		.4byte	.LFE159-.LFB159
 2706 094d 01       		.uleb128 0x1
 2707 094e 9C       		.byte	0x9c
 2708 094f 71090000 		.4byte	0x971
 2709 0953 1C       		.uleb128 0x1c
 2710 0954 737000   		.ascii	"sp\000"
 2711 0957 05       		.byte	0x5
ARM GAS  /tmp/ccR802FU.s 			page 49


 2712 0958 2601     		.2byte	0x126
 2713 095a 6B080000 		.4byte	0x86b
 2714 095e 02       		.uleb128 0x2
 2715 095f 91       		.byte	0x91
 2716 0960 74       		.sleb128 -12
 2717 0961 1E       		.uleb128 0x1e
 2718 0962 B3070000 		.4byte	.LASF137
 2719 0966 81090000 		.4byte	0x981
 2720 096a 05       		.uleb128 0x5
 2721 096b 03       		.byte	0x3
 2722 096c 00000000 		.4byte	__func__.5732
 2723 0970 00       		.byte	0
 2724 0971 15       		.uleb128 0x15
 2725 0972 A0060000 		.4byte	0x6a0
 2726 0976 81090000 		.4byte	0x981
 2727 097a 16       		.uleb128 0x16
 2728 097b 7D040000 		.4byte	0x47d
 2729 097f 0B       		.byte	0xb
 2730 0980 00       		.byte	0
 2731 0981 0A       		.uleb128 0xa
 2732 0982 71090000 		.4byte	0x971
 2733 0986 1B       		.uleb128 0x1b
 2734 0987 7D020000 		.4byte	.LASF142
 2735 098b 05       		.byte	0x5
 2736 098c 0801     		.2byte	0x108
 2737 098e 0C010000 		.4byte	0x10c
 2738 0992 00000000 		.4byte	.LFB158
 2739 0996 C8000000 		.4byte	.LFE158-.LFB158
 2740 099a 01       		.uleb128 0x1
 2741 099b 9C       		.byte	0x9c
 2742 099c CD090000 		.4byte	0x9cd
 2743 09a0 1C       		.uleb128 0x1c
 2744 09a1 737000   		.ascii	"sp\000"
 2745 09a4 05       		.byte	0x5
 2746 09a5 0801     		.2byte	0x108
 2747 09a7 6B080000 		.4byte	0x86b
 2748 09ab 02       		.uleb128 0x2
 2749 09ac 91       		.byte	0x91
 2750 09ad 74       		.sleb128 -12
 2751 09ae 21       		.uleb128 0x21
 2752 09af 2A020000 		.4byte	.LASF143
 2753 09b3 05       		.byte	0x5
 2754 09b4 0801     		.2byte	0x108
 2755 09b6 2D010000 		.4byte	0x12d
 2756 09ba 02       		.uleb128 0x2
 2757 09bb 91       		.byte	0x91
 2758 09bc 72       		.sleb128 -14
 2759 09bd 1E       		.uleb128 0x1e
 2760 09be B3070000 		.4byte	.LASF137
 2761 09c2 DD090000 		.4byte	0x9dd
 2762 09c6 05       		.uleb128 0x5
 2763 09c7 03       		.byte	0x3
 2764 09c8 00000000 		.4byte	__func__.5728
 2765 09cc 00       		.byte	0
 2766 09cd 15       		.uleb128 0x15
 2767 09ce A0060000 		.4byte	0x6a0
 2768 09d2 DD090000 		.4byte	0x9dd
ARM GAS  /tmp/ccR802FU.s 			page 50


 2769 09d6 16       		.uleb128 0x16
 2770 09d7 7D040000 		.4byte	0x47d
 2771 09db 11       		.byte	0x11
 2772 09dc 00       		.byte	0
 2773 09dd 0A       		.uleb128 0xa
 2774 09de CD090000 		.4byte	0x9cd
 2775 09e2 22       		.uleb128 0x22
 2776 09e3 DE060000 		.4byte	.LASF144
 2777 09e7 05       		.byte	0x5
 2778 09e8 EB       		.byte	0xeb
 2779 09e9 0C010000 		.4byte	0x10c
 2780 09ed 00000000 		.4byte	.LFB157
 2781 09f1 32000000 		.4byte	.LFE157-.LFB157
 2782 09f5 01       		.uleb128 0x1
 2783 09f6 9C       		.byte	0x9c
 2784 09f7 250A0000 		.4byte	0xa25
 2785 09fb 23       		.uleb128 0x23
 2786 09fc 737000   		.ascii	"sp\000"
 2787 09ff 05       		.byte	0x5
 2788 0a00 EB       		.byte	0xeb
 2789 0a01 6B080000 		.4byte	0x86b
 2790 0a05 02       		.uleb128 0x2
 2791 0a06 91       		.byte	0x91
 2792 0a07 6C       		.sleb128 -20
 2793 0a08 24       		.uleb128 0x24
 2794 0a09 2A020000 		.4byte	.LASF143
 2795 0a0d 05       		.byte	0x5
 2796 0a0e EB       		.byte	0xeb
 2797 0a0f 2D010000 		.4byte	0x12d
 2798 0a13 02       		.uleb128 0x2
 2799 0a14 91       		.byte	0x91
 2800 0a15 6A       		.sleb128 -22
 2801 0a16 25       		.uleb128 0x25
 2802 0a17 6D736700 		.ascii	"msg\000"
 2803 0a1b 05       		.byte	0x5
 2804 0a1c EC       		.byte	0xec
 2805 0a1d 0C010000 		.4byte	0x10c
 2806 0a21 02       		.uleb128 0x2
 2807 0a22 91       		.byte	0x91
 2808 0a23 74       		.sleb128 -12
 2809 0a24 00       		.byte	0
 2810 0a25 22       		.uleb128 0x22
 2811 0a26 2A000000 		.4byte	.LASF145
 2812 0a2a 05       		.byte	0x5
 2813 0a2b C5       		.byte	0xc5
 2814 0a2c 0C010000 		.4byte	0x10c
 2815 0a30 00000000 		.4byte	.LFB156
 2816 0a34 A4000000 		.4byte	.LFE156-.LFB156
 2817 0a38 01       		.uleb128 0x1
 2818 0a39 9C       		.byte	0x9c
 2819 0a3a 5B0A0000 		.4byte	0xa5b
 2820 0a3e 23       		.uleb128 0x23
 2821 0a3f 737000   		.ascii	"sp\000"
 2822 0a42 05       		.byte	0x5
 2823 0a43 C5       		.byte	0xc5
 2824 0a44 6B080000 		.4byte	0x86b
 2825 0a48 02       		.uleb128 0x2
ARM GAS  /tmp/ccR802FU.s 			page 51


 2826 0a49 91       		.byte	0x91
 2827 0a4a 74       		.sleb128 -12
 2828 0a4b 1E       		.uleb128 0x1e
 2829 0a4c B3070000 		.4byte	.LASF137
 2830 0a50 6B0A0000 		.4byte	0xa6b
 2831 0a54 05       		.uleb128 0x5
 2832 0a55 03       		.byte	0x3
 2833 0a56 00000000 		.4byte	__func__.5718
 2834 0a5a 00       		.byte	0
 2835 0a5b 15       		.uleb128 0x15
 2836 0a5c A0060000 		.4byte	0x6a0
 2837 0a60 6B0A0000 		.4byte	0xa6b
 2838 0a64 16       		.uleb128 0x16
 2839 0a65 7D040000 		.4byte	0x47d
 2840 0a69 0A       		.byte	0xa
 2841 0a6a 00       		.byte	0
 2842 0a6b 0A       		.uleb128 0xa
 2843 0a6c 5B0A0000 		.4byte	0xa5b
 2844 0a70 22       		.uleb128 0x22
 2845 0a71 37020000 		.4byte	.LASF146
 2846 0a75 05       		.byte	0x5
 2847 0a76 AF       		.byte	0xaf
 2848 0a77 0C010000 		.4byte	0x10c
 2849 0a7b 00000000 		.4byte	.LFB155
 2850 0a7f 22000000 		.4byte	.LFE155-.LFB155
 2851 0a83 01       		.uleb128 0x1
 2852 0a84 9C       		.byte	0x9c
 2853 0a85 A50A0000 		.4byte	0xaa5
 2854 0a89 23       		.uleb128 0x23
 2855 0a8a 737000   		.ascii	"sp\000"
 2856 0a8d 05       		.byte	0x5
 2857 0a8e AF       		.byte	0xaf
 2858 0a8f 6B080000 		.4byte	0x86b
 2859 0a93 02       		.uleb128 0x2
 2860 0a94 91       		.byte	0x91
 2861 0a95 6C       		.sleb128 -20
 2862 0a96 25       		.uleb128 0x25
 2863 0a97 6D736700 		.ascii	"msg\000"
 2864 0a9b 05       		.byte	0x5
 2865 0a9c B0       		.byte	0xb0
 2866 0a9d 0C010000 		.4byte	0x10c
 2867 0aa1 02       		.uleb128 0x2
 2868 0aa2 91       		.byte	0x91
 2869 0aa3 74       		.sleb128 -12
 2870 0aa4 00       		.byte	0
 2871 0aa5 26       		.uleb128 0x26
 2872 0aa6 6E010000 		.4byte	.LASF147
 2873 0aaa 05       		.byte	0x5
 2874 0aab 93       		.byte	0x93
 2875 0aac 00000000 		.4byte	.LFB154
 2876 0ab0 A0000000 		.4byte	.LFE154-.LFB154
 2877 0ab4 01       		.uleb128 0x1
 2878 0ab5 9C       		.byte	0x9c
 2879 0ab6 F10A0000 		.4byte	0xaf1
 2880 0aba 23       		.uleb128 0x23
 2881 0abb 737000   		.ascii	"sp\000"
 2882 0abe 05       		.byte	0x5
ARM GAS  /tmp/ccR802FU.s 			page 52


 2883 0abf 93       		.byte	0x93
 2884 0ac0 6B080000 		.4byte	0x86b
 2885 0ac4 02       		.uleb128 0x2
 2886 0ac5 91       		.byte	0x91
 2887 0ac6 6C       		.sleb128 -20
 2888 0ac7 23       		.uleb128 0x23
 2889 0ac8 6E00     		.ascii	"n\000"
 2890 0aca 05       		.byte	0x5
 2891 0acb 93       		.byte	0x93
 2892 0acc 22010000 		.4byte	0x122
 2893 0ad0 02       		.uleb128 0x2
 2894 0ad1 91       		.byte	0x91
 2895 0ad2 68       		.sleb128 -24
 2896 0ad3 25       		.uleb128 0x25
 2897 0ad4 636E7400 		.ascii	"cnt\000"
 2898 0ad8 05       		.byte	0x5
 2899 0ad9 94       		.byte	0x94
 2900 0ada 22010000 		.4byte	0x122
 2901 0ade 02       		.uleb128 0x2
 2902 0adf 91       		.byte	0x91
 2903 0ae0 74       		.sleb128 -12
 2904 0ae1 1E       		.uleb128 0x1e
 2905 0ae2 B3070000 		.4byte	.LASF137
 2906 0ae6 81090000 		.4byte	0x981
 2907 0aea 05       		.uleb128 0x5
 2908 0aeb 03       		.byte	0x3
 2909 0aec 00000000 		.4byte	__func__.5707
 2910 0af0 00       		.byte	0
 2911 0af1 26       		.uleb128 0x26
 2912 0af2 A0000000 		.4byte	.LASF148
 2913 0af6 05       		.byte	0x5
 2914 0af7 78       		.byte	0x78
 2915 0af8 00000000 		.4byte	.LFB153
 2916 0afc 26000000 		.4byte	.LFE153-.LFB153
 2917 0b00 01       		.uleb128 0x1
 2918 0b01 9C       		.byte	0x9c
 2919 0b02 200B0000 		.4byte	0xb20
 2920 0b06 23       		.uleb128 0x23
 2921 0b07 737000   		.ascii	"sp\000"
 2922 0b0a 05       		.byte	0x5
 2923 0b0b 78       		.byte	0x78
 2924 0b0c 6B080000 		.4byte	0x86b
 2925 0b10 02       		.uleb128 0x2
 2926 0b11 91       		.byte	0x91
 2927 0b12 74       		.sleb128 -12
 2928 0b13 23       		.uleb128 0x23
 2929 0b14 6E00     		.ascii	"n\000"
 2930 0b16 05       		.byte	0x5
 2931 0b17 78       		.byte	0x78
 2932 0b18 22010000 		.4byte	0x122
 2933 0b1c 02       		.uleb128 0x2
 2934 0b1d 91       		.byte	0x91
 2935 0b1e 70       		.sleb128 -16
 2936 0b1f 00       		.byte	0
 2937 0b20 26       		.uleb128 0x26
 2938 0b21 25070000 		.4byte	.LASF149
 2939 0b25 05       		.byte	0x5
ARM GAS  /tmp/ccR802FU.s 			page 53


 2940 0b26 61       		.byte	0x61
 2941 0b27 00000000 		.4byte	.LFB152
 2942 0b2b 34000000 		.4byte	.LFE152-.LFB152
 2943 0b2f 01       		.uleb128 0x1
 2944 0b30 9C       		.byte	0x9c
 2945 0b31 5E0B0000 		.4byte	0xb5e
 2946 0b35 23       		.uleb128 0x23
 2947 0b36 737000   		.ascii	"sp\000"
 2948 0b39 05       		.byte	0x5
 2949 0b3a 61       		.byte	0x61
 2950 0b3b 6B080000 		.4byte	0x86b
 2951 0b3f 02       		.uleb128 0x2
 2952 0b40 91       		.byte	0x91
 2953 0b41 74       		.sleb128 -12
 2954 0b42 23       		.uleb128 0x23
 2955 0b43 6E00     		.ascii	"n\000"
 2956 0b45 05       		.byte	0x5
 2957 0b46 61       		.byte	0x61
 2958 0b47 22010000 		.4byte	0x122
 2959 0b4b 02       		.uleb128 0x2
 2960 0b4c 91       		.byte	0x91
 2961 0b4d 70       		.sleb128 -16
 2962 0b4e 1E       		.uleb128 0x1e
 2963 0b4f B3070000 		.4byte	.LASF137
 2964 0b53 81080000 		.4byte	0x881
 2965 0b57 05       		.uleb128 0x5
 2966 0b58 03       		.byte	0x3
 2967 0b59 00000000 		.4byte	__func__.5697
 2968 0b5d 00       		.byte	0
 2969 0b5e 27       		.uleb128 0x27
 2970 0b5f 1E020000 		.4byte	.LASF152
 2971 0b63 04       		.byte	0x4
 2972 0b64 6601     		.2byte	0x166
 2973 0b66 00000000 		.4byte	.LFB78
 2974 0b6a 38000000 		.4byte	.LFE78-.LFB78
 2975 0b6e 01       		.uleb128 0x1
 2976 0b6f 9C       		.byte	0x9c
 2977 0b70 840B0000 		.4byte	0xb84
 2978 0b74 1E       		.uleb128 0x1e
 2979 0b75 B3070000 		.4byte	.LASF137
 2980 0b79 81090000 		.4byte	0x981
 2981 0b7d 05       		.uleb128 0x5
 2982 0b7e 03       		.byte	0x3
 2983 0b7f 00000000 		.4byte	__func__.4993
 2984 0b83 00       		.byte	0
 2985 0b84 28       		.uleb128 0x28
 2986 0b85 A9030000 		.4byte	.LASF164
 2987 0b89 04       		.byte	0x4
 2988 0b8a 5A01     		.2byte	0x15a
 2989 0b8c 00000000 		.4byte	.LFB77
 2990 0b90 0E000000 		.4byte	.LFE77-.LFB77
 2991 0b94 01       		.uleb128 0x1
 2992 0b95 9C       		.byte	0x9c
 2993 0b96 29       		.uleb128 0x29
 2994 0b97 B0040000 		.4byte	.LASF150
 2995 0b9b 03       		.byte	0x3
 2996 0b9c A802     		.2byte	0x2a8
ARM GAS  /tmp/ccR802FU.s 			page 54


 2997 0b9e 47020000 		.4byte	0x247
 2998 0ba2 00000000 		.4byte	.LFB68
 2999 0ba6 22000000 		.4byte	.LFE68-.LFB68
 3000 0baa 01       		.uleb128 0x1
 3001 0bab 9C       		.byte	0x9c
 3002 0bac CE0B0000 		.4byte	0xbce
 3003 0bb0 1C       		.uleb128 0x1c
 3004 0bb1 74717000 		.ascii	"tqp\000"
 3005 0bb5 03       		.byte	0x3
 3006 0bb6 A802     		.2byte	0x2a8
 3007 0bb8 CE0B0000 		.4byte	0xbce
 3008 0bbc 02       		.uleb128 0x2
 3009 0bbd 91       		.byte	0x91
 3010 0bbe 74       		.sleb128 -12
 3011 0bbf 1D       		.uleb128 0x1d
 3012 0bc0 747000   		.ascii	"tp\000"
 3013 0bc3 03       		.byte	0x3
 3014 0bc4 A902     		.2byte	0x2a9
 3015 0bc6 47020000 		.4byte	0x247
 3016 0bca 02       		.uleb128 0x2
 3017 0bcb 91       		.byte	0x91
 3018 0bcc 7C       		.sleb128 -4
 3019 0bcd 00       		.byte	0
 3020 0bce 09       		.uleb128 0x9
 3021 0bcf 04       		.byte	0x4
 3022 0bd0 71020000 		.4byte	0x271
 3023 0bd4 29       		.uleb128 0x29
 3024 0bd5 06050000 		.4byte	.LASF151
 3025 0bd9 03       		.byte	0x3
 3026 0bda 9F02     		.2byte	0x29f
 3027 0bdc 47020000 		.4byte	0x247
 3028 0be0 00000000 		.4byte	.LFB67
 3029 0be4 22000000 		.4byte	.LFE67-.LFB67
 3030 0be8 01       		.uleb128 0x1
 3031 0be9 9C       		.byte	0x9c
 3032 0bea 0C0C0000 		.4byte	0xc0c
 3033 0bee 1C       		.uleb128 0x1c
 3034 0bef 74717000 		.ascii	"tqp\000"
 3035 0bf3 03       		.byte	0x3
 3036 0bf4 9F02     		.2byte	0x29f
 3037 0bf6 CE0B0000 		.4byte	0xbce
 3038 0bfa 02       		.uleb128 0x2
 3039 0bfb 91       		.byte	0x91
 3040 0bfc 74       		.sleb128 -12
 3041 0bfd 1D       		.uleb128 0x1d
 3042 0bfe 747000   		.ascii	"tp\000"
 3043 0c01 03       		.byte	0x3
 3044 0c02 A002     		.2byte	0x2a0
 3045 0c04 47020000 		.4byte	0x247
 3046 0c08 02       		.uleb128 0x2
 3047 0c09 91       		.byte	0x91
 3048 0c0a 7C       		.sleb128 -4
 3049 0c0b 00       		.byte	0
 3050 0c0c 2A       		.uleb128 0x2a
 3051 0c0d F7050000 		.4byte	.LASF153
 3052 0c11 03       		.byte	0x3
 3053 0c12 9702     		.2byte	0x297
ARM GAS  /tmp/ccR802FU.s 			page 55


 3054 0c14 00000000 		.4byte	.LFB66
 3055 0c18 28000000 		.4byte	.LFE66-.LFB66
 3056 0c1c 01       		.uleb128 0x1
 3057 0c1d 9C       		.byte	0x9c
 3058 0c1e 400C0000 		.4byte	0xc40
 3059 0c22 1C       		.uleb128 0x1c
 3060 0c23 747000   		.ascii	"tp\000"
 3061 0c26 03       		.byte	0x3
 3062 0c27 9702     		.2byte	0x297
 3063 0c29 47020000 		.4byte	0x247
 3064 0c2d 02       		.uleb128 0x2
 3065 0c2e 91       		.byte	0x91
 3066 0c2f 7C       		.sleb128 -4
 3067 0c30 1C       		.uleb128 0x1c
 3068 0c31 74717000 		.ascii	"tqp\000"
 3069 0c35 03       		.byte	0x3
 3070 0c36 9702     		.2byte	0x297
 3071 0c38 CE0B0000 		.4byte	0xbce
 3072 0c3c 02       		.uleb128 0x2
 3073 0c3d 91       		.byte	0x91
 3074 0c3e 78       		.sleb128 -8
 3075 0c3f 00       		.byte	0
 3076 0c40 29       		.uleb128 0x29
 3077 0c41 32040000 		.4byte	.LASF154
 3078 0c45 03       		.byte	0x3
 3079 0c46 7502     		.2byte	0x275
 3080 0c48 F4070000 		.4byte	0x7f4
 3081 0c4c 00000000 		.4byte	.LFB62
 3082 0c50 18000000 		.4byte	.LFE62-.LFB62
 3083 0c54 01       		.uleb128 0x1
 3084 0c55 9C       		.byte	0x9c
 3085 0c56 6A0C0000 		.4byte	0xc6a
 3086 0c5a 1C       		.uleb128 0x1c
 3087 0c5b 74717000 		.ascii	"tqp\000"
 3088 0c5f 03       		.byte	0x3
 3089 0c60 7502     		.2byte	0x275
 3090 0c62 6A0C0000 		.4byte	0xc6a
 3091 0c66 02       		.uleb128 0x2
 3092 0c67 91       		.byte	0x91
 3093 0c68 7C       		.sleb128 -4
 3094 0c69 00       		.byte	0
 3095 0c6a 09       		.uleb128 0x9
 3096 0c6b 04       		.byte	0x4
 3097 0c6c 7C020000 		.4byte	0x27c
 3098 0c70 29       		.uleb128 0x29
 3099 0c71 A5070000 		.4byte	.LASF155
 3100 0c75 03       		.byte	0x3
 3101 0c76 6802     		.2byte	0x268
 3102 0c78 F4070000 		.4byte	0x7f4
 3103 0c7c 00000000 		.4byte	.LFB61
 3104 0c80 18000000 		.4byte	.LFE61-.LFB61
 3105 0c84 01       		.uleb128 0x1
 3106 0c85 9C       		.byte	0x9c
 3107 0c86 9A0C0000 		.4byte	0xc9a
 3108 0c8a 1C       		.uleb128 0x1c
 3109 0c8b 74717000 		.ascii	"tqp\000"
 3110 0c8f 03       		.byte	0x3
ARM GAS  /tmp/ccR802FU.s 			page 56


 3111 0c90 6802     		.2byte	0x268
 3112 0c92 6A0C0000 		.4byte	0xc6a
 3113 0c96 02       		.uleb128 0x2
 3114 0c97 91       		.byte	0x91
 3115 0c98 7C       		.sleb128 -4
 3116 0c99 00       		.byte	0
 3117 0c9a 2A       		.uleb128 0x2a
 3118 0c9b D3060000 		.4byte	.LASF156
 3119 0c9f 03       		.byte	0x3
 3120 0ca0 5A02     		.2byte	0x25a
 3121 0ca2 00000000 		.4byte	.LFB60
 3122 0ca6 16000000 		.4byte	.LFE60-.LFB60
 3123 0caa 01       		.uleb128 0x1
 3124 0cab 9C       		.byte	0x9c
 3125 0cac C00C0000 		.4byte	0xcc0
 3126 0cb0 1C       		.uleb128 0x1c
 3127 0cb1 74717000 		.ascii	"tqp\000"
 3128 0cb5 03       		.byte	0x3
 3129 0cb6 5A02     		.2byte	0x25a
 3130 0cb8 CE0B0000 		.4byte	0xbce
 3131 0cbc 02       		.uleb128 0x2
 3132 0cbd 91       		.byte	0x91
 3133 0cbe 7C       		.sleb128 -4
 3134 0cbf 00       		.byte	0
 3135 0cc0 2A       		.uleb128 0x2a
 3136 0cc1 CD070000 		.4byte	.LASF157
 3137 0cc5 01       		.byte	0x1
 3138 0cc6 5301     		.2byte	0x153
 3139 0cc8 00000000 		.4byte	.LFB39
 3140 0ccc 06000000 		.4byte	.LFE39-.LFB39
 3141 0cd0 01       		.uleb128 0x1
 3142 0cd1 9C       		.byte	0x9c
 3143 0cd2 E70C0000 		.4byte	0xce7
 3144 0cd6 2B       		.uleb128 0x2b
 3145 0cd7 170D0000 		.4byte	0xd17
 3146 0cdb 00000000 		.4byte	.LBB8
 3147 0cdf 02000000 		.4byte	.LBE8-.LBB8
 3148 0ce3 01       		.byte	0x1
 3149 0ce4 5501     		.2byte	0x155
 3150 0ce6 00       		.byte	0
 3151 0ce7 2A       		.uleb128 0x2a
 3152 0ce8 E0000000 		.4byte	.LASF158
 3153 0cec 01       		.byte	0x1
 3154 0ced 4A01     		.2byte	0x14a
 3155 0cef 00000000 		.4byte	.LFB38
 3156 0cf3 06000000 		.4byte	.LFE38-.LFB38
 3157 0cf7 01       		.uleb128 0x1
 3158 0cf8 9C       		.byte	0x9c
 3159 0cf9 0E0D0000 		.4byte	0xd0e
 3160 0cfd 2B       		.uleb128 0x2b
 3161 0cfe 0E0D0000 		.4byte	0xd0e
 3162 0d02 00000000 		.4byte	.LBB6
 3163 0d06 02000000 		.4byte	.LBE6-.LBB6
 3164 0d0a 01       		.byte	0x1
 3165 0d0b 4C01     		.2byte	0x14c
 3166 0d0d 00       		.byte	0
 3167 0d0e 2C       		.uleb128 0x2c
ARM GAS  /tmp/ccR802FU.s 			page 57


 3168 0d0f A4020000 		.4byte	.LASF159
 3169 0d13 02       		.byte	0x2
 3170 0d14 5601     		.2byte	0x156
 3171 0d16 03       		.byte	0x3
 3172 0d17 2C       		.uleb128 0x2c
 3173 0d18 E0050000 		.4byte	.LASF160
 3174 0d1c 02       		.byte	0x2
 3175 0d1d 4B01     		.2byte	0x14b
 3176 0d1f 03       		.byte	0x3
 3177 0d20 00       		.byte	0
 3178              		.section	.debug_abbrev,"",%progbits
 3179              	.Ldebug_abbrev0:
 3180 0000 01       		.uleb128 0x1
 3181 0001 11       		.uleb128 0x11
 3182 0002 01       		.byte	0x1
 3183 0003 25       		.uleb128 0x25
 3184 0004 0E       		.uleb128 0xe
 3185 0005 13       		.uleb128 0x13
 3186 0006 0B       		.uleb128 0xb
 3187 0007 03       		.uleb128 0x3
 3188 0008 0E       		.uleb128 0xe
 3189 0009 1B       		.uleb128 0x1b
 3190 000a 0E       		.uleb128 0xe
 3191 000b 55       		.uleb128 0x55
 3192 000c 17       		.uleb128 0x17
 3193 000d 11       		.uleb128 0x11
 3194 000e 01       		.uleb128 0x1
 3195 000f 10       		.uleb128 0x10
 3196 0010 17       		.uleb128 0x17
 3197 0011 00       		.byte	0
 3198 0012 00       		.byte	0
 3199 0013 02       		.uleb128 0x2
 3200 0014 24       		.uleb128 0x24
 3201 0015 00       		.byte	0
 3202 0016 0B       		.uleb128 0xb
 3203 0017 0B       		.uleb128 0xb
 3204 0018 3E       		.uleb128 0x3e
 3205 0019 0B       		.uleb128 0xb
 3206 001a 03       		.uleb128 0x3
 3207 001b 08       		.uleb128 0x8
 3208 001c 00       		.byte	0
 3209 001d 00       		.byte	0
 3210 001e 03       		.uleb128 0x3
 3211 001f 24       		.uleb128 0x24
 3212 0020 00       		.byte	0
 3213 0021 0B       		.uleb128 0xb
 3214 0022 0B       		.uleb128 0xb
 3215 0023 3E       		.uleb128 0x3e
 3216 0024 0B       		.uleb128 0xb
 3217 0025 03       		.uleb128 0x3
 3218 0026 0E       		.uleb128 0xe
 3219 0027 00       		.byte	0
 3220 0028 00       		.byte	0
 3221 0029 04       		.uleb128 0x4
 3222 002a 16       		.uleb128 0x16
 3223 002b 00       		.byte	0
 3224 002c 03       		.uleb128 0x3
ARM GAS  /tmp/ccR802FU.s 			page 58


 3225 002d 0E       		.uleb128 0xe
 3226 002e 3A       		.uleb128 0x3a
 3227 002f 0B       		.uleb128 0xb
 3228 0030 3B       		.uleb128 0x3b
 3229 0031 0B       		.uleb128 0xb
 3230 0032 49       		.uleb128 0x49
 3231 0033 13       		.uleb128 0x13
 3232 0034 00       		.byte	0
 3233 0035 00       		.byte	0
 3234 0036 05       		.uleb128 0x5
 3235 0037 13       		.uleb128 0x13
 3236 0038 01       		.byte	0x1
 3237 0039 03       		.uleb128 0x3
 3238 003a 0E       		.uleb128 0xe
 3239 003b 0B       		.uleb128 0xb
 3240 003c 0B       		.uleb128 0xb
 3241 003d 3A       		.uleb128 0x3a
 3242 003e 0B       		.uleb128 0xb
 3243 003f 3B       		.uleb128 0x3b
 3244 0040 0B       		.uleb128 0xb
 3245 0041 01       		.uleb128 0x1
 3246 0042 13       		.uleb128 0x13
 3247 0043 00       		.byte	0
 3248 0044 00       		.byte	0
 3249 0045 06       		.uleb128 0x6
 3250 0046 0D       		.uleb128 0xd
 3251 0047 00       		.byte	0
 3252 0048 03       		.uleb128 0x3
 3253 0049 0E       		.uleb128 0xe
 3254 004a 3A       		.uleb128 0x3a
 3255 004b 0B       		.uleb128 0xb
 3256 004c 3B       		.uleb128 0x3b
 3257 004d 0B       		.uleb128 0xb
 3258 004e 49       		.uleb128 0x49
 3259 004f 13       		.uleb128 0x13
 3260 0050 38       		.uleb128 0x38
 3261 0051 0B       		.uleb128 0xb
 3262 0052 00       		.byte	0
 3263 0053 00       		.byte	0
 3264 0054 07       		.uleb128 0x7
 3265 0055 0D       		.uleb128 0xd
 3266 0056 00       		.byte	0
 3267 0057 03       		.uleb128 0x3
 3268 0058 08       		.uleb128 0x8
 3269 0059 3A       		.uleb128 0x3a
 3270 005a 0B       		.uleb128 0xb
 3271 005b 3B       		.uleb128 0x3b
 3272 005c 05       		.uleb128 0x5
 3273 005d 49       		.uleb128 0x49
 3274 005e 13       		.uleb128 0x13
 3275 005f 38       		.uleb128 0x38
 3276 0060 0B       		.uleb128 0xb
 3277 0061 00       		.byte	0
 3278 0062 00       		.byte	0
 3279 0063 08       		.uleb128 0x8
 3280 0064 0D       		.uleb128 0xd
 3281 0065 00       		.byte	0
ARM GAS  /tmp/ccR802FU.s 			page 59


 3282 0066 03       		.uleb128 0x3
 3283 0067 0E       		.uleb128 0xe
 3284 0068 3A       		.uleb128 0x3a
 3285 0069 0B       		.uleb128 0xb
 3286 006a 3B       		.uleb128 0x3b
 3287 006b 05       		.uleb128 0x5
 3288 006c 49       		.uleb128 0x49
 3289 006d 13       		.uleb128 0x13
 3290 006e 38       		.uleb128 0x38
 3291 006f 0B       		.uleb128 0xb
 3292 0070 00       		.byte	0
 3293 0071 00       		.byte	0
 3294 0072 09       		.uleb128 0x9
 3295 0073 0F       		.uleb128 0xf
 3296 0074 00       		.byte	0
 3297 0075 0B       		.uleb128 0xb
 3298 0076 0B       		.uleb128 0xb
 3299 0077 49       		.uleb128 0x49
 3300 0078 13       		.uleb128 0x13
 3301 0079 00       		.byte	0
 3302 007a 00       		.byte	0
 3303 007b 0A       		.uleb128 0xa
 3304 007c 26       		.uleb128 0x26
 3305 007d 00       		.byte	0
 3306 007e 49       		.uleb128 0x49
 3307 007f 13       		.uleb128 0x13
 3308 0080 00       		.byte	0
 3309 0081 00       		.byte	0
 3310 0082 0B       		.uleb128 0xb
 3311 0083 13       		.uleb128 0x13
 3312 0084 01       		.byte	0x1
 3313 0085 03       		.uleb128 0x3
 3314 0086 0E       		.uleb128 0xe
 3315 0087 0B       		.uleb128 0xb
 3316 0088 0B       		.uleb128 0xb
 3317 0089 3A       		.uleb128 0x3a
 3318 008a 0B       		.uleb128 0xb
 3319 008b 3B       		.uleb128 0x3b
 3320 008c 05       		.uleb128 0x5
 3321 008d 01       		.uleb128 0x1
 3322 008e 13       		.uleb128 0x13
 3323 008f 00       		.byte	0
 3324 0090 00       		.byte	0
 3325 0091 0C       		.uleb128 0xc
 3326 0092 15       		.uleb128 0x15
 3327 0093 01       		.byte	0x1
 3328 0094 27       		.uleb128 0x27
 3329 0095 19       		.uleb128 0x19
 3330 0096 01       		.uleb128 0x1
 3331 0097 13       		.uleb128 0x13
 3332 0098 00       		.byte	0
 3333 0099 00       		.byte	0
 3334 009a 0D       		.uleb128 0xd
 3335 009b 05       		.uleb128 0x5
 3336 009c 00       		.byte	0
 3337 009d 49       		.uleb128 0x49
 3338 009e 13       		.uleb128 0x13
ARM GAS  /tmp/ccR802FU.s 			page 60


 3339 009f 00       		.byte	0
 3340 00a0 00       		.byte	0
 3341 00a1 0E       		.uleb128 0xe
 3342 00a2 0F       		.uleb128 0xf
 3343 00a3 00       		.byte	0
 3344 00a4 0B       		.uleb128 0xb
 3345 00a5 0B       		.uleb128 0xb
 3346 00a6 00       		.byte	0
 3347 00a7 00       		.byte	0
 3348 00a8 0F       		.uleb128 0xf
 3349 00a9 13       		.uleb128 0x13
 3350 00aa 01       		.byte	0x1
 3351 00ab 03       		.uleb128 0x3
 3352 00ac 0E       		.uleb128 0xe
 3353 00ad 0B       		.uleb128 0xb
 3354 00ae 05       		.uleb128 0x5
 3355 00af 3A       		.uleb128 0x3a
 3356 00b0 0B       		.uleb128 0xb
 3357 00b1 3B       		.uleb128 0x3b
 3358 00b2 05       		.uleb128 0x5
 3359 00b3 01       		.uleb128 0x1
 3360 00b4 13       		.uleb128 0x13
 3361 00b5 00       		.byte	0
 3362 00b6 00       		.byte	0
 3363 00b7 10       		.uleb128 0x10
 3364 00b8 0D       		.uleb128 0xd
 3365 00b9 00       		.byte	0
 3366 00ba 03       		.uleb128 0x3
 3367 00bb 0E       		.uleb128 0xe
 3368 00bc 3A       		.uleb128 0x3a
 3369 00bd 0B       		.uleb128 0xb
 3370 00be 3B       		.uleb128 0x3b
 3371 00bf 05       		.uleb128 0x5
 3372 00c0 49       		.uleb128 0x49
 3373 00c1 13       		.uleb128 0x13
 3374 00c2 38       		.uleb128 0x38
 3375 00c3 05       		.uleb128 0x5
 3376 00c4 00       		.byte	0
 3377 00c5 00       		.byte	0
 3378 00c6 11       		.uleb128 0x11
 3379 00c7 34       		.uleb128 0x34
 3380 00c8 00       		.byte	0
 3381 00c9 03       		.uleb128 0x3
 3382 00ca 0E       		.uleb128 0xe
 3383 00cb 3A       		.uleb128 0x3a
 3384 00cc 0B       		.uleb128 0xb
 3385 00cd 3B       		.uleb128 0x3b
 3386 00ce 0B       		.uleb128 0xb
 3387 00cf 49       		.uleb128 0x49
 3388 00d0 13       		.uleb128 0x13
 3389 00d1 3F       		.uleb128 0x3f
 3390 00d2 19       		.uleb128 0x19
 3391 00d3 3C       		.uleb128 0x3c
 3392 00d4 19       		.uleb128 0x19
 3393 00d5 00       		.byte	0
 3394 00d6 00       		.byte	0
 3395 00d7 12       		.uleb128 0x12
ARM GAS  /tmp/ccR802FU.s 			page 61


 3396 00d8 0D       		.uleb128 0xd
 3397 00d9 00       		.byte	0
 3398 00da 03       		.uleb128 0x3
 3399 00db 08       		.uleb128 0x8
 3400 00dc 3A       		.uleb128 0x3a
 3401 00dd 0B       		.uleb128 0xb
 3402 00de 3B       		.uleb128 0x3b
 3403 00df 0B       		.uleb128 0xb
 3404 00e0 49       		.uleb128 0x49
 3405 00e1 13       		.uleb128 0x13
 3406 00e2 38       		.uleb128 0x38
 3407 00e3 0B       		.uleb128 0xb
 3408 00e4 00       		.byte	0
 3409 00e5 00       		.byte	0
 3410 00e6 13       		.uleb128 0x13
 3411 00e7 13       		.uleb128 0x13
 3412 00e8 01       		.byte	0x1
 3413 00e9 0B       		.uleb128 0xb
 3414 00ea 0B       		.uleb128 0xb
 3415 00eb 3A       		.uleb128 0x3a
 3416 00ec 0B       		.uleb128 0xb
 3417 00ed 3B       		.uleb128 0x3b
 3418 00ee 0B       		.uleb128 0xb
 3419 00ef 01       		.uleb128 0x1
 3420 00f0 13       		.uleb128 0x13
 3421 00f1 00       		.byte	0
 3422 00f2 00       		.byte	0
 3423 00f3 14       		.uleb128 0x14
 3424 00f4 13       		.uleb128 0x13
 3425 00f5 01       		.byte	0x1
 3426 00f6 0B       		.uleb128 0xb
 3427 00f7 05       		.uleb128 0x5
 3428 00f8 3A       		.uleb128 0x3a
 3429 00f9 0B       		.uleb128 0xb
 3430 00fa 3B       		.uleb128 0x3b
 3431 00fb 0B       		.uleb128 0xb
 3432 00fc 01       		.uleb128 0x1
 3433 00fd 13       		.uleb128 0x13
 3434 00fe 00       		.byte	0
 3435 00ff 00       		.byte	0
 3436 0100 15       		.uleb128 0x15
 3437 0101 01       		.uleb128 0x1
 3438 0102 01       		.byte	0x1
 3439 0103 49       		.uleb128 0x49
 3440 0104 13       		.uleb128 0x13
 3441 0105 01       		.uleb128 0x1
 3442 0106 13       		.uleb128 0x13
 3443 0107 00       		.byte	0
 3444 0108 00       		.byte	0
 3445 0109 16       		.uleb128 0x16
 3446 010a 21       		.uleb128 0x21
 3447 010b 00       		.byte	0
 3448 010c 49       		.uleb128 0x49
 3449 010d 13       		.uleb128 0x13
 3450 010e 2F       		.uleb128 0x2f
 3451 010f 0B       		.uleb128 0xb
 3452 0110 00       		.byte	0
ARM GAS  /tmp/ccR802FU.s 			page 62


 3453 0111 00       		.byte	0
 3454 0112 17       		.uleb128 0x17
 3455 0113 17       		.uleb128 0x17
 3456 0114 01       		.byte	0x1
 3457 0115 0B       		.uleb128 0xb
 3458 0116 0B       		.uleb128 0xb
 3459 0117 3A       		.uleb128 0x3a
 3460 0118 0B       		.uleb128 0xb
 3461 0119 3B       		.uleb128 0x3b
 3462 011a 0B       		.uleb128 0xb
 3463 011b 01       		.uleb128 0x1
 3464 011c 13       		.uleb128 0x13
 3465 011d 00       		.byte	0
 3466 011e 00       		.byte	0
 3467 011f 18       		.uleb128 0x18
 3468 0120 0D       		.uleb128 0xd
 3469 0121 00       		.byte	0
 3470 0122 03       		.uleb128 0x3
 3471 0123 0E       		.uleb128 0xe
 3472 0124 3A       		.uleb128 0x3a
 3473 0125 0B       		.uleb128 0xb
 3474 0126 3B       		.uleb128 0x3b
 3475 0127 05       		.uleb128 0x5
 3476 0128 49       		.uleb128 0x49
 3477 0129 13       		.uleb128 0x13
 3478 012a 00       		.byte	0
 3479 012b 00       		.byte	0
 3480 012c 19       		.uleb128 0x19
 3481 012d 35       		.uleb128 0x35
 3482 012e 00       		.byte	0
 3483 012f 49       		.uleb128 0x49
 3484 0130 13       		.uleb128 0x13
 3485 0131 00       		.byte	0
 3486 0132 00       		.byte	0
 3487 0133 1A       		.uleb128 0x1a
 3488 0134 34       		.uleb128 0x34
 3489 0135 00       		.byte	0
 3490 0136 03       		.uleb128 0x3
 3491 0137 08       		.uleb128 0x8
 3492 0138 3A       		.uleb128 0x3a
 3493 0139 0B       		.uleb128 0xb
 3494 013a 3B       		.uleb128 0x3b
 3495 013b 05       		.uleb128 0x5
 3496 013c 49       		.uleb128 0x49
 3497 013d 13       		.uleb128 0x13
 3498 013e 3F       		.uleb128 0x3f
 3499 013f 19       		.uleb128 0x19
 3500 0140 3C       		.uleb128 0x3c
 3501 0141 19       		.uleb128 0x19
 3502 0142 00       		.byte	0
 3503 0143 00       		.byte	0
 3504 0144 1B       		.uleb128 0x1b
 3505 0145 2E       		.uleb128 0x2e
 3506 0146 01       		.byte	0x1
 3507 0147 3F       		.uleb128 0x3f
 3508 0148 19       		.uleb128 0x19
 3509 0149 03       		.uleb128 0x3
ARM GAS  /tmp/ccR802FU.s 			page 63


 3510 014a 0E       		.uleb128 0xe
 3511 014b 3A       		.uleb128 0x3a
 3512 014c 0B       		.uleb128 0xb
 3513 014d 3B       		.uleb128 0x3b
 3514 014e 05       		.uleb128 0x5
 3515 014f 27       		.uleb128 0x27
 3516 0150 19       		.uleb128 0x19
 3517 0151 49       		.uleb128 0x49
 3518 0152 13       		.uleb128 0x13
 3519 0153 11       		.uleb128 0x11
 3520 0154 01       		.uleb128 0x1
 3521 0155 12       		.uleb128 0x12
 3522 0156 06       		.uleb128 0x6
 3523 0157 40       		.uleb128 0x40
 3524 0158 18       		.uleb128 0x18
 3525 0159 9642     		.uleb128 0x2116
 3526 015b 19       		.uleb128 0x19
 3527 015c 01       		.uleb128 0x1
 3528 015d 13       		.uleb128 0x13
 3529 015e 00       		.byte	0
 3530 015f 00       		.byte	0
 3531 0160 1C       		.uleb128 0x1c
 3532 0161 05       		.uleb128 0x5
 3533 0162 00       		.byte	0
 3534 0163 03       		.uleb128 0x3
 3535 0164 08       		.uleb128 0x8
 3536 0165 3A       		.uleb128 0x3a
 3537 0166 0B       		.uleb128 0xb
 3538 0167 3B       		.uleb128 0x3b
 3539 0168 05       		.uleb128 0x5
 3540 0169 49       		.uleb128 0x49
 3541 016a 13       		.uleb128 0x13
 3542 016b 02       		.uleb128 0x2
 3543 016c 18       		.uleb128 0x18
 3544 016d 00       		.byte	0
 3545 016e 00       		.byte	0
 3546 016f 1D       		.uleb128 0x1d
 3547 0170 34       		.uleb128 0x34
 3548 0171 00       		.byte	0
 3549 0172 03       		.uleb128 0x3
 3550 0173 08       		.uleb128 0x8
 3551 0174 3A       		.uleb128 0x3a
 3552 0175 0B       		.uleb128 0xb
 3553 0176 3B       		.uleb128 0x3b
 3554 0177 05       		.uleb128 0x5
 3555 0178 49       		.uleb128 0x49
 3556 0179 13       		.uleb128 0x13
 3557 017a 02       		.uleb128 0x2
 3558 017b 18       		.uleb128 0x18
 3559 017c 00       		.byte	0
 3560 017d 00       		.byte	0
 3561 017e 1E       		.uleb128 0x1e
 3562 017f 34       		.uleb128 0x34
 3563 0180 00       		.byte	0
 3564 0181 03       		.uleb128 0x3
 3565 0182 0E       		.uleb128 0xe
 3566 0183 49       		.uleb128 0x49
ARM GAS  /tmp/ccR802FU.s 			page 64


 3567 0184 13       		.uleb128 0x13
 3568 0185 34       		.uleb128 0x34
 3569 0186 19       		.uleb128 0x19
 3570 0187 02       		.uleb128 0x2
 3571 0188 18       		.uleb128 0x18
 3572 0189 00       		.byte	0
 3573 018a 00       		.byte	0
 3574 018b 1F       		.uleb128 0x1f
 3575 018c 0B       		.uleb128 0xb
 3576 018d 01       		.byte	0x1
 3577 018e 11       		.uleb128 0x11
 3578 018f 01       		.uleb128 0x1
 3579 0190 12       		.uleb128 0x12
 3580 0191 06       		.uleb128 0x6
 3581 0192 00       		.byte	0
 3582 0193 00       		.byte	0
 3583 0194 20       		.uleb128 0x20
 3584 0195 2E       		.uleb128 0x2e
 3585 0196 01       		.byte	0x1
 3586 0197 3F       		.uleb128 0x3f
 3587 0198 19       		.uleb128 0x19
 3588 0199 03       		.uleb128 0x3
 3589 019a 0E       		.uleb128 0xe
 3590 019b 3A       		.uleb128 0x3a
 3591 019c 0B       		.uleb128 0xb
 3592 019d 3B       		.uleb128 0x3b
 3593 019e 05       		.uleb128 0x5
 3594 019f 27       		.uleb128 0x27
 3595 01a0 19       		.uleb128 0x19
 3596 01a1 11       		.uleb128 0x11
 3597 01a2 01       		.uleb128 0x1
 3598 01a3 12       		.uleb128 0x12
 3599 01a4 06       		.uleb128 0x6
 3600 01a5 40       		.uleb128 0x40
 3601 01a6 18       		.uleb128 0x18
 3602 01a7 9642     		.uleb128 0x2116
 3603 01a9 19       		.uleb128 0x19
 3604 01aa 01       		.uleb128 0x1
 3605 01ab 13       		.uleb128 0x13
 3606 01ac 00       		.byte	0
 3607 01ad 00       		.byte	0
 3608 01ae 21       		.uleb128 0x21
 3609 01af 05       		.uleb128 0x5
 3610 01b0 00       		.byte	0
 3611 01b1 03       		.uleb128 0x3
 3612 01b2 0E       		.uleb128 0xe
 3613 01b3 3A       		.uleb128 0x3a
 3614 01b4 0B       		.uleb128 0xb
 3615 01b5 3B       		.uleb128 0x3b
 3616 01b6 05       		.uleb128 0x5
 3617 01b7 49       		.uleb128 0x49
 3618 01b8 13       		.uleb128 0x13
 3619 01b9 02       		.uleb128 0x2
 3620 01ba 18       		.uleb128 0x18
 3621 01bb 00       		.byte	0
 3622 01bc 00       		.byte	0
 3623 01bd 22       		.uleb128 0x22
ARM GAS  /tmp/ccR802FU.s 			page 65


 3624 01be 2E       		.uleb128 0x2e
 3625 01bf 01       		.byte	0x1
 3626 01c0 3F       		.uleb128 0x3f
 3627 01c1 19       		.uleb128 0x19
 3628 01c2 03       		.uleb128 0x3
 3629 01c3 0E       		.uleb128 0xe
 3630 01c4 3A       		.uleb128 0x3a
 3631 01c5 0B       		.uleb128 0xb
 3632 01c6 3B       		.uleb128 0x3b
 3633 01c7 0B       		.uleb128 0xb
 3634 01c8 27       		.uleb128 0x27
 3635 01c9 19       		.uleb128 0x19
 3636 01ca 49       		.uleb128 0x49
 3637 01cb 13       		.uleb128 0x13
 3638 01cc 11       		.uleb128 0x11
 3639 01cd 01       		.uleb128 0x1
 3640 01ce 12       		.uleb128 0x12
 3641 01cf 06       		.uleb128 0x6
 3642 01d0 40       		.uleb128 0x40
 3643 01d1 18       		.uleb128 0x18
 3644 01d2 9642     		.uleb128 0x2116
 3645 01d4 19       		.uleb128 0x19
 3646 01d5 01       		.uleb128 0x1
 3647 01d6 13       		.uleb128 0x13
 3648 01d7 00       		.byte	0
 3649 01d8 00       		.byte	0
 3650 01d9 23       		.uleb128 0x23
 3651 01da 05       		.uleb128 0x5
 3652 01db 00       		.byte	0
 3653 01dc 03       		.uleb128 0x3
 3654 01dd 08       		.uleb128 0x8
 3655 01de 3A       		.uleb128 0x3a
 3656 01df 0B       		.uleb128 0xb
 3657 01e0 3B       		.uleb128 0x3b
 3658 01e1 0B       		.uleb128 0xb
 3659 01e2 49       		.uleb128 0x49
 3660 01e3 13       		.uleb128 0x13
 3661 01e4 02       		.uleb128 0x2
 3662 01e5 18       		.uleb128 0x18
 3663 01e6 00       		.byte	0
 3664 01e7 00       		.byte	0
 3665 01e8 24       		.uleb128 0x24
 3666 01e9 05       		.uleb128 0x5
 3667 01ea 00       		.byte	0
 3668 01eb 03       		.uleb128 0x3
 3669 01ec 0E       		.uleb128 0xe
 3670 01ed 3A       		.uleb128 0x3a
 3671 01ee 0B       		.uleb128 0xb
 3672 01ef 3B       		.uleb128 0x3b
 3673 01f0 0B       		.uleb128 0xb
 3674 01f1 49       		.uleb128 0x49
 3675 01f2 13       		.uleb128 0x13
 3676 01f3 02       		.uleb128 0x2
 3677 01f4 18       		.uleb128 0x18
 3678 01f5 00       		.byte	0
 3679 01f6 00       		.byte	0
 3680 01f7 25       		.uleb128 0x25
ARM GAS  /tmp/ccR802FU.s 			page 66


 3681 01f8 34       		.uleb128 0x34
 3682 01f9 00       		.byte	0
 3683 01fa 03       		.uleb128 0x3
 3684 01fb 08       		.uleb128 0x8
 3685 01fc 3A       		.uleb128 0x3a
 3686 01fd 0B       		.uleb128 0xb
 3687 01fe 3B       		.uleb128 0x3b
 3688 01ff 0B       		.uleb128 0xb
 3689 0200 49       		.uleb128 0x49
 3690 0201 13       		.uleb128 0x13
 3691 0202 02       		.uleb128 0x2
 3692 0203 18       		.uleb128 0x18
 3693 0204 00       		.byte	0
 3694 0205 00       		.byte	0
 3695 0206 26       		.uleb128 0x26
 3696 0207 2E       		.uleb128 0x2e
 3697 0208 01       		.byte	0x1
 3698 0209 3F       		.uleb128 0x3f
 3699 020a 19       		.uleb128 0x19
 3700 020b 03       		.uleb128 0x3
 3701 020c 0E       		.uleb128 0xe
 3702 020d 3A       		.uleb128 0x3a
 3703 020e 0B       		.uleb128 0xb
 3704 020f 3B       		.uleb128 0x3b
 3705 0210 0B       		.uleb128 0xb
 3706 0211 27       		.uleb128 0x27
 3707 0212 19       		.uleb128 0x19
 3708 0213 11       		.uleb128 0x11
 3709 0214 01       		.uleb128 0x1
 3710 0215 12       		.uleb128 0x12
 3711 0216 06       		.uleb128 0x6
 3712 0217 40       		.uleb128 0x40
 3713 0218 18       		.uleb128 0x18
 3714 0219 9642     		.uleb128 0x2116
 3715 021b 19       		.uleb128 0x19
 3716 021c 01       		.uleb128 0x1
 3717 021d 13       		.uleb128 0x13
 3718 021e 00       		.byte	0
 3719 021f 00       		.byte	0
 3720 0220 27       		.uleb128 0x27
 3721 0221 2E       		.uleb128 0x2e
 3722 0222 01       		.byte	0x1
 3723 0223 03       		.uleb128 0x3
 3724 0224 0E       		.uleb128 0xe
 3725 0225 3A       		.uleb128 0x3a
 3726 0226 0B       		.uleb128 0xb
 3727 0227 3B       		.uleb128 0x3b
 3728 0228 05       		.uleb128 0x5
 3729 0229 27       		.uleb128 0x27
 3730 022a 19       		.uleb128 0x19
 3731 022b 11       		.uleb128 0x11
 3732 022c 01       		.uleb128 0x1
 3733 022d 12       		.uleb128 0x12
 3734 022e 06       		.uleb128 0x6
 3735 022f 40       		.uleb128 0x40
 3736 0230 18       		.uleb128 0x18
 3737 0231 9642     		.uleb128 0x2116
ARM GAS  /tmp/ccR802FU.s 			page 67


 3738 0233 19       		.uleb128 0x19
 3739 0234 01       		.uleb128 0x1
 3740 0235 13       		.uleb128 0x13
 3741 0236 00       		.byte	0
 3742 0237 00       		.byte	0
 3743 0238 28       		.uleb128 0x28
 3744 0239 2E       		.uleb128 0x2e
 3745 023a 00       		.byte	0
 3746 023b 03       		.uleb128 0x3
 3747 023c 0E       		.uleb128 0xe
 3748 023d 3A       		.uleb128 0x3a
 3749 023e 0B       		.uleb128 0xb
 3750 023f 3B       		.uleb128 0x3b
 3751 0240 05       		.uleb128 0x5
 3752 0241 27       		.uleb128 0x27
 3753 0242 19       		.uleb128 0x19
 3754 0243 11       		.uleb128 0x11
 3755 0244 01       		.uleb128 0x1
 3756 0245 12       		.uleb128 0x12
 3757 0246 06       		.uleb128 0x6
 3758 0247 40       		.uleb128 0x40
 3759 0248 18       		.uleb128 0x18
 3760 0249 9642     		.uleb128 0x2116
 3761 024b 19       		.uleb128 0x19
 3762 024c 00       		.byte	0
 3763 024d 00       		.byte	0
 3764 024e 29       		.uleb128 0x29
 3765 024f 2E       		.uleb128 0x2e
 3766 0250 01       		.byte	0x1
 3767 0251 03       		.uleb128 0x3
 3768 0252 0E       		.uleb128 0xe
 3769 0253 3A       		.uleb128 0x3a
 3770 0254 0B       		.uleb128 0xb
 3771 0255 3B       		.uleb128 0x3b
 3772 0256 05       		.uleb128 0x5
 3773 0257 27       		.uleb128 0x27
 3774 0258 19       		.uleb128 0x19
 3775 0259 49       		.uleb128 0x49
 3776 025a 13       		.uleb128 0x13
 3777 025b 11       		.uleb128 0x11
 3778 025c 01       		.uleb128 0x1
 3779 025d 12       		.uleb128 0x12
 3780 025e 06       		.uleb128 0x6
 3781 025f 40       		.uleb128 0x40
 3782 0260 18       		.uleb128 0x18
 3783 0261 9742     		.uleb128 0x2117
 3784 0263 19       		.uleb128 0x19
 3785 0264 01       		.uleb128 0x1
 3786 0265 13       		.uleb128 0x13
 3787 0266 00       		.byte	0
 3788 0267 00       		.byte	0
 3789 0268 2A       		.uleb128 0x2a
 3790 0269 2E       		.uleb128 0x2e
 3791 026a 01       		.byte	0x1
 3792 026b 03       		.uleb128 0x3
 3793 026c 0E       		.uleb128 0xe
 3794 026d 3A       		.uleb128 0x3a
ARM GAS  /tmp/ccR802FU.s 			page 68


 3795 026e 0B       		.uleb128 0xb
 3796 026f 3B       		.uleb128 0x3b
 3797 0270 05       		.uleb128 0x5
 3798 0271 27       		.uleb128 0x27
 3799 0272 19       		.uleb128 0x19
 3800 0273 11       		.uleb128 0x11
 3801 0274 01       		.uleb128 0x1
 3802 0275 12       		.uleb128 0x12
 3803 0276 06       		.uleb128 0x6
 3804 0277 40       		.uleb128 0x40
 3805 0278 18       		.uleb128 0x18
 3806 0279 9742     		.uleb128 0x2117
 3807 027b 19       		.uleb128 0x19
 3808 027c 01       		.uleb128 0x1
 3809 027d 13       		.uleb128 0x13
 3810 027e 00       		.byte	0
 3811 027f 00       		.byte	0
 3812 0280 2B       		.uleb128 0x2b
 3813 0281 1D       		.uleb128 0x1d
 3814 0282 00       		.byte	0
 3815 0283 31       		.uleb128 0x31
 3816 0284 13       		.uleb128 0x13
 3817 0285 11       		.uleb128 0x11
 3818 0286 01       		.uleb128 0x1
 3819 0287 12       		.uleb128 0x12
 3820 0288 06       		.uleb128 0x6
 3821 0289 58       		.uleb128 0x58
 3822 028a 0B       		.uleb128 0xb
 3823 028b 59       		.uleb128 0x59
 3824 028c 05       		.uleb128 0x5
 3825 028d 00       		.byte	0
 3826 028e 00       		.byte	0
 3827 028f 2C       		.uleb128 0x2c
 3828 0290 2E       		.uleb128 0x2e
 3829 0291 00       		.byte	0
 3830 0292 03       		.uleb128 0x3
 3831 0293 0E       		.uleb128 0xe
 3832 0294 3A       		.uleb128 0x3a
 3833 0295 0B       		.uleb128 0xb
 3834 0296 3B       		.uleb128 0x3b
 3835 0297 05       		.uleb128 0x5
 3836 0298 27       		.uleb128 0x27
 3837 0299 19       		.uleb128 0x19
 3838 029a 20       		.uleb128 0x20
 3839 029b 0B       		.uleb128 0xb
 3840 029c 00       		.byte	0
 3841 029d 00       		.byte	0
 3842 029e 00       		.byte	0
 3843              		.section	.debug_aranges,"",%progbits
 3844 0000 BC000000 		.4byte	0xbc
 3845 0004 0200     		.2byte	0x2
 3846 0006 00000000 		.4byte	.Ldebug_info0
 3847 000a 04       		.byte	0x4
 3848 000b 00       		.byte	0
 3849 000c 0000     		.2byte	0
 3850 000e 0000     		.2byte	0
 3851 0010 00000000 		.4byte	.LFB38
ARM GAS  /tmp/ccR802FU.s 			page 69


 3852 0014 06000000 		.4byte	.LFE38-.LFB38
 3853 0018 00000000 		.4byte	.LFB39
 3854 001c 06000000 		.4byte	.LFE39-.LFB39
 3855 0020 00000000 		.4byte	.LFB60
 3856 0024 16000000 		.4byte	.LFE60-.LFB60
 3857 0028 00000000 		.4byte	.LFB61
 3858 002c 18000000 		.4byte	.LFE61-.LFB61
 3859 0030 00000000 		.4byte	.LFB62
 3860 0034 18000000 		.4byte	.LFE62-.LFB62
 3861 0038 00000000 		.4byte	.LFB66
 3862 003c 28000000 		.4byte	.LFE66-.LFB66
 3863 0040 00000000 		.4byte	.LFB67
 3864 0044 22000000 		.4byte	.LFE67-.LFB67
 3865 0048 00000000 		.4byte	.LFB68
 3866 004c 22000000 		.4byte	.LFE68-.LFB68
 3867 0050 00000000 		.4byte	.LFB77
 3868 0054 0E000000 		.4byte	.LFE77-.LFB77
 3869 0058 00000000 		.4byte	.LFB78
 3870 005c 38000000 		.4byte	.LFE78-.LFB78
 3871 0060 00000000 		.4byte	.LFB152
 3872 0064 34000000 		.4byte	.LFE152-.LFB152
 3873 0068 00000000 		.4byte	.LFB153
 3874 006c 26000000 		.4byte	.LFE153-.LFB153
 3875 0070 00000000 		.4byte	.LFB154
 3876 0074 A0000000 		.4byte	.LFE154-.LFB154
 3877 0078 00000000 		.4byte	.LFB155
 3878 007c 22000000 		.4byte	.LFE155-.LFB155
 3879 0080 00000000 		.4byte	.LFB156
 3880 0084 A4000000 		.4byte	.LFE156-.LFB156
 3881 0088 00000000 		.4byte	.LFB157
 3882 008c 32000000 		.4byte	.LFE157-.LFB157
 3883 0090 00000000 		.4byte	.LFB158
 3884 0094 C8000000 		.4byte	.LFE158-.LFB158
 3885 0098 00000000 		.4byte	.LFB159
 3886 009c 90000000 		.4byte	.LFE159-.LFB159
 3887 00a0 00000000 		.4byte	.LFB160
 3888 00a4 94000000 		.4byte	.LFE160-.LFB160
 3889 00a8 00000000 		.4byte	.LFB161
 3890 00ac A4000000 		.4byte	.LFE161-.LFB161
 3891 00b0 00000000 		.4byte	.LFB162
 3892 00b4 24010000 		.4byte	.LFE162-.LFB162
 3893 00b8 00000000 		.4byte	0
 3894 00bc 00000000 		.4byte	0
 3895              		.section	.debug_ranges,"",%progbits
 3896              	.Ldebug_ranges0:
 3897 0000 00000000 		.4byte	.LFB38
 3898 0004 06000000 		.4byte	.LFE38
 3899 0008 00000000 		.4byte	.LFB39
 3900 000c 06000000 		.4byte	.LFE39
 3901 0010 00000000 		.4byte	.LFB60
 3902 0014 16000000 		.4byte	.LFE60
 3903 0018 00000000 		.4byte	.LFB61
 3904 001c 18000000 		.4byte	.LFE61
 3905 0020 00000000 		.4byte	.LFB62
 3906 0024 18000000 		.4byte	.LFE62
 3907 0028 00000000 		.4byte	.LFB66
 3908 002c 28000000 		.4byte	.LFE66
ARM GAS  /tmp/ccR802FU.s 			page 70


 3909 0030 00000000 		.4byte	.LFB67
 3910 0034 22000000 		.4byte	.LFE67
 3911 0038 00000000 		.4byte	.LFB68
 3912 003c 22000000 		.4byte	.LFE68
 3913 0040 00000000 		.4byte	.LFB77
 3914 0044 0E000000 		.4byte	.LFE77
 3915 0048 00000000 		.4byte	.LFB78
 3916 004c 38000000 		.4byte	.LFE78
 3917 0050 00000000 		.4byte	.LFB152
 3918 0054 34000000 		.4byte	.LFE152
 3919 0058 00000000 		.4byte	.LFB153
 3920 005c 26000000 		.4byte	.LFE153
 3921 0060 00000000 		.4byte	.LFB154
 3922 0064 A0000000 		.4byte	.LFE154
 3923 0068 00000000 		.4byte	.LFB155
 3924 006c 22000000 		.4byte	.LFE155
 3925 0070 00000000 		.4byte	.LFB156
 3926 0074 A4000000 		.4byte	.LFE156
 3927 0078 00000000 		.4byte	.LFB157
 3928 007c 32000000 		.4byte	.LFE157
 3929 0080 00000000 		.4byte	.LFB158
 3930 0084 C8000000 		.4byte	.LFE158
 3931 0088 00000000 		.4byte	.LFB159
 3932 008c 90000000 		.4byte	.LFE159
 3933 0090 00000000 		.4byte	.LFB160
 3934 0094 94000000 		.4byte	.LFE160
 3935 0098 00000000 		.4byte	.LFB161
 3936 009c A4000000 		.4byte	.LFE161
 3937 00a0 00000000 		.4byte	.LFB162
 3938 00a4 24010000 		.4byte	.LFE162
 3939 00a8 00000000 		.4byte	0
 3940 00ac 00000000 		.4byte	0
 3941              		.section	.debug_line,"",%progbits
 3942              	.Ldebug_line0:
 3943 0000 66050000 		.section	.debug_str,"MS",%progbits,1
 3943      02003202 
 3943      00000201 
 3943      FB0E0D00 
 3943      01010101 
 3944              	.LASF50:
 3945 0000 63685F74 		.ascii	"ch_threads_list\000"
 3945      68726561 
 3945      64735F6C 
 3945      69737400 
 3946              	.LASF51:
 3947 0010 74687265 		.ascii	"threads_queue_t\000"
 3947      6164735F 
 3947      71756575 
 3947      655F7400 
 3948              	.LASF40:
 3949 0020 705F7761 		.ascii	"p_waiting\000"
 3949      6974696E 
 3949      6700
 3950              	.LASF145:
 3951 002a 63685365 		.ascii	"chSemWaitS\000"
 3951      6D576169 
 3951      745300
ARM GAS  /tmp/ccR802FU.s 			page 71


 3952              	.LASF113:
 3953 0035 53797374 		.ascii	"SystemCoreClock\000"
 3953      656D436F 
 3953      7265436C 
 3953      6F636B00 
 3954              	.LASF103:
 3955 0045 77746D74 		.ascii	"wtmtxp\000"
 3955      787000
 3956              	.LASF112:
 3957 004c 63686172 		.ascii	"char\000"
 3957      00
 3958              	.LASF85:
 3959 0051 72656761 		.ascii	"regarm_t\000"
 3959      726D5F74 
 3959      00
 3960              	.LASF31:
 3961 005a 705F7072 		.ascii	"p_prio\000"
 3961      696F00
 3962              	.LASF27:
 3963 0061 73797374 		.ascii	"systime_t\000"
 3963      696D655F 
 3963      7400
 3964              	.LASF124:
 3965 006b 63665F6F 		.ascii	"cf_off_older\000"
 3965      66665F6F 
 3965      6C646572 
 3965      00
 3966              	.LASF110:
 3967 0078 6D5F6F77 		.ascii	"m_owner\000"
 3967      6E657200 
 3968              	.LASF106:
 3969 0080 735F7175 		.ascii	"s_queue\000"
 3969      65756500 
 3970              	.LASF41:
 3971 0088 705F6D73 		.ascii	"p_msgqueue\000"
 3971      67717565 
 3971      756500
 3972              	.LASF0:
 3973 0093 756E7369 		.ascii	"unsigned int\000"
 3973      676E6564 
 3973      20696E74 
 3973      00
 3974              	.LASF148:
 3975 00a0 63685365 		.ascii	"chSemReset\000"
 3975      6D526573 
 3975      657400
 3976              	.LASF48:
 3977 00ab 74687265 		.ascii	"threads_list_t\000"
 3977      6164735F 
 3977      6C697374 
 3977      5F7400
 3978              	.LASF9:
 3979 00ba 5F5F696E 		.ascii	"__int32_t\000"
 3979      7433325F 
 3979      7400
 3980              	.LASF92:
 3981 00c4 73655F73 		.ascii	"se_state\000"
ARM GAS  /tmp/ccR802FU.s 			page 72


 3981      74617465 
 3981      00
 3982              	.LASF125:
 3983 00cd 63665F6F 		.ascii	"cf_off_name\000"
 3983      66665F6E 
 3983      616D6500 
 3984              	.LASF100:
 3985 00d9 77746F62 		.ascii	"wtobjp\000"
 3985      6A7000
 3986              	.LASF158:
 3987 00e0 706F7274 		.ascii	"port_lock\000"
 3987      5F6C6F63 
 3987      6B00
 3988              	.LASF81:
 3989 00ea 76746C69 		.ascii	"vtlist\000"
 3989      737400
 3990              	.LASF54:
 3991 00f1 63685F72 		.ascii	"ch_ready_list\000"
 3991      65616479 
 3991      5F6C6973 
 3991      7400
 3992              	.LASF83:
 3993 00ff 69646C65 		.ascii	"idle_thread_wa\000"
 3993      5F746872 
 3993      6561645F 
 3993      776100
 3994              	.LASF104:
 3995 010e 65776D61 		.ascii	"ewmask\000"
 3995      736B00
 3996              	.LASF128:
 3997 0115 63665F6F 		.ascii	"cf_off_flags\000"
 3997      66665F66 
 3997      6C616773 
 3997      00
 3998              	.LASF52:
 3999 0122 63685F74 		.ascii	"ch_threads_queue\000"
 3999      68726561 
 3999      64735F71 
 3999      75657565 
 3999      00
 4000              	.LASF118:
 4001 0133 63685F70 		.ascii	"ch_ptrsize\000"
 4001      74727369 
 4001      7A6500
 4002              	.LASF138:
 4003 013e 63685365 		.ascii	"chSemAddCounterI\000"
 4003      6D416464 
 4003      436F756E 
 4003      74657249 
 4003      00
 4004              	.LASF61:
 4005 014f 76746675 		.ascii	"vtfunc_t\000"
 4005      6E635F74 
 4005      00
 4006              	.LASF107:
 4007 0158 735F636E 		.ascii	"s_cnt\000"
 4007      7400
ARM GAS  /tmp/ccR802FU.s 			page 73


 4008              	.LASF73:
 4009 015e 63685F73 		.ascii	"ch_system_debug\000"
 4009      79737465 
 4009      6D5F6465 
 4009      62756700 
 4010              	.LASF147:
 4011 016e 63685365 		.ascii	"chSemResetI\000"
 4011      6D526573 
 4011      65744900 
 4012              	.LASF18:
 4013 017a 75696E74 		.ascii	"uint32_t\000"
 4013      33325F74 
 4013      00
 4014              	.LASF119:
 4015 0183 63685F74 		.ascii	"ch_timesize\000"
 4015      696D6573 
 4015      697A6500 
 4016              	.LASF25:
 4017 018f 6576656E 		.ascii	"eventmask_t\000"
 4017      746D6173 
 4017      6B5F7400 
 4018              	.LASF56:
 4019 019b 725F7072 		.ascii	"r_prio\000"
 4019      696F00
 4020              	.LASF68:
 4021 01a2 76745F70 		.ascii	"vt_par\000"
 4021      617200
 4022              	.LASF105:
 4023 01a9 63685F73 		.ascii	"ch_semaphore\000"
 4023      656D6170 
 4023      686F7265 
 4023      00
 4024              	.LASF23:
 4025 01b6 74707269 		.ascii	"tprio_t\000"
 4025      6F5F7400 
 4026              	.LASF139:
 4027 01be 63685365 		.ascii	"chSemSignalI\000"
 4027      6D536967 
 4027      6E616C49 
 4027      00
 4028              	.LASF63:
 4029 01cb 63685F76 		.ascii	"ch_virtual_timer\000"
 4029      69727475 
 4029      616C5F74 
 4029      696D6572 
 4029      00
 4030              	.LASF141:
 4031 01dc 63685365 		.ascii	"chSemSignalWait\000"
 4031      6D536967 
 4031      6E616C57 
 4031      61697400 
 4032              	.LASF14:
 4033 01ec 6C6F6E67 		.ascii	"long long unsigned int\000"
 4033      206C6F6E 
 4033      6720756E 
 4033      7369676E 
 4033      65642069 
ARM GAS  /tmp/ccR802FU.s 			page 74


 4034              	.LASF91:
 4035 0203 73655F77 		.ascii	"se_wtobjp\000"
 4035      746F626A 
 4035      7000
 4036              	.LASF7:
 4037 020d 5F5F7569 		.ascii	"__uint16_t\000"
 4037      6E743136 
 4037      5F7400
 4038              	.LASF26:
 4039 0218 636E745F 		.ascii	"cnt_t\000"
 4039      7400
 4040              	.LASF152:
 4041 021e 63685379 		.ascii	"chSysUnlock\000"
 4041      73556E6C 
 4041      6F636B00 
 4042              	.LASF143:
 4043 022a 74696D65 		.ascii	"time\000"
 4043      00
 4044              	.LASF75:
 4045 022f 6973725F 		.ascii	"isr_cnt\000"
 4045      636E7400 
 4046              	.LASF146:
 4047 0237 63685365 		.ascii	"chSemWait\000"
 4047      6D576169 
 4047      7400
 4048              	.LASF134:
 4049 0241 73656D61 		.ascii	"semaphore_t\000"
 4049      70686F72 
 4049      655F7400 
 4050              	.LASF33:
 4051 024d 705F6E65 		.ascii	"p_newer\000"
 4051      77657200 
 4052              	.LASF70:
 4053 0255 63685F76 		.ascii	"ch_virtual_timers_list\000"
 4053      69727475 
 4053      616C5F74 
 4053      696D6572 
 4053      735F6C69 
 4054              	.LASF89:
 4055 026c 73655F74 		.ascii	"se_time\000"
 4055      696D6500 
 4056              	.LASF28:
 4057 0274 74687265 		.ascii	"thread_t\000"
 4057      61645F74 
 4057      00
 4058              	.LASF142:
 4059 027d 63685365 		.ascii	"chSemWaitTimeoutS\000"
 4059      6D576169 
 4059      7454696D 
 4059      656F7574 
 4059      5300
 4060              	.LASF98:
 4061 028f 7264796D 		.ascii	"rdymsg\000"
 4061      736700
 4062              	.LASF120:
 4063 0296 63685F74 		.ascii	"ch_threadsize\000"
 4063      68726561 
ARM GAS  /tmp/ccR802FU.s 			page 75


 4063      6473697A 
 4063      6500
 4064              	.LASF159:
 4065 02a4 5F5F6469 		.ascii	"__disable_irq\000"
 4065      7361626C 
 4065      655F6972 
 4065      7100
 4066              	.LASF130:
 4067 02b2 63665F6F 		.ascii	"cf_off_preempt\000"
 4067      66665F70 
 4067      7265656D 
 4067      707400
 4068              	.LASF136:
 4069 02c1 5F426F6F 		.ascii	"_Bool\000"
 4069      6C00
 4070              	.LASF161:
 4071 02c7 474E5520 		.ascii	"GNU C11 6.3.1 20170215 (release) [ARM/embedded-6-br"
 4071      43313120 
 4071      362E332E 
 4071      31203230 
 4071      31373032 
 4072 02fa 616E6368 		.ascii	"anch revision 245512] -mcpu=cortex-m0 -mno-thumb-in"
 4072      20726576 
 4072      6973696F 
 4072      6E203234 
 4072      35353132 
 4073 032d 74657277 		.ascii	"terwork -mthumb -ggdb -O0 -fomit-frame-pointer -fal"
 4073      6F726B20 
 4073      2D6D7468 
 4073      756D6220 
 4073      2D676764 
 4074 0360 69676E2D 		.ascii	"ign-functions=16 -ffunction-sections -fdata-section"
 4074      66756E63 
 4074      74696F6E 
 4074      733D3136 
 4074      202D6666 
 4075 0393 7300     		.ascii	"s\000"
 4076              	.LASF108:
 4077 0395 63685F6D 		.ascii	"ch_mutex\000"
 4077      75746578 
 4077      00
 4078              	.LASF13:
 4079 039e 5F5F7569 		.ascii	"__uint64_t\000"
 4079      6E743634 
 4079      5F7400
 4080              	.LASF164:
 4081 03a9 63685379 		.ascii	"chSysLock\000"
 4081      734C6F63 
 4081      6B00
 4082              	.LASF122:
 4083 03b3 63665F6F 		.ascii	"cf_off_ctx\000"
 4083      66665F63 
 4083      747800
 4084              	.LASF126:
 4085 03be 63665F6F 		.ascii	"cf_off_stklimit\000"
 4085      66665F73 
 4085      746B6C69 
ARM GAS  /tmp/ccR802FU.s 			page 76


 4085      6D697400 
 4086              	.LASF35:
 4087 03ce 705F6E61 		.ascii	"p_name\000"
 4087      6D6500
 4088              	.LASF66:
 4089 03d5 76745F64 		.ascii	"vt_delta\000"
 4089      656C7461 
 4089      00
 4090              	.LASF163:
 4091 03de 2F686F6D 		.ascii	"/home/felix/Desktop/workspace/esho/UltrasonicCortex"
 4091      652F6665 
 4091      6C69782F 
 4091      4465736B 
 4091      746F702F 
 4092 0411 2F00     		.ascii	"/\000"
 4093              	.LASF47:
 4094 0413 74687265 		.ascii	"thread_reference_t\000"
 4094      61645F72 
 4094      65666572 
 4094      656E6365 
 4094      5F7400
 4095              	.LASF71:
 4096 0426 76745F6C 		.ascii	"vt_lasttime\000"
 4096      61737474 
 4096      696D6500 
 4097              	.LASF154:
 4098 0432 71756575 		.ascii	"queue_notempty\000"
 4098      655F6E6F 
 4098      74656D70 
 4098      747900
 4099              	.LASF21:
 4100 0441 74737461 		.ascii	"tstate_t\000"
 4100      74655F74 
 4100      00
 4101              	.LASF90:
 4102 044a 73655F74 		.ascii	"se_tp\000"
 4102      7000
 4103              	.LASF34:
 4104 0450 705F6F6C 		.ascii	"p_older\000"
 4104      64657200 
 4105              	.LASF37:
 4106 0458 705F7374 		.ascii	"p_state\000"
 4106      61746500 
 4107              	.LASF36:
 4108 0460 705F7374 		.ascii	"p_stklimit\000"
 4108      6B6C696D 
 4108      697400
 4109              	.LASF15:
 4110 046b 75696E74 		.ascii	"uint8_t\000"
 4110      385F7400 
 4111              	.LASF96:
 4112 0473 74625F62 		.ascii	"tb_buffer\000"
 4112      75666665 
 4112      7200
 4113              	.LASF46:
 4114 047d 705F6D70 		.ascii	"p_mpool\000"
 4114      6F6F6C00 
ARM GAS  /tmp/ccR802FU.s 			page 77


 4115              	.LASF44:
 4116 0485 705F6D74 		.ascii	"p_mtxlist\000"
 4116      786C6973 
 4116      7400
 4117              	.LASF49:
 4118 048f 63685F74 		.ascii	"ch_thread\000"
 4118      68726561 
 4118      6400
 4119              	.LASF94:
 4120 0499 74625F73 		.ascii	"tb_size\000"
 4120      697A6500 
 4121              	.LASF72:
 4122 04a1 73797374 		.ascii	"system_debug_t\000"
 4122      656D5F64 
 4122      65627567 
 4122      5F7400
 4123              	.LASF150:
 4124 04b0 71756575 		.ascii	"queue_lifo_remove\000"
 4124      655F6C69 
 4124      666F5F72 
 4124      656D6F76 
 4124      6500
 4125              	.LASF1:
 4126 04c2 6C6F6E67 		.ascii	"long long int\000"
 4126      206C6F6E 
 4126      6720696E 
 4126      7400
 4127              	.LASF55:
 4128 04d0 725F7175 		.ascii	"r_queue\000"
 4128      65756500 
 4129              	.LASF58:
 4130 04d8 725F6E65 		.ascii	"r_newer\000"
 4130      77657200 
 4131              	.LASF24:
 4132 04e0 6D73675F 		.ascii	"msg_t\000"
 4132      7400
 4133              	.LASF87:
 4134 04e6 636F6E74 		.ascii	"context\000"
 4134      65787400 
 4135              	.LASF38:
 4136 04ee 705F666C 		.ascii	"p_flags\000"
 4136      61677300 
 4137              	.LASF62:
 4138 04f6 76697274 		.ascii	"virtual_timer_t\000"
 4138      75616C5F 
 4138      74696D65 
 4138      725F7400 
 4139              	.LASF151:
 4140 0506 71756575 		.ascii	"queue_fifo_remove\000"
 4140      655F6669 
 4140      666F5F72 
 4140      656D6F76 
 4140      6500
 4141              	.LASF129:
 4142 0518 63665F6F 		.ascii	"cf_off_refs\000"
 4142      66665F72 
 4142      65667300 
ARM GAS  /tmp/ccR802FU.s 			page 78


 4143              	.LASF115:
 4144 0524 63685F7A 		.ascii	"ch_zero\000"
 4144      65726F00 
 4145              	.LASF95:
 4146 052c 74625F70 		.ascii	"tb_ptr\000"
 4146      747200
 4147              	.LASF59:
 4148 0533 725F6F6C 		.ascii	"r_older\000"
 4148      64657200 
 4149              	.LASF74:
 4150 053b 70616E69 		.ascii	"panic_msg\000"
 4150      635F6D73 
 4150      6700
 4151              	.LASF42:
 4152 0545 705F6D73 		.ascii	"p_msg\000"
 4152      6700
 4153              	.LASF20:
 4154 054b 746D6F64 		.ascii	"tmode_t\000"
 4154      655F7400 
 4155              	.LASF116:
 4156 0553 63685F73 		.ascii	"ch_size\000"
 4156      697A6500 
 4157              	.LASF82:
 4158 055b 6D61696E 		.ascii	"mainthread\000"
 4158      74687265 
 4158      616400
 4159              	.LASF2:
 4160 0566 6C6F6E67 		.ascii	"long double\000"
 4160      20646F75 
 4160      626C6500 
 4161              	.LASF16:
 4162 0572 75696E74 		.ascii	"uint16_t\000"
 4162      31365F74 
 4162      00
 4163              	.LASF132:
 4164 057b 63686465 		.ascii	"chdebug_t\000"
 4164      6275675F 
 4164      7400
 4165              	.LASF76:
 4166 0585 6C6F636B 		.ascii	"lock_cnt\000"
 4166      5F636E74 
 4166      00
 4167              	.LASF45:
 4168 058e 705F7265 		.ascii	"p_realprio\000"
 4168      616C7072 
 4168      696F00
 4169              	.LASF117:
 4170 0599 63685F76 		.ascii	"ch_version\000"
 4170      65727369 
 4170      6F6E00
 4171              	.LASF5:
 4172 05a4 73686F72 		.ascii	"short int\000"
 4172      7420696E 
 4172      7400
 4173              	.LASF60:
 4174 05ae 725F6375 		.ascii	"r_current\000"
 4174      7272656E 
ARM GAS  /tmp/ccR802FU.s 			page 79


 4174      7400
 4175              	.LASF43:
 4176 05b8 705F6570 		.ascii	"p_epending\000"
 4176      656E6469 
 4176      6E6700
 4177              	.LASF109:
 4178 05c3 6D5F7175 		.ascii	"m_queue\000"
 4178      65756500 
 4179              	.LASF10:
 4180 05cb 6C6F6E67 		.ascii	"long int\000"
 4180      20696E74 
 4180      00
 4181              	.LASF88:
 4182 05d4 706F7274 		.ascii	"port_intctx\000"
 4182      5F696E74 
 4182      63747800 
 4183              	.LASF160:
 4184 05e0 5F5F656E 		.ascii	"__enable_irq\000"
 4184      61626C65 
 4184      5F697271 
 4184      00
 4185              	.LASF79:
 4186 05ed 63685F73 		.ascii	"ch_system\000"
 4186      79737465 
 4186      6D00
 4187              	.LASF153:
 4188 05f7 71756575 		.ascii	"queue_insert\000"
 4188      655F696E 
 4188      73657274 
 4188      00
 4189              	.LASF29:
 4190 0604 705F6E65 		.ascii	"p_next\000"
 4190      787400
 4191              	.LASF19:
 4192 060b 75696E74 		.ascii	"uint64_t\000"
 4192      36345F74 
 4192      00
 4193              	.LASF32:
 4194 0614 705F6374 		.ascii	"p_ctx\000"
 4194      7800
 4195              	.LASF80:
 4196 061a 726C6973 		.ascii	"rlist\000"
 4196      7400
 4197              	.LASF131:
 4198 0620 63665F6F 		.ascii	"cf_off_time\000"
 4198      66665F74 
 4198      696D6500 
 4199              	.LASF121:
 4200 062c 63665F6F 		.ascii	"cf_off_prio\000"
 4200      66665F70 
 4200      72696F00 
 4201              	.LASF6:
 4202 0638 5F5F7569 		.ascii	"__uint8_t\000"
 4202      6E74385F 
 4202      7400
 4203              	.LASF140:
 4204 0642 63685365 		.ascii	"chSemSignal\000"
ARM GAS  /tmp/ccR802FU.s 			page 80


 4204      6D536967 
 4204      6E616C00 
 4205              	.LASF114:
 4206 064e 63685F69 		.ascii	"ch_identifier\000"
 4206      64656E74 
 4206      69666965 
 4206      7200
 4207              	.LASF30:
 4208 065c 705F7072 		.ascii	"p_prev\000"
 4208      657600
 4209              	.LASF84:
 4210 0663 73697A65 		.ascii	"sizetype\000"
 4210      74797065 
 4210      00
 4211              	.LASF22:
 4212 066c 74726566 		.ascii	"trefs_t\000"
 4212      735F7400 
 4213              	.LASF12:
 4214 0674 6C6F6E67 		.ascii	"long unsigned int\000"
 4214      20756E73 
 4214      69676E65 
 4214      6420696E 
 4214      7400
 4215              	.LASF127:
 4216 0686 63665F6F 		.ascii	"cf_off_state\000"
 4216      66665F73 
 4216      74617465 
 4216      00
 4217              	.LASF53:
 4218 0693 72656164 		.ascii	"ready_list_t\000"
 4218      795F6C69 
 4218      73745F74 
 4218      00
 4219              	.LASF17:
 4220 06a0 696E7433 		.ascii	"int32_t\000"
 4220      325F7400 
 4221              	.LASF77:
 4222 06a8 74726163 		.ascii	"trace_buffer\000"
 4222      655F6275 
 4222      66666572 
 4222      00
 4223              	.LASF102:
 4224 06b5 77747365 		.ascii	"wtsemp\000"
 4224      6D7000
 4225              	.LASF93:
 4226 06bc 63685F73 		.ascii	"ch_swc_event_t\000"
 4226      77635F65 
 4226      76656E74 
 4226      5F7400
 4227              	.LASF135:
 4228 06cb 6D757465 		.ascii	"mutex_t\000"
 4228      785F7400 
 4229              	.LASF156:
 4230 06d3 71756575 		.ascii	"queue_init\000"
 4230      655F696E 
 4230      697400
 4231              	.LASF144:
ARM GAS  /tmp/ccR802FU.s 			page 81


 4232 06de 63685365 		.ascii	"chSemWaitTimeout\000"
 4232      6D576169 
 4232      7454696D 
 4232      656F7574 
 4232      00
 4233              	.LASF4:
 4234 06ef 756E7369 		.ascii	"unsigned char\000"
 4234      676E6564 
 4234      20636861 
 4234      7200
 4235              	.LASF11:
 4236 06fd 5F5F7569 		.ascii	"__uint32_t\000"
 4236      6E743332 
 4236      5F7400
 4237              	.LASF69:
 4238 0708 76697274 		.ascii	"virtual_timers_list_t\000"
 4238      75616C5F 
 4238      74696D65 
 4238      72735F6C 
 4238      6973745F 
 4239              	.LASF39:
 4240 071e 705F7265 		.ascii	"p_refs\000"
 4240      667300
 4241              	.LASF149:
 4242 0725 63685365 		.ascii	"chSemObjectInit\000"
 4242      6D4F626A 
 4242      65637449 
 4242      6E697400 
 4243              	.LASF64:
 4244 0735 76745F6E 		.ascii	"vt_next\000"
 4244      65787400 
 4245              	.LASF78:
 4246 073d 63685F73 		.ascii	"ch_system_t\000"
 4246      79737465 
 4246      6D5F7400 
 4247              	.LASF101:
 4248 0749 77747472 		.ascii	"wttrp\000"
 4248      7000
 4249              	.LASF97:
 4250 074f 63685F74 		.ascii	"ch_trace_buffer_t\000"
 4250      72616365 
 4250      5F627566 
 4250      6665725F 
 4250      7400
 4251              	.LASF111:
 4252 0761 6D5F6E65 		.ascii	"m_next\000"
 4252      787400
 4253              	.LASF3:
 4254 0768 7369676E 		.ascii	"signed char\000"
 4254      65642063 
 4254      68617200 
 4255              	.LASF123:
 4256 0774 63665F6F 		.ascii	"cf_off_newer\000"
 4256      66665F6E 
 4256      65776572 
 4256      00
 4257              	.LASF8:
ARM GAS  /tmp/ccR802FU.s 			page 82


 4258 0781 73686F72 		.ascii	"short unsigned int\000"
 4258      7420756E 
 4258      7369676E 
 4258      65642069 
 4258      6E7400
 4259              	.LASF57:
 4260 0794 725F6374 		.ascii	"r_ctx\000"
 4260      7800
 4261              	.LASF86:
 4262 079a 73746B61 		.ascii	"stkalign_t\000"
 4262      6C69676E 
 4262      5F7400
 4263              	.LASF155:
 4264 07a5 71756575 		.ascii	"queue_isempty\000"
 4264      655F6973 
 4264      656D7074 
 4264      7900
 4265              	.LASF137:
 4266 07b3 5F5F6675 		.ascii	"__func__\000"
 4266      6E635F5F 
 4266      00
 4267              	.LASF133:
 4268 07bc 63685F64 		.ascii	"ch_debug\000"
 4268      65627567 
 4268      00
 4269              	.LASF67:
 4270 07c5 76745F66 		.ascii	"vt_func\000"
 4270      756E6300 
 4271              	.LASF157:
 4272 07cd 706F7274 		.ascii	"port_unlock\000"
 4272      5F756E6C 
 4272      6F636B00 
 4273              	.LASF65:
 4274 07d9 76745F70 		.ascii	"vt_prev\000"
 4274      72657600 
 4275              	.LASF162:
 4276 07e1 43686962 		.ascii	"ChibiOS/os/rt/src/chsem.c\000"
 4276      694F532F 
 4276      6F732F72 
 4276      742F7372 
 4276      632F6368 
 4277              	.LASF99:
 4278 07fb 65786974 		.ascii	"exitcode\000"
 4278      636F6465 
 4278      00
 4279              		.ident	"GCC: (GNU Tools for ARM Embedded Processors 6-2017-q1-update) 6.3.1 20170215 (release) [AR
ARM GAS  /tmp/ccR802FU.s 			page 83


DEFINED SYMBOLS
                            *ABS*:0000000000000000 chsem.c
     /tmp/ccR802FU.s:16     .text.port_lock:0000000000000000 $t
     /tmp/ccR802FU.s:23     .text.port_lock:0000000000000000 port_lock
     /tmp/ccR802FU.s:51     .text.port_unlock:0000000000000000 $t
     /tmp/ccR802FU.s:58     .text.port_unlock:0000000000000000 port_unlock
     /tmp/ccR802FU.s:84     .text.queue_init:0000000000000000 $t
     /tmp/ccR802FU.s:91     .text.queue_init:0000000000000000 queue_init
     /tmp/ccR802FU.s:119    .text.queue_isempty:0000000000000000 $t
     /tmp/ccR802FU.s:126    .text.queue_isempty:0000000000000000 queue_isempty
     /tmp/ccR802FU.s:153    .text.queue_notempty:0000000000000000 $t
     /tmp/ccR802FU.s:160    .text.queue_notempty:0000000000000000 queue_notempty
     /tmp/ccR802FU.s:187    .text.queue_insert:0000000000000000 $t
     /tmp/ccR802FU.s:194    .text.queue_insert:0000000000000000 queue_insert
     /tmp/ccR802FU.s:232    .text.queue_fifo_remove:0000000000000000 $t
     /tmp/ccR802FU.s:239    .text.queue_fifo_remove:0000000000000000 queue_fifo_remove
     /tmp/ccR802FU.s:274    .text.queue_lifo_remove:0000000000000000 $t
     /tmp/ccR802FU.s:281    .text.queue_lifo_remove:0000000000000000 queue_lifo_remove
     /tmp/ccR802FU.s:316    .text.chSysLock:0000000000000000 $t
     /tmp/ccR802FU.s:323    .text.chSysLock:0000000000000000 chSysLock
     /tmp/ccR802FU.s:346    .text.chSysUnlock:0000000000000000 $t
     /tmp/ccR802FU.s:353    .text.chSysUnlock:0000000000000000 chSysUnlock
     /tmp/ccR802FU.s:394    .text.chSysUnlock:0000000000000030 $d
     /tmp/ccR802FU.s:1505   .rodata.__func__.4993:0000000000000000 __func__.4993
     /tmp/ccR802FU.s:400    .text.chSemObjectInit:0000000000000000 $t
     /tmp/ccR802FU.s:408    .text.chSemObjectInit:0000000000000000 chSemObjectInit
     /tmp/ccR802FU.s:452    .text.chSemObjectInit:0000000000000030 $d
     /tmp/ccR802FU.s:1499   .rodata.__func__.5697:0000000000000000 __func__.5697
     /tmp/ccR802FU.s:457    .text.chSemReset:0000000000000000 $t
     /tmp/ccR802FU.s:465    .text.chSemReset:0000000000000000 chSemReset
     /tmp/ccR802FU.s:507    .text.chSemResetI:0000000000000000 chSemResetI
     /tmp/ccR802FU.s:499    .text.chSemResetI:0000000000000000 $t
     /tmp/ccR802FU.s:613    .text.chSemResetI:000000000000009c $d
     /tmp/ccR802FU.s:1511   .rodata.__func__.5707:0000000000000000 __func__.5707
     /tmp/ccR802FU.s:618    .text.chSemWait:0000000000000000 $t
     /tmp/ccR802FU.s:626    .text.chSemWait:0000000000000000 chSemWait
     /tmp/ccR802FU.s:667    .text.chSemWaitS:0000000000000000 chSemWaitS
     /tmp/ccR802FU.s:659    .text.chSemWaitS:0000000000000000 $t
     /tmp/ccR802FU.s:771    .text.chSemWaitS:000000000000009c $d
     /tmp/ccR802FU.s:1517   .rodata.__func__.5718:0000000000000000 __func__.5718
     /tmp/ccR802FU.s:777    .text.chSemWaitTimeout:0000000000000000 $t
     /tmp/ccR802FU.s:785    .text.chSemWaitTimeout:0000000000000000 chSemWaitTimeout
     /tmp/ccR802FU.s:834    .text.chSemWaitTimeoutS:0000000000000000 chSemWaitTimeoutS
     /tmp/ccR802FU.s:826    .text.chSemWaitTimeoutS:0000000000000000 $t
     /tmp/ccR802FU.s:960    .text.chSemWaitTimeoutS:00000000000000c0 $d
     /tmp/ccR802FU.s:1523   .rodata.__func__.5728:0000000000000000 __func__.5728
     /tmp/ccR802FU.s:966    .text.chSemSignal:0000000000000000 $t
     /tmp/ccR802FU.s:974    .text.chSemSignal:0000000000000000 chSemSignal
     /tmp/ccR802FU.s:1065   .text.chSemSignal:000000000000008c $d
     /tmp/ccR802FU.s:1529   .rodata.__func__.5732:0000000000000000 __func__.5732
     /tmp/ccR802FU.s:1070   .text.chSemSignalI:0000000000000000 $t
     /tmp/ccR802FU.s:1078   .text.chSemSignalI:0000000000000000 chSemSignalI
     /tmp/ccR802FU.s:1175   .text.chSemSignalI:0000000000000090 $d
     /tmp/ccR802FU.s:1535   .rodata.__func__.5736:0000000000000000 __func__.5736
     /tmp/ccR802FU.s:1180   .text.chSemAddCounterI:0000000000000000 $t
     /tmp/ccR802FU.s:1188   .text.chSemAddCounterI:0000000000000000 chSemAddCounterI
     /tmp/ccR802FU.s:1296   .text.chSemAddCounterI:00000000000000a0 $d
ARM GAS  /tmp/ccR802FU.s 			page 84


     /tmp/ccR802FU.s:1541   .rodata.__func__.5742:0000000000000000 __func__.5742
     /tmp/ccR802FU.s:1301   .text.chSemSignalWait:0000000000000000 $t
     /tmp/ccR802FU.s:1309   .text.chSemSignalWait:0000000000000000 chSemSignalWait
     /tmp/ccR802FU.s:1490   .text.chSemSignalWait:000000000000011c $d
     /tmp/ccR802FU.s:1547   .rodata.__func__.5751:0000000000000000 __func__.5751
     /tmp/ccR802FU.s:1496   .rodata.__func__.5697:0000000000000000 $d
     /tmp/ccR802FU.s:1502   .rodata.__func__.4993:0000000000000000 $d
     /tmp/ccR802FU.s:1508   .rodata.__func__.5707:0000000000000000 $d
     /tmp/ccR802FU.s:1514   .rodata.__func__.5718:0000000000000000 $d
     /tmp/ccR802FU.s:1520   .rodata.__func__.5728:0000000000000000 $d
     /tmp/ccR802FU.s:1526   .rodata.__func__.5732:0000000000000000 $d
     /tmp/ccR802FU.s:1532   .rodata.__func__.5736:0000000000000000 $d
     /tmp/ccR802FU.s:1538   .rodata.__func__.5742:0000000000000000 $d
     /tmp/ccR802FU.s:1544   .rodata.__func__.5751:0000000000000000 $d
                     .debug_frame:0000000000000010 $d

UNDEFINED SYMBOLS
_dbg_check_lock
_dbg_check_unlock
chSysHalt
ch
chSchRescheduleS
chDbgCheckClassI
chSchReadyI
chDbgCheckClassS
chSchGoSleepS
chSchGoSleepTimeoutS
chSchWakeupS
