ARM GAS  /tmp/ccR802FU.s 			page 1


   1              		.cpu cortex-m0
   2              		.eabi_attribute 20, 1
   3              		.eabi_attribute 21, 1
   4              		.eabi_attribute 23, 3
   5              		.eabi_attribute 24, 1
   6              		.eabi_attribute 25, 1
   7              		.eabi_attribute 26, 1
   8              		.eabi_attribute 30, 6
   9              		.eabi_attribute 34, 0
  10              		.eabi_attribute 18, 4
  11              		.file	"chsem.c"
  12              		.text
  13              	.Ltext0:
  14              		.cfi_sections	.debug_frame
  15              		.section	.text.port_lock,"ax",%progbits
  16              		.align	1
  17              		.p2align 4,,15
  18              		.syntax unified
  19              		.code	16
  20              		.thumb_func
  21              		.fpu softvfp
  22              		.type	port_lock, %function
  23              	port_lock:
  24              	.LFB38:
  25              		.file 1 "ChibiOS/os/rt/ports/ARMCMx/chcore_v6m.h"
  26              		.loc 1 330 0
  27              		.cfi_startproc
  28              		@ args = 0, pretend = 0, frame = 0
  29              		@ frame_needed = 0, uses_anonymous_args = 0
  30              		@ link register save eliminated.
  31              	.LBB6:
  32              	.LBB7:
  33              		.file 2 "ChibiOS/os/ext/CMSIS/include/core_cmFunc.h"
  34              		.loc 2 344 0
  35              		.syntax divided
  36              	@ 344 "ChibiOS/os/ext/CMSIS/include/core_cmFunc.h" 1
  37 0000 72B6     		cpsid i
  38              	@ 0 "" 2
  39              		.thumb
  40              		.syntax unified
  41              	.LBE7:
  42              	.LBE6:
  43              		.loc 1 333 0
  44 0002 C046     		nop
  45              		@ sp needed
  46 0004 7047     		bx	lr
  47              		.cfi_endproc
  48              	.LFE38:
  49              		.size	port_lock, .-port_lock
  50 0006 C046     		.section	.text.port_unlock,"ax",%progbits
  51              		.align	1
  52              		.p2align 4,,15
  53              		.syntax unified
  54              		.code	16
  55              		.thumb_func
  56              		.fpu softvfp
  57              		.type	port_unlock, %function
ARM GAS  /tmp/ccR802FU.s 			page 2


  58              	port_unlock:
  59              	.LFB39:
  60              		.loc 1 339 0
  61              		.cfi_startproc
  62              		@ args = 0, pretend = 0, frame = 0
  63              		@ frame_needed = 0, uses_anonymous_args = 0
  64              		@ link register save eliminated.
  65              	.LBB8:
  66              	.LBB9:
  67              		.loc 2 333 0
  68              		.syntax divided
  69              	@ 333 "ChibiOS/os/ext/CMSIS/include/core_cmFunc.h" 1
  70 0000 62B6     		cpsie i
  71              	@ 0 "" 2
  72              		.thumb
  73              		.syntax unified
  74              	.LBE9:
  75              	.LBE8:
  76              		.loc 1 342 0
  77 0002 C046     		nop
  78              		@ sp needed
  79 0004 7047     		bx	lr
  80              		.cfi_endproc
  81              	.LFE39:
  82              		.size	port_unlock, .-port_unlock
  83 0006 C046     		.section	.text.queue_init,"ax",%progbits
  84              		.align	1
  85              		.p2align 4,,15
  86              		.syntax unified
  87              		.code	16
  88              		.thumb_func
  89              		.fpu softvfp
  90              		.type	queue_init, %function
  91              	queue_init:
  92              	.LFB60:
  93              		.file 3 "ChibiOS/os/rt/include/chschd.h"
  94              		.loc 3 602 0
  95              		.cfi_startproc
  96              		@ args = 0, pretend = 0, frame = 8
  97              		@ frame_needed = 0, uses_anonymous_args = 0
  98              		@ link register save eliminated.
  99 0000 82B0     		sub	sp, sp, #8
 100              		.cfi_def_cfa_offset 8
 101 0002 0190     		str	r0, [sp, #4]
 102              		.loc 3 604 0
 103 0004 019B     		ldr	r3, [sp, #4]
 104 0006 019A     		ldr	r2, [sp, #4]
 105 0008 1A60     		str	r2, [r3]
 106              		.loc 3 605 0
 107 000a 019B     		ldr	r3, [sp, #4]
 108 000c 019A     		ldr	r2, [sp, #4]
 109 000e 5A60     		str	r2, [r3, #4]
 110              		.loc 3 606 0
 111 0010 C046     		nop
 112 0012 02B0     		add	sp, sp, #8
 113              		@ sp needed
 114 0014 7047     		bx	lr
ARM GAS  /tmp/ccR802FU.s 			page 3


 115              		.cfi_endproc
 116              	.LFE60:
 117              		.size	queue_init, .-queue_init
 118 0016 C046     		.section	.text.queue_isempty,"ax",%progbits
 119              		.align	1
 120              		.p2align 4,,15
 121              		.syntax unified
 122              		.code	16
 123              		.thumb_func
 124              		.fpu softvfp
 125              		.type	queue_isempty, %function
 126              	queue_isempty:
 127              	.LFB61:
 128              		.loc 3 616 0
 129              		.cfi_startproc
 130              		@ args = 0, pretend = 0, frame = 8
 131              		@ frame_needed = 0, uses_anonymous_args = 0
 132              		@ link register save eliminated.
 133 0000 82B0     		sub	sp, sp, #8
 134              		.cfi_def_cfa_offset 8
 135 0002 0190     		str	r0, [sp, #4]
 136              		.loc 3 618 0
 137 0004 019B     		ldr	r3, [sp, #4]
 138 0006 1A68     		ldr	r2, [r3]
 139 0008 019B     		ldr	r3, [sp, #4]
 140 000a D31A     		subs	r3, r2, r3
 141 000c 5A42     		rsbs	r2, r3, #0
 142 000e 5341     		adcs	r3, r3, r2
 143 0010 DBB2     		uxtb	r3, r3
 144              		.loc 3 619 0
 145 0012 1800     		movs	r0, r3
 146 0014 02B0     		add	sp, sp, #8
 147              		@ sp needed
 148 0016 7047     		bx	lr
 149              		.cfi_endproc
 150              	.LFE61:
 151              		.size	queue_isempty, .-queue_isempty
 152              		.section	.text.queue_notempty,"ax",%progbits
 153              		.align	1
 154              		.p2align 4,,15
 155              		.syntax unified
 156              		.code	16
 157              		.thumb_func
 158              		.fpu softvfp
 159              		.type	queue_notempty, %function
 160              	queue_notempty:
 161              	.LFB62:
 162              		.loc 3 629 0
 163              		.cfi_startproc
 164              		@ args = 0, pretend = 0, frame = 8
 165              		@ frame_needed = 0, uses_anonymous_args = 0
 166              		@ link register save eliminated.
 167 0000 82B0     		sub	sp, sp, #8
 168              		.cfi_def_cfa_offset 8
 169 0002 0190     		str	r0, [sp, #4]
 170              		.loc 3 631 0
 171 0004 019B     		ldr	r3, [sp, #4]
ARM GAS  /tmp/ccR802FU.s 			page 4


 172 0006 1A68     		ldr	r2, [r3]
 173 0008 019B     		ldr	r3, [sp, #4]
 174 000a D31A     		subs	r3, r2, r3
 175 000c 5A1E     		subs	r2, r3, #1
 176 000e 9341     		sbcs	r3, r3, r2
 177 0010 DBB2     		uxtb	r3, r3
 178              		.loc 3 632 0
 179 0012 1800     		movs	r0, r3
 180 0014 02B0     		add	sp, sp, #8
 181              		@ sp needed
 182 0016 7047     		bx	lr
 183              		.cfi_endproc
 184              	.LFE62:
 185              		.size	queue_notempty, .-queue_notempty
 186              		.section	.text.queue_insert,"ax",%progbits
 187              		.align	1
 188              		.p2align 4,,15
 189              		.syntax unified
 190              		.code	16
 191              		.thumb_func
 192              		.fpu softvfp
 193              		.type	queue_insert, %function
 194              	queue_insert:
 195              	.LFB66:
 196              		.loc 3 663 0
 197              		.cfi_startproc
 198              		@ args = 0, pretend = 0, frame = 8
 199              		@ frame_needed = 0, uses_anonymous_args = 0
 200              		@ link register save eliminated.
 201 0000 82B0     		sub	sp, sp, #8
 202              		.cfi_def_cfa_offset 8
 203 0002 0190     		str	r0, [sp, #4]
 204 0004 0091     		str	r1, [sp]
 205              		.loc 3 665 0
 206 0006 019B     		ldr	r3, [sp, #4]
 207 0008 009A     		ldr	r2, [sp]
 208 000a 1A60     		str	r2, [r3]
 209              		.loc 3 666 0
 210 000c 009B     		ldr	r3, [sp]
 211 000e 5A68     		ldr	r2, [r3, #4]
 212 0010 019B     		ldr	r3, [sp, #4]
 213 0012 5A60     		str	r2, [r3, #4]
 214              		.loc 3 667 0
 215 0014 019B     		ldr	r3, [sp, #4]
 216 0016 5B68     		ldr	r3, [r3, #4]
 217 0018 019A     		ldr	r2, [sp, #4]
 218 001a 1A60     		str	r2, [r3]
 219              		.loc 3 668 0
 220 001c 009B     		ldr	r3, [sp]
 221 001e 019A     		ldr	r2, [sp, #4]
 222 0020 5A60     		str	r2, [r3, #4]
 223              		.loc 3 669 0
 224 0022 C046     		nop
 225 0024 02B0     		add	sp, sp, #8
 226              		@ sp needed
 227 0026 7047     		bx	lr
 228              		.cfi_endproc
ARM GAS  /tmp/ccR802FU.s 			page 5


 229              	.LFE66:
 230              		.size	queue_insert, .-queue_insert
 231              		.section	.text.queue_fifo_remove,"ax",%progbits
 232              		.align	1
 233              		.p2align 4,,15
 234              		.syntax unified
 235              		.code	16
 236              		.thumb_func
 237              		.fpu softvfp
 238              		.type	queue_fifo_remove, %function
 239              	queue_fifo_remove:
 240              	.LFB67:
 241              		.loc 3 671 0
 242              		.cfi_startproc
 243              		@ args = 0, pretend = 0, frame = 16
 244              		@ frame_needed = 0, uses_anonymous_args = 0
 245              		@ link register save eliminated.
 246 0000 84B0     		sub	sp, sp, #16
 247              		.cfi_def_cfa_offset 16
 248 0002 0190     		str	r0, [sp, #4]
 249              		.loc 3 672 0
 250 0004 019B     		ldr	r3, [sp, #4]
 251 0006 1B68     		ldr	r3, [r3]
 252 0008 0393     		str	r3, [sp, #12]
 253              		.loc 3 674 0
 254 000a 039B     		ldr	r3, [sp, #12]
 255 000c 1A68     		ldr	r2, [r3]
 256 000e 019B     		ldr	r3, [sp, #4]
 257 0010 1A60     		str	r2, [r3]
 258              		.loc 3 675 0
 259 0012 019B     		ldr	r3, [sp, #4]
 260 0014 1B68     		ldr	r3, [r3]
 261 0016 019A     		ldr	r2, [sp, #4]
 262 0018 5A60     		str	r2, [r3, #4]
 263              		.loc 3 677 0
 264 001a 039B     		ldr	r3, [sp, #12]
 265              		.loc 3 678 0
 266 001c 1800     		movs	r0, r3
 267 001e 04B0     		add	sp, sp, #16
 268              		@ sp needed
 269 0020 7047     		bx	lr
 270              		.cfi_endproc
 271              	.LFE67:
 272              		.size	queue_fifo_remove, .-queue_fifo_remove
 273 0022 C046     		.section	.text.queue_lifo_remove,"ax",%progbits
 274              		.align	1
 275              		.p2align 4,,15
 276              		.syntax unified
 277              		.code	16
 278              		.thumb_func
 279              		.fpu softvfp
 280              		.type	queue_lifo_remove, %function
 281              	queue_lifo_remove:
 282              	.LFB68:
 283              		.loc 3 680 0
 284              		.cfi_startproc
 285              		@ args = 0, pretend = 0, frame = 16
ARM GAS  /tmp/ccR802FU.s 			page 6


 286              		@ frame_needed = 0, uses_anonymous_args = 0
 287              		@ link register save eliminated.
 288 0000 84B0     		sub	sp, sp, #16
 289              		.cfi_def_cfa_offset 16
 290 0002 0190     		str	r0, [sp, #4]
 291              		.loc 3 681 0
 292 0004 019B     		ldr	r3, [sp, #4]
 293 0006 5B68     		ldr	r3, [r3, #4]
 294 0008 0393     		str	r3, [sp, #12]
 295              		.loc 3 683 0
 296 000a 039B     		ldr	r3, [sp, #12]
 297 000c 5A68     		ldr	r2, [r3, #4]
 298 000e 019B     		ldr	r3, [sp, #4]
 299 0010 5A60     		str	r2, [r3, #4]
 300              		.loc 3 684 0
 301 0012 019B     		ldr	r3, [sp, #4]
 302 0014 5B68     		ldr	r3, [r3, #4]
 303 0016 019A     		ldr	r2, [sp, #4]
 304 0018 1A60     		str	r2, [r3]
 305              		.loc 3 686 0
 306 001a 039B     		ldr	r3, [sp, #12]
 307              		.loc 3 687 0
 308 001c 1800     		movs	r0, r3
 309 001e 04B0     		add	sp, sp, #16
 310              		@ sp needed
 311 0020 7047     		bx	lr
 312              		.cfi_endproc
 313              	.LFE68:
 314              		.size	queue_lifo_remove, .-queue_lifo_remove
 315 0022 C046     		.section	.text.chSysLock,"ax",%progbits
 316              		.align	1
 317              		.p2align 4,,15
 318              		.syntax unified
 319              		.code	16
 320              		.thumb_func
 321              		.fpu softvfp
 322              		.type	chSysLock, %function
 323              	chSysLock:
 324              	.LFB77:
 325              		.file 4 "ChibiOS/os/rt/include/chsys.h"
 326              		.loc 4 346 0
 327              		.cfi_startproc
 328              		@ args = 0, pretend = 0, frame = 0
 329              		@ frame_needed = 0, uses_anonymous_args = 0
 330 0000 10B5     		push	{r4, lr}
 331              		.cfi_def_cfa_offset 8
 332              		.cfi_offset 4, -8
 333              		.cfi_offset 14, -4
 334              		.loc 4 348 0
 335 0002 FFF7FEFF 		bl	port_lock
 336              		.loc 4 350 0
 337 0006 FFF7FEFF 		bl	_dbg_check_lock
 338              		.loc 4 351 0
 339 000a C046     		nop
 340              		@ sp needed
 341 000c 10BD     		pop	{r4, pc}
 342              		.cfi_endproc
ARM GAS  /tmp/ccR802FU.s 			page 7


 343              	.LFE77:
 344              		.size	chSysLock, .-chSysLock
 345 000e C046     		.section	.text.chSysUnlock,"ax",%progbits
 346              		.align	1
 347              		.p2align 4,,15
 348              		.syntax unified
 349              		.code	16
 350              		.thumb_func
 351              		.fpu softvfp
 352              		.type	chSysUnlock, %function
 353              	chSysUnlock:
 354              	.LFB78:
 355              		.loc 4 358 0
 356              		.cfi_startproc
 357              		@ args = 0, pretend = 0, frame = 0
 358              		@ frame_needed = 0, uses_anonymous_args = 0
 359 0000 10B5     		push	{r4, lr}
 360              		.cfi_def_cfa_offset 8
 361              		.cfi_offset 4, -8
 362              		.cfi_offset 14, -4
 363              		.loc 4 360 0
 364 0002 FFF7FEFF 		bl	_dbg_check_unlock
 365              		.loc 4 367 0
 366 0006 0A4B     		ldr	r3, .L16
 367 0008 1A68     		ldr	r2, [r3]
 368 000a 094B     		ldr	r3, .L16
 369 000c 9A42     		cmp	r2, r3
 370 000e 0BD0     		beq	.L15
 371              		.loc 4 367 0 is_stmt 0 discriminator 2
 372 0010 074B     		ldr	r3, .L16
 373 0012 9B69     		ldr	r3, [r3, #24]
 374 0014 9A68     		ldr	r2, [r3, #8]
 375 0016 064B     		ldr	r3, .L16
 376 0018 1B68     		ldr	r3, [r3]
 377 001a 9B68     		ldr	r3, [r3, #8]
 378 001c 9A42     		cmp	r2, r3
 379 001e 03D2     		bcs	.L15
 380              		.loc 4 367 0 discriminator 3
 381 0020 044B     		ldr	r3, .L16+4
 382 0022 1800     		movs	r0, r3
 383 0024 FFF7FEFF 		bl	chSysHalt
 384              	.L15:
 385              		.loc 4 371 0 is_stmt 1
 386 0028 FFF7FEFF 		bl	port_unlock
 387              		.loc 4 372 0
 388 002c C046     		nop
 389              		@ sp needed
 390 002e 10BD     		pop	{r4, pc}
 391              	.L17:
 392              		.align	2
 393              	.L16:
 394 0030 00000000 		.word	ch
 395 0034 00000000 		.word	__func__.4993
 396              		.cfi_endproc
 397              	.LFE78:
 398              		.size	chSysUnlock, .-chSysUnlock
 399              		.section	.text.chSemObjectInit,"ax",%progbits
ARM GAS  /tmp/ccR802FU.s 			page 8


 400              		.align	1
 401              		.p2align 4,,15
 402              		.global	chSemObjectInit
 403              		.syntax unified
 404              		.code	16
 405              		.thumb_func
 406              		.fpu softvfp
 407              		.type	chSemObjectInit, %function
 408              	chSemObjectInit:
 409              	.LFB152:
 410              		.file 5 "ChibiOS/os/rt/src/chsem.c"
 411              		.loc 5 97 0
 412              		.cfi_startproc
 413              		@ args = 0, pretend = 0, frame = 8
 414              		@ frame_needed = 0, uses_anonymous_args = 0
 415 0000 00B5     		push	{lr}
 416              		.cfi_def_cfa_offset 4
 417              		.cfi_offset 14, -4
 418 0002 83B0     		sub	sp, sp, #12
 419              		.cfi_def_cfa_offset 16
 420 0004 0190     		str	r0, [sp, #4]
 421 0006 0091     		str	r1, [sp]
 422              		.loc 5 99 0
 423 0008 019B     		ldr	r3, [sp, #4]
 424 000a 002B     		cmp	r3, #0
 425 000c 02D0     		beq	.L19
 426              		.loc 5 99 0 is_stmt 0 discriminator 3
 427 000e 009B     		ldr	r3, [sp]
 428 0010 002B     		cmp	r3, #0
 429 0012 03DA     		bge	.L20
 430              	.L19:
 431              		.loc 5 99 0 discriminator 4
 432 0014 064B     		ldr	r3, .L21
 433 0016 1800     		movs	r0, r3
 434 0018 FFF7FEFF 		bl	chSysHalt
 435              	.L20:
 436              		.loc 5 101 0 is_stmt 1
 437 001c 019B     		ldr	r3, [sp, #4]
 438 001e 1800     		movs	r0, r3
 439 0020 FFF7FEFF 		bl	queue_init
 440              		.loc 5 102 0
 441 0024 019B     		ldr	r3, [sp, #4]
 442 0026 009A     		ldr	r2, [sp]
 443 0028 9A60     		str	r2, [r3, #8]
 444              		.loc 5 103 0
 445 002a C046     		nop
 446 002c 03B0     		add	sp, sp, #12
 447              		@ sp needed
 448 002e 00BD     		pop	{pc}
 449              	.L22:
 450              		.align	2
 451              	.L21:
 452 0030 00000000 		.word	__func__.5697
 453              		.cfi_endproc
 454              	.LFE152:
 455              		.size	chSemObjectInit, .-chSemObjectInit
 456              		.section	.text.chSemReset,"ax",%progbits
ARM GAS  /tmp/ccR802FU.s 			page 9


 457              		.align	1
 458              		.p2align 4,,15
 459              		.global	chSemReset
 460              		.syntax unified
 461              		.code	16
 462              		.thumb_func
 463              		.fpu softvfp
 464              		.type	chSemReset, %function
 465              	chSemReset:
 466              	.LFB153:
 467              		.loc 5 120 0
 468              		.cfi_startproc
 469              		@ args = 0, pretend = 0, frame = 8
 470              		@ frame_needed = 0, uses_anonymous_args = 0
 471 0000 00B5     		push	{lr}
 472              		.cfi_def_cfa_offset 4
 473              		.cfi_offset 14, -4
 474 0002 83B0     		sub	sp, sp, #12
 475              		.cfi_def_cfa_offset 16
 476 0004 0190     		str	r0, [sp, #4]
 477 0006 0091     		str	r1, [sp]
 478              		.loc 5 122 0
 479 0008 FFF7FEFF 		bl	chSysLock
 480              		.loc 5 123 0
 481 000c 009A     		ldr	r2, [sp]
 482 000e 019B     		ldr	r3, [sp, #4]
 483 0010 1100     		movs	r1, r2
 484 0012 1800     		movs	r0, r3
 485 0014 FFF7FEFF 		bl	chSemResetI
 486              		.loc 5 124 0
 487 0018 FFF7FEFF 		bl	chSchRescheduleS
 488              		.loc 5 125 0
 489 001c FFF7FEFF 		bl	chSysUnlock
 490              		.loc 5 126 0
 491 0020 C046     		nop
 492 0022 03B0     		add	sp, sp, #12
 493              		@ sp needed
 494 0024 00BD     		pop	{pc}
 495              		.cfi_endproc
 496              	.LFE153:
 497              		.size	chSemReset, .-chSemReset
 498 0026 C046     		.section	.text.chSemResetI,"ax",%progbits
 499              		.align	1
 500              		.p2align 4,,15
 501              		.global	chSemResetI
 502              		.syntax unified
 503              		.code	16
 504              		.thumb_func
 505              		.fpu softvfp
 506              		.type	chSemResetI, %function
 507              	chSemResetI:
 508              	.LFB154:
 509              		.loc 5 147 0
 510              		.cfi_startproc
 511              		@ args = 0, pretend = 0, frame = 16
 512              		@ frame_needed = 0, uses_anonymous_args = 0
 513 0000 00B5     		push	{lr}
ARM GAS  /tmp/ccR802FU.s 			page 10


 514              		.cfi_def_cfa_offset 4
 515              		.cfi_offset 14, -4
 516 0002 85B0     		sub	sp, sp, #20
 517              		.cfi_def_cfa_offset 24
 518 0004 0190     		str	r0, [sp, #4]
 519 0006 0091     		str	r1, [sp]
 520              		.loc 5 150 0
 521 0008 FFF7FEFF 		bl	chDbgCheckClassI
 522              		.loc 5 151 0
 523 000c 019B     		ldr	r3, [sp, #4]
 524 000e 002B     		cmp	r3, #0
 525 0010 02D0     		beq	.L25
 526              		.loc 5 151 0 is_stmt 0 discriminator 3
 527 0012 009B     		ldr	r3, [sp]
 528 0014 002B     		cmp	r3, #0
 529 0016 03DA     		bge	.L32
 530              	.L25:
 531              		.loc 5 151 0 discriminator 4
 532 0018 204B     		ldr	r3, .L33
 533 001a 1800     		movs	r0, r3
 534 001c FFF7FEFF 		bl	chSysHalt
 535              	.L32:
 536              		.loc 5 152 0 is_stmt 1 discriminator 1
 537 0020 019B     		ldr	r3, [sp, #4]
 538 0022 9B68     		ldr	r3, [r3, #8]
 539 0024 002B     		cmp	r3, #0
 540 0026 0ADB     		blt	.L27
 541              		.loc 5 152 0 is_stmt 0 discriminator 3
 542 0028 019B     		ldr	r3, [sp, #4]
 543 002a 1800     		movs	r0, r3
 544 002c FFF7FEFF 		bl	queue_isempty
 545 0030 0300     		movs	r3, r0
 546 0032 1A00     		movs	r2, r3
 547 0034 0123     		movs	r3, #1
 548 0036 5340     		eors	r3, r2
 549 0038 DBB2     		uxtb	r3, r3
 550 003a 002B     		cmp	r3, #0
 551 003c 12D0     		beq	.L28
 552              	.L27:
 553              		.loc 5 152 0 discriminator 4
 554 003e 019B     		ldr	r3, [sp, #4]
 555 0040 9B68     		ldr	r3, [r3, #8]
 556 0042 002B     		cmp	r3, #0
 557 0044 0ADA     		bge	.L29
 558              		.loc 5 152 0 discriminator 6
 559 0046 019B     		ldr	r3, [sp, #4]
 560 0048 1800     		movs	r0, r3
 561 004a FFF7FEFF 		bl	queue_notempty
 562 004e 0300     		movs	r3, r0
 563 0050 1A00     		movs	r2, r3
 564 0052 0123     		movs	r3, #1
 565 0054 5340     		eors	r3, r2
 566 0056 DBB2     		uxtb	r3, r3
 567 0058 002B     		cmp	r3, #0
 568 005a 03D0     		beq	.L28
 569              	.L29:
 570              		.loc 5 152 0 discriminator 7
ARM GAS  /tmp/ccR802FU.s 			page 11


 571 005c 0F4B     		ldr	r3, .L33
 572 005e 1800     		movs	r0, r3
 573 0060 FFF7FEFF 		bl	chSysHalt
 574              	.L28:
 575              		.loc 5 156 0 is_stmt 1
 576 0064 019B     		ldr	r3, [sp, #4]
 577 0066 9B68     		ldr	r3, [r3, #8]
 578 0068 0393     		str	r3, [sp, #12]
 579              		.loc 5 157 0
 580 006a 019B     		ldr	r3, [sp, #4]
 581 006c 009A     		ldr	r2, [sp]
 582 006e 9A60     		str	r2, [r3, #8]
 583              		.loc 5 158 0
 584 0070 0BE0     		b	.L30
 585              	.L31:
 586              		.loc 5 159 0
 587 0072 019B     		ldr	r3, [sp, #4]
 588 0074 1800     		movs	r0, r3
 589 0076 FFF7FEFF 		bl	queue_lifo_remove
 590 007a 0300     		movs	r3, r0
 591 007c 1800     		movs	r0, r3
 592 007e FFF7FEFF 		bl	chSchReadyI
 593 0082 0300     		movs	r3, r0
 594 0084 0222     		movs	r2, #2
 595 0086 5242     		rsbs	r2, r2, #0
 596 0088 5A62     		str	r2, [r3, #36]
 597              	.L30:
 598              		.loc 5 158 0
 599 008a 039B     		ldr	r3, [sp, #12]
 600 008c 0133     		adds	r3, r3, #1
 601 008e 0393     		str	r3, [sp, #12]
 602 0090 039B     		ldr	r3, [sp, #12]
 603 0092 002B     		cmp	r3, #0
 604 0094 EDDD     		ble	.L31
 605              		.loc 5 161 0
 606 0096 C046     		nop
 607 0098 05B0     		add	sp, sp, #20
 608              		@ sp needed
 609 009a 00BD     		pop	{pc}
 610              	.L34:
 611              		.align	2
 612              	.L33:
 613 009c 00000000 		.word	__func__.5707
 614              		.cfi_endproc
 615              	.LFE154:
 616              		.size	chSemResetI, .-chSemResetI
 617              		.section	.text.chSemWait,"ax",%progbits
 618              		.align	1
 619              		.p2align 4,,15
 620              		.global	chSemWait
 621              		.syntax unified
 622              		.code	16
 623              		.thumb_func
 624              		.fpu softvfp
 625              		.type	chSemWait, %function
 626              	chSemWait:
 627              	.LFB155:
ARM GAS  /tmp/ccR802FU.s 			page 12


 628              		.loc 5 175 0
 629              		.cfi_startproc
 630              		@ args = 0, pretend = 0, frame = 16
 631              		@ frame_needed = 0, uses_anonymous_args = 0
 632 0000 00B5     		push	{lr}
 633              		.cfi_def_cfa_offset 4
 634              		.cfi_offset 14, -4
 635 0002 85B0     		sub	sp, sp, #20
 636              		.cfi_def_cfa_offset 24
 637 0004 0190     		str	r0, [sp, #4]
 638              		.loc 5 178 0
 639 0006 FFF7FEFF 		bl	chSysLock
 640              		.loc 5 179 0
 641 000a 019B     		ldr	r3, [sp, #4]
 642 000c 1800     		movs	r0, r3
 643 000e FFF7FEFF 		bl	chSemWaitS
 644 0012 0300     		movs	r3, r0
 645 0014 0393     		str	r3, [sp, #12]
 646              		.loc 5 180 0
 647 0016 FFF7FEFF 		bl	chSysUnlock
 648              		.loc 5 182 0
 649 001a 039B     		ldr	r3, [sp, #12]
 650              		.loc 5 183 0
 651 001c 1800     		movs	r0, r3
 652 001e 05B0     		add	sp, sp, #20
 653              		@ sp needed
 654 0020 00BD     		pop	{pc}
 655              		.cfi_endproc
 656              	.LFE155:
 657              		.size	chSemWait, .-chSemWait
 658 0022 C046     		.section	.text.chSemWaitS,"ax",%progbits
 659              		.align	1
 660              		.p2align 4,,15
 661              		.global	chSemWaitS
 662              		.syntax unified
 663              		.code	16
 664              		.thumb_func
 665              		.fpu softvfp
 666              		.type	chSemWaitS, %function
 667              	chSemWaitS:
 668              	.LFB156:
 669              		.loc 5 197 0
 670              		.cfi_startproc
 671              		@ args = 0, pretend = 0, frame = 8
 672              		@ frame_needed = 0, uses_anonymous_args = 0
 673 0000 00B5     		push	{lr}
 674              		.cfi_def_cfa_offset 4
 675              		.cfi_offset 14, -4
 676 0002 83B0     		sub	sp, sp, #12
 677              		.cfi_def_cfa_offset 16
 678 0004 0190     		str	r0, [sp, #4]
 679              		.loc 5 199 0
 680 0006 FFF7FEFF 		bl	chDbgCheckClassS
 681              		.loc 5 200 0
 682 000a 019B     		ldr	r3, [sp, #4]
 683 000c 002B     		cmp	r3, #0
 684 000e 03D1     		bne	.L44
ARM GAS  /tmp/ccR802FU.s 			page 13


 685              		.loc 5 200 0 is_stmt 0 discriminator 2
 686 0010 224B     		ldr	r3, .L45
 687 0012 1800     		movs	r0, r3
 688 0014 FFF7FEFF 		bl	chSysHalt
 689              	.L44:
 690              		.loc 5 201 0 is_stmt 1 discriminator 1
 691 0018 019B     		ldr	r3, [sp, #4]
 692 001a 9B68     		ldr	r3, [r3, #8]
 693 001c 002B     		cmp	r3, #0
 694 001e 0ADB     		blt	.L39
 695              		.loc 5 201 0 is_stmt 0 discriminator 3
 696 0020 019B     		ldr	r3, [sp, #4]
 697 0022 1800     		movs	r0, r3
 698 0024 FFF7FEFF 		bl	queue_isempty
 699 0028 0300     		movs	r3, r0
 700 002a 1A00     		movs	r2, r3
 701 002c 0123     		movs	r3, #1
 702 002e 5340     		eors	r3, r2
 703 0030 DBB2     		uxtb	r3, r3
 704 0032 002B     		cmp	r3, #0
 705 0034 12D0     		beq	.L40
 706              	.L39:
 707              		.loc 5 201 0 discriminator 4
 708 0036 019B     		ldr	r3, [sp, #4]
 709 0038 9B68     		ldr	r3, [r3, #8]
 710 003a 002B     		cmp	r3, #0
 711 003c 0ADA     		bge	.L41
 712              		.loc 5 201 0 discriminator 6
 713 003e 019B     		ldr	r3, [sp, #4]
 714 0040 1800     		movs	r0, r3
 715 0042 FFF7FEFF 		bl	queue_notempty
 716 0046 0300     		movs	r3, r0
 717 0048 1A00     		movs	r2, r3
 718 004a 0123     		movs	r3, #1
 719 004c 5340     		eors	r3, r2
 720 004e DBB2     		uxtb	r3, r3
 721 0050 002B     		cmp	r3, #0
 722 0052 03D0     		beq	.L40
 723              	.L41:
 724              		.loc 5 201 0 discriminator 7
 725 0054 114B     		ldr	r3, .L45
 726 0056 1800     		movs	r0, r3
 727 0058 FFF7FEFF 		bl	chSysHalt
 728              	.L40:
 729              		.loc 5 205 0 is_stmt 1
 730 005c 019B     		ldr	r3, [sp, #4]
 731 005e 9B68     		ldr	r3, [r3, #8]
 732 0060 5A1E     		subs	r2, r3, #1
 733 0062 019B     		ldr	r3, [sp, #4]
 734 0064 9A60     		str	r2, [r3, #8]
 735 0066 019B     		ldr	r3, [sp, #4]
 736 0068 9B68     		ldr	r3, [r3, #8]
 737 006a 002B     		cmp	r3, #0
 738 006c 11DA     		bge	.L42
 739              		.loc 5 206 0
 740 006e 0C4B     		ldr	r3, .L45+4
 741 0070 9B69     		ldr	r3, [r3, #24]
ARM GAS  /tmp/ccR802FU.s 			page 14


 742 0072 019A     		ldr	r2, [sp, #4]
 743 0074 5A62     		str	r2, [r3, #36]
 744              		.loc 5 207 0
 745 0076 0A4B     		ldr	r3, .L45+4
 746 0078 9B69     		ldr	r3, [r3, #24]
 747 007a 019A     		ldr	r2, [sp, #4]
 748 007c 1100     		movs	r1, r2
 749 007e 1800     		movs	r0, r3
 750 0080 FFF7FEFF 		bl	queue_insert
 751              		.loc 5 208 0
 752 0084 0520     		movs	r0, #5
 753 0086 FFF7FEFF 		bl	chSchGoSleepS
 754              		.loc 5 210 0
 755 008a 054B     		ldr	r3, .L45+4
 756 008c 9B69     		ldr	r3, [r3, #24]
 757 008e 5B6A     		ldr	r3, [r3, #36]
 758 0090 00E0     		b	.L43
 759              	.L42:
 760              		.loc 5 213 0
 761 0092 0023     		movs	r3, #0
 762              	.L43:
 763              		.loc 5 214 0
 764 0094 1800     		movs	r0, r3
 765 0096 03B0     		add	sp, sp, #12
 766              		@ sp needed
 767 0098 00BD     		pop	{pc}
 768              	.L46:
 769 009a C046     		.align	2
 770              	.L45:
 771 009c 00000000 		.word	__func__.5718
 772 00a0 00000000 		.word	ch
 773              		.cfi_endproc
 774              	.LFE156:
 775              		.size	chSemWaitS, .-chSemWaitS
 776              		.section	.text.chSemWaitTimeout,"ax",%progbits
 777              		.align	1
 778              		.p2align 4,,15
 779              		.global	chSemWaitTimeout
 780              		.syntax unified
 781              		.code	16
 782              		.thumb_func
 783              		.fpu softvfp
 784              		.type	chSemWaitTimeout, %function
 785              	chSemWaitTimeout:
 786              	.LFB157:
 787              		.loc 5 235 0
 788              		.cfi_startproc
 789              		@ args = 0, pretend = 0, frame = 16
 790              		@ frame_needed = 0, uses_anonymous_args = 0
 791 0000 00B5     		push	{lr}
 792              		.cfi_def_cfa_offset 4
 793              		.cfi_offset 14, -4
 794 0002 85B0     		sub	sp, sp, #20
 795              		.cfi_def_cfa_offset 24
 796 0004 0190     		str	r0, [sp, #4]
 797 0006 0A00     		movs	r2, r1
 798 0008 6B46     		mov	r3, sp
ARM GAS  /tmp/ccR802FU.s 			page 15


 799 000a 0233     		adds	r3, r3, #2
 800 000c 1A80     		strh	r2, [r3]
 801              		.loc 5 238 0
 802 000e FFF7FEFF 		bl	chSysLock
 803              		.loc 5 239 0
 804 0012 6B46     		mov	r3, sp
 805 0014 0233     		adds	r3, r3, #2
 806 0016 1A88     		ldrh	r2, [r3]
 807 0018 019B     		ldr	r3, [sp, #4]
 808 001a 1100     		movs	r1, r2
 809 001c 1800     		movs	r0, r3
 810 001e FFF7FEFF 		bl	chSemWaitTimeoutS
 811 0022 0300     		movs	r3, r0
 812 0024 0393     		str	r3, [sp, #12]
 813              		.loc 5 240 0
 814 0026 FFF7FEFF 		bl	chSysUnlock
 815              		.loc 5 242 0
 816 002a 039B     		ldr	r3, [sp, #12]
 817              		.loc 5 243 0
 818 002c 1800     		movs	r0, r3
 819 002e 05B0     		add	sp, sp, #20
 820              		@ sp needed
 821 0030 00BD     		pop	{pc}
 822              		.cfi_endproc
 823              	.LFE157:
 824              		.size	chSemWaitTimeout, .-chSemWaitTimeout
 825 0032 C046     		.section	.text.chSemWaitTimeoutS,"ax",%progbits
 826              		.align	1
 827              		.p2align 4,,15
 828              		.global	chSemWaitTimeoutS
 829              		.syntax unified
 830              		.code	16
 831              		.thumb_func
 832              		.fpu softvfp
 833              		.type	chSemWaitTimeoutS, %function
 834              	chSemWaitTimeoutS:
 835              	.LFB158:
 836              		.loc 5 264 0
 837              		.cfi_startproc
 838              		@ args = 0, pretend = 0, frame = 8
 839              		@ frame_needed = 0, uses_anonymous_args = 0
 840 0000 00B5     		push	{lr}
 841              		.cfi_def_cfa_offset 4
 842              		.cfi_offset 14, -4
 843 0002 83B0     		sub	sp, sp, #12
 844              		.cfi_def_cfa_offset 16
 845 0004 0190     		str	r0, [sp, #4]
 846 0006 0A00     		movs	r2, r1
 847 0008 6B46     		mov	r3, sp
 848 000a 0233     		adds	r3, r3, #2
 849 000c 1A80     		strh	r2, [r3]
 850              		.loc 5 266 0
 851 000e FFF7FEFF 		bl	chDbgCheckClassS
 852              		.loc 5 267 0
 853 0012 019B     		ldr	r3, [sp, #4]
 854 0014 002B     		cmp	r3, #0
 855 0016 03D1     		bne	.L57
ARM GAS  /tmp/ccR802FU.s 			page 16


 856              		.loc 5 267 0 is_stmt 0 discriminator 2
 857 0018 294B     		ldr	r3, .L58
 858 001a 1800     		movs	r0, r3
 859 001c FFF7FEFF 		bl	chSysHalt
 860              	.L57:
 861              		.loc 5 268 0 is_stmt 1 discriminator 1
 862 0020 019B     		ldr	r3, [sp, #4]
 863 0022 9B68     		ldr	r3, [r3, #8]
 864 0024 002B     		cmp	r3, #0
 865 0026 0ADB     		blt	.L51
 866              		.loc 5 268 0 is_stmt 0 discriminator 3
 867 0028 019B     		ldr	r3, [sp, #4]
 868 002a 1800     		movs	r0, r3
 869 002c FFF7FEFF 		bl	queue_isempty
 870 0030 0300     		movs	r3, r0
 871 0032 1A00     		movs	r2, r3
 872 0034 0123     		movs	r3, #1
 873 0036 5340     		eors	r3, r2
 874 0038 DBB2     		uxtb	r3, r3
 875 003a 002B     		cmp	r3, #0
 876 003c 12D0     		beq	.L52
 877              	.L51:
 878              		.loc 5 268 0 discriminator 4
 879 003e 019B     		ldr	r3, [sp, #4]
 880 0040 9B68     		ldr	r3, [r3, #8]
 881 0042 002B     		cmp	r3, #0
 882 0044 0ADA     		bge	.L53
 883              		.loc 5 268 0 discriminator 6
 884 0046 019B     		ldr	r3, [sp, #4]
 885 0048 1800     		movs	r0, r3
 886 004a FFF7FEFF 		bl	queue_notempty
 887 004e 0300     		movs	r3, r0
 888 0050 1A00     		movs	r2, r3
 889 0052 0123     		movs	r3, #1
 890 0054 5340     		eors	r3, r2
 891 0056 DBB2     		uxtb	r3, r3
 892 0058 002B     		cmp	r3, #0
 893 005a 03D0     		beq	.L52
 894              	.L53:
 895              		.loc 5 268 0 discriminator 7
 896 005c 184B     		ldr	r3, .L58
 897 005e 1800     		movs	r0, r3
 898 0060 FFF7FEFF 		bl	chSysHalt
 899              	.L52:
 900              		.loc 5 272 0 is_stmt 1
 901 0064 019B     		ldr	r3, [sp, #4]
 902 0066 9B68     		ldr	r3, [r3, #8]
 903 0068 5A1E     		subs	r2, r3, #1
 904 006a 019B     		ldr	r3, [sp, #4]
 905 006c 9A60     		str	r2, [r3, #8]
 906 006e 019B     		ldr	r3, [sp, #4]
 907 0070 9B68     		ldr	r3, [r3, #8]
 908 0072 002B     		cmp	r3, #0
 909 0074 20DA     		bge	.L54
 910              		.loc 5 273 0
 911 0076 6B46     		mov	r3, sp
 912 0078 0233     		adds	r3, r3, #2
ARM GAS  /tmp/ccR802FU.s 			page 17


 913 007a 1B88     		ldrh	r3, [r3]
 914 007c 002B     		cmp	r3, #0
 915 007e 07D1     		bne	.L55
 916              		.loc 5 274 0
 917 0080 019B     		ldr	r3, [sp, #4]
 918 0082 9B68     		ldr	r3, [r3, #8]
 919 0084 5A1C     		adds	r2, r3, #1
 920 0086 019B     		ldr	r3, [sp, #4]
 921 0088 9A60     		str	r2, [r3, #8]
 922              		.loc 5 276 0
 923 008a 0123     		movs	r3, #1
 924 008c 5B42     		rsbs	r3, r3, #0
 925 008e 14E0     		b	.L56
 926              	.L55:
 927              		.loc 5 278 0
 928 0090 0C4B     		ldr	r3, .L58+4
 929 0092 9B69     		ldr	r3, [r3, #24]
 930 0094 019A     		ldr	r2, [sp, #4]
 931 0096 5A62     		str	r2, [r3, #36]
 932              		.loc 5 279 0
 933 0098 0A4B     		ldr	r3, .L58+4
 934 009a 9B69     		ldr	r3, [r3, #24]
 935 009c 019A     		ldr	r2, [sp, #4]
 936 009e 1100     		movs	r1, r2
 937 00a0 1800     		movs	r0, r3
 938 00a2 FFF7FEFF 		bl	queue_insert
 939              		.loc 5 281 0
 940 00a6 6B46     		mov	r3, sp
 941 00a8 0233     		adds	r3, r3, #2
 942 00aa 1B88     		ldrh	r3, [r3]
 943 00ac 1900     		movs	r1, r3
 944 00ae 0520     		movs	r0, #5
 945 00b0 FFF7FEFF 		bl	chSchGoSleepTimeoutS
 946 00b4 0300     		movs	r3, r0
 947 00b6 00E0     		b	.L56
 948              	.L54:
 949              		.loc 5 284 0
 950 00b8 0023     		movs	r3, #0
 951              	.L56:
 952              		.loc 5 285 0
 953 00ba 1800     		movs	r0, r3
 954 00bc 03B0     		add	sp, sp, #12
 955              		@ sp needed
 956 00be 00BD     		pop	{pc}
 957              	.L59:
 958              		.align	2
 959              	.L58:
 960 00c0 00000000 		.word	__func__.5728
 961 00c4 00000000 		.word	ch
 962              		.cfi_endproc
 963              	.LFE158:
 964              		.size	chSemWaitTimeoutS, .-chSemWaitTimeoutS
 965              		.section	.text.chSemSignal,"ax",%progbits
 966              		.align	1
 967              		.p2align 4,,15
 968              		.global	chSemSignal
 969              		.syntax unified
ARM GAS  /tmp/ccR802FU.s 			page 18


 970              		.code	16
 971              		.thumb_func
 972              		.fpu softvfp
 973              		.type	chSemSignal, %function
 974              	chSemSignal:
 975              	.LFB159:
 976              		.loc 5 294 0
 977              		.cfi_startproc
 978              		@ args = 0, pretend = 0, frame = 8
 979              		@ frame_needed = 0, uses_anonymous_args = 0
 980 0000 00B5     		push	{lr}
 981              		.cfi_def_cfa_offset 4
 982              		.cfi_offset 14, -4
 983 0002 83B0     		sub	sp, sp, #12
 984              		.cfi_def_cfa_offset 16
 985 0004 0190     		str	r0, [sp, #4]
 986              		.loc 5 296 0
 987 0006 019B     		ldr	r3, [sp, #4]
 988 0008 002B     		cmp	r3, #0
 989 000a 03D1     		bne	.L66
 990              		.loc 5 296 0 is_stmt 0 discriminator 2
 991 000c 1F4B     		ldr	r3, .L67
 992 000e 1800     		movs	r0, r3
 993 0010 FFF7FEFF 		bl	chSysHalt
 994              	.L66:
 995              		.loc 5 297 0 is_stmt 1 discriminator 1
 996 0014 019B     		ldr	r3, [sp, #4]
 997 0016 9B68     		ldr	r3, [r3, #8]
 998 0018 002B     		cmp	r3, #0
 999 001a 0ADB     		blt	.L62
 1000              		.loc 5 297 0 is_stmt 0 discriminator 3
 1001 001c 019B     		ldr	r3, [sp, #4]
 1002 001e 1800     		movs	r0, r3
 1003 0020 FFF7FEFF 		bl	queue_isempty
 1004 0024 0300     		movs	r3, r0
 1005 0026 1A00     		movs	r2, r3
 1006 0028 0123     		movs	r3, #1
 1007 002a 5340     		eors	r3, r2
 1008 002c DBB2     		uxtb	r3, r3
 1009 002e 002B     		cmp	r3, #0
 1010 0030 12D0     		beq	.L63
 1011              	.L62:
 1012              		.loc 5 297 0 discriminator 4
 1013 0032 019B     		ldr	r3, [sp, #4]
 1014 0034 9B68     		ldr	r3, [r3, #8]
 1015 0036 002B     		cmp	r3, #0
 1016 0038 0ADA     		bge	.L64
 1017              		.loc 5 297 0 discriminator 6
 1018 003a 019B     		ldr	r3, [sp, #4]
 1019 003c 1800     		movs	r0, r3
 1020 003e FFF7FEFF 		bl	queue_notempty
 1021 0042 0300     		movs	r3, r0
 1022 0044 1A00     		movs	r2, r3
 1023 0046 0123     		movs	r3, #1
 1024 0048 5340     		eors	r3, r2
 1025 004a DBB2     		uxtb	r3, r3
 1026 004c 002B     		cmp	r3, #0
ARM GAS  /tmp/ccR802FU.s 			page 19


 1027 004e 03D0     		beq	.L63
 1028              	.L64:
 1029              		.loc 5 297 0 discriminator 7
 1030 0050 0E4B     		ldr	r3, .L67
 1031 0052 1800     		movs	r0, r3
 1032 0054 FFF7FEFF 		bl	chSysHalt
 1033              	.L63:
 1034              		.loc 5 301 0 is_stmt 1
 1035 0058 FFF7FEFF 		bl	chSysLock
 1036              		.loc 5 302 0
 1037 005c 019B     		ldr	r3, [sp, #4]
 1038 005e 9B68     		ldr	r3, [r3, #8]
 1039 0060 5A1C     		adds	r2, r3, #1
 1040 0062 019B     		ldr	r3, [sp, #4]
 1041 0064 9A60     		str	r2, [r3, #8]
 1042 0066 019B     		ldr	r3, [sp, #4]
 1043 0068 9B68     		ldr	r3, [r3, #8]
 1044 006a 002B     		cmp	r3, #0
 1045 006c 08DC     		bgt	.L65
 1046              		.loc 5 303 0
 1047 006e 019B     		ldr	r3, [sp, #4]
 1048 0070 1800     		movs	r0, r3
 1049 0072 FFF7FEFF 		bl	queue_fifo_remove
 1050 0076 0300     		movs	r3, r0
 1051 0078 0021     		movs	r1, #0
 1052 007a 1800     		movs	r0, r3
 1053 007c FFF7FEFF 		bl	chSchWakeupS
 1054              	.L65:
 1055              		.loc 5 305 0
 1056 0080 FFF7FEFF 		bl	chSysUnlock
 1057              		.loc 5 306 0
 1058 0084 C046     		nop
 1059 0086 03B0     		add	sp, sp, #12
 1060              		@ sp needed
 1061 0088 00BD     		pop	{pc}
 1062              	.L68:
 1063 008a C046     		.align	2
 1064              	.L67:
 1065 008c 00000000 		.word	__func__.5732
 1066              		.cfi_endproc
 1067              	.LFE159:
 1068              		.size	chSemSignal, .-chSemSignal
 1069              		.section	.text.chSemSignalI,"ax",%progbits
 1070              		.align	1
 1071              		.p2align 4,,15
 1072              		.global	chSemSignalI
 1073              		.syntax unified
 1074              		.code	16
 1075              		.thumb_func
 1076              		.fpu softvfp
 1077              		.type	chSemSignalI, %function
 1078              	chSemSignalI:
 1079              	.LFB160:
 1080              		.loc 5 319 0
 1081              		.cfi_startproc
 1082              		@ args = 0, pretend = 0, frame = 16
 1083              		@ frame_needed = 0, uses_anonymous_args = 0
ARM GAS  /tmp/ccR802FU.s 			page 20


 1084 0000 00B5     		push	{lr}
 1085              		.cfi_def_cfa_offset 4
 1086              		.cfi_offset 14, -4
 1087 0002 85B0     		sub	sp, sp, #20
 1088              		.cfi_def_cfa_offset 24
 1089 0004 0190     		str	r0, [sp, #4]
 1090              		.loc 5 321 0
 1091 0006 FFF7FEFF 		bl	chDbgCheckClassI
 1092              		.loc 5 322 0
 1093 000a 019B     		ldr	r3, [sp, #4]
 1094 000c 002B     		cmp	r3, #0
 1095 000e 03D1     		bne	.L75
 1096              		.loc 5 322 0 is_stmt 0 discriminator 2
 1097 0010 1F4B     		ldr	r3, .L77
 1098 0012 1800     		movs	r0, r3
 1099 0014 FFF7FEFF 		bl	chSysHalt
 1100              	.L75:
 1101              		.loc 5 323 0 is_stmt 1 discriminator 1
 1102 0018 019B     		ldr	r3, [sp, #4]
 1103 001a 9B68     		ldr	r3, [r3, #8]
 1104 001c 002B     		cmp	r3, #0
 1105 001e 0ADB     		blt	.L71
 1106              		.loc 5 323 0 is_stmt 0 discriminator 3
 1107 0020 019B     		ldr	r3, [sp, #4]
 1108 0022 1800     		movs	r0, r3
 1109 0024 FFF7FEFF 		bl	queue_isempty
 1110 0028 0300     		movs	r3, r0
 1111 002a 1A00     		movs	r2, r3
 1112 002c 0123     		movs	r3, #1
 1113 002e 5340     		eors	r3, r2
 1114 0030 DBB2     		uxtb	r3, r3
 1115 0032 002B     		cmp	r3, #0
 1116 0034 12D0     		beq	.L72
 1117              	.L71:
 1118              		.loc 5 323 0 discriminator 4
 1119 0036 019B     		ldr	r3, [sp, #4]
 1120 0038 9B68     		ldr	r3, [r3, #8]
 1121 003a 002B     		cmp	r3, #0
 1122 003c 0ADA     		bge	.L73
 1123              		.loc 5 323 0 discriminator 6
 1124 003e 019B     		ldr	r3, [sp, #4]
 1125 0040 1800     		movs	r0, r3
 1126 0042 FFF7FEFF 		bl	queue_notempty
 1127 0046 0300     		movs	r3, r0
 1128 0048 1A00     		movs	r2, r3
 1129 004a 0123     		movs	r3, #1
 1130 004c 5340     		eors	r3, r2
 1131 004e DBB2     		uxtb	r3, r3
 1132 0050 002B     		cmp	r3, #0
 1133 0052 03D0     		beq	.L72
 1134              	.L73:
 1135              		.loc 5 323 0 discriminator 7
 1136 0054 0E4B     		ldr	r3, .L77
 1137 0056 1800     		movs	r0, r3
 1138 0058 FFF7FEFF 		bl	chSysHalt
 1139              	.L72:
 1140              		.loc 5 327 0 is_stmt 1
ARM GAS  /tmp/ccR802FU.s 			page 21


 1141 005c 019B     		ldr	r3, [sp, #4]
 1142 005e 9B68     		ldr	r3, [r3, #8]
 1143 0060 5A1C     		adds	r2, r3, #1
 1144 0062 019B     		ldr	r3, [sp, #4]
 1145 0064 9A60     		str	r2, [r3, #8]
 1146 0066 019B     		ldr	r3, [sp, #4]
 1147 0068 9B68     		ldr	r3, [r3, #8]
 1148 006a 002B     		cmp	r3, #0
 1149 006c 0CDC     		bgt	.L76
 1150              	.LBB10:
 1151              		.loc 5 330 0
 1152 006e 019B     		ldr	r3, [sp, #4]
 1153 0070 1800     		movs	r0, r3
 1154 0072 FFF7FEFF 		bl	queue_fifo_remove
 1155 0076 0300     		movs	r3, r0
 1156 0078 0393     		str	r3, [sp, #12]
 1157              		.loc 5 331 0
 1158 007a 039B     		ldr	r3, [sp, #12]
 1159 007c 0022     		movs	r2, #0
 1160 007e 5A62     		str	r2, [r3, #36]
 1161              		.loc 5 332 0
 1162 0080 039B     		ldr	r3, [sp, #12]
 1163 0082 1800     		movs	r0, r3
 1164 0084 FFF7FEFF 		bl	chSchReadyI
 1165              	.L76:
 1166              	.LBE10:
 1167              		.loc 5 334 0
 1168 0088 C046     		nop
 1169 008a 05B0     		add	sp, sp, #20
 1170              		@ sp needed
 1171 008c 00BD     		pop	{pc}
 1172              	.L78:
 1173 008e C046     		.align	2
 1174              	.L77:
 1175 0090 00000000 		.word	__func__.5736
 1176              		.cfi_endproc
 1177              	.LFE160:
 1178              		.size	chSemSignalI, .-chSemSignalI
 1179              		.section	.text.chSemAddCounterI,"ax",%progbits
 1180              		.align	1
 1181              		.p2align 4,,15
 1182              		.global	chSemAddCounterI
 1183              		.syntax unified
 1184              		.code	16
 1185              		.thumb_func
 1186              		.fpu softvfp
 1187              		.type	chSemAddCounterI, %function
 1188              	chSemAddCounterI:
 1189              	.LFB161:
 1190              		.loc 5 349 0
 1191              		.cfi_startproc
 1192              		@ args = 0, pretend = 0, frame = 8
 1193              		@ frame_needed = 0, uses_anonymous_args = 0
 1194 0000 00B5     		push	{lr}
 1195              		.cfi_def_cfa_offset 4
 1196              		.cfi_offset 14, -4
 1197 0002 83B0     		sub	sp, sp, #12
ARM GAS  /tmp/ccR802FU.s 			page 22


 1198              		.cfi_def_cfa_offset 16
 1199 0004 0190     		str	r0, [sp, #4]
 1200 0006 0091     		str	r1, [sp]
 1201              		.loc 5 351 0
 1202 0008 FFF7FEFF 		bl	chDbgCheckClassI
 1203              		.loc 5 352 0
 1204 000c 019B     		ldr	r3, [sp, #4]
 1205 000e 002B     		cmp	r3, #0
 1206 0010 02D0     		beq	.L80
 1207              		.loc 5 352 0 is_stmt 0 discriminator 3
 1208 0012 009B     		ldr	r3, [sp]
 1209 0014 002B     		cmp	r3, #0
 1210 0016 03DC     		bgt	.L88
 1211              	.L80:
 1212              		.loc 5 352 0 discriminator 4
 1213 0018 214B     		ldr	r3, .L89
 1214 001a 1800     		movs	r0, r3
 1215 001c FFF7FEFF 		bl	chSysHalt
 1216              	.L88:
 1217              		.loc 5 353 0 is_stmt 1 discriminator 1
 1218 0020 019B     		ldr	r3, [sp, #4]
 1219 0022 9B68     		ldr	r3, [r3, #8]
 1220 0024 002B     		cmp	r3, #0
 1221 0026 0ADB     		blt	.L82
 1222              		.loc 5 353 0 is_stmt 0 discriminator 3
 1223 0028 019B     		ldr	r3, [sp, #4]
 1224 002a 1800     		movs	r0, r3
 1225 002c FFF7FEFF 		bl	queue_isempty
 1226 0030 0300     		movs	r3, r0
 1227 0032 1A00     		movs	r2, r3
 1228 0034 0123     		movs	r3, #1
 1229 0036 5340     		eors	r3, r2
 1230 0038 DBB2     		uxtb	r3, r3
 1231 003a 002B     		cmp	r3, #0
 1232 003c 2AD0     		beq	.L85
 1233              	.L82:
 1234              		.loc 5 353 0 discriminator 4
 1235 003e 019B     		ldr	r3, [sp, #4]
 1236 0040 9B68     		ldr	r3, [r3, #8]
 1237 0042 002B     		cmp	r3, #0
 1238 0044 0ADA     		bge	.L84
 1239              		.loc 5 353 0 discriminator 6
 1240 0046 019B     		ldr	r3, [sp, #4]
 1241 0048 1800     		movs	r0, r3
 1242 004a FFF7FEFF 		bl	queue_notempty
 1243 004e 0300     		movs	r3, r0
 1244 0050 1A00     		movs	r2, r3
 1245 0052 0123     		movs	r3, #1
 1246 0054 5340     		eors	r3, r2
 1247 0056 DBB2     		uxtb	r3, r3
 1248 0058 002B     		cmp	r3, #0
 1249 005a 1BD0     		beq	.L85
 1250              	.L84:
 1251              		.loc 5 353 0 discriminator 7
 1252 005c 104B     		ldr	r3, .L89
 1253 005e 1800     		movs	r0, r3
 1254 0060 FFF7FEFF 		bl	chSysHalt
ARM GAS  /tmp/ccR802FU.s 			page 23


 1255              		.loc 5 357 0 is_stmt 1 discriminator 7
 1256 0064 16E0     		b	.L85
 1257              	.L87:
 1258              		.loc 5 358 0
 1259 0066 019B     		ldr	r3, [sp, #4]
 1260 0068 9B68     		ldr	r3, [r3, #8]
 1261 006a 5A1C     		adds	r2, r3, #1
 1262 006c 019B     		ldr	r3, [sp, #4]
 1263 006e 9A60     		str	r2, [r3, #8]
 1264 0070 019B     		ldr	r3, [sp, #4]
 1265 0072 9B68     		ldr	r3, [r3, #8]
 1266 0074 002B     		cmp	r3, #0
 1267 0076 0ADC     		bgt	.L86
 1268              		.loc 5 359 0
 1269 0078 019B     		ldr	r3, [sp, #4]
 1270 007a 1800     		movs	r0, r3
 1271 007c FFF7FEFF 		bl	queue_fifo_remove
 1272 0080 0300     		movs	r3, r0
 1273 0082 1800     		movs	r0, r3
 1274 0084 FFF7FEFF 		bl	chSchReadyI
 1275 0088 0300     		movs	r3, r0
 1276 008a 0022     		movs	r2, #0
 1277 008c 5A62     		str	r2, [r3, #36]
 1278              	.L86:
 1279              		.loc 5 361 0
 1280 008e 009B     		ldr	r3, [sp]
 1281 0090 013B     		subs	r3, r3, #1
 1282 0092 0093     		str	r3, [sp]
 1283              	.L85:
 1284              		.loc 5 357 0
 1285 0094 009B     		ldr	r3, [sp]
 1286 0096 002B     		cmp	r3, #0
 1287 0098 E5DC     		bgt	.L87
 1288              		.loc 5 363 0
 1289 009a C046     		nop
 1290 009c 03B0     		add	sp, sp, #12
 1291              		@ sp needed
 1292 009e 00BD     		pop	{pc}
 1293              	.L90:
 1294              		.align	2
 1295              	.L89:
 1296 00a0 00000000 		.word	__func__.5742
 1297              		.cfi_endproc
 1298              	.LFE161:
 1299              		.size	chSemAddCounterI, .-chSemAddCounterI
 1300              		.section	.text.chSemSignalWait,"ax",%progbits
 1301              		.align	1
 1302              		.p2align 4,,15
 1303              		.global	chSemSignalWait
 1304              		.syntax unified
 1305              		.code	16
 1306              		.thumb_func
 1307              		.fpu softvfp
 1308              		.type	chSemSignalWait, %function
 1309              	chSemSignalWait:
 1310              	.LFB162:
 1311              		.loc 5 378 0
ARM GAS  /tmp/ccR802FU.s 			page 24


 1312              		.cfi_startproc
 1313              		@ args = 0, pretend = 0, frame = 16
 1314              		@ frame_needed = 0, uses_anonymous_args = 0
 1315 0000 00B5     		push	{lr}
 1316              		.cfi_def_cfa_offset 4
 1317              		.cfi_offset 14, -4
 1318 0002 85B0     		sub	sp, sp, #20
 1319              		.cfi_def_cfa_offset 24
 1320 0004 0190     		str	r0, [sp, #4]
 1321 0006 0091     		str	r1, [sp]
 1322              		.loc 5 381 0
 1323 0008 019B     		ldr	r3, [sp, #4]
 1324 000a 002B     		cmp	r3, #0
 1325 000c 02D0     		beq	.L92
 1326              		.loc 5 381 0 is_stmt 0 discriminator 3
 1327 000e 009B     		ldr	r3, [sp]
 1328 0010 002B     		cmp	r3, #0
 1329 0012 03D1     		bne	.L104
 1330              	.L92:
 1331              		.loc 5 381 0 discriminator 4
 1332 0014 414B     		ldr	r3, .L106
 1333 0016 1800     		movs	r0, r3
 1334 0018 FFF7FEFF 		bl	chSysHalt
 1335              	.L104:
 1336              		.loc 5 382 0 is_stmt 1 discriminator 1
 1337 001c 019B     		ldr	r3, [sp, #4]
 1338 001e 9B68     		ldr	r3, [r3, #8]
 1339 0020 002B     		cmp	r3, #0
 1340 0022 0ADB     		blt	.L94
 1341              		.loc 5 382 0 is_stmt 0 discriminator 3
 1342 0024 019B     		ldr	r3, [sp, #4]
 1343 0026 1800     		movs	r0, r3
 1344 0028 FFF7FEFF 		bl	queue_isempty
 1345 002c 0300     		movs	r3, r0
 1346 002e 1A00     		movs	r2, r3
 1347 0030 0123     		movs	r3, #1
 1348 0032 5340     		eors	r3, r2
 1349 0034 DBB2     		uxtb	r3, r3
 1350 0036 002B     		cmp	r3, #0
 1351 0038 12D0     		beq	.L105
 1352              	.L94:
 1353              		.loc 5 382 0 discriminator 4
 1354 003a 019B     		ldr	r3, [sp, #4]
 1355 003c 9B68     		ldr	r3, [r3, #8]
 1356 003e 002B     		cmp	r3, #0
 1357 0040 0ADA     		bge	.L96
 1358              		.loc 5 382 0 discriminator 6
 1359 0042 019B     		ldr	r3, [sp, #4]
 1360 0044 1800     		movs	r0, r3
 1361 0046 FFF7FEFF 		bl	queue_notempty
 1362 004a 0300     		movs	r3, r0
 1363 004c 1A00     		movs	r2, r3
 1364 004e 0123     		movs	r3, #1
 1365 0050 5340     		eors	r3, r2
 1366 0052 DBB2     		uxtb	r3, r3
 1367 0054 002B     		cmp	r3, #0
 1368 0056 03D0     		beq	.L105
ARM GAS  /tmp/ccR802FU.s 			page 25


 1369              	.L96:
 1370              		.loc 5 382 0 discriminator 7
 1371 0058 304B     		ldr	r3, .L106
 1372 005a 1800     		movs	r0, r3
 1373 005c FFF7FEFF 		bl	chSysHalt
 1374              	.L105:
 1375              		.loc 5 385 0 is_stmt 1 discriminator 1
 1376 0060 009B     		ldr	r3, [sp]
 1377 0062 9B68     		ldr	r3, [r3, #8]
 1378 0064 002B     		cmp	r3, #0
 1379 0066 0ADB     		blt	.L97
 1380              		.loc 5 385 0 is_stmt 0 discriminator 3
 1381 0068 009B     		ldr	r3, [sp]
 1382 006a 1800     		movs	r0, r3
 1383 006c FFF7FEFF 		bl	queue_isempty
 1384 0070 0300     		movs	r3, r0
 1385 0072 1A00     		movs	r2, r3
 1386 0074 0123     		movs	r3, #1
 1387 0076 5340     		eors	r3, r2
 1388 0078 DBB2     		uxtb	r3, r3
 1389 007a 002B     		cmp	r3, #0
 1390 007c 12D0     		beq	.L98
 1391              	.L97:
 1392              		.loc 5 385 0 discriminator 4
 1393 007e 009B     		ldr	r3, [sp]
 1394 0080 9B68     		ldr	r3, [r3, #8]
 1395 0082 002B     		cmp	r3, #0
 1396 0084 0ADA     		bge	.L99
 1397              		.loc 5 385 0 discriminator 6
 1398 0086 009B     		ldr	r3, [sp]
 1399 0088 1800     		movs	r0, r3
 1400 008a FFF7FEFF 		bl	queue_notempty
 1401 008e 0300     		movs	r3, r0
 1402 0090 1A00     		movs	r2, r3
 1403 0092 0123     		movs	r3, #1
 1404 0094 5340     		eors	r3, r2
 1405 0096 DBB2     		uxtb	r3, r3
 1406 0098 002B     		cmp	r3, #0
 1407 009a 03D0     		beq	.L98
 1408              	.L99:
 1409              		.loc 5 385 0 discriminator 7
 1410 009c 1F4B     		ldr	r3, .L106
 1411 009e 1800     		movs	r0, r3
 1412 00a0 FFF7FEFF 		bl	chSysHalt
 1413              	.L98:
 1414              		.loc 5 389 0 is_stmt 1
 1415 00a4 FFF7FEFF 		bl	chSysLock
 1416              		.loc 5 390 0
 1417 00a8 019B     		ldr	r3, [sp, #4]
 1418 00aa 9B68     		ldr	r3, [r3, #8]
 1419 00ac 5A1C     		adds	r2, r3, #1
 1420 00ae 019B     		ldr	r3, [sp, #4]
 1421 00b0 9A60     		str	r2, [r3, #8]
 1422 00b2 019B     		ldr	r3, [sp, #4]
 1423 00b4 9B68     		ldr	r3, [r3, #8]
 1424 00b6 002B     		cmp	r3, #0
 1425 00b8 0ADC     		bgt	.L100
ARM GAS  /tmp/ccR802FU.s 			page 26


 1426              		.loc 5 391 0
 1427 00ba 019B     		ldr	r3, [sp, #4]
 1428 00bc 1800     		movs	r0, r3
 1429 00be FFF7FEFF 		bl	queue_fifo_remove
 1430 00c2 0300     		movs	r3, r0
 1431 00c4 1800     		movs	r0, r3
 1432 00c6 FFF7FEFF 		bl	chSchReadyI
 1433 00ca 0300     		movs	r3, r0
 1434 00cc 0022     		movs	r2, #0
 1435 00ce 5A62     		str	r2, [r3, #36]
 1436              	.L100:
 1437              		.loc 5 393 0
 1438 00d0 009B     		ldr	r3, [sp]
 1439 00d2 9B68     		ldr	r3, [r3, #8]
 1440 00d4 5A1E     		subs	r2, r3, #1
 1441 00d6 009B     		ldr	r3, [sp]
 1442 00d8 9A60     		str	r2, [r3, #8]
 1443 00da 009B     		ldr	r3, [sp]
 1444 00dc 9B68     		ldr	r3, [r3, #8]
 1445 00de 002B     		cmp	r3, #0
 1446 00e0 12DA     		bge	.L101
 1447              	.LBB11:
 1448              		.loc 5 394 0
 1449 00e2 0F4B     		ldr	r3, .L106+4
 1450 00e4 9B69     		ldr	r3, [r3, #24]
 1451 00e6 0293     		str	r3, [sp, #8]
 1452              		.loc 5 395 0
 1453 00e8 009A     		ldr	r2, [sp]
 1454 00ea 029B     		ldr	r3, [sp, #8]
 1455 00ec 1100     		movs	r1, r2
 1456 00ee 1800     		movs	r0, r3
 1457 00f0 FFF7FEFF 		bl	queue_insert
 1458              		.loc 5 396 0
 1459 00f4 029B     		ldr	r3, [sp, #8]
 1460 00f6 009A     		ldr	r2, [sp]
 1461 00f8 5A62     		str	r2, [r3, #36]
 1462              		.loc 5 397 0
 1463 00fa 0520     		movs	r0, #5
 1464 00fc FFF7FEFF 		bl	chSchGoSleepS
 1465              		.loc 5 398 0
 1466 0100 029B     		ldr	r3, [sp, #8]
 1467 0102 5B6A     		ldr	r3, [r3, #36]
 1468 0104 0393     		str	r3, [sp, #12]
 1469              	.LBE11:
 1470 0106 03E0     		b	.L102
 1471              	.L101:
 1472              		.loc 5 401 0
 1473 0108 FFF7FEFF 		bl	chSchRescheduleS
 1474              		.loc 5 402 0
 1475 010c 0023     		movs	r3, #0
 1476 010e 0393     		str	r3, [sp, #12]
 1477              	.L102:
 1478              		.loc 5 404 0
 1479 0110 FFF7FEFF 		bl	chSysUnlock
 1480              		.loc 5 406 0
 1481 0114 039B     		ldr	r3, [sp, #12]
 1482              		.loc 5 407 0
ARM GAS  /tmp/ccR802FU.s 			page 27


 1483 0116 1800     		movs	r0, r3
 1484 0118 05B0     		add	sp, sp, #20
 1485              		@ sp needed
 1486 011a 00BD     		pop	{pc}
 1487              	.L107:
 1488              		.align	2
 1489              	.L106:
 1490 011c 00000000 		.word	__func__.5751
 1491 0120 00000000 		.word	ch
 1492              		.cfi_endproc
 1493              	.LFE162:
 1494              		.size	chSemSignalWait, .-chSemSignalWait
 1495              		.section	.rodata.__func__.5697,"a",%progbits
 1496              		.align	2
 1497              		.type	__func__.5697, %object
 1498              		.size	__func__.5697, 16
 1499              	__func__.5697:
 1500 0000 63685365 		.ascii	"chSemObjectInit\000"
 1500      6D4F626A 
 1500      65637449 
 1500      6E697400 
 1501              		.section	.rodata.__func__.4993,"a",%progbits
 1502              		.align	2
 1503              		.type	__func__.4993, %object
 1504              		.size	__func__.4993, 12
 1505              	__func__.4993:
 1506 0000 63685379 		.ascii	"chSysUnlock\000"
 1506      73556E6C 
 1506      6F636B00 
 1507              		.section	.rodata.__func__.5707,"a",%progbits
 1508              		.align	2
 1509              		.type	__func__.5707, %object
 1510              		.size	__func__.5707, 12
 1511              	__func__.5707:
 1512 0000 63685365 		.ascii	"chSemResetI\000"
 1512      6D526573 
 1512      65744900 
 1513              		.section	.rodata.__func__.5718,"a",%progbits
 1514              		.align	2
 1515              		.type	__func__.5718, %object
 1516              		.size	__func__.5718, 11
 1517              	__func__.5718:
 1518 0000 63685365 		.ascii	"chSemWaitS\000"
 1518      6D576169 
 1518      745300
 1519              		.section	.rodata.__func__.5728,"a",%progbits
 1520              		.align	2
 1521              		.type	__func__.5728, %object
 1522              		.size	__func__.5728, 18
 1523              	__func__.5728:
 1524 0000 63685365 		.ascii	"chSemWaitTimeoutS\000"
 1524      6D576169 
 1524      7454696D 
 1524      656F7574 
 1524      5300
 1525              		.section	.rodata.__func__.5732,"a",%progbits
 1526              		.align	2
ARM GAS  /tmp/ccR802FU.s 			page 28


 1527              		.type	__func__.5732, %object
 1528              		.size	__func__.5732, 12
 1529              	__func__.5732:
 1530 0000 63685365 		.ascii	"chSemSignal\000"
 1530      6D536967 
 1530      6E616C00 
 1531              		.section	.rodata.__func__.5736,"a",%progbits
 1532              		.align	2
 1533              		.type	__func__.5736, %object
 1534              		.size	__func__.5736, 13
 1535              	__func__.5736:
 1536 0000 63685365 		.ascii	"chSemSignalI\000"
 1536      6D536967 
 1536      6E616C49 
 1536      00
 1537              		.section	.rodata.__func__.5742,"a",%progbits
 1538              		.align	2
 1539              		.type	__func__.5742, %object
 1540              		.size	__func__.5742, 17
 1541              	__func__.5742:
 1542 0000 63685365 		.ascii	"chSemAddCounterI\000"
 1542      6D416464 
 1542      436F756E 
 1542      74657249 
 1542      00
 1543              		.section	.rodata.__func__.5751,"a",%progbits
 1544              		.align	2
 1545              		.type	__func__.5751, %object
 1546              		.size	__func__.5751, 16
 1547              	__func__.5751:
 1548 0000 63685365 		.ascii	"chSemSignalWait\000"
 1548      6D536967 
 1548      6E616C57 
 1548      61697400 
 1549              		.text
 1550              	.Letext0:
 1551              		.file 6 "/home/felix/opt/gcc-arm-none-eabi-6-2017-q1-update/arm-none-eabi/include/machine/_default
 1552              		.file 7 "/home/felix/opt/gcc-arm-none-eabi-6-2017-q1-update/arm-none-eabi/include/sys/_stdint.h"
 1553              		.file 8 "ChibiOS/os/rt/ports/ARMCMx/compilers/GCC/chtypes.h"
 1554              		.file 9 "ChibiOS/os/rt/include/chsystypes.h"
 1555              		.file 10 "ChibiOS/os/rt/ports/ARMCMx/chcore.h"
 1556              		.file 11 "ChibiOS/os/rt/include/chdebug.h"
 1557              		.file 12 "ChibiOS/os/rt/include/chsem.h"
 1558              		.file 13 "ChibiOS/os/rt/include/chmtx.h"
 1559              		.file 14 "ChibiOS/os/rt/include/chregistry.h"
 1560              		.file 15 "ChibiOS/os/ext/CMSIS/ST/STM32F0xx/system_stm32f0xx.h"