ARM GAS  /tmp/ccaGRx52.s 			page 1


   1              		.cpu cortex-m0
   2              		.eabi_attribute 20, 1
   3              		.eabi_attribute 21, 1
   4              		.eabi_attribute 23, 3
   5              		.eabi_attribute 24, 1
   6              		.eabi_attribute 25, 1
   7              		.eabi_attribute 26, 1
   8              		.eabi_attribute 30, 6
   9              		.eabi_attribute 34, 0
  10              		.eabi_attribute 18, 4
  11              		.file	"chsys.c"
  12              		.text
  13              	.Ltext0:
  14              		.cfi_sections	.debug_frame
  15              		.section	.text.NVIC_SetPriority,"ax",%progbits
  16              		.align	1
  17              		.p2align 4,,15
  18              		.syntax unified
  19              		.code	16
  20              		.thumb_func
  21              		.fpu softvfp
  22              		.type	NVIC_SetPriority, %function
  23              	NVIC_SetPriority:
  24              	.LFB30:
  25              		.file 1 "ChibiOS/os/ext/CMSIS/include/core_cm0.h"
  26              		.loc 1 637 0
  27              		.cfi_startproc
  28              		@ args = 0, pretend = 0, frame = 8
  29              		@ frame_needed = 0, uses_anonymous_args = 0
  30 0000 30B5     		push	{r4, r5, lr}
  31              		.cfi_def_cfa_offset 12
  32              		.cfi_offset 4, -12
  33              		.cfi_offset 5, -8
  34              		.cfi_offset 14, -4
  35 0002 83B0     		sub	sp, sp, #12
  36              		.cfi_def_cfa_offset 24
  37 0004 0200     		movs	r2, r0
  38 0006 0091     		str	r1, [sp]
  39 0008 6B46     		mov	r3, sp
  40 000a 0733     		adds	r3, r3, #7
  41 000c 1A70     		strb	r2, [r3]
  42              		.loc 1 638 0
  43 000e 6B46     		mov	r3, sp
  44 0010 0733     		adds	r3, r3, #7
  45 0012 1B78     		ldrb	r3, [r3]
  46 0014 7F2B     		cmp	r3, #127
  47 0016 36D9     		bls	.L2
  48              		.loc 1 639 0
  49 0018 324C     		ldr	r4, .L5
  50 001a 6B46     		mov	r3, sp
  51 001c 0733     		adds	r3, r3, #7
  52 001e 1B78     		ldrb	r3, [r3]
  53 0020 1A00     		movs	r2, r3
  54 0022 0F23     		movs	r3, #15
  55 0024 1340     		ands	r3, r2
  56 0026 083B     		subs	r3, r3, #8
  57 0028 9908     		lsrs	r1, r3, #2
ARM GAS  /tmp/ccaGRx52.s 			page 2


  58 002a 2E4A     		ldr	r2, .L5
  59 002c 6B46     		mov	r3, sp
  60 002e 0733     		adds	r3, r3, #7
  61 0030 1B78     		ldrb	r3, [r3]
  62 0032 1800     		movs	r0, r3
  63 0034 0F23     		movs	r3, #15
  64 0036 0340     		ands	r3, r0
  65 0038 083B     		subs	r3, r3, #8
  66 003a 9B08     		lsrs	r3, r3, #2
  67 003c 0633     		adds	r3, r3, #6
  68 003e 9B00     		lsls	r3, r3, #2
  69 0040 D318     		adds	r3, r2, r3
  70 0042 0433     		adds	r3, r3, #4
  71 0044 1B68     		ldr	r3, [r3]
  72 0046 6A46     		mov	r2, sp
  73 0048 0732     		adds	r2, r2, #7
  74 004a 1278     		ldrb	r2, [r2]
  75 004c 1000     		movs	r0, r2
  76 004e 0322     		movs	r2, #3
  77 0050 0240     		ands	r2, r0
  78 0052 D200     		lsls	r2, r2, #3
  79 0054 FF20     		movs	r0, #255
  80 0056 9040     		lsls	r0, r0, r2
  81 0058 0200     		movs	r2, r0
  82 005a D243     		mvns	r2, r2
  83 005c 1A40     		ands	r2, r3
  84              		.loc 1 640 0
  85 005e 009B     		ldr	r3, [sp]
  86 0060 9B01     		lsls	r3, r3, #6
  87 0062 FF20     		movs	r0, #255
  88 0064 1840     		ands	r0, r3
  89 0066 6B46     		mov	r3, sp
  90 0068 0733     		adds	r3, r3, #7
  91 006a 1B78     		ldrb	r3, [r3]
  92 006c 1D00     		movs	r5, r3
  93 006e 0323     		movs	r3, #3
  94 0070 2B40     		ands	r3, r5
  95 0072 DB00     		lsls	r3, r3, #3
  96 0074 9840     		lsls	r0, r0, r3
  97 0076 0300     		movs	r3, r0
  98              		.loc 1 639 0
  99 0078 1A43     		orrs	r2, r3
 100 007a 8B1D     		adds	r3, r1, #6
 101 007c 9B00     		lsls	r3, r3, #2
 102 007e E318     		adds	r3, r4, r3
 103 0080 0433     		adds	r3, r3, #4
 104 0082 1A60     		str	r2, [r3]
 105              		.loc 1 646 0
 106 0084 2BE0     		b	.L4
 107              	.L2:
 108              		.loc 1 643 0
 109 0086 184C     		ldr	r4, .L5+4
 110 0088 6B46     		mov	r3, sp
 111 008a 0733     		adds	r3, r3, #7
 112 008c 1B78     		ldrb	r3, [r3]
 113 008e 5BB2     		sxtb	r3, r3
 114 0090 9B08     		lsrs	r3, r3, #2
ARM GAS  /tmp/ccaGRx52.s 			page 3


 115 0092 1549     		ldr	r1, .L5+4
 116 0094 6A46     		mov	r2, sp
 117 0096 0732     		adds	r2, r2, #7
 118 0098 1278     		ldrb	r2, [r2]
 119 009a 52B2     		sxtb	r2, r2
 120 009c 9208     		lsrs	r2, r2, #2
 121 009e C032     		adds	r2, r2, #192
 122 00a0 9200     		lsls	r2, r2, #2
 123 00a2 5258     		ldr	r2, [r2, r1]
 124 00a4 6946     		mov	r1, sp
 125 00a6 0731     		adds	r1, r1, #7
 126 00a8 0978     		ldrb	r1, [r1]
 127 00aa 0800     		movs	r0, r1
 128 00ac 0321     		movs	r1, #3
 129 00ae 0140     		ands	r1, r0
 130 00b0 C900     		lsls	r1, r1, #3
 131 00b2 FF20     		movs	r0, #255
 132 00b4 8840     		lsls	r0, r0, r1
 133 00b6 0100     		movs	r1, r0
 134 00b8 C943     		mvns	r1, r1
 135 00ba 1140     		ands	r1, r2
 136              		.loc 1 644 0
 137 00bc 009A     		ldr	r2, [sp]
 138 00be 9201     		lsls	r2, r2, #6
 139 00c0 FF20     		movs	r0, #255
 140 00c2 1040     		ands	r0, r2
 141 00c4 6A46     		mov	r2, sp
 142 00c6 0732     		adds	r2, r2, #7
 143 00c8 1278     		ldrb	r2, [r2]
 144 00ca 1500     		movs	r5, r2
 145 00cc 0322     		movs	r2, #3
 146 00ce 2A40     		ands	r2, r5
 147 00d0 D200     		lsls	r2, r2, #3
 148 00d2 9040     		lsls	r0, r0, r2
 149 00d4 0200     		movs	r2, r0
 150              		.loc 1 643 0
 151 00d6 0A43     		orrs	r2, r1
 152 00d8 C033     		adds	r3, r3, #192
 153 00da 9B00     		lsls	r3, r3, #2
 154 00dc 1A51     		str	r2, [r3, r4]
 155              	.L4:
 156              		.loc 1 646 0
 157 00de C046     		nop
 158 00e0 03B0     		add	sp, sp, #12
 159              		@ sp needed
 160 00e2 30BD     		pop	{r4, r5, pc}
 161              	.L6:
 162              		.align	2
 163              	.L5:
 164 00e4 00ED00E0 		.word	-536810240
 165 00e8 00E100E0 		.word	-536813312
 166              		.cfi_endproc
 167              	.LFE30:
 168              		.size	NVIC_SetPriority, .-NVIC_SetPriority
 169              		.section	.text.port_init,"ax",%progbits
 170              		.align	1
 171              		.p2align 4,,15
ARM GAS  /tmp/ccaGRx52.s 			page 4


 172              		.syntax unified
 173              		.code	16
 174              		.thumb_func
 175              		.fpu softvfp
 176              		.type	port_init, %function
 177              	port_init:
 178              	.LFB34:
 179              		.file 2 "ChibiOS/os/rt/ports/ARMCMx/chcore_v6m.h"
 180              		.loc 2 285 0
 181              		.cfi_startproc
 182              		@ args = 0, pretend = 0, frame = 0
 183              		@ frame_needed = 0, uses_anonymous_args = 0
 184 0000 10B5     		push	{r4, lr}
 185              		.cfi_def_cfa_offset 8
 186              		.cfi_offset 4, -8
 187              		.cfi_offset 14, -4
 188              		.loc 2 287 0
 189 0002 0223     		movs	r3, #2
 190 0004 5B42     		rsbs	r3, r3, #0
 191 0006 0021     		movs	r1, #0
 192 0008 1800     		movs	r0, r3
 193 000a FFF7FEFF 		bl	NVIC_SetPriority
 194              		.loc 2 288 0
 195 000e C046     		nop
 196              		@ sp needed
 197 0010 10BD     		pop	{r4, pc}
 198              		.cfi_endproc
 199              	.LFE34:
 200              		.size	port_init, .-port_init
 201 0012 C046     		.section	.text.port_get_irq_status,"ax",%progbits
 202              		.align	1
 203              		.p2align 4,,15
 204              		.syntax unified
 205              		.code	16
 206              		.thumb_func
 207              		.fpu softvfp
 208              		.type	port_get_irq_status, %function
 209              	port_get_irq_status:
 210              	.LFB35:
 211              		.loc 2 295 0
 212              		.cfi_startproc
 213              		@ args = 0, pretend = 0, frame = 8
 214              		@ frame_needed = 0, uses_anonymous_args = 0
 215              		@ link register save eliminated.
 216 0000 82B0     		sub	sp, sp, #8
 217              		.cfi_def_cfa_offset 8
 218              	.LBB14:
 219              	.LBB15:
 220              		.file 3 "ChibiOS/os/ext/CMSIS/include/core_cmFunc.h"
 221              		.loc 3 484 0
 222              		.syntax divided
 223              	@ 484 "ChibiOS/os/ext/CMSIS/include/core_cmFunc.h" 1
 224 0002 EFF31083 		MRS r3, primask
 225              	@ 0 "" 2
 226              		.thumb
 227              		.syntax unified
 228 0006 0193     		str	r3, [sp, #4]
ARM GAS  /tmp/ccaGRx52.s 			page 5


 229              		.loc 3 485 0
 230 0008 019B     		ldr	r3, [sp, #4]
 231              	.LBE15:
 232              	.LBE14:
 233              		.loc 2 297 0
 234 000a C046     		nop
 235              		.loc 2 298 0
 236 000c 1800     		movs	r0, r3
 237 000e 02B0     		add	sp, sp, #8
 238              		@ sp needed
 239 0010 7047     		bx	lr
 240              		.cfi_endproc
 241              	.LFE35:
 242              		.size	port_get_irq_status, .-port_get_irq_status
 243 0012 C046     		.section	.text.port_irq_enabled,"ax",%progbits
 244              		.align	1
 245              		.p2align 4,,15
 246              		.syntax unified
 247              		.code	16
 248              		.thumb_func
 249              		.fpu softvfp
 250              		.type	port_irq_enabled, %function
 251              	port_irq_enabled:
 252              	.LFB36:
 253              		.loc 2 309 0
 254              		.cfi_startproc
 255              		@ args = 0, pretend = 0, frame = 8
 256              		@ frame_needed = 0, uses_anonymous_args = 0
 257              		@ link register save eliminated.
 258 0000 82B0     		sub	sp, sp, #8
 259              		.cfi_def_cfa_offset 8
 260 0002 0190     		str	r0, [sp, #4]
 261              		.loc 2 311 0
 262 0004 019B     		ldr	r3, [sp, #4]
 263 0006 0122     		movs	r2, #1
 264 0008 1340     		ands	r3, r2
 265 000a 5A42     		rsbs	r2, r3, #0
 266 000c 5341     		adcs	r3, r3, r2
 267 000e DBB2     		uxtb	r3, r3
 268              		.loc 2 312 0
 269 0010 1800     		movs	r0, r3
 270 0012 02B0     		add	sp, sp, #8
 271              		@ sp needed
 272 0014 7047     		bx	lr
 273              		.cfi_endproc
 274              	.LFE36:
 275              		.size	port_irq_enabled, .-port_irq_enabled
 276 0016 C046     		.section	.text.port_is_isr_context,"ax",%progbits
 277              		.align	1
 278              		.p2align 4,,15
 279              		.syntax unified
 280              		.code	16
 281              		.thumb_func
 282              		.fpu softvfp
 283              		.type	port_is_isr_context, %function
 284              	port_is_isr_context:
 285              	.LFB37:
ARM GAS  /tmp/ccaGRx52.s 			page 6


 286              		.loc 2 321 0
 287              		.cfi_startproc
 288              		@ args = 0, pretend = 0, frame = 8
 289              		@ frame_needed = 0, uses_anonymous_args = 0
 290              		@ link register save eliminated.
 291 0000 82B0     		sub	sp, sp, #8
 292              		.cfi_def_cfa_offset 8
 293              	.LBB16:
 294              	.LBB17:
 295              		.loc 3 385 0
 296              		.syntax divided
 297              	@ 385 "ChibiOS/os/ext/CMSIS/include/core_cmFunc.h" 1
 298 0002 EFF30583 		MRS r3, ipsr
 299              	@ 0 "" 2
 300              		.thumb
 301              		.syntax unified
 302 0006 0193     		str	r3, [sp, #4]
 303              		.loc 3 386 0
 304 0008 019B     		ldr	r3, [sp, #4]
 305              	.LBE17:
 306              	.LBE16:
 307              		.loc 2 323 0
 308 000a DB05     		lsls	r3, r3, #23
 309 000c DB0D     		lsrs	r3, r3, #23
 310 000e 5A1E     		subs	r2, r3, #1
 311 0010 9341     		sbcs	r3, r3, r2
 312 0012 DBB2     		uxtb	r3, r3
 313              		.loc 2 324 0
 314 0014 1800     		movs	r0, r3
 315 0016 02B0     		add	sp, sp, #8
 316              		@ sp needed
 317 0018 7047     		bx	lr
 318              		.cfi_endproc
 319              	.LFE37:
 320              		.size	port_is_isr_context, .-port_is_isr_context
 321 001a C046     		.section	.text.port_lock,"ax",%progbits
 322              		.align	1
 323              		.p2align 4,,15
 324              		.syntax unified
 325              		.code	16
 326              		.thumb_func
 327              		.fpu softvfp
 328              		.type	port_lock, %function
 329              	port_lock:
 330              	.LFB38:
 331              		.loc 2 330 0
 332              		.cfi_startproc
 333              		@ args = 0, pretend = 0, frame = 0
 334              		@ frame_needed = 0, uses_anonymous_args = 0
 335              		@ link register save eliminated.
 336              	.LBB18:
 337              	.LBB19:
 338              		.loc 3 344 0
 339              		.syntax divided
 340              	@ 344 "ChibiOS/os/ext/CMSIS/include/core_cmFunc.h" 1
 341 0000 72B6     		cpsid i
 342              	@ 0 "" 2
ARM GAS  /tmp/ccaGRx52.s 			page 7


 343              		.thumb
 344              		.syntax unified
 345              	.LBE19:
 346              	.LBE18:
 347              		.loc 2 333 0
 348 0002 C046     		nop
 349              		@ sp needed
 350 0004 7047     		bx	lr
 351              		.cfi_endproc
 352              	.LFE38:
 353              		.size	port_lock, .-port_lock
 354 0006 C046     		.section	.text.port_unlock,"ax",%progbits
 355              		.align	1
 356              		.p2align 4,,15
 357              		.syntax unified
 358              		.code	16
 359              		.thumb_func
 360              		.fpu softvfp
 361              		.type	port_unlock, %function
 362              	port_unlock:
 363              	.LFB39:
 364              		.loc 2 339 0
 365              		.cfi_startproc
 366              		@ args = 0, pretend = 0, frame = 0
 367              		@ frame_needed = 0, uses_anonymous_args = 0
 368              		@ link register save eliminated.
 369              	.LBB20:
 370              	.LBB21:
 371              		.loc 3 333 0
 372              		.syntax divided
 373              	@ 333 "ChibiOS/os/ext/CMSIS/include/core_cmFunc.h" 1
 374 0000 62B6     		cpsie i
 375              	@ 0 "" 2
 376              		.thumb
 377              		.syntax unified
 378              	.LBE21:
 379              	.LBE20:
 380              		.loc 2 342 0
 381 0002 C046     		nop
 382              		@ sp needed
 383 0004 7047     		bx	lr
 384              		.cfi_endproc
 385              	.LFE39:
 386              		.size	port_unlock, .-port_unlock
 387 0006 C046     		.section	.text.port_lock_from_isr,"ax",%progbits
 388              		.align	1
 389              		.p2align 4,,15
 390              		.syntax unified
 391              		.code	16
 392              		.thumb_func
 393              		.fpu softvfp
 394              		.type	port_lock_from_isr, %function
 395              	port_lock_from_isr:
 396              	.LFB40:
 397              		.loc 2 349 0
 398              		.cfi_startproc
 399              		@ args = 0, pretend = 0, frame = 0
ARM GAS  /tmp/ccaGRx52.s 			page 8


 400              		@ frame_needed = 0, uses_anonymous_args = 0
 401 0000 10B5     		push	{r4, lr}
 402              		.cfi_def_cfa_offset 8
 403              		.cfi_offset 4, -8
 404              		.cfi_offset 14, -4
 405              		.loc 2 351 0
 406 0002 FFF7FEFF 		bl	port_lock
 407              		.loc 2 352 0
 408 0006 C046     		nop
 409              		@ sp needed
 410 0008 10BD     		pop	{r4, pc}
 411              		.cfi_endproc
 412              	.LFE40:
 413              		.size	port_lock_from_isr, .-port_lock_from_isr
 414 000a C046     		.section	.text.port_unlock_from_isr,"ax",%progbits
 415              		.align	1
 416              		.p2align 4,,15
 417              		.syntax unified
 418              		.code	16
 419              		.thumb_func
 420              		.fpu softvfp
 421              		.type	port_unlock_from_isr, %function
 422              	port_unlock_from_isr:
 423              	.LFB41:
 424              		.loc 2 359 0
 425              		.cfi_startproc
 426              		@ args = 0, pretend = 0, frame = 0
 427              		@ frame_needed = 0, uses_anonymous_args = 0
 428 0000 10B5     		push	{r4, lr}
 429              		.cfi_def_cfa_offset 8
 430              		.cfi_offset 4, -8
 431              		.cfi_offset 14, -4
 432              		.loc 2 361 0
 433 0002 FFF7FEFF 		bl	port_unlock
 434              		.loc 2 362 0
 435 0006 C046     		nop
 436              		@ sp needed
 437 0008 10BD     		pop	{r4, pc}
 438              		.cfi_endproc
 439              	.LFE41:
 440              		.size	port_unlock_from_isr, .-port_unlock_from_isr
 441 000a C046     		.section	.text.port_disable,"ax",%progbits
 442              		.align	1
 443              		.p2align 4,,15
 444              		.syntax unified
 445              		.code	16
 446              		.thumb_func
 447              		.fpu softvfp
 448              		.type	port_disable, %function
 449              	port_disable:
 450              	.LFB42:
 451              		.loc 2 367 0
 452              		.cfi_startproc
 453              		@ args = 0, pretend = 0, frame = 0
 454              		@ frame_needed = 0, uses_anonymous_args = 0
 455              		@ link register save eliminated.
 456              	.LBB22:
ARM GAS  /tmp/ccaGRx52.s 			page 9


 457              	.LBB23:
 458              		.loc 3 344 0
 459              		.syntax divided
 460              	@ 344 "ChibiOS/os/ext/CMSIS/include/core_cmFunc.h" 1
 461 0000 72B6     		cpsid i
 462              	@ 0 "" 2
 463              		.thumb
 464              		.syntax unified
 465              	.LBE23:
 466              	.LBE22:
 467              		.loc 2 370 0
 468 0002 C046     		nop
 469              		@ sp needed
 470 0004 7047     		bx	lr
 471              		.cfi_endproc
 472              	.LFE42:
 473              		.size	port_disable, .-port_disable
 474 0006 C046     		.section	.text.port_enable,"ax",%progbits
 475              		.align	1
 476              		.p2align 4,,15
 477              		.syntax unified
 478              		.code	16
 479              		.thumb_func
 480              		.fpu softvfp
 481              		.type	port_enable, %function
 482              	port_enable:
 483              	.LFB44:
 484              		.loc 2 383 0
 485              		.cfi_startproc
 486              		@ args = 0, pretend = 0, frame = 0
 487              		@ frame_needed = 0, uses_anonymous_args = 0
 488              		@ link register save eliminated.
 489              	.LBB24:
 490              	.LBB25:
 491              		.loc 3 333 0
 492              		.syntax divided
 493              	@ 333 "ChibiOS/os/ext/CMSIS/include/core_cmFunc.h" 1
 494 0000 62B6     		cpsie i
 495              	@ 0 "" 2
 496              		.thumb
 497              		.syntax unified
 498              	.LBE25:
 499              	.LBE24:
 500              		.loc 2 386 0
 501 0002 C046     		nop
 502              		@ sp needed
 503 0004 7047     		bx	lr
 504              		.cfi_endproc
 505              	.LFE44:
 506              		.size	port_enable, .-port_enable
 507 0006 C046     		.section	.text.port_wait_for_interrupt,"ax",%progbits
 508              		.align	1
 509              		.p2align 4,,15
 510              		.syntax unified
 511              		.code	16
 512              		.thumb_func
 513              		.fpu softvfp
ARM GAS  /tmp/ccaGRx52.s 			page 10


 514              		.type	port_wait_for_interrupt, %function
 515              	port_wait_for_interrupt:
 516              	.LFB45:
 517              		.loc 2 396 0
 518              		.cfi_startproc
 519              		@ args = 0, pretend = 0, frame = 0
 520              		@ frame_needed = 0, uses_anonymous_args = 0
 521              		@ link register save eliminated.
 522              		.loc 2 401 0
 523 0000 C046     		nop
 524              		@ sp needed
 525 0002 7047     		bx	lr
 526              		.cfi_endproc
 527              	.LFE45:
 528              		.size	port_wait_for_interrupt, .-port_wait_for_interrupt
 529              		.section	.text.st_lld_get_counter,"ax",%progbits
 530              		.align	1
 531              		.p2align 4,,15
 532              		.syntax unified
 533              		.code	16
 534              		.thumb_func
 535              		.fpu softvfp
 536              		.type	st_lld_get_counter, %function
 537              	st_lld_get_counter:
 538              	.LFB46:
 539              		.file 4 "ChibiOS/os/hal/ports/STM32/LLD/TIMv1/st_lld.h"
 540              		.loc 4 139 0
 541              		.cfi_startproc
 542              		@ args = 0, pretend = 0, frame = 0
 543              		@ frame_needed = 0, uses_anonymous_args = 0
 544              		@ link register save eliminated.
 545              		.loc 4 141 0
 546 0000 024B     		ldr	r3, .L25
 547 0002 5B6A     		ldr	r3, [r3, #36]
 548 0004 9BB2     		uxth	r3, r3
 549              		.loc 4 142 0
 550 0006 1800     		movs	r0, r3
 551              		@ sp needed
 552 0008 7047     		bx	lr
 553              	.L26:
 554 000a C046     		.align	2
 555              	.L25:
 556 000c 00040040 		.word	1073742848
 557              		.cfi_endproc
 558              	.LFE46:
 559              		.size	st_lld_get_counter, .-st_lld_get_counter
 560              		.section	.text.port_timer_stop_alarm,"ax",%progbits
 561              		.align	1
 562              		.p2align 4,,15
 563              		.syntax unified
 564              		.code	16
 565              		.thumb_func
 566              		.fpu softvfp
 567              		.type	port_timer_stop_alarm, %function
 568              	port_timer_stop_alarm:
 569              	.LFB53:
 570              		.file 5 "ChibiOS/os/rt/ports/ARMCMx/chcore_timer.h"
ARM GAS  /tmp/ccaGRx52.s 			page 11


 571              		.loc 5 81 0
 572              		.cfi_startproc
 573              		@ args = 0, pretend = 0, frame = 0
 574              		@ frame_needed = 0, uses_anonymous_args = 0
 575 0000 10B5     		push	{r4, lr}
 576              		.cfi_def_cfa_offset 8
 577              		.cfi_offset 4, -8
 578              		.cfi_offset 14, -4
 579              		.loc 5 83 0
 580 0002 FFF7FEFF 		bl	stStopAlarm
 581              		.loc 5 84 0
 582 0006 C046     		nop
 583              		@ sp needed
 584 0008 10BD     		pop	{r4, pc}
 585              		.cfi_endproc
 586              	.LFE53:
 587              		.size	port_timer_stop_alarm, .-port_timer_stop_alarm
 588 000a C046     		.section	.text.port_timer_set_alarm,"ax",%progbits
 589              		.align	1
 590              		.p2align 4,,15
 591              		.syntax unified
 592              		.code	16
 593              		.thumb_func
 594              		.fpu softvfp
 595              		.type	port_timer_set_alarm, %function
 596              	port_timer_set_alarm:
 597              	.LFB54:
 598              		.loc 5 93 0
 599              		.cfi_startproc
 600              		@ args = 0, pretend = 0, frame = 8
 601              		@ frame_needed = 0, uses_anonymous_args = 0
 602 0000 00B5     		push	{lr}
 603              		.cfi_def_cfa_offset 4
 604              		.cfi_offset 14, -4
 605 0002 83B0     		sub	sp, sp, #12
 606              		.cfi_def_cfa_offset 16
 607 0004 0200     		movs	r2, r0
 608 0006 6B46     		mov	r3, sp
 609 0008 0633     		adds	r3, r3, #6
 610 000a 1A80     		strh	r2, [r3]
 611              		.loc 5 95 0
 612 000c 6B46     		mov	r3, sp
 613 000e 0633     		adds	r3, r3, #6
 614 0010 1B88     		ldrh	r3, [r3]
 615 0012 1800     		movs	r0, r3
 616 0014 FFF7FEFF 		bl	stSetAlarm
 617              		.loc 5 96 0
 618 0018 C046     		nop
 619 001a 03B0     		add	sp, sp, #12
 620              		@ sp needed
 621 001c 00BD     		pop	{pc}
 622              		.cfi_endproc
 623              	.LFE54:
 624              		.size	port_timer_set_alarm, .-port_timer_set_alarm
 625 001e C046     		.section	.text.port_timer_get_time,"ax",%progbits
 626              		.align	1
 627              		.p2align 4,,15
ARM GAS  /tmp/ccaGRx52.s 			page 12


 628              		.syntax unified
 629              		.code	16
 630              		.thumb_func
 631              		.fpu softvfp
 632              		.type	port_timer_get_time, %function
 633              	port_timer_get_time:
 634              	.LFB55:
 635              		.loc 5 105 0
 636              		.cfi_startproc
 637              		@ args = 0, pretend = 0, frame = 0
 638              		@ frame_needed = 0, uses_anonymous_args = 0
 639 0000 10B5     		push	{r4, lr}
 640              		.cfi_def_cfa_offset 8
 641              		.cfi_offset 4, -8
 642              		.cfi_offset 14, -4
 643              		.loc 5 107 0
 644 0002 FFF7FEFF 		bl	st_lld_get_counter
 645 0006 0300     		movs	r3, r0
 646              		.loc 5 108 0
 647 0008 1800     		movs	r0, r3
 648              		@ sp needed
 649 000a 10BD     		pop	{r4, pc}
 650              		.cfi_endproc
 651              	.LFE55:
 652              		.size	port_timer_get_time, .-port_timer_get_time
 653              		.section	.text.chSysEnable,"ax",%progbits
 654              		.align	1
 655              		.p2align 4,,15
 656              		.syntax unified
 657              		.code	16
 658              		.thumb_func
 659              		.fpu softvfp
 660              		.type	chSysEnable, %function
 661              	chSysEnable:
 662              	.LFB76:
 663              		.file 6 "ChibiOS/os/rt/include/chsys.h"
 664              		.loc 6 335 0
 665              		.cfi_startproc
 666              		@ args = 0, pretend = 0, frame = 0
 667              		@ frame_needed = 0, uses_anonymous_args = 0
 668 0000 10B5     		push	{r4, lr}
 669              		.cfi_def_cfa_offset 8
 670              		.cfi_offset 4, -8
 671              		.cfi_offset 14, -4
 672              		.loc 6 337 0
 673 0002 FFF7FEFF 		bl	_dbg_check_enable
 674              		.loc 6 338 0
 675 0006 FFF7FEFF 		bl	port_enable
 676              		.loc 6 339 0
 677 000a C046     		nop
 678              		@ sp needed
 679 000c 10BD     		pop	{r4, pc}
 680              		.cfi_endproc
 681              	.LFE76:
 682              		.size	chSysEnable, .-chSysEnable
 683 000e C046     		.section	.text.chSysLock,"ax",%progbits
 684              		.align	1
ARM GAS  /tmp/ccaGRx52.s 			page 13


 685              		.p2align 4,,15
 686              		.syntax unified
 687              		.code	16
 688              		.thumb_func
 689              		.fpu softvfp
 690              		.type	chSysLock, %function
 691              	chSysLock:
 692              	.LFB77:
 693              		.loc 6 346 0
 694              		.cfi_startproc
 695              		@ args = 0, pretend = 0, frame = 0
 696              		@ frame_needed = 0, uses_anonymous_args = 0
 697 0000 10B5     		push	{r4, lr}
 698              		.cfi_def_cfa_offset 8
 699              		.cfi_offset 4, -8
 700              		.cfi_offset 14, -4
 701              		.loc 6 348 0
 702 0002 FFF7FEFF 		bl	port_lock
 703              		.loc 6 350 0
 704 0006 FFF7FEFF 		bl	_dbg_check_lock
 705              		.loc 6 351 0
 706 000a C046     		nop
 707              		@ sp needed
 708 000c 10BD     		pop	{r4, pc}
 709              		.cfi_endproc
 710              	.LFE77:
 711              		.size	chSysLock, .-chSysLock
 712 000e C046     		.section	.text.chSysUnlock,"ax",%progbits
 713              		.align	1
 714              		.p2align 4,,15
 715              		.syntax unified
 716              		.code	16
 717              		.thumb_func
 718              		.fpu softvfp
 719              		.type	chSysUnlock, %function
 720              	chSysUnlock:
 721              	.LFB78:
 722              		.loc 6 358 0
 723              		.cfi_startproc
 724              		@ args = 0, pretend = 0, frame = 0
 725              		@ frame_needed = 0, uses_anonymous_args = 0
 726 0000 10B5     		push	{r4, lr}
 727              		.cfi_def_cfa_offset 8
 728              		.cfi_offset 4, -8
 729              		.cfi_offset 14, -4
 730              		.loc 6 360 0
 731 0002 FFF7FEFF 		bl	_dbg_check_unlock
 732              		.loc 6 367 0
 733 0006 0A4B     		ldr	r3, .L35
 734 0008 1A68     		ldr	r2, [r3]
 735 000a 094B     		ldr	r3, .L35
 736 000c 9A42     		cmp	r2, r3
 737 000e 0BD0     		beq	.L34
 738              		.loc 6 367 0 is_stmt 0 discriminator 2
 739 0010 074B     		ldr	r3, .L35
 740 0012 9B69     		ldr	r3, [r3, #24]
 741 0014 9A68     		ldr	r2, [r3, #8]
ARM GAS  /tmp/ccaGRx52.s 			page 14


 742 0016 064B     		ldr	r3, .L35
 743 0018 1B68     		ldr	r3, [r3]
 744 001a 9B68     		ldr	r3, [r3, #8]
 745 001c 9A42     		cmp	r2, r3
 746 001e 03D2     		bcs	.L34
 747              		.loc 6 367 0 discriminator 3
 748 0020 044B     		ldr	r3, .L35+4
 749 0022 1800     		movs	r0, r3
 750 0024 FFF7FEFF 		bl	chSysHalt
 751              	.L34:
 752              		.loc 6 371 0 is_stmt 1
 753 0028 FFF7FEFF 		bl	port_unlock
 754              		.loc 6 372 0
 755 002c C046     		nop
 756              		@ sp needed
 757 002e 10BD     		pop	{r4, pc}
 758              	.L36:
 759              		.align	2
 760              	.L35:
 761 0030 00000000 		.word	ch
 762 0034 00000000 		.word	__func__.4993
 763              		.cfi_endproc
 764              	.LFE78:
 765              		.size	chSysUnlock, .-chSysUnlock
 766              		.section	.text.chSysLockFromISR,"ax",%progbits
 767              		.align	1
 768              		.p2align 4,,15
 769              		.syntax unified
 770              		.code	16
 771              		.thumb_func
 772              		.fpu softvfp
 773              		.type	chSysLockFromISR, %function
 774              	chSysLockFromISR:
 775              	.LFB79:
 776              		.loc 6 386 0
 777              		.cfi_startproc
 778              		@ args = 0, pretend = 0, frame = 0
 779              		@ frame_needed = 0, uses_anonymous_args = 0
 780 0000 10B5     		push	{r4, lr}
 781              		.cfi_def_cfa_offset 8
 782              		.cfi_offset 4, -8
 783              		.cfi_offset 14, -4
 784              		.loc 6 388 0
 785 0002 FFF7FEFF 		bl	port_lock_from_isr
 786              		.loc 6 390 0
 787 0006 FFF7FEFF 		bl	_dbg_check_lock_from_isr
 788              		.loc 6 391 0
 789 000a C046     		nop
 790              		@ sp needed
 791 000c 10BD     		pop	{r4, pc}
 792              		.cfi_endproc
 793              	.LFE79:
 794              		.size	chSysLockFromISR, .-chSysLockFromISR
 795 000e C046     		.section	.text.chSysUnlockFromISR,"ax",%progbits
 796              		.align	1
 797              		.p2align 4,,15
 798              		.syntax unified
ARM GAS  /tmp/ccaGRx52.s 			page 15


 799              		.code	16
 800              		.thumb_func
 801              		.fpu softvfp
 802              		.type	chSysUnlockFromISR, %function
 803              	chSysUnlockFromISR:
 804              	.LFB80:
 805              		.loc 6 406 0
 806              		.cfi_startproc
 807              		@ args = 0, pretend = 0, frame = 0
 808              		@ frame_needed = 0, uses_anonymous_args = 0
 809 0000 10B5     		push	{r4, lr}
 810              		.cfi_def_cfa_offset 8
 811              		.cfi_offset 4, -8
 812              		.cfi_offset 14, -4
 813              		.loc 6 408 0
 814 0002 FFF7FEFF 		bl	_dbg_check_unlock_from_isr
 815              		.loc 6 410 0
 816 0006 FFF7FEFF 		bl	port_unlock_from_isr
 817              		.loc 6 411 0
 818 000a C046     		nop
 819              		@ sp needed
 820 000c 10BD     		pop	{r4, pc}
 821              		.cfi_endproc
 822              	.LFE80:
 823              		.size	chSysUnlockFromISR, .-chSysUnlockFromISR
 824 000e C046     		.section	.text.chVTGetSystemTimeX,"ax",%progbits
 825              		.align	1
 826              		.p2align 4,,15
 827              		.syntax unified
 828              		.code	16
 829              		.thumb_func
 830              		.fpu softvfp
 831              		.type	chVTGetSystemTimeX, %function
 832              	chVTGetSystemTimeX:
 833              	.LFB85:
 834              		.file 7 "ChibiOS/os/rt/include/chvt.h"
 835              		.loc 7 228 0
 836              		.cfi_startproc
 837              		@ args = 0, pretend = 0, frame = 0
 838              		@ frame_needed = 0, uses_anonymous_args = 0
 839 0000 10B5     		push	{r4, lr}
 840              		.cfi_def_cfa_offset 8
 841              		.cfi_offset 4, -8
 842              		.cfi_offset 14, -4
 843              		.loc 7 233 0
 844 0002 FFF7FEFF 		bl	port_timer_get_time
 845 0006 0300     		movs	r3, r0
 846              		.loc 7 235 0
 847 0008 1800     		movs	r0, r3
 848              		@ sp needed
 849 000a 10BD     		pop	{r4, pc}
 850              		.cfi_endproc
 851              	.LFE85:
 852              		.size	chVTGetSystemTimeX, .-chVTGetSystemTimeX
 853              		.section	.text.chVTDoTickI,"ax",%progbits
 854              		.align	1
 855              		.p2align 4,,15
ARM GAS  /tmp/ccaGRx52.s 			page 16


 856              		.syntax unified
 857              		.code	16
 858              		.thumb_func
 859              		.fpu softvfp
 860              		.type	chVTDoTickI, %function
 861              	chVTDoTickI:
 862              	.LFB98:
 863              		.loc 7 502 0
 864              		.cfi_startproc
 865              		@ args = 0, pretend = 0, frame = 16
 866              		@ frame_needed = 0, uses_anonymous_args = 0
 867 0000 10B5     		push	{r4, lr}
 868              		.cfi_def_cfa_offset 8
 869              		.cfi_offset 4, -8
 870              		.cfi_offset 14, -4
 871 0002 84B0     		sub	sp, sp, #16
 872              		.cfi_def_cfa_offset 24
 873              		.loc 7 504 0
 874 0004 FFF7FEFF 		bl	chDbgCheckClassI
 875              		.loc 7 530 0
 876 0008 3F4B     		ldr	r3, .L49
 877 000a DB69     		ldr	r3, [r3, #28]
 878 000c 0393     		str	r3, [sp, #12]
 879              		.loc 7 531 0
 880 000e 0A24     		movs	r4, #10
 881 0010 6C44     		add	r4, r4, sp
 882 0012 FFF7FEFF 		bl	chVTGetSystemTimeX
 883 0016 0300     		movs	r3, r0
 884 0018 2380     		strh	r3, [r4]
 885              		.loc 7 537 0
 886 001a 2EE0     		b	.L42
 887              	.L44:
 888              	.LBB26:
 889              		.loc 7 541 0
 890 001c 3A4B     		ldr	r3, .L49
 891 001e DA8C     		ldrh	r2, [r3, #38]
 892 0020 039B     		ldr	r3, [sp, #12]
 893 0022 1B89     		ldrh	r3, [r3, #8]
 894 0024 D318     		adds	r3, r2, r3
 895 0026 9AB2     		uxth	r2, r3
 896 0028 374B     		ldr	r3, .L49
 897 002a DA84     		strh	r2, [r3, #38]
 898              		.loc 7 543 0
 899 002c 039B     		ldr	r3, [sp, #12]
 900 002e 1B68     		ldr	r3, [r3]
 901 0030 364A     		ldr	r2, .L49+4
 902 0032 5A60     		str	r2, [r3, #4]
 903              		.loc 7 544 0
 904 0034 039B     		ldr	r3, [sp, #12]
 905 0036 1A68     		ldr	r2, [r3]
 906 0038 334B     		ldr	r3, .L49
 907 003a DA61     		str	r2, [r3, #28]
 908              		.loc 7 545 0
 909 003c 039B     		ldr	r3, [sp, #12]
 910 003e DB68     		ldr	r3, [r3, #12]
 911 0040 0193     		str	r3, [sp, #4]
 912              		.loc 7 546 0
ARM GAS  /tmp/ccaGRx52.s 			page 17


 913 0042 039B     		ldr	r3, [sp, #12]
 914 0044 0022     		movs	r2, #0
 915 0046 DA60     		str	r2, [r3, #12]
 916              		.loc 7 549 0
 917 0048 2F4B     		ldr	r3, .L49
 918 004a DA69     		ldr	r2, [r3, #28]
 919 004c 2F4B     		ldr	r3, .L49+4
 920 004e 9A42     		cmp	r2, r3
 921 0050 01D1     		bne	.L43
 922              		.loc 7 550 0
 923 0052 FFF7FEFF 		bl	port_timer_stop_alarm
 924              	.L43:
 925              		.loc 7 556 0
 926 0056 FFF7FEFF 		bl	chSysUnlockFromISR
 927              		.loc 7 559 0
 928 005a 039B     		ldr	r3, [sp, #12]
 929 005c 1A69     		ldr	r2, [r3, #16]
 930 005e 019B     		ldr	r3, [sp, #4]
 931 0060 1000     		movs	r0, r2
 932 0062 9847     		blx	r3
 933              	.LVL0:
 934              		.loc 7 563 0
 935 0064 FFF7FEFF 		bl	chSysLockFromISR
 936              		.loc 7 567 0
 937 0068 274B     		ldr	r3, .L49
 938 006a DB69     		ldr	r3, [r3, #28]
 939 006c 0393     		str	r3, [sp, #12]
 940              		.loc 7 568 0
 941 006e 0A24     		movs	r4, #10
 942 0070 6C44     		add	r4, r4, sp
 943 0072 FFF7FEFF 		bl	chVTGetSystemTimeX
 944 0076 0300     		movs	r3, r0
 945 0078 2380     		strh	r3, [r4]
 946              	.L42:
 947              	.LBE26:
 948              		.loc 7 537 0
 949 007a 039B     		ldr	r3, [sp, #12]
 950 007c 1A89     		ldrh	r2, [r3, #8]
 951 007e 224B     		ldr	r3, .L49
 952 0080 DB8C     		ldrh	r3, [r3, #38]
 953 0082 0A21     		movs	r1, #10
 954 0084 6944     		add	r1, r1, sp
 955 0086 0988     		ldrh	r1, [r1]
 956 0088 CB1A     		subs	r3, r1, r3
 957 008a 9BB2     		uxth	r3, r3
 958 008c 9A42     		cmp	r2, r3
 959 008e C5D9     		bls	.L44
 960              		.loc 7 572 0
 961 0090 1D4B     		ldr	r3, .L49
 962 0092 DA69     		ldr	r2, [r3, #28]
 963 0094 1D4B     		ldr	r3, .L49+4
 964 0096 9A42     		cmp	r2, r3
 965 0098 33D0     		beq	.L48
 966              		.loc 7 577 0
 967 009a 1B4B     		ldr	r3, .L49
 968 009c DA8C     		ldrh	r2, [r3, #38]
 969 009e 039B     		ldr	r3, [sp, #12]
ARM GAS  /tmp/ccaGRx52.s 			page 18


 970 00a0 1B89     		ldrh	r3, [r3, #8]
 971 00a2 D318     		adds	r3, r2, r3
 972 00a4 99B2     		uxth	r1, r3
 973 00a6 02AB     		add	r3, sp, #8
 974 00a8 0A22     		movs	r2, #10
 975 00aa 6A44     		add	r2, r2, sp
 976 00ac 1288     		ldrh	r2, [r2]
 977 00ae 8A1A     		subs	r2, r1, r2
 978 00b0 1A80     		strh	r2, [r3]
 979              		.loc 7 578 0
 980 00b2 02AB     		add	r3, sp, #8
 981 00b4 1B88     		ldrh	r3, [r3]
 982 00b6 012B     		cmp	r3, #1
 983 00b8 02D8     		bhi	.L47
 984              		.loc 7 579 0
 985 00ba 02AB     		add	r3, sp, #8
 986 00bc 0222     		movs	r2, #2
 987 00be 1A80     		strh	r2, [r3]
 988              	.L47:
 989              		.loc 7 581 0
 990 00c0 0A22     		movs	r2, #10
 991 00c2 6A44     		add	r2, r2, sp
 992 00c4 02AB     		add	r3, sp, #8
 993 00c6 1288     		ldrh	r2, [r2]
 994 00c8 1B88     		ldrh	r3, [r3]
 995 00ca D318     		adds	r3, r2, r3
 996 00cc 9BB2     		uxth	r3, r3
 997 00ce 1800     		movs	r0, r3
 998 00d0 FFF7FEFF 		bl	port_timer_set_alarm
 999              		.loc 7 583 0
 1000 00d4 FFF7FEFF 		bl	chVTGetSystemTimeX
 1001 00d8 0300     		movs	r3, r0
 1002 00da 1A00     		movs	r2, r3
 1003 00dc 0A4B     		ldr	r3, .L49
 1004 00de DB8C     		ldrh	r3, [r3, #38]
 1005 00e0 D21A     		subs	r2, r2, r3
 1006 00e2 0A23     		movs	r3, #10
 1007 00e4 6B44     		add	r3, r3, sp
 1008 00e6 1988     		ldrh	r1, [r3]
 1009 00e8 02AB     		add	r3, sp, #8
 1010 00ea 1B88     		ldrh	r3, [r3]
 1011 00ec CB18     		adds	r3, r1, r3
 1012 00ee 0649     		ldr	r1, .L49
 1013 00f0 C98C     		ldrh	r1, [r1, #38]
 1014 00f2 5B1A     		subs	r3, r3, r1
 1015 00f4 9A42     		cmp	r2, r3
 1016 00f6 05DD     		ble	.L41
 1017              		.loc 7 583 0 is_stmt 0 discriminator 2
 1018 00f8 054B     		ldr	r3, .L49+8
 1019 00fa 1800     		movs	r0, r3
 1020 00fc FFF7FEFF 		bl	chSysHalt
 1021 0100 00E0     		b	.L41
 1022              	.L48:
 1023              		.loc 7 573 0 is_stmt 1
 1024 0102 C046     		nop
 1025              	.L41:
 1026              		.loc 7 587 0
ARM GAS  /tmp/ccaGRx52.s 			page 19


 1027 0104 04B0     		add	sp, sp, #16
 1028              		@ sp needed
 1029 0106 10BD     		pop	{r4, pc}
 1030              	.L50:
 1031              		.align	2
 1032              	.L49:
 1033 0108 00000000 		.word	ch
 1034 010c 1C000000 		.word	ch+28
 1035 0110 00000000 		.word	__func__.5082
 1036              		.cfi_endproc
 1037              	.LFE98:
 1038              		.size	chVTDoTickI, .-chVTDoTickI
 1039              		.section	.text.chRegSetThreadName,"ax",%progbits
 1040              		.align	1
 1041              		.p2align 4,,15
 1042              		.syntax unified
 1043              		.code	16
 1044              		.thumb_func
 1045              		.fpu softvfp
 1046              		.type	chRegSetThreadName, %function
 1047              	chRegSetThreadName:
 1048              	.LFB108:
 1049              		.file 8 "ChibiOS/os/rt/include/chregistry.h"
 1050              		.loc 8 132 0
 1051              		.cfi_startproc
 1052              		@ args = 0, pretend = 0, frame = 8
 1053              		@ frame_needed = 0, uses_anonymous_args = 0
 1054              		@ link register save eliminated.
 1055 0000 82B0     		sub	sp, sp, #8
 1056              		.cfi_def_cfa_offset 8
 1057 0002 0190     		str	r0, [sp, #4]
 1058              		.loc 8 135 0
 1059 0004 034B     		ldr	r3, .L52
 1060 0006 9B69     		ldr	r3, [r3, #24]
 1061 0008 019A     		ldr	r2, [sp, #4]
 1062 000a 9A61     		str	r2, [r3, #24]
 1063              		.loc 8 139 0
 1064 000c C046     		nop
 1065 000e 02B0     		add	sp, sp, #8
 1066              		@ sp needed
 1067 0010 7047     		bx	lr
 1068              	.L53:
 1069 0012 C046     		.align	2
 1070              	.L52:
 1071 0014 00000000 		.word	ch
 1072              		.cfi_endproc
 1073              	.LFE108:
 1074              		.size	chRegSetThreadName, .-chRegSetThreadName
 1075              		.section	.text.chRegSetThreadNameX,"ax",%progbits
 1076              		.align	1
 1077              		.p2align 4,,15
 1078              		.syntax unified
 1079              		.code	16
 1080              		.thumb_func
 1081              		.fpu softvfp
 1082              		.type	chRegSetThreadNameX, %function
 1083              	chRegSetThreadNameX:
ARM GAS  /tmp/ccaGRx52.s 			page 20


 1084              	.LFB110:
 1085              		.loc 8 172 0
 1086              		.cfi_startproc
 1087              		@ args = 0, pretend = 0, frame = 8
 1088              		@ frame_needed = 0, uses_anonymous_args = 0
 1089              		@ link register save eliminated.
 1090 0000 82B0     		sub	sp, sp, #8
 1091              		.cfi_def_cfa_offset 8
 1092 0002 0190     		str	r0, [sp, #4]
 1093 0004 0091     		str	r1, [sp]
 1094              		.loc 8 175 0
 1095 0006 019B     		ldr	r3, [sp, #4]
 1096 0008 009A     		ldr	r2, [sp]
 1097 000a 9A61     		str	r2, [r3, #24]
 1098              		.loc 8 180 0
 1099 000c C046     		nop
 1100 000e 02B0     		add	sp, sp, #8
 1101              		@ sp needed
 1102 0010 7047     		bx	lr
 1103              		.cfi_endproc
 1104              	.LFE110:
 1105              		.size	chRegSetThreadNameX, .-chRegSetThreadNameX
 1106 0012 C046     		.section	.text._idle_thread,"ax",%progbits
 1107              		.align	1
 1108              		.p2align 4,,15
 1109              		.syntax unified
 1110              		.code	16
 1111              		.thumb_func
 1112              		.fpu softvfp
 1113              		.type	_idle_thread, %function
 1114              	_idle_thread:
 1115              	.LFB152:
 1116              		.file 9 "ChibiOS/os/rt/src/chsys.c"
 1117              		.loc 9 65 0
 1118              		.cfi_startproc
 1119              		@ args = 0, pretend = 0, frame = 8
 1120              		@ frame_needed = 0, uses_anonymous_args = 0
 1121 0000 00B5     		push	{lr}
 1122              		.cfi_def_cfa_offset 4
 1123              		.cfi_offset 14, -4
 1124 0002 83B0     		sub	sp, sp, #12
 1125              		.cfi_def_cfa_offset 16
 1126 0004 0190     		str	r0, [sp, #4]
 1127              	.L56:
 1128              		.loc 9 72 0 discriminator 1
 1129 0006 FFF7FEFF 		bl	port_wait_for_interrupt
 1130 000a FCE7     		b	.L56
 1131              		.cfi_endproc
 1132              	.LFE152:
 1133              		.size	_idle_thread, .-_idle_thread
 1134              		.section	.rodata
 1135              		.align	2
 1136              	.LC12:
 1137 0000 69646C65 		.ascii	"idle\000"
 1137      00
 1138              		.section	.text.chSysInit,"ax",%progbits
 1139              		.align	1
ARM GAS  /tmp/ccaGRx52.s 			page 21


 1140              		.p2align 4,,15
 1141              		.global	chSysInit
 1142              		.syntax unified
 1143              		.code	16
 1144              		.thumb_func
 1145              		.fpu softvfp
 1146              		.type	chSysInit, %function
 1147              	chSysInit:
 1148              	.LFB153:
 1149              		.loc 9 93 0
 1150              		.cfi_startproc
 1151              		@ args = 0, pretend = 0, frame = 8
 1152              		@ frame_needed = 0, uses_anonymous_args = 0
 1153 0000 00B5     		push	{lr}
 1154              		.cfi_def_cfa_offset 4
 1155              		.cfi_offset 14, -4
 1156 0002 85B0     		sub	sp, sp, #20
 1157              		.cfi_def_cfa_offset 24
 1158              		.loc 9 98 0
 1159 0004 FFF7FEFF 		bl	port_init
 1160              		.loc 9 99 0
 1161 0008 FFF7FEFF 		bl	_scheduler_init
 1162              		.loc 9 100 0
 1163 000c FFF7FEFF 		bl	_vt_init
 1164              		.loc 9 105 0
 1165 0010 FFF7FEFF 		bl	_core_init
 1166              		.loc 9 108 0
 1167 0014 FFF7FEFF 		bl	_heap_init
 1168              		.loc 9 114 0
 1169 0018 FFF7FEFF 		bl	_dbg_trace_init
 1170              		.loc 9 119 0
 1171 001c 154B     		ldr	r3, .L58
 1172 001e 4021     		movs	r1, #64
 1173 0020 1800     		movs	r0, r3
 1174 0022 FFF7FEFF 		bl	_thread_init
 1175 0026 0200     		movs	r2, r0
 1176 0028 134B     		ldr	r3, .L58+4
 1177 002a 9A61     		str	r2, [r3, #24]
 1178              		.loc 9 125 0
 1179 002c 124B     		ldr	r3, .L58+4
 1180 002e 9B69     		ldr	r3, [r3, #24]
 1181 0030 2022     		movs	r2, #32
 1182 0032 0121     		movs	r1, #1
 1183 0034 9954     		strb	r1, [r3, r2]
 1184              		.loc 9 129 0
 1185 0036 104B     		ldr	r3, .L58+4
 1186 0038 9B69     		ldr	r3, [r3, #24]
 1187 003a 104A     		ldr	r2, .L58+8
 1188 003c DA61     		str	r2, [r3, #28]
 1189              		.loc 9 137 0
 1190 003e FFF7FEFF 		bl	chSysEnable
 1191              		.loc 9 142 0
 1192 0042 0F4B     		ldr	r3, .L58+12
 1193 0044 1800     		movs	r0, r3
 1194 0046 FFF7FEFF 		bl	chRegSetThreadName
 1195              	.LBB27:
 1196              		.loc 9 150 0
ARM GAS  /tmp/ccaGRx52.s 			page 22


 1197 004a 0E4A     		ldr	r2, .L58+16
 1198 004c 0E48     		ldr	r0, .L58+20
 1199 004e 0023     		movs	r3, #0
 1200 0050 0093     		str	r3, [sp]
 1201 0052 1300     		movs	r3, r2
 1202 0054 0122     		movs	r2, #1
 1203 0056 E021     		movs	r1, #224
 1204 0058 FFF7FEFF 		bl	chThdCreateStatic
 1205 005c 0300     		movs	r3, r0
 1206 005e 0393     		str	r3, [sp, #12]
 1207              		.loc 9 155 0
 1208 0060 0A4A     		ldr	r2, .L58+24
 1209 0062 039B     		ldr	r3, [sp, #12]
 1210 0064 1100     		movs	r1, r2
 1211 0066 1800     		movs	r0, r3
 1212 0068 FFF7FEFF 		bl	chRegSetThreadNameX
 1213              	.LBE27:
 1214              		.loc 9 158 0
 1215 006c C046     		nop
 1216 006e 05B0     		add	sp, sp, #20
 1217              		@ sp needed
 1218 0070 00BD     		pop	{pc}
 1219              	.L59:
 1220 0072 C046     		.align	2
 1221              	.L58:
 1222 0074 3C040000 		.word	ch+1084
 1223 0078 00000000 		.word	ch
 1224 007c 00000000 		.word	__main_thread_stack_base__
 1225 0080 00000000 		.word	ch_debug
 1226 0084 00000000 		.word	_idle_thread
 1227 0088 88040000 		.word	ch+1160
 1228 008c 00000000 		.word	.LC12
 1229              		.cfi_endproc
 1230              	.LFE153:
 1231              		.size	chSysInit, .-chSysInit
 1232              		.section	.text.chSysHalt,"ax",%progbits
 1233              		.align	1
 1234              		.p2align 4,,15
 1235              		.global	chSysHalt
 1236              		.syntax unified
 1237              		.code	16
 1238              		.thumb_func
 1239              		.fpu softvfp
 1240              		.type	chSysHalt, %function
 1241              	chSysHalt:
 1242              	.LFB154:
 1243              		.loc 9 172 0
 1244              		.cfi_startproc
 1245              		@ args = 0, pretend = 0, frame = 8
 1246              		@ frame_needed = 0, uses_anonymous_args = 0
 1247 0000 00B5     		push	{lr}
 1248              		.cfi_def_cfa_offset 4
 1249              		.cfi_offset 14, -4
 1250 0002 83B0     		sub	sp, sp, #12
 1251              		.cfi_def_cfa_offset 16
 1252 0004 0190     		str	r0, [sp, #4]
 1253              		.loc 9 174 0
ARM GAS  /tmp/ccaGRx52.s 			page 23


 1254 0006 FFF7FEFF 		bl	port_disable
 1255              		.loc 9 181 0
 1256 000a 024B     		ldr	r3, .L62
 1257 000c 019A     		ldr	r2, [sp, #4]
 1258 000e 9A62     		str	r2, [r3, #40]
 1259              	.L61:
 1260              		.loc 9 184 0 discriminator 1
 1261 0010 FEE7     		b	.L61
 1262              	.L63:
 1263 0012 C046     		.align	2
 1264              	.L62:
 1265 0014 00000000 		.word	ch
 1266              		.cfi_endproc
 1267              	.LFE154:
 1268              		.size	chSysHalt, .-chSysHalt
 1269              		.section	.text.chSysIntegrityCheckI,"ax",%progbits
 1270              		.align	1
 1271              		.p2align 4,,15
 1272              		.global	chSysIntegrityCheckI
 1273              		.syntax unified
 1274              		.code	16
 1275              		.thumb_func
 1276              		.fpu softvfp
 1277              		.type	chSysIntegrityCheckI, %function
 1278              	chSysIntegrityCheckI:
 1279              	.LFB155:
 1280              		.loc 9 212 0
 1281              		.cfi_startproc
 1282              		@ args = 0, pretend = 0, frame = 24
 1283              		@ frame_needed = 0, uses_anonymous_args = 0
 1284 0000 00B5     		push	{lr}
 1285              		.cfi_def_cfa_offset 4
 1286              		.cfi_offset 14, -4
 1287 0002 87B0     		sub	sp, sp, #28
 1288              		.cfi_def_cfa_offset 32
 1289 0004 0190     		str	r0, [sp, #4]
 1290              		.loc 9 215 0
 1291 0006 FFF7FEFF 		bl	chDbgCheckClassI
 1292              		.loc 9 218 0
 1293 000a 019B     		ldr	r3, [sp, #4]
 1294 000c 0122     		movs	r2, #1
 1295 000e 1340     		ands	r3, r2
 1296 0010 22D0     		beq	.L65
 1297              	.LBB28:
 1298              		.loc 9 222 0
 1299 0012 0023     		movs	r3, #0
 1300 0014 0593     		str	r3, [sp, #20]
 1301              		.loc 9 223 0
 1302 0016 394B     		ldr	r3, .L81
 1303 0018 1B68     		ldr	r3, [r3]
 1304 001a 0493     		str	r3, [sp, #16]
 1305              		.loc 9 224 0
 1306 001c 05E0     		b	.L66
 1307              	.L67:
 1308              		.loc 9 225 0
 1309 001e 059B     		ldr	r3, [sp, #20]
 1310 0020 0133     		adds	r3, r3, #1
ARM GAS  /tmp/ccaGRx52.s 			page 24


 1311 0022 0593     		str	r3, [sp, #20]
 1312              		.loc 9 226 0
 1313 0024 049B     		ldr	r3, [sp, #16]
 1314 0026 1B68     		ldr	r3, [r3]
 1315 0028 0493     		str	r3, [sp, #16]
 1316              	.L66:
 1317              		.loc 9 224 0
 1318 002a 049A     		ldr	r2, [sp, #16]
 1319 002c 334B     		ldr	r3, .L81
 1320 002e 9A42     		cmp	r2, r3
 1321 0030 F5D1     		bne	.L67
 1322              		.loc 9 230 0
 1323 0032 324B     		ldr	r3, .L81
 1324 0034 5B68     		ldr	r3, [r3, #4]
 1325 0036 0493     		str	r3, [sp, #16]
 1326              		.loc 9 231 0
 1327 0038 05E0     		b	.L68
 1328              	.L69:
 1329              		.loc 9 232 0
 1330 003a 059B     		ldr	r3, [sp, #20]
 1331 003c 013B     		subs	r3, r3, #1
 1332 003e 0593     		str	r3, [sp, #20]
 1333              		.loc 9 233 0
 1334 0040 049B     		ldr	r3, [sp, #16]
 1335 0042 5B68     		ldr	r3, [r3, #4]
 1336 0044 0493     		str	r3, [sp, #16]
 1337              	.L68:
 1338              		.loc 9 231 0
 1339 0046 049A     		ldr	r2, [sp, #16]
 1340 0048 2C4B     		ldr	r3, .L81
 1341 004a 9A42     		cmp	r2, r3
 1342 004c F5D1     		bne	.L69
 1343              		.loc 9 237 0
 1344 004e 059B     		ldr	r3, [sp, #20]
 1345 0050 002B     		cmp	r3, #0
 1346 0052 01D0     		beq	.L65
 1347              		.loc 9 238 0
 1348 0054 0123     		movs	r3, #1
 1349 0056 4EE0     		b	.L70
 1350              	.L65:
 1351              	.LBE28:
 1352              		.loc 9 243 0
 1353 0058 019B     		ldr	r3, [sp, #4]
 1354 005a 0222     		movs	r2, #2
 1355 005c 1340     		ands	r3, r2
 1356 005e 22D0     		beq	.L71
 1357              	.LBB29:
 1358              		.loc 9 247 0
 1359 0060 0023     		movs	r3, #0
 1360 0062 0593     		str	r3, [sp, #20]
 1361              		.loc 9 248 0
 1362 0064 254B     		ldr	r3, .L81
 1363 0066 DB69     		ldr	r3, [r3, #28]
 1364 0068 0393     		str	r3, [sp, #12]
 1365              		.loc 9 249 0
 1366 006a 05E0     		b	.L72
 1367              	.L73:
ARM GAS  /tmp/ccaGRx52.s 			page 25


 1368              		.loc 9 250 0
 1369 006c 059B     		ldr	r3, [sp, #20]
 1370 006e 0133     		adds	r3, r3, #1
 1371 0070 0593     		str	r3, [sp, #20]
 1372              		.loc 9 251 0
 1373 0072 039B     		ldr	r3, [sp, #12]
 1374 0074 1B68     		ldr	r3, [r3]
 1375 0076 0393     		str	r3, [sp, #12]
 1376              	.L72:
 1377              		.loc 9 249 0
 1378 0078 039A     		ldr	r2, [sp, #12]
 1379 007a 214B     		ldr	r3, .L81+4
 1380 007c 9A42     		cmp	r2, r3
 1381 007e F5D1     		bne	.L73
 1382              		.loc 9 255 0
 1383 0080 1E4B     		ldr	r3, .L81
 1384 0082 1B6A     		ldr	r3, [r3, #32]
 1385 0084 0393     		str	r3, [sp, #12]
 1386              		.loc 9 256 0
 1387 0086 05E0     		b	.L74
 1388              	.L75:
 1389              		.loc 9 257 0
 1390 0088 059B     		ldr	r3, [sp, #20]
 1391 008a 013B     		subs	r3, r3, #1
 1392 008c 0593     		str	r3, [sp, #20]
 1393              		.loc 9 258 0
 1394 008e 039B     		ldr	r3, [sp, #12]
 1395 0090 5B68     		ldr	r3, [r3, #4]
 1396 0092 0393     		str	r3, [sp, #12]
 1397              	.L74:
 1398              		.loc 9 256 0
 1399 0094 039A     		ldr	r2, [sp, #12]
 1400 0096 1A4B     		ldr	r3, .L81+4
 1401 0098 9A42     		cmp	r2, r3
 1402 009a F5D1     		bne	.L75
 1403              		.loc 9 262 0
 1404 009c 059B     		ldr	r3, [sp, #20]
 1405 009e 002B     		cmp	r3, #0
 1406 00a0 01D0     		beq	.L71
 1407              		.loc 9 263 0
 1408 00a2 0123     		movs	r3, #1
 1409 00a4 27E0     		b	.L70
 1410              	.L71:
 1411              	.LBE29:
 1412              		.loc 9 268 0
 1413 00a6 019B     		ldr	r3, [sp, #4]
 1414 00a8 0422     		movs	r2, #4
 1415 00aa 1340     		ands	r3, r2
 1416 00ac 22D0     		beq	.L76
 1417              	.LBB30:
 1418              		.loc 9 272 0
 1419 00ae 0023     		movs	r3, #0
 1420 00b0 0593     		str	r3, [sp, #20]
 1421              		.loc 9 273 0
 1422 00b2 124B     		ldr	r3, .L81
 1423 00b4 1B69     		ldr	r3, [r3, #16]
 1424 00b6 0293     		str	r3, [sp, #8]
ARM GAS  /tmp/ccaGRx52.s 			page 26


 1425              		.loc 9 274 0
 1426 00b8 05E0     		b	.L77
 1427              	.L78:
 1428              		.loc 9 275 0
 1429 00ba 059B     		ldr	r3, [sp, #20]
 1430 00bc 0133     		adds	r3, r3, #1
 1431 00be 0593     		str	r3, [sp, #20]
 1432              		.loc 9 276 0
 1433 00c0 029B     		ldr	r3, [sp, #8]
 1434 00c2 1B69     		ldr	r3, [r3, #16]
 1435 00c4 0293     		str	r3, [sp, #8]
 1436              	.L77:
 1437              		.loc 9 274 0
 1438 00c6 029A     		ldr	r2, [sp, #8]
 1439 00c8 0C4B     		ldr	r3, .L81
 1440 00ca 9A42     		cmp	r2, r3
 1441 00cc F5D1     		bne	.L78
 1442              		.loc 9 280 0
 1443 00ce 0B4B     		ldr	r3, .L81
 1444 00d0 5B69     		ldr	r3, [r3, #20]
 1445 00d2 0293     		str	r3, [sp, #8]
 1446              		.loc 9 281 0
 1447 00d4 05E0     		b	.L79
 1448              	.L80:
 1449              		.loc 9 282 0
 1450 00d6 059B     		ldr	r3, [sp, #20]
 1451 00d8 013B     		subs	r3, r3, #1
 1452 00da 0593     		str	r3, [sp, #20]
 1453              		.loc 9 283 0
 1454 00dc 029B     		ldr	r3, [sp, #8]
 1455 00de 5B69     		ldr	r3, [r3, #20]
 1456 00e0 0293     		str	r3, [sp, #8]
 1457              	.L79:
 1458              		.loc 9 281 0
 1459 00e2 029A     		ldr	r2, [sp, #8]
 1460 00e4 054B     		ldr	r3, .L81
 1461 00e6 9A42     		cmp	r2, r3
 1462 00e8 F5D1     		bne	.L80
 1463              		.loc 9 287 0
 1464 00ea 059B     		ldr	r3, [sp, #20]
 1465 00ec 002B     		cmp	r3, #0
 1466 00ee 01D0     		beq	.L76
 1467              		.loc 9 288 0
 1468 00f0 0123     		movs	r3, #1
 1469 00f2 00E0     		b	.L70
 1470              	.L76:
 1471              	.LBE30:
 1472              		.loc 9 299 0
 1473 00f4 0023     		movs	r3, #0
 1474              	.L70:
 1475              		.loc 9 300 0
 1476 00f6 1800     		movs	r0, r3
 1477 00f8 07B0     		add	sp, sp, #28
 1478              		@ sp needed
 1479 00fa 00BD     		pop	{pc}
 1480              	.L82:
 1481              		.align	2
ARM GAS  /tmp/ccaGRx52.s 			page 27


 1482              	.L81:
 1483 00fc 00000000 		.word	ch
 1484 0100 1C000000 		.word	ch+28
 1485              		.cfi_endproc
 1486              	.LFE155:
 1487              		.size	chSysIntegrityCheckI, .-chSysIntegrityCheckI
 1488              		.section	.text.chSysTimerHandlerI,"ax",%progbits
 1489              		.align	1
 1490              		.p2align 4,,15
 1491              		.global	chSysTimerHandlerI
 1492              		.syntax unified
 1493              		.code	16
 1494              		.thumb_func
 1495              		.fpu softvfp
 1496              		.type	chSysTimerHandlerI, %function
 1497              	chSysTimerHandlerI:
 1498              	.LFB156:
 1499              		.loc 9 313 0
 1500              		.cfi_startproc
 1501              		@ args = 0, pretend = 0, frame = 0
 1502              		@ frame_needed = 0, uses_anonymous_args = 0
 1503 0000 10B5     		push	{r4, lr}
 1504              		.cfi_def_cfa_offset 8
 1505              		.cfi_offset 4, -8
 1506              		.cfi_offset 14, -4
 1507              		.loc 9 315 0
 1508 0002 FFF7FEFF 		bl	chDbgCheckClassI
 1509              		.loc 9 327 0
 1510 0006 FFF7FEFF 		bl	chVTDoTickI
 1511              		.loc 9 331 0
 1512 000a C046     		nop
 1513              		@ sp needed
 1514 000c 10BD     		pop	{r4, pc}
 1515              		.cfi_endproc
 1516              	.LFE156:
 1517              		.size	chSysTimerHandlerI, .-chSysTimerHandlerI
 1518 000e C046     		.section	.text.chSysGetStatusAndLockX,"ax",%progbits
 1519              		.align	1
 1520              		.p2align 4,,15
 1521              		.global	chSysGetStatusAndLockX
 1522              		.syntax unified
 1523              		.code	16
 1524              		.thumb_func
 1525              		.fpu softvfp
 1526              		.type	chSysGetStatusAndLockX, %function
 1527              	chSysGetStatusAndLockX:
 1528              	.LFB157:
 1529              		.loc 9 346 0
 1530              		.cfi_startproc
 1531              		@ args = 0, pretend = 0, frame = 8
 1532              		@ frame_needed = 0, uses_anonymous_args = 0
 1533 0000 00B5     		push	{lr}
 1534              		.cfi_def_cfa_offset 4
 1535              		.cfi_offset 14, -4
 1536 0002 83B0     		sub	sp, sp, #12
 1537              		.cfi_def_cfa_offset 16
 1538              		.loc 9 348 0
ARM GAS  /tmp/ccaGRx52.s 			page 28


 1539 0004 FFF7FEFF 		bl	port_get_irq_status
 1540 0008 0300     		movs	r3, r0
 1541 000a 0193     		str	r3, [sp, #4]
 1542              		.loc 9 349 0
 1543 000c 019B     		ldr	r3, [sp, #4]
 1544 000e 1800     		movs	r0, r3
 1545 0010 FFF7FEFF 		bl	port_irq_enabled
 1546 0014 031E     		subs	r3, r0, #0
 1547 0016 08D0     		beq	.L85
 1548              		.loc 9 350 0
 1549 0018 FFF7FEFF 		bl	port_is_isr_context
 1550 001c 031E     		subs	r3, r0, #0
 1551 001e 02D0     		beq	.L86
 1552              		.loc 9 351 0
 1553 0020 FFF7FEFF 		bl	chSysLockFromISR
 1554 0024 01E0     		b	.L85
 1555              	.L86:
 1556              		.loc 9 354 0
 1557 0026 FFF7FEFF 		bl	chSysLock
 1558              	.L85:
 1559              		.loc 9 357 0
 1560 002a 019B     		ldr	r3, [sp, #4]
 1561              		.loc 9 358 0
 1562 002c 1800     		movs	r0, r3
 1563 002e 03B0     		add	sp, sp, #12
 1564              		@ sp needed
 1565 0030 00BD     		pop	{pc}
 1566              		.cfi_endproc
 1567              	.LFE157:
 1568              		.size	chSysGetStatusAndLockX, .-chSysGetStatusAndLockX
 1569 0032 C046     		.section	.text.chSysRestoreStatusX,"ax",%progbits
 1570              		.align	1
 1571              		.p2align 4,,15
 1572              		.global	chSysRestoreStatusX
 1573              		.syntax unified
 1574              		.code	16
 1575              		.thumb_func
 1576              		.fpu softvfp
 1577              		.type	chSysRestoreStatusX, %function
 1578              	chSysRestoreStatusX:
 1579              	.LFB158:
 1580              		.loc 9 369 0
 1581              		.cfi_startproc
 1582              		@ args = 0, pretend = 0, frame = 8
 1583              		@ frame_needed = 0, uses_anonymous_args = 0
 1584 0000 00B5     		push	{lr}
 1585              		.cfi_def_cfa_offset 4
 1586              		.cfi_offset 14, -4
 1587 0002 83B0     		sub	sp, sp, #12
 1588              		.cfi_def_cfa_offset 16
 1589 0004 0190     		str	r0, [sp, #4]
 1590              		.loc 9 371 0
 1591 0006 019B     		ldr	r3, [sp, #4]
 1592 0008 1800     		movs	r0, r3
 1593 000a FFF7FEFF 		bl	port_irq_enabled
 1594 000e 031E     		subs	r3, r0, #0
 1595 0010 0AD0     		beq	.L91
ARM GAS  /tmp/ccaGRx52.s 			page 29


 1596              		.loc 9 372 0
 1597 0012 FFF7FEFF 		bl	port_is_isr_context
 1598 0016 031E     		subs	r3, r0, #0
 1599 0018 02D0     		beq	.L90
 1600              		.loc 9 373 0
 1601 001a FFF7FEFF 		bl	chSysUnlockFromISR
 1602              		.loc 9 380 0
 1603 001e 03E0     		b	.L91
 1604              	.L90:
 1605              		.loc 9 376 0
 1606 0020 FFF7FEFF 		bl	chSchRescheduleS
 1607              		.loc 9 377 0
 1608 0024 FFF7FEFF 		bl	chSysUnlock
 1609              	.L91:
 1610              		.loc 9 380 0
 1611 0028 C046     		nop
 1612 002a 03B0     		add	sp, sp, #12
 1613              		@ sp needed
 1614 002c 00BD     		pop	{pc}
 1615              		.cfi_endproc
 1616              	.LFE158:
 1617              		.size	chSysRestoreStatusX, .-chSysRestoreStatusX
 1618 002e C046     		.section	.rodata.__func__.5082,"a",%progbits
 1619              		.align	2
 1620              		.type	__func__.5082, %object
 1621              		.size	__func__.5082, 12
 1622              	__func__.5082:
 1623 0000 63685654 		.ascii	"chVTDoTickI\000"
 1623      446F5469 
 1623      636B4900 
 1624              		.section	.rodata.__func__.4993,"a",%progbits
 1625              		.align	2
 1626              		.type	__func__.4993, %object
 1627              		.size	__func__.4993, 12
 1628              	__func__.4993:
 1629 0000 63685379 		.ascii	"chSysUnlock\000"
 1629      73556E6C 
 1629      6F636B00 
 1630              		.text
 1631              	.Letext0:
 1632              		.file 10 "/home/felix/opt/gcc-arm-none-eabi-6-2017-q1-update/arm-none-eabi/include/machine/_defaul
 1633              		.file 11 "/home/felix/opt/gcc-arm-none-eabi-6-2017-q1-update/arm-none-eabi/include/sys/_stdint.h"
 1634              		.file 12 "ChibiOS/os/rt/ports/ARMCMx/compilers/GCC/chtypes.h"
 1635              		.file 13 "ChibiOS/os/rt/include/chsystypes.h"
 1636              		.file 14 "ChibiOS/os/rt/include/chschd.h"
 1637              		.file 15 "ChibiOS/os/ext/CMSIS/ST/STM32F0xx/stm32f030xc.h"
 1638              		.file 16 "ChibiOS/os/rt/ports/ARMCMx/chcore.h"
 1639              		.file 17 "ChibiOS/os/hal/ports/STM32/LLD/TIMv1/stm32_tim.h"
 1640              		.file 18 "ChibiOS/os/rt/include/chdebug.h"
 1641              		.file 19 "ChibiOS/os/rt/include/chsem.h"
 1642              		.file 20 "ChibiOS/os/rt/include/chmtx.h"
 1643              		.file 21 "ChibiOS/os/rt/include/chthreads.h"
 1644              		.file 22 "ChibiOS/os/ext/CMSIS/ST/STM32F0xx/system_stm32f0xx.h"