ARM GAS  /tmp/ccjtaYQy.s 			page 1


   1              		.cpu cortex-m0
   2              		.eabi_attribute 20, 1
   3              		.eabi_attribute 21, 1
   4              		.eabi_attribute 23, 3
   5              		.eabi_attribute 24, 1
   6              		.eabi_attribute 25, 1
   7              		.eabi_attribute 26, 1
   8              		.eabi_attribute 30, 6
   9              		.eabi_attribute 34, 0
  10              		.eabi_attribute 18, 4
  11              		.file	"chthreads.c"
  12              		.text
  13              	.Ltext0:
  14              		.cfi_sections	.debug_frame
  15              		.section	.text.port_lock,"ax",%progbits
  16              		.align	1
  17              		.p2align 4,,15
  18              		.syntax unified
  19              		.code	16
  20              		.thumb_func
  21              		.fpu softvfp
  22              		.type	port_lock, %function
  23              	port_lock:
  24              	.LFB38:
  25              		.file 1 "ChibiOS/os/rt/ports/ARMCMx/chcore_v6m.h"
  26              		.loc 1 330 0
  27              		.cfi_startproc
  28              		@ args = 0, pretend = 0, frame = 0
  29              		@ frame_needed = 0, uses_anonymous_args = 0
  30              		@ link register save eliminated.
  31              	.LBB6:
  32              	.LBB7:
  33              		.file 2 "ChibiOS/os/ext/CMSIS/include/core_cmFunc.h"
  34              		.loc 2 344 0
  35              		.syntax divided
  36              	@ 344 "ChibiOS/os/ext/CMSIS/include/core_cmFunc.h" 1
  37 0000 72B6     		cpsid i
  38              	@ 0 "" 2
  39              		.thumb
  40              		.syntax unified
  41              	.LBE7:
  42              	.LBE6:
  43              		.loc 1 333 0
  44 0002 C046     		nop
  45              		@ sp needed
  46 0004 7047     		bx	lr
  47              		.cfi_endproc
  48              	.LFE38:
  49              		.size	port_lock, .-port_lock
  50 0006 C046     		.section	.text.port_unlock,"ax",%progbits
  51              		.align	1
  52              		.p2align 4,,15
  53              		.syntax unified
  54              		.code	16
  55              		.thumb_func
  56              		.fpu softvfp
  57              		.type	port_unlock, %function
ARM GAS  /tmp/ccjtaYQy.s 			page 2


  58              	port_unlock:
  59              	.LFB39:
  60              		.loc 1 339 0
  61              		.cfi_startproc
  62              		@ args = 0, pretend = 0, frame = 0
  63              		@ frame_needed = 0, uses_anonymous_args = 0
  64              		@ link register save eliminated.
  65              	.LBB8:
  66              	.LBB9:
  67              		.loc 2 333 0
  68              		.syntax divided
  69              	@ 333 "ChibiOS/os/ext/CMSIS/include/core_cmFunc.h" 1
  70 0000 62B6     		cpsie i
  71              	@ 0 "" 2
  72              		.thumb
  73              		.syntax unified
  74              	.LBE9:
  75              	.LBE8:
  76              		.loc 1 342 0
  77 0002 C046     		nop
  78              		@ sp needed
  79 0004 7047     		bx	lr
  80              		.cfi_endproc
  81              	.LFE39:
  82              		.size	port_unlock, .-port_unlock
  83 0006 C046     		.section	.text.st_lld_get_counter,"ax",%progbits
  84              		.align	1
  85              		.p2align 4,,15
  86              		.syntax unified
  87              		.code	16
  88              		.thumb_func
  89              		.fpu softvfp
  90              		.type	st_lld_get_counter, %function
  91              	st_lld_get_counter:
  92              	.LFB46:
  93              		.file 3 "ChibiOS/os/hal/ports/STM32/LLD/TIMv1/st_lld.h"
  94              		.loc 3 139 0
  95              		.cfi_startproc
  96              		@ args = 0, pretend = 0, frame = 0
  97              		@ frame_needed = 0, uses_anonymous_args = 0
  98              		@ link register save eliminated.
  99              		.loc 3 141 0
 100 0000 024B     		ldr	r3, .L5
 101 0002 5B6A     		ldr	r3, [r3, #36]
 102 0004 9BB2     		uxth	r3, r3
 103              		.loc 3 142 0
 104 0006 1800     		movs	r0, r3
 105              		@ sp needed
 106 0008 7047     		bx	lr
 107              	.L6:
 108 000a C046     		.align	2
 109              	.L5:
 110 000c 00040040 		.word	1073742848
 111              		.cfi_endproc
 112              	.LFE46:
 113              		.size	st_lld_get_counter, .-st_lld_get_counter
 114              		.section	.text.port_timer_get_time,"ax",%progbits
ARM GAS  /tmp/ccjtaYQy.s 			page 3


 115              		.align	1
 116              		.p2align 4,,15
 117              		.syntax unified
 118              		.code	16
 119              		.thumb_func
 120              		.fpu softvfp
 121              		.type	port_timer_get_time, %function
 122              	port_timer_get_time:
 123              	.LFB55:
 124              		.file 4 "ChibiOS/os/rt/ports/ARMCMx/chcore_timer.h"
 125              		.loc 4 105 0
 126              		.cfi_startproc
 127              		@ args = 0, pretend = 0, frame = 0
 128              		@ frame_needed = 0, uses_anonymous_args = 0
 129 0000 10B5     		push	{r4, lr}
 130              		.cfi_def_cfa_offset 8
 131              		.cfi_offset 4, -8
 132              		.cfi_offset 14, -4
 133              		.loc 4 107 0
 134 0002 FFF7FEFF 		bl	st_lld_get_counter
 135 0006 0300     		movs	r3, r0
 136              		.loc 4 108 0
 137 0008 1800     		movs	r0, r3
 138              		@ sp needed
 139 000a 10BD     		pop	{r4, pc}
 140              		.cfi_endproc
 141              	.LFE55:
 142              		.size	port_timer_get_time, .-port_timer_get_time
 143              		.section	.text.list_init,"ax",%progbits
 144              		.align	1
 145              		.p2align 4,,15
 146              		.syntax unified
 147              		.code	16
 148              		.thumb_func
 149              		.fpu softvfp
 150              		.type	list_init, %function
 151              	list_init:
 152              	.LFB57:
 153              		.file 5 "ChibiOS/os/rt/include/chschd.h"
 154              		.loc 5 564 0
 155              		.cfi_startproc
 156              		@ args = 0, pretend = 0, frame = 8
 157              		@ frame_needed = 0, uses_anonymous_args = 0
 158              		@ link register save eliminated.
 159 0000 82B0     		sub	sp, sp, #8
 160              		.cfi_def_cfa_offset 8
 161 0002 0190     		str	r0, [sp, #4]
 162              		.loc 5 566 0
 163 0004 019B     		ldr	r3, [sp, #4]
 164 0006 019A     		ldr	r2, [sp, #4]
 165 0008 1A60     		str	r2, [r3]
 166              		.loc 5 567 0
 167 000a C046     		nop
 168 000c 02B0     		add	sp, sp, #8
 169              		@ sp needed
 170 000e 7047     		bx	lr
 171              		.cfi_endproc
ARM GAS  /tmp/ccjtaYQy.s 			page 4


 172              	.LFE57:
 173              		.size	list_init, .-list_init
 174              		.section	.text.list_notempty,"ax",%progbits
 175              		.align	1
 176              		.p2align 4,,15
 177              		.syntax unified
 178              		.code	16
 179              		.thumb_func
 180              		.fpu softvfp
 181              		.type	list_notempty, %function
 182              	list_notempty:
 183              	.LFB59:
 184              		.loc 5 590 0
 185              		.cfi_startproc
 186              		@ args = 0, pretend = 0, frame = 8
 187              		@ frame_needed = 0, uses_anonymous_args = 0
 188              		@ link register save eliminated.
 189 0000 82B0     		sub	sp, sp, #8
 190              		.cfi_def_cfa_offset 8
 191 0002 0190     		str	r0, [sp, #4]
 192              		.loc 5 592 0
 193 0004 019B     		ldr	r3, [sp, #4]
 194 0006 1A68     		ldr	r2, [r3]
 195 0008 019B     		ldr	r3, [sp, #4]
 196 000a D31A     		subs	r3, r2, r3
 197 000c 5A1E     		subs	r2, r3, #1
 198 000e 9341     		sbcs	r3, r3, r2
 199 0010 DBB2     		uxtb	r3, r3
 200              		.loc 5 593 0
 201 0012 1800     		movs	r0, r3
 202 0014 02B0     		add	sp, sp, #8
 203              		@ sp needed
 204 0016 7047     		bx	lr
 205              		.cfi_endproc
 206              	.LFE59:
 207              		.size	list_notempty, .-list_notempty
 208              		.section	.text.queue_init,"ax",%progbits
 209              		.align	1
 210              		.p2align 4,,15
 211              		.syntax unified
 212              		.code	16
 213              		.thumb_func
 214              		.fpu softvfp
 215              		.type	queue_init, %function
 216              	queue_init:
 217              	.LFB60:
 218              		.loc 5 602 0
 219              		.cfi_startproc
 220              		@ args = 0, pretend = 0, frame = 8
 221              		@ frame_needed = 0, uses_anonymous_args = 0
 222              		@ link register save eliminated.
 223 0000 82B0     		sub	sp, sp, #8
 224              		.cfi_def_cfa_offset 8
 225 0002 0190     		str	r0, [sp, #4]
 226              		.loc 5 604 0
 227 0004 019B     		ldr	r3, [sp, #4]
 228 0006 019A     		ldr	r2, [sp, #4]
ARM GAS  /tmp/ccjtaYQy.s 			page 5


 229 0008 1A60     		str	r2, [r3]
 230              		.loc 5 605 0
 231 000a 019B     		ldr	r3, [sp, #4]
 232 000c 019A     		ldr	r2, [sp, #4]
 233 000e 5A60     		str	r2, [r3, #4]
 234              		.loc 5 606 0
 235 0010 C046     		nop
 236 0012 02B0     		add	sp, sp, #8
 237              		@ sp needed
 238 0014 7047     		bx	lr
 239              		.cfi_endproc
 240              	.LFE60:
 241              		.size	queue_init, .-queue_init
 242 0016 C046     		.section	.text.queue_notempty,"ax",%progbits
 243              		.align	1
 244              		.p2align 4,,15
 245              		.syntax unified
 246              		.code	16
 247              		.thumb_func
 248              		.fpu softvfp
 249              		.type	queue_notempty, %function
 250              	queue_notempty:
 251              	.LFB62:
 252              		.loc 5 629 0
 253              		.cfi_startproc
 254              		@ args = 0, pretend = 0, frame = 8
 255              		@ frame_needed = 0, uses_anonymous_args = 0
 256              		@ link register save eliminated.
 257 0000 82B0     		sub	sp, sp, #8
 258              		.cfi_def_cfa_offset 8
 259 0002 0190     		str	r0, [sp, #4]
 260              		.loc 5 631 0
 261 0004 019B     		ldr	r3, [sp, #4]
 262 0006 1A68     		ldr	r2, [r3]
 263 0008 019B     		ldr	r3, [sp, #4]
 264 000a D31A     		subs	r3, r2, r3
 265 000c 5A1E     		subs	r2, r3, #1
 266 000e 9341     		sbcs	r3, r3, r2
 267 0010 DBB2     		uxtb	r3, r3
 268              		.loc 5 632 0
 269 0012 1800     		movs	r0, r3
 270 0014 02B0     		add	sp, sp, #8
 271              		@ sp needed
 272 0016 7047     		bx	lr
 273              		.cfi_endproc
 274              	.LFE62:
 275              		.size	queue_notempty, .-queue_notempty
 276              		.section	.text.list_insert,"ax",%progbits
 277              		.align	1
 278              		.p2align 4,,15
 279              		.syntax unified
 280              		.code	16
 281              		.thumb_func
 282              		.fpu softvfp
 283              		.type	list_insert, %function
 284              	list_insert:
 285              	.LFB63:
ARM GAS  /tmp/ccjtaYQy.s 			page 6


 286              		.loc 5 637 0
 287              		.cfi_startproc
 288              		@ args = 0, pretend = 0, frame = 8
 289              		@ frame_needed = 0, uses_anonymous_args = 0
 290              		@ link register save eliminated.
 291 0000 82B0     		sub	sp, sp, #8
 292              		.cfi_def_cfa_offset 8
 293 0002 0190     		str	r0, [sp, #4]
 294 0004 0091     		str	r1, [sp]
 295              		.loc 5 639 0
 296 0006 009B     		ldr	r3, [sp]
 297 0008 1A68     		ldr	r2, [r3]
 298 000a 019B     		ldr	r3, [sp, #4]
 299 000c 1A60     		str	r2, [r3]
 300              		.loc 5 640 0
 301 000e 009B     		ldr	r3, [sp]
 302 0010 019A     		ldr	r2, [sp, #4]
 303 0012 1A60     		str	r2, [r3]
 304              		.loc 5 641 0
 305 0014 C046     		nop
 306 0016 02B0     		add	sp, sp, #8
 307              		@ sp needed
 308 0018 7047     		bx	lr
 309              		.cfi_endproc
 310              	.LFE63:
 311              		.size	list_insert, .-list_insert
 312 001a C046     		.section	.text.list_remove,"ax",%progbits
 313              		.align	1
 314              		.p2align 4,,15
 315              		.syntax unified
 316              		.code	16
 317              		.thumb_func
 318              		.fpu softvfp
 319              		.type	list_remove, %function
 320              	list_remove:
 321              	.LFB64:
 322              		.loc 5 643 0
 323              		.cfi_startproc
 324              		@ args = 0, pretend = 0, frame = 16
 325              		@ frame_needed = 0, uses_anonymous_args = 0
 326              		@ link register save eliminated.
 327 0000 84B0     		sub	sp, sp, #16
 328              		.cfi_def_cfa_offset 16
 329 0002 0190     		str	r0, [sp, #4]
 330              		.loc 5 645 0
 331 0004 019B     		ldr	r3, [sp, #4]
 332 0006 1B68     		ldr	r3, [r3]
 333 0008 0393     		str	r3, [sp, #12]
 334              		.loc 5 646 0
 335 000a 039B     		ldr	r3, [sp, #12]
 336 000c 1A68     		ldr	r2, [r3]
 337 000e 019B     		ldr	r3, [sp, #4]
 338 0010 1A60     		str	r2, [r3]
 339              		.loc 5 648 0
 340 0012 039B     		ldr	r3, [sp, #12]
 341              		.loc 5 649 0
 342 0014 1800     		movs	r0, r3
ARM GAS  /tmp/ccjtaYQy.s 			page 7


 343 0016 04B0     		add	sp, sp, #16
 344              		@ sp needed
 345 0018 7047     		bx	lr
 346              		.cfi_endproc
 347              	.LFE64:
 348              		.size	list_remove, .-list_remove
 349 001a C046     		.section	.text.queue_insert,"ax",%progbits
 350              		.align	1
 351              		.p2align 4,,15
 352              		.syntax unified
 353              		.code	16
 354              		.thumb_func
 355              		.fpu softvfp
 356              		.type	queue_insert, %function
 357              	queue_insert:
 358              	.LFB66:
 359              		.loc 5 663 0
 360              		.cfi_startproc
 361              		@ args = 0, pretend = 0, frame = 8
 362              		@ frame_needed = 0, uses_anonymous_args = 0
 363              		@ link register save eliminated.
 364 0000 82B0     		sub	sp, sp, #8
 365              		.cfi_def_cfa_offset 8
 366 0002 0190     		str	r0, [sp, #4]
 367 0004 0091     		str	r1, [sp]
 368              		.loc 5 665 0
 369 0006 019B     		ldr	r3, [sp, #4]
 370 0008 009A     		ldr	r2, [sp]
 371 000a 1A60     		str	r2, [r3]
 372              		.loc 5 666 0
 373 000c 009B     		ldr	r3, [sp]
 374 000e 5A68     		ldr	r2, [r3, #4]
 375 0010 019B     		ldr	r3, [sp, #4]
 376 0012 5A60     		str	r2, [r3, #4]
 377              		.loc 5 667 0
 378 0014 019B     		ldr	r3, [sp, #4]
 379 0016 5B68     		ldr	r3, [r3, #4]
 380 0018 019A     		ldr	r2, [sp, #4]
 381 001a 1A60     		str	r2, [r3]
 382              		.loc 5 668 0
 383 001c 009B     		ldr	r3, [sp]
 384 001e 019A     		ldr	r2, [sp, #4]
 385 0020 5A60     		str	r2, [r3, #4]
 386              		.loc 5 669 0
 387 0022 C046     		nop
 388 0024 02B0     		add	sp, sp, #8
 389              		@ sp needed
 390 0026 7047     		bx	lr
 391              		.cfi_endproc
 392              	.LFE66:
 393              		.size	queue_insert, .-queue_insert
 394              		.section	.text.queue_fifo_remove,"ax",%progbits
 395              		.align	1
 396              		.p2align 4,,15
 397              		.syntax unified
 398              		.code	16
 399              		.thumb_func
ARM GAS  /tmp/ccjtaYQy.s 			page 8


 400              		.fpu softvfp
 401              		.type	queue_fifo_remove, %function
 402              	queue_fifo_remove:
 403              	.LFB67:
 404              		.loc 5 671 0
 405              		.cfi_startproc
 406              		@ args = 0, pretend = 0, frame = 16
 407              		@ frame_needed = 0, uses_anonymous_args = 0
 408              		@ link register save eliminated.
 409 0000 84B0     		sub	sp, sp, #16
 410              		.cfi_def_cfa_offset 16
 411 0002 0190     		str	r0, [sp, #4]
 412              		.loc 5 672 0
 413 0004 019B     		ldr	r3, [sp, #4]
 414 0006 1B68     		ldr	r3, [r3]
 415 0008 0393     		str	r3, [sp, #12]
 416              		.loc 5 674 0
 417 000a 039B     		ldr	r3, [sp, #12]
 418 000c 1A68     		ldr	r2, [r3]
 419 000e 019B     		ldr	r3, [sp, #4]
 420 0010 1A60     		str	r2, [r3]
 421              		.loc 5 675 0
 422 0012 019B     		ldr	r3, [sp, #4]
 423 0014 1B68     		ldr	r3, [r3]
 424 0016 019A     		ldr	r2, [sp, #4]
 425 0018 5A60     		str	r2, [r3, #4]
 426              		.loc 5 677 0
 427 001a 039B     		ldr	r3, [sp, #12]
 428              		.loc 5 678 0
 429 001c 1800     		movs	r0, r3
 430 001e 04B0     		add	sp, sp, #16
 431              		@ sp needed
 432 0020 7047     		bx	lr
 433              		.cfi_endproc
 434              	.LFE67:
 435              		.size	queue_fifo_remove, .-queue_fifo_remove
 436 0022 C046     		.section	.text.chSchCanYieldS,"ax",%progbits
 437              		.align	1
 438              		.p2align 4,,15
 439              		.syntax unified
 440              		.code	16
 441              		.thumb_func
 442              		.fpu softvfp
 443              		.type	chSchCanYieldS, %function
 444              	chSchCanYieldS:
 445              	.LFB71:
 446              		.loc 5 727 0
 447              		.cfi_startproc
 448              		@ args = 0, pretend = 0, frame = 0
 449              		@ frame_needed = 0, uses_anonymous_args = 0
 450 0000 10B5     		push	{r4, lr}
 451              		.cfi_def_cfa_offset 8
 452              		.cfi_offset 4, -8
 453              		.cfi_offset 14, -4
 454              		.loc 5 729 0
 455 0002 FFF7FEFF 		bl	chDbgCheckClassS
 456              		.loc 5 731 0
ARM GAS  /tmp/ccjtaYQy.s 			page 9


 457 0006 064B     		ldr	r3, .L23
 458 0008 1B68     		ldr	r3, [r3]
 459 000a 9968     		ldr	r1, [r3, #8]
 460 000c 044B     		ldr	r3, .L23
 461 000e 9B69     		ldr	r3, [r3, #24]
 462 0010 9A68     		ldr	r2, [r3, #8]
 463 0012 0023     		movs	r3, #0
 464 0014 9142     		cmp	r1, r2
 465 0016 5B41     		adcs	r3, r3, r3
 466 0018 DBB2     		uxtb	r3, r3
 467              		.loc 5 732 0
 468 001a 1800     		movs	r0, r3
 469              		@ sp needed
 470 001c 10BD     		pop	{r4, pc}
 471              	.L24:
 472 001e C046     		.align	2
 473              	.L23:
 474 0020 00000000 		.word	ch
 475              		.cfi_endproc
 476              	.LFE71:
 477              		.size	chSchCanYieldS, .-chSchCanYieldS
 478              		.section	.text.chSchDoYieldS,"ax",%progbits
 479              		.align	1
 480              		.p2align 4,,15
 481              		.syntax unified
 482              		.code	16
 483              		.thumb_func
 484              		.fpu softvfp
 485              		.type	chSchDoYieldS, %function
 486              	chSchDoYieldS:
 487              	.LFB72:
 488              		.loc 5 741 0
 489              		.cfi_startproc
 490              		@ args = 0, pretend = 0, frame = 0
 491              		@ frame_needed = 0, uses_anonymous_args = 0
 492 0000 10B5     		push	{r4, lr}
 493              		.cfi_def_cfa_offset 8
 494              		.cfi_offset 4, -8
 495              		.cfi_offset 14, -4
 496              		.loc 5 743 0
 497 0002 FFF7FEFF 		bl	chDbgCheckClassS
 498              		.loc 5 745 0
 499 0006 FFF7FEFF 		bl	chSchCanYieldS
 500 000a 031E     		subs	r3, r0, #0
 501 000c 01D0     		beq	.L27
 502              		.loc 5 746 0
 503 000e FFF7FEFF 		bl	chSchDoRescheduleBehind
 504              	.L27:
 505              		.loc 5 748 0
 506 0012 C046     		nop
 507              		@ sp needed
 508 0014 10BD     		pop	{r4, pc}
 509              		.cfi_endproc
 510              	.LFE72:
 511              		.size	chSchDoYieldS, .-chSchDoYieldS
 512 0016 C046     		.section	.text.chSysLock,"ax",%progbits
 513              		.align	1
ARM GAS  /tmp/ccjtaYQy.s 			page 10


 514              		.p2align 4,,15
 515              		.syntax unified
 516              		.code	16
 517              		.thumb_func
 518              		.fpu softvfp
 519              		.type	chSysLock, %function
 520              	chSysLock:
 521              	.LFB77:
 522              		.file 6 "ChibiOS/os/rt/include/chsys.h"
 523              		.loc 6 346 0
 524              		.cfi_startproc
 525              		@ args = 0, pretend = 0, frame = 0
 526              		@ frame_needed = 0, uses_anonymous_args = 0
 527 0000 10B5     		push	{r4, lr}
 528              		.cfi_def_cfa_offset 8
 529              		.cfi_offset 4, -8
 530              		.cfi_offset 14, -4
 531              		.loc 6 348 0
 532 0002 FFF7FEFF 		bl	port_lock
 533              		.loc 6 350 0
 534 0006 FFF7FEFF 		bl	_dbg_check_lock
 535              		.loc 6 351 0
 536 000a C046     		nop
 537              		@ sp needed
 538 000c 10BD     		pop	{r4, pc}
 539              		.cfi_endproc
 540              	.LFE77:
 541              		.size	chSysLock, .-chSysLock
 542 000e C046     		.section	.text.chSysUnlock,"ax",%progbits
 543              		.align	1
 544              		.p2align 4,,15
 545              		.syntax unified
 546              		.code	16
 547              		.thumb_func
 548              		.fpu softvfp
 549              		.type	chSysUnlock, %function
 550              	chSysUnlock:
 551              	.LFB78:
 552              		.loc 6 358 0
 553              		.cfi_startproc
 554              		@ args = 0, pretend = 0, frame = 0
 555              		@ frame_needed = 0, uses_anonymous_args = 0
 556 0000 10B5     		push	{r4, lr}
 557              		.cfi_def_cfa_offset 8
 558              		.cfi_offset 4, -8
 559              		.cfi_offset 14, -4
 560              		.loc 6 360 0
 561 0002 FFF7FEFF 		bl	_dbg_check_unlock
 562              		.loc 6 367 0
 563 0006 0A4B     		ldr	r3, .L31
 564 0008 1A68     		ldr	r2, [r3]
 565 000a 094B     		ldr	r3, .L31
 566 000c 9A42     		cmp	r2, r3
 567 000e 0BD0     		beq	.L30
 568              		.loc 6 367 0 is_stmt 0 discriminator 2
 569 0010 074B     		ldr	r3, .L31
 570 0012 9B69     		ldr	r3, [r3, #24]
ARM GAS  /tmp/ccjtaYQy.s 			page 11


 571 0014 9A68     		ldr	r2, [r3, #8]
 572 0016 064B     		ldr	r3, .L31
 573 0018 1B68     		ldr	r3, [r3]
 574 001a 9B68     		ldr	r3, [r3, #8]
 575 001c 9A42     		cmp	r2, r3
 576 001e 03D2     		bcs	.L30
 577              		.loc 6 367 0 discriminator 3
 578 0020 044B     		ldr	r3, .L31+4
 579 0022 1800     		movs	r0, r3
 580 0024 FFF7FEFF 		bl	chSysHalt
 581              	.L30:
 582              		.loc 6 371 0 is_stmt 1
 583 0028 FFF7FEFF 		bl	port_unlock
 584              		.loc 6 372 0
 585 002c C046     		nop
 586              		@ sp needed
 587 002e 10BD     		pop	{r4, pc}
 588              	.L32:
 589              		.align	2
 590              	.L31:
 591 0030 00000000 		.word	ch
 592 0034 00000000 		.word	__func__.4993
 593              		.cfi_endproc
 594              	.LFE78:
 595              		.size	chSysUnlock, .-chSysUnlock
 596              		.section	.text.chVTGetSystemTimeX,"ax",%progbits
 597              		.align	1
 598              		.p2align 4,,15
 599              		.syntax unified
 600              		.code	16
 601              		.thumb_func
 602              		.fpu softvfp
 603              		.type	chVTGetSystemTimeX, %function
 604              	chVTGetSystemTimeX:
 605              	.LFB85:
 606              		.file 7 "ChibiOS/os/rt/include/chvt.h"
 607              		.loc 7 228 0
 608              		.cfi_startproc
 609              		@ args = 0, pretend = 0, frame = 0
 610              		@ frame_needed = 0, uses_anonymous_args = 0
 611 0000 10B5     		push	{r4, lr}
 612              		.cfi_def_cfa_offset 8
 613              		.cfi_offset 4, -8
 614              		.cfi_offset 14, -4
 615              		.loc 7 233 0
 616 0002 FFF7FEFF 		bl	port_timer_get_time
 617 0006 0300     		movs	r3, r0
 618              		.loc 7 235 0
 619 0008 1800     		movs	r0, r3
 620              		@ sp needed
 621 000a 10BD     		pop	{r4, pc}
 622              		.cfi_endproc
 623              	.LFE85:
 624              		.size	chVTGetSystemTimeX, .-chVTGetSystemTimeX
 625              		.section	.text.chVTIsTimeWithinX,"ax",%progbits
 626              		.align	1
 627              		.p2align 4,,15
ARM GAS  /tmp/ccjtaYQy.s 			page 12


 628              		.syntax unified
 629              		.code	16
 630              		.thumb_func
 631              		.fpu softvfp
 632              		.type	chVTIsTimeWithinX, %function
 633              	chVTIsTimeWithinX:
 634              	.LFB88:
 635              		.loc 7 286 0
 636              		.cfi_startproc
 637              		@ args = 0, pretend = 0, frame = 8
 638              		@ frame_needed = 0, uses_anonymous_args = 0
 639 0000 10B5     		push	{r4, lr}
 640              		.cfi_def_cfa_offset 8
 641              		.cfi_offset 4, -8
 642              		.cfi_offset 14, -4
 643 0002 82B0     		sub	sp, sp, #8
 644              		.cfi_def_cfa_offset 16
 645 0004 0400     		movs	r4, r0
 646 0006 0800     		movs	r0, r1
 647 0008 1100     		movs	r1, r2
 648 000a 6B46     		mov	r3, sp
 649 000c 0633     		adds	r3, r3, #6
 650 000e 221C     		adds	r2, r4, #0
 651 0010 1A80     		strh	r2, [r3]
 652 0012 01AB     		add	r3, sp, #4
 653 0014 021C     		adds	r2, r0, #0
 654 0016 1A80     		strh	r2, [r3]
 655 0018 6B46     		mov	r3, sp
 656 001a 0233     		adds	r3, r3, #2
 657 001c 0A1C     		adds	r2, r1, #0
 658 001e 1A80     		strh	r2, [r3]
 659              		.loc 7 288 0
 660 0020 6B46     		mov	r3, sp
 661 0022 9A1D     		adds	r2, r3, #6
 662 0024 01AB     		add	r3, sp, #4
 663 0026 1288     		ldrh	r2, [r2]
 664 0028 1B88     		ldrh	r3, [r3]
 665 002a D31A     		subs	r3, r2, r3
 666 002c 9AB2     		uxth	r2, r3
 667 002e 6B46     		mov	r3, sp
 668 0030 991C     		adds	r1, r3, #2
 669 0032 01AB     		add	r3, sp, #4
 670 0034 0988     		ldrh	r1, [r1]
 671 0036 1B88     		ldrh	r3, [r3]
 672 0038 CB1A     		subs	r3, r1, r3
 673 003a 9BB2     		uxth	r3, r3
 674 003c 9A42     		cmp	r2, r3
 675 003e 9B41     		sbcs	r3, r3, r3
 676 0040 5B42     		rsbs	r3, r3, #0
 677 0042 DBB2     		uxtb	r3, r3
 678              		.loc 7 289 0
 679 0044 1800     		movs	r0, r3
 680 0046 02B0     		add	sp, sp, #8
 681              		@ sp needed
 682 0048 10BD     		pop	{r4, pc}
 683              		.cfi_endproc
 684              	.LFE88:
ARM GAS  /tmp/ccjtaYQy.s 			page 13


 685              		.size	chVTIsTimeWithinX, .-chVTIsTimeWithinX
 686 004a C046     		.section	.text.chThdGetSelfX,"ax",%progbits
 687              		.align	1
 688              		.p2align 4,,15
 689              		.syntax unified
 690              		.code	16
 691              		.thumb_func
 692              		.fpu softvfp
 693              		.type	chThdGetSelfX, %function
 694              	chThdGetSelfX:
 695              	.LFB99:
 696              		.file 8 "ChibiOS/os/rt/include/chthreads.h"
 697              		.loc 8 174 0
 698              		.cfi_startproc
 699              		@ args = 0, pretend = 0, frame = 0
 700              		@ frame_needed = 0, uses_anonymous_args = 0
 701              		@ link register save eliminated.
 702              		.loc 8 176 0
 703 0000 014B     		ldr	r3, .L39
 704 0002 9B69     		ldr	r3, [r3, #24]
 705              		.loc 8 177 0
 706 0004 1800     		movs	r0, r3
 707              		@ sp needed
 708 0006 7047     		bx	lr
 709              	.L40:
 710              		.align	2
 711              	.L39:
 712 0008 00000000 		.word	ch
 713              		.cfi_endproc
 714              	.LFE99:
 715              		.size	chThdGetSelfX, .-chThdGetSelfX
 716              		.section	.text.chThdStartI,"ax",%progbits
 717              		.align	1
 718              		.p2align 4,,15
 719              		.syntax unified
 720              		.code	16
 721              		.thumb_func
 722              		.fpu softvfp
 723              		.type	chThdStartI, %function
 724              	chThdStartI:
 725              	.LFB103:
 726              		.loc 8 245 0
 727              		.cfi_startproc
 728              		@ args = 0, pretend = 0, frame = 8
 729              		@ frame_needed = 0, uses_anonymous_args = 0
 730 0000 00B5     		push	{lr}
 731              		.cfi_def_cfa_offset 4
 732              		.cfi_offset 14, -4
 733 0002 83B0     		sub	sp, sp, #12
 734              		.cfi_def_cfa_offset 16
 735 0004 0190     		str	r0, [sp, #4]
 736              		.loc 8 247 0
 737 0006 019B     		ldr	r3, [sp, #4]
 738 0008 2022     		movs	r2, #32
 739 000a 9B5C     		ldrb	r3, [r3, r2]
 740 000c 022B     		cmp	r3, #2
 741 000e 03D0     		beq	.L42
ARM GAS  /tmp/ccjtaYQy.s 			page 14


 742              		.loc 8 247 0 is_stmt 0 discriminator 2
 743 0010 054B     		ldr	r3, .L44
 744 0012 1800     		movs	r0, r3
 745 0014 FFF7FEFF 		bl	chSysHalt
 746              	.L42:
 747              		.loc 8 249 0 is_stmt 1
 748 0018 019B     		ldr	r3, [sp, #4]
 749 001a 1800     		movs	r0, r3
 750 001c FFF7FEFF 		bl	chSchReadyI
 751 0020 0300     		movs	r3, r0
 752              		.loc 8 250 0
 753 0022 1800     		movs	r0, r3
 754 0024 03B0     		add	sp, sp, #12
 755              		@ sp needed
 756 0026 00BD     		pop	{pc}
 757              	.L45:
 758              		.align	2
 759              	.L44:
 760 0028 00000000 		.word	__func__.5163
 761              		.cfi_endproc
 762              	.LFE103:
 763              		.size	chThdStartI, .-chThdStartI
 764              		.section	.text.chThdSleepS,"ax",%progbits
 765              		.align	1
 766              		.p2align 4,,15
 767              		.syntax unified
 768              		.code	16
 769              		.thumb_func
 770              		.fpu softvfp
 771              		.type	chThdSleepS, %function
 772              	chThdSleepS:
 773              	.LFB104:
 774              		.loc 8 264 0
 775              		.cfi_startproc
 776              		@ args = 0, pretend = 0, frame = 8
 777              		@ frame_needed = 0, uses_anonymous_args = 0
 778 0000 00B5     		push	{lr}
 779              		.cfi_def_cfa_offset 4
 780              		.cfi_offset 14, -4
 781 0002 83B0     		sub	sp, sp, #12
 782              		.cfi_def_cfa_offset 16
 783 0004 0200     		movs	r2, r0
 784 0006 6B46     		mov	r3, sp
 785 0008 0633     		adds	r3, r3, #6
 786 000a 1A80     		strh	r2, [r3]
 787              		.loc 8 266 0
 788 000c 6B46     		mov	r3, sp
 789 000e 0633     		adds	r3, r3, #6
 790 0010 1B88     		ldrh	r3, [r3]
 791 0012 002B     		cmp	r3, #0
 792 0014 03D1     		bne	.L47
 793              		.loc 8 266 0 is_stmt 0 discriminator 2
 794 0016 074B     		ldr	r3, .L48
 795 0018 1800     		movs	r0, r3
 796 001a FFF7FEFF 		bl	chSysHalt
 797              	.L47:
 798              		.loc 8 268 0 is_stmt 1
ARM GAS  /tmp/ccjtaYQy.s 			page 15


 799 001e 6B46     		mov	r3, sp
 800 0020 0633     		adds	r3, r3, #6
 801 0022 1B88     		ldrh	r3, [r3]
 802 0024 1900     		movs	r1, r3
 803 0026 0820     		movs	r0, #8
 804 0028 FFF7FEFF 		bl	chSchGoSleepTimeoutS
 805              		.loc 8 269 0
 806 002c C046     		nop
 807 002e 03B0     		add	sp, sp, #12
 808              		@ sp needed
 809 0030 00BD     		pop	{pc}
 810              	.L49:
 811 0032 C046     		.align	2
 812              	.L48:
 813 0034 00000000 		.word	__func__.5167
 814              		.cfi_endproc
 815              	.LFE104:
 816              		.size	chThdSleepS, .-chThdSleepS
 817              		.section	.text.chThdDoDequeueNextI,"ax",%progbits
 818              		.align	1
 819              		.p2align 4,,15
 820              		.syntax unified
 821              		.code	16
 822              		.thumb_func
 823              		.fpu softvfp
 824              		.type	chThdDoDequeueNextI, %function
 825              	chThdDoDequeueNextI:
 826              	.LFB107:
 827              		.loc 8 311 0
 828              		.cfi_startproc
 829              		@ args = 0, pretend = 0, frame = 16
 830              		@ frame_needed = 0, uses_anonymous_args = 0
 831 0000 00B5     		push	{lr}
 832              		.cfi_def_cfa_offset 4
 833              		.cfi_offset 14, -4
 834 0002 85B0     		sub	sp, sp, #20
 835              		.cfi_def_cfa_offset 24
 836 0004 0190     		str	r0, [sp, #4]
 837 0006 0091     		str	r1, [sp]
 838              		.loc 8 314 0
 839 0008 019B     		ldr	r3, [sp, #4]
 840 000a 1800     		movs	r0, r3
 841 000c FFF7FEFF 		bl	queue_notempty
 842 0010 0300     		movs	r3, r0
 843 0012 1A00     		movs	r2, r3
 844 0014 0123     		movs	r3, #1
 845 0016 5340     		eors	r3, r2
 846 0018 DBB2     		uxtb	r3, r3
 847 001a 002B     		cmp	r3, #0
 848 001c 03D0     		beq	.L51
 849              		.loc 8 314 0 is_stmt 0 discriminator 2
 850 001e 0E4B     		ldr	r3, .L53
 851 0020 1800     		movs	r0, r3
 852 0022 FFF7FEFF 		bl	chSysHalt
 853              	.L51:
 854              		.loc 8 316 0 is_stmt 1
 855 0026 019B     		ldr	r3, [sp, #4]
ARM GAS  /tmp/ccjtaYQy.s 			page 16


 856 0028 1800     		movs	r0, r3
 857 002a FFF7FEFF 		bl	queue_fifo_remove
 858 002e 0300     		movs	r3, r0
 859 0030 0393     		str	r3, [sp, #12]
 860              		.loc 8 318 0
 861 0032 039B     		ldr	r3, [sp, #12]
 862 0034 2022     		movs	r2, #32
 863 0036 9B5C     		ldrb	r3, [r3, r2]
 864 0038 042B     		cmp	r3, #4
 865 003a 03D0     		beq	.L52
 866              		.loc 8 318 0 is_stmt 0 discriminator 2
 867 003c 064B     		ldr	r3, .L53
 868 003e 1800     		movs	r0, r3
 869 0040 FFF7FEFF 		bl	chSysHalt
 870              	.L52:
 871              		.loc 8 320 0 is_stmt 1
 872 0044 039B     		ldr	r3, [sp, #12]
 873 0046 009A     		ldr	r2, [sp]
 874 0048 5A62     		str	r2, [r3, #36]
 875              		.loc 8 321 0
 876 004a 039B     		ldr	r3, [sp, #12]
 877 004c 1800     		movs	r0, r3
 878 004e FFF7FEFF 		bl	chSchReadyI
 879              		.loc 8 322 0
 880 0052 C046     		nop
 881 0054 05B0     		add	sp, sp, #20
 882              		@ sp needed
 883 0056 00BD     		pop	{pc}
 884              	.L54:
 885              		.align	2
 886              	.L53:
 887 0058 00000000 		.word	__func__.5179
 888              		.cfi_endproc
 889              	.LFE107:
 890              		.size	chThdDoDequeueNextI, .-chThdDoDequeueNextI
 891              		.section	.text._thread_init,"ax",%progbits
 892              		.align	1
 893              		.p2align 4,,15
 894              		.global	_thread_init
 895              		.syntax unified
 896              		.code	16
 897              		.thumb_func
 898              		.fpu softvfp
 899              		.type	_thread_init, %function
 900              	_thread_init:
 901              	.LFB152:
 902              		.file 9 "ChibiOS/os/rt/src/chthreads.c"
 903              		.loc 9 91 0
 904              		.cfi_startproc
 905              		@ args = 0, pretend = 0, frame = 8
 906              		@ frame_needed = 0, uses_anonymous_args = 0
 907 0000 00B5     		push	{lr}
 908              		.cfi_def_cfa_offset 4
 909              		.cfi_offset 14, -4
 910 0002 83B0     		sub	sp, sp, #12
 911              		.cfi_def_cfa_offset 16
 912 0004 0190     		str	r0, [sp, #4]
ARM GAS  /tmp/ccjtaYQy.s 			page 17


 913 0006 0091     		str	r1, [sp]
 914              		.loc 9 93 0
 915 0008 019B     		ldr	r3, [sp, #4]
 916 000a 009A     		ldr	r2, [sp]
 917 000c 9A60     		str	r2, [r3, #8]
 918              		.loc 9 94 0
 919 000e 019B     		ldr	r3, [sp, #4]
 920 0010 2022     		movs	r2, #32
 921 0012 0221     		movs	r1, #2
 922 0014 9954     		strb	r1, [r3, r2]
 923              		.loc 9 95 0
 924 0016 019B     		ldr	r3, [sp, #4]
 925 0018 2122     		movs	r2, #33
 926 001a 0021     		movs	r1, #0
 927 001c 9954     		strb	r1, [r3, r2]
 928              		.loc 9 100 0
 929 001e 019B     		ldr	r3, [sp, #4]
 930 0020 009A     		ldr	r2, [sp]
 931 0022 1A64     		str	r2, [r3, #64]
 932              		.loc 9 101 0
 933 0024 019B     		ldr	r3, [sp, #4]
 934 0026 0022     		movs	r2, #0
 935 0028 DA63     		str	r2, [r3, #60]
 936              		.loc 9 104 0
 937 002a 019B     		ldr	r3, [sp, #4]
 938 002c 0022     		movs	r2, #0
 939 002e 9A63     		str	r2, [r3, #56]
 940              		.loc 9 110 0
 941 0030 019B     		ldr	r3, [sp, #4]
 942 0032 2222     		movs	r2, #34
 943 0034 0121     		movs	r1, #1
 944 0036 9954     		strb	r1, [r3, r2]
 945              		.loc 9 113 0
 946 0038 019B     		ldr	r3, [sp, #4]
 947 003a 0022     		movs	r2, #0
 948 003c 9A61     		str	r2, [r3, #24]
 949              		.loc 9 114 0
 950 003e 019B     		ldr	r3, [sp, #4]
 951 0040 0F4A     		ldr	r2, .L57
 952 0042 1A61     		str	r2, [r3, #16]
 953 0044 0E4B     		ldr	r3, .L57
 954 0046 5A69     		ldr	r2, [r3, #20]
 955 0048 019B     		ldr	r3, [sp, #4]
 956 004a 5A61     		str	r2, [r3, #20]
 957 004c 019B     		ldr	r3, [sp, #4]
 958 004e 5B69     		ldr	r3, [r3, #20]
 959 0050 019A     		ldr	r2, [sp, #4]
 960 0052 1A61     		str	r2, [r3, #16]
 961 0054 0A4B     		ldr	r3, .L57
 962 0056 019A     		ldr	r2, [sp, #4]
 963 0058 5A61     		str	r2, [r3, #20]
 964              		.loc 9 117 0
 965 005a 019B     		ldr	r3, [sp, #4]
 966 005c 2833     		adds	r3, r3, #40
 967 005e 1800     		movs	r0, r3
 968 0060 FFF7FEFF 		bl	list_init
 969              		.loc 9 120 0
ARM GAS  /tmp/ccjtaYQy.s 			page 18


 970 0064 019B     		ldr	r3, [sp, #4]
 971 0066 2C33     		adds	r3, r3, #44
 972 0068 1800     		movs	r0, r3
 973 006a FFF7FEFF 		bl	queue_init
 974              		.loc 9 123 0
 975 006e 019B     		ldr	r3, [sp, #4]
 976 0070 4833     		adds	r3, r3, #72
 977 0072 1A00     		movs	r2, r3
 978 0074 019B     		ldr	r3, [sp, #4]
 979 0076 DA61     		str	r2, [r3, #28]
 980              		.loc 9 131 0
 981 0078 019B     		ldr	r3, [sp, #4]
 982              		.loc 9 132 0
 983 007a 1800     		movs	r0, r3
 984 007c 03B0     		add	sp, sp, #12
 985              		@ sp needed
 986 007e 00BD     		pop	{pc}
 987              	.L58:
 988              		.align	2
 989              	.L57:
 990 0080 00000000 		.word	ch
 991              		.cfi_endproc
 992              	.LFE152:
 993              		.size	_thread_init, .-_thread_init
 994              		.section	.text._thread_memfill,"ax",%progbits
 995              		.align	1
 996              		.p2align 4,,15
 997              		.global	_thread_memfill
 998              		.syntax unified
 999              		.code	16
 1000              		.thumb_func
 1001              		.fpu softvfp
 1002              		.type	_thread_memfill, %function
 1003              	_thread_memfill:
 1004              	.LFB153:
 1005              		.loc 9 144 0
 1006              		.cfi_startproc
 1007              		@ args = 0, pretend = 0, frame = 16
 1008              		@ frame_needed = 0, uses_anonymous_args = 0
 1009              		@ link register save eliminated.
 1010 0000 84B0     		sub	sp, sp, #16
 1011              		.cfi_def_cfa_offset 16
 1012 0002 0390     		str	r0, [sp, #12]
 1013 0004 0291     		str	r1, [sp, #8]
 1014 0006 6B46     		mov	r3, sp
 1015 0008 0733     		adds	r3, r3, #7
 1016 000a 1A70     		strb	r2, [r3]
 1017              		.loc 9 146 0
 1018 000c 06E0     		b	.L60
 1019              	.L61:
 1020              		.loc 9 147 0
 1021 000e 039B     		ldr	r3, [sp, #12]
 1022 0010 5A1C     		adds	r2, r3, #1
 1023 0012 0392     		str	r2, [sp, #12]
 1024 0014 6A46     		mov	r2, sp
 1025 0016 0732     		adds	r2, r2, #7
 1026 0018 1278     		ldrb	r2, [r2]
ARM GAS  /tmp/ccjtaYQy.s 			page 19


 1027 001a 1A70     		strb	r2, [r3]
 1028              	.L60:
 1029              		.loc 9 146 0
 1030 001c 039A     		ldr	r2, [sp, #12]
 1031 001e 029B     		ldr	r3, [sp, #8]
 1032 0020 9A42     		cmp	r2, r3
 1033 0022 F4D3     		bcc	.L61
 1034              		.loc 9 149 0
 1035 0024 C046     		nop
 1036 0026 04B0     		add	sp, sp, #16
 1037              		@ sp needed
 1038 0028 7047     		bx	lr
 1039              		.cfi_endproc
 1040              	.LFE153:
 1041              		.size	_thread_memfill, .-_thread_memfill
 1042 002a C046     		.section	.text.chThdCreateI,"ax",%progbits
 1043              		.align	1
 1044              		.p2align 4,,15
 1045              		.global	chThdCreateI
 1046              		.syntax unified
 1047              		.code	16
 1048              		.thumb_func
 1049              		.fpu softvfp
 1050              		.type	chThdCreateI, %function
 1051              	chThdCreateI:
 1052              	.LFB154:
 1053              		.loc 9 177 0
 1054              		.cfi_startproc
 1055              		@ args = 4, pretend = 0, frame = 24
 1056              		@ frame_needed = 0, uses_anonymous_args = 0
 1057 0000 00B5     		push	{lr}
 1058              		.cfi_def_cfa_offset 4
 1059              		.cfi_offset 14, -4
 1060 0002 87B0     		sub	sp, sp, #28
 1061              		.cfi_def_cfa_offset 32
 1062 0004 0390     		str	r0, [sp, #12]
 1063 0006 0291     		str	r1, [sp, #8]
 1064 0008 0192     		str	r2, [sp, #4]
 1065 000a 0093     		str	r3, [sp]
 1066              		.loc 9 180 0
 1067 000c 039B     		ldr	r3, [sp, #12]
 1068 000e 0593     		str	r3, [sp, #20]
 1069              		.loc 9 182 0
 1070 0010 FFF7FEFF 		bl	chDbgCheckClassI
 1071              		.loc 9 183 0
 1072 0014 039B     		ldr	r3, [sp, #12]
 1073 0016 002B     		cmp	r3, #0
 1074 0018 08D0     		beq	.L63
 1075              		.loc 9 183 0 is_stmt 0 discriminator 3
 1076 001a 029B     		ldr	r3, [sp, #8]
 1077 001c CF2B     		cmp	r3, #207
 1078 001e 05D9     		bls	.L63
 1079              		.loc 9 183 0 discriminator 5
 1080 0020 019B     		ldr	r3, [sp, #4]
 1081 0022 7F2B     		cmp	r3, #127
 1082 0024 02D8     		bhi	.L63
 1083              		.loc 9 183 0 discriminator 7
ARM GAS  /tmp/ccjtaYQy.s 			page 20


 1084 0026 009B     		ldr	r3, [sp]
 1085 0028 002B     		cmp	r3, #0
 1086 002a 03D1     		bne	.L64
 1087              	.L63:
 1088              		.loc 9 183 0 discriminator 8
 1089 002c 0F4B     		ldr	r3, .L66
 1090 002e 1800     		movs	r0, r3
 1091 0030 FFF7FEFF 		bl	chSysHalt
 1092              	.L64:
 1093              		.loc 9 186 0 is_stmt 1
 1094 0034 029B     		ldr	r3, [sp, #8]
 1095 0036 243B     		subs	r3, r3, #36
 1096 0038 039A     		ldr	r2, [sp, #12]
 1097 003a D218     		adds	r2, r2, r3
 1098 003c 059B     		ldr	r3, [sp, #20]
 1099 003e DA60     		str	r2, [r3, #12]
 1100 0040 059B     		ldr	r3, [sp, #20]
 1101 0042 DB68     		ldr	r3, [r3, #12]
 1102 0044 009A     		ldr	r2, [sp]
 1103 0046 1A61     		str	r2, [r3, #16]
 1104 0048 059B     		ldr	r3, [sp, #20]
 1105 004a DB68     		ldr	r3, [r3, #12]
 1106 004c 089A     		ldr	r2, [sp, #32]
 1107 004e 5A61     		str	r2, [r3, #20]
 1108 0050 059B     		ldr	r3, [sp, #20]
 1109 0052 DB68     		ldr	r3, [r3, #12]
 1110 0054 064A     		ldr	r2, .L66+4
 1111 0056 1A62     		str	r2, [r3, #32]
 1112              		.loc 9 188 0
 1113 0058 019A     		ldr	r2, [sp, #4]
 1114 005a 059B     		ldr	r3, [sp, #20]
 1115 005c 1100     		movs	r1, r2
 1116 005e 1800     		movs	r0, r3
 1117 0060 FFF7FEFF 		bl	_thread_init
 1118 0064 0300     		movs	r3, r0
 1119              		.loc 9 189 0
 1120 0066 1800     		movs	r0, r3
 1121 0068 07B0     		add	sp, sp, #28
 1122              		@ sp needed
 1123 006a 00BD     		pop	{pc}
 1124              	.L67:
 1125              		.align	2
 1126              	.L66:
 1127 006c 00000000 		.word	__func__.5713
 1128 0070 00000000 		.word	_port_thread_start
 1129              		.cfi_endproc
 1130              	.LFE154:
 1131              		.size	chThdCreateI, .-chThdCreateI
 1132              		.section	.text.chThdCreateStatic,"ax",%progbits
 1133              		.align	1
 1134              		.p2align 4,,15
 1135              		.global	chThdCreateStatic
 1136              		.syntax unified
 1137              		.code	16
 1138              		.thumb_func
 1139              		.fpu softvfp
 1140              		.type	chThdCreateStatic, %function
ARM GAS  /tmp/ccjtaYQy.s 			page 21


 1141              	chThdCreateStatic:
 1142              	.LFB155:
 1143              		.loc 9 208 0
 1144              		.cfi_startproc
 1145              		@ args = 4, pretend = 0, frame = 24
 1146              		@ frame_needed = 0, uses_anonymous_args = 0
 1147 0000 10B5     		push	{r4, lr}
 1148              		.cfi_def_cfa_offset 8
 1149              		.cfi_offset 4, -8
 1150              		.cfi_offset 14, -4
 1151 0002 88B0     		sub	sp, sp, #32
 1152              		.cfi_def_cfa_offset 40
 1153 0004 0590     		str	r0, [sp, #20]
 1154 0006 0491     		str	r1, [sp, #16]
 1155 0008 0392     		str	r2, [sp, #12]
 1156 000a 0293     		str	r3, [sp, #8]
 1157              		.loc 9 212 0
 1158 000c 059B     		ldr	r3, [sp, #20]
 1159 000e 4833     		adds	r3, r3, #72
 1160 0010 1900     		movs	r1, r3
 1161 0012 059B     		ldr	r3, [sp, #20]
 1162 0014 FF22     		movs	r2, #255
 1163 0016 1800     		movs	r0, r3
 1164 0018 FFF7FEFF 		bl	_thread_memfill
 1165              		.loc 9 215 0
 1166 001c 059B     		ldr	r3, [sp, #20]
 1167 001e 4833     		adds	r3, r3, #72
 1168 0020 1800     		movs	r0, r3
 1169 0022 059A     		ldr	r2, [sp, #20]
 1170 0024 049B     		ldr	r3, [sp, #16]
 1171 0026 D318     		adds	r3, r2, r3
 1172 0028 5522     		movs	r2, #85
 1173 002a 1900     		movs	r1, r3
 1174 002c FFF7FEFF 		bl	_thread_memfill
 1175              		.loc 9 220 0
 1176 0030 FFF7FEFF 		bl	chSysLock
 1177              		.loc 9 221 0
 1178 0034 029C     		ldr	r4, [sp, #8]
 1179 0036 039A     		ldr	r2, [sp, #12]
 1180 0038 0499     		ldr	r1, [sp, #16]
 1181 003a 0598     		ldr	r0, [sp, #20]
 1182 003c 0A9B     		ldr	r3, [sp, #40]
 1183 003e 0093     		str	r3, [sp]
 1184 0040 2300     		movs	r3, r4
 1185 0042 FFF7FEFF 		bl	chThdCreateI
 1186 0046 0300     		movs	r3, r0
 1187 0048 0793     		str	r3, [sp, #28]
 1188              		.loc 9 222 0
 1189 004a 079B     		ldr	r3, [sp, #28]
 1190 004c 0021     		movs	r1, #0
 1191 004e 1800     		movs	r0, r3
 1192 0050 FFF7FEFF 		bl	chSchWakeupS
 1193              		.loc 9 223 0
 1194 0054 FFF7FEFF 		bl	chSysUnlock
 1195              		.loc 9 225 0
 1196 0058 079B     		ldr	r3, [sp, #28]
 1197              		.loc 9 226 0
ARM GAS  /tmp/ccjtaYQy.s 			page 22


 1198 005a 1800     		movs	r0, r3
 1199 005c 08B0     		add	sp, sp, #32
 1200              		@ sp needed
 1201 005e 10BD     		pop	{r4, pc}
 1202              		.cfi_endproc
 1203              	.LFE155:
 1204              		.size	chThdCreateStatic, .-chThdCreateStatic
 1205              		.section	.text.chThdStart,"ax",%progbits
 1206              		.align	1
 1207              		.p2align 4,,15
 1208              		.global	chThdStart
 1209              		.syntax unified
 1210              		.code	16
 1211              		.thumb_func
 1212              		.fpu softvfp
 1213              		.type	chThdStart, %function
 1214              	chThdStart:
 1215              	.LFB156:
 1216              		.loc 9 237 0
 1217              		.cfi_startproc
 1218              		@ args = 0, pretend = 0, frame = 8
 1219              		@ frame_needed = 0, uses_anonymous_args = 0
 1220 0000 00B5     		push	{lr}
 1221              		.cfi_def_cfa_offset 4
 1222              		.cfi_offset 14, -4
 1223 0002 83B0     		sub	sp, sp, #12
 1224              		.cfi_def_cfa_offset 16
 1225 0004 0190     		str	r0, [sp, #4]
 1226              		.loc 9 239 0
 1227 0006 FFF7FEFF 		bl	chSysLock
 1228              		.loc 9 240 0
 1229 000a 019B     		ldr	r3, [sp, #4]
 1230 000c 1800     		movs	r0, r3
 1231 000e FFF7FEFF 		bl	chThdStartI
 1232 0012 0300     		movs	r3, r0
 1233 0014 0193     		str	r3, [sp, #4]
 1234              		.loc 9 241 0
 1235 0016 FFF7FEFF 		bl	chSysUnlock
 1236              		.loc 9 243 0
 1237 001a 019B     		ldr	r3, [sp, #4]
 1238              		.loc 9 244 0
 1239 001c 1800     		movs	r0, r3
 1240 001e 03B0     		add	sp, sp, #12
 1241              		@ sp needed
 1242 0020 00BD     		pop	{pc}
 1243              		.cfi_endproc
 1244              	.LFE156:
 1245              		.size	chThdStart, .-chThdStart
 1246 0022 C046     		.section	.text.chThdSetPriority,"ax",%progbits
 1247              		.align	1
 1248              		.p2align 4,,15
 1249              		.global	chThdSetPriority
 1250              		.syntax unified
 1251              		.code	16
 1252              		.thumb_func
 1253              		.fpu softvfp
 1254              		.type	chThdSetPriority, %function
ARM GAS  /tmp/ccjtaYQy.s 			page 23


 1255              	chThdSetPriority:
 1256              	.LFB157:
 1257              		.loc 9 258 0
 1258              		.cfi_startproc
 1259              		@ args = 0, pretend = 0, frame = 16
 1260              		@ frame_needed = 0, uses_anonymous_args = 0
 1261 0000 00B5     		push	{lr}
 1262              		.cfi_def_cfa_offset 4
 1263              		.cfi_offset 14, -4
 1264 0002 85B0     		sub	sp, sp, #20
 1265              		.cfi_def_cfa_offset 24
 1266 0004 0190     		str	r0, [sp, #4]
 1267              		.loc 9 261 0
 1268 0006 019B     		ldr	r3, [sp, #4]
 1269 0008 7F2B     		cmp	r3, #127
 1270 000a 03D9     		bls	.L73
 1271              		.loc 9 261 0 is_stmt 0 discriminator 2
 1272 000c 134B     		ldr	r3, .L77
 1273 000e 1800     		movs	r0, r3
 1274 0010 FFF7FEFF 		bl	chSysHalt
 1275              	.L73:
 1276              		.loc 9 263 0 is_stmt 1
 1277 0014 FFF7FEFF 		bl	chSysLock
 1278              		.loc 9 265 0
 1279 0018 114B     		ldr	r3, .L77+4
 1280 001a 9B69     		ldr	r3, [r3, #24]
 1281 001c 1B6C     		ldr	r3, [r3, #64]
 1282 001e 0393     		str	r3, [sp, #12]
 1283              		.loc 9 266 0
 1284 0020 0F4B     		ldr	r3, .L77+4
 1285 0022 9B69     		ldr	r3, [r3, #24]
 1286 0024 9A68     		ldr	r2, [r3, #8]
 1287 0026 0E4B     		ldr	r3, .L77+4
 1288 0028 9B69     		ldr	r3, [r3, #24]
 1289 002a 1B6C     		ldr	r3, [r3, #64]
 1290 002c 9A42     		cmp	r2, r3
 1291 002e 05D0     		beq	.L74
 1292              		.loc 9 266 0 is_stmt 0 discriminator 1
 1293 0030 0B4B     		ldr	r3, .L77+4
 1294 0032 9B69     		ldr	r3, [r3, #24]
 1295 0034 9A68     		ldr	r2, [r3, #8]
 1296 0036 019B     		ldr	r3, [sp, #4]
 1297 0038 9A42     		cmp	r2, r3
 1298 003a 03D2     		bcs	.L75
 1299              	.L74:
 1300              		.loc 9 267 0 is_stmt 1
 1301 003c 084B     		ldr	r3, .L77+4
 1302 003e 9B69     		ldr	r3, [r3, #24]
 1303 0040 019A     		ldr	r2, [sp, #4]
 1304 0042 9A60     		str	r2, [r3, #8]
 1305              	.L75:
 1306              		.loc 9 269 0
 1307 0044 064B     		ldr	r3, .L77+4
 1308 0046 9B69     		ldr	r3, [r3, #24]
 1309 0048 019A     		ldr	r2, [sp, #4]
 1310 004a 1A64     		str	r2, [r3, #64]
 1311              		.loc 9 274 0
ARM GAS  /tmp/ccjtaYQy.s 			page 24


 1312 004c FFF7FEFF 		bl	chSchRescheduleS
 1313              		.loc 9 275 0
 1314 0050 FFF7FEFF 		bl	chSysUnlock
 1315              		.loc 9 277 0
 1316 0054 039B     		ldr	r3, [sp, #12]
 1317              		.loc 9 278 0
 1318 0056 1800     		movs	r0, r3
 1319 0058 05B0     		add	sp, sp, #20
 1320              		@ sp needed
 1321 005a 00BD     		pop	{pc}
 1322              	.L78:
 1323              		.align	2
 1324              	.L77:
 1325 005c 00000000 		.word	__func__.5729
 1326 0060 00000000 		.word	ch
 1327              		.cfi_endproc
 1328              	.LFE157:
 1329              		.size	chThdSetPriority, .-chThdSetPriority
 1330              		.section	.text.chThdTerminate,"ax",%progbits
 1331              		.align	1
 1332              		.p2align 4,,15
 1333              		.global	chThdTerminate
 1334              		.syntax unified
 1335              		.code	16
 1336              		.thumb_func
 1337              		.fpu softvfp
 1338              		.type	chThdTerminate, %function
 1339              	chThdTerminate:
 1340              	.LFB158:
 1341              		.loc 9 292 0
 1342              		.cfi_startproc
 1343              		@ args = 0, pretend = 0, frame = 8
 1344              		@ frame_needed = 0, uses_anonymous_args = 0
 1345 0000 00B5     		push	{lr}
 1346              		.cfi_def_cfa_offset 4
 1347              		.cfi_offset 14, -4
 1348 0002 83B0     		sub	sp, sp, #12
 1349              		.cfi_def_cfa_offset 16
 1350 0004 0190     		str	r0, [sp, #4]
 1351              		.loc 9 294 0
 1352 0006 FFF7FEFF 		bl	chSysLock
 1353              		.loc 9 295 0
 1354 000a 019B     		ldr	r3, [sp, #4]
 1355 000c 2122     		movs	r2, #33
 1356 000e 9B5C     		ldrb	r3, [r3, r2]
 1357 0010 0422     		movs	r2, #4
 1358 0012 1343     		orrs	r3, r2
 1359 0014 D9B2     		uxtb	r1, r3
 1360 0016 019B     		ldr	r3, [sp, #4]
 1361 0018 2122     		movs	r2, #33
 1362 001a 9954     		strb	r1, [r3, r2]
 1363              		.loc 9 296 0
 1364 001c FFF7FEFF 		bl	chSysUnlock
 1365              		.loc 9 297 0
 1366 0020 C046     		nop
 1367 0022 03B0     		add	sp, sp, #12
 1368              		@ sp needed
ARM GAS  /tmp/ccjtaYQy.s 			page 25


 1369 0024 00BD     		pop	{pc}
 1370              		.cfi_endproc
 1371              	.LFE158:
 1372              		.size	chThdTerminate, .-chThdTerminate
 1373 0026 C046     		.section	.text.chThdSleep,"ax",%progbits
 1374              		.align	1
 1375              		.p2align 4,,15
 1376              		.global	chThdSleep
 1377              		.syntax unified
 1378              		.code	16
 1379              		.thumb_func
 1380              		.fpu softvfp
 1381              		.type	chThdSleep, %function
 1382              	chThdSleep:
 1383              	.LFB159:
 1384              		.loc 9 311 0
 1385              		.cfi_startproc
 1386              		@ args = 0, pretend = 0, frame = 8
 1387              		@ frame_needed = 0, uses_anonymous_args = 0
 1388 0000 00B5     		push	{lr}
 1389              		.cfi_def_cfa_offset 4
 1390              		.cfi_offset 14, -4
 1391 0002 83B0     		sub	sp, sp, #12
 1392              		.cfi_def_cfa_offset 16
 1393 0004 0200     		movs	r2, r0
 1394 0006 6B46     		mov	r3, sp
 1395 0008 0633     		adds	r3, r3, #6
 1396 000a 1A80     		strh	r2, [r3]
 1397              		.loc 9 313 0
 1398 000c FFF7FEFF 		bl	chSysLock
 1399              		.loc 9 314 0
 1400 0010 6B46     		mov	r3, sp
 1401 0012 0633     		adds	r3, r3, #6
 1402 0014 1B88     		ldrh	r3, [r3]
 1403 0016 1800     		movs	r0, r3
 1404 0018 FFF7FEFF 		bl	chThdSleepS
 1405              		.loc 9 315 0
 1406 001c FFF7FEFF 		bl	chSysUnlock
 1407              		.loc 9 316 0
 1408 0020 C046     		nop
 1409 0022 03B0     		add	sp, sp, #12
 1410              		@ sp needed
 1411 0024 00BD     		pop	{pc}
 1412              		.cfi_endproc
 1413              	.LFE159:
 1414              		.size	chThdSleep, .-chThdSleep
 1415 0026 C046     		.section	.text.chThdSleepUntil,"ax",%progbits
 1416              		.align	1
 1417              		.p2align 4,,15
 1418              		.global	chThdSleepUntil
 1419              		.syntax unified
 1420              		.code	16
 1421              		.thumb_func
 1422              		.fpu softvfp
 1423              		.type	chThdSleepUntil, %function
 1424              	chThdSleepUntil:
 1425              	.LFB160:
ARM GAS  /tmp/ccjtaYQy.s 			page 26


 1426              		.loc 9 331 0
 1427              		.cfi_startproc
 1428              		@ args = 0, pretend = 0, frame = 8
 1429              		@ frame_needed = 0, uses_anonymous_args = 0
 1430 0000 00B5     		push	{lr}
 1431              		.cfi_def_cfa_offset 4
 1432              		.cfi_offset 14, -4
 1433 0002 83B0     		sub	sp, sp, #12
 1434              		.cfi_def_cfa_offset 16
 1435 0004 0200     		movs	r2, r0
 1436 0006 6B46     		mov	r3, sp
 1437 0008 0633     		adds	r3, r3, #6
 1438 000a 1A80     		strh	r2, [r3]
 1439              		.loc 9 333 0
 1440 000c FFF7FEFF 		bl	chSysLock
 1441              		.loc 9 334 0
 1442 0010 FFF7FEFF 		bl	chVTGetSystemTimeX
 1443 0014 0300     		movs	r3, r0
 1444 0016 1900     		movs	r1, r3
 1445 0018 6B46     		mov	r3, sp
 1446 001a 0633     		adds	r3, r3, #6
 1447 001c 6A46     		mov	r2, sp
 1448 001e 0632     		adds	r2, r2, #6
 1449 0020 1288     		ldrh	r2, [r2]
 1450 0022 521A     		subs	r2, r2, r1
 1451 0024 1A80     		strh	r2, [r3]
 1452              		.loc 9 335 0
 1453 0026 6B46     		mov	r3, sp
 1454 0028 0633     		adds	r3, r3, #6
 1455 002a 1B88     		ldrh	r3, [r3]
 1456 002c 002B     		cmp	r3, #0
 1457 002e 05D0     		beq	.L82
 1458              		.loc 9 336 0
 1459 0030 6B46     		mov	r3, sp
 1460 0032 0633     		adds	r3, r3, #6
 1461 0034 1B88     		ldrh	r3, [r3]
 1462 0036 1800     		movs	r0, r3
 1463 0038 FFF7FEFF 		bl	chThdSleepS
 1464              	.L82:
 1465              		.loc 9 338 0
 1466 003c FFF7FEFF 		bl	chSysUnlock
 1467              		.loc 9 339 0
 1468 0040 C046     		nop
 1469 0042 03B0     		add	sp, sp, #12
 1470              		@ sp needed
 1471 0044 00BD     		pop	{pc}
 1472              		.cfi_endproc
 1473              	.LFE160:
 1474              		.size	chThdSleepUntil, .-chThdSleepUntil
 1475 0046 C046     		.section	.text.chThdSleepUntilWindowed,"ax",%progbits
 1476              		.align	1
 1477              		.p2align 4,,15
 1478              		.global	chThdSleepUntilWindowed
 1479              		.syntax unified
 1480              		.code	16
 1481              		.thumb_func
 1482              		.fpu softvfp
ARM GAS  /tmp/ccjtaYQy.s 			page 27


 1483              		.type	chThdSleepUntilWindowed, %function
 1484              	chThdSleepUntilWindowed:
 1485              	.LFB161:
 1486              		.loc 9 355 0
 1487              		.cfi_startproc
 1488              		@ args = 0, pretend = 0, frame = 16
 1489              		@ frame_needed = 0, uses_anonymous_args = 0
 1490 0000 10B5     		push	{r4, lr}
 1491              		.cfi_def_cfa_offset 8
 1492              		.cfi_offset 4, -8
 1493              		.cfi_offset 14, -4
 1494 0002 84B0     		sub	sp, sp, #16
 1495              		.cfi_def_cfa_offset 24
 1496 0004 0200     		movs	r2, r0
 1497 0006 6B46     		mov	r3, sp
 1498 0008 0633     		adds	r3, r3, #6
 1499 000a 1A80     		strh	r2, [r3]
 1500 000c 01AB     		add	r3, sp, #4
 1501 000e 0A1C     		adds	r2, r1, #0
 1502 0010 1A80     		strh	r2, [r3]
 1503              		.loc 9 358 0
 1504 0012 FFF7FEFF 		bl	chSysLock
 1505              		.loc 9 359 0
 1506 0016 0E24     		movs	r4, #14
 1507 0018 6C44     		add	r4, r4, sp
 1508 001a FFF7FEFF 		bl	chVTGetSystemTimeX
 1509 001e 0300     		movs	r3, r0
 1510 0020 2380     		strh	r3, [r4]
 1511              		.loc 9 360 0
 1512 0022 01AB     		add	r3, sp, #4
 1513 0024 1A88     		ldrh	r2, [r3]
 1514 0026 6B46     		mov	r3, sp
 1515 0028 0633     		adds	r3, r3, #6
 1516 002a 1988     		ldrh	r1, [r3]
 1517 002c 0E23     		movs	r3, #14
 1518 002e 6B44     		add	r3, r3, sp
 1519 0030 1B88     		ldrh	r3, [r3]
 1520 0032 1800     		movs	r0, r3
 1521 0034 FFF7FEFF 		bl	chVTIsTimeWithinX
 1522 0038 031E     		subs	r3, r0, #0
 1523 003a 09D0     		beq	.L84
 1524              		.loc 9 361 0
 1525 003c 01AA     		add	r2, sp, #4
 1526 003e 0E23     		movs	r3, #14
 1527 0040 6B44     		add	r3, r3, sp
 1528 0042 1288     		ldrh	r2, [r2]
 1529 0044 1B88     		ldrh	r3, [r3]
 1530 0046 D31A     		subs	r3, r2, r3
 1531 0048 9BB2     		uxth	r3, r3
 1532 004a 1800     		movs	r0, r3
 1533 004c FFF7FEFF 		bl	chThdSleepS
 1534              	.L84:
 1535              		.loc 9 363 0
 1536 0050 FFF7FEFF 		bl	chSysUnlock
 1537              		.loc 9 365 0
 1538 0054 01AB     		add	r3, sp, #4
 1539 0056 1B88     		ldrh	r3, [r3]
ARM GAS  /tmp/ccjtaYQy.s 			page 28


 1540              		.loc 9 366 0
 1541 0058 1800     		movs	r0, r3
 1542 005a 04B0     		add	sp, sp, #16
 1543              		@ sp needed
 1544 005c 10BD     		pop	{r4, pc}
 1545              		.cfi_endproc
 1546              	.LFE161:
 1547              		.size	chThdSleepUntilWindowed, .-chThdSleepUntilWindowed
 1548 005e C046     		.section	.text.chThdYield,"ax",%progbits
 1549              		.align	1
 1550              		.p2align 4,,15
 1551              		.global	chThdYield
 1552              		.syntax unified
 1553              		.code	16
 1554              		.thumb_func
 1555              		.fpu softvfp
 1556              		.type	chThdYield, %function
 1557              	chThdYield:
 1558              	.LFB162:
 1559              		.loc 9 375 0
 1560              		.cfi_startproc
 1561              		@ args = 0, pretend = 0, frame = 0
 1562              		@ frame_needed = 0, uses_anonymous_args = 0
 1563 0000 10B5     		push	{r4, lr}
 1564              		.cfi_def_cfa_offset 8
 1565              		.cfi_offset 4, -8
 1566              		.cfi_offset 14, -4
 1567              		.loc 9 377 0
 1568 0002 FFF7FEFF 		bl	chSysLock
 1569              		.loc 9 378 0
 1570 0006 FFF7FEFF 		bl	chSchDoYieldS
 1571              		.loc 9 379 0
 1572 000a FFF7FEFF 		bl	chSysUnlock
 1573              		.loc 9 380 0
 1574 000e C046     		nop
 1575              		@ sp needed
 1576 0010 10BD     		pop	{r4, pc}
 1577              		.cfi_endproc
 1578              	.LFE162:
 1579              		.size	chThdYield, .-chThdYield
 1580 0012 C046     		.section	.text.chThdExit,"ax",%progbits
 1581              		.align	1
 1582              		.p2align 4,,15
 1583              		.global	chThdExit
 1584              		.syntax unified
 1585              		.code	16
 1586              		.thumb_func
 1587              		.fpu softvfp
 1588              		.type	chThdExit, %function
 1589              	chThdExit:
 1590              	.LFB163:
 1591              		.loc 9 396 0
 1592              		.cfi_startproc
 1593              		@ args = 0, pretend = 0, frame = 8
 1594              		@ frame_needed = 0, uses_anonymous_args = 0
 1595 0000 00B5     		push	{lr}
 1596              		.cfi_def_cfa_offset 4
ARM GAS  /tmp/ccjtaYQy.s 			page 29


 1597              		.cfi_offset 14, -4
 1598 0002 83B0     		sub	sp, sp, #12
 1599              		.cfi_def_cfa_offset 16
 1600 0004 0190     		str	r0, [sp, #4]
 1601              		.loc 9 398 0
 1602 0006 FFF7FEFF 		bl	chSysLock
 1603              		.loc 9 399 0
 1604 000a 019B     		ldr	r3, [sp, #4]
 1605 000c 1800     		movs	r0, r3
 1606 000e FFF7FEFF 		bl	chThdExitS
 1607              		.loc 9 401 0
 1608 0012 C046     		nop
 1609 0014 03B0     		add	sp, sp, #12
 1610              		@ sp needed
 1611 0016 00BD     		pop	{pc}
 1612              		.cfi_endproc
 1613              	.LFE163:
 1614              		.size	chThdExit, .-chThdExit
 1615              		.section	.text.chThdExitS,"ax",%progbits
 1616              		.align	1
 1617              		.p2align 4,,15
 1618              		.global	chThdExitS
 1619              		.syntax unified
 1620              		.code	16
 1621              		.thumb_func
 1622              		.fpu softvfp
 1623              		.type	chThdExitS, %function
 1624              	chThdExitS:
 1625              	.LFB164:
 1626              		.loc 9 417 0
 1627              		.cfi_startproc
 1628              		@ args = 0, pretend = 0, frame = 16
 1629              		@ frame_needed = 0, uses_anonymous_args = 0
 1630 0000 00B5     		push	{lr}
 1631              		.cfi_def_cfa_offset 4
 1632              		.cfi_offset 14, -4
 1633 0002 85B0     		sub	sp, sp, #20
 1634              		.cfi_def_cfa_offset 24
 1635 0004 0190     		str	r0, [sp, #4]
 1636              		.loc 9 418 0
 1637 0006 194B     		ldr	r3, .L92
 1638 0008 9B69     		ldr	r3, [r3, #24]
 1639 000a 0393     		str	r3, [sp, #12]
 1640              		.loc 9 420 0
 1641 000c 039B     		ldr	r3, [sp, #12]
 1642 000e 019A     		ldr	r2, [sp, #4]
 1643 0010 5A62     		str	r2, [r3, #36]
 1644              		.loc 9 425 0
 1645 0012 08E0     		b	.L89
 1646              	.L90:
 1647              		.loc 9 426 0
 1648 0014 039B     		ldr	r3, [sp, #12]
 1649 0016 2833     		adds	r3, r3, #40
 1650 0018 1800     		movs	r0, r3
 1651 001a FFF7FEFF 		bl	list_remove
 1652 001e 0300     		movs	r3, r0
 1653 0020 1800     		movs	r0, r3
ARM GAS  /tmp/ccjtaYQy.s 			page 30


 1654 0022 FFF7FEFF 		bl	chSchReadyI
 1655              	.L89:
 1656              		.loc 9 425 0
 1657 0026 039B     		ldr	r3, [sp, #12]
 1658 0028 2833     		adds	r3, r3, #40
 1659 002a 1800     		movs	r0, r3
 1660 002c FFF7FEFF 		bl	list_notempty
 1661 0030 031E     		subs	r3, r0, #0
 1662 0032 EFD1     		bne	.L90
 1663              		.loc 9 432 0
 1664 0034 039B     		ldr	r3, [sp, #12]
 1665 0036 2122     		movs	r2, #33
 1666 0038 9B5C     		ldrb	r3, [r3, r2]
 1667 003a 1A00     		movs	r2, r3
 1668 003c 0323     		movs	r3, #3
 1669 003e 1340     		ands	r3, r2
 1670 0040 09D1     		bne	.L91
 1671              		.loc 9 433 0
 1672 0042 039B     		ldr	r3, [sp, #12]
 1673 0044 5B69     		ldr	r3, [r3, #20]
 1674 0046 039A     		ldr	r2, [sp, #12]
 1675 0048 1269     		ldr	r2, [r2, #16]
 1676 004a 1A61     		str	r2, [r3, #16]
 1677 004c 039B     		ldr	r3, [sp, #12]
 1678 004e 1B69     		ldr	r3, [r3, #16]
 1679 0050 039A     		ldr	r2, [sp, #12]
 1680 0052 5269     		ldr	r2, [r2, #20]
 1681 0054 5A61     		str	r2, [r3, #20]
 1682              	.L91:
 1683              		.loc 9 436 0
 1684 0056 0F20     		movs	r0, #15
 1685 0058 FFF7FEFF 		bl	chSchGoSleepS
 1686              		.loc 9 439 0
 1687 005c 044B     		ldr	r3, .L92+4
 1688 005e 1800     		movs	r0, r3
 1689 0060 FFF7FEFF 		bl	chSysHalt
 1690              		.loc 9 440 0
 1691 0064 C046     		nop
 1692 0066 05B0     		add	sp, sp, #20
 1693              		@ sp needed
 1694 0068 00BD     		pop	{pc}
 1695              	.L93:
 1696 006a C046     		.align	2
 1697              	.L92:
 1698 006c 00000000 		.word	ch
 1699 0070 00000000 		.word	__func__.5757
 1700              		.cfi_endproc
 1701              	.LFE164:
 1702              		.size	chThdExitS, .-chThdExitS
 1703              		.section	.text.chThdWait,"ax",%progbits
 1704              		.align	1
 1705              		.p2align 4,,15
 1706              		.global	chThdWait
 1707              		.syntax unified
 1708              		.code	16
 1709              		.thumb_func
 1710              		.fpu softvfp
ARM GAS  /tmp/ccjtaYQy.s 			page 31


 1711              		.type	chThdWait, %function
 1712              	chThdWait:
 1713              	.LFB165:
 1714              		.loc 9 474 0
 1715              		.cfi_startproc
 1716              		@ args = 0, pretend = 0, frame = 16
 1717              		@ frame_needed = 0, uses_anonymous_args = 0
 1718 0000 00B5     		push	{lr}
 1719              		.cfi_def_cfa_offset 4
 1720              		.cfi_offset 14, -4
 1721 0002 85B0     		sub	sp, sp, #20
 1722              		.cfi_def_cfa_offset 24
 1723 0004 0190     		str	r0, [sp, #4]
 1724              		.loc 9 477 0
 1725 0006 019B     		ldr	r3, [sp, #4]
 1726 0008 002B     		cmp	r3, #0
 1727 000a 03D1     		bne	.L95
 1728              		.loc 9 477 0 is_stmt 0 discriminator 2
 1729 000c 1A4B     		ldr	r3, .L101
 1730 000e 1800     		movs	r0, r3
 1731 0010 FFF7FEFF 		bl	chSysHalt
 1732              	.L95:
 1733              		.loc 9 479 0 is_stmt 1
 1734 0014 FFF7FEFF 		bl	chSysLock
 1735              		.loc 9 480 0
 1736 0018 184B     		ldr	r3, .L101+4
 1737 001a 9A69     		ldr	r2, [r3, #24]
 1738 001c 019B     		ldr	r3, [sp, #4]
 1739 001e 9A42     		cmp	r2, r3
 1740 0020 03D1     		bne	.L100
 1741              		.loc 9 480 0 is_stmt 0 discriminator 2
 1742 0022 154B     		ldr	r3, .L101
 1743 0024 1800     		movs	r0, r3
 1744 0026 FFF7FEFF 		bl	chSysHalt
 1745              	.L100:
 1746              		.loc 9 482 0 is_stmt 1 discriminator 1
 1747 002a 019B     		ldr	r3, [sp, #4]
 1748 002c 2222     		movs	r2, #34
 1749 002e 9B5C     		ldrb	r3, [r3, r2]
 1750 0030 002B     		cmp	r3, #0
 1751 0032 03D1     		bne	.L97
 1752              		.loc 9 482 0 is_stmt 0 discriminator 2
 1753 0034 104B     		ldr	r3, .L101
 1754 0036 1800     		movs	r0, r3
 1755 0038 FFF7FEFF 		bl	chSysHalt
 1756              	.L97:
 1757              		.loc 9 484 0 is_stmt 1
 1758 003c 019B     		ldr	r3, [sp, #4]
 1759 003e 2022     		movs	r2, #32
 1760 0040 9B5C     		ldrb	r3, [r3, r2]
 1761 0042 0F2B     		cmp	r3, #15
 1762 0044 0AD0     		beq	.L98
 1763              		.loc 9 485 0
 1764 0046 0D4B     		ldr	r3, .L101+4
 1765 0048 9A69     		ldr	r2, [r3, #24]
 1766 004a 019B     		ldr	r3, [sp, #4]
 1767 004c 2833     		adds	r3, r3, #40
ARM GAS  /tmp/ccjtaYQy.s 			page 32


 1768 004e 1900     		movs	r1, r3
 1769 0050 1000     		movs	r0, r2
 1770 0052 FFF7FEFF 		bl	list_insert
 1771              		.loc 9 486 0
 1772 0056 0920     		movs	r0, #9
 1773 0058 FFF7FEFF 		bl	chSchGoSleepS
 1774              	.L98:
 1775              		.loc 9 488 0
 1776 005c 019B     		ldr	r3, [sp, #4]
 1777 005e 5B6A     		ldr	r3, [r3, #36]
 1778 0060 0393     		str	r3, [sp, #12]
 1779              		.loc 9 489 0
 1780 0062 FFF7FEFF 		bl	chSysUnlock
 1781              		.loc 9 493 0
 1782 0066 019B     		ldr	r3, [sp, #4]
 1783 0068 1800     		movs	r0, r3
 1784 006a FFF7FEFF 		bl	chThdRelease
 1785              		.loc 9 496 0
 1786 006e 039B     		ldr	r3, [sp, #12]
 1787              		.loc 9 497 0
 1788 0070 1800     		movs	r0, r3
 1789 0072 05B0     		add	sp, sp, #20
 1790              		@ sp needed
 1791 0074 00BD     		pop	{pc}
 1792              	.L102:
 1793 0076 C046     		.align	2
 1794              	.L101:
 1795 0078 00000000 		.word	__func__.5762
 1796 007c 00000000 		.word	ch
 1797              		.cfi_endproc
 1798              	.LFE165:
 1799              		.size	chThdWait, .-chThdWait
 1800              		.section	.text.chThdSuspendS,"ax",%progbits
 1801              		.align	1
 1802              		.p2align 4,,15
 1803              		.global	chThdSuspendS
 1804              		.syntax unified
 1805              		.code	16
 1806              		.thumb_func
 1807              		.fpu softvfp
 1808              		.type	chThdSuspendS, %function
 1809              	chThdSuspendS:
 1810              	.LFB166:
 1811              		.loc 9 510 0
 1812              		.cfi_startproc
 1813              		@ args = 0, pretend = 0, frame = 16
 1814              		@ frame_needed = 0, uses_anonymous_args = 0
 1815 0000 00B5     		push	{lr}
 1816              		.cfi_def_cfa_offset 4
 1817              		.cfi_offset 14, -4
 1818 0002 85B0     		sub	sp, sp, #20
 1819              		.cfi_def_cfa_offset 24
 1820 0004 0190     		str	r0, [sp, #4]
 1821              		.loc 9 511 0
 1822 0006 FFF7FEFF 		bl	chThdGetSelfX
 1823 000a 0300     		movs	r3, r0
 1824 000c 0393     		str	r3, [sp, #12]
ARM GAS  /tmp/ccjtaYQy.s 			page 33


 1825              		.loc 9 513 0
 1826 000e 019B     		ldr	r3, [sp, #4]
 1827 0010 1B68     		ldr	r3, [r3]
 1828 0012 002B     		cmp	r3, #0
 1829 0014 03D0     		beq	.L104
 1830              		.loc 9 513 0 is_stmt 0 discriminator 2
 1831 0016 0A4B     		ldr	r3, .L106
 1832 0018 1800     		movs	r0, r3
 1833 001a FFF7FEFF 		bl	chSysHalt
 1834              	.L104:
 1835              		.loc 9 515 0 is_stmt 1
 1836 001e 019B     		ldr	r3, [sp, #4]
 1837 0020 039A     		ldr	r2, [sp, #12]
 1838 0022 1A60     		str	r2, [r3]
 1839              		.loc 9 516 0
 1840 0024 039B     		ldr	r3, [sp, #12]
 1841 0026 019A     		ldr	r2, [sp, #4]
 1842 0028 5A62     		str	r2, [r3, #36]
 1843              		.loc 9 517 0
 1844 002a 0320     		movs	r0, #3
 1845 002c FFF7FEFF 		bl	chSchGoSleepS
 1846              		.loc 9 519 0
 1847 0030 FFF7FEFF 		bl	chThdGetSelfX
 1848 0034 0300     		movs	r3, r0
 1849 0036 5B6A     		ldr	r3, [r3, #36]
 1850              		.loc 9 520 0
 1851 0038 1800     		movs	r0, r3
 1852 003a 05B0     		add	sp, sp, #20
 1853              		@ sp needed
 1854 003c 00BD     		pop	{pc}
 1855              	.L107:
 1856 003e C046     		.align	2
 1857              	.L106:
 1858 0040 00000000 		.word	__func__.5767
 1859              		.cfi_endproc
 1860              	.LFE166:
 1861              		.size	chThdSuspendS, .-chThdSuspendS
 1862              		.section	.text.chThdSuspendTimeoutS,"ax",%progbits
 1863              		.align	1
 1864              		.p2align 4,,15
 1865              		.global	chThdSuspendTimeoutS
 1866              		.syntax unified
 1867              		.code	16
 1868              		.thumb_func
 1869              		.fpu softvfp
 1870              		.type	chThdSuspendTimeoutS, %function
 1871              	chThdSuspendTimeoutS:
 1872              	.LFB167:
 1873              		.loc 9 541 0
 1874              		.cfi_startproc
 1875              		@ args = 0, pretend = 0, frame = 16
 1876              		@ frame_needed = 0, uses_anonymous_args = 0
 1877 0000 00B5     		push	{lr}
 1878              		.cfi_def_cfa_offset 4
 1879              		.cfi_offset 14, -4
 1880 0002 85B0     		sub	sp, sp, #20
 1881              		.cfi_def_cfa_offset 24
ARM GAS  /tmp/ccjtaYQy.s 			page 34


 1882 0004 0190     		str	r0, [sp, #4]
 1883 0006 0A00     		movs	r2, r1
 1884 0008 6B46     		mov	r3, sp
 1885 000a 0233     		adds	r3, r3, #2
 1886 000c 1A80     		strh	r2, [r3]
 1887              		.loc 9 542 0
 1888 000e FFF7FEFF 		bl	chThdGetSelfX
 1889 0012 0300     		movs	r3, r0
 1890 0014 0393     		str	r3, [sp, #12]
 1891              		.loc 9 544 0
 1892 0016 019B     		ldr	r3, [sp, #4]
 1893 0018 1B68     		ldr	r3, [r3]
 1894 001a 002B     		cmp	r3, #0
 1895 001c 03D0     		beq	.L109
 1896              		.loc 9 544 0 is_stmt 0 discriminator 2
 1897 001e 0E4B     		ldr	r3, .L112
 1898 0020 1800     		movs	r0, r3
 1899 0022 FFF7FEFF 		bl	chSysHalt
 1900              	.L109:
 1901              		.loc 9 546 0 is_stmt 1
 1902 0026 6B46     		mov	r3, sp
 1903 0028 0233     		adds	r3, r3, #2
 1904 002a 1B88     		ldrh	r3, [r3]
 1905 002c 002B     		cmp	r3, #0
 1906 002e 02D1     		bne	.L110
 1907              		.loc 9 547 0
 1908 0030 0123     		movs	r3, #1
 1909 0032 5B42     		rsbs	r3, r3, #0
 1910 0034 0DE0     		b	.L111
 1911              	.L110:
 1912              		.loc 9 550 0
 1913 0036 019B     		ldr	r3, [sp, #4]
 1914 0038 039A     		ldr	r2, [sp, #12]
 1915 003a 1A60     		str	r2, [r3]
 1916              		.loc 9 551 0
 1917 003c 039B     		ldr	r3, [sp, #12]
 1918 003e 019A     		ldr	r2, [sp, #4]
 1919 0040 5A62     		str	r2, [r3, #36]
 1920              		.loc 9 553 0
 1921 0042 6B46     		mov	r3, sp
 1922 0044 0233     		adds	r3, r3, #2
 1923 0046 1B88     		ldrh	r3, [r3]
 1924 0048 1900     		movs	r1, r3
 1925 004a 0320     		movs	r0, #3
 1926 004c FFF7FEFF 		bl	chSchGoSleepTimeoutS
 1927 0050 0300     		movs	r3, r0
 1928              	.L111:
 1929              		.loc 9 554 0
 1930 0052 1800     		movs	r0, r3
 1931 0054 05B0     		add	sp, sp, #20
 1932              		@ sp needed
 1933 0056 00BD     		pop	{pc}
 1934              	.L113:
 1935              		.align	2
 1936              	.L112:
 1937 0058 00000000 		.word	__func__.5773
 1938              		.cfi_endproc
ARM GAS  /tmp/ccjtaYQy.s 			page 35


 1939              	.LFE167:
 1940              		.size	chThdSuspendTimeoutS, .-chThdSuspendTimeoutS
 1941              		.section	.text.chThdResumeI,"ax",%progbits
 1942              		.align	1
 1943              		.p2align 4,,15
 1944              		.global	chThdResumeI
 1945              		.syntax unified
 1946              		.code	16
 1947              		.thumb_func
 1948              		.fpu softvfp
 1949              		.type	chThdResumeI, %function
 1950              	chThdResumeI:
 1951              	.LFB168:
 1952              		.loc 9 566 0
 1953              		.cfi_startproc
 1954              		@ args = 0, pretend = 0, frame = 16
 1955              		@ frame_needed = 0, uses_anonymous_args = 0
 1956 0000 00B5     		push	{lr}
 1957              		.cfi_def_cfa_offset 4
 1958              		.cfi_offset 14, -4
 1959 0002 85B0     		sub	sp, sp, #20
 1960              		.cfi_def_cfa_offset 24
 1961 0004 0190     		str	r0, [sp, #4]
 1962 0006 0091     		str	r1, [sp]
 1963              		.loc 9 568 0
 1964 0008 019B     		ldr	r3, [sp, #4]
 1965 000a 1B68     		ldr	r3, [r3]
 1966 000c 002B     		cmp	r3, #0
 1967 000e 15D0     		beq	.L117
 1968              	.LBB10:
 1969              		.loc 9 569 0
 1970 0010 019B     		ldr	r3, [sp, #4]
 1971 0012 1B68     		ldr	r3, [r3]
 1972 0014 0393     		str	r3, [sp, #12]
 1973              		.loc 9 571 0
 1974 0016 039B     		ldr	r3, [sp, #12]
 1975 0018 2022     		movs	r2, #32
 1976 001a 9B5C     		ldrb	r3, [r3, r2]
 1977 001c 032B     		cmp	r3, #3
 1978 001e 03D0     		beq	.L116
 1979              		.loc 9 571 0 is_stmt 0 discriminator 2
 1980 0020 084B     		ldr	r3, .L118
 1981 0022 1800     		movs	r0, r3
 1982 0024 FFF7FEFF 		bl	chSysHalt
 1983              	.L116:
 1984              		.loc 9 574 0 is_stmt 1
 1985 0028 019B     		ldr	r3, [sp, #4]
 1986 002a 0022     		movs	r2, #0
 1987 002c 1A60     		str	r2, [r3]
 1988              		.loc 9 575 0
 1989 002e 039B     		ldr	r3, [sp, #12]
 1990 0030 009A     		ldr	r2, [sp]
 1991 0032 5A62     		str	r2, [r3, #36]
 1992              		.loc 9 576 0
 1993 0034 039B     		ldr	r3, [sp, #12]
 1994 0036 1800     		movs	r0, r3
 1995 0038 FFF7FEFF 		bl	chSchReadyI
ARM GAS  /tmp/ccjtaYQy.s 			page 36


 1996              	.L117:
 1997              	.LBE10:
 1998              		.loc 9 578 0
 1999 003c C046     		nop
 2000 003e 05B0     		add	sp, sp, #20
 2001              		@ sp needed
 2002 0040 00BD     		pop	{pc}
 2003              	.L119:
 2004 0042 C046     		.align	2
 2005              	.L118:
 2006 0044 00000000 		.word	__func__.5779
 2007              		.cfi_endproc
 2008              	.LFE168:
 2009              		.size	chThdResumeI, .-chThdResumeI
 2010              		.section	.text.chThdResumeS,"ax",%progbits
 2011              		.align	1
 2012              		.p2align 4,,15
 2013              		.global	chThdResumeS
 2014              		.syntax unified
 2015              		.code	16
 2016              		.thumb_func
 2017              		.fpu softvfp
 2018              		.type	chThdResumeS, %function
 2019              	chThdResumeS:
 2020              	.LFB169:
 2021              		.loc 9 590 0
 2022              		.cfi_startproc
 2023              		@ args = 0, pretend = 0, frame = 16
 2024              		@ frame_needed = 0, uses_anonymous_args = 0
 2025 0000 00B5     		push	{lr}
 2026              		.cfi_def_cfa_offset 4
 2027              		.cfi_offset 14, -4
 2028 0002 85B0     		sub	sp, sp, #20
 2029              		.cfi_def_cfa_offset 24
 2030 0004 0190     		str	r0, [sp, #4]
 2031 0006 0091     		str	r1, [sp]
 2032              		.loc 9 592 0
 2033 0008 019B     		ldr	r3, [sp, #4]
 2034 000a 1B68     		ldr	r3, [r3]
 2035 000c 002B     		cmp	r3, #0
 2036 000e 14D0     		beq	.L123
 2037              	.LBB11:
 2038              		.loc 9 593 0
 2039 0010 019B     		ldr	r3, [sp, #4]
 2040 0012 1B68     		ldr	r3, [r3]
 2041 0014 0393     		str	r3, [sp, #12]
 2042              		.loc 9 595 0
 2043 0016 039B     		ldr	r3, [sp, #12]
 2044 0018 2022     		movs	r2, #32
 2045 001a 9B5C     		ldrb	r3, [r3, r2]
 2046 001c 032B     		cmp	r3, #3
 2047 001e 03D0     		beq	.L122
 2048              		.loc 9 595 0 is_stmt 0 discriminator 2
 2049 0020 074B     		ldr	r3, .L124
 2050 0022 1800     		movs	r0, r3
 2051 0024 FFF7FEFF 		bl	chSysHalt
 2052              	.L122:
ARM GAS  /tmp/ccjtaYQy.s 			page 37


 2053              		.loc 9 598 0 is_stmt 1
 2054 0028 019B     		ldr	r3, [sp, #4]
 2055 002a 0022     		movs	r2, #0
 2056 002c 1A60     		str	r2, [r3]
 2057              		.loc 9 599 0
 2058 002e 009A     		ldr	r2, [sp]
 2059 0030 039B     		ldr	r3, [sp, #12]
 2060 0032 1100     		movs	r1, r2
 2061 0034 1800     		movs	r0, r3
 2062 0036 FFF7FEFF 		bl	chSchWakeupS
 2063              	.L123:
 2064              	.LBE11:
 2065              		.loc 9 601 0
 2066 003a C046     		nop
 2067 003c 05B0     		add	sp, sp, #20
 2068              		@ sp needed
 2069 003e 00BD     		pop	{pc}
 2070              	.L125:
 2071              		.align	2
 2072              	.L124:
 2073 0040 00000000 		.word	__func__.5785
 2074              		.cfi_endproc
 2075              	.LFE169:
 2076              		.size	chThdResumeS, .-chThdResumeS
 2077              		.section	.text.chThdResume,"ax",%progbits
 2078              		.align	1
 2079              		.p2align 4,,15
 2080              		.global	chThdResume
 2081              		.syntax unified
 2082              		.code	16
 2083              		.thumb_func
 2084              		.fpu softvfp
 2085              		.type	chThdResume, %function
 2086              	chThdResume:
 2087              	.LFB170:
 2088              		.loc 9 613 0
 2089              		.cfi_startproc
 2090              		@ args = 0, pretend = 0, frame = 8
 2091              		@ frame_needed = 0, uses_anonymous_args = 0
 2092 0000 00B5     		push	{lr}
 2093              		.cfi_def_cfa_offset 4
 2094              		.cfi_offset 14, -4
 2095 0002 83B0     		sub	sp, sp, #12
 2096              		.cfi_def_cfa_offset 16
 2097 0004 0190     		str	r0, [sp, #4]
 2098 0006 0091     		str	r1, [sp]
 2099              		.loc 9 615 0
 2100 0008 FFF7FEFF 		bl	chSysLock
 2101              		.loc 9 616 0
 2102 000c 009A     		ldr	r2, [sp]
 2103 000e 019B     		ldr	r3, [sp, #4]
 2104 0010 1100     		movs	r1, r2
 2105 0012 1800     		movs	r0, r3
 2106 0014 FFF7FEFF 		bl	chThdResumeS
 2107              		.loc 9 617 0
 2108 0018 FFF7FEFF 		bl	chSysUnlock
 2109              		.loc 9 618 0
ARM GAS  /tmp/ccjtaYQy.s 			page 38


 2110 001c C046     		nop
 2111 001e 03B0     		add	sp, sp, #12
 2112              		@ sp needed
 2113 0020 00BD     		pop	{pc}
 2114              		.cfi_endproc
 2115              	.LFE170:
 2116              		.size	chThdResume, .-chThdResume
 2117 0022 C046     		.section	.text.chThdEnqueueTimeoutS,"ax",%progbits
 2118              		.align	1
 2119              		.p2align 4,,15
 2120              		.global	chThdEnqueueTimeoutS
 2121              		.syntax unified
 2122              		.code	16
 2123              		.thumb_func
 2124              		.fpu softvfp
 2125              		.type	chThdEnqueueTimeoutS, %function
 2126              	chThdEnqueueTimeoutS:
 2127              	.LFB171:
 2128              		.loc 9 643 0
 2129              		.cfi_startproc
 2130              		@ args = 0, pretend = 0, frame = 8
 2131              		@ frame_needed = 0, uses_anonymous_args = 0
 2132 0000 00B5     		push	{lr}
 2133              		.cfi_def_cfa_offset 4
 2134              		.cfi_offset 14, -4
 2135 0002 83B0     		sub	sp, sp, #12
 2136              		.cfi_def_cfa_offset 16
 2137 0004 0190     		str	r0, [sp, #4]
 2138 0006 0A00     		movs	r2, r1
 2139 0008 6B46     		mov	r3, sp
 2140 000a 0233     		adds	r3, r3, #2
 2141 000c 1A80     		strh	r2, [r3]
 2142              		.loc 9 645 0
 2143 000e 6B46     		mov	r3, sp
 2144 0010 0233     		adds	r3, r3, #2
 2145 0012 1B88     		ldrh	r3, [r3]
 2146 0014 002B     		cmp	r3, #0
 2147 0016 02D1     		bne	.L128
 2148              		.loc 9 646 0
 2149 0018 0123     		movs	r3, #1
 2150 001a 5B42     		rsbs	r3, r3, #0
 2151 001c 0EE0     		b	.L129
 2152              	.L128:
 2153              		.loc 9 649 0
 2154 001e 094B     		ldr	r3, .L130
 2155 0020 9B69     		ldr	r3, [r3, #24]
 2156 0022 019A     		ldr	r2, [sp, #4]
 2157 0024 1100     		movs	r1, r2
 2158 0026 1800     		movs	r0, r3
 2159 0028 FFF7FEFF 		bl	queue_insert
 2160              		.loc 9 651 0
 2161 002c 6B46     		mov	r3, sp
 2162 002e 0233     		adds	r3, r3, #2
 2163 0030 1B88     		ldrh	r3, [r3]
 2164 0032 1900     		movs	r1, r3
 2165 0034 0420     		movs	r0, #4
 2166 0036 FFF7FEFF 		bl	chSchGoSleepTimeoutS
ARM GAS  /tmp/ccjtaYQy.s 			page 39


 2167 003a 0300     		movs	r3, r0
 2168              	.L129:
 2169              		.loc 9 652 0
 2170 003c 1800     		movs	r0, r3
 2171 003e 03B0     		add	sp, sp, #12
 2172              		@ sp needed
 2173 0040 00BD     		pop	{pc}
 2174              	.L131:
 2175 0042 C046     		.align	2
 2176              	.L130:
 2177 0044 00000000 		.word	ch
 2178              		.cfi_endproc
 2179              	.LFE171:
 2180              		.size	chThdEnqueueTimeoutS, .-chThdEnqueueTimeoutS
 2181              		.section	.text.chThdDequeueNextI,"ax",%progbits
 2182              		.align	1
 2183              		.p2align 4,,15
 2184              		.global	chThdDequeueNextI
 2185              		.syntax unified
 2186              		.code	16
 2187              		.thumb_func
 2188              		.fpu softvfp
 2189              		.type	chThdDequeueNextI, %function
 2190              	chThdDequeueNextI:
 2191              	.LFB172:
 2192              		.loc 9 663 0
 2193              		.cfi_startproc
 2194              		@ args = 0, pretend = 0, frame = 8
 2195              		@ frame_needed = 0, uses_anonymous_args = 0
 2196 0000 00B5     		push	{lr}
 2197              		.cfi_def_cfa_offset 4
 2198              		.cfi_offset 14, -4
 2199 0002 83B0     		sub	sp, sp, #12
 2200              		.cfi_def_cfa_offset 16
 2201 0004 0190     		str	r0, [sp, #4]
 2202 0006 0091     		str	r1, [sp]
 2203              		.loc 9 665 0
 2204 0008 019B     		ldr	r3, [sp, #4]
 2205 000a 1800     		movs	r0, r3
 2206 000c FFF7FEFF 		bl	queue_notempty
 2207 0010 031E     		subs	r3, r0, #0
 2208 0012 05D0     		beq	.L134
 2209              		.loc 9 666 0
 2210 0014 009A     		ldr	r2, [sp]
 2211 0016 019B     		ldr	r3, [sp, #4]
 2212 0018 1100     		movs	r1, r2
 2213 001a 1800     		movs	r0, r3
 2214 001c FFF7FEFF 		bl	chThdDoDequeueNextI
 2215              	.L134:
 2216              		.loc 9 668 0
 2217 0020 C046     		nop
 2218 0022 03B0     		add	sp, sp, #12
 2219              		@ sp needed
 2220 0024 00BD     		pop	{pc}
 2221              		.cfi_endproc
 2222              	.LFE172:
 2223              		.size	chThdDequeueNextI, .-chThdDequeueNextI
ARM GAS  /tmp/ccjtaYQy.s 			page 40


 2224 0026 C046     		.section	.text.chThdDequeueAllI,"ax",%progbits
 2225              		.align	1
 2226              		.p2align 4,,15
 2227              		.global	chThdDequeueAllI
 2228              		.syntax unified
 2229              		.code	16
 2230              		.thumb_func
 2231              		.fpu softvfp
 2232              		.type	chThdDequeueAllI, %function
 2233              	chThdDequeueAllI:
 2234              	.LFB173:
 2235              		.loc 9 678 0
 2236              		.cfi_startproc
 2237              		@ args = 0, pretend = 0, frame = 8
 2238              		@ frame_needed = 0, uses_anonymous_args = 0
 2239 0000 00B5     		push	{lr}
 2240              		.cfi_def_cfa_offset 4
 2241              		.cfi_offset 14, -4
 2242 0002 83B0     		sub	sp, sp, #12
 2243              		.cfi_def_cfa_offset 16
 2244 0004 0190     		str	r0, [sp, #4]
 2245 0006 0091     		str	r1, [sp]
 2246              		.loc 9 680 0
 2247 0008 05E0     		b	.L136
 2248              	.L137:
 2249              		.loc 9 681 0
 2250 000a 009A     		ldr	r2, [sp]
 2251 000c 019B     		ldr	r3, [sp, #4]
 2252 000e 1100     		movs	r1, r2
 2253 0010 1800     		movs	r0, r3
 2254 0012 FFF7FEFF 		bl	chThdDoDequeueNextI
 2255              	.L136:
 2256              		.loc 9 680 0
 2257 0016 019B     		ldr	r3, [sp, #4]
 2258 0018 1800     		movs	r0, r3
 2259 001a FFF7FEFF 		bl	queue_notempty
 2260 001e 031E     		subs	r3, r0, #0
 2261 0020 F3D1     		bne	.L137
 2262              		.loc 9 683 0
 2263 0022 C046     		nop
 2264 0024 03B0     		add	sp, sp, #12
 2265              		@ sp needed
 2266 0026 00BD     		pop	{pc}
 2267              		.cfi_endproc
 2268              	.LFE173:
 2269              		.size	chThdDequeueAllI, .-chThdDequeueAllI
 2270              		.section	.rodata.__func__.5713,"a",%progbits
 2271              		.align	2
 2272              		.type	__func__.5713, %object
 2273              		.size	__func__.5713, 13
 2274              	__func__.5713:
 2275 0000 63685468 		.ascii	"chThdCreateI\000"
 2275      64437265 
 2275      61746549 
 2275      00
 2276              		.section	.rodata.__func__.4993,"a",%progbits
 2277              		.align	2
ARM GAS  /tmp/ccjtaYQy.s 			page 41


 2278              		.type	__func__.4993, %object
 2279              		.size	__func__.4993, 12
 2280              	__func__.4993:
 2281 0000 63685379 		.ascii	"chSysUnlock\000"
 2281      73556E6C 
 2281      6F636B00 
 2282              		.section	.rodata.__func__.5163,"a",%progbits
 2283              		.align	2
 2284              		.type	__func__.5163, %object
 2285              		.size	__func__.5163, 12
 2286              	__func__.5163:
 2287 0000 63685468 		.ascii	"chThdStartI\000"
 2287      64537461 
 2287      72744900 
 2288              		.section	.rodata.__func__.5729,"a",%progbits
 2289              		.align	2
 2290              		.type	__func__.5729, %object
 2291              		.size	__func__.5729, 17
 2292              	__func__.5729:
 2293 0000 63685468 		.ascii	"chThdSetPriority\000"
 2293      64536574 
 2293      5072696F 
 2293      72697479 
 2293      00
 2294              		.section	.rodata.__func__.5167,"a",%progbits
 2295              		.align	2
 2296              		.type	__func__.5167, %object
 2297              		.size	__func__.5167, 12
 2298              	__func__.5167:
 2299 0000 63685468 		.ascii	"chThdSleepS\000"
 2299      64536C65 
 2299      65705300 
 2300              		.section	.rodata.__func__.5757,"a",%progbits
 2301              		.align	2
 2302              		.type	__func__.5757, %object
 2303              		.size	__func__.5757, 11
 2304              	__func__.5757:
 2305 0000 63685468 		.ascii	"chThdExitS\000"
 2305      64457869 
 2305      745300
 2306              		.section	.rodata.__func__.5762,"a",%progbits
 2307              		.align	2
 2308              		.type	__func__.5762, %object
 2309              		.size	__func__.5762, 10
 2310              	__func__.5762:
 2311 0000 63685468 		.ascii	"chThdWait\000"
 2311      64576169 
 2311      7400
 2312              		.section	.rodata.__func__.5767,"a",%progbits
 2313              		.align	2
 2314              		.type	__func__.5767, %object
 2315              		.size	__func__.5767, 14
 2316              	__func__.5767:
 2317 0000 63685468 		.ascii	"chThdSuspendS\000"
 2317      64537573 
 2317      70656E64 
 2317      5300
ARM GAS  /tmp/ccjtaYQy.s 			page 42


 2318              		.section	.rodata.__func__.5773,"a",%progbits
 2319              		.align	2
 2320              		.type	__func__.5773, %object
 2321              		.size	__func__.5773, 21
 2322              	__func__.5773:
 2323 0000 63685468 		.ascii	"chThdSuspendTimeoutS\000"
 2323      64537573 
 2323      70656E64 
 2323      54696D65 
 2323      6F757453 
 2324              		.section	.rodata.__func__.5779,"a",%progbits
 2325              		.align	2
 2326              		.type	__func__.5779, %object
 2327              		.size	__func__.5779, 13
 2328              	__func__.5779:
 2329 0000 63685468 		.ascii	"chThdResumeI\000"
 2329      64526573 
 2329      756D6549 
 2329      00
 2330              		.section	.rodata.__func__.5785,"a",%progbits
 2331              		.align	2
 2332              		.type	__func__.5785, %object
 2333              		.size	__func__.5785, 13
 2334              	__func__.5785:
 2335 0000 63685468 		.ascii	"chThdResumeS\000"
 2335      64526573 
 2335      756D6553 
 2335      00
 2336              		.section	.rodata.__func__.5179,"a",%progbits
 2337              		.align	2
 2338              		.type	__func__.5179, %object
 2339              		.size	__func__.5179, 20
 2340              	__func__.5179:
 2341 0000 63685468 		.ascii	"chThdDoDequeueNextI\000"
 2341      64446F44 
 2341      65717565 
 2341      75654E65 
 2341      78744900 
 2342              		.text
 2343              	.Letext0:
 2344              		.file 10 "/home/felix/opt/gcc-arm-none-eabi-6-2017-q1-update/lib/gcc/arm-none-eabi/6.3.1/include/s
 2345              		.file 11 "/home/felix/opt/gcc-arm-none-eabi-6-2017-q1-update/arm-none-eabi/include/machine/_defaul
 2346              		.file 12 "/home/felix/opt/gcc-arm-none-eabi-6-2017-q1-update/arm-none-eabi/include/sys/_stdint.h"
 2347              		.file 13 "ChibiOS/os/rt/ports/ARMCMx/compilers/GCC/chtypes.h"
 2348              		.file 14 "ChibiOS/os/rt/include/chsystypes.h"
 2349              		.file 15 "ChibiOS/os/rt/ports/ARMCMx/chcore.h"
 2350              		.file 16 "ChibiOS/os/hal/ports/STM32/LLD/TIMv1/stm32_tim.h"
 2351              		.file 17 "ChibiOS/os/rt/include/chdebug.h"
 2352              		.file 18 "ChibiOS/os/rt/include/chsem.h"
 2353              		.file 19 "ChibiOS/os/rt/include/chmtx.h"
 2354              		.file 20 "ChibiOS/os/rt/include/chregistry.h"
 2355              		.file 21 "ChibiOS/os/ext/CMSIS/ST/STM32F0xx/system_stm32f0xx.h"