ARM GAS  /tmp/cc6PJBFk.s 			page 1


   1              		.cpu cortex-m0
   2              		.eabi_attribute 20, 1
   3              		.eabi_attribute 21, 1
   4              		.eabi_attribute 23, 3
   5              		.eabi_attribute 24, 1
   6              		.eabi_attribute 25, 1
   7              		.eabi_attribute 26, 1
   8              		.eabi_attribute 30, 6
   9              		.eabi_attribute 34, 0
  10              		.eabi_attribute 18, 4
  11              		.file	"chvt.c"
  12              		.text
  13              	.Ltext0:
  14              		.cfi_sections	.debug_frame
  15              		.section	.text.st_lld_get_counter,"ax",%progbits
  16              		.align	1
  17              		.p2align 4,,15
  18              		.syntax unified
  19              		.code	16
  20              		.thumb_func
  21              		.fpu softvfp
  22              		.type	st_lld_get_counter, %function
  23              	st_lld_get_counter:
  24              	.LFB46:
  25              		.file 1 "ChibiOS/os/hal/ports/STM32/LLD/TIMv1/st_lld.h"
  26              		.loc 1 139 0
  27              		.cfi_startproc
  28              		@ args = 0, pretend = 0, frame = 0
  29              		@ frame_needed = 0, uses_anonymous_args = 0
  30              		@ link register save eliminated.
  31              		.loc 1 141 0
  32 0000 024B     		ldr	r3, .L3
  33 0002 5B6A     		ldr	r3, [r3, #36]
  34 0004 9BB2     		uxth	r3, r3
  35              		.loc 1 142 0
  36 0006 1800     		movs	r0, r3
  37              		@ sp needed
  38 0008 7047     		bx	lr
  39              	.L4:
  40 000a C046     		.align	2
  41              	.L3:
  42 000c 00040040 		.word	1073742848
  43              		.cfi_endproc
  44              	.LFE46:
  45              		.size	st_lld_get_counter, .-st_lld_get_counter
  46              		.section	.text.port_timer_start_alarm,"ax",%progbits
  47              		.align	1
  48              		.p2align 4,,15
  49              		.syntax unified
  50              		.code	16
  51              		.thumb_func
  52              		.fpu softvfp
  53              		.type	port_timer_start_alarm, %function
  54              	port_timer_start_alarm:
  55              	.LFB52:
  56              		.file 2 "ChibiOS/os/rt/ports/ARMCMx/chcore_timer.h"
  57              		.loc 2 71 0
ARM GAS  /tmp/cc6PJBFk.s 			page 2


  58              		.cfi_startproc
  59              		@ args = 0, pretend = 0, frame = 8
  60              		@ frame_needed = 0, uses_anonymous_args = 0
  61 0000 00B5     		push	{lr}
  62              		.cfi_def_cfa_offset 4
  63              		.cfi_offset 14, -4
  64 0002 83B0     		sub	sp, sp, #12
  65              		.cfi_def_cfa_offset 16
  66 0004 0200     		movs	r2, r0
  67 0006 6B46     		mov	r3, sp
  68 0008 0633     		adds	r3, r3, #6
  69 000a 1A80     		strh	r2, [r3]
  70              		.loc 2 73 0
  71 000c 6B46     		mov	r3, sp
  72 000e 0633     		adds	r3, r3, #6
  73 0010 1B88     		ldrh	r3, [r3]
  74 0012 1800     		movs	r0, r3
  75 0014 FFF7FEFF 		bl	stStartAlarm
  76              		.loc 2 74 0
  77 0018 C046     		nop
  78 001a 03B0     		add	sp, sp, #12
  79              		@ sp needed
  80 001c 00BD     		pop	{pc}
  81              		.cfi_endproc
  82              	.LFE52:
  83              		.size	port_timer_start_alarm, .-port_timer_start_alarm
  84 001e C046     		.section	.text.port_timer_stop_alarm,"ax",%progbits
  85              		.align	1
  86              		.p2align 4,,15
  87              		.syntax unified
  88              		.code	16
  89              		.thumb_func
  90              		.fpu softvfp
  91              		.type	port_timer_stop_alarm, %function
  92              	port_timer_stop_alarm:
  93              	.LFB53:
  94              		.loc 2 81 0
  95              		.cfi_startproc
  96              		@ args = 0, pretend = 0, frame = 0
  97              		@ frame_needed = 0, uses_anonymous_args = 0
  98 0000 10B5     		push	{r4, lr}
  99              		.cfi_def_cfa_offset 8
 100              		.cfi_offset 4, -8
 101              		.cfi_offset 14, -4
 102              		.loc 2 83 0
 103 0002 FFF7FEFF 		bl	stStopAlarm
 104              		.loc 2 84 0
 105 0006 C046     		nop
 106              		@ sp needed
 107 0008 10BD     		pop	{r4, pc}
 108              		.cfi_endproc
 109              	.LFE53:
 110              		.size	port_timer_stop_alarm, .-port_timer_stop_alarm
 111 000a C046     		.section	.text.port_timer_set_alarm,"ax",%progbits
 112              		.align	1
 113              		.p2align 4,,15
 114              		.syntax unified
ARM GAS  /tmp/cc6PJBFk.s 			page 3


 115              		.code	16
 116              		.thumb_func
 117              		.fpu softvfp
 118              		.type	port_timer_set_alarm, %function
 119              	port_timer_set_alarm:
 120              	.LFB54:
 121              		.loc 2 93 0
 122              		.cfi_startproc
 123              		@ args = 0, pretend = 0, frame = 8
 124              		@ frame_needed = 0, uses_anonymous_args = 0
 125 0000 00B5     		push	{lr}
 126              		.cfi_def_cfa_offset 4
 127              		.cfi_offset 14, -4
 128 0002 83B0     		sub	sp, sp, #12
 129              		.cfi_def_cfa_offset 16
 130 0004 0200     		movs	r2, r0
 131 0006 6B46     		mov	r3, sp
 132 0008 0633     		adds	r3, r3, #6
 133 000a 1A80     		strh	r2, [r3]
 134              		.loc 2 95 0
 135 000c 6B46     		mov	r3, sp
 136 000e 0633     		adds	r3, r3, #6
 137 0010 1B88     		ldrh	r3, [r3]
 138 0012 1800     		movs	r0, r3
 139 0014 FFF7FEFF 		bl	stSetAlarm
 140              		.loc 2 96 0
 141 0018 C046     		nop
 142 001a 03B0     		add	sp, sp, #12
 143              		@ sp needed
 144 001c 00BD     		pop	{pc}
 145              		.cfi_endproc
 146              	.LFE54:
 147              		.size	port_timer_set_alarm, .-port_timer_set_alarm
 148 001e C046     		.section	.text.port_timer_get_time,"ax",%progbits
 149              		.align	1
 150              		.p2align 4,,15
 151              		.syntax unified
 152              		.code	16
 153              		.thumb_func
 154              		.fpu softvfp
 155              		.type	port_timer_get_time, %function
 156              	port_timer_get_time:
 157              	.LFB55:
 158              		.loc 2 105 0
 159              		.cfi_startproc
 160              		@ args = 0, pretend = 0, frame = 0
 161              		@ frame_needed = 0, uses_anonymous_args = 0
 162 0000 10B5     		push	{r4, lr}
 163              		.cfi_def_cfa_offset 8
 164              		.cfi_offset 4, -8
 165              		.cfi_offset 14, -4
 166              		.loc 2 107 0
 167 0002 FFF7FEFF 		bl	st_lld_get_counter
 168 0006 0300     		movs	r3, r0
 169              		.loc 2 108 0
 170 0008 1800     		movs	r0, r3
 171              		@ sp needed
ARM GAS  /tmp/cc6PJBFk.s 			page 4


 172 000a 10BD     		pop	{r4, pc}
 173              		.cfi_endproc
 174              	.LFE55:
 175              		.size	port_timer_get_time, .-port_timer_get_time
 176              		.section	.text.chVTGetSystemTimeX,"ax",%progbits
 177              		.align	1
 178              		.p2align 4,,15
 179              		.syntax unified
 180              		.code	16
 181              		.thumb_func
 182              		.fpu softvfp
 183              		.type	chVTGetSystemTimeX, %function
 184              	chVTGetSystemTimeX:
 185              	.LFB85:
 186              		.file 3 "ChibiOS/os/rt/include/chvt.h"
 187              		.loc 3 228 0
 188              		.cfi_startproc
 189              		@ args = 0, pretend = 0, frame = 0
 190              		@ frame_needed = 0, uses_anonymous_args = 0
 191 0000 10B5     		push	{r4, lr}
 192              		.cfi_def_cfa_offset 8
 193              		.cfi_offset 4, -8
 194              		.cfi_offset 14, -4
 195              		.loc 3 233 0
 196 0002 FFF7FEFF 		bl	port_timer_get_time
 197 0006 0300     		movs	r3, r0
 198              		.loc 3 235 0
 199 0008 1800     		movs	r0, r3
 200              		@ sp needed
 201 000a 10BD     		pop	{r4, pc}
 202              		.cfi_endproc
 203              	.LFE85:
 204              		.size	chVTGetSystemTimeX, .-chVTGetSystemTimeX
 205              		.section	.text._vt_init,"ax",%progbits
 206              		.align	1
 207              		.p2align 4,,15
 208              		.global	_vt_init
 209              		.syntax unified
 210              		.code	16
 211              		.thumb_func
 212              		.fpu softvfp
 213              		.type	_vt_init, %function
 214              	_vt_init:
 215              	.LFB152:
 216              		.file 4 "ChibiOS/os/rt/src/chvt.c"
 217              		.loc 4 61 0
 218              		.cfi_startproc
 219              		@ args = 0, pretend = 0, frame = 0
 220              		@ frame_needed = 0, uses_anonymous_args = 0
 221              		@ link register save eliminated.
 222              		.loc 4 63 0
 223 0000 074B     		ldr	r3, .L13
 224 0002 084A     		ldr	r2, .L13+4
 225 0004 DA61     		str	r2, [r3, #28]
 226              		.loc 4 64 0
 227 0006 064B     		ldr	r3, .L13
 228 0008 064A     		ldr	r2, .L13+4
ARM GAS  /tmp/cc6PJBFk.s 			page 5


 229 000a 1A62     		str	r2, [r3, #32]
 230              		.loc 4 65 0
 231 000c 044B     		ldr	r3, .L13
 232 000e 0122     		movs	r2, #1
 233 0010 5242     		rsbs	r2, r2, #0
 234 0012 9A84     		strh	r2, [r3, #36]
 235              		.loc 4 69 0
 236 0014 024B     		ldr	r3, .L13
 237 0016 0022     		movs	r2, #0
 238 0018 DA84     		strh	r2, [r3, #38]
 239              		.loc 4 71 0
 240 001a C046     		nop
 241              		@ sp needed
 242 001c 7047     		bx	lr
 243              	.L14:
 244 001e C046     		.align	2
 245              	.L13:
 246 0020 00000000 		.word	ch
 247 0024 1C000000 		.word	ch+28
 248              		.cfi_endproc
 249              	.LFE152:
 250              		.size	_vt_init, .-_vt_init
 251              		.section	.text.chVTDoSetI,"ax",%progbits
 252              		.align	1
 253              		.p2align 4,,15
 254              		.global	chVTDoSetI
 255              		.syntax unified
 256              		.code	16
 257              		.thumb_func
 258              		.fpu softvfp
 259              		.type	chVTDoSetI, %function
 260              	chVTDoSetI:
 261              	.LFB153:
 262              		.loc 4 96 0
 263              		.cfi_startproc
 264              		@ args = 0, pretend = 0, frame = 24
 265              		@ frame_needed = 0, uses_anonymous_args = 0
 266 0000 10B5     		push	{r4, lr}
 267              		.cfi_def_cfa_offset 8
 268              		.cfi_offset 4, -8
 269              		.cfi_offset 14, -4
 270 0002 86B0     		sub	sp, sp, #24
 271              		.cfi_def_cfa_offset 32
 272 0004 0390     		str	r0, [sp, #12]
 273 0006 0192     		str	r2, [sp, #4]
 274 0008 0093     		str	r3, [sp]
 275 000a 0A23     		movs	r3, #10
 276 000c 6B44     		add	r3, r3, sp
 277 000e 0A1C     		adds	r2, r1, #0
 278 0010 1A80     		strh	r2, [r3]
 279              		.loc 4 100 0
 280 0012 FFF7FEFF 		bl	chDbgCheckClassI
 281              		.loc 4 101 0
 282 0016 039B     		ldr	r3, [sp, #12]
 283 0018 002B     		cmp	r3, #0
 284 001a 07D0     		beq	.L16
 285              		.loc 4 101 0 is_stmt 0 discriminator 3
ARM GAS  /tmp/cc6PJBFk.s 			page 6


 286 001c 019B     		ldr	r3, [sp, #4]
 287 001e 002B     		cmp	r3, #0
 288 0020 04D0     		beq	.L16
 289              		.loc 4 101 0 discriminator 5
 290 0022 0A23     		movs	r3, #10
 291 0024 6B44     		add	r3, r3, sp
 292 0026 1B88     		ldrh	r3, [r3]
 293 0028 002B     		cmp	r3, #0
 294 002a 03D1     		bne	.L17
 295              	.L16:
 296              		.loc 4 101 0 discriminator 6
 297 002c 554B     		ldr	r3, .L25
 298 002e 1800     		movs	r0, r3
 299 0030 FFF7FEFF 		bl	chSysHalt
 300              	.L17:
 301              		.loc 4 103 0 is_stmt 1
 302 0034 039B     		ldr	r3, [sp, #12]
 303 0036 009A     		ldr	r2, [sp]
 304 0038 1A61     		str	r2, [r3, #16]
 305              		.loc 4 104 0
 306 003a 039B     		ldr	r3, [sp, #12]
 307 003c 019A     		ldr	r2, [sp, #4]
 308 003e DA60     		str	r2, [r3, #12]
 309              	.LBB2:
 310              		.loc 4 108 0
 311 0040 04AC     		add	r4, sp, #16
 312 0042 FFF7FEFF 		bl	chVTGetSystemTimeX
 313 0046 0300     		movs	r3, r0
 314 0048 2380     		strh	r3, [r4]
 315              		.loc 4 112 0
 316 004a 0A23     		movs	r3, #10
 317 004c 6B44     		add	r3, r3, sp
 318 004e 1B88     		ldrh	r3, [r3]
 319 0050 012B     		cmp	r3, #1
 320 0052 03D8     		bhi	.L18
 321              		.loc 4 113 0
 322 0054 0A23     		movs	r3, #10
 323 0056 6B44     		add	r3, r3, sp
 324 0058 0222     		movs	r2, #2
 325 005a 1A80     		strh	r2, [r3]
 326              	.L18:
 327              		.loc 4 117 0
 328 005c 4A4B     		ldr	r3, .L25+4
 329 005e DA69     		ldr	r2, [r3, #28]
 330 0060 4A4B     		ldr	r3, .L25+8
 331 0062 9A42     		cmp	r2, r3
 332 0064 1FD1     		bne	.L19
 333              		.loc 4 121 0
 334 0066 484B     		ldr	r3, .L25+4
 335 0068 04AA     		add	r2, sp, #16
 336 006a 1288     		ldrh	r2, [r2]
 337 006c DA84     		strh	r2, [r3, #38]
 338              		.loc 4 122 0
 339 006e 464B     		ldr	r3, .L25+4
 340 0070 039A     		ldr	r2, [sp, #12]
 341 0072 DA61     		str	r2, [r3, #28]
 342              		.loc 4 123 0
ARM GAS  /tmp/cc6PJBFk.s 			page 7


 343 0074 444B     		ldr	r3, .L25+4
 344 0076 039A     		ldr	r2, [sp, #12]
 345 0078 1A62     		str	r2, [r3, #32]
 346              		.loc 4 124 0
 347 007a 039B     		ldr	r3, [sp, #12]
 348 007c 434A     		ldr	r2, .L25+8
 349 007e 1A60     		str	r2, [r3]
 350              		.loc 4 125 0
 351 0080 039B     		ldr	r3, [sp, #12]
 352 0082 424A     		ldr	r2, .L25+8
 353 0084 5A60     		str	r2, [r3, #4]
 354              		.loc 4 126 0
 355 0086 039B     		ldr	r3, [sp, #12]
 356 0088 0A22     		movs	r2, #10
 357 008a 6A44     		add	r2, r2, sp
 358 008c 1288     		ldrh	r2, [r2]
 359 008e 1A81     		strh	r2, [r3, #8]
 360              		.loc 4 129 0
 361 0090 3D4B     		ldr	r3, .L25+4
 362 0092 DA8C     		ldrh	r2, [r3, #38]
 363 0094 0A23     		movs	r3, #10
 364 0096 6B44     		add	r3, r3, sp
 365 0098 1B88     		ldrh	r3, [r3]
 366 009a D318     		adds	r3, r2, r3
 367 009c 9BB2     		uxth	r3, r3
 368 009e 1800     		movs	r0, r3
 369 00a0 FFF7FEFF 		bl	port_timer_start_alarm
 370              		.loc 4 131 0
 371 00a4 6CE0     		b	.L15
 372              	.L19:
 373              		.loc 4 135 0
 374 00a6 384B     		ldr	r3, .L25+4
 375 00a8 DB69     		ldr	r3, [r3, #28]
 376 00aa 0593     		str	r3, [sp, #20]
 377              		.loc 4 139 0
 378 00ac 364B     		ldr	r3, .L25+4
 379 00ae DB8C     		ldrh	r3, [r3, #38]
 380 00b0 04AA     		add	r2, sp, #16
 381 00b2 1288     		ldrh	r2, [r2]
 382 00b4 D31A     		subs	r3, r2, r3
 383 00b6 99B2     		uxth	r1, r3
 384 00b8 1223     		movs	r3, #18
 385 00ba 6B44     		add	r3, r3, sp
 386 00bc 0A22     		movs	r2, #10
 387 00be 6A44     		add	r2, r2, sp
 388 00c0 1288     		ldrh	r2, [r2]
 389 00c2 8A18     		adds	r2, r1, r2
 390 00c4 1A80     		strh	r2, [r3]
 391              		.loc 4 141 0
 392 00c6 1223     		movs	r3, #18
 393 00c8 6B44     		add	r3, r3, sp
 394 00ca 1A88     		ldrh	r2, [r3]
 395 00cc 04AB     		add	r3, sp, #16
 396 00ce 1B88     		ldrh	r3, [r3]
 397 00d0 2D49     		ldr	r1, .L25+4
 398 00d2 C98C     		ldrh	r1, [r1, #38]
 399 00d4 5B1A     		subs	r3, r3, r1
ARM GAS  /tmp/cc6PJBFk.s 			page 8


 400 00d6 9A42     		cmp	r2, r3
 401 00d8 0CDA     		bge	.L21
 402              		.loc 4 145 0
 403 00da 059B     		ldr	r3, [sp, #20]
 404 00dc 1A89     		ldrh	r2, [r3, #8]
 405 00de 1223     		movs	r3, #18
 406 00e0 6B44     		add	r3, r3, sp
 407 00e2 1221     		movs	r1, #18
 408 00e4 6944     		add	r1, r1, sp
 409 00e6 0988     		ldrh	r1, [r1]
 410 00e8 8A1A     		subs	r2, r1, r2
 411 00ea 1A80     		strh	r2, [r3]
 412              		.loc 4 146 0
 413 00ec 059B     		ldr	r3, [sp, #20]
 414 00ee 1B68     		ldr	r3, [r3]
 415 00f0 0593     		str	r3, [sp, #20]
 416 00f2 1DE0     		b	.L23
 417              	.L21:
 418              		.loc 4 148 0
 419 00f4 059B     		ldr	r3, [sp, #20]
 420 00f6 1B89     		ldrh	r3, [r3, #8]
 421 00f8 1222     		movs	r2, #18
 422 00fa 6A44     		add	r2, r2, sp
 423 00fc 1288     		ldrh	r2, [r2]
 424 00fe 9A42     		cmp	r2, r3
 425 0100 16D2     		bcs	.L23
 426              		.loc 4 151 0
 427 0102 214B     		ldr	r3, .L25+4
 428 0104 DA8C     		ldrh	r2, [r3, #38]
 429 0106 1223     		movs	r3, #18
 430 0108 6B44     		add	r3, r3, sp
 431 010a 1B88     		ldrh	r3, [r3]
 432 010c D318     		adds	r3, r2, r3
 433 010e 9BB2     		uxth	r3, r3
 434 0110 1800     		movs	r0, r3
 435 0112 FFF7FEFF 		bl	port_timer_set_alarm
 436              	.LBE2:
 437              		.loc 4 164 0
 438 0116 0BE0     		b	.L23
 439              	.L24:
 440              		.loc 4 165 0
 441 0118 059B     		ldr	r3, [sp, #20]
 442 011a 1A89     		ldrh	r2, [r3, #8]
 443 011c 1223     		movs	r3, #18
 444 011e 6B44     		add	r3, r3, sp
 445 0120 1221     		movs	r1, #18
 446 0122 6944     		add	r1, r1, sp
 447 0124 0988     		ldrh	r1, [r1]
 448 0126 8A1A     		subs	r2, r1, r2
 449 0128 1A80     		strh	r2, [r3]
 450              		.loc 4 166 0
 451 012a 059B     		ldr	r3, [sp, #20]
 452 012c 1B68     		ldr	r3, [r3]
 453 012e 0593     		str	r3, [sp, #20]
 454              	.L23:
 455              		.loc 4 164 0
 456 0130 059B     		ldr	r3, [sp, #20]
ARM GAS  /tmp/cc6PJBFk.s 			page 9


 457 0132 1B89     		ldrh	r3, [r3, #8]
 458 0134 1222     		movs	r2, #18
 459 0136 6A44     		add	r2, r2, sp
 460 0138 1288     		ldrh	r2, [r2]
 461 013a 9A42     		cmp	r2, r3
 462 013c ECD8     		bhi	.L24
 463              		.loc 4 170 0
 464 013e 039B     		ldr	r3, [sp, #12]
 465 0140 059A     		ldr	r2, [sp, #20]
 466 0142 1A60     		str	r2, [r3]
 467              		.loc 4 171 0
 468 0144 039B     		ldr	r3, [sp, #12]
 469 0146 1B68     		ldr	r3, [r3]
 470 0148 5A68     		ldr	r2, [r3, #4]
 471 014a 039B     		ldr	r3, [sp, #12]
 472 014c 5A60     		str	r2, [r3, #4]
 473              		.loc 4 172 0
 474 014e 039B     		ldr	r3, [sp, #12]
 475 0150 5B68     		ldr	r3, [r3, #4]
 476 0152 039A     		ldr	r2, [sp, #12]
 477 0154 1A60     		str	r2, [r3]
 478              		.loc 4 173 0
 479 0156 059B     		ldr	r3, [sp, #20]
 480 0158 039A     		ldr	r2, [sp, #12]
 481 015a 5A60     		str	r2, [r3, #4]
 482              		.loc 4 174 0
 483 015c 039B     		ldr	r3, [sp, #12]
 484 015e 1222     		movs	r2, #18
 485 0160 6A44     		add	r2, r2, sp
 486 0162 1288     		ldrh	r2, [r2]
 487 0164 1A81     		strh	r2, [r3, #8]
 488              		.loc 4 178 0
 489 0166 059B     		ldr	r3, [sp, #20]
 490 0168 1A89     		ldrh	r2, [r3, #8]
 491 016a 1223     		movs	r3, #18
 492 016c 6B44     		add	r3, r3, sp
 493 016e 1B88     		ldrh	r3, [r3]
 494 0170 D31A     		subs	r3, r2, r3
 495 0172 9AB2     		uxth	r2, r3
 496 0174 059B     		ldr	r3, [sp, #20]
 497 0176 1A81     		strh	r2, [r3, #8]
 498              		.loc 4 179 0
 499 0178 034B     		ldr	r3, .L25+4
 500 017a 0122     		movs	r2, #1
 501 017c 5242     		rsbs	r2, r2, #0
 502 017e 9A84     		strh	r2, [r3, #36]
 503              	.L15:
 504              		.loc 4 180 0
 505 0180 06B0     		add	sp, sp, #24
 506              		@ sp needed
 507 0182 10BD     		pop	{r4, pc}
 508              	.L26:
 509              		.align	2
 510              	.L25:
 511 0184 00000000 		.word	__func__.5704
 512 0188 00000000 		.word	ch
 513 018c 1C000000 		.word	ch+28
ARM GAS  /tmp/cc6PJBFk.s 			page 10


 514              		.cfi_endproc
 515              	.LFE153:
 516              		.size	chVTDoSetI, .-chVTDoSetI
 517              		.section	.text.chVTDoResetI,"ax",%progbits
 518              		.align	1
 519              		.p2align 4,,15
 520              		.global	chVTDoResetI
 521              		.syntax unified
 522              		.code	16
 523              		.thumb_func
 524              		.fpu softvfp
 525              		.type	chVTDoResetI, %function
 526              	chVTDoResetI:
 527              	.LFB154:
 528              		.loc 4 190 0
 529              		.cfi_startproc
 530              		@ args = 0, pretend = 0, frame = 16
 531              		@ frame_needed = 0, uses_anonymous_args = 0
 532 0000 00B5     		push	{lr}
 533              		.cfi_def_cfa_offset 4
 534              		.cfi_offset 14, -4
 535 0002 85B0     		sub	sp, sp, #20
 536              		.cfi_def_cfa_offset 24
 537 0004 0190     		str	r0, [sp, #4]
 538              		.loc 4 192 0
 539 0006 FFF7FEFF 		bl	chDbgCheckClassI
 540              		.loc 4 193 0
 541 000a 019B     		ldr	r3, [sp, #4]
 542 000c 002B     		cmp	r3, #0
 543 000e 03D1     		bne	.L36
 544              		.loc 4 193 0 is_stmt 0 discriminator 2
 545 0010 404B     		ldr	r3, .L39
 546 0012 1800     		movs	r0, r3
 547 0014 FFF7FEFF 		bl	chSysHalt
 548              	.L36:
 549              		.loc 4 194 0 is_stmt 1 discriminator 1
 550 0018 019B     		ldr	r3, [sp, #4]
 551 001a DB68     		ldr	r3, [r3, #12]
 552 001c 002B     		cmp	r3, #0
 553 001e 03D1     		bne	.L29
 554              		.loc 4 194 0 is_stmt 0 discriminator 2
 555 0020 3C4B     		ldr	r3, .L39
 556 0022 1800     		movs	r0, r3
 557 0024 FFF7FEFF 		bl	chSysHalt
 558              	.L29:
 559              		.loc 4 214 0 is_stmt 1
 560 0028 3B4B     		ldr	r3, .L39+4
 561 002a DA69     		ldr	r2, [r3, #28]
 562 002c 019B     		ldr	r3, [sp, #4]
 563 002e 9A42     		cmp	r2, r3
 564 0030 1CD0     		beq	.L30
 565              		.loc 4 216 0
 566 0032 019B     		ldr	r3, [sp, #4]
 567 0034 5B68     		ldr	r3, [r3, #4]
 568 0036 019A     		ldr	r2, [sp, #4]
 569 0038 1268     		ldr	r2, [r2]
 570 003a 1A60     		str	r2, [r3]
ARM GAS  /tmp/cc6PJBFk.s 			page 11


 571              		.loc 4 217 0
 572 003c 019B     		ldr	r3, [sp, #4]
 573 003e 1B68     		ldr	r3, [r3]
 574 0040 019A     		ldr	r2, [sp, #4]
 575 0042 5268     		ldr	r2, [r2, #4]
 576 0044 5A60     		str	r2, [r3, #4]
 577              		.loc 4 218 0
 578 0046 019B     		ldr	r3, [sp, #4]
 579 0048 0022     		movs	r2, #0
 580 004a DA60     		str	r2, [r3, #12]
 581              		.loc 4 221 0
 582 004c 019B     		ldr	r3, [sp, #4]
 583 004e 1A68     		ldr	r2, [r3]
 584 0050 324B     		ldr	r3, .L39+8
 585 0052 9A42     		cmp	r2, r3
 586 0054 58D0     		beq	.L37
 587              		.loc 4 222 0
 588 0056 019B     		ldr	r3, [sp, #4]
 589 0058 1A68     		ldr	r2, [r3]
 590 005a 019B     		ldr	r3, [sp, #4]
 591 005c 1B68     		ldr	r3, [r3]
 592 005e 1989     		ldrh	r1, [r3, #8]
 593 0060 019B     		ldr	r3, [sp, #4]
 594 0062 1B89     		ldrh	r3, [r3, #8]
 595 0064 CB18     		adds	r3, r1, r3
 596 0066 9BB2     		uxth	r3, r3
 597 0068 1381     		strh	r3, [r2, #8]
 598              		.loc 4 224 0
 599 006a 4DE0     		b	.L37
 600              	.L30:
 601              		.loc 4 228 0
 602 006c 019B     		ldr	r3, [sp, #4]
 603 006e 1A68     		ldr	r2, [r3]
 604 0070 294B     		ldr	r3, .L39+4
 605 0072 DA61     		str	r2, [r3, #28]
 606              		.loc 4 229 0
 607 0074 284B     		ldr	r3, .L39+4
 608 0076 DB69     		ldr	r3, [r3, #28]
 609 0078 284A     		ldr	r2, .L39+8
 610 007a 5A60     		str	r2, [r3, #4]
 611              		.loc 4 230 0
 612 007c 019B     		ldr	r3, [sp, #4]
 613 007e 0022     		movs	r2, #0
 614 0080 DA60     		str	r2, [r3, #12]
 615              		.loc 4 233 0
 616 0082 254B     		ldr	r3, .L39+4
 617 0084 DA69     		ldr	r2, [r3, #28]
 618 0086 254B     		ldr	r3, .L39+8
 619 0088 9A42     		cmp	r2, r3
 620 008a 02D1     		bne	.L33
 621              		.loc 4 234 0
 622 008c FFF7FEFF 		bl	port_timer_stop_alarm
 623              		.loc 4 236 0
 624 0090 3DE0     		b	.L27
 625              	.L33:
 626              		.loc 4 240 0
 627 0092 214B     		ldr	r3, .L39+4
ARM GAS  /tmp/cc6PJBFk.s 			page 12


 628 0094 DA69     		ldr	r2, [r3, #28]
 629 0096 204B     		ldr	r3, .L39+4
 630 0098 DB69     		ldr	r3, [r3, #28]
 631 009a 1989     		ldrh	r1, [r3, #8]
 632 009c 019B     		ldr	r3, [sp, #4]
 633 009e 1B89     		ldrh	r3, [r3, #8]
 634 00a0 CB18     		adds	r3, r1, r3
 635 00a2 9BB2     		uxth	r3, r3
 636 00a4 1381     		strh	r3, [r2, #8]
 637              		.loc 4 249 0
 638 00a6 FFF7FEFF 		bl	chVTGetSystemTimeX
 639 00aa 0300     		movs	r3, r0
 640 00ac 1900     		movs	r1, r3
 641 00ae 1A4B     		ldr	r3, .L39+4
 642 00b0 DA8C     		ldrh	r2, [r3, #38]
 643 00b2 03AB     		add	r3, sp, #12
 644 00b4 8A1A     		subs	r2, r1, r2
 645 00b6 1A80     		strh	r2, [r3]
 646              		.loc 4 253 0
 647 00b8 174B     		ldr	r3, .L39+4
 648 00ba DB69     		ldr	r3, [r3, #28]
 649 00bc 1B89     		ldrh	r3, [r3, #8]
 650 00be 03AA     		add	r2, sp, #12
 651 00c0 1288     		ldrh	r2, [r2]
 652 00c2 9A42     		cmp	r2, r3
 653 00c4 22D2     		bcs	.L38
 654              		.loc 4 258 0
 655 00c6 144B     		ldr	r3, .L39+4
 656 00c8 DB69     		ldr	r3, [r3, #28]
 657 00ca 1989     		ldrh	r1, [r3, #8]
 658 00cc 0E23     		movs	r3, #14
 659 00ce 6B44     		add	r3, r3, sp
 660 00d0 03AA     		add	r2, sp, #12
 661 00d2 1288     		ldrh	r2, [r2]
 662 00d4 8A1A     		subs	r2, r1, r2
 663 00d6 1A80     		strh	r2, [r3]
 664              		.loc 4 262 0
 665 00d8 0E23     		movs	r3, #14
 666 00da 6B44     		add	r3, r3, sp
 667 00dc 1B88     		ldrh	r3, [r3]
 668 00de 012B     		cmp	r3, #1
 669 00e0 03D8     		bhi	.L35
 670              		.loc 4 263 0
 671 00e2 0E23     		movs	r3, #14
 672 00e4 6B44     		add	r3, r3, sp
 673 00e6 0222     		movs	r2, #2
 674 00e8 1A80     		strh	r2, [r3]
 675              	.L35:
 676              		.loc 4 266 0
 677 00ea 0B4B     		ldr	r3, .L39+4
 678 00ec DA8C     		ldrh	r2, [r3, #38]
 679 00ee 03AB     		add	r3, sp, #12
 680 00f0 1B88     		ldrh	r3, [r3]
 681 00f2 D318     		adds	r3, r2, r3
 682 00f4 9AB2     		uxth	r2, r3
 683 00f6 0E23     		movs	r3, #14
 684 00f8 6B44     		add	r3, r3, sp
ARM GAS  /tmp/cc6PJBFk.s 			page 13


 685 00fa 1B88     		ldrh	r3, [r3]
 686 00fc D318     		adds	r3, r2, r3
 687 00fe 9BB2     		uxth	r3, r3
 688 0100 1800     		movs	r0, r3
 689 0102 FFF7FEFF 		bl	port_timer_set_alarm
 690 0106 02E0     		b	.L27
 691              	.L37:
 692              		.loc 4 224 0
 693 0108 C046     		nop
 694 010a 00E0     		b	.L27
 695              	.L38:
 696              		.loc 4 254 0
 697 010c C046     		nop
 698              	.L27:
 699              		.loc 4 268 0
 700 010e 05B0     		add	sp, sp, #20
 701              		@ sp needed
 702 0110 00BD     		pop	{pc}
 703              	.L40:
 704 0112 C046     		.align	2
 705              	.L39:
 706 0114 00000000 		.word	__func__.5712
 707 0118 00000000 		.word	ch
 708 011c 1C000000 		.word	ch+28
 709              		.cfi_endproc
 710              	.LFE154:
 711              		.size	chVTDoResetI, .-chVTDoResetI
 712              		.section	.rodata.__func__.5704,"a",%progbits
 713              		.align	2
 714              		.type	__func__.5704, %object
 715              		.size	__func__.5704, 11
 716              	__func__.5704:
 717 0000 63685654 		.ascii	"chVTDoSetI\000"
 717      446F5365 
 717      744900
 718              		.section	.rodata.__func__.5712,"a",%progbits
 719              		.align	2
 720              		.type	__func__.5712, %object
 721              		.size	__func__.5712, 13
 722              	__func__.5712:
 723 0000 63685654 		.ascii	"chVTDoResetI\000"
 723      446F5265 
 723      73657449 
 723      00
 724              		.text
 725              	.Letext0:
 726              		.file 5 "/home/felix/opt/gcc-arm-none-eabi-6-2017-q1-update/arm-none-eabi/include/machine/_default
 727              		.file 6 "/home/felix/opt/gcc-arm-none-eabi-6-2017-q1-update/arm-none-eabi/include/sys/_stdint.h"
 728              		.file 7 "ChibiOS/os/rt/ports/ARMCMx/compilers/GCC/chtypes.h"
 729              		.file 8 "ChibiOS/os/rt/include/chsystypes.h"
 730              		.file 9 "ChibiOS/os/rt/include/chschd.h"
 731              		.file 10 "ChibiOS/os/rt/ports/ARMCMx/chcore.h"
 732              		.file 11 "ChibiOS/os/rt/ports/ARMCMx/chcore_v6m.h"
 733              		.file 12 "ChibiOS/os/hal/ports/STM32/LLD/TIMv1/stm32_tim.h"
 734              		.file 13 "ChibiOS/os/rt/include/chdebug.h"
 735              		.file 14 "ChibiOS/os/rt/include/chsem.h"
 736              		.file 15 "ChibiOS/os/rt/include/chmtx.h"
ARM GAS  /tmp/cc6PJBFk.s 			page 14


 737              		.file 16 "ChibiOS/os/rt/include/chregistry.h"
 738              		.file 17 "ChibiOS/os/ext/CMSIS/ST/STM32F0xx/system_stm32f0xx.h"