ARM GAS  /tmp/cc6PJBFk.s 			page 1


   1              		.cpu cortex-m0
   2              		.eabi_attribute 20, 1
   3              		.eabi_attribute 21, 1
   4              		.eabi_attribute 23, 3
   5              		.eabi_attribute 24, 1
   6              		.eabi_attribute 25, 1
   7              		.eabi_attribute 26, 1
   8              		.eabi_attribute 30, 6
   9              		.eabi_attribute 34, 0
  10              		.eabi_attribute 18, 4
  11              		.file	"chvt.c"
  12              		.text
  13              	.Ltext0:
  14              		.cfi_sections	.debug_frame
  15              		.section	.text.st_lld_get_counter,"ax",%progbits
  16              		.align	1
  17              		.p2align 4,,15
  18              		.syntax unified
  19              		.code	16
  20              		.thumb_func
  21              		.fpu softvfp
  22              		.type	st_lld_get_counter, %function
  23              	st_lld_get_counter:
  24              	.LFB46:
  25              		.file 1 "ChibiOS/os/hal/ports/STM32/LLD/TIMv1/st_lld.h"
  26              		.loc 1 139 0
  27              		.cfi_startproc
  28              		@ args = 0, pretend = 0, frame = 0
  29              		@ frame_needed = 0, uses_anonymous_args = 0
  30              		@ link register save eliminated.
  31              		.loc 1 141 0
  32 0000 024B     		ldr	r3, .L3
  33 0002 5B6A     		ldr	r3, [r3, #36]
  34 0004 9BB2     		uxth	r3, r3
  35              		.loc 1 142 0
  36 0006 1800     		movs	r0, r3
  37              		@ sp needed
  38 0008 7047     		bx	lr
  39              	.L4:
  40 000a C046     		.align	2
  41              	.L3:
  42 000c 00040040 		.word	1073742848
  43              		.cfi_endproc
  44              	.LFE46:
  45              		.size	st_lld_get_counter, .-st_lld_get_counter
  46              		.section	.text.port_timer_start_alarm,"ax",%progbits
  47              		.align	1
  48              		.p2align 4,,15
  49              		.syntax unified
  50              		.code	16
  51              		.thumb_func
  52              		.fpu softvfp
  53              		.type	port_timer_start_alarm, %function
  54              	port_timer_start_alarm:
  55              	.LFB52:
  56              		.file 2 "ChibiOS/os/rt/ports/ARMCMx/chcore_timer.h"
  57              		.loc 2 71 0
ARM GAS  /tmp/cc6PJBFk.s 			page 2


  58              		.cfi_startproc
  59              		@ args = 0, pretend = 0, frame = 8
  60              		@ frame_needed = 0, uses_anonymous_args = 0
  61 0000 00B5     		push	{lr}
  62              		.cfi_def_cfa_offset 4
  63              		.cfi_offset 14, -4
  64 0002 83B0     		sub	sp, sp, #12
  65              		.cfi_def_cfa_offset 16
  66 0004 0200     		movs	r2, r0
  67 0006 6B46     		mov	r3, sp
  68 0008 0633     		adds	r3, r3, #6
  69 000a 1A80     		strh	r2, [r3]
  70              		.loc 2 73 0
  71 000c 6B46     		mov	r3, sp
  72 000e 0633     		adds	r3, r3, #6
  73 0010 1B88     		ldrh	r3, [r3]
  74 0012 1800     		movs	r0, r3
  75 0014 FFF7FEFF 		bl	stStartAlarm
  76              		.loc 2 74 0
  77 0018 C046     		nop
  78 001a 03B0     		add	sp, sp, #12
  79              		@ sp needed
  80 001c 00BD     		pop	{pc}
  81              		.cfi_endproc
  82              	.LFE52:
  83              		.size	port_timer_start_alarm, .-port_timer_start_alarm
  84 001e C046     		.section	.text.port_timer_stop_alarm,"ax",%progbits
  85              		.align	1
  86              		.p2align 4,,15
  87              		.syntax unified
  88              		.code	16
  89              		.thumb_func
  90              		.fpu softvfp
  91              		.type	port_timer_stop_alarm, %function
  92              	port_timer_stop_alarm:
  93              	.LFB53:
  94              		.loc 2 81 0
  95              		.cfi_startproc
  96              		@ args = 0, pretend = 0, frame = 0
  97              		@ frame_needed = 0, uses_anonymous_args = 0
  98 0000 10B5     		push	{r4, lr}
  99              		.cfi_def_cfa_offset 8
 100              		.cfi_offset 4, -8
 101              		.cfi_offset 14, -4
 102              		.loc 2 83 0
 103 0002 FFF7FEFF 		bl	stStopAlarm
 104              		.loc 2 84 0
 105 0006 C046     		nop
 106              		@ sp needed
 107 0008 10BD     		pop	{r4, pc}
 108              		.cfi_endproc
 109              	.LFE53:
 110              		.size	port_timer_stop_alarm, .-port_timer_stop_alarm
 111 000a C046     		.section	.text.port_timer_set_alarm,"ax",%progbits
 112              		.align	1
 113              		.p2align 4,,15
 114              		.syntax unified
ARM GAS  /tmp/cc6PJBFk.s 			page 3


 115              		.code	16
 116              		.thumb_func
 117              		.fpu softvfp
 118              		.type	port_timer_set_alarm, %function
 119              	port_timer_set_alarm:
 120              	.LFB54:
 121              		.loc 2 93 0
 122              		.cfi_startproc
 123              		@ args = 0, pretend = 0, frame = 8
 124              		@ frame_needed = 0, uses_anonymous_args = 0
 125 0000 00B5     		push	{lr}
 126              		.cfi_def_cfa_offset 4
 127              		.cfi_offset 14, -4
 128 0002 83B0     		sub	sp, sp, #12
 129              		.cfi_def_cfa_offset 16
 130 0004 0200     		movs	r2, r0
 131 0006 6B46     		mov	r3, sp
 132 0008 0633     		adds	r3, r3, #6
 133 000a 1A80     		strh	r2, [r3]
 134              		.loc 2 95 0
 135 000c 6B46     		mov	r3, sp
 136 000e 0633     		adds	r3, r3, #6
 137 0010 1B88     		ldrh	r3, [r3]
 138 0012 1800     		movs	r0, r3
 139 0014 FFF7FEFF 		bl	stSetAlarm
 140              		.loc 2 96 0
 141 0018 C046     		nop
 142 001a 03B0     		add	sp, sp, #12
 143              		@ sp needed
 144 001c 00BD     		pop	{pc}
 145              		.cfi_endproc
 146              	.LFE54:
 147              		.size	port_timer_set_alarm, .-port_timer_set_alarm
 148 001e C046     		.section	.text.port_timer_get_time,"ax",%progbits
 149              		.align	1
 150              		.p2align 4,,15
 151              		.syntax unified
 152              		.code	16
 153              		.thumb_func
 154              		.fpu softvfp
 155              		.type	port_timer_get_time, %function
 156              	port_timer_get_time:
 157              	.LFB55:
 158              		.loc 2 105 0
 159              		.cfi_startproc
 160              		@ args = 0, pretend = 0, frame = 0
 161              		@ frame_needed = 0, uses_anonymous_args = 0
 162 0000 10B5     		push	{r4, lr}
 163              		.cfi_def_cfa_offset 8
 164              		.cfi_offset 4, -8
 165              		.cfi_offset 14, -4
 166              		.loc 2 107 0
 167 0002 FFF7FEFF 		bl	st_lld_get_counter
 168 0006 0300     		movs	r3, r0
 169              		.loc 2 108 0
 170 0008 1800     		movs	r0, r3
 171              		@ sp needed
ARM GAS  /tmp/cc6PJBFk.s 			page 4


 172 000a 10BD     		pop	{r4, pc}
 173              		.cfi_endproc
 174              	.LFE55:
 175              		.size	port_timer_get_time, .-port_timer_get_time
 176              		.section	.text.chVTGetSystemTimeX,"ax",%progbits
 177              		.align	1
 178              		.p2align 4,,15
 179              		.syntax unified
 180              		.code	16
 181              		.thumb_func
 182              		.fpu softvfp
 183              		.type	chVTGetSystemTimeX, %function
 184              	chVTGetSystemTimeX:
 185              	.LFB85:
 186              		.file 3 "ChibiOS/os/rt/include/chvt.h"
 187              		.loc 3 228 0
 188              		.cfi_startproc
 189              		@ args = 0, pretend = 0, frame = 0
 190              		@ frame_needed = 0, uses_anonymous_args = 0
 191 0000 10B5     		push	{r4, lr}
 192              		.cfi_def_cfa_offset 8
 193              		.cfi_offset 4, -8
 194              		.cfi_offset 14, -4
 195              		.loc 3 233 0
 196 0002 FFF7FEFF 		bl	port_timer_get_time
 197 0006 0300     		movs	r3, r0
 198              		.loc 3 235 0
 199 0008 1800     		movs	r0, r3
 200              		@ sp needed
 201 000a 10BD     		pop	{r4, pc}
 202              		.cfi_endproc
 203              	.LFE85:
 204              		.size	chVTGetSystemTimeX, .-chVTGetSystemTimeX
 205              		.section	.text._vt_init,"ax",%progbits
 206              		.align	1
 207              		.p2align 4,,15
 208              		.global	_vt_init
 209              		.syntax unified
 210              		.code	16
 211              		.thumb_func
 212              		.fpu softvfp
 213              		.type	_vt_init, %function
 214              	_vt_init:
 215              	.LFB152:
 216              		.file 4 "ChibiOS/os/rt/src/chvt.c"
 217              		.loc 4 61 0
 218              		.cfi_startproc
 219              		@ args = 0, pretend = 0, frame = 0
 220              		@ frame_needed = 0, uses_anonymous_args = 0
 221              		@ link register save eliminated.
 222              		.loc 4 63 0
 223 0000 074B     		ldr	r3, .L13
 224 0002 084A     		ldr	r2, .L13+4
 225 0004 DA61     		str	r2, [r3, #28]
 226              		.loc 4 64 0
 227 0006 064B     		ldr	r3, .L13
 228 0008 064A     		ldr	r2, .L13+4
ARM GAS  /tmp/cc6PJBFk.s 			page 5


 229 000a 1A62     		str	r2, [r3, #32]
 230              		.loc 4 65 0
 231 000c 044B     		ldr	r3, .L13
 232 000e 0122     		movs	r2, #1
 233 0010 5242     		rsbs	r2, r2, #0
 234 0012 9A84     		strh	r2, [r3, #36]
 235              		.loc 4 69 0
 236 0014 024B     		ldr	r3, .L13
 237 0016 0022     		movs	r2, #0
 238 0018 DA84     		strh	r2, [r3, #38]
 239              		.loc 4 71 0
 240 001a C046     		nop
 241              		@ sp needed
 242 001c 7047     		bx	lr
 243              	.L14:
 244 001e C046     		.align	2
 245              	.L13:
 246 0020 00000000 		.word	ch
 247 0024 1C000000 		.word	ch+28
 248              		.cfi_endproc
 249              	.LFE152:
 250              		.size	_vt_init, .-_vt_init
 251              		.section	.text.chVTDoSetI,"ax",%progbits
 252              		.align	1
 253              		.p2align 4,,15
 254              		.global	chVTDoSetI
 255              		.syntax unified
 256              		.code	16
 257              		.thumb_func
 258              		.fpu softvfp
 259              		.type	chVTDoSetI, %function
 260              	chVTDoSetI:
 261              	.LFB153:
 262              		.loc 4 96 0
 263              		.cfi_startproc
 264              		@ args = 0, pretend = 0, frame = 24
 265              		@ frame_needed = 0, uses_anonymous_args = 0
 266 0000 10B5     		push	{r4, lr}
 267              		.cfi_def_cfa_offset 8
 268              		.cfi_offset 4, -8
 269              		.cfi_offset 14, -4
 270 0002 86B0     		sub	sp, sp, #24
 271              		.cfi_def_cfa_offset 32
 272 0004 0390     		str	r0, [sp, #12]
 273 0006 0192     		str	r2, [sp, #4]
 274 0008 0093     		str	r3, [sp]
 275 000a 0A23     		movs	r3, #10
 276 000c 6B44     		add	r3, r3, sp
 277 000e 0A1C     		adds	r2, r1, #0
 278 0010 1A80     		strh	r2, [r3]
 279              		.loc 4 100 0
 280 0012 FFF7FEFF 		bl	chDbgCheckClassI
 281              		.loc 4 101 0
 282 0016 039B     		ldr	r3, [sp, #12]
 283 0018 002B     		cmp	r3, #0
 284 001a 07D0     		beq	.L16
 285              		.loc 4 101 0 is_stmt 0 discriminator 3
ARM GAS  /tmp/cc6PJBFk.s 			page 6


 286 001c 019B     		ldr	r3, [sp, #4]
 287 001e 002B     		cmp	r3, #0
 288 0020 04D0     		beq	.L16
 289              		.loc 4 101 0 discriminator 5
 290 0022 0A23     		movs	r3, #10
 291 0024 6B44     		add	r3, r3, sp
 292 0026 1B88     		ldrh	r3, [r3]
 293 0028 002B     		cmp	r3, #0
 294 002a 03D1     		bne	.L17
 295              	.L16:
 296              		.loc 4 101 0 discriminator 6
 297 002c 554B     		ldr	r3, .L25
 298 002e 1800     		movs	r0, r3
 299 0030 FFF7FEFF 		bl	chSysHalt
 300              	.L17:
 301              		.loc 4 103 0 is_stmt 1
 302 0034 039B     		ldr	r3, [sp, #12]
 303 0036 009A     		ldr	r2, [sp]
 304 0038 1A61     		str	r2, [r3, #16]
 305              		.loc 4 104 0
 306 003a 039B     		ldr	r3, [sp, #12]
 307 003c 019A     		ldr	r2, [sp, #4]
 308 003e DA60     		str	r2, [r3, #12]
 309              	.LBB2:
 310              		.loc 4 108 0
 311 0040 04AC     		add	r4, sp, #16
 312 0042 FFF7FEFF 		bl	chVTGetSystemTimeX
 313 0046 0300     		movs	r3, r0
 314 0048 2380     		strh	r3, [r4]
 315              		.loc 4 112 0
 316 004a 0A23     		movs	r3, #10
 317 004c 6B44     		add	r3, r3, sp
 318 004e 1B88     		ldrh	r3, [r3]
 319 0050 012B     		cmp	r3, #1
 320 0052 03D8     		bhi	.L18
 321              		.loc 4 113 0
 322 0054 0A23     		movs	r3, #10
 323 0056 6B44     		add	r3, r3, sp
 324 0058 0222     		movs	r2, #2
 325 005a 1A80     		strh	r2, [r3]
 326              	.L18:
 327              		.loc 4 117 0
 328 005c 4A4B     		ldr	r3, .L25+4
 329 005e DA69     		ldr	r2, [r3, #28]
 330 0060 4A4B     		ldr	r3, .L25+8
 331 0062 9A42     		cmp	r2, r3
 332 0064 1FD1     		bne	.L19
 333              		.loc 4 121 0
 334 0066 484B     		ldr	r3, .L25+4
 335 0068 04AA     		add	r2, sp, #16
 336 006a 1288     		ldrh	r2, [r2]
 337 006c DA84     		strh	r2, [r3, #38]
 338              		.loc 4 122 0
 339 006e 464B     		ldr	r3, .L25+4
 340 0070 039A     		ldr	r2, [sp, #12]
 341 0072 DA61     		str	r2, [r3, #28]
 342              		.loc 4 123 0
ARM GAS  /tmp/cc6PJBFk.s 			page 7


 343 0074 444B     		ldr	r3, .L25+4
 344 0076 039A     		ldr	r2, [sp, #12]
 345 0078 1A62     		str	r2, [r3, #32]
 346              		.loc 4 124 0
 347 007a 039B     		ldr	r3, [sp, #12]
 348 007c 434A     		ldr	r2, .L25+8
 349 007e 1A60     		str	r2, [r3]
 350              		.loc 4 125 0
 351 0080 039B     		ldr	r3, [sp, #12]
 352 0082 424A     		ldr	r2, .L25+8
 353 0084 5A60     		str	r2, [r3, #4]
 354              		.loc 4 126 0
 355 0086 039B     		ldr	r3, [sp, #12]
 356 0088 0A22     		movs	r2, #10
 357 008a 6A44     		add	r2, r2, sp
 358 008c 1288     		ldrh	r2, [r2]
 359 008e 1A81     		strh	r2, [r3, #8]
 360              		.loc 4 129 0
 361 0090 3D4B     		ldr	r3, .L25+4
 362 0092 DA8C     		ldrh	r2, [r3, #38]
 363 0094 0A23     		movs	r3, #10
 364 0096 6B44     		add	r3, r3, sp
 365 0098 1B88     		ldrh	r3, [r3]
 366 009a D318     		adds	r3, r2, r3
 367 009c 9BB2     		uxth	r3, r3
 368 009e 1800     		movs	r0, r3
 369 00a0 FFF7FEFF 		bl	port_timer_start_alarm
 370              		.loc 4 131 0
 371 00a4 6CE0     		b	.L15
 372              	.L19:
 373              		.loc 4 135 0
 374 00a6 384B     		ldr	r3, .L25+4
 375 00a8 DB69     		ldr	r3, [r3, #28]
 376 00aa 0593     		str	r3, [sp, #20]
 377              		.loc 4 139 0
 378 00ac 364B     		ldr	r3, .L25+4
 379 00ae DB8C     		ldrh	r3, [r3, #38]
 380 00b0 04AA     		add	r2, sp, #16
 381 00b2 1288     		ldrh	r2, [r2]
 382 00b4 D31A     		subs	r3, r2, r3
 383 00b6 99B2     		uxth	r1, r3
 384 00b8 1223     		movs	r3, #18
 385 00ba 6B44     		add	r3, r3, sp
 386 00bc 0A22     		movs	r2, #10
 387 00be 6A44     		add	r2, r2, sp
 388 00c0 1288     		ldrh	r2, [r2]
 389 00c2 8A18     		adds	r2, r1, r2
 390 00c4 1A80     		strh	r2, [r3]
 391              		.loc 4 141 0
 392 00c6 1223     		movs	r3, #18
 393 00c8 6B44     		add	r3, r3, sp
 394 00ca 1A88     		ldrh	r2, [r3]
 395 00cc 04AB     		add	r3, sp, #16
 396 00ce 1B88     		ldrh	r3, [r3]
 397 00d0 2D49     		ldr	r1, .L25+4
 398 00d2 C98C     		ldrh	r1, [r1, #38]
 399 00d4 5B1A     		subs	r3, r3, r1
ARM GAS  /tmp/cc6PJBFk.s 			page 8


 400 00d6 9A42     		cmp	r2, r3
 401 00d8 0CDA     		bge	.L21
 402              		.loc 4 145 0
 403 00da 059B     		ldr	r3, [sp, #20]
 404 00dc 1A89     		ldrh	r2, [r3, #8]
 405 00de 1223     		movs	r3, #18
 406 00e0 6B44     		add	r3, r3, sp
 407 00e2 1221     		movs	r1, #18
 408 00e4 6944     		add	r1, r1, sp
 409 00e6 0988     		ldrh	r1, [r1]
 410 00e8 8A1A     		subs	r2, r1, r2
 411 00ea 1A80     		strh	r2, [r3]
 412              		.loc 4 146 0
 413 00ec 059B     		ldr	r3, [sp, #20]
 414 00ee 1B68     		ldr	r3, [r3]
 415 00f0 0593     		str	r3, [sp, #20]
 416 00f2 1DE0     		b	.L23
 417              	.L21:
 418              		.loc 4 148 0
 419 00f4 059B     		ldr	r3, [sp, #20]
 420 00f6 1B89     		ldrh	r3, [r3, #8]
 421 00f8 1222     		movs	r2, #18
 422 00fa 6A44     		add	r2, r2, sp
 423 00fc 1288     		ldrh	r2, [r2]
 424 00fe 9A42     		cmp	r2, r3
 425 0100 16D2     		bcs	.L23
 426              		.loc 4 151 0
 427 0102 214B     		ldr	r3, .L25+4
 428 0104 DA8C     		ldrh	r2, [r3, #38]
 429 0106 1223     		movs	r3, #18
 430 0108 6B44     		add	r3, r3, sp
 431 010a 1B88     		ldrh	r3, [r3]
 432 010c D318     		adds	r3, r2, r3
 433 010e 9BB2     		uxth	r3, r3
 434 0110 1800     		movs	r0, r3
 435 0112 FFF7FEFF 		bl	port_timer_set_alarm
 436              	.LBE2:
 437              		.loc 4 164 0
 438 0116 0BE0     		b	.L23
 439              	.L24:
 440              		.loc 4 165 0
 441 0118 059B     		ldr	r3, [sp, #20]
 442 011a 1A89     		ldrh	r2, [r3, #8]
 443 011c 1223     		movs	r3, #18
 444 011e 6B44     		add	r3, r3, sp
 445 0120 1221     		movs	r1, #18
 446 0122 6944     		add	r1, r1, sp
 447 0124 0988     		ldrh	r1, [r1]
 448 0126 8A1A     		subs	r2, r1, r2
 449 0128 1A80     		strh	r2, [r3]
 450              		.loc 4 166 0
 451 012a 059B     		ldr	r3, [sp, #20]
 452 012c 1B68     		ldr	r3, [r3]
 453 012e 0593     		str	r3, [sp, #20]
 454              	.L23:
 455              		.loc 4 164 0
 456 0130 059B     		ldr	r3, [sp, #20]
ARM GAS  /tmp/cc6PJBFk.s 			page 9


 457 0132 1B89     		ldrh	r3, [r3, #8]
 458 0134 1222     		movs	r2, #18
 459 0136 6A44     		add	r2, r2, sp
 460 0138 1288     		ldrh	r2, [r2]
 461 013a 9A42     		cmp	r2, r3
 462 013c ECD8     		bhi	.L24
 463              		.loc 4 170 0
 464 013e 039B     		ldr	r3, [sp, #12]
 465 0140 059A     		ldr	r2, [sp, #20]
 466 0142 1A60     		str	r2, [r3]
 467              		.loc 4 171 0
 468 0144 039B     		ldr	r3, [sp, #12]
 469 0146 1B68     		ldr	r3, [r3]
 470 0148 5A68     		ldr	r2, [r3, #4]
 471 014a 039B     		ldr	r3, [sp, #12]
 472 014c 5A60     		str	r2, [r3, #4]
 473              		.loc 4 172 0
 474 014e 039B     		ldr	r3, [sp, #12]
 475 0150 5B68     		ldr	r3, [r3, #4]
 476 0152 039A     		ldr	r2, [sp, #12]
 477 0154 1A60     		str	r2, [r3]
 478              		.loc 4 173 0
 479 0156 059B     		ldr	r3, [sp, #20]
 480 0158 039A     		ldr	r2, [sp, #12]
 481 015a 5A60     		str	r2, [r3, #4]
 482              		.loc 4 174 0
 483 015c 039B     		ldr	r3, [sp, #12]
 484 015e 1222     		movs	r2, #18
 485 0160 6A44     		add	r2, r2, sp
 486 0162 1288     		ldrh	r2, [r2]
 487 0164 1A81     		strh	r2, [r3, #8]
 488              		.loc 4 178 0
 489 0166 059B     		ldr	r3, [sp, #20]
 490 0168 1A89     		ldrh	r2, [r3, #8]
 491 016a 1223     		movs	r3, #18
 492 016c 6B44     		add	r3, r3, sp
 493 016e 1B88     		ldrh	r3, [r3]
 494 0170 D31A     		subs	r3, r2, r3
 495 0172 9AB2     		uxth	r2, r3
 496 0174 059B     		ldr	r3, [sp, #20]
 497 0176 1A81     		strh	r2, [r3, #8]
 498              		.loc 4 179 0
 499 0178 034B     		ldr	r3, .L25+4
 500 017a 0122     		movs	r2, #1
 501 017c 5242     		rsbs	r2, r2, #0
 502 017e 9A84     		strh	r2, [r3, #36]
 503              	.L15:
 504              		.loc 4 180 0
 505 0180 06B0     		add	sp, sp, #24
 506              		@ sp needed
 507 0182 10BD     		pop	{r4, pc}
 508              	.L26:
 509              		.align	2
 510              	.L25:
 511 0184 00000000 		.word	__func__.5704
 512 0188 00000000 		.word	ch
 513 018c 1C000000 		.word	ch+28
ARM GAS  /tmp/cc6PJBFk.s 			page 10


 514              		.cfi_endproc
 515              	.LFE153:
 516              		.size	chVTDoSetI, .-chVTDoSetI
 517              		.section	.text.chVTDoResetI,"ax",%progbits
 518              		.align	1
 519              		.p2align 4,,15
 520              		.global	chVTDoResetI
 521              		.syntax unified
 522              		.code	16
 523              		.thumb_func
 524              		.fpu softvfp
 525              		.type	chVTDoResetI, %function
 526              	chVTDoResetI:
 527              	.LFB154:
 528              		.loc 4 190 0
 529              		.cfi_startproc
 530              		@ args = 0, pretend = 0, frame = 16
 531              		@ frame_needed = 0, uses_anonymous_args = 0
 532 0000 00B5     		push	{lr}
 533              		.cfi_def_cfa_offset 4
 534              		.cfi_offset 14, -4
 535 0002 85B0     		sub	sp, sp, #20
 536              		.cfi_def_cfa_offset 24
 537 0004 0190     		str	r0, [sp, #4]
 538              		.loc 4 192 0
 539 0006 FFF7FEFF 		bl	chDbgCheckClassI
 540              		.loc 4 193 0
 541 000a 019B     		ldr	r3, [sp, #4]
 542 000c 002B     		cmp	r3, #0
 543 000e 03D1     		bne	.L36
 544              		.loc 4 193 0 is_stmt 0 discriminator 2
 545 0010 404B     		ldr	r3, .L39
 546 0012 1800     		movs	r0, r3
 547 0014 FFF7FEFF 		bl	chSysHalt
 548              	.L36:
 549              		.loc 4 194 0 is_stmt 1 discriminator 1
 550 0018 019B     		ldr	r3, [sp, #4]
 551 001a DB68     		ldr	r3, [r3, #12]
 552 001c 002B     		cmp	r3, #0
 553 001e 03D1     		bne	.L29
 554              		.loc 4 194 0 is_stmt 0 discriminator 2
 555 0020 3C4B     		ldr	r3, .L39
 556 0022 1800     		movs	r0, r3
 557 0024 FFF7FEFF 		bl	chSysHalt
 558              	.L29:
 559              		.loc 4 214 0 is_stmt 1
 560 0028 3B4B     		ldr	r3, .L39+4
 561 002a DA69     		ldr	r2, [r3, #28]
 562 002c 019B     		ldr	r3, [sp, #4]
 563 002e 9A42     		cmp	r2, r3
 564 0030 1CD0     		beq	.L30
 565              		.loc 4 216 0
 566 0032 019B     		ldr	r3, [sp, #4]
 567 0034 5B68     		ldr	r3, [r3, #4]
 568 0036 019A     		ldr	r2, [sp, #4]
 569 0038 1268     		ldr	r2, [r2]
 570 003a 1A60     		str	r2, [r3]
ARM GAS  /tmp/cc6PJBFk.s 			page 11


 571              		.loc 4 217 0
 572 003c 019B     		ldr	r3, [sp, #4]
 573 003e 1B68     		ldr	r3, [r3]
 574 0040 019A     		ldr	r2, [sp, #4]
 575 0042 5268     		ldr	r2, [r2, #4]
 576 0044 5A60     		str	r2, [r3, #4]
 577              		.loc 4 218 0
 578 0046 019B     		ldr	r3, [sp, #4]
 579 0048 0022     		movs	r2, #0
 580 004a DA60     		str	r2, [r3, #12]
 581              		.loc 4 221 0
 582 004c 019B     		ldr	r3, [sp, #4]
 583 004e 1A68     		ldr	r2, [r3]
 584 0050 324B     		ldr	r3, .L39+8
 585 0052 9A42     		cmp	r2, r3
 586 0054 58D0     		beq	.L37
 587              		.loc 4 222 0
 588 0056 019B     		ldr	r3, [sp, #4]
 589 0058 1A68     		ldr	r2, [r3]
 590 005a 019B     		ldr	r3, [sp, #4]
 591 005c 1B68     		ldr	r3, [r3]
 592 005e 1989     		ldrh	r1, [r3, #8]
 593 0060 019B     		ldr	r3, [sp, #4]
 594 0062 1B89     		ldrh	r3, [r3, #8]
 595 0064 CB18     		adds	r3, r1, r3
 596 0066 9BB2     		uxth	r3, r3
 597 0068 1381     		strh	r3, [r2, #8]
 598              		.loc 4 224 0
 599 006a 4DE0     		b	.L37
 600              	.L30:
 601              		.loc 4 228 0
 602 006c 019B     		ldr	r3, [sp, #4]
 603 006e 1A68     		ldr	r2, [r3]
 604 0070 294B     		ldr	r3, .L39+4
 605 0072 DA61     		str	r2, [r3, #28]
 606              		.loc 4 229 0
 607 0074 284B     		ldr	r3, .L39+4
 608 0076 DB69     		ldr	r3, [r3, #28]
 609 0078 284A     		ldr	r2, .L39+8
 610 007a 5A60     		str	r2, [r3, #4]
 611              		.loc 4 230 0
 612 007c 019B     		ldr	r3, [sp, #4]
 613 007e 0022     		movs	r2, #0
 614 0080 DA60     		str	r2, [r3, #12]
 615              		.loc 4 233 0
 616 0082 254B     		ldr	r3, .L39+4
 617 0084 DA69     		ldr	r2, [r3, #28]
 618 0086 254B     		ldr	r3, .L39+8
 619 0088 9A42     		cmp	r2, r3
 620 008a 02D1     		bne	.L33
 621              		.loc 4 234 0
 622 008c FFF7FEFF 		bl	port_timer_stop_alarm
 623              		.loc 4 236 0
 624 0090 3DE0     		b	.L27
 625              	.L33:
 626              		.loc 4 240 0
 627 0092 214B     		ldr	r3, .L39+4
ARM GAS  /tmp/cc6PJBFk.s 			page 12


 628 0094 DA69     		ldr	r2, [r3, #28]
 629 0096 204B     		ldr	r3, .L39+4
 630 0098 DB69     		ldr	r3, [r3, #28]
 631 009a 1989     		ldrh	r1, [r3, #8]
 632 009c 019B     		ldr	r3, [sp, #4]
 633 009e 1B89     		ldrh	r3, [r3, #8]
 634 00a0 CB18     		adds	r3, r1, r3
 635 00a2 9BB2     		uxth	r3, r3
 636 00a4 1381     		strh	r3, [r2, #8]
 637              		.loc 4 249 0
 638 00a6 FFF7FEFF 		bl	chVTGetSystemTimeX
 639 00aa 0300     		movs	r3, r0
 640 00ac 1900     		movs	r1, r3
 641 00ae 1A4B     		ldr	r3, .L39+4
 642 00b0 DA8C     		ldrh	r2, [r3, #38]
 643 00b2 03AB     		add	r3, sp, #12
 644 00b4 8A1A     		subs	r2, r1, r2
 645 00b6 1A80     		strh	r2, [r3]
 646              		.loc 4 253 0
 647 00b8 174B     		ldr	r3, .L39+4
 648 00ba DB69     		ldr	r3, [r3, #28]
 649 00bc 1B89     		ldrh	r3, [r3, #8]
 650 00be 03AA     		add	r2, sp, #12
 651 00c0 1288     		ldrh	r2, [r2]
 652 00c2 9A42     		cmp	r2, r3
 653 00c4 22D2     		bcs	.L38
 654              		.loc 4 258 0
 655 00c6 144B     		ldr	r3, .L39+4
 656 00c8 DB69     		ldr	r3, [r3, #28]
 657 00ca 1989     		ldrh	r1, [r3, #8]
 658 00cc 0E23     		movs	r3, #14
 659 00ce 6B44     		add	r3, r3, sp
 660 00d0 03AA     		add	r2, sp, #12
 661 00d2 1288     		ldrh	r2, [r2]
 662 00d4 8A1A     		subs	r2, r1, r2
 663 00d6 1A80     		strh	r2, [r3]
 664              		.loc 4 262 0
 665 00d8 0E23     		movs	r3, #14
 666 00da 6B44     		add	r3, r3, sp
 667 00dc 1B88     		ldrh	r3, [r3]
 668 00de 012B     		cmp	r3, #1
 669 00e0 03D8     		bhi	.L35
 670              		.loc 4 263 0
 671 00e2 0E23     		movs	r3, #14
 672 00e4 6B44     		add	r3, r3, sp
 673 00e6 0222     		movs	r2, #2
 674 00e8 1A80     		strh	r2, [r3]
 675              	.L35:
 676              		.loc 4 266 0
 677 00ea 0B4B     		ldr	r3, .L39+4
 678 00ec DA8C     		ldrh	r2, [r3, #38]
 679 00ee 03AB     		add	r3, sp, #12
 680 00f0 1B88     		ldrh	r3, [r3]
 681 00f2 D318     		adds	r3, r2, r3
 682 00f4 9AB2     		uxth	r2, r3
 683 00f6 0E23     		movs	r3, #14
 684 00f8 6B44     		add	r3, r3, sp
ARM GAS  /tmp/cc6PJBFk.s 			page 13


 685 00fa 1B88     		ldrh	r3, [r3]
 686 00fc D318     		adds	r3, r2, r3
 687 00fe 9BB2     		uxth	r3, r3
 688 0100 1800     		movs	r0, r3
 689 0102 FFF7FEFF 		bl	port_timer_set_alarm
 690 0106 02E0     		b	.L27
 691              	.L37:
 692              		.loc 4 224 0
 693 0108 C046     		nop
 694 010a 00E0     		b	.L27
 695              	.L38:
 696              		.loc 4 254 0
 697 010c C046     		nop
 698              	.L27:
 699              		.loc 4 268 0
 700 010e 05B0     		add	sp, sp, #20
 701              		@ sp needed
 702 0110 00BD     		pop	{pc}
 703              	.L40:
 704 0112 C046     		.align	2
 705              	.L39:
 706 0114 00000000 		.word	__func__.5712
 707 0118 00000000 		.word	ch
 708 011c 1C000000 		.word	ch+28
 709              		.cfi_endproc
 710              	.LFE154:
 711              		.size	chVTDoResetI, .-chVTDoResetI
 712              		.section	.rodata.__func__.5704,"a",%progbits
 713              		.align	2
 714              		.type	__func__.5704, %object
 715              		.size	__func__.5704, 11
 716              	__func__.5704:
 717 0000 63685654 		.ascii	"chVTDoSetI\000"
 717      446F5365 
 717      744900
 718              		.section	.rodata.__func__.5712,"a",%progbits
 719              		.align	2
 720              		.type	__func__.5712, %object
 721              		.size	__func__.5712, 13
 722              	__func__.5712:
 723 0000 63685654 		.ascii	"chVTDoResetI\000"
 723      446F5265 
 723      73657449 
 723      00
 724              		.text
 725              	.Letext0:
 726              		.file 5 "/home/felix/opt/gcc-arm-none-eabi-6-2017-q1-update/arm-none-eabi/include/machine/_default
 727              		.file 6 "/home/felix/opt/gcc-arm-none-eabi-6-2017-q1-update/arm-none-eabi/include/sys/_stdint.h"
 728              		.file 7 "ChibiOS/os/rt/ports/ARMCMx/compilers/GCC/chtypes.h"
 729              		.file 8 "ChibiOS/os/rt/include/chsystypes.h"
 730              		.file 9 "ChibiOS/os/rt/include/chschd.h"
 731              		.file 10 "ChibiOS/os/rt/ports/ARMCMx/chcore.h"
 732              		.file 11 "ChibiOS/os/rt/ports/ARMCMx/chcore_v6m.h"
 733              		.file 12 "ChibiOS/os/hal/ports/STM32/LLD/TIMv1/stm32_tim.h"
 734              		.file 13 "ChibiOS/os/rt/include/chdebug.h"
 735              		.file 14 "ChibiOS/os/rt/include/chsem.h"
 736              		.file 15 "ChibiOS/os/rt/include/chmtx.h"
ARM GAS  /tmp/cc6PJBFk.s 			page 14


 737              		.file 16 "ChibiOS/os/rt/include/chregistry.h"
 738              		.file 17 "ChibiOS/os/ext/CMSIS/ST/STM32F0xx/system_stm32f0xx.h"
 739              		.section	.debug_info,"",%progbits
 740              	.Ldebug_info0:
 741 0000 E00A0000 		.4byte	0xae0
 742 0004 0400     		.2byte	0x4
 743 0006 00000000 		.4byte	.Ldebug_abbrev0
 744 000a 04       		.byte	0x4
 745 000b 01       		.uleb128 0x1
 746 000c 7F020000 		.4byte	.LASF159
 747 0010 0C       		.byte	0xc
 748 0011 8E050000 		.4byte	.LASF160
 749 0015 AA030000 		.4byte	.LASF161
 750 0019 00000000 		.4byte	.Ldebug_ranges0+0
 751 001d 00000000 		.4byte	0
 752 0021 00000000 		.4byte	.Ldebug_line0
 753 0025 02       		.uleb128 0x2
 754 0026 04       		.byte	0x4
 755 0027 05       		.byte	0x5
 756 0028 696E7400 		.ascii	"int\000"
 757 002c 03       		.uleb128 0x3
 758 002d 04       		.byte	0x4
 759 002e 07       		.byte	0x7
 760 002f 98000000 		.4byte	.LASF0
 761 0033 03       		.uleb128 0x3
 762 0034 08       		.byte	0x8
 763 0035 05       		.byte	0x5
 764 0036 89040000 		.4byte	.LASF1
 765 003a 03       		.uleb128 0x3
 766 003b 08       		.byte	0x8
 767 003c 04       		.byte	0x4
 768 003d 50050000 		.4byte	.LASF2
 769 0041 03       		.uleb128 0x3
 770 0042 01       		.byte	0x1
 771 0043 06       		.byte	0x6
 772 0044 45070000 		.4byte	.LASF3
 773 0048 04       		.uleb128 0x4
 774 0049 2C060000 		.4byte	.LASF6
 775 004d 05       		.byte	0x5
 776 004e 2B       		.byte	0x2b
 777 004f 53000000 		.4byte	0x53
 778 0053 03       		.uleb128 0x3
 779 0054 01       		.byte	0x1
 780 0055 08       		.byte	0x8
 781 0056 D5060000 		.4byte	.LASF4
 782 005a 03       		.uleb128 0x3
 783 005b 02       		.byte	0x2
 784 005c 05       		.byte	0x5
 785 005d A7050000 		.4byte	.LASF5
 786 0061 04       		.uleb128 0x4
 787 0062 F2010000 		.4byte	.LASF7
 788 0066 05       		.byte	0x5
 789 0067 39       		.byte	0x39
 790 0068 6C000000 		.4byte	0x6c
 791 006c 03       		.uleb128 0x3
 792 006d 02       		.byte	0x2
 793 006e 07       		.byte	0x7
ARM GAS  /tmp/cc6PJBFk.s 			page 15


 794 006f 64070000 		.4byte	.LASF8
 795 0073 04       		.uleb128 0x4
 796 0074 C7000000 		.4byte	.LASF9
 797 0078 05       		.byte	0x5
 798 0079 4D       		.byte	0x4d
 799 007a 7E000000 		.4byte	0x7e
 800 007e 03       		.uleb128 0x3
 801 007f 04       		.byte	0x4
 802 0080 05       		.byte	0x5
 803 0081 CE050000 		.4byte	.LASF10
 804 0085 04       		.uleb128 0x4
 805 0086 E3060000 		.4byte	.LASF11
 806 008a 05       		.byte	0x5
 807 008b 4F       		.byte	0x4f
 808 008c 90000000 		.4byte	0x90
 809 0090 03       		.uleb128 0x3
 810 0091 04       		.byte	0x4
 811 0092 07       		.byte	0x7
 812 0093 72060000 		.4byte	.LASF12
 813 0097 04       		.uleb128 0x4
 814 0098 56030000 		.4byte	.LASF13
 815 009c 05       		.byte	0x5
 816 009d 69       		.byte	0x69
 817 009e A2000000 		.4byte	0xa2
 818 00a2 03       		.uleb128 0x3
 819 00a3 08       		.byte	0x8
 820 00a4 07       		.byte	0x7
 821 00a5 D1010000 		.4byte	.LASF14
 822 00a9 04       		.uleb128 0x4
 823 00aa 28040000 		.4byte	.LASF15
 824 00ae 06       		.byte	0x6
 825 00af 18       		.byte	0x18
 826 00b0 48000000 		.4byte	0x48
 827 00b4 04       		.uleb128 0x4
 828 00b5 5C050000 		.4byte	.LASF16
 829 00b9 06       		.byte	0x6
 830 00ba 24       		.byte	0x24
 831 00bb 61000000 		.4byte	0x61
 832 00bf 04       		.uleb128 0x4
 833 00c0 A9060000 		.4byte	.LASF17
 834 00c4 06       		.byte	0x6
 835 00c5 2C       		.byte	0x2c
 836 00c6 73000000 		.4byte	0x73
 837 00ca 04       		.uleb128 0x4
 838 00cb 65010000 		.4byte	.LASF18
 839 00cf 06       		.byte	0x6
 840 00d0 30       		.byte	0x30
 841 00d1 85000000 		.4byte	0x85
 842 00d5 05       		.uleb128 0x5
 843 00d6 CA000000 		.4byte	0xca
 844 00da 04       		.uleb128 0x4
 845 00db FF050000 		.4byte	.LASF19
 846 00df 06       		.byte	0x6
 847 00e0 3C       		.byte	0x3c
 848 00e1 97000000 		.4byte	0x97
 849 00e5 04       		.uleb128 0x4
 850 00e6 0D050000 		.4byte	.LASF20
ARM GAS  /tmp/cc6PJBFk.s 			page 16


 851 00ea 07       		.byte	0x7
 852 00eb 3C       		.byte	0x3c
 853 00ec A9000000 		.4byte	0xa9
 854 00f0 04       		.uleb128 0x4
 855 00f1 FE030000 		.4byte	.LASF21
 856 00f5 07       		.byte	0x7
 857 00f6 3D       		.byte	0x3d
 858 00f7 A9000000 		.4byte	0xa9
 859 00fb 04       		.uleb128 0x4
 860 00fc 54060000 		.4byte	.LASF22
 861 0100 07       		.byte	0x7
 862 0101 3E       		.byte	0x3e
 863 0102 A9000000 		.4byte	0xa9
 864 0106 04       		.uleb128 0x4
 865 0107 A6010000 		.4byte	.LASF23
 866 010b 07       		.byte	0x7
 867 010c 40       		.byte	0x40
 868 010d CA000000 		.4byte	0xca
 869 0111 04       		.uleb128 0x4
 870 0112 A7040000 		.4byte	.LASF24
 871 0116 07       		.byte	0x7
 872 0117 41       		.byte	0x41
 873 0118 BF000000 		.4byte	0xbf
 874 011c 04       		.uleb128 0x4
 875 011d 7A010000 		.4byte	.LASF25
 876 0121 07       		.byte	0x7
 877 0122 43       		.byte	0x43
 878 0123 CA000000 		.4byte	0xca
 879 0127 04       		.uleb128 0x4
 880 0128 FD010000 		.4byte	.LASF26
 881 012c 07       		.byte	0x7
 882 012d 45       		.byte	0x45
 883 012e BF000000 		.4byte	0xbf
 884 0132 04       		.uleb128 0x4
 885 0133 5F000000 		.4byte	.LASF27
 886 0137 08       		.byte	0x8
 887 0138 35       		.byte	0x35
 888 0139 B4000000 		.4byte	0xb4
 889 013d 04       		.uleb128 0x4
 890 013e 40020000 		.4byte	.LASF28
 891 0142 08       		.byte	0x8
 892 0143 3F       		.byte	0x3f
 893 0144 48010000 		.4byte	0x148
 894 0148 06       		.uleb128 0x6
 895 0149 51040000 		.4byte	.LASF49
 896 014d 48       		.byte	0x48
 897 014e 09       		.byte	0x9
 898 014f C2       		.byte	0xc2
 899 0150 41020000 		.4byte	0x241
 900 0154 07       		.uleb128 0x7
 901 0155 F8050000 		.4byte	.LASF29
 902 0159 09       		.byte	0x9
 903 015a C3       		.byte	0xc3
 904 015b 4C020000 		.4byte	0x24c
 905 015f 00       		.byte	0
 906 0160 07       		.uleb128 0x7
 907 0161 44060000 		.4byte	.LASF30
ARM GAS  /tmp/cc6PJBFk.s 			page 17


 908 0165 09       		.byte	0x9
 909 0166 C5       		.byte	0xc5
 910 0167 4C020000 		.4byte	0x24c
 911 016b 04       		.byte	0x4
 912 016c 07       		.uleb128 0x7
 913 016d 4F000000 		.4byte	.LASF31
 914 0171 09       		.byte	0x9
 915 0172 C7       		.byte	0xc7
 916 0173 06010000 		.4byte	0x106
 917 0177 08       		.byte	0x8
 918 0178 07       		.uleb128 0x7
 919 0179 08060000 		.4byte	.LASF32
 920 017d 09       		.byte	0x9
 921 017e C8       		.byte	0xc8
 922 017f CF040000 		.4byte	0x4cf
 923 0183 0C       		.byte	0xc
 924 0184 07       		.uleb128 0x7
 925 0185 19020000 		.4byte	.LASF33
 926 0189 09       		.byte	0x9
 927 018a CA       		.byte	0xca
 928 018b 4C020000 		.4byte	0x24c
 929 018f 10       		.byte	0x10
 930 0190 07       		.uleb128 0x7
 931 0191 0D040000 		.4byte	.LASF34
 932 0195 09       		.byte	0x9
 933 0196 CB       		.byte	0xcb
 934 0197 4C020000 		.4byte	0x24c
 935 019b 14       		.byte	0x14
 936 019c 07       		.uleb128 0x7
 937 019d 95030000 		.4byte	.LASF35
 938 01a1 09       		.byte	0x9
 939 01a2 D2       		.byte	0xd2
 940 01a3 D0070000 		.4byte	0x7d0
 941 01a7 18       		.byte	0x18
 942 01a8 07       		.uleb128 0x7
 943 01a9 1D040000 		.4byte	.LASF36
 944 01ad 09       		.byte	0x9
 945 01ae D8       		.byte	0xd8
 946 01af E7070000 		.4byte	0x7e7
 947 01b3 1C       		.byte	0x1c
 948 01b4 07       		.uleb128 0x7
 949 01b5 15040000 		.4byte	.LASF37
 950 01b9 09       		.byte	0x9
 951 01ba DD       		.byte	0xdd
 952 01bb F0000000 		.4byte	0xf0
 953 01bf 20       		.byte	0x20
 954 01c0 07       		.uleb128 0x7
 955 01c1 C2040000 		.4byte	.LASF38
 956 01c5 09       		.byte	0x9
 957 01c6 E1       		.byte	0xe1
 958 01c7 E5000000 		.4byte	0xe5
 959 01cb 21       		.byte	0x21
 960 01cc 07       		.uleb128 0x7
 961 01cd 04070000 		.4byte	.LASF39
 962 01d1 09       		.byte	0x9
 963 01d2 E6       		.byte	0xe6
 964 01d3 FB000000 		.4byte	0xfb
ARM GAS  /tmp/cc6PJBFk.s 			page 18


 965 01d7 22       		.byte	0x22
 966 01d8 08       		.uleb128 0x8
 967 01d9 705F7500 		.ascii	"p_u\000"
 968 01dd 09       		.byte	0x9
 969 01de 3101     		.2byte	0x131
 970 01e0 0B070000 		.4byte	0x70b
 971 01e4 24       		.byte	0x24
 972 01e5 09       		.uleb128 0x9
 973 01e6 20000000 		.4byte	.LASF40
 974 01ea 09       		.byte	0x9
 975 01eb 3601     		.2byte	0x136
 976 01ed 52020000 		.4byte	0x252
 977 01f1 28       		.byte	0x28
 978 01f2 09       		.uleb128 0x9
 979 01f3 86000000 		.4byte	.LASF41
 980 01f7 09       		.byte	0x9
 981 01f8 3C01     		.2byte	0x13c
 982 01fa 76020000 		.4byte	0x276
 983 01fe 2C       		.byte	0x2c
 984 01ff 09       		.uleb128 0x9
 985 0200 07050000 		.4byte	.LASF42
 986 0204 09       		.byte	0x9
 987 0205 4001     		.2byte	0x140
 988 0207 11010000 		.4byte	0x111
 989 020b 34       		.byte	0x34
 990 020c 09       		.uleb128 0x9
 991 020d BB050000 		.4byte	.LASF43
 992 0211 09       		.byte	0x9
 993 0212 4601     		.2byte	0x146
 994 0214 1C010000 		.4byte	0x11c
 995 0218 38       		.byte	0x38
 996 0219 09       		.uleb128 0x9
 997 021a 42040000 		.4byte	.LASF44
 998 021e 09       		.byte	0x9
 999 021f 4D01     		.2byte	0x14d
 1000 0221 CA070000 		.4byte	0x7ca
 1001 0225 3C       		.byte	0x3c
 1002 0226 09       		.uleb128 0x9
 1003 0227 78050000 		.4byte	.LASF45
 1004 022b 09       		.byte	0x9
 1005 022c 5101     		.2byte	0x151
 1006 022e 06010000 		.4byte	0x106
 1007 0232 40       		.byte	0x40
 1008 0233 09       		.uleb128 0x9
 1009 0234 3A040000 		.4byte	.LASF46
 1010 0238 09       		.byte	0x9
 1011 0239 5801     		.2byte	0x158
 1012 023b 29030000 		.4byte	0x329
 1013 023f 44       		.byte	0x44
 1014 0240 00       		.byte	0
 1015 0241 04       		.uleb128 0x4
 1016 0242 DF030000 		.4byte	.LASF47
 1017 0246 08       		.byte	0x8
 1018 0247 44       		.byte	0x44
 1019 0248 4C020000 		.4byte	0x24c
 1020 024c 0A       		.uleb128 0xa
 1021 024d 04       		.byte	0x4
ARM GAS  /tmp/cc6PJBFk.s 			page 19


 1022 024e 3D010000 		.4byte	0x13d
 1023 0252 04       		.uleb128 0x4
 1024 0253 B8000000 		.4byte	.LASF48
 1025 0257 08       		.byte	0x8
 1026 0258 49       		.byte	0x49
 1027 0259 5D020000 		.4byte	0x25d
 1028 025d 06       		.uleb128 0x6
 1029 025e 00000000 		.4byte	.LASF50
 1030 0262 04       		.byte	0x4
 1031 0263 09       		.byte	0x9
 1032 0264 B0       		.byte	0xb0
 1033 0265 76020000 		.4byte	0x276
 1034 0269 07       		.uleb128 0x7
 1035 026a F8050000 		.4byte	.LASF29
 1036 026e 09       		.byte	0x9
 1037 026f B1       		.byte	0xb1
 1038 0270 4C020000 		.4byte	0x24c
 1039 0274 00       		.byte	0
 1040 0275 00       		.byte	0
 1041 0276 04       		.uleb128 0x4
 1042 0277 10000000 		.4byte	.LASF51
 1043 027b 08       		.byte	0x8
 1044 027c 50       		.byte	0x50
 1045 027d 81020000 		.4byte	0x281
 1046 0281 06       		.uleb128 0x6
 1047 0282 25010000 		.4byte	.LASF52
 1048 0286 08       		.byte	0x8
 1049 0287 09       		.byte	0x9
 1050 0288 B7       		.byte	0xb7
 1051 0289 A6020000 		.4byte	0x2a6
 1052 028d 07       		.uleb128 0x7
 1053 028e F8050000 		.4byte	.LASF29
 1054 0292 09       		.byte	0x9
 1055 0293 B8       		.byte	0xb8
 1056 0294 4C020000 		.4byte	0x24c
 1057 0298 00       		.byte	0
 1058 0299 07       		.uleb128 0x7
 1059 029a 44060000 		.4byte	.LASF30
 1060 029e 09       		.byte	0x9
 1061 029f B9       		.byte	0xb9
 1062 02a0 4C020000 		.4byte	0x24c
 1063 02a4 04       		.byte	0x4
 1064 02a5 00       		.byte	0
 1065 02a6 04       		.uleb128 0x4
 1066 02a7 9C060000 		.4byte	.LASF53
 1067 02ab 08       		.byte	0x8
 1068 02ac 57       		.byte	0x57
 1069 02ad B1020000 		.4byte	0x2b1
 1070 02b1 0B       		.uleb128 0xb
 1071 02b2 F4000000 		.4byte	.LASF54
 1072 02b6 1C       		.byte	0x1c
 1073 02b7 09       		.byte	0x9
 1074 02b8 9001     		.2byte	0x190
 1075 02ba 0D030000 		.4byte	0x30d
 1076 02be 09       		.uleb128 0x9
 1077 02bf 97040000 		.4byte	.LASF55
 1078 02c3 09       		.byte	0x9
ARM GAS  /tmp/cc6PJBFk.s 			page 20


 1079 02c4 9101     		.2byte	0x191
 1080 02c6 76020000 		.4byte	0x276
 1081 02ca 00       		.byte	0
 1082 02cb 09       		.uleb128 0x9
 1083 02cc 86010000 		.4byte	.LASF56
 1084 02d0 09       		.byte	0x9
 1085 02d1 9201     		.2byte	0x192
 1086 02d3 06010000 		.4byte	0x106
 1087 02d7 08       		.byte	0x8
 1088 02d8 09       		.uleb128 0x9
 1089 02d9 77070000 		.4byte	.LASF57
 1090 02dd 09       		.byte	0x9
 1091 02de 9401     		.2byte	0x194
 1092 02e0 CF040000 		.4byte	0x4cf
 1093 02e4 0C       		.byte	0xc
 1094 02e5 09       		.uleb128 0x9
 1095 02e6 9F040000 		.4byte	.LASF58
 1096 02ea 09       		.byte	0x9
 1097 02eb 9701     		.2byte	0x197
 1098 02ed 4C020000 		.4byte	0x24c
 1099 02f1 10       		.byte	0x10
 1100 02f2 09       		.uleb128 0x9
 1101 02f3 F5040000 		.4byte	.LASF59
 1102 02f7 09       		.byte	0x9
 1103 02f8 9801     		.2byte	0x198
 1104 02fa 4C020000 		.4byte	0x24c
 1105 02fe 14       		.byte	0x14
 1106 02ff 09       		.uleb128 0x9
 1107 0300 B1050000 		.4byte	.LASF60
 1108 0304 09       		.byte	0x9
 1109 0305 9B01     		.2byte	0x19b
 1110 0307 4C020000 		.4byte	0x24c
 1111 030b 18       		.byte	0x18
 1112 030c 00       		.byte	0
 1113 030d 04       		.uleb128 0x4
 1114 030e 46010000 		.4byte	.LASF61
 1115 0312 08       		.byte	0x8
 1116 0313 5C       		.byte	0x5c
 1117 0314 18030000 		.4byte	0x318
 1118 0318 0A       		.uleb128 0xa
 1119 0319 04       		.byte	0x4
 1120 031a 1E030000 		.4byte	0x31e
 1121 031e 0C       		.uleb128 0xc
 1122 031f 29030000 		.4byte	0x329
 1123 0323 0D       		.uleb128 0xd
 1124 0324 29030000 		.4byte	0x329
 1125 0328 00       		.byte	0
 1126 0329 0E       		.uleb128 0xe
 1127 032a 04       		.byte	0x4
 1128 032b 04       		.uleb128 0x4
 1129 032c CA040000 		.4byte	.LASF62
 1130 0330 08       		.byte	0x8
 1131 0331 61       		.byte	0x61
 1132 0332 36030000 		.4byte	0x336
 1133 0336 0B       		.uleb128 0xb
 1134 0337 AE010000 		.4byte	.LASF63
 1135 033b 14       		.byte	0x14
ARM GAS  /tmp/cc6PJBFk.s 			page 21


 1136 033c 09       		.byte	0x9
 1137 033d 6B01     		.2byte	0x16b
 1138 033f 85030000 		.4byte	0x385
 1139 0343 09       		.uleb128 0x9
 1140 0344 0B070000 		.4byte	.LASF64
 1141 0348 09       		.byte	0x9
 1142 0349 6C01     		.2byte	0x16c
 1143 034b ED070000 		.4byte	0x7ed
 1144 034f 00       		.byte	0
 1145 0350 09       		.uleb128 0x9
 1146 0351 A2070000 		.4byte	.LASF65
 1147 0355 09       		.byte	0x9
 1148 0356 6D01     		.2byte	0x16d
 1149 0358 ED070000 		.4byte	0x7ed
 1150 035c 04       		.byte	0x4
 1151 035d 09       		.uleb128 0x9
 1152 035e A1030000 		.4byte	.LASF66
 1153 0362 09       		.byte	0x9
 1154 0363 6E01     		.2byte	0x16e
 1155 0365 32010000 		.4byte	0x132
 1156 0369 08       		.byte	0x8
 1157 036a 09       		.uleb128 0x9
 1158 036b 9A070000 		.4byte	.LASF67
 1159 036f 09       		.byte	0x9
 1160 0370 6F01     		.2byte	0x16f
 1161 0372 0D030000 		.4byte	0x30d
 1162 0376 0C       		.byte	0xc
 1163 0377 09       		.uleb128 0x9
 1164 0378 92010000 		.4byte	.LASF68
 1165 037c 09       		.byte	0x9
 1166 037d 7101     		.2byte	0x171
 1167 037f 29030000 		.4byte	0x329
 1168 0383 10       		.byte	0x10
 1169 0384 00       		.byte	0
 1170 0385 04       		.uleb128 0x4
 1171 0386 EE060000 		.4byte	.LASF69
 1172 038a 08       		.byte	0x8
 1173 038b 66       		.byte	0x66
 1174 038c 90030000 		.4byte	0x390
 1175 0390 0B       		.uleb128 0xb
 1176 0391 21020000 		.4byte	.LASF70
 1177 0395 0C       		.byte	0xc
 1178 0396 09       		.byte	0x9
 1179 0397 7B01     		.2byte	0x17b
 1180 0399 D2030000 		.4byte	0x3d2
 1181 039d 09       		.uleb128 0x9
 1182 039e 0B070000 		.4byte	.LASF64
 1183 03a2 09       		.byte	0x9
 1184 03a3 7C01     		.2byte	0x17c
 1185 03a5 ED070000 		.4byte	0x7ed
 1186 03a9 00       		.byte	0
 1187 03aa 09       		.uleb128 0x9
 1188 03ab A2070000 		.4byte	.LASF65
 1189 03af 09       		.byte	0x9
 1190 03b0 7E01     		.2byte	0x17e
 1191 03b2 ED070000 		.4byte	0x7ed
 1192 03b6 04       		.byte	0x4
ARM GAS  /tmp/cc6PJBFk.s 			page 22


 1193 03b7 09       		.uleb128 0x9
 1194 03b8 A1030000 		.4byte	.LASF66
 1195 03bc 09       		.byte	0x9
 1196 03bd 8001     		.2byte	0x180
 1197 03bf 32010000 		.4byte	0x132
 1198 03c3 08       		.byte	0x8
 1199 03c4 09       		.uleb128 0x9
 1200 03c5 F2030000 		.4byte	.LASF71
 1201 03c9 09       		.byte	0x9
 1202 03ca 8801     		.2byte	0x188
 1203 03cc 32010000 		.4byte	0x132
 1204 03d0 0A       		.byte	0xa
 1205 03d1 00       		.byte	0
 1206 03d2 04       		.uleb128 0x4
 1207 03d3 7A040000 		.4byte	.LASF72
 1208 03d7 08       		.byte	0x8
 1209 03d8 6B       		.byte	0x6b
 1210 03d9 DD030000 		.4byte	0x3dd
 1211 03dd 0F       		.uleb128 0xf
 1212 03de 55010000 		.4byte	.LASF73
 1213 03e2 1404     		.2byte	0x414
 1214 03e4 09       		.byte	0x9
 1215 03e5 A201     		.2byte	0x1a2
 1216 03e7 20040000 		.4byte	0x420
 1217 03eb 09       		.uleb128 0x9
 1218 03ec FD040000 		.4byte	.LASF74
 1219 03f0 09       		.byte	0x9
 1220 03f1 AA01     		.2byte	0x1aa
 1221 03f3 D6070000 		.4byte	0x7d6
 1222 03f7 00       		.byte	0
 1223 03f8 09       		.uleb128 0x9
 1224 03f9 11020000 		.4byte	.LASF75
 1225 03fd 09       		.byte	0x9
 1226 03fe AF01     		.2byte	0x1af
 1227 0400 27010000 		.4byte	0x127
 1228 0404 04       		.byte	0x4
 1229 0405 09       		.uleb128 0x9
 1230 0406 6F050000 		.4byte	.LASF76
 1231 040a 09       		.byte	0x9
 1232 040b B301     		.2byte	0x1b3
 1233 040d 27010000 		.4byte	0x127
 1234 0411 08       		.byte	0x8
 1235 0412 09       		.uleb128 0x9
 1236 0413 B1060000 		.4byte	.LASF77
 1237 0417 09       		.byte	0x9
 1238 0418 B901     		.2byte	0x1b9
 1239 041a 00070000 		.4byte	0x700
 1240 041e 0C       		.byte	0xc
 1241 041f 00       		.byte	0
 1242 0420 04       		.uleb128 0x4
 1243 0421 13070000 		.4byte	.LASF78
 1244 0425 08       		.byte	0x8
 1245 0426 70       		.byte	0x70
 1246 0427 2B040000 		.4byte	0x42b
 1247 042b 0F       		.uleb128 0xf
 1248 042c EE050000 		.4byte	.LASF79
 1249 0430 6805     		.2byte	0x568
ARM GAS  /tmp/cc6PJBFk.s 			page 23


 1250 0432 09       		.byte	0x9
 1251 0433 C201     		.2byte	0x1c2
 1252 0435 7D040000 		.4byte	0x47d
 1253 0439 09       		.uleb128 0x9
 1254 043a 0E060000 		.4byte	.LASF80
 1255 043e 09       		.byte	0x9
 1256 043f C601     		.2byte	0x1c6
 1257 0441 A6020000 		.4byte	0x2a6
 1258 0445 00       		.byte	0
 1259 0446 09       		.uleb128 0x9
 1260 0447 ED000000 		.4byte	.LASF81
 1261 044b 09       		.byte	0x9
 1262 044c CA01     		.2byte	0x1ca
 1263 044e 85030000 		.4byte	0x385
 1264 0452 1C       		.byte	0x1c
 1265 0453 08       		.uleb128 0x8
 1266 0454 64626700 		.ascii	"dbg\000"
 1267 0458 09       		.byte	0x9
 1268 0459 CE01     		.2byte	0x1ce
 1269 045b D2030000 		.4byte	0x3d2
 1270 045f 28       		.byte	0x28
 1271 0460 10       		.uleb128 0x10
 1272 0461 1D050000 		.4byte	.LASF82
 1273 0465 09       		.byte	0x9
 1274 0466 D201     		.2byte	0x1d2
 1275 0468 3D010000 		.4byte	0x13d
 1276 046c 3C04     		.2byte	0x43c
 1277 046e 10       		.uleb128 0x10
 1278 046f 02010000 		.4byte	.LASF83
 1279 0473 09       		.byte	0x9
 1280 0474 E301     		.2byte	0x1e3
 1281 0476 F3070000 		.4byte	0x7f3
 1282 047a 8804     		.2byte	0x488
 1283 047c 00       		.byte	0
 1284 047d 03       		.uleb128 0x3
 1285 047e 04       		.byte	0x4
 1286 047f 07       		.byte	0x7
 1287 0480 4B060000 		.4byte	.LASF84
 1288 0484 11       		.uleb128 0x11
 1289 0485 D5000000 		.4byte	0xd5
 1290 0489 94040000 		.4byte	0x494
 1291 048d 12       		.uleb128 0x12
 1292 048e 7D040000 		.4byte	0x47d
 1293 0492 01       		.byte	0x1
 1294 0493 00       		.byte	0
 1295 0494 05       		.uleb128 0x5
 1296 0495 84040000 		.4byte	0x484
 1297 0499 13       		.uleb128 0x13
 1298 049a 2A000000 		.4byte	.LASF123
 1299 049e 11       		.byte	0x11
 1300 049f 4C       		.byte	0x4c
 1301 04a0 CA000000 		.4byte	0xca
 1302 04a4 11       		.uleb128 0x11
 1303 04a5 D5000000 		.4byte	0xd5
 1304 04a9 B4040000 		.4byte	0x4b4
 1305 04ad 12       		.uleb128 0x12
 1306 04ae 7D040000 		.4byte	0x47d
ARM GAS  /tmp/cc6PJBFk.s 			page 24


 1307 04b2 03       		.byte	0x3
 1308 04b3 00       		.byte	0
 1309 04b4 05       		.uleb128 0x5
 1310 04b5 A4040000 		.4byte	0x4a4
 1311 04b9 04       		.uleb128 0x4
 1312 04ba 46000000 		.4byte	.LASF85
 1313 04be 0A       		.byte	0xa
 1314 04bf 65       		.byte	0x65
 1315 04c0 29030000 		.4byte	0x329
 1316 04c4 04       		.uleb128 0x4
 1317 04c5 7D070000 		.4byte	.LASF86
 1318 04c9 0A       		.byte	0xa
 1319 04ca 6D       		.byte	0x6d
 1320 04cb DA000000 		.4byte	0xda
 1321 04cf 06       		.uleb128 0x6
 1322 04d0 BA040000 		.4byte	.LASF87
 1323 04d4 04       		.byte	0x4
 1324 04d5 0A       		.byte	0xa
 1325 04d6 89       		.byte	0x89
 1326 04d7 E8040000 		.4byte	0x4e8
 1327 04db 14       		.uleb128 0x14
 1328 04dc 72313300 		.ascii	"r13\000"
 1329 04e0 0A       		.byte	0xa
 1330 04e1 8A       		.byte	0x8a
 1331 04e2 5A050000 		.4byte	0x55a
 1332 04e6 00       		.byte	0
 1333 04e7 00       		.byte	0
 1334 04e8 06       		.uleb128 0x6
 1335 04e9 D7050000 		.4byte	.LASF88
 1336 04ed 24       		.byte	0x24
 1337 04ee 0B       		.byte	0xb
 1338 04ef A4       		.byte	0xa4
 1339 04f0 5A050000 		.4byte	0x55a
 1340 04f4 14       		.uleb128 0x14
 1341 04f5 723800   		.ascii	"r8\000"
 1342 04f8 0B       		.byte	0xb
 1343 04f9 A5       		.byte	0xa5
 1344 04fa B9040000 		.4byte	0x4b9
 1345 04fe 00       		.byte	0
 1346 04ff 14       		.uleb128 0x14
 1347 0500 723900   		.ascii	"r9\000"
 1348 0503 0B       		.byte	0xb
 1349 0504 A6       		.byte	0xa6
 1350 0505 B9040000 		.4byte	0x4b9
 1351 0509 04       		.byte	0x4
 1352 050a 14       		.uleb128 0x14
 1353 050b 72313000 		.ascii	"r10\000"
 1354 050f 0B       		.byte	0xb
 1355 0510 A7       		.byte	0xa7
 1356 0511 B9040000 		.4byte	0x4b9
 1357 0515 08       		.byte	0x8
 1358 0516 14       		.uleb128 0x14
 1359 0517 72313100 		.ascii	"r11\000"
 1360 051b 0B       		.byte	0xb
 1361 051c A8       		.byte	0xa8
 1362 051d B9040000 		.4byte	0x4b9
 1363 0521 0C       		.byte	0xc
ARM GAS  /tmp/cc6PJBFk.s 			page 25


 1364 0522 14       		.uleb128 0x14
 1365 0523 723400   		.ascii	"r4\000"
 1366 0526 0B       		.byte	0xb
 1367 0527 A9       		.byte	0xa9
 1368 0528 B9040000 		.4byte	0x4b9
 1369 052c 10       		.byte	0x10
 1370 052d 14       		.uleb128 0x14
 1371 052e 723500   		.ascii	"r5\000"
 1372 0531 0B       		.byte	0xb
 1373 0532 AA       		.byte	0xaa
 1374 0533 B9040000 		.4byte	0x4b9
 1375 0537 14       		.byte	0x14
 1376 0538 14       		.uleb128 0x14
 1377 0539 723600   		.ascii	"r6\000"
 1378 053c 0B       		.byte	0xb
 1379 053d AB       		.byte	0xab
 1380 053e B9040000 		.4byte	0x4b9
 1381 0542 18       		.byte	0x18
 1382 0543 14       		.uleb128 0x14
 1383 0544 723700   		.ascii	"r7\000"
 1384 0547 0B       		.byte	0xb
 1385 0548 AC       		.byte	0xac
 1386 0549 B9040000 		.4byte	0x4b9
 1387 054d 1C       		.byte	0x1c
 1388 054e 14       		.uleb128 0x14
 1389 054f 6C7200   		.ascii	"lr\000"
 1390 0552 0B       		.byte	0xb
 1391 0553 AD       		.byte	0xad
 1392 0554 B9040000 		.4byte	0x4b9
 1393 0558 20       		.byte	0x20
 1394 0559 00       		.byte	0
 1395 055a 0A       		.uleb128 0xa
 1396 055b 04       		.byte	0x4
 1397 055c E8040000 		.4byte	0x4e8
 1398 0560 15       		.uleb128 0x15
 1399 0561 60       		.byte	0x60
 1400 0562 0C       		.byte	0xc
 1401 0563 A101     		.2byte	0x1a1
 1402 0565 6C060000 		.4byte	0x66c
 1403 0569 08       		.uleb128 0x8
 1404 056a 43523100 		.ascii	"CR1\000"
 1405 056e 0C       		.byte	0xc
 1406 056f A201     		.2byte	0x1a2
 1407 0571 D5000000 		.4byte	0xd5
 1408 0575 00       		.byte	0
 1409 0576 08       		.uleb128 0x8
 1410 0577 43523200 		.ascii	"CR2\000"
 1411 057b 0C       		.byte	0xc
 1412 057c A301     		.2byte	0x1a3
 1413 057e D5000000 		.4byte	0xd5
 1414 0582 04       		.byte	0x4
 1415 0583 09       		.uleb128 0x9
 1416 0584 4C040000 		.4byte	.LASF89
 1417 0588 0C       		.byte	0xc
 1418 0589 A401     		.2byte	0x1a4
 1419 058b D5000000 		.4byte	0xd5
 1420 058f 08       		.byte	0x8
ARM GAS  /tmp/cc6PJBFk.s 			page 26


 1421 0590 09       		.uleb128 0x9
 1422 0591 61030000 		.4byte	.LASF90
 1423 0595 0C       		.byte	0xc
 1424 0596 A501     		.2byte	0x1a5
 1425 0598 D5000000 		.4byte	0xd5
 1426 059c 0C       		.byte	0xc
 1427 059d 08       		.uleb128 0x8
 1428 059e 535200   		.ascii	"SR\000"
 1429 05a1 0C       		.byte	0xc
 1430 05a2 A601     		.2byte	0x1a6
 1431 05a4 D5000000 		.4byte	0xd5
 1432 05a8 10       		.byte	0x10
 1433 05a9 08       		.uleb128 0x8
 1434 05aa 45475200 		.ascii	"EGR\000"
 1435 05ae 0C       		.byte	0xc
 1436 05af A701     		.2byte	0x1a7
 1437 05b1 D5000000 		.4byte	0xd5
 1438 05b5 14       		.byte	0x14
 1439 05b6 09       		.uleb128 0x9
 1440 05b7 BF010000 		.4byte	.LASF91
 1441 05bb 0C       		.byte	0xc
 1442 05bc A801     		.2byte	0x1a8
 1443 05be D5000000 		.4byte	0xd5
 1444 05c2 18       		.byte	0x18
 1445 05c3 09       		.uleb128 0x9
 1446 05c4 C5010000 		.4byte	.LASF92
 1447 05c8 0C       		.byte	0xc
 1448 05c9 A901     		.2byte	0x1a9
 1449 05cb D5000000 		.4byte	0xd5
 1450 05cf 1C       		.byte	0x1c
 1451 05d0 09       		.uleb128 0x9
 1452 05d1 9C030000 		.4byte	.LASF93
 1453 05d5 0C       		.byte	0xc
 1454 05d6 AA01     		.2byte	0x1aa
 1455 05d8 D5000000 		.4byte	0xd5
 1456 05dc 20       		.byte	0x20
 1457 05dd 08       		.uleb128 0x8
 1458 05de 434E5400 		.ascii	"CNT\000"
 1459 05e2 0C       		.byte	0xc
 1460 05e3 AB01     		.2byte	0x1ab
 1461 05e5 D5000000 		.4byte	0xd5
 1462 05e9 24       		.byte	0x24
 1463 05ea 08       		.uleb128 0x8
 1464 05eb 50534300 		.ascii	"PSC\000"
 1465 05ef 0C       		.byte	0xc
 1466 05f0 AC01     		.2byte	0x1ac
 1467 05f2 D5000000 		.4byte	0xd5
 1468 05f6 28       		.byte	0x28
 1469 05f7 08       		.uleb128 0x8
 1470 05f8 41525200 		.ascii	"ARR\000"
 1471 05fc 0C       		.byte	0xc
 1472 05fd AD01     		.2byte	0x1ad
 1473 05ff D5000000 		.4byte	0xd5
 1474 0603 2C       		.byte	0x2c
 1475 0604 08       		.uleb128 0x8
 1476 0605 52435200 		.ascii	"RCR\000"
 1477 0609 0C       		.byte	0xc
ARM GAS  /tmp/cc6PJBFk.s 			page 27


 1478 060a AE01     		.2byte	0x1ae
 1479 060c D5000000 		.4byte	0xd5
 1480 0610 30       		.byte	0x30
 1481 0611 08       		.uleb128 0x8
 1482 0612 43435200 		.ascii	"CCR\000"
 1483 0616 0C       		.byte	0xc
 1484 0617 AF01     		.2byte	0x1af
 1485 0619 B4040000 		.4byte	0x4b4
 1486 061d 34       		.byte	0x34
 1487 061e 09       		.uleb128 0x9
 1488 061f 8D010000 		.4byte	.LASF94
 1489 0623 0C       		.byte	0xc
 1490 0624 B001     		.2byte	0x1b0
 1491 0626 D5000000 		.4byte	0xd5
 1492 062a 44       		.byte	0x44
 1493 062b 08       		.uleb128 0x8
 1494 062c 44435200 		.ascii	"DCR\000"
 1495 0630 0C       		.byte	0xc
 1496 0631 B101     		.2byte	0x1b1
 1497 0633 D5000000 		.4byte	0xd5
 1498 0637 48       		.byte	0x48
 1499 0638 09       		.uleb128 0x9
 1500 0639 41010000 		.4byte	.LASF95
 1501 063d 0C       		.byte	0xc
 1502 063e B201     		.2byte	0x1b2
 1503 0640 D5000000 		.4byte	0xd5
 1504 0644 4C       		.byte	0x4c
 1505 0645 08       		.uleb128 0x8
 1506 0646 4F5200   		.ascii	"OR\000"
 1507 0649 0C       		.byte	0xc
 1508 064a B301     		.2byte	0x1b3
 1509 064c D5000000 		.4byte	0xd5
 1510 0650 50       		.byte	0x50
 1511 0651 09       		.uleb128 0x9
 1512 0652 CB010000 		.4byte	.LASF96
 1513 0656 0C       		.byte	0xc
 1514 0657 B401     		.2byte	0x1b4
 1515 0659 D5000000 		.4byte	0xd5
 1516 065d 54       		.byte	0x54
 1517 065e 09       		.uleb128 0x9
 1518 065f E9050000 		.4byte	.LASF97
 1519 0663 0C       		.byte	0xc
 1520 0664 B501     		.2byte	0x1b5
 1521 0666 94040000 		.4byte	0x494
 1522 066a 58       		.byte	0x58
 1523 066b 00       		.byte	0
 1524 066c 16       		.uleb128 0x16
 1525 066d 6D020000 		.4byte	.LASF98
 1526 0671 0C       		.byte	0xc
 1527 0672 B601     		.2byte	0x1b6
 1528 0674 60050000 		.4byte	0x560
 1529 0678 17       		.uleb128 0x17
 1530 0679 10       		.byte	0x10
 1531 067a 0D       		.byte	0xd
 1532 067b 51       		.byte	0x51
 1533 067c B1060000 		.4byte	0x6b1
 1534 0680 07       		.uleb128 0x7
ARM GAS  /tmp/cc6PJBFk.s 			page 28


 1535 0681 38020000 		.4byte	.LASF99
 1536 0685 0D       		.byte	0xd
 1537 0686 55       		.byte	0x55
 1538 0687 32010000 		.4byte	0x132
 1539 068b 00       		.byte	0
 1540 068c 07       		.uleb128 0x7
 1541 068d 07040000 		.4byte	.LASF100
 1542 0691 0D       		.byte	0xd
 1543 0692 59       		.byte	0x59
 1544 0693 4C020000 		.4byte	0x24c
 1545 0697 04       		.byte	0x4
 1546 0698 07       		.uleb128 0x7
 1547 0699 E8010000 		.4byte	.LASF101
 1548 069d 0D       		.byte	0xd
 1549 069e 5D       		.byte	0x5d
 1550 069f 29030000 		.4byte	0x329
 1551 06a3 08       		.byte	0x8
 1552 06a4 07       		.uleb128 0x7
 1553 06a5 D1000000 		.4byte	.LASF102
 1554 06a9 0D       		.byte	0xd
 1555 06aa 61       		.byte	0x61
 1556 06ab A9000000 		.4byte	0xa9
 1557 06af 0C       		.byte	0xc
 1558 06b0 00       		.byte	0
 1559 06b1 04       		.uleb128 0x4
 1560 06b2 BE060000 		.4byte	.LASF103
 1561 06b6 0D       		.byte	0xd
 1562 06b7 62       		.byte	0x62
 1563 06b8 78060000 		.4byte	0x678
 1564 06bc 18       		.uleb128 0x18
 1565 06bd 0804     		.2byte	0x408
 1566 06bf 0D       		.byte	0xd
 1567 06c0 67       		.byte	0x67
 1568 06c1 EA060000 		.4byte	0x6ea
 1569 06c5 07       		.uleb128 0x7
 1570 06c6 5B040000 		.4byte	.LASF104
 1571 06ca 0D       		.byte	0xd
 1572 06cb 6B       		.byte	0x6b
 1573 06cc 2C000000 		.4byte	0x2c
 1574 06d0 00       		.byte	0
 1575 06d1 07       		.uleb128 0x7
 1576 06d2 EE040000 		.4byte	.LASF105
 1577 06d6 0D       		.byte	0xd
 1578 06d7 6F       		.byte	0x6f
 1579 06d8 EA060000 		.4byte	0x6ea
 1580 06dc 04       		.byte	0x4
 1581 06dd 07       		.uleb128 0x7
 1582 06de 30040000 		.4byte	.LASF106
 1583 06e2 0D       		.byte	0xd
 1584 06e3 73       		.byte	0x73
 1585 06e4 F0060000 		.4byte	0x6f0
 1586 06e8 08       		.byte	0x8
 1587 06e9 00       		.byte	0
 1588 06ea 0A       		.uleb128 0xa
 1589 06eb 04       		.byte	0x4
 1590 06ec B1060000 		.4byte	0x6b1
 1591 06f0 11       		.uleb128 0x11
ARM GAS  /tmp/cc6PJBFk.s 			page 29


 1592 06f1 B1060000 		.4byte	0x6b1
 1593 06f5 00070000 		.4byte	0x700
 1594 06f9 12       		.uleb128 0x12
 1595 06fa 7D040000 		.4byte	0x47d
 1596 06fe 3F       		.byte	0x3f
 1597 06ff 00       		.byte	0
 1598 0700 04       		.uleb128 0x4
 1599 0701 2C070000 		.4byte	.LASF107
 1600 0705 0D       		.byte	0xd
 1601 0706 74       		.byte	0x74
 1602 0707 BC060000 		.4byte	0x6bc
 1603 070b 19       		.uleb128 0x19
 1604 070c 04       		.byte	0x4
 1605 070d 09       		.byte	0x9
 1606 070e FA       		.byte	0xfa
 1607 070f 68070000 		.4byte	0x768
 1608 0713 1A       		.uleb128 0x1a
 1609 0714 49020000 		.4byte	.LASF108
 1610 0718 09       		.byte	0x9
 1611 0719 0101     		.2byte	0x101
 1612 071b 11010000 		.4byte	0x111
 1613 071f 1A       		.uleb128 0x1a
 1614 0720 AA070000 		.4byte	.LASF109
 1615 0724 09       		.byte	0x9
 1616 0725 0801     		.2byte	0x108
 1617 0727 11010000 		.4byte	0x111
 1618 072b 1A       		.uleb128 0x1a
 1619 072c E6000000 		.4byte	.LASF110
 1620 0730 09       		.byte	0x9
 1621 0731 0F01     		.2byte	0x10f
 1622 0733 29030000 		.4byte	0x329
 1623 0737 1A       		.uleb128 0x1a
 1624 0738 26070000 		.4byte	.LASF111
 1625 073c 09       		.byte	0x9
 1626 073d 1601     		.2byte	0x116
 1627 073f 68070000 		.4byte	0x768
 1628 0743 1A       		.uleb128 0x1a
 1629 0744 1F070000 		.4byte	.LASF112
 1630 0748 09       		.byte	0x9
 1631 0749 1E01     		.2byte	0x11e
 1632 074b 93070000 		.4byte	0x793
 1633 074f 1A       		.uleb128 0x1a
 1634 0750 3A000000 		.4byte	.LASF113
 1635 0754 09       		.byte	0x9
 1636 0755 2701     		.2byte	0x127
 1637 0757 CA070000 		.4byte	0x7ca
 1638 075b 1A       		.uleb128 0x1a
 1639 075c 11010000 		.4byte	.LASF114
 1640 0760 09       		.byte	0x9
 1641 0761 2F01     		.2byte	0x12f
 1642 0763 1C010000 		.4byte	0x11c
 1643 0767 00       		.byte	0
 1644 0768 0A       		.uleb128 0xa
 1645 0769 04       		.byte	0x4
 1646 076a 41020000 		.4byte	0x241
 1647 076e 06       		.uleb128 0x6
 1648 076f 99010000 		.4byte	.LASF115
ARM GAS  /tmp/cc6PJBFk.s 			page 30


 1649 0773 0C       		.byte	0xc
 1650 0774 0E       		.byte	0xe
 1651 0775 34       		.byte	0x34
 1652 0776 93070000 		.4byte	0x793
 1653 077a 07       		.uleb128 0x7
 1654 077b 7E000000 		.4byte	.LASF116
 1655 077f 0E       		.byte	0xe
 1656 0780 35       		.byte	0x35
 1657 0781 76020000 		.4byte	0x276
 1658 0785 00       		.byte	0
 1659 0786 07       		.uleb128 0x7
 1660 0787 4F010000 		.4byte	.LASF117
 1661 078b 0E       		.byte	0xe
 1662 078c 37       		.byte	0x37
 1663 078d 27010000 		.4byte	0x127
 1664 0791 08       		.byte	0x8
 1665 0792 00       		.byte	0
 1666 0793 0A       		.uleb128 0xa
 1667 0794 04       		.byte	0x4
 1668 0795 6E070000 		.4byte	0x76e
 1669 0799 06       		.uleb128 0x6
 1670 079a 4D030000 		.4byte	.LASF118
 1671 079e 10       		.byte	0x10
 1672 079f 0F       		.byte	0xf
 1673 07a0 39       		.byte	0x39
 1674 07a1 CA070000 		.4byte	0x7ca
 1675 07a5 07       		.uleb128 0x7
 1676 07a6 C6050000 		.4byte	.LASF119
 1677 07aa 0F       		.byte	0xf
 1678 07ab 3A       		.byte	0x3a
 1679 07ac 76020000 		.4byte	0x276
 1680 07b0 00       		.byte	0
 1681 07b1 07       		.uleb128 0x7
 1682 07b2 76000000 		.4byte	.LASF120
 1683 07b6 0F       		.byte	0xf
 1684 07b7 3C       		.byte	0x3c
 1685 07b8 4C020000 		.4byte	0x24c
 1686 07bc 08       		.byte	0x8
 1687 07bd 07       		.uleb128 0x7
 1688 07be 3E070000 		.4byte	.LASF121
 1689 07c2 0F       		.byte	0xf
 1690 07c3 3E       		.byte	0x3e
 1691 07c4 25090000 		.4byte	0x925
 1692 07c8 0C       		.byte	0xc
 1693 07c9 00       		.byte	0
 1694 07ca 0A       		.uleb128 0xa
 1695 07cb 04       		.byte	0x4
 1696 07cc 99070000 		.4byte	0x799
 1697 07d0 0A       		.uleb128 0xa
 1698 07d1 04       		.byte	0x4
 1699 07d2 E2070000 		.4byte	0x7e2
 1700 07d6 05       		.uleb128 0x5
 1701 07d7 D0070000 		.4byte	0x7d0
 1702 07db 03       		.uleb128 0x3
 1703 07dc 01       		.byte	0x1
 1704 07dd 08       		.byte	0x8
 1705 07de 41000000 		.4byte	.LASF122
ARM GAS  /tmp/cc6PJBFk.s 			page 31


 1706 07e2 1B       		.uleb128 0x1b
 1707 07e3 DB070000 		.4byte	0x7db
 1708 07e7 0A       		.uleb128 0xa
 1709 07e8 04       		.byte	0x4
 1710 07e9 C4040000 		.4byte	0x4c4
 1711 07ed 0A       		.uleb128 0xa
 1712 07ee 04       		.byte	0x4
 1713 07ef 2B030000 		.4byte	0x32b
 1714 07f3 11       		.uleb128 0x11
 1715 07f4 C4040000 		.4byte	0x4c4
 1716 07f8 03080000 		.4byte	0x803
 1717 07fc 12       		.uleb128 0x12
 1718 07fd 7D040000 		.4byte	0x47d
 1719 0801 1B       		.byte	0x1b
 1720 0802 00       		.byte	0
 1721 0803 1C       		.uleb128 0x1c
 1722 0804 636800   		.ascii	"ch\000"
 1723 0807 09       		.byte	0x9
 1724 0808 0902     		.2byte	0x209
 1725 080a 20040000 		.4byte	0x420
 1726 080e 17       		.uleb128 0x17
 1727 080f 16       		.byte	0x16
 1728 0810 10       		.byte	0x10
 1729 0811 34       		.byte	0x34
 1730 0812 EF080000 		.4byte	0x8ef
 1731 0816 07       		.uleb128 0x7
 1732 0817 36060000 		.4byte	.LASF124
 1733 081b 10       		.byte	0x10
 1734 081c 35       		.byte	0x35
 1735 081d EF080000 		.4byte	0x8ef
 1736 0821 00       		.byte	0
 1737 0822 07       		.uleb128 0x7
 1738 0823 E6040000 		.4byte	.LASF125
 1739 0827 10       		.byte	0x10
 1740 0828 36       		.byte	0x36
 1741 0829 A9000000 		.4byte	0xa9
 1742 082d 04       		.byte	0x4
 1743 082e 07       		.uleb128 0x7
 1744 082f 15050000 		.4byte	.LASF126
 1745 0833 10       		.byte	0x10
 1746 0834 37       		.byte	0x37
 1747 0835 A9000000 		.4byte	0xa9
 1748 0839 05       		.byte	0x5
 1749 083a 07       		.uleb128 0x7
 1750 083b 83050000 		.4byte	.LASF127
 1751 083f 10       		.byte	0x10
 1752 0840 38       		.byte	0x38
 1753 0841 B4000000 		.4byte	0xb4
 1754 0845 06       		.byte	0x6
 1755 0846 07       		.uleb128 0x7
 1756 0847 36010000 		.4byte	.LASF128
 1757 084b 10       		.byte	0x10
 1758 084c 39       		.byte	0x39
 1759 084d A9000000 		.4byte	0xa9
 1760 0851 08       		.byte	0x8
 1761 0852 07       		.uleb128 0x7
 1762 0853 6E010000 		.4byte	.LASF129
ARM GAS  /tmp/cc6PJBFk.s 			page 32


 1763 0857 10       		.byte	0x10
 1764 0858 3A       		.byte	0x3a
 1765 0859 A9000000 		.4byte	0xa9
 1766 085d 09       		.byte	0x9
 1767 085e 07       		.uleb128 0x7
 1768 085f 50020000 		.4byte	.LASF130
 1769 0863 10       		.byte	0x10
 1770 0864 3B       		.byte	0x3b
 1771 0865 A9000000 		.4byte	0xa9
 1772 0869 0A       		.byte	0xa
 1773 086a 07       		.uleb128 0x7
 1774 086b 20060000 		.4byte	.LASF131
 1775 086f 10       		.byte	0x10
 1776 0870 3C       		.byte	0x3c
 1777 0871 A9000000 		.4byte	0xa9
 1778 0875 0B       		.byte	0xb
 1779 0876 07       		.uleb128 0x7
 1780 0877 7A030000 		.4byte	.LASF132
 1781 087b 10       		.byte	0x10
 1782 087c 3D       		.byte	0x3d
 1783 087d A9000000 		.4byte	0xa9
 1784 0881 0C       		.byte	0xc
 1785 0882 07       		.uleb128 0x7
 1786 0883 51070000 		.4byte	.LASF133
 1787 0887 10       		.byte	0x10
 1788 0888 3E       		.byte	0x3e
 1789 0889 A9000000 		.4byte	0xa9
 1790 088d 0D       		.byte	0xd
 1791 088e 07       		.uleb128 0x7
 1792 088f 69000000 		.4byte	.LASF134
 1793 0893 10       		.byte	0x10
 1794 0894 3F       		.byte	0x3f
 1795 0895 A9000000 		.4byte	0xa9
 1796 0899 0E       		.byte	0xe
 1797 089a 07       		.uleb128 0x7
 1798 089b DA000000 		.4byte	.LASF135
 1799 089f 10       		.byte	0x10
 1800 08a0 40       		.byte	0x40
 1801 08a1 A9000000 		.4byte	0xa9
 1802 08a5 0F       		.byte	0xf
 1803 08a6 07       		.uleb128 0x7
 1804 08a7 85030000 		.4byte	.LASF136
 1805 08ab 10       		.byte	0x10
 1806 08ac 41       		.byte	0x41
 1807 08ad A9000000 		.4byte	0xa9
 1808 08b1 10       		.byte	0x10
 1809 08b2 07       		.uleb128 0x7
 1810 08b3 8F060000 		.4byte	.LASF137
 1811 08b7 10       		.byte	0x10
 1812 08b8 43       		.byte	0x43
 1813 08b9 A9000000 		.4byte	0xa9
 1814 08bd 11       		.byte	0x11
 1815 08be 07       		.uleb128 0x7
 1816 08bf 18010000 		.4byte	.LASF138
 1817 08c3 10       		.byte	0x10
 1818 08c4 44       		.byte	0x44
 1819 08c5 A9000000 		.4byte	0xa9
ARM GAS  /tmp/cc6PJBFk.s 			page 33


 1820 08c9 12       		.byte	0x12
 1821 08ca 07       		.uleb128 0x7
 1822 08cb DA040000 		.4byte	.LASF139
 1823 08cf 10       		.byte	0x10
 1824 08d0 45       		.byte	0x45
 1825 08d1 A9000000 		.4byte	0xa9
 1826 08d5 13       		.byte	0x13
 1827 08d6 07       		.uleb128 0x7
 1828 08d7 5E020000 		.4byte	.LASF140
 1829 08db 10       		.byte	0x10
 1830 08dc 46       		.byte	0x46
 1831 08dd A9000000 		.4byte	0xa9
 1832 08e1 14       		.byte	0x14
 1833 08e2 07       		.uleb128 0x7
 1834 08e3 14060000 		.4byte	.LASF141
 1835 08e7 10       		.byte	0x10
 1836 08e8 48       		.byte	0x48
 1837 08e9 A9000000 		.4byte	0xa9
 1838 08ed 15       		.byte	0x15
 1839 08ee 00       		.byte	0
 1840 08ef 11       		.uleb128 0x11
 1841 08f0 DB070000 		.4byte	0x7db
 1842 08f4 FF080000 		.4byte	0x8ff
 1843 08f8 12       		.uleb128 0x12
 1844 08f9 7D040000 		.4byte	0x47d
 1845 08fd 03       		.byte	0x3
 1846 08fe 00       		.byte	0
 1847 08ff 04       		.uleb128 0x4
 1848 0900 65050000 		.4byte	.LASF142
 1849 0904 10       		.byte	0x10
 1850 0905 49       		.byte	0x49
 1851 0906 0E080000 		.4byte	0x80e
 1852 090a 1B       		.uleb128 0x1b
 1853 090b FF080000 		.4byte	0x8ff
 1854 090f 13       		.uleb128 0x13
 1855 0910 91070000 		.4byte	.LASF143
 1856 0914 10       		.byte	0x10
 1857 0915 6E       		.byte	0x6e
 1858 0916 0A090000 		.4byte	0x90a
 1859 091a 04       		.uleb128 0x4
 1860 091b CD060000 		.4byte	.LASF144
 1861 091f 0F       		.byte	0xf
 1862 0920 34       		.byte	0x34
 1863 0921 99070000 		.4byte	0x799
 1864 0925 0A       		.uleb128 0xa
 1865 0926 04       		.byte	0x4
 1866 0927 1A090000 		.4byte	0x91a
 1867 092b 03       		.uleb128 0x3
 1868 092c 01       		.byte	0x1
 1869 092d 02       		.byte	0x2
 1870 092e 79020000 		.4byte	.LASF145
 1871 0932 1D       		.uleb128 0x1d
 1872 0933 AD040000 		.4byte	.LASF148
 1873 0937 04       		.byte	0x4
 1874 0938 BE       		.byte	0xbe
 1875 0939 00000000 		.4byte	.LFB154
 1876 093d 20010000 		.4byte	.LFE154-.LFB154
ARM GAS  /tmp/cc6PJBFk.s 			page 34


 1877 0941 01       		.uleb128 0x1
 1878 0942 9C       		.byte	0x9c
 1879 0943 81090000 		.4byte	0x981
 1880 0947 1E       		.uleb128 0x1e
 1881 0948 76747000 		.ascii	"vtp\000"
 1882 094c 04       		.byte	0x4
 1883 094d BE       		.byte	0xbe
 1884 094e ED070000 		.4byte	0x7ed
 1885 0952 02       		.uleb128 0x2
 1886 0953 91       		.byte	0x91
 1887 0954 6C       		.sleb128 -20
 1888 0955 1F       		.uleb128 0x1f
 1889 0956 88070000 		.4byte	.LASF152
 1890 095a 91090000 		.4byte	0x991
 1891 095e 05       		.uleb128 0x5
 1892 095f 03       		.byte	0x3
 1893 0960 00000000 		.4byte	__func__.5712
 1894 0964 20       		.uleb128 0x20
 1895 0965 03020000 		.4byte	.LASF146
 1896 0969 04       		.byte	0x4
 1897 096a D2       		.byte	0xd2
 1898 096b 32010000 		.4byte	0x132
 1899 096f 02       		.uleb128 0x2
 1900 0970 91       		.byte	0x91
 1901 0971 74       		.sleb128 -12
 1902 0972 20       		.uleb128 0x20
 1903 0973 5E070000 		.4byte	.LASF147
 1904 0977 04       		.byte	0x4
 1905 0978 D2       		.byte	0xd2
 1906 0979 32010000 		.4byte	0x132
 1907 097d 02       		.uleb128 0x2
 1908 097e 91       		.byte	0x91
 1909 097f 76       		.sleb128 -10
 1910 0980 00       		.byte	0
 1911 0981 11       		.uleb128 0x11
 1912 0982 E2070000 		.4byte	0x7e2
 1913 0986 91090000 		.4byte	0x991
 1914 098a 12       		.uleb128 0x12
 1915 098b 7D040000 		.4byte	0x47d
 1916 098f 0C       		.byte	0xc
 1917 0990 00       		.byte	0
 1918 0991 1B       		.uleb128 0x1b
 1919 0992 81090000 		.4byte	0x981
 1920 0996 1D       		.uleb128 0x1d
 1921 0997 84060000 		.4byte	.LASF149
 1922 099b 04       		.byte	0x4
 1923 099c 5F       		.byte	0x5f
 1924 099d 00000000 		.4byte	.LFB153
 1925 09a1 90010000 		.4byte	.LFE153-.LFB153
 1926 09a5 01       		.uleb128 0x1
 1927 09a6 9C       		.byte	0x9c
 1928 09a7 250A0000 		.4byte	0xa25
 1929 09ab 1E       		.uleb128 0x1e
 1930 09ac 76747000 		.ascii	"vtp\000"
 1931 09b0 04       		.byte	0x4
 1932 09b1 5F       		.byte	0x5f
 1933 09b2 ED070000 		.4byte	0x7ed
ARM GAS  /tmp/cc6PJBFk.s 			page 35


 1934 09b6 02       		.uleb128 0x2
 1935 09b7 91       		.byte	0x91
 1936 09b8 6C       		.sleb128 -20
 1937 09b9 21       		.uleb128 0x21
 1938 09ba E3050000 		.4byte	.LASF150
 1939 09be 04       		.byte	0x4
 1940 09bf 5F       		.byte	0x5f
 1941 09c0 32010000 		.4byte	0x132
 1942 09c4 02       		.uleb128 0x2
 1943 09c5 91       		.byte	0x91
 1944 09c6 6A       		.sleb128 -22
 1945 09c7 21       		.uleb128 0x21
 1946 09c8 91000000 		.4byte	.LASF151
 1947 09cc 04       		.byte	0x4
 1948 09cd 60       		.byte	0x60
 1949 09ce 0D030000 		.4byte	0x30d
 1950 09d2 02       		.uleb128 0x2
 1951 09d3 91       		.byte	0x91
 1952 09d4 64       		.sleb128 -28
 1953 09d5 1E       		.uleb128 0x1e
 1954 09d6 70617200 		.ascii	"par\000"
 1955 09da 04       		.byte	0x4
 1956 09db 60       		.byte	0x60
 1957 09dc 29030000 		.4byte	0x329
 1958 09e0 02       		.uleb128 0x2
 1959 09e1 91       		.byte	0x91
 1960 09e2 60       		.sleb128 -32
 1961 09e3 22       		.uleb128 0x22
 1962 09e4 7000     		.ascii	"p\000"
 1963 09e6 04       		.byte	0x4
 1964 09e7 61       		.byte	0x61
 1965 09e8 ED070000 		.4byte	0x7ed
 1966 09ec 02       		.uleb128 0x2
 1967 09ed 91       		.byte	0x91
 1968 09ee 74       		.sleb128 -12
 1969 09ef 20       		.uleb128 0x20
 1970 09f0 5E070000 		.4byte	.LASF147
 1971 09f4 04       		.byte	0x4
 1972 09f5 62       		.byte	0x62
 1973 09f6 32010000 		.4byte	0x132
 1974 09fa 02       		.uleb128 0x2
 1975 09fb 91       		.byte	0x91
 1976 09fc 72       		.sleb128 -14
 1977 09fd 1F       		.uleb128 0x1f
 1978 09fe 88070000 		.4byte	.LASF152
 1979 0a02 350A0000 		.4byte	0xa35
 1980 0a06 05       		.uleb128 0x5
 1981 0a07 03       		.byte	0x3
 1982 0a08 00000000 		.4byte	__func__.5704
 1983 0a0c 23       		.uleb128 0x23
 1984 0a0d 40000000 		.4byte	.LBB2
 1985 0a11 D6000000 		.4byte	.LBE2-.LBB2
 1986 0a15 22       		.uleb128 0x22
 1987 0a16 6E6F7700 		.ascii	"now\000"
 1988 0a1a 04       		.byte	0x4
 1989 0a1b 6C       		.byte	0x6c
 1990 0a1c 32010000 		.4byte	0x132
ARM GAS  /tmp/cc6PJBFk.s 			page 36


 1991 0a20 02       		.uleb128 0x2
 1992 0a21 91       		.byte	0x91
 1993 0a22 70       		.sleb128 -16
 1994 0a23 00       		.byte	0
 1995 0a24 00       		.byte	0
 1996 0a25 11       		.uleb128 0x11
 1997 0a26 E2070000 		.4byte	0x7e2
 1998 0a2a 350A0000 		.4byte	0xa35
 1999 0a2e 12       		.uleb128 0x12
 2000 0a2f 7D040000 		.4byte	0x47d
 2001 0a33 0A       		.byte	0xa
 2002 0a34 00       		.byte	0
 2003 0a35 1B       		.uleb128 0x1b
 2004 0a36 250A0000 		.4byte	0xa25
 2005 0a3a 24       		.uleb128 0x24
 2006 0a3b 56000000 		.4byte	.LASF162
 2007 0a3f 04       		.byte	0x4
 2008 0a40 3D       		.byte	0x3d
 2009 0a41 00000000 		.4byte	.LFB152
 2010 0a45 28000000 		.4byte	.LFE152-.LFB152
 2011 0a49 01       		.uleb128 0x1
 2012 0a4a 9C       		.byte	0x9c
 2013 0a4b 25       		.uleb128 0x25
 2014 0a4c A5000000 		.4byte	.LASF153
 2015 0a50 03       		.byte	0x3
 2016 0a51 E4       		.byte	0xe4
 2017 0a52 32010000 		.4byte	0x132
 2018 0a56 00000000 		.4byte	.LFB85
 2019 0a5a 0C000000 		.4byte	.LFE85-.LFB85
 2020 0a5e 01       		.uleb128 0x1
 2021 0a5f 9C       		.byte	0x9c
 2022 0a60 25       		.uleb128 0x25
 2023 0a61 66030000 		.4byte	.LASF154
 2024 0a65 02       		.byte	0x2
 2025 0a66 69       		.byte	0x69
 2026 0a67 32010000 		.4byte	0x132
 2027 0a6b 00000000 		.4byte	.LFB55
 2028 0a6f 0C000000 		.4byte	.LFE55-.LFB55
 2029 0a73 01       		.uleb128 0x1
 2030 0a74 9C       		.byte	0x9c
 2031 0a75 26       		.uleb128 0x26
 2032 0a76 3B050000 		.4byte	.LASF156
 2033 0a7a 02       		.byte	0x2
 2034 0a7b 5D       		.byte	0x5d
 2035 0a7c 00000000 		.4byte	.LFB54
 2036 0a80 1E000000 		.4byte	.LFE54-.LFB54
 2037 0a84 01       		.uleb128 0x1
 2038 0a85 9C       		.byte	0x9c
 2039 0a86 990A0000 		.4byte	0xa99
 2040 0a8a 21       		.uleb128 0x21
 2041 0a8b 0C020000 		.4byte	.LASF155
 2042 0a8f 02       		.byte	0x2
 2043 0a90 5D       		.byte	0x5d
 2044 0a91 32010000 		.4byte	0x132
 2045 0a95 02       		.uleb128 0x2
 2046 0a96 91       		.byte	0x91
 2047 0a97 76       		.sleb128 -10
ARM GAS  /tmp/cc6PJBFk.s 			page 37


 2048 0a98 00       		.byte	0
 2049 0a99 27       		.uleb128 0x27
 2050 0a9a 5C060000 		.4byte	.LASF163
 2051 0a9e 02       		.byte	0x2
 2052 0a9f 51       		.byte	0x51
 2053 0aa0 00000000 		.4byte	.LFB53
 2054 0aa4 0A000000 		.4byte	.LFE53-.LFB53
 2055 0aa8 01       		.uleb128 0x1
 2056 0aa9 9C       		.byte	0x9c
 2057 0aaa 26       		.uleb128 0x26
 2058 0aab 63040000 		.4byte	.LASF157
 2059 0aaf 02       		.byte	0x2
 2060 0ab0 47       		.byte	0x47
 2061 0ab1 00000000 		.4byte	.LFB52
 2062 0ab5 1E000000 		.4byte	.LFE52-.LFB52
 2063 0ab9 01       		.uleb128 0x1
 2064 0aba 9C       		.byte	0x9c
 2065 0abb CE0A0000 		.4byte	0xace
 2066 0abf 21       		.uleb128 0x21
 2067 0ac0 0C020000 		.4byte	.LASF155
 2068 0ac4 02       		.byte	0x2
 2069 0ac5 47       		.byte	0x47
 2070 0ac6 32010000 		.4byte	0x132
 2071 0aca 02       		.uleb128 0x2
 2072 0acb 91       		.byte	0x91
 2073 0acc 76       		.sleb128 -10
 2074 0acd 00       		.byte	0
 2075 0ace 28       		.uleb128 0x28
 2076 0acf 28050000 		.4byte	.LASF158
 2077 0ad3 01       		.byte	0x1
 2078 0ad4 8B       		.byte	0x8b
 2079 0ad5 32010000 		.4byte	0x132
 2080 0ad9 00000000 		.4byte	.LFB46
 2081 0add 10000000 		.4byte	.LFE46-.LFB46
 2082 0ae1 01       		.uleb128 0x1
 2083 0ae2 9C       		.byte	0x9c
 2084 0ae3 00       		.byte	0
 2085              		.section	.debug_abbrev,"",%progbits
 2086              	.Ldebug_abbrev0:
 2087 0000 01       		.uleb128 0x1
 2088 0001 11       		.uleb128 0x11
 2089 0002 01       		.byte	0x1
 2090 0003 25       		.uleb128 0x25
 2091 0004 0E       		.uleb128 0xe
 2092 0005 13       		.uleb128 0x13
 2093 0006 0B       		.uleb128 0xb
 2094 0007 03       		.uleb128 0x3
 2095 0008 0E       		.uleb128 0xe
 2096 0009 1B       		.uleb128 0x1b
 2097 000a 0E       		.uleb128 0xe
 2098 000b 55       		.uleb128 0x55
 2099 000c 17       		.uleb128 0x17
 2100 000d 11       		.uleb128 0x11
 2101 000e 01       		.uleb128 0x1
 2102 000f 10       		.uleb128 0x10
 2103 0010 17       		.uleb128 0x17
 2104 0011 00       		.byte	0
ARM GAS  /tmp/cc6PJBFk.s 			page 38


 2105 0012 00       		.byte	0
 2106 0013 02       		.uleb128 0x2
 2107 0014 24       		.uleb128 0x24
 2108 0015 00       		.byte	0
 2109 0016 0B       		.uleb128 0xb
 2110 0017 0B       		.uleb128 0xb
 2111 0018 3E       		.uleb128 0x3e
 2112 0019 0B       		.uleb128 0xb
 2113 001a 03       		.uleb128 0x3
 2114 001b 08       		.uleb128 0x8
 2115 001c 00       		.byte	0
 2116 001d 00       		.byte	0
 2117 001e 03       		.uleb128 0x3
 2118 001f 24       		.uleb128 0x24
 2119 0020 00       		.byte	0
 2120 0021 0B       		.uleb128 0xb
 2121 0022 0B       		.uleb128 0xb
 2122 0023 3E       		.uleb128 0x3e
 2123 0024 0B       		.uleb128 0xb
 2124 0025 03       		.uleb128 0x3
 2125 0026 0E       		.uleb128 0xe
 2126 0027 00       		.byte	0
 2127 0028 00       		.byte	0
 2128 0029 04       		.uleb128 0x4
 2129 002a 16       		.uleb128 0x16
 2130 002b 00       		.byte	0
 2131 002c 03       		.uleb128 0x3
 2132 002d 0E       		.uleb128 0xe
 2133 002e 3A       		.uleb128 0x3a
 2134 002f 0B       		.uleb128 0xb
 2135 0030 3B       		.uleb128 0x3b
 2136 0031 0B       		.uleb128 0xb
 2137 0032 49       		.uleb128 0x49
 2138 0033 13       		.uleb128 0x13
 2139 0034 00       		.byte	0
 2140 0035 00       		.byte	0
 2141 0036 05       		.uleb128 0x5
 2142 0037 35       		.uleb128 0x35
 2143 0038 00       		.byte	0
 2144 0039 49       		.uleb128 0x49
 2145 003a 13       		.uleb128 0x13
 2146 003b 00       		.byte	0
 2147 003c 00       		.byte	0
 2148 003d 06       		.uleb128 0x6
 2149 003e 13       		.uleb128 0x13
 2150 003f 01       		.byte	0x1
 2151 0040 03       		.uleb128 0x3
 2152 0041 0E       		.uleb128 0xe
 2153 0042 0B       		.uleb128 0xb
 2154 0043 0B       		.uleb128 0xb
 2155 0044 3A       		.uleb128 0x3a
 2156 0045 0B       		.uleb128 0xb
 2157 0046 3B       		.uleb128 0x3b
 2158 0047 0B       		.uleb128 0xb
 2159 0048 01       		.uleb128 0x1
 2160 0049 13       		.uleb128 0x13
 2161 004a 00       		.byte	0
ARM GAS  /tmp/cc6PJBFk.s 			page 39


 2162 004b 00       		.byte	0
 2163 004c 07       		.uleb128 0x7
 2164 004d 0D       		.uleb128 0xd
 2165 004e 00       		.byte	0
 2166 004f 03       		.uleb128 0x3
 2167 0050 0E       		.uleb128 0xe
 2168 0051 3A       		.uleb128 0x3a
 2169 0052 0B       		.uleb128 0xb
 2170 0053 3B       		.uleb128 0x3b
 2171 0054 0B       		.uleb128 0xb
 2172 0055 49       		.uleb128 0x49
 2173 0056 13       		.uleb128 0x13
 2174 0057 38       		.uleb128 0x38
 2175 0058 0B       		.uleb128 0xb
 2176 0059 00       		.byte	0
 2177 005a 00       		.byte	0
 2178 005b 08       		.uleb128 0x8
 2179 005c 0D       		.uleb128 0xd
 2180 005d 00       		.byte	0
 2181 005e 03       		.uleb128 0x3
 2182 005f 08       		.uleb128 0x8
 2183 0060 3A       		.uleb128 0x3a
 2184 0061 0B       		.uleb128 0xb
 2185 0062 3B       		.uleb128 0x3b
 2186 0063 05       		.uleb128 0x5
 2187 0064 49       		.uleb128 0x49
 2188 0065 13       		.uleb128 0x13
 2189 0066 38       		.uleb128 0x38
 2190 0067 0B       		.uleb128 0xb
 2191 0068 00       		.byte	0
 2192 0069 00       		.byte	0
 2193 006a 09       		.uleb128 0x9
 2194 006b 0D       		.uleb128 0xd
 2195 006c 00       		.byte	0
 2196 006d 03       		.uleb128 0x3
 2197 006e 0E       		.uleb128 0xe
 2198 006f 3A       		.uleb128 0x3a
 2199 0070 0B       		.uleb128 0xb
 2200 0071 3B       		.uleb128 0x3b
 2201 0072 05       		.uleb128 0x5
 2202 0073 49       		.uleb128 0x49
 2203 0074 13       		.uleb128 0x13
 2204 0075 38       		.uleb128 0x38
 2205 0076 0B       		.uleb128 0xb
 2206 0077 00       		.byte	0
 2207 0078 00       		.byte	0
 2208 0079 0A       		.uleb128 0xa
 2209 007a 0F       		.uleb128 0xf
 2210 007b 00       		.byte	0
 2211 007c 0B       		.uleb128 0xb
 2212 007d 0B       		.uleb128 0xb
 2213 007e 49       		.uleb128 0x49
 2214 007f 13       		.uleb128 0x13
 2215 0080 00       		.byte	0
 2216 0081 00       		.byte	0
 2217 0082 0B       		.uleb128 0xb
 2218 0083 13       		.uleb128 0x13
ARM GAS  /tmp/cc6PJBFk.s 			page 40


 2219 0084 01       		.byte	0x1
 2220 0085 03       		.uleb128 0x3
 2221 0086 0E       		.uleb128 0xe
 2222 0087 0B       		.uleb128 0xb
 2223 0088 0B       		.uleb128 0xb
 2224 0089 3A       		.uleb128 0x3a
 2225 008a 0B       		.uleb128 0xb
 2226 008b 3B       		.uleb128 0x3b
 2227 008c 05       		.uleb128 0x5
 2228 008d 01       		.uleb128 0x1
 2229 008e 13       		.uleb128 0x13
 2230 008f 00       		.byte	0
 2231 0090 00       		.byte	0
 2232 0091 0C       		.uleb128 0xc
 2233 0092 15       		.uleb128 0x15
 2234 0093 01       		.byte	0x1
 2235 0094 27       		.uleb128 0x27
 2236 0095 19       		.uleb128 0x19
 2237 0096 01       		.uleb128 0x1
 2238 0097 13       		.uleb128 0x13
 2239 0098 00       		.byte	0
 2240 0099 00       		.byte	0
 2241 009a 0D       		.uleb128 0xd
 2242 009b 05       		.uleb128 0x5
 2243 009c 00       		.byte	0
 2244 009d 49       		.uleb128 0x49
 2245 009e 13       		.uleb128 0x13
 2246 009f 00       		.byte	0
 2247 00a0 00       		.byte	0
 2248 00a1 0E       		.uleb128 0xe
 2249 00a2 0F       		.uleb128 0xf
 2250 00a3 00       		.byte	0
 2251 00a4 0B       		.uleb128 0xb
 2252 00a5 0B       		.uleb128 0xb
 2253 00a6 00       		.byte	0
 2254 00a7 00       		.byte	0
 2255 00a8 0F       		.uleb128 0xf
 2256 00a9 13       		.uleb128 0x13
 2257 00aa 01       		.byte	0x1
 2258 00ab 03       		.uleb128 0x3
 2259 00ac 0E       		.uleb128 0xe
 2260 00ad 0B       		.uleb128 0xb
 2261 00ae 05       		.uleb128 0x5
 2262 00af 3A       		.uleb128 0x3a
 2263 00b0 0B       		.uleb128 0xb
 2264 00b1 3B       		.uleb128 0x3b
 2265 00b2 05       		.uleb128 0x5
 2266 00b3 01       		.uleb128 0x1
 2267 00b4 13       		.uleb128 0x13
 2268 00b5 00       		.byte	0
 2269 00b6 00       		.byte	0
 2270 00b7 10       		.uleb128 0x10
 2271 00b8 0D       		.uleb128 0xd
 2272 00b9 00       		.byte	0
 2273 00ba 03       		.uleb128 0x3
 2274 00bb 0E       		.uleb128 0xe
 2275 00bc 3A       		.uleb128 0x3a
ARM GAS  /tmp/cc6PJBFk.s 			page 41


 2276 00bd 0B       		.uleb128 0xb
 2277 00be 3B       		.uleb128 0x3b
 2278 00bf 05       		.uleb128 0x5
 2279 00c0 49       		.uleb128 0x49
 2280 00c1 13       		.uleb128 0x13
 2281 00c2 38       		.uleb128 0x38
 2282 00c3 05       		.uleb128 0x5
 2283 00c4 00       		.byte	0
 2284 00c5 00       		.byte	0
 2285 00c6 11       		.uleb128 0x11
 2286 00c7 01       		.uleb128 0x1
 2287 00c8 01       		.byte	0x1
 2288 00c9 49       		.uleb128 0x49
 2289 00ca 13       		.uleb128 0x13
 2290 00cb 01       		.uleb128 0x1
 2291 00cc 13       		.uleb128 0x13
 2292 00cd 00       		.byte	0
 2293 00ce 00       		.byte	0
 2294 00cf 12       		.uleb128 0x12
 2295 00d0 21       		.uleb128 0x21
 2296 00d1 00       		.byte	0
 2297 00d2 49       		.uleb128 0x49
 2298 00d3 13       		.uleb128 0x13
 2299 00d4 2F       		.uleb128 0x2f
 2300 00d5 0B       		.uleb128 0xb
 2301 00d6 00       		.byte	0
 2302 00d7 00       		.byte	0
 2303 00d8 13       		.uleb128 0x13
 2304 00d9 34       		.uleb128 0x34
 2305 00da 00       		.byte	0
 2306 00db 03       		.uleb128 0x3
 2307 00dc 0E       		.uleb128 0xe
 2308 00dd 3A       		.uleb128 0x3a
 2309 00de 0B       		.uleb128 0xb
 2310 00df 3B       		.uleb128 0x3b
 2311 00e0 0B       		.uleb128 0xb
 2312 00e1 49       		.uleb128 0x49
 2313 00e2 13       		.uleb128 0x13
 2314 00e3 3F       		.uleb128 0x3f
 2315 00e4 19       		.uleb128 0x19
 2316 00e5 3C       		.uleb128 0x3c
 2317 00e6 19       		.uleb128 0x19
 2318 00e7 00       		.byte	0
 2319 00e8 00       		.byte	0
 2320 00e9 14       		.uleb128 0x14
 2321 00ea 0D       		.uleb128 0xd
 2322 00eb 00       		.byte	0
 2323 00ec 03       		.uleb128 0x3
 2324 00ed 08       		.uleb128 0x8
 2325 00ee 3A       		.uleb128 0x3a
 2326 00ef 0B       		.uleb128 0xb
 2327 00f0 3B       		.uleb128 0x3b
 2328 00f1 0B       		.uleb128 0xb
 2329 00f2 49       		.uleb128 0x49
 2330 00f3 13       		.uleb128 0x13
 2331 00f4 38       		.uleb128 0x38
 2332 00f5 0B       		.uleb128 0xb
ARM GAS  /tmp/cc6PJBFk.s 			page 42


 2333 00f6 00       		.byte	0
 2334 00f7 00       		.byte	0
 2335 00f8 15       		.uleb128 0x15
 2336 00f9 13       		.uleb128 0x13
 2337 00fa 01       		.byte	0x1
 2338 00fb 0B       		.uleb128 0xb
 2339 00fc 0B       		.uleb128 0xb
 2340 00fd 3A       		.uleb128 0x3a
 2341 00fe 0B       		.uleb128 0xb
 2342 00ff 3B       		.uleb128 0x3b
 2343 0100 05       		.uleb128 0x5
 2344 0101 01       		.uleb128 0x1
 2345 0102 13       		.uleb128 0x13
 2346 0103 00       		.byte	0
 2347 0104 00       		.byte	0
 2348 0105 16       		.uleb128 0x16
 2349 0106 16       		.uleb128 0x16
 2350 0107 00       		.byte	0
 2351 0108 03       		.uleb128 0x3
 2352 0109 0E       		.uleb128 0xe
 2353 010a 3A       		.uleb128 0x3a
 2354 010b 0B       		.uleb128 0xb
 2355 010c 3B       		.uleb128 0x3b
 2356 010d 05       		.uleb128 0x5
 2357 010e 49       		.uleb128 0x49
 2358 010f 13       		.uleb128 0x13
 2359 0110 00       		.byte	0
 2360 0111 00       		.byte	0
 2361 0112 17       		.uleb128 0x17
 2362 0113 13       		.uleb128 0x13
 2363 0114 01       		.byte	0x1
 2364 0115 0B       		.uleb128 0xb
 2365 0116 0B       		.uleb128 0xb
 2366 0117 3A       		.uleb128 0x3a
 2367 0118 0B       		.uleb128 0xb
 2368 0119 3B       		.uleb128 0x3b
 2369 011a 0B       		.uleb128 0xb
 2370 011b 01       		.uleb128 0x1
 2371 011c 13       		.uleb128 0x13
 2372 011d 00       		.byte	0
 2373 011e 00       		.byte	0
 2374 011f 18       		.uleb128 0x18
 2375 0120 13       		.uleb128 0x13
 2376 0121 01       		.byte	0x1
 2377 0122 0B       		.uleb128 0xb
 2378 0123 05       		.uleb128 0x5
 2379 0124 3A       		.uleb128 0x3a
 2380 0125 0B       		.uleb128 0xb
 2381 0126 3B       		.uleb128 0x3b
 2382 0127 0B       		.uleb128 0xb
 2383 0128 01       		.uleb128 0x1
 2384 0129 13       		.uleb128 0x13
 2385 012a 00       		.byte	0
 2386 012b 00       		.byte	0
 2387 012c 19       		.uleb128 0x19
 2388 012d 17       		.uleb128 0x17
 2389 012e 01       		.byte	0x1
ARM GAS  /tmp/cc6PJBFk.s 			page 43


 2390 012f 0B       		.uleb128 0xb
 2391 0130 0B       		.uleb128 0xb
 2392 0131 3A       		.uleb128 0x3a
 2393 0132 0B       		.uleb128 0xb
 2394 0133 3B       		.uleb128 0x3b
 2395 0134 0B       		.uleb128 0xb
 2396 0135 01       		.uleb128 0x1
 2397 0136 13       		.uleb128 0x13
 2398 0137 00       		.byte	0
 2399 0138 00       		.byte	0
 2400 0139 1A       		.uleb128 0x1a
 2401 013a 0D       		.uleb128 0xd
 2402 013b 00       		.byte	0
 2403 013c 03       		.uleb128 0x3
 2404 013d 0E       		.uleb128 0xe
 2405 013e 3A       		.uleb128 0x3a
 2406 013f 0B       		.uleb128 0xb
 2407 0140 3B       		.uleb128 0x3b
 2408 0141 05       		.uleb128 0x5
 2409 0142 49       		.uleb128 0x49
 2410 0143 13       		.uleb128 0x13
 2411 0144 00       		.byte	0
 2412 0145 00       		.byte	0
 2413 0146 1B       		.uleb128 0x1b
 2414 0147 26       		.uleb128 0x26
 2415 0148 00       		.byte	0
 2416 0149 49       		.uleb128 0x49
 2417 014a 13       		.uleb128 0x13
 2418 014b 00       		.byte	0
 2419 014c 00       		.byte	0
 2420 014d 1C       		.uleb128 0x1c
 2421 014e 34       		.uleb128 0x34
 2422 014f 00       		.byte	0
 2423 0150 03       		.uleb128 0x3
 2424 0151 08       		.uleb128 0x8
 2425 0152 3A       		.uleb128 0x3a
 2426 0153 0B       		.uleb128 0xb
 2427 0154 3B       		.uleb128 0x3b
 2428 0155 05       		.uleb128 0x5
 2429 0156 49       		.uleb128 0x49
 2430 0157 13       		.uleb128 0x13
 2431 0158 3F       		.uleb128 0x3f
 2432 0159 19       		.uleb128 0x19
 2433 015a 3C       		.uleb128 0x3c
 2434 015b 19       		.uleb128 0x19
 2435 015c 00       		.byte	0
 2436 015d 00       		.byte	0
 2437 015e 1D       		.uleb128 0x1d
 2438 015f 2E       		.uleb128 0x2e
 2439 0160 01       		.byte	0x1
 2440 0161 3F       		.uleb128 0x3f
 2441 0162 19       		.uleb128 0x19
 2442 0163 03       		.uleb128 0x3
 2443 0164 0E       		.uleb128 0xe
 2444 0165 3A       		.uleb128 0x3a
 2445 0166 0B       		.uleb128 0xb
 2446 0167 3B       		.uleb128 0x3b
ARM GAS  /tmp/cc6PJBFk.s 			page 44


 2447 0168 0B       		.uleb128 0xb
 2448 0169 27       		.uleb128 0x27
 2449 016a 19       		.uleb128 0x19
 2450 016b 11       		.uleb128 0x11
 2451 016c 01       		.uleb128 0x1
 2452 016d 12       		.uleb128 0x12
 2453 016e 06       		.uleb128 0x6
 2454 016f 40       		.uleb128 0x40
 2455 0170 18       		.uleb128 0x18
 2456 0171 9642     		.uleb128 0x2116
 2457 0173 19       		.uleb128 0x19
 2458 0174 01       		.uleb128 0x1
 2459 0175 13       		.uleb128 0x13
 2460 0176 00       		.byte	0
 2461 0177 00       		.byte	0
 2462 0178 1E       		.uleb128 0x1e
 2463 0179 05       		.uleb128 0x5
 2464 017a 00       		.byte	0
 2465 017b 03       		.uleb128 0x3
 2466 017c 08       		.uleb128 0x8
 2467 017d 3A       		.uleb128 0x3a
 2468 017e 0B       		.uleb128 0xb
 2469 017f 3B       		.uleb128 0x3b
 2470 0180 0B       		.uleb128 0xb
 2471 0181 49       		.uleb128 0x49
 2472 0182 13       		.uleb128 0x13
 2473 0183 02       		.uleb128 0x2
 2474 0184 18       		.uleb128 0x18
 2475 0185 00       		.byte	0
 2476 0186 00       		.byte	0
 2477 0187 1F       		.uleb128 0x1f
 2478 0188 34       		.uleb128 0x34
 2479 0189 00       		.byte	0
 2480 018a 03       		.uleb128 0x3
 2481 018b 0E       		.uleb128 0xe
 2482 018c 49       		.uleb128 0x49
 2483 018d 13       		.uleb128 0x13
 2484 018e 34       		.uleb128 0x34
 2485 018f 19       		.uleb128 0x19
 2486 0190 02       		.uleb128 0x2
 2487 0191 18       		.uleb128 0x18
 2488 0192 00       		.byte	0
 2489 0193 00       		.byte	0
 2490 0194 20       		.uleb128 0x20
 2491 0195 34       		.uleb128 0x34
 2492 0196 00       		.byte	0
 2493 0197 03       		.uleb128 0x3
 2494 0198 0E       		.uleb128 0xe
 2495 0199 3A       		.uleb128 0x3a
 2496 019a 0B       		.uleb128 0xb
 2497 019b 3B       		.uleb128 0x3b
 2498 019c 0B       		.uleb128 0xb
 2499 019d 49       		.uleb128 0x49
 2500 019e 13       		.uleb128 0x13
 2501 019f 02       		.uleb128 0x2
 2502 01a0 18       		.uleb128 0x18
 2503 01a1 00       		.byte	0
ARM GAS  /tmp/cc6PJBFk.s 			page 45


 2504 01a2 00       		.byte	0
 2505 01a3 21       		.uleb128 0x21
 2506 01a4 05       		.uleb128 0x5
 2507 01a5 00       		.byte	0
 2508 01a6 03       		.uleb128 0x3
 2509 01a7 0E       		.uleb128 0xe
 2510 01a8 3A       		.uleb128 0x3a
 2511 01a9 0B       		.uleb128 0xb
 2512 01aa 3B       		.uleb128 0x3b
 2513 01ab 0B       		.uleb128 0xb
 2514 01ac 49       		.uleb128 0x49
 2515 01ad 13       		.uleb128 0x13
 2516 01ae 02       		.uleb128 0x2
 2517 01af 18       		.uleb128 0x18
 2518 01b0 00       		.byte	0
 2519 01b1 00       		.byte	0
 2520 01b2 22       		.uleb128 0x22
 2521 01b3 34       		.uleb128 0x34
 2522 01b4 00       		.byte	0
 2523 01b5 03       		.uleb128 0x3
 2524 01b6 08       		.uleb128 0x8
 2525 01b7 3A       		.uleb128 0x3a
 2526 01b8 0B       		.uleb128 0xb
 2527 01b9 3B       		.uleb128 0x3b
 2528 01ba 0B       		.uleb128 0xb
 2529 01bb 49       		.uleb128 0x49
 2530 01bc 13       		.uleb128 0x13
 2531 01bd 02       		.uleb128 0x2
 2532 01be 18       		.uleb128 0x18
 2533 01bf 00       		.byte	0
 2534 01c0 00       		.byte	0
 2535 01c1 23       		.uleb128 0x23
 2536 01c2 0B       		.uleb128 0xb
 2537 01c3 01       		.byte	0x1
 2538 01c4 11       		.uleb128 0x11
 2539 01c5 01       		.uleb128 0x1
 2540 01c6 12       		.uleb128 0x12
 2541 01c7 06       		.uleb128 0x6
 2542 01c8 00       		.byte	0
 2543 01c9 00       		.byte	0
 2544 01ca 24       		.uleb128 0x24
 2545 01cb 2E       		.uleb128 0x2e
 2546 01cc 00       		.byte	0
 2547 01cd 3F       		.uleb128 0x3f
 2548 01ce 19       		.uleb128 0x19
 2549 01cf 03       		.uleb128 0x3
 2550 01d0 0E       		.uleb128 0xe
 2551 01d1 3A       		.uleb128 0x3a
 2552 01d2 0B       		.uleb128 0xb
 2553 01d3 3B       		.uleb128 0x3b
 2554 01d4 0B       		.uleb128 0xb
 2555 01d5 27       		.uleb128 0x27
 2556 01d6 19       		.uleb128 0x19
 2557 01d7 11       		.uleb128 0x11
 2558 01d8 01       		.uleb128 0x1
 2559 01d9 12       		.uleb128 0x12
 2560 01da 06       		.uleb128 0x6
ARM GAS  /tmp/cc6PJBFk.s 			page 46


 2561 01db 40       		.uleb128 0x40
 2562 01dc 18       		.uleb128 0x18
 2563 01dd 9742     		.uleb128 0x2117
 2564 01df 19       		.uleb128 0x19
 2565 01e0 00       		.byte	0
 2566 01e1 00       		.byte	0
 2567 01e2 25       		.uleb128 0x25
 2568 01e3 2E       		.uleb128 0x2e
 2569 01e4 00       		.byte	0
 2570 01e5 03       		.uleb128 0x3
 2571 01e6 0E       		.uleb128 0xe
 2572 01e7 3A       		.uleb128 0x3a
 2573 01e8 0B       		.uleb128 0xb
 2574 01e9 3B       		.uleb128 0x3b
 2575 01ea 0B       		.uleb128 0xb
 2576 01eb 27       		.uleb128 0x27
 2577 01ec 19       		.uleb128 0x19
 2578 01ed 49       		.uleb128 0x49
 2579 01ee 13       		.uleb128 0x13
 2580 01ef 11       		.uleb128 0x11
 2581 01f0 01       		.uleb128 0x1
 2582 01f1 12       		.uleb128 0x12
 2583 01f2 06       		.uleb128 0x6
 2584 01f3 40       		.uleb128 0x40
 2585 01f4 18       		.uleb128 0x18
 2586 01f5 9642     		.uleb128 0x2116
 2587 01f7 19       		.uleb128 0x19
 2588 01f8 00       		.byte	0
 2589 01f9 00       		.byte	0
 2590 01fa 26       		.uleb128 0x26
 2591 01fb 2E       		.uleb128 0x2e
 2592 01fc 01       		.byte	0x1
 2593 01fd 03       		.uleb128 0x3
 2594 01fe 0E       		.uleb128 0xe
 2595 01ff 3A       		.uleb128 0x3a
 2596 0200 0B       		.uleb128 0xb
 2597 0201 3B       		.uleb128 0x3b
 2598 0202 0B       		.uleb128 0xb
 2599 0203 27       		.uleb128 0x27
 2600 0204 19       		.uleb128 0x19
 2601 0205 11       		.uleb128 0x11
 2602 0206 01       		.uleb128 0x1
 2603 0207 12       		.uleb128 0x12
 2604 0208 06       		.uleb128 0x6
 2605 0209 40       		.uleb128 0x40
 2606 020a 18       		.uleb128 0x18
 2607 020b 9642     		.uleb128 0x2116
 2608 020d 19       		.uleb128 0x19
 2609 020e 01       		.uleb128 0x1
 2610 020f 13       		.uleb128 0x13
 2611 0210 00       		.byte	0
 2612 0211 00       		.byte	0
 2613 0212 27       		.uleb128 0x27
 2614 0213 2E       		.uleb128 0x2e
 2615 0214 00       		.byte	0
 2616 0215 03       		.uleb128 0x3
 2617 0216 0E       		.uleb128 0xe
ARM GAS  /tmp/cc6PJBFk.s 			page 47


 2618 0217 3A       		.uleb128 0x3a
 2619 0218 0B       		.uleb128 0xb
 2620 0219 3B       		.uleb128 0x3b
 2621 021a 0B       		.uleb128 0xb
 2622 021b 27       		.uleb128 0x27
 2623 021c 19       		.uleb128 0x19
 2624 021d 11       		.uleb128 0x11
 2625 021e 01       		.uleb128 0x1
 2626 021f 12       		.uleb128 0x12
 2627 0220 06       		.uleb128 0x6
 2628 0221 40       		.uleb128 0x40
 2629 0222 18       		.uleb128 0x18
 2630 0223 9642     		.uleb128 0x2116
 2631 0225 19       		.uleb128 0x19
 2632 0226 00       		.byte	0
 2633 0227 00       		.byte	0
 2634 0228 28       		.uleb128 0x28
 2635 0229 2E       		.uleb128 0x2e
 2636 022a 00       		.byte	0
 2637 022b 03       		.uleb128 0x3
 2638 022c 0E       		.uleb128 0xe
 2639 022d 3A       		.uleb128 0x3a
 2640 022e 0B       		.uleb128 0xb
 2641 022f 3B       		.uleb128 0x3b
 2642 0230 0B       		.uleb128 0xb
 2643 0231 27       		.uleb128 0x27
 2644 0232 19       		.uleb128 0x19
 2645 0233 49       		.uleb128 0x49
 2646 0234 13       		.uleb128 0x13
 2647 0235 11       		.uleb128 0x11
 2648 0236 01       		.uleb128 0x1
 2649 0237 12       		.uleb128 0x12
 2650 0238 06       		.uleb128 0x6
 2651 0239 40       		.uleb128 0x40
 2652 023a 18       		.uleb128 0x18
 2653 023b 9742     		.uleb128 0x2117
 2654 023d 19       		.uleb128 0x19
 2655 023e 00       		.byte	0
 2656 023f 00       		.byte	0
 2657 0240 00       		.byte	0
 2658              		.section	.debug_aranges,"",%progbits
 2659 0000 5C000000 		.4byte	0x5c
 2660 0004 0200     		.2byte	0x2
 2661 0006 00000000 		.4byte	.Ldebug_info0
 2662 000a 04       		.byte	0x4
 2663 000b 00       		.byte	0
 2664 000c 0000     		.2byte	0
 2665 000e 0000     		.2byte	0
 2666 0010 00000000 		.4byte	.LFB46
 2667 0014 10000000 		.4byte	.LFE46-.LFB46
 2668 0018 00000000 		.4byte	.LFB52
 2669 001c 1E000000 		.4byte	.LFE52-.LFB52
 2670 0020 00000000 		.4byte	.LFB53
 2671 0024 0A000000 		.4byte	.LFE53-.LFB53
 2672 0028 00000000 		.4byte	.LFB54
 2673 002c 1E000000 		.4byte	.LFE54-.LFB54
 2674 0030 00000000 		.4byte	.LFB55
ARM GAS  /tmp/cc6PJBFk.s 			page 48


 2675 0034 0C000000 		.4byte	.LFE55-.LFB55
 2676 0038 00000000 		.4byte	.LFB85
 2677 003c 0C000000 		.4byte	.LFE85-.LFB85
 2678 0040 00000000 		.4byte	.LFB152
 2679 0044 28000000 		.4byte	.LFE152-.LFB152
 2680 0048 00000000 		.4byte	.LFB153
 2681 004c 90010000 		.4byte	.LFE153-.LFB153
 2682 0050 00000000 		.4byte	.LFB154
 2683 0054 20010000 		.4byte	.LFE154-.LFB154
 2684 0058 00000000 		.4byte	0
 2685 005c 00000000 		.4byte	0
 2686              		.section	.debug_ranges,"",%progbits
 2687              	.Ldebug_ranges0:
 2688 0000 00000000 		.4byte	.LFB46
 2689 0004 10000000 		.4byte	.LFE46
 2690 0008 00000000 		.4byte	.LFB52
 2691 000c 1E000000 		.4byte	.LFE52
 2692 0010 00000000 		.4byte	.LFB53
 2693 0014 0A000000 		.4byte	.LFE53
 2694 0018 00000000 		.4byte	.LFB54
 2695 001c 1E000000 		.4byte	.LFE54
 2696 0020 00000000 		.4byte	.LFB55
 2697 0024 0C000000 		.4byte	.LFE55
 2698 0028 00000000 		.4byte	.LFB85
 2699 002c 0C000000 		.4byte	.LFE85
 2700 0030 00000000 		.4byte	.LFB152
 2701 0034 28000000 		.4byte	.LFE152
 2702 0038 00000000 		.4byte	.LFB153
 2703 003c 90010000 		.4byte	.LFE153
 2704 0040 00000000 		.4byte	.LFB154
 2705 0044 20010000 		.4byte	.LFE154
 2706 0048 00000000 		.4byte	0
 2707 004c 00000000 		.4byte	0
 2708              		.section	.debug_line,"",%progbits
 2709              	.Ldebug_line0:
 2710 0000 76030000 		.section	.debug_str,"MS",%progbits,1
 2710      02005402 
 2710      00000201 
 2710      FB0E0D00 
 2710      01010101 
 2711              	.LASF50:
 2712 0000 63685F74 		.ascii	"ch_threads_list\000"
 2712      68726561 
 2712      64735F6C 
 2712      69737400 
 2713              	.LASF51:
 2714 0010 74687265 		.ascii	"threads_queue_t\000"
 2714      6164735F 
 2714      71756575 
 2714      655F7400 
 2715              	.LASF40:
 2716 0020 705F7761 		.ascii	"p_waiting\000"
 2716      6974696E 
 2716      6700
 2717              	.LASF123:
 2718 002a 53797374 		.ascii	"SystemCoreClock\000"
 2718      656D436F 
ARM GAS  /tmp/cc6PJBFk.s 			page 49


 2718      7265436C 
 2718      6F636B00 
 2719              	.LASF113:
 2720 003a 77746D74 		.ascii	"wtmtxp\000"
 2720      787000
 2721              	.LASF122:
 2722 0041 63686172 		.ascii	"char\000"
 2722      00
 2723              	.LASF85:
 2724 0046 72656761 		.ascii	"regarm_t\000"
 2724      726D5F74 
 2724      00
 2725              	.LASF31:
 2726 004f 705F7072 		.ascii	"p_prio\000"
 2726      696F00
 2727              	.LASF162:
 2728 0056 5F76745F 		.ascii	"_vt_init\000"
 2728      696E6974 
 2728      00
 2729              	.LASF27:
 2730 005f 73797374 		.ascii	"systime_t\000"
 2730      696D655F 
 2730      7400
 2731              	.LASF134:
 2732 0069 63665F6F 		.ascii	"cf_off_older\000"
 2732      66665F6F 
 2732      6C646572 
 2732      00
 2733              	.LASF120:
 2734 0076 6D5F6F77 		.ascii	"m_owner\000"
 2734      6E657200 
 2735              	.LASF116:
 2736 007e 735F7175 		.ascii	"s_queue\000"
 2736      65756500 
 2737              	.LASF41:
 2738 0086 705F6D73 		.ascii	"p_msgqueue\000"
 2738      67717565 
 2738      756500
 2739              	.LASF151:
 2740 0091 76746675 		.ascii	"vtfunc\000"
 2740      6E6300
 2741              	.LASF0:
 2742 0098 756E7369 		.ascii	"unsigned int\000"
 2742      676E6564 
 2742      20696E74 
 2742      00
 2743              	.LASF153:
 2744 00a5 63685654 		.ascii	"chVTGetSystemTimeX\000"
 2744      47657453 
 2744      79737465 
 2744      6D54696D 
 2744      655800
 2745              	.LASF48:
 2746 00b8 74687265 		.ascii	"threads_list_t\000"
 2746      6164735F 
 2746      6C697374 
 2746      5F7400
ARM GAS  /tmp/cc6PJBFk.s 			page 50


 2747              	.LASF9:
 2748 00c7 5F5F696E 		.ascii	"__int32_t\000"
 2748      7433325F 
 2748      7400
 2749              	.LASF102:
 2750 00d1 73655F73 		.ascii	"se_state\000"
 2750      74617465 
 2750      00
 2751              	.LASF135:
 2752 00da 63665F6F 		.ascii	"cf_off_name\000"
 2752      66665F6E 
 2752      616D6500 
 2753              	.LASF110:
 2754 00e6 77746F62 		.ascii	"wtobjp\000"
 2754      6A7000
 2755              	.LASF81:
 2756 00ed 76746C69 		.ascii	"vtlist\000"
 2756      737400
 2757              	.LASF54:
 2758 00f4 63685F72 		.ascii	"ch_ready_list\000"
 2758      65616479 
 2758      5F6C6973 
 2758      7400
 2759              	.LASF83:
 2760 0102 69646C65 		.ascii	"idle_thread_wa\000"
 2760      5F746872 
 2760      6561645F 
 2760      776100
 2761              	.LASF114:
 2762 0111 65776D61 		.ascii	"ewmask\000"
 2762      736B00
 2763              	.LASF138:
 2764 0118 63665F6F 		.ascii	"cf_off_flags\000"
 2764      66665F66 
 2764      6C616773 
 2764      00
 2765              	.LASF52:
 2766 0125 63685F74 		.ascii	"ch_threads_queue\000"
 2766      68726561 
 2766      64735F71 
 2766      75657565 
 2766      00
 2767              	.LASF128:
 2768 0136 63685F70 		.ascii	"ch_ptrsize\000"
 2768      74727369 
 2768      7A6500
 2769              	.LASF95:
 2770 0141 444D4152 		.ascii	"DMAR\000"
 2770      00
 2771              	.LASF61:
 2772 0146 76746675 		.ascii	"vtfunc_t\000"
 2772      6E635F74 
 2772      00
 2773              	.LASF117:
 2774 014f 735F636E 		.ascii	"s_cnt\000"
 2774      7400
 2775              	.LASF73:
ARM GAS  /tmp/cc6PJBFk.s 			page 51


 2776 0155 63685F73 		.ascii	"ch_system_debug\000"
 2776      79737465 
 2776      6D5F6465 
 2776      62756700 
 2777              	.LASF18:
 2778 0165 75696E74 		.ascii	"uint32_t\000"
 2778      33325F74 
 2778      00
 2779              	.LASF129:
 2780 016e 63685F74 		.ascii	"ch_timesize\000"
 2780      696D6573 
 2780      697A6500 
 2781              	.LASF25:
 2782 017a 6576656E 		.ascii	"eventmask_t\000"
 2782      746D6173 
 2782      6B5F7400 
 2783              	.LASF56:
 2784 0186 725F7072 		.ascii	"r_prio\000"
 2784      696F00
 2785              	.LASF94:
 2786 018d 42445452 		.ascii	"BDTR\000"
 2786      00
 2787              	.LASF68:
 2788 0192 76745F70 		.ascii	"vt_par\000"
 2788      617200
 2789              	.LASF115:
 2790 0199 63685F73 		.ascii	"ch_semaphore\000"
 2790      656D6170 
 2790      686F7265 
 2790      00
 2791              	.LASF23:
 2792 01a6 74707269 		.ascii	"tprio_t\000"
 2792      6F5F7400 
 2793              	.LASF63:
 2794 01ae 63685F76 		.ascii	"ch_virtual_timer\000"
 2794      69727475 
 2794      616C5F74 
 2794      696D6572 
 2794      00
 2795              	.LASF91:
 2796 01bf 43434D52 		.ascii	"CCMR1\000"
 2796      3100
 2797              	.LASF92:
 2798 01c5 43434D52 		.ascii	"CCMR2\000"
 2798      3200
 2799              	.LASF96:
 2800 01cb 43434D52 		.ascii	"CCMR3\000"
 2800      3300
 2801              	.LASF14:
 2802 01d1 6C6F6E67 		.ascii	"long long unsigned int\000"
 2802      206C6F6E 
 2802      6720756E 
 2802      7369676E 
 2802      65642069 
 2803              	.LASF101:
 2804 01e8 73655F77 		.ascii	"se_wtobjp\000"
 2804      746F626A 
ARM GAS  /tmp/cc6PJBFk.s 			page 52


 2804      7000
 2805              	.LASF7:
 2806 01f2 5F5F7569 		.ascii	"__uint16_t\000"
 2806      6E743136 
 2806      5F7400
 2807              	.LASF26:
 2808 01fd 636E745F 		.ascii	"cnt_t\000"
 2808      7400
 2809              	.LASF146:
 2810 0203 6E6F7764 		.ascii	"nowdelta\000"
 2810      656C7461 
 2810      00
 2811              	.LASF155:
 2812 020c 74696D65 		.ascii	"time\000"
 2812      00
 2813              	.LASF75:
 2814 0211 6973725F 		.ascii	"isr_cnt\000"
 2814      636E7400 
 2815              	.LASF33:
 2816 0219 705F6E65 		.ascii	"p_newer\000"
 2816      77657200 
 2817              	.LASF70:
 2818 0221 63685F76 		.ascii	"ch_virtual_timers_list\000"
 2818      69727475 
 2818      616C5F74 
 2818      696D6572 
 2818      735F6C69 
 2819              	.LASF99:
 2820 0238 73655F74 		.ascii	"se_time\000"
 2820      696D6500 
 2821              	.LASF28:
 2822 0240 74687265 		.ascii	"thread_t\000"
 2822      61645F74 
 2822      00
 2823              	.LASF108:
 2824 0249 7264796D 		.ascii	"rdymsg\000"
 2824      736700
 2825              	.LASF130:
 2826 0250 63685F74 		.ascii	"ch_threadsize\000"
 2826      68726561 
 2826      6473697A 
 2826      6500
 2827              	.LASF140:
 2828 025e 63665F6F 		.ascii	"cf_off_preempt\000"
 2828      66665F70 
 2828      7265656D 
 2828      707400
 2829              	.LASF98:
 2830 026d 73746D33 		.ascii	"stm32_tim_t\000"
 2830      325F7469 
 2830      6D5F7400 
 2831              	.LASF145:
 2832 0279 5F426F6F 		.ascii	"_Bool\000"
 2832      6C00
 2833              	.LASF159:
 2834 027f 474E5520 		.ascii	"GNU C11 6.3.1 20170215 (release) [ARM/embedded-6-br"
 2834      43313120 
ARM GAS  /tmp/cc6PJBFk.s 			page 53


 2834      362E332E 
 2834      31203230 
 2834      31373032 
 2835 02b2 616E6368 		.ascii	"anch revision 245512] -mcpu=cortex-m0 -mno-thumb-in"
 2835      20726576 
 2835      6973696F 
 2835      6E203234 
 2835      35353132 
 2836 02e5 74657277 		.ascii	"terwork -mthumb -ggdb -O0 -fomit-frame-pointer -fal"
 2836      6F726B20 
 2836      2D6D7468 
 2836      756D6220 
 2836      2D676764 
 2837 0318 69676E2D 		.ascii	"ign-functions=16 -ffunction-sections -fdata-section"
 2837      66756E63 
 2837      74696F6E 
 2837      733D3136 
 2837      202D6666 
 2838 034b 7300     		.ascii	"s\000"
 2839              	.LASF118:
 2840 034d 63685F6D 		.ascii	"ch_mutex\000"
 2840      75746578 
 2840      00
 2841              	.LASF13:
 2842 0356 5F5F7569 		.ascii	"__uint64_t\000"
 2842      6E743634 
 2842      5F7400
 2843              	.LASF90:
 2844 0361 44494552 		.ascii	"DIER\000"
 2844      00
 2845              	.LASF154:
 2846 0366 706F7274 		.ascii	"port_timer_get_time\000"
 2846      5F74696D 
 2846      65725F67 
 2846      65745F74 
 2846      696D6500 
 2847              	.LASF132:
 2848 037a 63665F6F 		.ascii	"cf_off_ctx\000"
 2848      66665F63 
 2848      747800
 2849              	.LASF136:
 2850 0385 63665F6F 		.ascii	"cf_off_stklimit\000"
 2850      66665F73 
 2850      746B6C69 
 2850      6D697400 
 2851              	.LASF35:
 2852 0395 705F6E61 		.ascii	"p_name\000"
 2852      6D6500
 2853              	.LASF93:
 2854 039c 43434552 		.ascii	"CCER\000"
 2854      00
 2855              	.LASF66:
 2856 03a1 76745F64 		.ascii	"vt_delta\000"
 2856      656C7461 
 2856      00
 2857              	.LASF161:
 2858 03aa 2F686F6D 		.ascii	"/home/felix/Desktop/workspace/esho/UltrasonicCortex"
ARM GAS  /tmp/cc6PJBFk.s 			page 54


 2858      652F6665 
 2858      6C69782F 
 2858      4465736B 
 2858      746F702F 
 2859 03dd 2F00     		.ascii	"/\000"
 2860              	.LASF47:
 2861 03df 74687265 		.ascii	"thread_reference_t\000"
 2861      61645F72 
 2861      65666572 
 2861      656E6365 
 2861      5F7400
 2862              	.LASF71:
 2863 03f2 76745F6C 		.ascii	"vt_lasttime\000"
 2863      61737474 
 2863      696D6500 
 2864              	.LASF21:
 2865 03fe 74737461 		.ascii	"tstate_t\000"
 2865      74655F74 
 2865      00
 2866              	.LASF100:
 2867 0407 73655F74 		.ascii	"se_tp\000"
 2867      7000
 2868              	.LASF34:
 2869 040d 705F6F6C 		.ascii	"p_older\000"
 2869      64657200 
 2870              	.LASF37:
 2871 0415 705F7374 		.ascii	"p_state\000"
 2871      61746500 
 2872              	.LASF36:
 2873 041d 705F7374 		.ascii	"p_stklimit\000"
 2873      6B6C696D 
 2873      697400
 2874              	.LASF15:
 2875 0428 75696E74 		.ascii	"uint8_t\000"
 2875      385F7400 
 2876              	.LASF106:
 2877 0430 74625F62 		.ascii	"tb_buffer\000"
 2877      75666665 
 2877      7200
 2878              	.LASF46:
 2879 043a 705F6D70 		.ascii	"p_mpool\000"
 2879      6F6F6C00 
 2880              	.LASF44:
 2881 0442 705F6D74 		.ascii	"p_mtxlist\000"
 2881      786C6973 
 2881      7400
 2882              	.LASF89:
 2883 044c 534D4352 		.ascii	"SMCR\000"
 2883      00
 2884              	.LASF49:
 2885 0451 63685F74 		.ascii	"ch_thread\000"
 2885      68726561 
 2885      6400
 2886              	.LASF104:
 2887 045b 74625F73 		.ascii	"tb_size\000"
 2887      697A6500 
 2888              	.LASF157:
ARM GAS  /tmp/cc6PJBFk.s 			page 55


 2889 0463 706F7274 		.ascii	"port_timer_start_alarm\000"
 2889      5F74696D 
 2889      65725F73 
 2889      74617274 
 2889      5F616C61 
 2890              	.LASF72:
 2891 047a 73797374 		.ascii	"system_debug_t\000"
 2891      656D5F64 
 2891      65627567 
 2891      5F7400
 2892              	.LASF1:
 2893 0489 6C6F6E67 		.ascii	"long long int\000"
 2893      206C6F6E 
 2893      6720696E 
 2893      7400
 2894              	.LASF55:
 2895 0497 725F7175 		.ascii	"r_queue\000"
 2895      65756500 
 2896              	.LASF58:
 2897 049f 725F6E65 		.ascii	"r_newer\000"
 2897      77657200 
 2898              	.LASF24:
 2899 04a7 6D73675F 		.ascii	"msg_t\000"
 2899      7400
 2900              	.LASF148:
 2901 04ad 63685654 		.ascii	"chVTDoResetI\000"
 2901      446F5265 
 2901      73657449 
 2901      00
 2902              	.LASF87:
 2903 04ba 636F6E74 		.ascii	"context\000"
 2903      65787400 
 2904              	.LASF38:
 2905 04c2 705F666C 		.ascii	"p_flags\000"
 2905      61677300 
 2906              	.LASF62:
 2907 04ca 76697274 		.ascii	"virtual_timer_t\000"
 2907      75616C5F 
 2907      74696D65 
 2907      725F7400 
 2908              	.LASF139:
 2909 04da 63665F6F 		.ascii	"cf_off_refs\000"
 2909      66665F72 
 2909      65667300 
 2910              	.LASF125:
 2911 04e6 63685F7A 		.ascii	"ch_zero\000"
 2911      65726F00 
 2912              	.LASF105:
 2913 04ee 74625F70 		.ascii	"tb_ptr\000"
 2913      747200
 2914              	.LASF59:
 2915 04f5 725F6F6C 		.ascii	"r_older\000"
 2915      64657200 
 2916              	.LASF74:
 2917 04fd 70616E69 		.ascii	"panic_msg\000"
 2917      635F6D73 
 2917      6700
ARM GAS  /tmp/cc6PJBFk.s 			page 56


 2918              	.LASF42:
 2919 0507 705F6D73 		.ascii	"p_msg\000"
 2919      6700
 2920              	.LASF20:
 2921 050d 746D6F64 		.ascii	"tmode_t\000"
 2921      655F7400 
 2922              	.LASF126:
 2923 0515 63685F73 		.ascii	"ch_size\000"
 2923      697A6500 
 2924              	.LASF82:
 2925 051d 6D61696E 		.ascii	"mainthread\000"
 2925      74687265 
 2925      616400
 2926              	.LASF158:
 2927 0528 73745F6C 		.ascii	"st_lld_get_counter\000"
 2927      6C645F67 
 2927      65745F63 
 2927      6F756E74 
 2927      657200
 2928              	.LASF156:
 2929 053b 706F7274 		.ascii	"port_timer_set_alarm\000"
 2929      5F74696D 
 2929      65725F73 
 2929      65745F61 
 2929      6C61726D 
 2930              	.LASF2:
 2931 0550 6C6F6E67 		.ascii	"long double\000"
 2931      20646F75 
 2931      626C6500 
 2932              	.LASF16:
 2933 055c 75696E74 		.ascii	"uint16_t\000"
 2933      31365F74 
 2933      00
 2934              	.LASF142:
 2935 0565 63686465 		.ascii	"chdebug_t\000"
 2935      6275675F 
 2935      7400
 2936              	.LASF76:
 2937 056f 6C6F636B 		.ascii	"lock_cnt\000"
 2937      5F636E74 
 2937      00
 2938              	.LASF45:
 2939 0578 705F7265 		.ascii	"p_realprio\000"
 2939      616C7072 
 2939      696F00
 2940              	.LASF127:
 2941 0583 63685F76 		.ascii	"ch_version\000"
 2941      65727369 
 2941      6F6E00
 2942              	.LASF160:
 2943 058e 43686962 		.ascii	"ChibiOS/os/rt/src/chvt.c\000"
 2943      694F532F 
 2943      6F732F72 
 2943      742F7372 
 2943      632F6368 
 2944              	.LASF5:
 2945 05a7 73686F72 		.ascii	"short int\000"
ARM GAS  /tmp/cc6PJBFk.s 			page 57


 2945      7420696E 
 2945      7400
 2946              	.LASF60:
 2947 05b1 725F6375 		.ascii	"r_current\000"
 2947      7272656E 
 2947      7400
 2948              	.LASF43:
 2949 05bb 705F6570 		.ascii	"p_epending\000"
 2949      656E6469 
 2949      6E6700
 2950              	.LASF119:
 2951 05c6 6D5F7175 		.ascii	"m_queue\000"
 2951      65756500 
 2952              	.LASF10:
 2953 05ce 6C6F6E67 		.ascii	"long int\000"
 2953      20696E74 
 2953      00
 2954              	.LASF88:
 2955 05d7 706F7274 		.ascii	"port_intctx\000"
 2955      5F696E74 
 2955      63747800 
 2956              	.LASF150:
 2957 05e3 64656C61 		.ascii	"delay\000"
 2957      7900
 2958              	.LASF97:
 2959 05e9 43435852 		.ascii	"CCXR\000"
 2959      00
 2960              	.LASF79:
 2961 05ee 63685F73 		.ascii	"ch_system\000"
 2961      79737465 
 2961      6D00
 2962              	.LASF29:
 2963 05f8 705F6E65 		.ascii	"p_next\000"
 2963      787400
 2964              	.LASF19:
 2965 05ff 75696E74 		.ascii	"uint64_t\000"
 2965      36345F74 
 2965      00
 2966              	.LASF32:
 2967 0608 705F6374 		.ascii	"p_ctx\000"
 2967      7800
 2968              	.LASF80:
 2969 060e 726C6973 		.ascii	"rlist\000"
 2969      7400
 2970              	.LASF141:
 2971 0614 63665F6F 		.ascii	"cf_off_time\000"
 2971      66665F74 
 2971      696D6500 
 2972              	.LASF131:
 2973 0620 63665F6F 		.ascii	"cf_off_prio\000"
 2973      66665F70 
 2973      72696F00 
 2974              	.LASF6:
 2975 062c 5F5F7569 		.ascii	"__uint8_t\000"
 2975      6E74385F 
 2975      7400
 2976              	.LASF124:
ARM GAS  /tmp/cc6PJBFk.s 			page 58


 2977 0636 63685F69 		.ascii	"ch_identifier\000"
 2977      64656E74 
 2977      69666965 
 2977      7200
 2978              	.LASF30:
 2979 0644 705F7072 		.ascii	"p_prev\000"
 2979      657600
 2980              	.LASF84:
 2981 064b 73697A65 		.ascii	"sizetype\000"
 2981      74797065 
 2981      00
 2982              	.LASF22:
 2983 0654 74726566 		.ascii	"trefs_t\000"
 2983      735F7400 
 2984              	.LASF163:
 2985 065c 706F7274 		.ascii	"port_timer_stop_alarm\000"
 2985      5F74696D 
 2985      65725F73 
 2985      746F705F 
 2985      616C6172 
 2986              	.LASF12:
 2987 0672 6C6F6E67 		.ascii	"long unsigned int\000"
 2987      20756E73 
 2987      69676E65 
 2987      6420696E 
 2987      7400
 2988              	.LASF149:
 2989 0684 63685654 		.ascii	"chVTDoSetI\000"
 2989      446F5365 
 2989      744900
 2990              	.LASF137:
 2991 068f 63665F6F 		.ascii	"cf_off_state\000"
 2991      66665F73 
 2991      74617465 
 2991      00
 2992              	.LASF53:
 2993 069c 72656164 		.ascii	"ready_list_t\000"
 2993      795F6C69 
 2993      73745F74 
 2993      00
 2994              	.LASF17:
 2995 06a9 696E7433 		.ascii	"int32_t\000"
 2995      325F7400 
 2996              	.LASF77:
 2997 06b1 74726163 		.ascii	"trace_buffer\000"
 2997      655F6275 
 2997      66666572 
 2997      00
 2998              	.LASF103:
 2999 06be 63685F73 		.ascii	"ch_swc_event_t\000"
 2999      77635F65 
 2999      76656E74 
 2999      5F7400
 3000              	.LASF144:
 3001 06cd 6D757465 		.ascii	"mutex_t\000"
 3001      785F7400 
 3002              	.LASF4:
ARM GAS  /tmp/cc6PJBFk.s 			page 59


 3003 06d5 756E7369 		.ascii	"unsigned char\000"
 3003      676E6564 
 3003      20636861 
 3003      7200
 3004              	.LASF11:
 3005 06e3 5F5F7569 		.ascii	"__uint32_t\000"
 3005      6E743332 
 3005      5F7400
 3006              	.LASF69:
 3007 06ee 76697274 		.ascii	"virtual_timers_list_t\000"
 3007      75616C5F 
 3007      74696D65 
 3007      72735F6C 
 3007      6973745F 
 3008              	.LASF39:
 3009 0704 705F7265 		.ascii	"p_refs\000"
 3009      667300
 3010              	.LASF64:
 3011 070b 76745F6E 		.ascii	"vt_next\000"
 3011      65787400 
 3012              	.LASF78:
 3013 0713 63685F73 		.ascii	"ch_system_t\000"
 3013      79737465 
 3013      6D5F7400 
 3014              	.LASF112:
 3015 071f 77747365 		.ascii	"wtsemp\000"
 3015      6D7000
 3016              	.LASF111:
 3017 0726 77747472 		.ascii	"wttrp\000"
 3017      7000
 3018              	.LASF107:
 3019 072c 63685F74 		.ascii	"ch_trace_buffer_t\000"
 3019      72616365 
 3019      5F627566 
 3019      6665725F 
 3019      7400
 3020              	.LASF121:
 3021 073e 6D5F6E65 		.ascii	"m_next\000"
 3021      787400
 3022              	.LASF3:
 3023 0745 7369676E 		.ascii	"signed char\000"
 3023      65642063 
 3023      68617200 
 3024              	.LASF133:
 3025 0751 63665F6F 		.ascii	"cf_off_newer\000"
 3025      66665F6E 
 3025      65776572 
 3025      00
 3026              	.LASF147:
 3027 075e 64656C74 		.ascii	"delta\000"
 3027      6100
 3028              	.LASF8:
 3029 0764 73686F72 		.ascii	"short unsigned int\000"
 3029      7420756E 
 3029      7369676E 
 3029      65642069 
 3029      6E7400
ARM GAS  /tmp/cc6PJBFk.s 			page 60


 3030              	.LASF57:
 3031 0777 725F6374 		.ascii	"r_ctx\000"
 3031      7800
 3032              	.LASF86:
 3033 077d 73746B61 		.ascii	"stkalign_t\000"
 3033      6C69676E 
 3033      5F7400
 3034              	.LASF152:
 3035 0788 5F5F6675 		.ascii	"__func__\000"
 3035      6E635F5F 
 3035      00
 3036              	.LASF143:
 3037 0791 63685F64 		.ascii	"ch_debug\000"
 3037      65627567 
 3037      00
 3038              	.LASF67:
 3039 079a 76745F66 		.ascii	"vt_func\000"
 3039      756E6300 
 3040              	.LASF65:
 3041 07a2 76745F70 		.ascii	"vt_prev\000"
 3041      72657600 
 3042              	.LASF109:
 3043 07aa 65786974 		.ascii	"exitcode\000"
 3043      636F6465 
 3043      00
 3044              		.ident	"GCC: (GNU Tools for ARM Embedded Processors 6-2017-q1-update) 6.3.1 20170215 (release) [AR
ARM GAS  /tmp/cc6PJBFk.s 			page 61


DEFINED SYMBOLS
                            *ABS*:0000000000000000 chvt.c
     /tmp/cc6PJBFk.s:16     .text.st_lld_get_counter:0000000000000000 $t
     /tmp/cc6PJBFk.s:23     .text.st_lld_get_counter:0000000000000000 st_lld_get_counter
     /tmp/cc6PJBFk.s:42     .text.st_lld_get_counter:000000000000000c $d
     /tmp/cc6PJBFk.s:47     .text.port_timer_start_alarm:0000000000000000 $t
     /tmp/cc6PJBFk.s:54     .text.port_timer_start_alarm:0000000000000000 port_timer_start_alarm
     /tmp/cc6PJBFk.s:85     .text.port_timer_stop_alarm:0000000000000000 $t
     /tmp/cc6PJBFk.s:92     .text.port_timer_stop_alarm:0000000000000000 port_timer_stop_alarm
     /tmp/cc6PJBFk.s:112    .text.port_timer_set_alarm:0000000000000000 $t
     /tmp/cc6PJBFk.s:119    .text.port_timer_set_alarm:0000000000000000 port_timer_set_alarm
     /tmp/cc6PJBFk.s:149    .text.port_timer_get_time:0000000000000000 $t
     /tmp/cc6PJBFk.s:156    .text.port_timer_get_time:0000000000000000 port_timer_get_time
     /tmp/cc6PJBFk.s:177    .text.chVTGetSystemTimeX:0000000000000000 $t
     /tmp/cc6PJBFk.s:184    .text.chVTGetSystemTimeX:0000000000000000 chVTGetSystemTimeX
     /tmp/cc6PJBFk.s:206    .text._vt_init:0000000000000000 $t
     /tmp/cc6PJBFk.s:214    .text._vt_init:0000000000000000 _vt_init
     /tmp/cc6PJBFk.s:246    .text._vt_init:0000000000000020 $d
     /tmp/cc6PJBFk.s:252    .text.chVTDoSetI:0000000000000000 $t
     /tmp/cc6PJBFk.s:260    .text.chVTDoSetI:0000000000000000 chVTDoSetI
     /tmp/cc6PJBFk.s:511    .text.chVTDoSetI:0000000000000184 $d
     /tmp/cc6PJBFk.s:716    .rodata.__func__.5704:0000000000000000 __func__.5704
     /tmp/cc6PJBFk.s:518    .text.chVTDoResetI:0000000000000000 $t
     /tmp/cc6PJBFk.s:526    .text.chVTDoResetI:0000000000000000 chVTDoResetI
     /tmp/cc6PJBFk.s:706    .text.chVTDoResetI:0000000000000114 $d
     /tmp/cc6PJBFk.s:722    .rodata.__func__.5712:0000000000000000 __func__.5712
     /tmp/cc6PJBFk.s:713    .rodata.__func__.5704:0000000000000000 $d
     /tmp/cc6PJBFk.s:719    .rodata.__func__.5712:0000000000000000 $d
                     .debug_frame:0000000000000010 $d

UNDEFINED SYMBOLS
stStartAlarm
stStopAlarm
stSetAlarm
ch
chDbgCheckClassI
chSysHalt
