ARM GAS  /tmp/ccgwrEE7.s 			page 1


   1              		.cpu cortex-m0
   2              		.eabi_attribute 20, 1
   3              		.eabi_attribute 21, 1
   4              		.eabi_attribute 23, 3
   5              		.eabi_attribute 24, 1
   6              		.eabi_attribute 25, 1
   7              		.eabi_attribute 26, 1
   8              		.eabi_attribute 30, 6
   9              		.eabi_attribute 34, 0
  10              		.eabi_attribute 18, 4
  11              		.file	"crt1.c"
  12              		.text
  13              	.Ltext0:
  14              		.cfi_sections	.debug_frame
  15              		.section	.rodata.ram_areas,"a",%progbits
  16              		.align	2
  17              		.type	ram_areas, %object
  18              		.size	ram_areas, 128
  19              	ram_areas:
  20 0000 00000000 		.word	__ram0_init_text__
  21 0004 00000000 		.word	__ram0_init__
  22 0008 00000000 		.word	__ram0_clear__
  23 000c 00000000 		.word	__ram0_noinit__
  24 0010 00000000 		.word	__ram1_init_text__
  25 0014 00000000 		.word	__ram1_init__
  26 0018 00000000 		.word	__ram1_clear__
  27 001c 00000000 		.word	__ram1_noinit__
  28 0020 00000000 		.word	__ram2_init_text__
  29 0024 00000000 		.word	__ram2_init__
  30 0028 00000000 		.word	__ram2_clear__
  31 002c 00000000 		.word	__ram2_noinit__
  32 0030 00000000 		.word	__ram3_init_text__
  33 0034 00000000 		.word	__ram3_init__
  34 0038 00000000 		.word	__ram3_clear__
  35 003c 00000000 		.word	__ram3_noinit__
  36 0040 00000000 		.word	__ram4_init_text__
  37 0044 00000000 		.word	__ram4_init__
  38 0048 00000000 		.word	__ram4_clear__
  39 004c 00000000 		.word	__ram4_noinit__
  40 0050 00000000 		.word	__ram5_init_text__
  41 0054 00000000 		.word	__ram5_init__
  42 0058 00000000 		.word	__ram5_clear__
  43 005c 00000000 		.word	__ram5_noinit__
  44 0060 00000000 		.word	__ram6_init_text__
  45 0064 00000000 		.word	__ram6_init__
  46 0068 00000000 		.word	__ram6_clear__
  47 006c 00000000 		.word	__ram6_noinit__
  48 0070 00000000 		.word	__ram7_init_text__
  49 0074 00000000 		.word	__ram7_init__
  50 0078 00000000 		.word	__ram7_clear__
  51 007c 00000000 		.word	__ram7_noinit__
  52              		.section	.text.__core_init,"ax",%progbits
  53              		.align	1
  54              		.p2align 4,,15
  55              		.weak	__core_init
  56              		.syntax unified
  57              		.code	16
ARM GAS  /tmp/ccgwrEE7.s 			page 2


  58              		.thumb_func
  59              		.fpu softvfp
  60              		.type	__core_init, %function
  61              	__core_init:
  62              	.LFB34:
  63              		.file 1 "ChibiOS/os/common/ports/ARMCMx/compilers/GCC/crt1.c"
  64              		.loc 1 136 0
  65              		.cfi_startproc
  66              		@ args = 0, pretend = 0, frame = 0
  67              		@ frame_needed = 0, uses_anonymous_args = 0
  68              		@ link register save eliminated.
  69              		.loc 1 142 0
  70 0000 C046     		nop
  71              		@ sp needed
  72 0002 7047     		bx	lr
  73              		.cfi_endproc
  74              	.LFE34:
  75              		.size	__core_init, .-__core_init
  76              		.section	.text.__early_init,"ax",%progbits
  77              		.align	1
  78              		.p2align 4,,15
  79              		.weak	__early_init
  80              		.syntax unified
  81              		.code	16
  82              		.thumb_func
  83              		.fpu softvfp
  84              		.type	__early_init, %function
  85              	__early_init:
  86              	.LFB35:
  87              		.loc 1 155 0
  88              		.cfi_startproc
  89              		@ args = 0, pretend = 0, frame = 0
  90              		@ frame_needed = 0, uses_anonymous_args = 0
  91              		@ link register save eliminated.
  92              		.loc 1 155 0
  93 0000 C046     		nop
  94              		@ sp needed
  95 0002 7047     		bx	lr
  96              		.cfi_endproc
  97              	.LFE35:
  98              		.size	__early_init, .-__early_init
  99              		.section	.text.__late_init,"ax",%progbits
 100              		.align	1
 101              		.p2align 4,,15
 102              		.weak	__late_init
 103              		.syntax unified
 104              		.code	16
 105              		.thumb_func
 106              		.fpu softvfp
 107              		.type	__late_init, %function
 108              	__late_init:
 109              	.LFB36:
 110              		.loc 1 169 0
 111              		.cfi_startproc
 112              		@ args = 0, pretend = 0, frame = 0
 113              		@ frame_needed = 0, uses_anonymous_args = 0
 114              		@ link register save eliminated.
ARM GAS  /tmp/ccgwrEE7.s 			page 3


 115              		.loc 1 169 0
 116 0000 C046     		nop
 117              		@ sp needed
 118 0002 7047     		bx	lr
 119              		.cfi_endproc
 120              	.LFE36:
 121              		.size	__late_init, .-__late_init
 122              		.section	.text.__default_exit,"ax",%progbits
 123              		.align	1
 124              		.p2align 4,,15
 125              		.weak	__default_exit
 126              		.syntax unified
 127              		.code	16
 128              		.thumb_func
 129              		.fpu softvfp
 130              		.type	__default_exit, %function
 131              	__default_exit:
 132              	.LFB37:
 133              		.loc 1 182 0
 134              		.cfi_startproc
 135              		@ args = 0, pretend = 0, frame = 0
 136              		@ frame_needed = 0, uses_anonymous_args = 0
 137              		@ link register save eliminated.
 138              	.L5:
 139              		.loc 1 185 0 discriminator 1
 140 0000 FEE7     		b	.L5
 141              		.cfi_endproc
 142              	.LFE37:
 143              		.size	__default_exit, .-__default_exit
 144 0002 C046     		.section	.text.__init_ram_areas,"ax",%progbits
 145              		.align	1
 146              		.p2align 4,,15
 147              		.global	__init_ram_areas
 148              		.syntax unified
 149              		.code	16
 150              		.thumb_func
 151              		.fpu softvfp
 152              		.type	__init_ram_areas, %function
 153              	__init_ram_areas:
 154              	.LFB38:
 155              		.loc 1 192 0
 156              		.cfi_startproc
 157              		@ args = 0, pretend = 0, frame = 16
 158              		@ frame_needed = 0, uses_anonymous_args = 0
 159              		@ link register save eliminated.
 160 0000 84B0     		sub	sp, sp, #16
 161              		.cfi_def_cfa_offset 16
 162              		.loc 1 194 0
 163 0002 174B     		ldr	r3, .L12
 164 0004 0393     		str	r3, [sp, #12]
 165              	.L11:
 166              	.LBB2:
 167              		.loc 1 197 0
 168 0006 039B     		ldr	r3, [sp, #12]
 169 0008 1B68     		ldr	r3, [r3]
 170 000a 0293     		str	r3, [sp, #8]
 171              		.loc 1 198 0
ARM GAS  /tmp/ccgwrEE7.s 			page 4


 172 000c 039B     		ldr	r3, [sp, #12]
 173 000e 5B68     		ldr	r3, [r3, #4]
 174 0010 0193     		str	r3, [sp, #4]
 175              		.loc 1 201 0
 176 0012 09E0     		b	.L7
 177              	.L8:
 178              		.loc 1 202 0
 179 0014 029B     		ldr	r3, [sp, #8]
 180 0016 1A68     		ldr	r2, [r3]
 181 0018 019B     		ldr	r3, [sp, #4]
 182 001a 1A60     		str	r2, [r3]
 183              		.loc 1 203 0
 184 001c 019B     		ldr	r3, [sp, #4]
 185 001e 0433     		adds	r3, r3, #4
 186 0020 0193     		str	r3, [sp, #4]
 187              		.loc 1 204 0
 188 0022 029B     		ldr	r3, [sp, #8]
 189 0024 0433     		adds	r3, r3, #4
 190 0026 0293     		str	r3, [sp, #8]
 191              	.L7:
 192              		.loc 1 201 0
 193 0028 039B     		ldr	r3, [sp, #12]
 194 002a 9A68     		ldr	r2, [r3, #8]
 195 002c 019B     		ldr	r3, [sp, #4]
 196 002e 9A42     		cmp	r2, r3
 197 0030 F0D8     		bhi	.L8
 198              		.loc 1 208 0
 199 0032 05E0     		b	.L9
 200              	.L10:
 201              		.loc 1 209 0
 202 0034 019B     		ldr	r3, [sp, #4]
 203 0036 0022     		movs	r2, #0
 204 0038 1A60     		str	r2, [r3]
 205              		.loc 1 210 0
 206 003a 019B     		ldr	r3, [sp, #4]
 207 003c 0433     		adds	r3, r3, #4
 208 003e 0193     		str	r3, [sp, #4]
 209              	.L9:
 210              		.loc 1 208 0
 211 0040 039B     		ldr	r3, [sp, #12]
 212 0042 DA68     		ldr	r2, [r3, #12]
 213 0044 019B     		ldr	r3, [sp, #4]
 214 0046 9A42     		cmp	r2, r3
 215 0048 F4D8     		bhi	.L10
 216              		.loc 1 212 0
 217 004a 039B     		ldr	r3, [sp, #12]
 218 004c 1033     		adds	r3, r3, #16
 219 004e 0393     		str	r3, [sp, #12]
 220              	.LBE2:
 221              		.loc 1 214 0
 222 0050 039A     		ldr	r2, [sp, #12]
 223 0052 044B     		ldr	r3, .L12+4
 224 0054 9A42     		cmp	r2, r3
 225 0056 D6D3     		bcc	.L11
 226              		.loc 1 216 0
 227 0058 C046     		nop
 228 005a 04B0     		add	sp, sp, #16
ARM GAS  /tmp/ccgwrEE7.s 			page 5


 229              		@ sp needed
 230 005c 7047     		bx	lr
 231              	.L13:
 232 005e C046     		.align	2
 233              	.L12:
 234 0060 00000000 		.word	ram_areas
 235 0064 80000000 		.word	ram_areas+128
 236              		.cfi_endproc
 237              	.LFE38:
 238              		.size	__init_ram_areas, .-__init_ram_areas
 239              		.text
 240              	.Letext0:
 241              		.file 2 "/home/felix/opt/gcc-arm-none-eabi-6-2017-q1-update/arm-none-eabi/include/machine/_default
 242              		.file 3 "/home/felix/opt/gcc-arm-none-eabi-6-2017-q1-update/arm-none-eabi/include/sys/_stdint.h"
 243              		.file 4 "ChibiOS/os/ext/CMSIS/ST/STM32F0xx/system_stm32f0xx.h"
 244              		.section	.debug_info,"",%progbits
 245              	.Ldebug_info0:
 246 0000 F6020000 		.4byte	0x2f6
 247 0004 0400     		.2byte	0x4
 248 0006 00000000 		.4byte	.Ldebug_abbrev0
 249 000a 04       		.byte	0x4
 250 000b 01       		.uleb128 0x1
 251 000c 19030000 		.4byte	.LASF54
 252 0010 0C       		.byte	0xc
 253 0011 49000000 		.4byte	.LASF55
 254 0015 EB010000 		.4byte	.LASF56
 255 0019 00000000 		.4byte	.Ldebug_ranges0+0
 256 001d 00000000 		.4byte	0
 257 0021 00000000 		.4byte	.Ldebug_line0
 258 0025 02       		.uleb128 0x2
 259 0026 01       		.byte	0x1
 260 0027 06       		.byte	0x6
 261 0028 5D040000 		.4byte	.LASF0
 262 002c 02       		.uleb128 0x2
 263 002d 01       		.byte	0x1
 264 002e 08       		.byte	0x8
 265 002f CE010000 		.4byte	.LASF1
 266 0033 02       		.uleb128 0x2
 267 0034 02       		.byte	0x2
 268 0035 05       		.byte	0x5
 269 0036 19040000 		.4byte	.LASF2
 270 003a 02       		.uleb128 0x2
 271 003b 02       		.byte	0x2
 272 003c 07       		.byte	0x7
 273 003d C6000000 		.4byte	.LASF3
 274 0041 02       		.uleb128 0x2
 275 0042 04       		.byte	0x4
 276 0043 05       		.byte	0x5
 277 0044 44040000 		.4byte	.LASF4
 278 0048 03       		.uleb128 0x3
 279 0049 33020000 		.4byte	.LASF9
 280 004d 02       		.byte	0x2
 281 004e 4F       		.byte	0x4f
 282 004f 53000000 		.4byte	0x53
 283 0053 02       		.uleb128 0x2
 284 0054 04       		.byte	0x4
 285 0055 07       		.byte	0x7
ARM GAS  /tmp/ccgwrEE7.s 			page 6


 286 0056 6E010000 		.4byte	.LASF5
 287 005a 02       		.uleb128 0x2
 288 005b 08       		.byte	0x8
 289 005c 05       		.byte	0x5
 290 005d FB020000 		.4byte	.LASF6
 291 0061 02       		.uleb128 0x2
 292 0062 08       		.byte	0x8
 293 0063 07       		.byte	0x7
 294 0064 9F020000 		.4byte	.LASF7
 295 0068 04       		.uleb128 0x4
 296 0069 04       		.byte	0x4
 297 006a 05       		.byte	0x5
 298 006b 696E7400 		.ascii	"int\000"
 299 006f 02       		.uleb128 0x2
 300 0070 04       		.byte	0x4
 301 0071 07       		.byte	0x7
 302 0072 E8000000 		.4byte	.LASF8
 303 0076 03       		.uleb128 0x3
 304 0077 3B040000 		.4byte	.LASF10
 305 007b 03       		.byte	0x3
 306 007c 30       		.byte	0x30
 307 007d 48000000 		.4byte	0x48
 308 0081 02       		.uleb128 0x2
 309 0082 04       		.byte	0x4
 310 0083 07       		.byte	0x7
 311 0084 E3020000 		.4byte	.LASF11
 312 0088 05       		.uleb128 0x5
 313 0089 E7030000 		.4byte	.LASF17
 314 008d 04       		.byte	0x4
 315 008e 4C       		.byte	0x4c
 316 008f 76000000 		.4byte	0x76
 317 0093 06       		.uleb128 0x6
 318 0094 10       		.byte	0x10
 319 0095 01       		.byte	0x1
 320 0096 34       		.byte	0x34
 321 0097 CC000000 		.4byte	0xcc
 322 009b 07       		.uleb128 0x7
 323 009c 16010000 		.4byte	.LASF12
 324 00a0 01       		.byte	0x1
 325 00a1 35       		.byte	0x35
 326 00a2 CC000000 		.4byte	0xcc
 327 00a6 00       		.byte	0
 328 00a7 07       		.uleb128 0x7
 329 00a8 23040000 		.4byte	.LASF13
 330 00ac 01       		.byte	0x1
 331 00ad 36       		.byte	0x36
 332 00ae CC000000 		.4byte	0xcc
 333 00b2 04       		.byte	0x4
 334 00b3 07       		.uleb128 0x7
 335 00b4 48010000 		.4byte	.LASF14
 336 00b8 01       		.byte	0x1
 337 00b9 37       		.byte	0x37
 338 00ba CC000000 		.4byte	0xcc
 339 00be 08       		.byte	0x8
 340 00bf 07       		.uleb128 0x7
 341 00c0 D6020000 		.4byte	.LASF15
 342 00c4 01       		.byte	0x1
ARM GAS  /tmp/ccgwrEE7.s 			page 7


 343 00c5 38       		.byte	0x38
 344 00c6 CC000000 		.4byte	0xcc
 345 00ca 0C       		.byte	0xc
 346 00cb 00       		.byte	0
 347 00cc 08       		.uleb128 0x8
 348 00cd 04       		.byte	0x4
 349 00ce 76000000 		.4byte	0x76
 350 00d2 03       		.uleb128 0x3
 351 00d3 99000000 		.4byte	.LASF16
 352 00d7 01       		.byte	0x1
 353 00d8 39       		.byte	0x39
 354 00d9 93000000 		.4byte	0x93
 355 00dd 09       		.uleb128 0x9
 356 00de D2000000 		.4byte	0xd2
 357 00e2 05       		.uleb128 0x5
 358 00e3 B3000000 		.4byte	.LASF18
 359 00e7 01       		.byte	0x1
 360 00e8 40       		.byte	0x40
 361 00e9 76000000 		.4byte	0x76
 362 00ed 05       		.uleb128 0x5
 363 00ee 80010000 		.4byte	.LASF19
 364 00f2 01       		.byte	0x1
 365 00f3 40       		.byte	0x40
 366 00f4 76000000 		.4byte	0x76
 367 00f8 05       		.uleb128 0x5
 368 00f9 00000000 		.4byte	.LASF20
 369 00fd 01       		.byte	0x1
 370 00fe 40       		.byte	0x40
 371 00ff 76000000 		.4byte	0x76
 372 0103 05       		.uleb128 0x5
 373 0104 2B000000 		.4byte	.LASF21
 374 0108 01       		.byte	0x1
 375 0109 40       		.byte	0x40
 376 010a 76000000 		.4byte	0x76
 377 010e 05       		.uleb128 0x5
 378 010f 9C010000 		.4byte	.LASF22
 379 0113 01       		.byte	0x1
 380 0114 43       		.byte	0x43
 381 0115 76000000 		.4byte	0x76
 382 0119 05       		.uleb128 0x5
 383 011a 3B000000 		.4byte	.LASF23
 384 011e 01       		.byte	0x1
 385 011f 43       		.byte	0x43
 386 0120 76000000 		.4byte	0x76
 387 0124 05       		.uleb128 0x5
 388 0125 AF010000 		.4byte	.LASF24
 389 0129 01       		.byte	0x1
 390 012a 43       		.byte	0x43
 391 012b 76000000 		.4byte	0x76
 392 012f 05       		.uleb128 0x5
 393 0130 4D040000 		.4byte	.LASF25
 394 0134 01       		.byte	0x1
 395 0135 43       		.byte	0x43
 396 0136 76000000 		.4byte	0x76
 397 013a 05       		.uleb128 0x5
 398 013b 20020000 		.4byte	.LASF26
 399 013f 01       		.byte	0x1
ARM GAS  /tmp/ccgwrEE7.s 			page 8


 400 0140 46       		.byte	0x46
 401 0141 76000000 		.4byte	0x76
 402 0145 05       		.uleb128 0x5
 403 0146 0F000000 		.4byte	.LASF27
 404 014a 01       		.byte	0x1
 405 014b 46       		.byte	0x46
 406 014c 76000000 		.4byte	0x76
 407 0150 05       		.uleb128 0x5
 408 0151 F7030000 		.4byte	.LASF28
 409 0155 01       		.byte	0x1
 410 0156 46       		.byte	0x46
 411 0157 76000000 		.4byte	0x76
 412 015b 05       		.uleb128 0x5
 413 015c 3E020000 		.4byte	.LASF29
 414 0160 01       		.byte	0x1
 415 0161 46       		.byte	0x46
 416 0162 76000000 		.4byte	0x76
 417 0166 05       		.uleb128 0x5
 418 0167 F5000000 		.4byte	.LASF30
 419 016b 01       		.byte	0x1
 420 016c 49       		.byte	0x49
 421 016d 76000000 		.4byte	0x76
 422 0171 05       		.uleb128 0x5
 423 0172 2D040000 		.4byte	.LASF31
 424 0176 01       		.byte	0x1
 425 0177 49       		.byte	0x49
 426 0178 76000000 		.4byte	0x76
 427 017c 05       		.uleb128 0x5
 428 017d D9000000 		.4byte	.LASF32
 429 0181 01       		.byte	0x1
 430 0182 49       		.byte	0x49
 431 0183 76000000 		.4byte	0x76
 432 0187 05       		.uleb128 0x5
 433 0188 09030000 		.4byte	.LASF33
 434 018c 01       		.byte	0x1
 435 018d 49       		.byte	0x49
 436 018e 76000000 		.4byte	0x76
 437 0192 05       		.uleb128 0x5
 438 0193 06040000 		.4byte	.LASF34
 439 0197 01       		.byte	0x1
 440 0198 4C       		.byte	0x4c
 441 0199 76000000 		.4byte	0x76
 442 019d 05       		.uleb128 0x5
 443 019e 61020000 		.4byte	.LASF35
 444 01a2 01       		.byte	0x1
 445 01a3 4C       		.byte	0x4c
 446 01a4 76000000 		.4byte	0x76
 447 01a8 05       		.uleb128 0x5
 448 01a9 6F020000 		.4byte	.LASF36
 449 01ad 01       		.byte	0x1
 450 01ae 4C       		.byte	0x4c
 451 01af 76000000 		.4byte	0x76
 452 01b3 05       		.uleb128 0x5
 453 01b4 7E020000 		.4byte	.LASF37
 454 01b8 01       		.byte	0x1
 455 01b9 4C       		.byte	0x4c
 456 01ba 76000000 		.4byte	0x76
ARM GAS  /tmp/ccgwrEE7.s 			page 9


 457 01be 05       		.uleb128 0x5
 458 01bf 4E020000 		.4byte	.LASF38
 459 01c3 01       		.byte	0x1
 460 01c4 4F       		.byte	0x4f
 461 01c5 76000000 		.4byte	0x76
 462 01c9 05       		.uleb128 0x5
 463 01ca 8E010000 		.4byte	.LASF39
 464 01ce 01       		.byte	0x1
 465 01cf 4F       		.byte	0x4f
 466 01d0 76000000 		.4byte	0x76
 467 01d4 05       		.uleb128 0x5
 468 01d5 69040000 		.4byte	.LASF40
 469 01d9 01       		.byte	0x1
 470 01da 4F       		.byte	0x4f
 471 01db 76000000 		.4byte	0x76
 472 01df 05       		.uleb128 0x5
 473 01e0 BE010000 		.4byte	.LASF41
 474 01e4 01       		.byte	0x1
 475 01e5 4F       		.byte	0x4f
 476 01e6 76000000 		.4byte	0x76
 477 01ea 05       		.uleb128 0x5
 478 01eb 25010000 		.4byte	.LASF42
 479 01ef 01       		.byte	0x1
 480 01f0 52       		.byte	0x52
 481 01f1 76000000 		.4byte	0x76
 482 01f5 05       		.uleb128 0x5
 483 01f6 08010000 		.4byte	.LASF43
 484 01fa 01       		.byte	0x1
 485 01fb 52       		.byte	0x52
 486 01fc 76000000 		.4byte	0x76
 487 0200 05       		.uleb128 0x5
 488 0201 5F010000 		.4byte	.LASF44
 489 0205 01       		.byte	0x1
 490 0206 52       		.byte	0x52
 491 0207 76000000 		.4byte	0x76
 492 020b 05       		.uleb128 0x5
 493 020c 38010000 		.4byte	.LASF45
 494 0210 01       		.byte	0x1
 495 0211 52       		.byte	0x52
 496 0212 76000000 		.4byte	0x76
 497 0216 05       		.uleb128 0x5
 498 0217 B6020000 		.4byte	.LASF46
 499 021b 01       		.byte	0x1
 500 021c 55       		.byte	0x55
 501 021d 76000000 		.4byte	0x76
 502 0221 05       		.uleb128 0x5
 503 0222 1D000000 		.4byte	.LASF47
 504 0226 01       		.byte	0x1
 505 0227 55       		.byte	0x55
 506 0228 76000000 		.4byte	0x76
 507 022c 05       		.uleb128 0x5
 508 022d EC020000 		.4byte	.LASF48
 509 0231 01       		.byte	0x1
 510 0232 55       		.byte	0x55
 511 0233 76000000 		.4byte	0x76
 512 0237 05       		.uleb128 0x5
 513 0238 89000000 		.4byte	.LASF49
ARM GAS  /tmp/ccgwrEE7.s 			page 10


 514 023c 01       		.byte	0x1
 515 023d 55       		.byte	0x55
 516 023e 76000000 		.4byte	0x76
 517 0242 0A       		.uleb128 0xa
 518 0243 DD000000 		.4byte	0xdd
 519 0247 52020000 		.4byte	0x252
 520 024b 0B       		.uleb128 0xb
 521 024c 81000000 		.4byte	0x81
 522 0250 07       		.byte	0x7
 523 0251 00       		.byte	0
 524 0252 09       		.uleb128 0x9
 525 0253 42020000 		.4byte	0x242
 526 0257 0C       		.uleb128 0xc
 527 0258 A9000000 		.4byte	.LASF50
 528 025c 01       		.byte	0x1
 529 025d 5C       		.byte	0x5c
 530 025e 52020000 		.4byte	0x252
 531 0262 05       		.uleb128 0x5
 532 0263 03       		.byte	0x3
 533 0264 00000000 		.4byte	ram_areas
 534 0268 0D       		.uleb128 0xd
 535 0269 8E020000 		.4byte	.LASF57
 536 026d 01       		.byte	0x1
 537 026e C0       		.byte	0xc0
 538 026f 00000000 		.4byte	.LFB38
 539 0273 68000000 		.4byte	.LFE38-.LFB38
 540 0277 01       		.uleb128 0x1
 541 0278 9C       		.byte	0x9c
 542 0279 AF020000 		.4byte	0x2af
 543 027d 0E       		.uleb128 0xe
 544 027e 72617000 		.ascii	"rap\000"
 545 0282 01       		.byte	0x1
 546 0283 C2       		.byte	0xc2
 547 0284 AF020000 		.4byte	0x2af
 548 0288 02       		.uleb128 0x2
 549 0289 91       		.byte	0x91
 550 028a 7C       		.sleb128 -4
 551 028b 0F       		.uleb128 0xf
 552 028c 06000000 		.4byte	.LBB2
 553 0290 4A000000 		.4byte	.LBE2-.LBB2
 554 0294 0E       		.uleb128 0xe
 555 0295 747000   		.ascii	"tp\000"
 556 0298 01       		.byte	0x1
 557 0299 C5       		.byte	0xc5
 558 029a CC000000 		.4byte	0xcc
 559 029e 02       		.uleb128 0x2
 560 029f 91       		.byte	0x91
 561 02a0 78       		.sleb128 -8
 562 02a1 0E       		.uleb128 0xe
 563 02a2 7000     		.ascii	"p\000"
 564 02a4 01       		.byte	0x1
 565 02a5 C6       		.byte	0xc6
 566 02a6 CC000000 		.4byte	0xcc
 567 02aa 02       		.uleb128 0x2
 568 02ab 91       		.byte	0x91
 569 02ac 74       		.sleb128 -12
 570 02ad 00       		.byte	0
ARM GAS  /tmp/ccgwrEE7.s 			page 11


 571 02ae 00       		.byte	0
 572 02af 08       		.uleb128 0x8
 573 02b0 04       		.byte	0x4
 574 02b1 DD000000 		.4byte	0xdd
 575 02b5 10       		.uleb128 0x10
 576 02b6 DC010000 		.4byte	.LASF58
 577 02ba 01       		.byte	0x1
 578 02bb B6       		.byte	0xb6
 579 02bc 00000000 		.4byte	.LFB37
 580 02c0 02000000 		.4byte	.LFE37-.LFB37
 581 02c4 01       		.uleb128 0x1
 582 02c5 9C       		.byte	0x9c
 583 02c6 11       		.uleb128 0x11
 584 02c7 53010000 		.4byte	.LASF51
 585 02cb 01       		.byte	0x1
 586 02cc A9       		.byte	0xa9
 587 02cd 00000000 		.4byte	.LFB36
 588 02d1 04000000 		.4byte	.LFE36-.LFB36
 589 02d5 01       		.uleb128 0x1
 590 02d6 9C       		.byte	0x9c
 591 02d7 11       		.uleb128 0x11
 592 02d8 C9020000 		.4byte	.LASF52
 593 02dc 01       		.byte	0x1
 594 02dd 9B       		.byte	0x9b
 595 02de 00000000 		.4byte	.LFB35
 596 02e2 04000000 		.4byte	.LFE35-.LFB35
 597 02e6 01       		.uleb128 0x1
 598 02e7 9C       		.byte	0x9c
 599 02e8 11       		.uleb128 0x11
 600 02e9 7D000000 		.4byte	.LASF53
 601 02ed 01       		.byte	0x1
 602 02ee 88       		.byte	0x88
 603 02ef 00000000 		.4byte	.LFB34
 604 02f3 04000000 		.4byte	.LFE34-.LFB34
 605 02f7 01       		.uleb128 0x1
 606 02f8 9C       		.byte	0x9c
 607 02f9 00       		.byte	0
 608              		.section	.debug_abbrev,"",%progbits
 609              	.Ldebug_abbrev0:
 610 0000 01       		.uleb128 0x1
 611 0001 11       		.uleb128 0x11
 612 0002 01       		.byte	0x1
 613 0003 25       		.uleb128 0x25
 614 0004 0E       		.uleb128 0xe
 615 0005 13       		.uleb128 0x13
 616 0006 0B       		.uleb128 0xb
 617 0007 03       		.uleb128 0x3
 618 0008 0E       		.uleb128 0xe
 619 0009 1B       		.uleb128 0x1b
 620 000a 0E       		.uleb128 0xe
 621 000b 55       		.uleb128 0x55
 622 000c 17       		.uleb128 0x17
 623 000d 11       		.uleb128 0x11
 624 000e 01       		.uleb128 0x1
 625 000f 10       		.uleb128 0x10
 626 0010 17       		.uleb128 0x17
 627 0011 00       		.byte	0
ARM GAS  /tmp/ccgwrEE7.s 			page 12


 628 0012 00       		.byte	0
 629 0013 02       		.uleb128 0x2
 630 0014 24       		.uleb128 0x24
 631 0015 00       		.byte	0
 632 0016 0B       		.uleb128 0xb
 633 0017 0B       		.uleb128 0xb
 634 0018 3E       		.uleb128 0x3e
 635 0019 0B       		.uleb128 0xb
 636 001a 03       		.uleb128 0x3
 637 001b 0E       		.uleb128 0xe
 638 001c 00       		.byte	0
 639 001d 00       		.byte	0
 640 001e 03       		.uleb128 0x3
 641 001f 16       		.uleb128 0x16
 642 0020 00       		.byte	0
 643 0021 03       		.uleb128 0x3
 644 0022 0E       		.uleb128 0xe
 645 0023 3A       		.uleb128 0x3a
 646 0024 0B       		.uleb128 0xb
 647 0025 3B       		.uleb128 0x3b
 648 0026 0B       		.uleb128 0xb
 649 0027 49       		.uleb128 0x49
 650 0028 13       		.uleb128 0x13
 651 0029 00       		.byte	0
 652 002a 00       		.byte	0
 653 002b 04       		.uleb128 0x4
 654 002c 24       		.uleb128 0x24
 655 002d 00       		.byte	0
 656 002e 0B       		.uleb128 0xb
 657 002f 0B       		.uleb128 0xb
 658 0030 3E       		.uleb128 0x3e
 659 0031 0B       		.uleb128 0xb
 660 0032 03       		.uleb128 0x3
 661 0033 08       		.uleb128 0x8
 662 0034 00       		.byte	0
 663 0035 00       		.byte	0
 664 0036 05       		.uleb128 0x5
 665 0037 34       		.uleb128 0x34
 666 0038 00       		.byte	0
 667 0039 03       		.uleb128 0x3
 668 003a 0E       		.uleb128 0xe
 669 003b 3A       		.uleb128 0x3a
 670 003c 0B       		.uleb128 0xb
 671 003d 3B       		.uleb128 0x3b
 672 003e 0B       		.uleb128 0xb
 673 003f 49       		.uleb128 0x49
 674 0040 13       		.uleb128 0x13
 675 0041 3F       		.uleb128 0x3f
 676 0042 19       		.uleb128 0x19
 677 0043 3C       		.uleb128 0x3c
 678 0044 19       		.uleb128 0x19
 679 0045 00       		.byte	0
 680 0046 00       		.byte	0
 681 0047 06       		.uleb128 0x6
 682 0048 13       		.uleb128 0x13
 683 0049 01       		.byte	0x1
 684 004a 0B       		.uleb128 0xb
ARM GAS  /tmp/ccgwrEE7.s 			page 13


 685 004b 0B       		.uleb128 0xb
 686 004c 3A       		.uleb128 0x3a
 687 004d 0B       		.uleb128 0xb
 688 004e 3B       		.uleb128 0x3b
 689 004f 0B       		.uleb128 0xb
 690 0050 01       		.uleb128 0x1
 691 0051 13       		.uleb128 0x13
 692 0052 00       		.byte	0
 693 0053 00       		.byte	0
 694 0054 07       		.uleb128 0x7
 695 0055 0D       		.uleb128 0xd
 696 0056 00       		.byte	0
 697 0057 03       		.uleb128 0x3
 698 0058 0E       		.uleb128 0xe
 699 0059 3A       		.uleb128 0x3a
 700 005a 0B       		.uleb128 0xb
 701 005b 3B       		.uleb128 0x3b
 702 005c 0B       		.uleb128 0xb
 703 005d 49       		.uleb128 0x49
 704 005e 13       		.uleb128 0x13
 705 005f 38       		.uleb128 0x38
 706 0060 0B       		.uleb128 0xb
 707 0061 00       		.byte	0
 708 0062 00       		.byte	0
 709 0063 08       		.uleb128 0x8
 710 0064 0F       		.uleb128 0xf
 711 0065 00       		.byte	0
 712 0066 0B       		.uleb128 0xb
 713 0067 0B       		.uleb128 0xb
 714 0068 49       		.uleb128 0x49
 715 0069 13       		.uleb128 0x13
 716 006a 00       		.byte	0
 717 006b 00       		.byte	0
 718 006c 09       		.uleb128 0x9
 719 006d 26       		.uleb128 0x26
 720 006e 00       		.byte	0
 721 006f 49       		.uleb128 0x49
 722 0070 13       		.uleb128 0x13
 723 0071 00       		.byte	0
 724 0072 00       		.byte	0
 725 0073 0A       		.uleb128 0xa
 726 0074 01       		.uleb128 0x1
 727 0075 01       		.byte	0x1
 728 0076 49       		.uleb128 0x49
 729 0077 13       		.uleb128 0x13
 730 0078 01       		.uleb128 0x1
 731 0079 13       		.uleb128 0x13
 732 007a 00       		.byte	0
 733 007b 00       		.byte	0
 734 007c 0B       		.uleb128 0xb
 735 007d 21       		.uleb128 0x21
 736 007e 00       		.byte	0
 737 007f 49       		.uleb128 0x49
 738 0080 13       		.uleb128 0x13
 739 0081 2F       		.uleb128 0x2f
 740 0082 0B       		.uleb128 0xb
 741 0083 00       		.byte	0
ARM GAS  /tmp/ccgwrEE7.s 			page 14


 742 0084 00       		.byte	0
 743 0085 0C       		.uleb128 0xc
 744 0086 34       		.uleb128 0x34
 745 0087 00       		.byte	0
 746 0088 03       		.uleb128 0x3
 747 0089 0E       		.uleb128 0xe
 748 008a 3A       		.uleb128 0x3a
 749 008b 0B       		.uleb128 0xb
 750 008c 3B       		.uleb128 0x3b
 751 008d 0B       		.uleb128 0xb
 752 008e 49       		.uleb128 0x49
 753 008f 13       		.uleb128 0x13
 754 0090 02       		.uleb128 0x2
 755 0091 18       		.uleb128 0x18
 756 0092 00       		.byte	0
 757 0093 00       		.byte	0
 758 0094 0D       		.uleb128 0xd
 759 0095 2E       		.uleb128 0x2e
 760 0096 01       		.byte	0x1
 761 0097 3F       		.uleb128 0x3f
 762 0098 19       		.uleb128 0x19
 763 0099 03       		.uleb128 0x3
 764 009a 0E       		.uleb128 0xe
 765 009b 3A       		.uleb128 0x3a
 766 009c 0B       		.uleb128 0xb
 767 009d 3B       		.uleb128 0x3b
 768 009e 0B       		.uleb128 0xb
 769 009f 27       		.uleb128 0x27
 770 00a0 19       		.uleb128 0x19
 771 00a1 11       		.uleb128 0x11
 772 00a2 01       		.uleb128 0x1
 773 00a3 12       		.uleb128 0x12
 774 00a4 06       		.uleb128 0x6
 775 00a5 40       		.uleb128 0x40
 776 00a6 18       		.uleb128 0x18
 777 00a7 9742     		.uleb128 0x2117
 778 00a9 19       		.uleb128 0x19
 779 00aa 01       		.uleb128 0x1
 780 00ab 13       		.uleb128 0x13
 781 00ac 00       		.byte	0
 782 00ad 00       		.byte	0
 783 00ae 0E       		.uleb128 0xe
 784 00af 34       		.uleb128 0x34
 785 00b0 00       		.byte	0
 786 00b1 03       		.uleb128 0x3
 787 00b2 08       		.uleb128 0x8
 788 00b3 3A       		.uleb128 0x3a
 789 00b4 0B       		.uleb128 0xb
 790 00b5 3B       		.uleb128 0x3b
 791 00b6 0B       		.uleb128 0xb
 792 00b7 49       		.uleb128 0x49
 793 00b8 13       		.uleb128 0x13
 794 00b9 02       		.uleb128 0x2
 795 00ba 18       		.uleb128 0x18
 796 00bb 00       		.byte	0
 797 00bc 00       		.byte	0
 798 00bd 0F       		.uleb128 0xf
ARM GAS  /tmp/ccgwrEE7.s 			page 15


 799 00be 0B       		.uleb128 0xb
 800 00bf 01       		.byte	0x1
 801 00c0 11       		.uleb128 0x11
 802 00c1 01       		.uleb128 0x1
 803 00c2 12       		.uleb128 0x12
 804 00c3 06       		.uleb128 0x6
 805 00c4 00       		.byte	0
 806 00c5 00       		.byte	0
 807 00c6 10       		.uleb128 0x10
 808 00c7 2E       		.uleb128 0x2e
 809 00c8 00       		.byte	0
 810 00c9 3F       		.uleb128 0x3f
 811 00ca 19       		.uleb128 0x19
 812 00cb 03       		.uleb128 0x3
 813 00cc 0E       		.uleb128 0xe
 814 00cd 3A       		.uleb128 0x3a
 815 00ce 0B       		.uleb128 0xb
 816 00cf 3B       		.uleb128 0x3b
 817 00d0 0B       		.uleb128 0xb
 818 00d1 27       		.uleb128 0x27
 819 00d2 19       		.uleb128 0x19
 820 00d3 8701     		.uleb128 0x87
 821 00d5 19       		.uleb128 0x19
 822 00d6 11       		.uleb128 0x11
 823 00d7 01       		.uleb128 0x1
 824 00d8 12       		.uleb128 0x12
 825 00d9 06       		.uleb128 0x6
 826 00da 40       		.uleb128 0x40
 827 00db 18       		.uleb128 0x18
 828 00dc 9742     		.uleb128 0x2117
 829 00de 19       		.uleb128 0x19
 830 00df 00       		.byte	0
 831 00e0 00       		.byte	0
 832 00e1 11       		.uleb128 0x11
 833 00e2 2E       		.uleb128 0x2e
 834 00e3 00       		.byte	0
 835 00e4 3F       		.uleb128 0x3f
 836 00e5 19       		.uleb128 0x19
 837 00e6 03       		.uleb128 0x3
 838 00e7 0E       		.uleb128 0xe
 839 00e8 3A       		.uleb128 0x3a
 840 00e9 0B       		.uleb128 0xb
 841 00ea 3B       		.uleb128 0x3b
 842 00eb 0B       		.uleb128 0xb
 843 00ec 27       		.uleb128 0x27
 844 00ed 19       		.uleb128 0x19
 845 00ee 11       		.uleb128 0x11
 846 00ef 01       		.uleb128 0x1
 847 00f0 12       		.uleb128 0x12
 848 00f1 06       		.uleb128 0x6
 849 00f2 40       		.uleb128 0x40
 850 00f3 18       		.uleb128 0x18
 851 00f4 9742     		.uleb128 0x2117
 852 00f6 19       		.uleb128 0x19
 853 00f7 00       		.byte	0
 854 00f8 00       		.byte	0
 855 00f9 00       		.byte	0
ARM GAS  /tmp/ccgwrEE7.s 			page 16


 856              		.section	.debug_aranges,"",%progbits
 857 0000 3C000000 		.4byte	0x3c
 858 0004 0200     		.2byte	0x2
 859 0006 00000000 		.4byte	.Ldebug_info0
 860 000a 04       		.byte	0x4
 861 000b 00       		.byte	0
 862 000c 0000     		.2byte	0
 863 000e 0000     		.2byte	0
 864 0010 00000000 		.4byte	.LFB34
 865 0014 04000000 		.4byte	.LFE34-.LFB34
 866 0018 00000000 		.4byte	.LFB35
 867 001c 04000000 		.4byte	.LFE35-.LFB35
 868 0020 00000000 		.4byte	.LFB36
 869 0024 04000000 		.4byte	.LFE36-.LFB36
 870 0028 00000000 		.4byte	.LFB37
 871 002c 02000000 		.4byte	.LFE37-.LFB37
 872 0030 00000000 		.4byte	.LFB38
 873 0034 68000000 		.4byte	.LFE38-.LFB38
 874 0038 00000000 		.4byte	0
 875 003c 00000000 		.4byte	0
 876              		.section	.debug_ranges,"",%progbits
 877              	.Ldebug_ranges0:
 878 0000 00000000 		.4byte	.LFB34
 879 0004 04000000 		.4byte	.LFE34
 880 0008 00000000 		.4byte	.LFB35
 881 000c 04000000 		.4byte	.LFE35
 882 0010 00000000 		.4byte	.LFB36
 883 0014 04000000 		.4byte	.LFE36
 884 0018 00000000 		.4byte	.LFB37
 885 001c 02000000 		.4byte	.LFE37
 886 0020 00000000 		.4byte	.LFB38
 887 0024 68000000 		.4byte	.LFE38
 888 0028 00000000 		.4byte	0
 889 002c 00000000 		.4byte	0
 890              		.section	.debug_line,"",%progbits
 891              	.Ldebug_line0:
 892 0000 AE010000 		.section	.debug_str,"MS",%progbits,1
 892      02004101 
 892      00000201 
 892      FB0E0D00 
 892      01010101 
 893              	.LASF20:
 894 0000 5F5F7261 		.ascii	"__ram0_clear__\000"
 894      6D305F63 
 894      6C656172 
 894      5F5F00
 895              	.LASF27:
 896 000f 5F5F7261 		.ascii	"__ram2_init__\000"
 896      6D325F69 
 896      6E69745F 
 896      5F00
 897              	.LASF47:
 898 001d 5F5F7261 		.ascii	"__ram7_init__\000"
 898      6D375F69 
 898      6E69745F 
 898      5F00
 899              	.LASF21:
ARM GAS  /tmp/ccgwrEE7.s 			page 17


 900 002b 5F5F7261 		.ascii	"__ram0_noinit__\000"
 900      6D305F6E 
 900      6F696E69 
 900      745F5F00 
 901              	.LASF23:
 902 003b 5F5F7261 		.ascii	"__ram1_init__\000"
 902      6D315F69 
 902      6E69745F 
 902      5F00
 903              	.LASF55:
 904 0049 43686962 		.ascii	"ChibiOS/os/common/ports/ARMCMx/compilers/GCC/crt1.c"
 904      694F532F 
 904      6F732F63 
 904      6F6D6D6F 
 904      6E2F706F 
 905 007c 00       		.ascii	"\000"
 906              	.LASF53:
 907 007d 5F5F636F 		.ascii	"__core_init\000"
 907      72655F69 
 907      6E697400 
 908              	.LASF49:
 909 0089 5F5F7261 		.ascii	"__ram7_noinit__\000"
 909      6D375F6E 
 909      6F696E69 
 909      745F5F00 
 910              	.LASF16:
 911 0099 72616D5F 		.ascii	"ram_init_area_t\000"
 911      696E6974 
 911      5F617265 
 911      615F7400 
 912              	.LASF50:
 913 00a9 72616D5F 		.ascii	"ram_areas\000"
 913      61726561 
 913      7300
 914              	.LASF18:
 915 00b3 5F5F7261 		.ascii	"__ram0_init_text__\000"
 915      6D305F69 
 915      6E69745F 
 915      74657874 
 915      5F5F00
 916              	.LASF3:
 917 00c6 73686F72 		.ascii	"short unsigned int\000"
 917      7420756E 
 917      7369676E 
 917      65642069 
 917      6E7400
 918              	.LASF32:
 919 00d9 5F5F7261 		.ascii	"__ram3_clear__\000"
 919      6D335F63 
 919      6C656172 
 919      5F5F00
 920              	.LASF8:
 921 00e8 756E7369 		.ascii	"unsigned int\000"
 921      676E6564 
 921      20696E74 
 921      00
 922              	.LASF30:
ARM GAS  /tmp/ccgwrEE7.s 			page 18


 923 00f5 5F5F7261 		.ascii	"__ram3_init_text__\000"
 923      6D335F69 
 923      6E69745F 
 923      74657874 
 923      5F5F00
 924              	.LASF43:
 925 0108 5F5F7261 		.ascii	"__ram6_init__\000"
 925      6D365F69 
 925      6E69745F 
 925      5F00
 926              	.LASF12:
 927 0116 696E6974 		.ascii	"init_text_area\000"
 927      5F746578 
 927      745F6172 
 927      656100
 928              	.LASF42:
 929 0125 5F5F7261 		.ascii	"__ram6_init_text__\000"
 929      6D365F69 
 929      6E69745F 
 929      74657874 
 929      5F5F00
 930              	.LASF45:
 931 0138 5F5F7261 		.ascii	"__ram6_noinit__\000"
 931      6D365F6E 
 931      6F696E69 
 931      745F5F00 
 932              	.LASF14:
 933 0148 636C6561 		.ascii	"clear_area\000"
 933      725F6172 
 933      656100
 934              	.LASF51:
 935 0153 5F5F6C61 		.ascii	"__late_init\000"
 935      74655F69 
 935      6E697400 
 936              	.LASF44:
 937 015f 5F5F7261 		.ascii	"__ram6_clear__\000"
 937      6D365F63 
 937      6C656172 
 937      5F5F00
 938              	.LASF5:
 939 016e 6C6F6E67 		.ascii	"long unsigned int\000"
 939      20756E73 
 939      69676E65 
 939      6420696E 
 939      7400
 940              	.LASF19:
 941 0180 5F5F7261 		.ascii	"__ram0_init__\000"
 941      6D305F69 
 941      6E69745F 
 941      5F00
 942              	.LASF39:
 943 018e 5F5F7261 		.ascii	"__ram5_init__\000"
 943      6D355F69 
 943      6E69745F 
 943      5F00
 944              	.LASF22:
 945 019c 5F5F7261 		.ascii	"__ram1_init_text__\000"
ARM GAS  /tmp/ccgwrEE7.s 			page 19


 945      6D315F69 
 945      6E69745F 
 945      74657874 
 945      5F5F00
 946              	.LASF24:
 947 01af 5F5F7261 		.ascii	"__ram1_clear__\000"
 947      6D315F63 
 947      6C656172 
 947      5F5F00
 948              	.LASF41:
 949 01be 5F5F7261 		.ascii	"__ram5_noinit__\000"
 949      6D355F6E 
 949      6F696E69 
 949      745F5F00 
 950              	.LASF1:
 951 01ce 756E7369 		.ascii	"unsigned char\000"
 951      676E6564 
 951      20636861 
 951      7200
 952              	.LASF58:
 953 01dc 5F5F6465 		.ascii	"__default_exit\000"
 953      6661756C 
 953      745F6578 
 953      697400
 954              	.LASF56:
 955 01eb 2F686F6D 		.ascii	"/home/felix/Desktop/workspace/esho/UltrasonicCortex"
 955      652F6665 
 955      6C69782F 
 955      4465736B 
 955      746F702F 
 956 021e 2F00     		.ascii	"/\000"
 957              	.LASF26:
 958 0220 5F5F7261 		.ascii	"__ram2_init_text__\000"
 958      6D325F69 
 958      6E69745F 
 958      74657874 
 958      5F5F00
 959              	.LASF9:
 960 0233 5F5F7569 		.ascii	"__uint32_t\000"
 960      6E743332 
 960      5F7400
 961              	.LASF29:
 962 023e 5F5F7261 		.ascii	"__ram2_noinit__\000"
 962      6D325F6E 
 962      6F696E69 
 962      745F5F00 
 963              	.LASF38:
 964 024e 5F5F7261 		.ascii	"__ram5_init_text__\000"
 964      6D355F69 
 964      6E69745F 
 964      74657874 
 964      5F5F00
 965              	.LASF35:
 966 0261 5F5F7261 		.ascii	"__ram4_init__\000"
 966      6D345F69 
 966      6E69745F 
 966      5F00
ARM GAS  /tmp/ccgwrEE7.s 			page 20


 967              	.LASF36:
 968 026f 5F5F7261 		.ascii	"__ram4_clear__\000"
 968      6D345F63 
 968      6C656172 
 968      5F5F00
 969              	.LASF37:
 970 027e 5F5F7261 		.ascii	"__ram4_noinit__\000"
 970      6D345F6E 
 970      6F696E69 
 970      745F5F00 
 971              	.LASF57:
 972 028e 5F5F696E 		.ascii	"__init_ram_areas\000"
 972      69745F72 
 972      616D5F61 
 972      72656173 
 972      00
 973              	.LASF7:
 974 029f 6C6F6E67 		.ascii	"long long unsigned int\000"
 974      206C6F6E 
 974      6720756E 
 974      7369676E 
 974      65642069 
 975              	.LASF46:
 976 02b6 5F5F7261 		.ascii	"__ram7_init_text__\000"
 976      6D375F69 
 976      6E69745F 
 976      74657874 
 976      5F5F00
 977              	.LASF52:
 978 02c9 5F5F6561 		.ascii	"__early_init\000"
 978      726C795F 
 978      696E6974 
 978      00
 979              	.LASF15:
 980 02d6 6E6F5F69 		.ascii	"no_init_area\000"
 980      6E69745F 
 980      61726561 
 980      00
 981              	.LASF11:
 982 02e3 73697A65 		.ascii	"sizetype\000"
 982      74797065 
 982      00
 983              	.LASF48:
 984 02ec 5F5F7261 		.ascii	"__ram7_clear__\000"
 984      6D375F63 
 984      6C656172 
 984      5F5F00
 985              	.LASF6:
 986 02fb 6C6F6E67 		.ascii	"long long int\000"
 986      206C6F6E 
 986      6720696E 
 986      7400
 987              	.LASF33:
 988 0309 5F5F7261 		.ascii	"__ram3_noinit__\000"
 988      6D335F6E 
 988      6F696E69 
 988      745F5F00 
ARM GAS  /tmp/ccgwrEE7.s 			page 21


 989              	.LASF54:
 990 0319 474E5520 		.ascii	"GNU C11 6.3.1 20170215 (release) [ARM/embedded-6-br"
 990      43313120 
 990      362E332E 
 990      31203230 
 990      31373032 
 991 034c 616E6368 		.ascii	"anch revision 245512] -mcpu=cortex-m0 -mno-thumb-in"
 991      20726576 
 991      6973696F 
 991      6E203234 
 991      35353132 
 992 037f 74657277 		.ascii	"terwork -mthumb -ggdb -O0 -fomit-frame-pointer -fal"
 992      6F726B20 
 992      2D6D7468 
 992      756D6220 
 992      2D676764 
 993 03b2 69676E2D 		.ascii	"ign-functions=16 -ffunction-sections -fdata-section"
 993      66756E63 
 993      74696F6E 
 993      733D3136 
 993      202D6666 
 994 03e5 7300     		.ascii	"s\000"
 995              	.LASF17:
 996 03e7 53797374 		.ascii	"SystemCoreClock\000"
 996      656D436F 
 996      7265436C 
 996      6F636B00 
 997              	.LASF28:
 998 03f7 5F5F7261 		.ascii	"__ram2_clear__\000"
 998      6D325F63 
 998      6C656172 
 998      5F5F00
 999              	.LASF34:
 1000 0406 5F5F7261 		.ascii	"__ram4_init_text__\000"
 1000      6D345F69 
 1000      6E69745F 
 1000      74657874 
 1000      5F5F00
 1001              	.LASF2:
 1002 0419 73686F72 		.ascii	"short int\000"
 1002      7420696E 
 1002      7400
 1003              	.LASF13:
 1004 0423 696E6974 		.ascii	"init_area\000"
 1004      5F617265 
 1004      6100
 1005              	.LASF31:
 1006 042d 5F5F7261 		.ascii	"__ram3_init__\000"
 1006      6D335F69 
 1006      6E69745F 
 1006      5F00
 1007              	.LASF10:
 1008 043b 75696E74 		.ascii	"uint32_t\000"
 1008      33325F74 
 1008      00
 1009              	.LASF4:
 1010 0444 6C6F6E67 		.ascii	"long int\000"
ARM GAS  /tmp/ccgwrEE7.s 			page 22


 1010      20696E74 
 1010      00
 1011              	.LASF25:
 1012 044d 5F5F7261 		.ascii	"__ram1_noinit__\000"
 1012      6D315F6E 
 1012      6F696E69 
 1012      745F5F00 
 1013              	.LASF0:
 1014 045d 7369676E 		.ascii	"signed char\000"
 1014      65642063 
 1014      68617200 
 1015              	.LASF40:
 1016 0469 5F5F7261 		.ascii	"__ram5_clear__\000"
 1016      6D355F63 
 1016      6C656172 
 1016      5F5F00
 1017              		.ident	"GCC: (GNU Tools for ARM Embedded Processors 6-2017-q1-update) 6.3.1 20170215 (release) [AR
ARM GAS  /tmp/ccgwrEE7.s 			page 23


DEFINED SYMBOLS
                            *ABS*:0000000000000000 crt1.c
     /tmp/ccgwrEE7.s:16     .rodata.ram_areas:0000000000000000 $d
     /tmp/ccgwrEE7.s:19     .rodata.ram_areas:0000000000000000 ram_areas
     /tmp/ccgwrEE7.s:53     .text.__core_init:0000000000000000 $t
     /tmp/ccgwrEE7.s:61     .text.__core_init:0000000000000000 __core_init
     /tmp/ccgwrEE7.s:77     .text.__early_init:0000000000000000 $t
     /tmp/ccgwrEE7.s:85     .text.__early_init:0000000000000000 __early_init
     /tmp/ccgwrEE7.s:100    .text.__late_init:0000000000000000 $t
     /tmp/ccgwrEE7.s:108    .text.__late_init:0000000000000000 __late_init
     /tmp/ccgwrEE7.s:123    .text.__default_exit:0000000000000000 $t
     /tmp/ccgwrEE7.s:131    .text.__default_exit:0000000000000000 __default_exit
     /tmp/ccgwrEE7.s:145    .text.__init_ram_areas:0000000000000000 $t
     /tmp/ccgwrEE7.s:153    .text.__init_ram_areas:0000000000000000 __init_ram_areas
     /tmp/ccgwrEE7.s:234    .text.__init_ram_areas:0000000000000060 $d
                     .debug_frame:0000000000000010 $d

UNDEFINED SYMBOLS
__ram0_init_text__
__ram0_init__
__ram0_clear__
__ram0_noinit__
__ram1_init_text__
__ram1_init__
__ram1_clear__
__ram1_noinit__
__ram2_init_text__
__ram2_init__
__ram2_clear__
__ram2_noinit__
__ram3_init_text__
__ram3_init__
__ram3_clear__
__ram3_noinit__
__ram4_init_text__
__ram4_init__
__ram4_clear__
__ram4_noinit__
__ram5_init_text__
__ram5_init__
__ram5_clear__
__ram5_noinit__
__ram6_init_text__
__ram6_init__
__ram6_clear__
__ram6_noinit__
__ram7_init_text__
__ram7_init__
__ram7_clear__
__ram7_noinit__
