ARM GAS  /tmp/ccgwrEE7.s 			page 1


   1              		.cpu cortex-m0
   2              		.eabi_attribute 20, 1
   3              		.eabi_attribute 21, 1
   4              		.eabi_attribute 23, 3
   5              		.eabi_attribute 24, 1
   6              		.eabi_attribute 25, 1
   7              		.eabi_attribute 26, 1
   8              		.eabi_attribute 30, 6
   9              		.eabi_attribute 34, 0
  10              		.eabi_attribute 18, 4
  11              		.file	"crt1.c"
  12              		.text
  13              	.Ltext0:
  14              		.cfi_sections	.debug_frame
  15              		.section	.rodata.ram_areas,"a",%progbits
  16              		.align	2
  17              		.type	ram_areas, %object
  18              		.size	ram_areas, 128
  19              	ram_areas:
  20 0000 00000000 		.word	__ram0_init_text__
  21 0004 00000000 		.word	__ram0_init__
  22 0008 00000000 		.word	__ram0_clear__
  23 000c 00000000 		.word	__ram0_noinit__
  24 0010 00000000 		.word	__ram1_init_text__
  25 0014 00000000 		.word	__ram1_init__
  26 0018 00000000 		.word	__ram1_clear__
  27 001c 00000000 		.word	__ram1_noinit__
  28 0020 00000000 		.word	__ram2_init_text__
  29 0024 00000000 		.word	__ram2_init__
  30 0028 00000000 		.word	__ram2_clear__
  31 002c 00000000 		.word	__ram2_noinit__
  32 0030 00000000 		.word	__ram3_init_text__
  33 0034 00000000 		.word	__ram3_init__
  34 0038 00000000 		.word	__ram3_clear__
  35 003c 00000000 		.word	__ram3_noinit__
  36 0040 00000000 		.word	__ram4_init_text__
  37 0044 00000000 		.word	__ram4_init__
  38 0048 00000000 		.word	__ram4_clear__
  39 004c 00000000 		.word	__ram4_noinit__
  40 0050 00000000 		.word	__ram5_init_text__
  41 0054 00000000 		.word	__ram5_init__
  42 0058 00000000 		.word	__ram5_clear__
  43 005c 00000000 		.word	__ram5_noinit__
  44 0060 00000000 		.word	__ram6_init_text__
  45 0064 00000000 		.word	__ram6_init__
  46 0068 00000000 		.word	__ram6_clear__
  47 006c 00000000 		.word	__ram6_noinit__
  48 0070 00000000 		.word	__ram7_init_text__
  49 0074 00000000 		.word	__ram7_init__
  50 0078 00000000 		.word	__ram7_clear__
  51 007c 00000000 		.word	__ram7_noinit__
  52              		.section	.text.__core_init,"ax",%progbits
  53              		.align	1
  54              		.p2align 4,,15
  55              		.weak	__core_init
  56              		.syntax unified
  57              		.code	16
ARM GAS  /tmp/ccgwrEE7.s 			page 2


  58              		.thumb_func
  59              		.fpu softvfp
  60              		.type	__core_init, %function
  61              	__core_init:
  62              	.LFB34:
  63              		.file 1 "ChibiOS/os/common/ports/ARMCMx/compilers/GCC/crt1.c"
  64              		.loc 1 136 0
  65              		.cfi_startproc
  66              		@ args = 0, pretend = 0, frame = 0
  67              		@ frame_needed = 0, uses_anonymous_args = 0
  68              		@ link register save eliminated.
  69              		.loc 1 142 0
  70 0000 C046     		nop
  71              		@ sp needed
  72 0002 7047     		bx	lr
  73              		.cfi_endproc
  74              	.LFE34:
  75              		.size	__core_init, .-__core_init
  76              		.section	.text.__early_init,"ax",%progbits
  77              		.align	1
  78              		.p2align 4,,15
  79              		.weak	__early_init
  80              		.syntax unified
  81              		.code	16
  82              		.thumb_func
  83              		.fpu softvfp
  84              		.type	__early_init, %function
  85              	__early_init:
  86              	.LFB35:
  87              		.loc 1 155 0
  88              		.cfi_startproc
  89              		@ args = 0, pretend = 0, frame = 0
  90              		@ frame_needed = 0, uses_anonymous_args = 0
  91              		@ link register save eliminated.
  92              		.loc 1 155 0
  93 0000 C046     		nop
  94              		@ sp needed
  95 0002 7047     		bx	lr
  96              		.cfi_endproc
  97              	.LFE35:
  98              		.size	__early_init, .-__early_init
  99              		.section	.text.__late_init,"ax",%progbits
 100              		.align	1
 101              		.p2align 4,,15
 102              		.weak	__late_init
 103              		.syntax unified
 104              		.code	16
 105              		.thumb_func
 106              		.fpu softvfp
 107              		.type	__late_init, %function
 108              	__late_init:
 109              	.LFB36:
 110              		.loc 1 169 0
 111              		.cfi_startproc
 112              		@ args = 0, pretend = 0, frame = 0
 113              		@ frame_needed = 0, uses_anonymous_args = 0
 114              		@ link register save eliminated.
ARM GAS  /tmp/ccgwrEE7.s 			page 3


 115              		.loc 1 169 0
 116 0000 C046     		nop
 117              		@ sp needed
 118 0002 7047     		bx	lr
 119              		.cfi_endproc
 120              	.LFE36:
 121              		.size	__late_init, .-__late_init
 122              		.section	.text.__default_exit,"ax",%progbits
 123              		.align	1
 124              		.p2align 4,,15
 125              		.weak	__default_exit
 126              		.syntax unified
 127              		.code	16
 128              		.thumb_func
 129              		.fpu softvfp
 130              		.type	__default_exit, %function
 131              	__default_exit:
 132              	.LFB37:
 133              		.loc 1 182 0
 134              		.cfi_startproc
 135              		@ args = 0, pretend = 0, frame = 0
 136              		@ frame_needed = 0, uses_anonymous_args = 0
 137              		@ link register save eliminated.
 138              	.L5:
 139              		.loc 1 185 0 discriminator 1
 140 0000 FEE7     		b	.L5
 141              		.cfi_endproc
 142              	.LFE37:
 143              		.size	__default_exit, .-__default_exit
 144 0002 C046     		.section	.text.__init_ram_areas,"ax",%progbits
 145              		.align	1
 146              		.p2align 4,,15
 147              		.global	__init_ram_areas
 148              		.syntax unified
 149              		.code	16
 150              		.thumb_func
 151              		.fpu softvfp
 152              		.type	__init_ram_areas, %function
 153              	__init_ram_areas:
 154              	.LFB38:
 155              		.loc 1 192 0
 156              		.cfi_startproc
 157              		@ args = 0, pretend = 0, frame = 16
 158              		@ frame_needed = 0, uses_anonymous_args = 0
 159              		@ link register save eliminated.
 160 0000 84B0     		sub	sp, sp, #16
 161              		.cfi_def_cfa_offset 16
 162              		.loc 1 194 0
 163 0002 174B     		ldr	r3, .L12
 164 0004 0393     		str	r3, [sp, #12]
 165              	.L11:
 166              	.LBB2:
 167              		.loc 1 197 0
 168 0006 039B     		ldr	r3, [sp, #12]
 169 0008 1B68     		ldr	r3, [r3]
 170 000a 0293     		str	r3, [sp, #8]
 171              		.loc 1 198 0
ARM GAS  /tmp/ccgwrEE7.s 			page 4


 172 000c 039B     		ldr	r3, [sp, #12]
 173 000e 5B68     		ldr	r3, [r3, #4]
 174 0010 0193     		str	r3, [sp, #4]
 175              		.loc 1 201 0
 176 0012 09E0     		b	.L7
 177              	.L8:
 178              		.loc 1 202 0
 179 0014 029B     		ldr	r3, [sp, #8]
 180 0016 1A68     		ldr	r2, [r3]
 181 0018 019B     		ldr	r3, [sp, #4]
 182 001a 1A60     		str	r2, [r3]
 183              		.loc 1 203 0
 184 001c 019B     		ldr	r3, [sp, #4]
 185 001e 0433     		adds	r3, r3, #4
 186 0020 0193     		str	r3, [sp, #4]
 187              		.loc 1 204 0
 188 0022 029B     		ldr	r3, [sp, #8]
 189 0024 0433     		adds	r3, r3, #4
 190 0026 0293     		str	r3, [sp, #8]
 191              	.L7:
 192              		.loc 1 201 0
 193 0028 039B     		ldr	r3, [sp, #12]
 194 002a 9A68     		ldr	r2, [r3, #8]
 195 002c 019B     		ldr	r3, [sp, #4]
 196 002e 9A42     		cmp	r2, r3
 197 0030 F0D8     		bhi	.L8
 198              		.loc 1 208 0
 199 0032 05E0     		b	.L9
 200              	.L10:
 201              		.loc 1 209 0
 202 0034 019B     		ldr	r3, [sp, #4]
 203 0036 0022     		movs	r2, #0
 204 0038 1A60     		str	r2, [r3]
 205              		.loc 1 210 0
 206 003a 019B     		ldr	r3, [sp, #4]
 207 003c 0433     		adds	r3, r3, #4
 208 003e 0193     		str	r3, [sp, #4]
 209              	.L9:
 210              		.loc 1 208 0
 211 0040 039B     		ldr	r3, [sp, #12]
 212 0042 DA68     		ldr	r2, [r3, #12]
 213 0044 019B     		ldr	r3, [sp, #4]
 214 0046 9A42     		cmp	r2, r3
 215 0048 F4D8     		bhi	.L10
 216              		.loc 1 212 0
 217 004a 039B     		ldr	r3, [sp, #12]
 218 004c 1033     		adds	r3, r3, #16
 219 004e 0393     		str	r3, [sp, #12]
 220              	.LBE2:
 221              		.loc 1 214 0
 222 0050 039A     		ldr	r2, [sp, #12]
 223 0052 044B     		ldr	r3, .L12+4
 224 0054 9A42     		cmp	r2, r3
 225 0056 D6D3     		bcc	.L11
 226              		.loc 1 216 0
 227 0058 C046     		nop
 228 005a 04B0     		add	sp, sp, #16
ARM GAS  /tmp/ccgwrEE7.s 			page 5


 229              		@ sp needed
 230 005c 7047     		bx	lr
 231              	.L13:
 232 005e C046     		.align	2
 233              	.L12:
 234 0060 00000000 		.word	ram_areas
 235 0064 80000000 		.word	ram_areas+128
 236              		.cfi_endproc
 237              	.LFE38:
 238              		.size	__init_ram_areas, .-__init_ram_areas
 239              		.text
 240              	.Letext0:
 241              		.file 2 "/home/felix/opt/gcc-arm-none-eabi-6-2017-q1-update/arm-none-eabi/include/machine/_default
 242              		.file 3 "/home/felix/opt/gcc-arm-none-eabi-6-2017-q1-update/arm-none-eabi/include/sys/_stdint.h"
 243              		.file 4 "ChibiOS/os/ext/CMSIS/ST/STM32F0xx/system_stm32f0xx.h"