ARM GAS  /tmp/cctghmAI.s 			page 1


   1              		.cpu cortex-m0
   2              		.eabi_attribute 20, 1
   3              		.eabi_attribute 21, 1
   4              		.eabi_attribute 23, 3
   5              		.eabi_attribute 24, 1
   6              		.eabi_attribute 25, 1
   7              		.eabi_attribute 26, 1
   8              		.eabi_attribute 30, 6
   9              		.eabi_attribute 34, 0
  10              		.eabi_attribute 18, 4
  11              		.file	"hal_buffers.c"
  12              		.text
  13              	.Ltext0:
  14              		.cfi_sections	.debug_frame
  15              		.section	.text.port_lock,"ax",%progbits
  16              		.align	1
  17              		.p2align 4,,15
  18              		.syntax unified
  19              		.code	16
  20              		.thumb_func
  21              		.fpu softvfp
  22              		.type	port_lock, %function
  23              	port_lock:
  24              	.LFB38:
  25              		.file 1 "ChibiOS/os/rt/ports/ARMCMx/chcore_v6m.h"
  26              		.loc 1 330 0
  27              		.cfi_startproc
  28              		@ args = 0, pretend = 0, frame = 0
  29              		@ frame_needed = 0, uses_anonymous_args = 0
  30              		@ link register save eliminated.
  31              	.LBB6:
  32              	.LBB7:
  33              		.file 2 "ChibiOS/os/ext/CMSIS/include/core_cmFunc.h"
  34              		.loc 2 344 0
  35              		.syntax divided
  36              	@ 344 "ChibiOS/os/ext/CMSIS/include/core_cmFunc.h" 1
  37 0000 72B6     		cpsid i
  38              	@ 0 "" 2
  39              		.thumb
  40              		.syntax unified
  41              	.LBE7:
  42              	.LBE6:
  43              		.loc 1 333 0
  44 0002 C046     		nop
  45              		@ sp needed
  46 0004 7047     		bx	lr
  47              		.cfi_endproc
  48              	.LFE38:
  49              		.size	port_lock, .-port_lock
  50 0006 C046     		.section	.text.port_unlock,"ax",%progbits
  51              		.align	1
  52              		.p2align 4,,15
  53              		.syntax unified
  54              		.code	16
  55              		.thumb_func
  56              		.fpu softvfp
  57              		.type	port_unlock, %function
ARM GAS  /tmp/cctghmAI.s 			page 2


  58              	port_unlock:
  59              	.LFB39:
  60              		.loc 1 339 0
  61              		.cfi_startproc
  62              		@ args = 0, pretend = 0, frame = 0
  63              		@ frame_needed = 0, uses_anonymous_args = 0
  64              		@ link register save eliminated.
  65              	.LBB8:
  66              	.LBB9:
  67              		.loc 2 333 0
  68              		.syntax divided
  69              	@ 333 "ChibiOS/os/ext/CMSIS/include/core_cmFunc.h" 1
  70 0000 62B6     		cpsie i
  71              	@ 0 "" 2
  72              		.thumb
  73              		.syntax unified
  74              	.LBE9:
  75              	.LBE8:
  76              		.loc 1 342 0
  77 0002 C046     		nop
  78              		@ sp needed
  79 0004 7047     		bx	lr
  80              		.cfi_endproc
  81              	.LFE39:
  82              		.size	port_unlock, .-port_unlock
  83 0006 C046     		.section	.text.st_lld_get_counter,"ax",%progbits
  84              		.align	1
  85              		.p2align 4,,15
  86              		.syntax unified
  87              		.code	16
  88              		.thumb_func
  89              		.fpu softvfp
  90              		.type	st_lld_get_counter, %function
  91              	st_lld_get_counter:
  92              	.LFB46:
  93              		.file 3 "ChibiOS/os/hal/ports/STM32/LLD/TIMv1/st_lld.h"
  94              		.loc 3 139 0
  95              		.cfi_startproc
  96              		@ args = 0, pretend = 0, frame = 0
  97              		@ frame_needed = 0, uses_anonymous_args = 0
  98              		@ link register save eliminated.
  99              		.loc 3 141 0
 100 0000 024B     		ldr	r3, .L5
 101 0002 5B6A     		ldr	r3, [r3, #36]
 102 0004 9BB2     		uxth	r3, r3
 103              		.loc 3 142 0
 104 0006 1800     		movs	r0, r3
 105              		@ sp needed
 106 0008 7047     		bx	lr
 107              	.L6:
 108 000a C046     		.align	2
 109              	.L5:
 110 000c 00040040 		.word	1073742848
 111              		.cfi_endproc
 112              	.LFE46:
 113              		.size	st_lld_get_counter, .-st_lld_get_counter
 114              		.section	.text.port_timer_get_time,"ax",%progbits
ARM GAS  /tmp/cctghmAI.s 			page 3


 115              		.align	1
 116              		.p2align 4,,15
 117              		.syntax unified
 118              		.code	16
 119              		.thumb_func
 120              		.fpu softvfp
 121              		.type	port_timer_get_time, %function
 122              	port_timer_get_time:
 123              	.LFB55:
 124              		.file 4 "ChibiOS/os/rt/ports/ARMCMx/chcore_timer.h"
 125              		.loc 4 105 0
 126              		.cfi_startproc
 127              		@ args = 0, pretend = 0, frame = 0
 128              		@ frame_needed = 0, uses_anonymous_args = 0
 129 0000 10B5     		push	{r4, lr}
 130              		.cfi_def_cfa_offset 8
 131              		.cfi_offset 4, -8
 132              		.cfi_offset 14, -4
 133              		.loc 4 107 0
 134 0002 FFF7FEFF 		bl	st_lld_get_counter
 135 0006 0300     		movs	r3, r0
 136              		.loc 4 108 0
 137 0008 1800     		movs	r0, r3
 138              		@ sp needed
 139 000a 10BD     		pop	{r4, pc}
 140              		.cfi_endproc
 141              	.LFE55:
 142              		.size	port_timer_get_time, .-port_timer_get_time
 143              		.section	.text.queue_init,"ax",%progbits
 144              		.align	1
 145              		.p2align 4,,15
 146              		.syntax unified
 147              		.code	16
 148              		.thumb_func
 149              		.fpu softvfp
 150              		.type	queue_init, %function
 151              	queue_init:
 152              	.LFB60:
 153              		.file 5 "ChibiOS/os/rt/include/chschd.h"
 154              		.loc 5 602 0
 155              		.cfi_startproc
 156              		@ args = 0, pretend = 0, frame = 8
 157              		@ frame_needed = 0, uses_anonymous_args = 0
 158              		@ link register save eliminated.
 159 0000 82B0     		sub	sp, sp, #8
 160              		.cfi_def_cfa_offset 8
 161 0002 0190     		str	r0, [sp, #4]
 162              		.loc 5 604 0
 163 0004 019B     		ldr	r3, [sp, #4]
 164 0006 019A     		ldr	r2, [sp, #4]
 165 0008 1A60     		str	r2, [r3]
 166              		.loc 5 605 0
 167 000a 019B     		ldr	r3, [sp, #4]
 168 000c 019A     		ldr	r2, [sp, #4]
 169 000e 5A60     		str	r2, [r3, #4]
 170              		.loc 5 606 0
 171 0010 C046     		nop
ARM GAS  /tmp/cctghmAI.s 			page 4


 172 0012 02B0     		add	sp, sp, #8
 173              		@ sp needed
 174 0014 7047     		bx	lr
 175              		.cfi_endproc
 176              	.LFE60:
 177              		.size	queue_init, .-queue_init
 178 0016 C046     		.section	.text.chSysLock,"ax",%progbits
 179              		.align	1
 180              		.p2align 4,,15
 181              		.syntax unified
 182              		.code	16
 183              		.thumb_func
 184              		.fpu softvfp
 185              		.type	chSysLock, %function
 186              	chSysLock:
 187              	.LFB77:
 188              		.file 6 "ChibiOS/os/rt/include/chsys.h"
 189              		.loc 6 346 0
 190              		.cfi_startproc
 191              		@ args = 0, pretend = 0, frame = 0
 192              		@ frame_needed = 0, uses_anonymous_args = 0
 193 0000 10B5     		push	{r4, lr}
 194              		.cfi_def_cfa_offset 8
 195              		.cfi_offset 4, -8
 196              		.cfi_offset 14, -4
 197              		.loc 6 348 0
 198 0002 FFF7FEFF 		bl	port_lock
 199              		.loc 6 350 0
 200 0006 FFF7FEFF 		bl	_dbg_check_lock
 201              		.loc 6 351 0
 202 000a C046     		nop
 203              		@ sp needed
 204 000c 10BD     		pop	{r4, pc}
 205              		.cfi_endproc
 206              	.LFE77:
 207              		.size	chSysLock, .-chSysLock
 208 000e C046     		.section	.text.chSysUnlock,"ax",%progbits
 209              		.align	1
 210              		.p2align 4,,15
 211              		.syntax unified
 212              		.code	16
 213              		.thumb_func
 214              		.fpu softvfp
 215              		.type	chSysUnlock, %function
 216              	chSysUnlock:
 217              	.LFB78:
 218              		.loc 6 358 0
 219              		.cfi_startproc
 220              		@ args = 0, pretend = 0, frame = 0
 221              		@ frame_needed = 0, uses_anonymous_args = 0
 222 0000 10B5     		push	{r4, lr}
 223              		.cfi_def_cfa_offset 8
 224              		.cfi_offset 4, -8
 225              		.cfi_offset 14, -4
 226              		.loc 6 360 0
 227 0002 FFF7FEFF 		bl	_dbg_check_unlock
 228              		.loc 6 367 0
ARM GAS  /tmp/cctghmAI.s 			page 5


 229 0006 0A4B     		ldr	r3, .L13
 230 0008 1A68     		ldr	r2, [r3]
 231 000a 094B     		ldr	r3, .L13
 232 000c 9A42     		cmp	r2, r3
 233 000e 0BD0     		beq	.L12
 234              		.loc 6 367 0 is_stmt 0 discriminator 2
 235 0010 074B     		ldr	r3, .L13
 236 0012 9B69     		ldr	r3, [r3, #24]
 237 0014 9A68     		ldr	r2, [r3, #8]
 238 0016 064B     		ldr	r3, .L13
 239 0018 1B68     		ldr	r3, [r3]
 240 001a 9B68     		ldr	r3, [r3, #8]
 241 001c 9A42     		cmp	r2, r3
 242 001e 03D2     		bcs	.L12
 243              		.loc 6 367 0 discriminator 3
 244 0020 044B     		ldr	r3, .L13+4
 245 0022 1800     		movs	r0, r3
 246 0024 FFF7FEFF 		bl	chSysHalt
 247              	.L12:
 248              		.loc 6 371 0 is_stmt 1
 249 0028 FFF7FEFF 		bl	port_unlock
 250              		.loc 6 372 0
 251 002c C046     		nop
 252              		@ sp needed
 253 002e 10BD     		pop	{r4, pc}
 254              	.L14:
 255              		.align	2
 256              	.L13:
 257 0030 00000000 		.word	ch
 258 0034 00000000 		.word	__func__.5371
 259              		.cfi_endproc
 260              	.LFE78:
 261              		.size	chSysUnlock, .-chSysUnlock
 262              		.section	.text.chVTGetSystemTimeX,"ax",%progbits
 263              		.align	1
 264              		.p2align 4,,15
 265              		.syntax unified
 266              		.code	16
 267              		.thumb_func
 268              		.fpu softvfp
 269              		.type	chVTGetSystemTimeX, %function
 270              	chVTGetSystemTimeX:
 271              	.LFB85:
 272              		.file 7 "ChibiOS/os/rt/include/chvt.h"
 273              		.loc 7 228 0
 274              		.cfi_startproc
 275              		@ args = 0, pretend = 0, frame = 0
 276              		@ frame_needed = 0, uses_anonymous_args = 0
 277 0000 10B5     		push	{r4, lr}
 278              		.cfi_def_cfa_offset 8
 279              		.cfi_offset 4, -8
 280              		.cfi_offset 14, -4
 281              		.loc 7 233 0
 282 0002 FFF7FEFF 		bl	port_timer_get_time
 283 0006 0300     		movs	r3, r0
 284              		.loc 7 235 0
 285 0008 1800     		movs	r0, r3
ARM GAS  /tmp/cctghmAI.s 			page 6


 286              		@ sp needed
 287 000a 10BD     		pop	{r4, pc}
 288              		.cfi_endproc
 289              	.LFE85:
 290              		.size	chVTGetSystemTimeX, .-chVTGetSystemTimeX
 291              		.section	.text.chThdQueueObjectInit,"ax",%progbits
 292              		.align	1
 293              		.p2align 4,,15
 294              		.syntax unified
 295              		.code	16
 296              		.thumb_func
 297              		.fpu softvfp
 298              		.type	chThdQueueObjectInit, %function
 299              	chThdQueueObjectInit:
 300              	.LFB105:
 301              		.file 8 "ChibiOS/os/rt/include/chthreads.h"
 302              		.loc 8 278 0
 303              		.cfi_startproc
 304              		@ args = 0, pretend = 0, frame = 8
 305              		@ frame_needed = 0, uses_anonymous_args = 0
 306 0000 00B5     		push	{lr}
 307              		.cfi_def_cfa_offset 4
 308              		.cfi_offset 14, -4
 309 0002 83B0     		sub	sp, sp, #12
 310              		.cfi_def_cfa_offset 16
 311 0004 0190     		str	r0, [sp, #4]
 312              		.loc 8 280 0
 313 0006 019B     		ldr	r3, [sp, #4]
 314 0008 1800     		movs	r0, r3
 315 000a FFF7FEFF 		bl	queue_init
 316              		.loc 8 281 0
 317 000e C046     		nop
 318 0010 03B0     		add	sp, sp, #12
 319              		@ sp needed
 320 0012 00BD     		pop	{pc}
 321              		.cfi_endproc
 322              	.LFE105:
 323              		.size	chThdQueueObjectInit, .-chThdQueueObjectInit
 324              		.section	.text.osalSysLock,"ax",%progbits
 325              		.align	1
 326              		.p2align 4,,15
 327              		.syntax unified
 328              		.code	16
 329              		.thumb_func
 330              		.fpu softvfp
 331              		.type	osalSysLock, %function
 332              	osalSysLock:
 333              	.LFB156:
 334              		.file 9 "ChibiOS/os/hal/osal/rt/osal.h"
 335              		.loc 9 491 0
 336              		.cfi_startproc
 337              		@ args = 0, pretend = 0, frame = 0
 338              		@ frame_needed = 0, uses_anonymous_args = 0
 339 0000 10B5     		push	{r4, lr}
 340              		.cfi_def_cfa_offset 8
 341              		.cfi_offset 4, -8
 342              		.cfi_offset 14, -4
ARM GAS  /tmp/cctghmAI.s 			page 7


 343              		.loc 9 493 0
 344 0002 FFF7FEFF 		bl	chSysLock
 345              		.loc 9 494 0
 346 0006 C046     		nop
 347              		@ sp needed
 348 0008 10BD     		pop	{r4, pc}
 349              		.cfi_endproc
 350              	.LFE156:
 351              		.size	osalSysLock, .-osalSysLock
 352 000a C046     		.section	.text.osalSysUnlock,"ax",%progbits
 353              		.align	1
 354              		.p2align 4,,15
 355              		.syntax unified
 356              		.code	16
 357              		.thumb_func
 358              		.fpu softvfp
 359              		.type	osalSysUnlock, %function
 360              	osalSysUnlock:
 361              	.LFB157:
 362              		.loc 9 502 0
 363              		.cfi_startproc
 364              		@ args = 0, pretend = 0, frame = 0
 365              		@ frame_needed = 0, uses_anonymous_args = 0
 366 0000 10B5     		push	{r4, lr}
 367              		.cfi_def_cfa_offset 8
 368              		.cfi_offset 4, -8
 369              		.cfi_offset 14, -4
 370              		.loc 9 504 0
 371 0002 FFF7FEFF 		bl	chSysUnlock
 372              		.loc 9 505 0
 373 0006 C046     		nop
 374              		@ sp needed
 375 0008 10BD     		pop	{r4, pc}
 376              		.cfi_endproc
 377              	.LFE157:
 378              		.size	osalSysUnlock, .-osalSysUnlock
 379 000a C046     		.section	.text.osalOsGetSystemTimeX,"ax",%progbits
 380              		.align	1
 381              		.p2align 4,,15
 382              		.syntax unified
 383              		.code	16
 384              		.thumb_func
 385              		.fpu softvfp
 386              		.type	osalOsGetSystemTimeX, %function
 387              	osalOsGetSystemTimeX:
 388              	.LFB164:
 389              		.loc 9 616 0
 390              		.cfi_startproc
 391              		@ args = 0, pretend = 0, frame = 0
 392              		@ frame_needed = 0, uses_anonymous_args = 0
 393 0000 10B5     		push	{r4, lr}
 394              		.cfi_def_cfa_offset 8
 395              		.cfi_offset 4, -8
 396              		.cfi_offset 14, -4
 397              		.loc 9 618 0
 398 0002 FFF7FEFF 		bl	chVTGetSystemTimeX
 399 0006 0300     		movs	r3, r0
ARM GAS  /tmp/cctghmAI.s 			page 8


 400              		.loc 9 619 0
 401 0008 1800     		movs	r0, r3
 402              		@ sp needed
 403 000a 10BD     		pop	{r4, pc}
 404              		.cfi_endproc
 405              	.LFE164:
 406              		.size	osalOsGetSystemTimeX, .-osalOsGetSystemTimeX
 407              		.section	.text.osalThreadQueueObjectInit,"ax",%progbits
 408              		.align	1
 409              		.p2align 4,,15
 410              		.syntax unified
 411              		.code	16
 412              		.thumb_func
 413              		.fpu softvfp
 414              		.type	osalThreadQueueObjectInit, %function
 415              	osalThreadQueueObjectInit:
 416              	.LFB172:
 417              		.loc 9 753 0
 418              		.cfi_startproc
 419              		@ args = 0, pretend = 0, frame = 8
 420              		@ frame_needed = 0, uses_anonymous_args = 0
 421 0000 00B5     		push	{lr}
 422              		.cfi_def_cfa_offset 4
 423              		.cfi_offset 14, -4
 424 0002 83B0     		sub	sp, sp, #12
 425              		.cfi_def_cfa_offset 16
 426 0004 0190     		str	r0, [sp, #4]
 427              		.loc 9 755 0
 428 0006 019B     		ldr	r3, [sp, #4]
 429 0008 1800     		movs	r0, r3
 430 000a FFF7FEFF 		bl	chThdQueueObjectInit
 431              		.loc 9 756 0
 432 000e C046     		nop
 433 0010 03B0     		add	sp, sp, #12
 434              		@ sp needed
 435 0012 00BD     		pop	{pc}
 436              		.cfi_endproc
 437              	.LFE172:
 438              		.size	osalThreadQueueObjectInit, .-osalThreadQueueObjectInit
 439              		.section	.text.osalThreadEnqueueTimeoutS,"ax",%progbits
 440              		.align	1
 441              		.p2align 4,,15
 442              		.syntax unified
 443              		.code	16
 444              		.thumb_func
 445              		.fpu softvfp
 446              		.type	osalThreadEnqueueTimeoutS, %function
 447              	osalThreadEnqueueTimeoutS:
 448              	.LFB173:
 449              		.loc 9 782 0
 450              		.cfi_startproc
 451              		@ args = 0, pretend = 0, frame = 8
 452              		@ frame_needed = 0, uses_anonymous_args = 0
 453 0000 00B5     		push	{lr}
 454              		.cfi_def_cfa_offset 4
 455              		.cfi_offset 14, -4
 456 0002 83B0     		sub	sp, sp, #12
ARM GAS  /tmp/cctghmAI.s 			page 9


 457              		.cfi_def_cfa_offset 16
 458 0004 0190     		str	r0, [sp, #4]
 459 0006 0A00     		movs	r2, r1
 460 0008 6B46     		mov	r3, sp
 461 000a 0233     		adds	r3, r3, #2
 462 000c 1A80     		strh	r2, [r3]
 463              		.loc 9 784 0
 464 000e 6B46     		mov	r3, sp
 465 0010 0233     		adds	r3, r3, #2
 466 0012 1A88     		ldrh	r2, [r3]
 467 0014 019B     		ldr	r3, [sp, #4]
 468 0016 1100     		movs	r1, r2
 469 0018 1800     		movs	r0, r3
 470 001a FFF7FEFF 		bl	chThdEnqueueTimeoutS
 471 001e 0300     		movs	r3, r0
 472              		.loc 9 785 0
 473 0020 1800     		movs	r0, r3
 474 0022 03B0     		add	sp, sp, #12
 475              		@ sp needed
 476 0024 00BD     		pop	{pc}
 477              		.cfi_endproc
 478              	.LFE173:
 479              		.size	osalThreadEnqueueTimeoutS, .-osalThreadEnqueueTimeoutS
 480 0026 C046     		.section	.text.osalThreadDequeueNextI,"ax",%progbits
 481              		.align	1
 482              		.p2align 4,,15
 483              		.syntax unified
 484              		.code	16
 485              		.thumb_func
 486              		.fpu softvfp
 487              		.type	osalThreadDequeueNextI, %function
 488              	osalThreadDequeueNextI:
 489              	.LFB174:
 490              		.loc 9 795 0
 491              		.cfi_startproc
 492              		@ args = 0, pretend = 0, frame = 8
 493              		@ frame_needed = 0, uses_anonymous_args = 0
 494 0000 00B5     		push	{lr}
 495              		.cfi_def_cfa_offset 4
 496              		.cfi_offset 14, -4
 497 0002 83B0     		sub	sp, sp, #12
 498              		.cfi_def_cfa_offset 16
 499 0004 0190     		str	r0, [sp, #4]
 500 0006 0091     		str	r1, [sp]
 501              		.loc 9 797 0
 502 0008 009A     		ldr	r2, [sp]
 503 000a 019B     		ldr	r3, [sp, #4]
 504 000c 1100     		movs	r1, r2
 505 000e 1800     		movs	r0, r3
 506 0010 FFF7FEFF 		bl	chThdDequeueNextI
 507              		.loc 9 798 0
 508 0014 C046     		nop
 509 0016 03B0     		add	sp, sp, #12
 510              		@ sp needed
 511 0018 00BD     		pop	{pc}
 512              		.cfi_endproc
 513              	.LFE174:
ARM GAS  /tmp/cctghmAI.s 			page 10


 514              		.size	osalThreadDequeueNextI, .-osalThreadDequeueNextI
 515 001a C046     		.section	.text.osalThreadDequeueAllI,"ax",%progbits
 516              		.align	1
 517              		.p2align 4,,15
 518              		.syntax unified
 519              		.code	16
 520              		.thumb_func
 521              		.fpu softvfp
 522              		.type	osalThreadDequeueAllI, %function
 523              	osalThreadDequeueAllI:
 524              	.LFB175:
 525              		.loc 9 808 0
 526              		.cfi_startproc
 527              		@ args = 0, pretend = 0, frame = 8
 528              		@ frame_needed = 0, uses_anonymous_args = 0
 529 0000 00B5     		push	{lr}
 530              		.cfi_def_cfa_offset 4
 531              		.cfi_offset 14, -4
 532 0002 83B0     		sub	sp, sp, #12
 533              		.cfi_def_cfa_offset 16
 534 0004 0190     		str	r0, [sp, #4]
 535 0006 0091     		str	r1, [sp]
 536              		.loc 9 810 0
 537 0008 009A     		ldr	r2, [sp]
 538 000a 019B     		ldr	r3, [sp, #4]
 539 000c 1100     		movs	r1, r2
 540 000e 1800     		movs	r0, r3
 541 0010 FFF7FEFF 		bl	chThdDequeueAllI
 542              		.loc 9 811 0
 543 0014 C046     		nop
 544 0016 03B0     		add	sp, sp, #12
 545              		@ sp needed
 546 0018 00BD     		pop	{pc}
 547              		.cfi_endproc
 548              	.LFE175:
 549              		.size	osalThreadDequeueAllI, .-osalThreadDequeueAllI
 550 001a C046     		.section	.text.ibqObjectInit,"ax",%progbits
 551              		.align	1
 552              		.p2align 4,,15
 553              		.global	ibqObjectInit
 554              		.syntax unified
 555              		.code	16
 556              		.thumb_func
 557              		.fpu softvfp
 558              		.type	ibqObjectInit, %function
 559              	ibqObjectInit:
 560              	.LFB182:
 561              		.file 10 "ChibiOS/os/hal/src/hal_buffers.c"
 562              		.loc 10 77 0
 563              		.cfi_startproc
 564              		@ args = 8, pretend = 0, frame = 16
 565              		@ frame_needed = 0, uses_anonymous_args = 0
 566 0000 00B5     		push	{lr}
 567              		.cfi_def_cfa_offset 4
 568              		.cfi_offset 14, -4
 569 0002 85B0     		sub	sp, sp, #20
 570              		.cfi_def_cfa_offset 24
ARM GAS  /tmp/cctghmAI.s 			page 11


 571 0004 0390     		str	r0, [sp, #12]
 572 0006 0291     		str	r1, [sp, #8]
 573 0008 0192     		str	r2, [sp, #4]
 574 000a 0093     		str	r3, [sp]
 575              		.loc 10 79 0
 576 000c 039B     		ldr	r3, [sp, #12]
 577 000e 002B     		cmp	r3, #0
 578 0010 05D0     		beq	.L28
 579              		.loc 10 79 0 is_stmt 0 discriminator 3
 580 0012 029B     		ldr	r3, [sp, #8]
 581 0014 002B     		cmp	r3, #0
 582 0016 02D0     		beq	.L28
 583              		.loc 10 79 0 discriminator 5
 584 0018 019B     		ldr	r3, [sp, #4]
 585 001a 012B     		cmp	r3, #1
 586 001c 03D8     		bhi	.L29
 587              	.L28:
 588              		.loc 10 79 0 discriminator 6
 589 001e 194B     		ldr	r3, .L30
 590 0020 1800     		movs	r0, r3
 591 0022 FFF7FEFF 		bl	chSysHalt
 592              	.L29:
 593              		.loc 10 81 0 is_stmt 1
 594 0026 039B     		ldr	r3, [sp, #12]
 595 0028 1800     		movs	r0, r3
 596 002a FFF7FEFF 		bl	osalThreadQueueObjectInit
 597              		.loc 10 82 0
 598 002e 039B     		ldr	r3, [sp, #12]
 599 0030 0022     		movs	r2, #0
 600 0032 9A60     		str	r2, [r3, #8]
 601              		.loc 10 83 0
 602 0034 039B     		ldr	r3, [sp, #12]
 603 0036 029A     		ldr	r2, [sp, #8]
 604 0038 1A61     		str	r2, [r3, #16]
 605              		.loc 10 84 0
 606 003a 039B     		ldr	r3, [sp, #12]
 607 003c 029A     		ldr	r2, [sp, #8]
 608 003e DA60     		str	r2, [r3, #12]
 609              		.loc 10 85 0
 610 0040 019B     		ldr	r3, [sp, #4]
 611 0042 0433     		adds	r3, r3, #4
 612 0044 009A     		ldr	r2, [sp]
 613 0046 5343     		muls	r3, r2
 614 0048 029A     		ldr	r2, [sp, #8]
 615 004a D218     		adds	r2, r2, r3
 616 004c 039B     		ldr	r3, [sp, #12]
 617 004e 5A61     		str	r2, [r3, #20]
 618              		.loc 10 86 0
 619 0050 019B     		ldr	r3, [sp, #4]
 620 0052 1A1D     		adds	r2, r3, #4
 621 0054 039B     		ldr	r3, [sp, #12]
 622 0056 9A61     		str	r2, [r3, #24]
 623              		.loc 10 87 0
 624 0058 039B     		ldr	r3, [sp, #12]
 625 005a 009A     		ldr	r2, [sp]
 626 005c DA61     		str	r2, [r3, #28]
 627              		.loc 10 88 0
ARM GAS  /tmp/cctghmAI.s 			page 12


 628 005e 039B     		ldr	r3, [sp, #12]
 629 0060 029A     		ldr	r2, [sp, #8]
 630 0062 1A62     		str	r2, [r3, #32]
 631              		.loc 10 89 0
 632 0064 039B     		ldr	r3, [sp, #12]
 633 0066 0022     		movs	r2, #0
 634 0068 5A62     		str	r2, [r3, #36]
 635              		.loc 10 90 0
 636 006a 039B     		ldr	r3, [sp, #12]
 637 006c 0022     		movs	r2, #0
 638 006e 9A62     		str	r2, [r3, #40]
 639              		.loc 10 91 0
 640 0070 039B     		ldr	r3, [sp, #12]
 641 0072 069A     		ldr	r2, [sp, #24]
 642 0074 DA62     		str	r2, [r3, #44]
 643              		.loc 10 92 0
 644 0076 039B     		ldr	r3, [sp, #12]
 645 0078 079A     		ldr	r2, [sp, #28]
 646 007a 1A63     		str	r2, [r3, #48]
 647              		.loc 10 93 0
 648 007c C046     		nop
 649 007e 05B0     		add	sp, sp, #20
 650              		@ sp needed
 651 0080 00BD     		pop	{pc}
 652              	.L31:
 653 0082 C046     		.align	2
 654              	.L30:
 655 0084 00000000 		.word	__func__.6591
 656              		.cfi_endproc
 657              	.LFE182:
 658              		.size	ibqObjectInit, .-ibqObjectInit
 659              		.section	.text.ibqResetI,"ax",%progbits
 660              		.align	1
 661              		.p2align 4,,15
 662              		.global	ibqResetI
 663              		.syntax unified
 664              		.code	16
 665              		.thumb_func
 666              		.fpu softvfp
 667              		.type	ibqResetI, %function
 668              	ibqResetI:
 669              	.LFB183:
 670              		.loc 10 106 0
 671              		.cfi_startproc
 672              		@ args = 0, pretend = 0, frame = 8
 673              		@ frame_needed = 0, uses_anonymous_args = 0
 674 0000 00B5     		push	{lr}
 675              		.cfi_def_cfa_offset 4
 676              		.cfi_offset 14, -4
 677 0002 83B0     		sub	sp, sp, #12
 678              		.cfi_def_cfa_offset 16
 679 0004 0190     		str	r0, [sp, #4]
 680              		.loc 10 108 0
 681 0006 FFF7FEFF 		bl	chDbgCheckClassI
 682              		.loc 10 110 0
 683 000a 019B     		ldr	r3, [sp, #4]
 684 000c 0022     		movs	r2, #0
ARM GAS  /tmp/cctghmAI.s 			page 13


 685 000e 9A60     		str	r2, [r3, #8]
 686              		.loc 10 111 0
 687 0010 019B     		ldr	r3, [sp, #4]
 688 0012 1A6A     		ldr	r2, [r3, #32]
 689 0014 019B     		ldr	r3, [sp, #4]
 690 0016 1A61     		str	r2, [r3, #16]
 691              		.loc 10 112 0
 692 0018 019B     		ldr	r3, [sp, #4]
 693 001a 1A6A     		ldr	r2, [r3, #32]
 694 001c 019B     		ldr	r3, [sp, #4]
 695 001e DA60     		str	r2, [r3, #12]
 696              		.loc 10 113 0
 697 0020 019B     		ldr	r3, [sp, #4]
 698 0022 0022     		movs	r2, #0
 699 0024 5A62     		str	r2, [r3, #36]
 700              		.loc 10 114 0
 701 0026 019B     		ldr	r3, [sp, #4]
 702 0028 0022     		movs	r2, #0
 703 002a 9A62     		str	r2, [r3, #40]
 704              		.loc 10 115 0
 705 002c 019A     		ldr	r2, [sp, #4]
 706 002e 0223     		movs	r3, #2
 707 0030 5B42     		rsbs	r3, r3, #0
 708 0032 1900     		movs	r1, r3
 709 0034 1000     		movs	r0, r2
 710 0036 FFF7FEFF 		bl	osalThreadDequeueAllI
 711              		.loc 10 116 0
 712 003a C046     		nop
 713 003c 03B0     		add	sp, sp, #12
 714              		@ sp needed
 715 003e 00BD     		pop	{pc}
 716              		.cfi_endproc
 717              	.LFE183:
 718              		.size	ibqResetI, .-ibqResetI
 719              		.section	.text.ibqGetEmptyBufferI,"ax",%progbits
 720              		.align	1
 721              		.p2align 4,,15
 722              		.global	ibqGetEmptyBufferI
 723              		.syntax unified
 724              		.code	16
 725              		.thumb_func
 726              		.fpu softvfp
 727              		.type	ibqGetEmptyBufferI, %function
 728              	ibqGetEmptyBufferI:
 729              	.LFB184:
 730              		.loc 10 128 0
 731              		.cfi_startproc
 732              		@ args = 0, pretend = 0, frame = 8
 733              		@ frame_needed = 0, uses_anonymous_args = 0
 734 0000 00B5     		push	{lr}
 735              		.cfi_def_cfa_offset 4
 736              		.cfi_offset 14, -4
 737 0002 83B0     		sub	sp, sp, #12
 738              		.cfi_def_cfa_offset 16
 739 0004 0190     		str	r0, [sp, #4]
 740              		.loc 10 130 0
 741 0006 FFF7FEFF 		bl	chDbgCheckClassI
ARM GAS  /tmp/cctghmAI.s 			page 14


 742              		.loc 10 132 0
 743 000a 019B     		ldr	r3, [sp, #4]
 744 000c DA68     		ldr	r2, [r3, #12]
 745 000e 019B     		ldr	r3, [sp, #4]
 746 0010 1B69     		ldr	r3, [r3, #16]
 747 0012 9A42     		cmp	r2, r3
 748 0014 05D1     		bne	.L34
 749              		.loc 10 132 0 is_stmt 0 discriminator 1
 750 0016 019B     		ldr	r3, [sp, #4]
 751 0018 9B68     		ldr	r3, [r3, #8]
 752 001a 002B     		cmp	r3, #0
 753 001c 01D0     		beq	.L34
 754              		.loc 10 132 0 discriminator 3
 755 001e 0123     		movs	r3, #1
 756 0020 00E0     		b	.L35
 757              	.L34:
 758              		.loc 10 132 0 discriminator 4
 759 0022 0023     		movs	r3, #0
 760              	.L35:
 761              		.loc 10 132 0 discriminator 6
 762 0024 1A1C     		adds	r2, r3, #0
 763 0026 0123     		movs	r3, #1
 764 0028 1340     		ands	r3, r2
 765 002a DBB2     		uxtb	r3, r3
 766 002c 002B     		cmp	r3, #0
 767 002e 01D0     		beq	.L36
 768              		.loc 10 133 0 is_stmt 1
 769 0030 0023     		movs	r3, #0
 770 0032 02E0     		b	.L37
 771              	.L36:
 772              		.loc 10 136 0
 773 0034 019B     		ldr	r3, [sp, #4]
 774 0036 DB68     		ldr	r3, [r3, #12]
 775 0038 0433     		adds	r3, r3, #4
 776              	.L37:
 777              		.loc 10 137 0
 778 003a 1800     		movs	r0, r3
 779 003c 03B0     		add	sp, sp, #12
 780              		@ sp needed
 781 003e 00BD     		pop	{pc}
 782              		.cfi_endproc
 783              	.LFE184:
 784              		.size	ibqGetEmptyBufferI, .-ibqGetEmptyBufferI
 785              		.section	.text.ibqPostFullBufferI,"ax",%progbits
 786              		.align	1
 787              		.p2align 4,,15
 788              		.global	ibqPostFullBufferI
 789              		.syntax unified
 790              		.code	16
 791              		.thumb_func
 792              		.fpu softvfp
 793              		.type	ibqPostFullBufferI, %function
 794              	ibqPostFullBufferI:
 795              	.LFB185:
 796              		.loc 10 147 0
 797              		.cfi_startproc
 798              		@ args = 0, pretend = 0, frame = 8
ARM GAS  /tmp/cctghmAI.s 			page 15


 799              		@ frame_needed = 0, uses_anonymous_args = 0
 800 0000 00B5     		push	{lr}
 801              		.cfi_def_cfa_offset 4
 802              		.cfi_offset 14, -4
 803 0002 83B0     		sub	sp, sp, #12
 804              		.cfi_def_cfa_offset 16
 805 0004 0190     		str	r0, [sp, #4]
 806 0006 0091     		str	r1, [sp]
 807              		.loc 10 149 0
 808 0008 FFF7FEFF 		bl	chDbgCheckClassI
 809              		.loc 10 151 0
 810 000c 009B     		ldr	r3, [sp]
 811 000e 002B     		cmp	r3, #0
 812 0010 05D0     		beq	.L39
 813              		.loc 10 151 0 is_stmt 0 discriminator 3
 814 0012 019B     		ldr	r3, [sp, #4]
 815 0014 9B69     		ldr	r3, [r3, #24]
 816 0016 1A1F     		subs	r2, r3, #4
 817 0018 009B     		ldr	r3, [sp]
 818 001a 9A42     		cmp	r2, r3
 819 001c 03D2     		bcs	.L45
 820              	.L39:
 821              		.loc 10 151 0 discriminator 4
 822 001e 1E4B     		ldr	r3, .L46
 823 0020 1800     		movs	r0, r3
 824 0022 FFF7FEFF 		bl	chSysHalt
 825              	.L45:
 826              		.loc 10 152 0 is_stmt 1 discriminator 1
 827 0026 019B     		ldr	r3, [sp, #4]
 828 0028 DA68     		ldr	r2, [r3, #12]
 829 002a 019B     		ldr	r3, [sp, #4]
 830 002c 1B69     		ldr	r3, [r3, #16]
 831 002e 9A42     		cmp	r2, r3
 832 0030 05D1     		bne	.L41
 833              		.loc 10 152 0 is_stmt 0 discriminator 2
 834 0032 019B     		ldr	r3, [sp, #4]
 835 0034 9B68     		ldr	r3, [r3, #8]
 836 0036 002B     		cmp	r3, #0
 837 0038 01D0     		beq	.L41
 838              		.loc 10 152 0 discriminator 4
 839 003a 0123     		movs	r3, #1
 840 003c 00E0     		b	.L42
 841              	.L41:
 842              		.loc 10 152 0 discriminator 5
 843 003e 0023     		movs	r3, #0
 844              	.L42:
 845              		.loc 10 152 0 discriminator 7
 846 0040 1A1C     		adds	r2, r3, #0
 847 0042 0123     		movs	r3, #1
 848 0044 1340     		ands	r3, r2
 849 0046 DBB2     		uxtb	r3, r3
 850 0048 002B     		cmp	r3, #0
 851 004a 03D0     		beq	.L43
 852              		.loc 10 152 0 discriminator 8
 853 004c 124B     		ldr	r3, .L46
 854 004e 1800     		movs	r0, r3
 855 0050 FFF7FEFF 		bl	chSysHalt
ARM GAS  /tmp/cctghmAI.s 			page 16


 856              	.L43:
 857              		.loc 10 155 0 is_stmt 1
 858 0054 019B     		ldr	r3, [sp, #4]
 859 0056 DB68     		ldr	r3, [r3, #12]
 860 0058 009A     		ldr	r2, [sp]
 861 005a 1A60     		str	r2, [r3]
 862              		.loc 10 158 0
 863 005c 019B     		ldr	r3, [sp, #4]
 864 005e 9B68     		ldr	r3, [r3, #8]
 865 0060 5A1C     		adds	r2, r3, #1
 866 0062 019B     		ldr	r3, [sp, #4]
 867 0064 9A60     		str	r2, [r3, #8]
 868              		.loc 10 159 0
 869 0066 019B     		ldr	r3, [sp, #4]
 870 0068 DA68     		ldr	r2, [r3, #12]
 871 006a 019B     		ldr	r3, [sp, #4]
 872 006c 9B69     		ldr	r3, [r3, #24]
 873 006e D218     		adds	r2, r2, r3
 874 0070 019B     		ldr	r3, [sp, #4]
 875 0072 DA60     		str	r2, [r3, #12]
 876              		.loc 10 160 0
 877 0074 019B     		ldr	r3, [sp, #4]
 878 0076 DA68     		ldr	r2, [r3, #12]
 879 0078 019B     		ldr	r3, [sp, #4]
 880 007a 5B69     		ldr	r3, [r3, #20]
 881 007c 9A42     		cmp	r2, r3
 882 007e 03D3     		bcc	.L44
 883              		.loc 10 161 0
 884 0080 019B     		ldr	r3, [sp, #4]
 885 0082 1A6A     		ldr	r2, [r3, #32]
 886 0084 019B     		ldr	r3, [sp, #4]
 887 0086 DA60     		str	r2, [r3, #12]
 888              	.L44:
 889              		.loc 10 165 0
 890 0088 019B     		ldr	r3, [sp, #4]
 891 008a 0021     		movs	r1, #0
 892 008c 1800     		movs	r0, r3
 893 008e FFF7FEFF 		bl	osalThreadDequeueNextI
 894              		.loc 10 166 0
 895 0092 C046     		nop
 896 0094 03B0     		add	sp, sp, #12
 897              		@ sp needed
 898 0096 00BD     		pop	{pc}
 899              	.L47:
 900              		.align	2
 901              	.L46:
 902 0098 00000000 		.word	__func__.6602
 903              		.cfi_endproc
 904              	.LFE185:
 905              		.size	ibqPostFullBufferI, .-ibqPostFullBufferI
 906              		.section	.text.ibqGetFullBufferTimeout,"ax",%progbits
 907              		.align	1
 908              		.p2align 4,,15
 909              		.global	ibqGetFullBufferTimeout
 910              		.syntax unified
 911              		.code	16
 912              		.thumb_func
ARM GAS  /tmp/cctghmAI.s 			page 17


 913              		.fpu softvfp
 914              		.type	ibqGetFullBufferTimeout, %function
 915              	ibqGetFullBufferTimeout:
 916              	.LFB186:
 917              		.loc 10 189 0
 918              		.cfi_startproc
 919              		@ args = 0, pretend = 0, frame = 16
 920              		@ frame_needed = 0, uses_anonymous_args = 0
 921 0000 00B5     		push	{lr}
 922              		.cfi_def_cfa_offset 4
 923              		.cfi_offset 14, -4
 924 0002 85B0     		sub	sp, sp, #20
 925              		.cfi_def_cfa_offset 24
 926 0004 0190     		str	r0, [sp, #4]
 927 0006 0A00     		movs	r2, r1
 928 0008 6B46     		mov	r3, sp
 929 000a 0233     		adds	r3, r3, #2
 930 000c 1A80     		strh	r2, [r3]
 931              		.loc 10 192 0
 932 000e FFF7FEFF 		bl	osalSysLock
 933              		.loc 10 193 0
 934 0012 6B46     		mov	r3, sp
 935 0014 0233     		adds	r3, r3, #2
 936 0016 1A88     		ldrh	r2, [r3]
 937 0018 019B     		ldr	r3, [sp, #4]
 938 001a 1100     		movs	r1, r2
 939 001c 1800     		movs	r0, r3
 940 001e FFF7FEFF 		bl	ibqGetFullBufferTimeoutS
 941 0022 0300     		movs	r3, r0
 942 0024 0393     		str	r3, [sp, #12]
 943              		.loc 10 194 0
 944 0026 FFF7FEFF 		bl	osalSysUnlock
 945              		.loc 10 196 0
 946 002a 039B     		ldr	r3, [sp, #12]
 947              		.loc 10 197 0
 948 002c 1800     		movs	r0, r3
 949 002e 05B0     		add	sp, sp, #20
 950              		@ sp needed
 951 0030 00BD     		pop	{pc}
 952              		.cfi_endproc
 953              	.LFE186:
 954              		.size	ibqGetFullBufferTimeout, .-ibqGetFullBufferTimeout
 955 0032 C046     		.section	.text.ibqGetFullBufferTimeoutS,"ax",%progbits
 956              		.align	1
 957              		.p2align 4,,15
 958              		.global	ibqGetFullBufferTimeoutS
 959              		.syntax unified
 960              		.code	16
 961              		.thumb_func
 962              		.fpu softvfp
 963              		.type	ibqGetFullBufferTimeoutS, %function
 964              	ibqGetFullBufferTimeoutS:
 965              	.LFB187:
 966              		.loc 10 220 0
 967              		.cfi_startproc
 968              		@ args = 0, pretend = 0, frame = 16
 969              		@ frame_needed = 0, uses_anonymous_args = 0
ARM GAS  /tmp/cctghmAI.s 			page 18


 970 0000 00B5     		push	{lr}
 971              		.cfi_def_cfa_offset 4
 972              		.cfi_offset 14, -4
 973 0002 85B0     		sub	sp, sp, #20
 974              		.cfi_def_cfa_offset 24
 975 0004 0190     		str	r0, [sp, #4]
 976 0006 0A00     		movs	r2, r1
 977 0008 6B46     		mov	r3, sp
 978 000a 0233     		adds	r3, r3, #2
 979 000c 1A80     		strh	r2, [r3]
 980              		.loc 10 222 0
 981 000e FFF7FEFF 		bl	chDbgCheckClassS
 982              		.loc 10 224 0
 983 0012 0EE0     		b	.L51
 984              	.L53:
 985              	.LBB10:
 986              		.loc 10 225 0
 987 0014 019A     		ldr	r2, [sp, #4]
 988 0016 6B46     		mov	r3, sp
 989 0018 0233     		adds	r3, r3, #2
 990 001a 1B88     		ldrh	r3, [r3]
 991 001c 1900     		movs	r1, r3
 992 001e 1000     		movs	r0, r2
 993 0020 FFF7FEFF 		bl	osalThreadEnqueueTimeoutS
 994 0024 0300     		movs	r3, r0
 995 0026 0393     		str	r3, [sp, #12]
 996              		.loc 10 226 0
 997 0028 039B     		ldr	r3, [sp, #12]
 998 002a 002B     		cmp	r3, #0
 999 002c 01DA     		bge	.L51
 1000              		.loc 10 227 0
 1001 002e 039B     		ldr	r3, [sp, #12]
 1002 0030 19E0     		b	.L52
 1003              	.L51:
 1004              	.LBE10:
 1005              		.loc 10 224 0
 1006 0032 019B     		ldr	r3, [sp, #4]
 1007 0034 9B68     		ldr	r3, [r3, #8]
 1008 0036 002B     		cmp	r3, #0
 1009 0038 ECD0     		beq	.L53
 1010              		.loc 10 231 0 discriminator 1
 1011 003a 019B     		ldr	r3, [sp, #4]
 1012 003c 9B68     		ldr	r3, [r3, #8]
 1013 003e 002B     		cmp	r3, #0
 1014 0040 03D1     		bne	.L54
 1015              		.loc 10 231 0 is_stmt 0 discriminator 2
 1016 0042 0A4B     		ldr	r3, .L55
 1017 0044 1800     		movs	r0, r3
 1018 0046 FFF7FEFF 		bl	chSysHalt
 1019              	.L54:
 1020              		.loc 10 234 0 is_stmt 1
 1021 004a 019B     		ldr	r3, [sp, #4]
 1022 004c 1B69     		ldr	r3, [r3, #16]
 1023 004e 1A1D     		adds	r2, r3, #4
 1024 0050 019B     		ldr	r3, [sp, #4]
 1025 0052 5A62     		str	r2, [r3, #36]
 1026              		.loc 10 235 0
ARM GAS  /tmp/cctghmAI.s 			page 19


 1027 0054 019B     		ldr	r3, [sp, #4]
 1028 0056 5A6A     		ldr	r2, [r3, #36]
 1029 0058 019B     		ldr	r3, [sp, #4]
 1030 005a 1B69     		ldr	r3, [r3, #16]
 1031 005c 1B68     		ldr	r3, [r3]
 1032 005e D218     		adds	r2, r2, r3
 1033 0060 019B     		ldr	r3, [sp, #4]
 1034 0062 9A62     		str	r2, [r3, #40]
 1035              		.loc 10 237 0
 1036 0064 0023     		movs	r3, #0
 1037              	.L52:
 1038              		.loc 10 238 0
 1039 0066 1800     		movs	r0, r3
 1040 0068 05B0     		add	sp, sp, #20
 1041              		@ sp needed
 1042 006a 00BD     		pop	{pc}
 1043              	.L56:
 1044              		.align	2
 1045              	.L55:
 1046 006c 00000000 		.word	__func__.6616
 1047              		.cfi_endproc
 1048              	.LFE187:
 1049              		.size	ibqGetFullBufferTimeoutS, .-ibqGetFullBufferTimeoutS
 1050              		.section	.text.ibqReleaseEmptyBuffer,"ax",%progbits
 1051              		.align	1
 1052              		.p2align 4,,15
 1053              		.global	ibqReleaseEmptyBuffer
 1054              		.syntax unified
 1055              		.code	16
 1056              		.thumb_func
 1057              		.fpu softvfp
 1058              		.type	ibqReleaseEmptyBuffer, %function
 1059              	ibqReleaseEmptyBuffer:
 1060              	.LFB188:
 1061              		.loc 10 248 0
 1062              		.cfi_startproc
 1063              		@ args = 0, pretend = 0, frame = 8
 1064              		@ frame_needed = 0, uses_anonymous_args = 0
 1065 0000 00B5     		push	{lr}
 1066              		.cfi_def_cfa_offset 4
 1067              		.cfi_offset 14, -4
 1068 0002 83B0     		sub	sp, sp, #12
 1069              		.cfi_def_cfa_offset 16
 1070 0004 0190     		str	r0, [sp, #4]
 1071              		.loc 10 250 0
 1072 0006 FFF7FEFF 		bl	osalSysLock
 1073              		.loc 10 251 0
 1074 000a 019B     		ldr	r3, [sp, #4]
 1075 000c 1800     		movs	r0, r3
 1076 000e FFF7FEFF 		bl	ibqReleaseEmptyBufferS
 1077              		.loc 10 252 0
 1078 0012 FFF7FEFF 		bl	osalSysUnlock
 1079              		.loc 10 253 0
 1080 0016 C046     		nop
 1081 0018 03B0     		add	sp, sp, #12
 1082              		@ sp needed
 1083 001a 00BD     		pop	{pc}
ARM GAS  /tmp/cctghmAI.s 			page 20


 1084              		.cfi_endproc
 1085              	.LFE188:
 1086              		.size	ibqReleaseEmptyBuffer, .-ibqReleaseEmptyBuffer
 1087              		.section	.text.ibqReleaseEmptyBufferS,"ax",%progbits
 1088              		.align	1
 1089              		.p2align 4,,15
 1090              		.global	ibqReleaseEmptyBufferS
 1091              		.syntax unified
 1092              		.code	16
 1093              		.thumb_func
 1094              		.fpu softvfp
 1095              		.type	ibqReleaseEmptyBufferS, %function
 1096              	ibqReleaseEmptyBufferS:
 1097              	.LFB189:
 1098              		.loc 10 263 0
 1099              		.cfi_startproc
 1100              		@ args = 0, pretend = 0, frame = 8
 1101              		@ frame_needed = 0, uses_anonymous_args = 0
 1102 0000 00B5     		push	{lr}
 1103              		.cfi_def_cfa_offset 4
 1104              		.cfi_offset 14, -4
 1105 0002 83B0     		sub	sp, sp, #12
 1106              		.cfi_def_cfa_offset 16
 1107 0004 0190     		str	r0, [sp, #4]
 1108              		.loc 10 265 0
 1109 0006 FFF7FEFF 		bl	chDbgCheckClassS
 1110              		.loc 10 266 0
 1111 000a 019B     		ldr	r3, [sp, #4]
 1112 000c 9B68     		ldr	r3, [r3, #8]
 1113 000e 002B     		cmp	r3, #0
 1114 0010 03D1     		bne	.L59
 1115              		.loc 10 266 0 is_stmt 0 discriminator 2
 1116 0012 144B     		ldr	r3, .L63
 1117 0014 1800     		movs	r0, r3
 1118 0016 FFF7FEFF 		bl	chSysHalt
 1119              	.L59:
 1120              		.loc 10 269 0 is_stmt 1
 1121 001a 019B     		ldr	r3, [sp, #4]
 1122 001c 9B68     		ldr	r3, [r3, #8]
 1123 001e 5A1E     		subs	r2, r3, #1
 1124 0020 019B     		ldr	r3, [sp, #4]
 1125 0022 9A60     		str	r2, [r3, #8]
 1126              		.loc 10 270 0
 1127 0024 019B     		ldr	r3, [sp, #4]
 1128 0026 1A69     		ldr	r2, [r3, #16]
 1129 0028 019B     		ldr	r3, [sp, #4]
 1130 002a 9B69     		ldr	r3, [r3, #24]
 1131 002c D218     		adds	r2, r2, r3
 1132 002e 019B     		ldr	r3, [sp, #4]
 1133 0030 1A61     		str	r2, [r3, #16]
 1134              		.loc 10 271 0
 1135 0032 019B     		ldr	r3, [sp, #4]
 1136 0034 1A69     		ldr	r2, [r3, #16]
 1137 0036 019B     		ldr	r3, [sp, #4]
 1138 0038 5B69     		ldr	r3, [r3, #20]
 1139 003a 9A42     		cmp	r2, r3
 1140 003c 03D3     		bcc	.L60
ARM GAS  /tmp/cctghmAI.s 			page 21


 1141              		.loc 10 272 0
 1142 003e 019B     		ldr	r3, [sp, #4]
 1143 0040 1A6A     		ldr	r2, [r3, #32]
 1144 0042 019B     		ldr	r3, [sp, #4]
 1145 0044 1A61     		str	r2, [r3, #16]
 1146              	.L60:
 1147              		.loc 10 276 0
 1148 0046 019B     		ldr	r3, [sp, #4]
 1149 0048 0022     		movs	r2, #0
 1150 004a 5A62     		str	r2, [r3, #36]
 1151              		.loc 10 279 0
 1152 004c 019B     		ldr	r3, [sp, #4]
 1153 004e DB6A     		ldr	r3, [r3, #44]
 1154 0050 002B     		cmp	r3, #0
 1155 0052 04D0     		beq	.L62
 1156              		.loc 10 280 0
 1157 0054 019B     		ldr	r3, [sp, #4]
 1158 0056 DB6A     		ldr	r3, [r3, #44]
 1159 0058 019A     		ldr	r2, [sp, #4]
 1160 005a 1000     		movs	r0, r2
 1161 005c 9847     		blx	r3
 1162              	.LVL0:
 1163              	.L62:
 1164              		.loc 10 282 0
 1165 005e C046     		nop
 1166 0060 03B0     		add	sp, sp, #12
 1167              		@ sp needed
 1168 0062 00BD     		pop	{pc}
 1169              	.L64:
 1170              		.align	2
 1171              	.L63:
 1172 0064 00000000 		.word	__func__.6623
 1173              		.cfi_endproc
 1174              	.LFE189:
 1175              		.size	ibqReleaseEmptyBufferS, .-ibqReleaseEmptyBufferS
 1176              		.section	.text.ibqGetTimeout,"ax",%progbits
 1177              		.align	1
 1178              		.p2align 4,,15
 1179              		.global	ibqGetTimeout
 1180              		.syntax unified
 1181              		.code	16
 1182              		.thumb_func
 1183              		.fpu softvfp
 1184              		.type	ibqGetTimeout, %function
 1185              	ibqGetTimeout:
 1186              	.LFB190:
 1187              		.loc 10 302 0
 1188              		.cfi_startproc
 1189              		@ args = 0, pretend = 0, frame = 16
 1190              		@ frame_needed = 0, uses_anonymous_args = 0
 1191 0000 00B5     		push	{lr}
 1192              		.cfi_def_cfa_offset 4
 1193              		.cfi_offset 14, -4
 1194 0002 85B0     		sub	sp, sp, #20
 1195              		.cfi_def_cfa_offset 24
 1196 0004 0190     		str	r0, [sp, #4]
 1197 0006 0A00     		movs	r2, r1
ARM GAS  /tmp/cctghmAI.s 			page 22


 1198 0008 6B46     		mov	r3, sp
 1199 000a 0233     		adds	r3, r3, #2
 1200 000c 1A80     		strh	r2, [r3]
 1201              		.loc 10 305 0
 1202 000e FFF7FEFF 		bl	osalSysLock
 1203              		.loc 10 308 0
 1204 0012 019B     		ldr	r3, [sp, #4]
 1205 0014 5B6A     		ldr	r3, [r3, #36]
 1206 0016 002B     		cmp	r3, #0
 1207 0018 10D1     		bne	.L66
 1208              		.loc 10 309 0
 1209 001a 6B46     		mov	r3, sp
 1210 001c 0233     		adds	r3, r3, #2
 1211 001e 1A88     		ldrh	r2, [r3]
 1212 0020 019B     		ldr	r3, [sp, #4]
 1213 0022 1100     		movs	r1, r2
 1214 0024 1800     		movs	r0, r3
 1215 0026 FFF7FEFF 		bl	ibqGetFullBufferTimeoutS
 1216 002a 0300     		movs	r3, r0
 1217 002c 0393     		str	r3, [sp, #12]
 1218              		.loc 10 310 0
 1219 002e 039B     		ldr	r3, [sp, #12]
 1220 0030 002B     		cmp	r3, #0
 1221 0032 03D0     		beq	.L66
 1222              		.loc 10 311 0
 1223 0034 FFF7FEFF 		bl	osalSysUnlock
 1224              		.loc 10 312 0
 1225 0038 039B     		ldr	r3, [sp, #12]
 1226 003a 15E0     		b	.L67
 1227              	.L66:
 1228              		.loc 10 317 0
 1229 003c 019B     		ldr	r3, [sp, #4]
 1230 003e 5B6A     		ldr	r3, [r3, #36]
 1231 0040 1B78     		ldrb	r3, [r3]
 1232 0042 0393     		str	r3, [sp, #12]
 1233              		.loc 10 318 0
 1234 0044 019B     		ldr	r3, [sp, #4]
 1235 0046 5B6A     		ldr	r3, [r3, #36]
 1236 0048 5A1C     		adds	r2, r3, #1
 1237 004a 019B     		ldr	r3, [sp, #4]
 1238 004c 5A62     		str	r2, [r3, #36]
 1239              		.loc 10 322 0
 1240 004e 019B     		ldr	r3, [sp, #4]
 1241 0050 5A6A     		ldr	r2, [r3, #36]
 1242 0052 019B     		ldr	r3, [sp, #4]
 1243 0054 9B6A     		ldr	r3, [r3, #40]
 1244 0056 9A42     		cmp	r2, r3
 1245 0058 03D3     		bcc	.L68
 1246              		.loc 10 323 0
 1247 005a 019B     		ldr	r3, [sp, #4]
 1248 005c 1800     		movs	r0, r3
 1249 005e FFF7FEFF 		bl	ibqReleaseEmptyBufferS
 1250              	.L68:
 1251              		.loc 10 326 0
 1252 0062 FFF7FEFF 		bl	osalSysUnlock
 1253              		.loc 10 327 0
 1254 0066 039B     		ldr	r3, [sp, #12]
ARM GAS  /tmp/cctghmAI.s 			page 23


 1255              	.L67:
 1256              		.loc 10 328 0
 1257 0068 1800     		movs	r0, r3
 1258 006a 05B0     		add	sp, sp, #20
 1259              		@ sp needed
 1260 006c 00BD     		pop	{pc}
 1261              		.cfi_endproc
 1262              	.LFE190:
 1263              		.size	ibqGetTimeout, .-ibqGetTimeout
 1264 006e C046     		.section	.text.ibqReadTimeout,"ax",%progbits
 1265              		.align	1
 1266              		.p2align 4,,15
 1267              		.global	ibqReadTimeout
 1268              		.syntax unified
 1269              		.code	16
 1270              		.thumb_func
 1271              		.fpu softvfp
 1272              		.type	ibqReadTimeout, %function
 1273              	ibqReadTimeout:
 1274              	.LFB191:
 1275              		.loc 10 352 0
 1276              		.cfi_startproc
 1277              		@ args = 0, pretend = 0, frame = 32
 1278              		@ frame_needed = 0, uses_anonymous_args = 0
 1279 0000 00B5     		push	{lr}
 1280              		.cfi_def_cfa_offset 4
 1281              		.cfi_offset 14, -4
 1282 0002 89B0     		sub	sp, sp, #36
 1283              		.cfi_def_cfa_offset 40
 1284 0004 0390     		str	r0, [sp, #12]
 1285 0006 0291     		str	r1, [sp, #8]
 1286 0008 0192     		str	r2, [sp, #4]
 1287 000a 1A00     		movs	r2, r3
 1288 000c 6B46     		mov	r3, sp
 1289 000e 0233     		adds	r3, r3, #2
 1290 0010 1A80     		strh	r2, [r3]
 1291              		.loc 10 353 0
 1292 0012 0023     		movs	r3, #0
 1293 0014 0793     		str	r3, [sp, #28]
 1294              		.loc 10 356 0
 1295 0016 FFF7FEFF 		bl	osalSysLock
 1296              		.loc 10 359 0
 1297 001a FFF7FEFF 		bl	osalOsGetSystemTimeX
 1298 001e 0300     		movs	r3, r0
 1299 0020 1900     		movs	r1, r3
 1300 0022 1223     		movs	r3, #18
 1301 0024 6B44     		add	r3, r3, sp
 1302 0026 6A46     		mov	r2, sp
 1303 0028 0232     		adds	r2, r2, #2
 1304 002a 1288     		ldrh	r2, [r2]
 1305 002c 8A18     		adds	r2, r1, r2
 1306 002e 1A80     		strh	r2, [r3]
 1307              	.L81:
 1308              	.LBB11:
 1309              		.loc 10 365 0
 1310 0030 039B     		ldr	r3, [sp, #12]
 1311 0032 5B6A     		ldr	r3, [r3, #36]
ARM GAS  /tmp/cctghmAI.s 			page 24


 1312 0034 002B     		cmp	r3, #0
 1313 0036 3AD1     		bne	.L70
 1314              	.LBB12:
 1315              		.loc 10 370 0
 1316 0038 6B46     		mov	r3, sp
 1317 003a 0233     		adds	r3, r3, #2
 1318 003c 1B88     		ldrh	r3, [r3]
 1319 003e 464A     		ldr	r2, .L82
 1320 0040 9342     		cmp	r3, r2
 1321 0042 04D0     		beq	.L71
 1322              		.loc 10 370 0 is_stmt 0 discriminator 1
 1323 0044 6B46     		mov	r3, sp
 1324 0046 0233     		adds	r3, r3, #2
 1325 0048 1B88     		ldrh	r3, [r3]
 1326 004a 002B     		cmp	r3, #0
 1327 004c 0AD1     		bne	.L72
 1328              	.L71:
 1329              		.loc 10 371 0 is_stmt 1
 1330 004e 6B46     		mov	r3, sp
 1331 0050 0233     		adds	r3, r3, #2
 1332 0052 1A88     		ldrh	r2, [r3]
 1333 0054 039B     		ldr	r3, [sp, #12]
 1334 0056 1100     		movs	r1, r2
 1335 0058 1800     		movs	r0, r3
 1336 005a FFF7FEFF 		bl	ibqGetFullBufferTimeoutS
 1337 005e 0300     		movs	r3, r0
 1338 0060 0593     		str	r3, [sp, #20]
 1339 0062 1DE0     		b	.L73
 1340              	.L72:
 1341              	.LBB13:
 1342              		.loc 10 374 0
 1343 0064 FFF7FEFF 		bl	osalOsGetSystemTimeX
 1344 0068 0300     		movs	r3, r0
 1345 006a 1900     		movs	r1, r3
 1346 006c 04AB     		add	r3, sp, #16
 1347 006e 1222     		movs	r2, #18
 1348 0070 6A44     		add	r2, r2, sp
 1349 0072 1288     		ldrh	r2, [r2]
 1350 0074 521A     		subs	r2, r2, r1
 1351 0076 1A80     		strh	r2, [r3]
 1352              		.loc 10 379 0
 1353 0078 04AA     		add	r2, sp, #16
 1354 007a 6B46     		mov	r3, sp
 1355 007c 0233     		adds	r3, r3, #2
 1356 007e 1288     		ldrh	r2, [r2]
 1357 0080 1B88     		ldrh	r3, [r3]
 1358 0082 9A42     		cmp	r2, r3
 1359 0084 03D9     		bls	.L74
 1360              		.loc 10 380 0
 1361 0086 FFF7FEFF 		bl	osalSysUnlock
 1362              		.loc 10 381 0
 1363 008a 079B     		ldr	r3, [sp, #28]
 1364 008c 61E0     		b	.L75
 1365              	.L74:
 1366              		.loc 10 383 0
 1367 008e 04AB     		add	r3, sp, #16
 1368 0090 1A88     		ldrh	r2, [r3]
ARM GAS  /tmp/cctghmAI.s 			page 25


 1369 0092 039B     		ldr	r3, [sp, #12]
 1370 0094 1100     		movs	r1, r2
 1371 0096 1800     		movs	r0, r3
 1372 0098 FFF7FEFF 		bl	ibqGetFullBufferTimeoutS
 1373 009c 0300     		movs	r3, r0
 1374 009e 0593     		str	r3, [sp, #20]
 1375              	.L73:
 1376              	.LBE13:
 1377              		.loc 10 387 0
 1378 00a0 059B     		ldr	r3, [sp, #20]
 1379 00a2 002B     		cmp	r3, #0
 1380 00a4 03D0     		beq	.L70
 1381              		.loc 10 388 0
 1382 00a6 FFF7FEFF 		bl	osalSysUnlock
 1383              		.loc 10 389 0
 1384 00aa 079B     		ldr	r3, [sp, #28]
 1385 00ac 51E0     		b	.L75
 1386              	.L70:
 1387              	.LBE12:
 1388              		.loc 10 394 0
 1389 00ae 039B     		ldr	r3, [sp, #12]
 1390 00b0 9B6A     		ldr	r3, [r3, #40]
 1391 00b2 1A00     		movs	r2, r3
 1392 00b4 039B     		ldr	r3, [sp, #12]
 1393 00b6 5B6A     		ldr	r3, [r3, #36]
 1394 00b8 D31A     		subs	r3, r2, r3
 1395 00ba 0693     		str	r3, [sp, #24]
 1396              		.loc 10 395 0
 1397 00bc 019A     		ldr	r2, [sp, #4]
 1398 00be 079B     		ldr	r3, [sp, #28]
 1399 00c0 D21A     		subs	r2, r2, r3
 1400 00c2 069B     		ldr	r3, [sp, #24]
 1401 00c4 9A42     		cmp	r2, r3
 1402 00c6 03D2     		bcs	.L76
 1403              		.loc 10 396 0
 1404 00c8 019A     		ldr	r2, [sp, #4]
 1405 00ca 079B     		ldr	r3, [sp, #28]
 1406 00cc D31A     		subs	r3, r2, r3
 1407 00ce 0693     		str	r3, [sp, #24]
 1408              	.L76:
 1409              		.loc 10 401 0
 1410 00d0 069B     		ldr	r3, [sp, #24]
 1411 00d2 402B     		cmp	r3, #64
 1412 00d4 13D9     		bls	.L77
 1413              		.loc 10 403 0
 1414 00d6 039B     		ldr	r3, [sp, #12]
 1415 00d8 596A     		ldr	r1, [r3, #36]
 1416 00da 029B     		ldr	r3, [sp, #8]
 1417 00dc 4022     		movs	r2, #64
 1418 00de 1800     		movs	r0, r3
 1419 00e0 FFF7FEFF 		bl	memcpy
 1420              		.loc 10 404 0
 1421 00e4 029B     		ldr	r3, [sp, #8]
 1422 00e6 4033     		adds	r3, r3, #64
 1423 00e8 0293     		str	r3, [sp, #8]
 1424              		.loc 10 405 0
 1425 00ea 039B     		ldr	r3, [sp, #12]
ARM GAS  /tmp/cctghmAI.s 			page 26


 1426 00ec 5B6A     		ldr	r3, [r3, #36]
 1427 00ee 4033     		adds	r3, r3, #64
 1428 00f0 1A00     		movs	r2, r3
 1429 00f2 039B     		ldr	r3, [sp, #12]
 1430 00f4 5A62     		str	r2, [r3, #36]
 1431              		.loc 10 406 0
 1432 00f6 079B     		ldr	r3, [sp, #28]
 1433 00f8 4033     		adds	r3, r3, #64
 1434 00fa 0793     		str	r3, [sp, #28]
 1435 00fc 14E0     		b	.L78
 1436              	.L77:
 1437              		.loc 10 409 0
 1438 00fe 039B     		ldr	r3, [sp, #12]
 1439 0100 596A     		ldr	r1, [r3, #36]
 1440 0102 069A     		ldr	r2, [sp, #24]
 1441 0104 029B     		ldr	r3, [sp, #8]
 1442 0106 1800     		movs	r0, r3
 1443 0108 FFF7FEFF 		bl	memcpy
 1444              		.loc 10 410 0
 1445 010c 029A     		ldr	r2, [sp, #8]
 1446 010e 069B     		ldr	r3, [sp, #24]
 1447 0110 D318     		adds	r3, r2, r3
 1448 0112 0293     		str	r3, [sp, #8]
 1449              		.loc 10 411 0
 1450 0114 039B     		ldr	r3, [sp, #12]
 1451 0116 5A6A     		ldr	r2, [r3, #36]
 1452 0118 069B     		ldr	r3, [sp, #24]
 1453 011a D218     		adds	r2, r2, r3
 1454 011c 039B     		ldr	r3, [sp, #12]
 1455 011e 5A62     		str	r2, [r3, #36]
 1456              		.loc 10 412 0
 1457 0120 079A     		ldr	r2, [sp, #28]
 1458 0122 069B     		ldr	r3, [sp, #24]
 1459 0124 D318     		adds	r3, r2, r3
 1460 0126 0793     		str	r3, [sp, #28]
 1461              	.L78:
 1462              		.loc 10 416 0
 1463 0128 039B     		ldr	r3, [sp, #12]
 1464 012a 5A6A     		ldr	r2, [r3, #36]
 1465 012c 039B     		ldr	r3, [sp, #12]
 1466 012e 9B6A     		ldr	r3, [r3, #40]
 1467 0130 9A42     		cmp	r2, r3
 1468 0132 03D3     		bcc	.L79
 1469              		.loc 10 417 0
 1470 0134 039B     		ldr	r3, [sp, #12]
 1471 0136 1800     		movs	r0, r3
 1472 0138 FFF7FEFF 		bl	ibqReleaseEmptyBufferS
 1473              	.L79:
 1474              		.loc 10 421 0
 1475 013c FFF7FEFF 		bl	osalSysUnlock
 1476              		.loc 10 422 0
 1477 0140 079A     		ldr	r2, [sp, #28]
 1478 0142 019B     		ldr	r3, [sp, #4]
 1479 0144 9A42     		cmp	r2, r3
 1480 0146 01D3     		bcc	.L80
 1481              		.loc 10 423 0
 1482 0148 079B     		ldr	r3, [sp, #28]
ARM GAS  /tmp/cctghmAI.s 			page 27


 1483 014a 02E0     		b	.L75
 1484              	.L80:
 1485              		.loc 10 425 0
 1486 014c FFF7FEFF 		bl	osalSysLock
 1487              	.LBE11:
 1488              		.loc 10 361 0
 1489 0150 6EE7     		b	.L81
 1490              	.L75:
 1491              		.loc 10 427 0
 1492 0152 1800     		movs	r0, r3
 1493 0154 09B0     		add	sp, sp, #36
 1494              		@ sp needed
 1495 0156 00BD     		pop	{pc}
 1496              	.L83:
 1497              		.align	2
 1498              	.L82:
 1499 0158 FFFF0000 		.word	65535
 1500              		.cfi_endproc
 1501              	.LFE191:
 1502              		.size	ibqReadTimeout, .-ibqReadTimeout
 1503              		.section	.text.obqObjectInit,"ax",%progbits
 1504              		.align	1
 1505              		.p2align 4,,15
 1506              		.global	obqObjectInit
 1507              		.syntax unified
 1508              		.code	16
 1509              		.thumb_func
 1510              		.fpu softvfp
 1511              		.type	obqObjectInit, %function
 1512              	obqObjectInit:
 1513              	.LFB192:
 1514              		.loc 10 443 0
 1515              		.cfi_startproc
 1516              		@ args = 8, pretend = 0, frame = 16
 1517              		@ frame_needed = 0, uses_anonymous_args = 0
 1518 0000 00B5     		push	{lr}
 1519              		.cfi_def_cfa_offset 4
 1520              		.cfi_offset 14, -4
 1521 0002 85B0     		sub	sp, sp, #20
 1522              		.cfi_def_cfa_offset 24
 1523 0004 0390     		str	r0, [sp, #12]
 1524 0006 0291     		str	r1, [sp, #8]
 1525 0008 0192     		str	r2, [sp, #4]
 1526 000a 0093     		str	r3, [sp]
 1527              		.loc 10 445 0
 1528 000c 039B     		ldr	r3, [sp, #12]
 1529 000e 002B     		cmp	r3, #0
 1530 0010 05D0     		beq	.L85
 1531              		.loc 10 445 0 is_stmt 0 discriminator 3
 1532 0012 029B     		ldr	r3, [sp, #8]
 1533 0014 002B     		cmp	r3, #0
 1534 0016 02D0     		beq	.L85
 1535              		.loc 10 445 0 discriminator 5
 1536 0018 019B     		ldr	r3, [sp, #4]
 1537 001a 012B     		cmp	r3, #1
 1538 001c 03D8     		bhi	.L86
 1539              	.L85:
ARM GAS  /tmp/cctghmAI.s 			page 28


 1540              		.loc 10 445 0 discriminator 6
 1541 001e 194B     		ldr	r3, .L87
 1542 0020 1800     		movs	r0, r3
 1543 0022 FFF7FEFF 		bl	chSysHalt
 1544              	.L86:
 1545              		.loc 10 447 0 is_stmt 1
 1546 0026 039B     		ldr	r3, [sp, #12]
 1547 0028 1800     		movs	r0, r3
 1548 002a FFF7FEFF 		bl	osalThreadQueueObjectInit
 1549              		.loc 10 448 0
 1550 002e 039B     		ldr	r3, [sp, #12]
 1551 0030 009A     		ldr	r2, [sp]
 1552 0032 9A60     		str	r2, [r3, #8]
 1553              		.loc 10 449 0
 1554 0034 039B     		ldr	r3, [sp, #12]
 1555 0036 029A     		ldr	r2, [sp, #8]
 1556 0038 1A61     		str	r2, [r3, #16]
 1557              		.loc 10 450 0
 1558 003a 039B     		ldr	r3, [sp, #12]
 1559 003c 029A     		ldr	r2, [sp, #8]
 1560 003e DA60     		str	r2, [r3, #12]
 1561              		.loc 10 451 0
 1562 0040 019B     		ldr	r3, [sp, #4]
 1563 0042 0433     		adds	r3, r3, #4
 1564 0044 009A     		ldr	r2, [sp]
 1565 0046 5343     		muls	r3, r2
 1566 0048 029A     		ldr	r2, [sp, #8]
 1567 004a D218     		adds	r2, r2, r3
 1568 004c 039B     		ldr	r3, [sp, #12]
 1569 004e 5A61     		str	r2, [r3, #20]
 1570              		.loc 10 452 0
 1571 0050 019B     		ldr	r3, [sp, #4]
 1572 0052 1A1D     		adds	r2, r3, #4
 1573 0054 039B     		ldr	r3, [sp, #12]
 1574 0056 9A61     		str	r2, [r3, #24]
 1575              		.loc 10 453 0
 1576 0058 039B     		ldr	r3, [sp, #12]
 1577 005a 009A     		ldr	r2, [sp]
 1578 005c DA61     		str	r2, [r3, #28]
 1579              		.loc 10 454 0
 1580 005e 039B     		ldr	r3, [sp, #12]
 1581 0060 029A     		ldr	r2, [sp, #8]
 1582 0062 1A62     		str	r2, [r3, #32]
 1583              		.loc 10 455 0
 1584 0064 039B     		ldr	r3, [sp, #12]
 1585 0066 0022     		movs	r2, #0
 1586 0068 5A62     		str	r2, [r3, #36]
 1587              		.loc 10 456 0
 1588 006a 039B     		ldr	r3, [sp, #12]
 1589 006c 0022     		movs	r2, #0
 1590 006e 9A62     		str	r2, [r3, #40]
 1591              		.loc 10 457 0
 1592 0070 039B     		ldr	r3, [sp, #12]
 1593 0072 069A     		ldr	r2, [sp, #24]
 1594 0074 DA62     		str	r2, [r3, #44]
 1595              		.loc 10 458 0
 1596 0076 039B     		ldr	r3, [sp, #12]
ARM GAS  /tmp/cctghmAI.s 			page 29


 1597 0078 079A     		ldr	r2, [sp, #28]
 1598 007a 1A63     		str	r2, [r3, #48]
 1599              		.loc 10 459 0
 1600 007c C046     		nop
 1601 007e 05B0     		add	sp, sp, #20
 1602              		@ sp needed
 1603 0080 00BD     		pop	{pc}
 1604              	.L88:
 1605 0082 C046     		.align	2
 1606              	.L87:
 1607 0084 00000000 		.word	__func__.6649
 1608              		.cfi_endproc
 1609              	.LFE192:
 1610              		.size	obqObjectInit, .-obqObjectInit
 1611              		.section	.text.obqResetI,"ax",%progbits
 1612              		.align	1
 1613              		.p2align 4,,15
 1614              		.global	obqResetI
 1615              		.syntax unified
 1616              		.code	16
 1617              		.thumb_func
 1618              		.fpu softvfp
 1619              		.type	obqResetI, %function
 1620              	obqResetI:
 1621              	.LFB193:
 1622              		.loc 10 472 0
 1623              		.cfi_startproc
 1624              		@ args = 0, pretend = 0, frame = 8
 1625              		@ frame_needed = 0, uses_anonymous_args = 0
 1626 0000 00B5     		push	{lr}
 1627              		.cfi_def_cfa_offset 4
 1628              		.cfi_offset 14, -4
 1629 0002 83B0     		sub	sp, sp, #12
 1630              		.cfi_def_cfa_offset 16
 1631 0004 0190     		str	r0, [sp, #4]
 1632              		.loc 10 474 0
 1633 0006 FFF7FEFF 		bl	chDbgCheckClassI
 1634              		.loc 10 476 0
 1635 000a 019B     		ldr	r3, [sp, #4]
 1636 000c DA69     		ldr	r2, [r3, #28]
 1637 000e 019B     		ldr	r3, [sp, #4]
 1638 0010 9A60     		str	r2, [r3, #8]
 1639              		.loc 10 477 0
 1640 0012 019B     		ldr	r3, [sp, #4]
 1641 0014 1A6A     		ldr	r2, [r3, #32]
 1642 0016 019B     		ldr	r3, [sp, #4]
 1643 0018 1A61     		str	r2, [r3, #16]
 1644              		.loc 10 478 0
 1645 001a 019B     		ldr	r3, [sp, #4]
 1646 001c 1A6A     		ldr	r2, [r3, #32]
 1647 001e 019B     		ldr	r3, [sp, #4]
 1648 0020 DA60     		str	r2, [r3, #12]
 1649              		.loc 10 479 0
 1650 0022 019B     		ldr	r3, [sp, #4]
 1651 0024 0022     		movs	r2, #0
 1652 0026 5A62     		str	r2, [r3, #36]
 1653              		.loc 10 480 0
ARM GAS  /tmp/cctghmAI.s 			page 30


 1654 0028 019B     		ldr	r3, [sp, #4]
 1655 002a 0022     		movs	r2, #0
 1656 002c 9A62     		str	r2, [r3, #40]
 1657              		.loc 10 481 0
 1658 002e 019A     		ldr	r2, [sp, #4]
 1659 0030 0223     		movs	r3, #2
 1660 0032 5B42     		rsbs	r3, r3, #0
 1661 0034 1900     		movs	r1, r3
 1662 0036 1000     		movs	r0, r2
 1663 0038 FFF7FEFF 		bl	osalThreadDequeueAllI
 1664              		.loc 10 482 0
 1665 003c C046     		nop
 1666 003e 03B0     		add	sp, sp, #12
 1667              		@ sp needed
 1668 0040 00BD     		pop	{pc}
 1669              		.cfi_endproc
 1670              	.LFE193:
 1671              		.size	obqResetI, .-obqResetI
 1672 0042 C046     		.section	.text.obqGetFullBufferI,"ax",%progbits
 1673              		.align	1
 1674              		.p2align 4,,15
 1675              		.global	obqGetFullBufferI
 1676              		.syntax unified
 1677              		.code	16
 1678              		.thumb_func
 1679              		.fpu softvfp
 1680              		.type	obqGetFullBufferI, %function
 1681              	obqGetFullBufferI:
 1682              	.LFB194:
 1683              		.loc 10 496 0
 1684              		.cfi_startproc
 1685              		@ args = 0, pretend = 0, frame = 8
 1686              		@ frame_needed = 0, uses_anonymous_args = 0
 1687 0000 00B5     		push	{lr}
 1688              		.cfi_def_cfa_offset 4
 1689              		.cfi_offset 14, -4
 1690 0002 83B0     		sub	sp, sp, #12
 1691              		.cfi_def_cfa_offset 16
 1692 0004 0190     		str	r0, [sp, #4]
 1693 0006 0091     		str	r1, [sp]
 1694              		.loc 10 498 0
 1695 0008 FFF7FEFF 		bl	chDbgCheckClassI
 1696              		.loc 10 500 0
 1697 000c 019B     		ldr	r3, [sp, #4]
 1698 000e DA68     		ldr	r2, [r3, #12]
 1699 0010 019B     		ldr	r3, [sp, #4]
 1700 0012 1B69     		ldr	r3, [r3, #16]
 1701 0014 9A42     		cmp	r2, r3
 1702 0016 05D1     		bne	.L91
 1703              		.loc 10 500 0 is_stmt 0 discriminator 1
 1704 0018 019B     		ldr	r3, [sp, #4]
 1705 001a 9B68     		ldr	r3, [r3, #8]
 1706 001c 002B     		cmp	r3, #0
 1707 001e 01D0     		beq	.L91
 1708              		.loc 10 500 0 discriminator 3
 1709 0020 0123     		movs	r3, #1
 1710 0022 00E0     		b	.L92
ARM GAS  /tmp/cctghmAI.s 			page 31


 1711              	.L91:
 1712              		.loc 10 500 0 discriminator 4
 1713 0024 0023     		movs	r3, #0
 1714              	.L92:
 1715              		.loc 10 500 0 discriminator 6
 1716 0026 1A1C     		adds	r2, r3, #0
 1717 0028 0123     		movs	r3, #1
 1718 002a 1340     		ands	r3, r2
 1719 002c DBB2     		uxtb	r3, r3
 1720 002e 002B     		cmp	r3, #0
 1721 0030 01D0     		beq	.L93
 1722              		.loc 10 501 0 is_stmt 1
 1723 0032 0023     		movs	r3, #0
 1724 0034 07E0     		b	.L94
 1725              	.L93:
 1726              		.loc 10 505 0
 1727 0036 019B     		ldr	r3, [sp, #4]
 1728 0038 1B69     		ldr	r3, [r3, #16]
 1729 003a 1A68     		ldr	r2, [r3]
 1730 003c 009B     		ldr	r3, [sp]
 1731 003e 1A60     		str	r2, [r3]
 1732              		.loc 10 507 0
 1733 0040 019B     		ldr	r3, [sp, #4]
 1734 0042 1B69     		ldr	r3, [r3, #16]
 1735 0044 0433     		adds	r3, r3, #4
 1736              	.L94:
 1737              		.loc 10 508 0
 1738 0046 1800     		movs	r0, r3
 1739 0048 03B0     		add	sp, sp, #12
 1740              		@ sp needed
 1741 004a 00BD     		pop	{pc}
 1742              		.cfi_endproc
 1743              	.LFE194:
 1744              		.size	obqGetFullBufferI, .-obqGetFullBufferI
 1745              		.section	.text.obqReleaseEmptyBufferI,"ax",%progbits
 1746              		.align	1
 1747              		.p2align 4,,15
 1748              		.global	obqReleaseEmptyBufferI
 1749              		.syntax unified
 1750              		.code	16
 1751              		.thumb_func
 1752              		.fpu softvfp
 1753              		.type	obqReleaseEmptyBufferI, %function
 1754              	obqReleaseEmptyBufferI:
 1755              	.LFB195:
 1756              		.loc 10 517 0
 1757              		.cfi_startproc
 1758              		@ args = 0, pretend = 0, frame = 8
 1759              		@ frame_needed = 0, uses_anonymous_args = 0
 1760 0000 00B5     		push	{lr}
 1761              		.cfi_def_cfa_offset 4
 1762              		.cfi_offset 14, -4
 1763 0002 83B0     		sub	sp, sp, #12
 1764              		.cfi_def_cfa_offset 16
 1765 0004 0190     		str	r0, [sp, #4]
 1766              		.loc 10 519 0
 1767 0006 FFF7FEFF 		bl	chDbgCheckClassI
ARM GAS  /tmp/cctghmAI.s 			page 32


 1768              		.loc 10 520 0
 1769 000a 019B     		ldr	r3, [sp, #4]
 1770 000c DA68     		ldr	r2, [r3, #12]
 1771 000e 019B     		ldr	r3, [sp, #4]
 1772 0010 1B69     		ldr	r3, [r3, #16]
 1773 0012 9A42     		cmp	r2, r3
 1774 0014 05D1     		bne	.L96
 1775              		.loc 10 520 0 is_stmt 0 discriminator 2
 1776 0016 019B     		ldr	r3, [sp, #4]
 1777 0018 9B68     		ldr	r3, [r3, #8]
 1778 001a 002B     		cmp	r3, #0
 1779 001c 01D0     		beq	.L96
 1780              		.loc 10 520 0 discriminator 4
 1781 001e 0123     		movs	r3, #1
 1782 0020 00E0     		b	.L97
 1783              	.L96:
 1784              		.loc 10 520 0 discriminator 5
 1785 0022 0023     		movs	r3, #0
 1786              	.L97:
 1787              		.loc 10 520 0 discriminator 7
 1788 0024 1A1C     		adds	r2, r3, #0
 1789 0026 0123     		movs	r3, #1
 1790 0028 1340     		ands	r3, r2
 1791 002a DBB2     		uxtb	r3, r3
 1792 002c 002B     		cmp	r3, #0
 1793 002e 03D0     		beq	.L98
 1794              		.loc 10 520 0 discriminator 8
 1795 0030 104B     		ldr	r3, .L100
 1796 0032 1800     		movs	r0, r3
 1797 0034 FFF7FEFF 		bl	chSysHalt
 1798              	.L98:
 1799              		.loc 10 523 0 is_stmt 1
 1800 0038 019B     		ldr	r3, [sp, #4]
 1801 003a 9B68     		ldr	r3, [r3, #8]
 1802 003c 5A1C     		adds	r2, r3, #1
 1803 003e 019B     		ldr	r3, [sp, #4]
 1804 0040 9A60     		str	r2, [r3, #8]
 1805              		.loc 10 524 0
 1806 0042 019B     		ldr	r3, [sp, #4]
 1807 0044 1A69     		ldr	r2, [r3, #16]
 1808 0046 019B     		ldr	r3, [sp, #4]
 1809 0048 9B69     		ldr	r3, [r3, #24]
 1810 004a D218     		adds	r2, r2, r3
 1811 004c 019B     		ldr	r3, [sp, #4]
 1812 004e 1A61     		str	r2, [r3, #16]
 1813              		.loc 10 525 0
 1814 0050 019B     		ldr	r3, [sp, #4]
 1815 0052 1A69     		ldr	r2, [r3, #16]
 1816 0054 019B     		ldr	r3, [sp, #4]
 1817 0056 5B69     		ldr	r3, [r3, #20]
 1818 0058 9A42     		cmp	r2, r3
 1819 005a 03D3     		bcc	.L99
 1820              		.loc 10 526 0
 1821 005c 019B     		ldr	r3, [sp, #4]
 1822 005e 1A6A     		ldr	r2, [r3, #32]
 1823 0060 019B     		ldr	r3, [sp, #4]
 1824 0062 1A61     		str	r2, [r3, #16]
ARM GAS  /tmp/cctghmAI.s 			page 33


 1825              	.L99:
 1826              		.loc 10 530 0
 1827 0064 019B     		ldr	r3, [sp, #4]
 1828 0066 0021     		movs	r1, #0
 1829 0068 1800     		movs	r0, r3
 1830 006a FFF7FEFF 		bl	osalThreadDequeueNextI
 1831              		.loc 10 531 0
 1832 006e C046     		nop
 1833 0070 03B0     		add	sp, sp, #12
 1834              		@ sp needed
 1835 0072 00BD     		pop	{pc}
 1836              	.L101:
 1837              		.align	2
 1838              	.L100:
 1839 0074 00000000 		.word	__func__.6660
 1840              		.cfi_endproc
 1841              	.LFE195:
 1842              		.size	obqReleaseEmptyBufferI, .-obqReleaseEmptyBufferI
 1843              		.section	.text.obqGetEmptyBufferTimeout,"ax",%progbits
 1844              		.align	1
 1845              		.p2align 4,,15
 1846              		.global	obqGetEmptyBufferTimeout
 1847              		.syntax unified
 1848              		.code	16
 1849              		.thumb_func
 1850              		.fpu softvfp
 1851              		.type	obqGetEmptyBufferTimeout, %function
 1852              	obqGetEmptyBufferTimeout:
 1853              	.LFB196:
 1854              		.loc 10 554 0
 1855              		.cfi_startproc
 1856              		@ args = 0, pretend = 0, frame = 16
 1857              		@ frame_needed = 0, uses_anonymous_args = 0
 1858 0000 00B5     		push	{lr}
 1859              		.cfi_def_cfa_offset 4
 1860              		.cfi_offset 14, -4
 1861 0002 85B0     		sub	sp, sp, #20
 1862              		.cfi_def_cfa_offset 24
 1863 0004 0190     		str	r0, [sp, #4]
 1864 0006 0A00     		movs	r2, r1
 1865 0008 6B46     		mov	r3, sp
 1866 000a 0233     		adds	r3, r3, #2
 1867 000c 1A80     		strh	r2, [r3]
 1868              		.loc 10 557 0
 1869 000e FFF7FEFF 		bl	osalSysLock
 1870              		.loc 10 558 0
 1871 0012 6B46     		mov	r3, sp
 1872 0014 0233     		adds	r3, r3, #2
 1873 0016 1A88     		ldrh	r2, [r3]
 1874 0018 019B     		ldr	r3, [sp, #4]
 1875 001a 1100     		movs	r1, r2
 1876 001c 1800     		movs	r0, r3
 1877 001e FFF7FEFF 		bl	obqGetEmptyBufferTimeoutS
 1878 0022 0300     		movs	r3, r0
 1879 0024 0393     		str	r3, [sp, #12]
 1880              		.loc 10 559 0
 1881 0026 FFF7FEFF 		bl	osalSysUnlock
ARM GAS  /tmp/cctghmAI.s 			page 34


 1882              		.loc 10 561 0
 1883 002a 039B     		ldr	r3, [sp, #12]
 1884              		.loc 10 562 0
 1885 002c 1800     		movs	r0, r3
 1886 002e 05B0     		add	sp, sp, #20
 1887              		@ sp needed
 1888 0030 00BD     		pop	{pc}
 1889              		.cfi_endproc
 1890              	.LFE196:
 1891              		.size	obqGetEmptyBufferTimeout, .-obqGetEmptyBufferTimeout
 1892 0032 C046     		.section	.text.obqGetEmptyBufferTimeoutS,"ax",%progbits
 1893              		.align	1
 1894              		.p2align 4,,15
 1895              		.global	obqGetEmptyBufferTimeoutS
 1896              		.syntax unified
 1897              		.code	16
 1898              		.thumb_func
 1899              		.fpu softvfp
 1900              		.type	obqGetEmptyBufferTimeoutS, %function
 1901              	obqGetEmptyBufferTimeoutS:
 1902              	.LFB197:
 1903              		.loc 10 585 0
 1904              		.cfi_startproc
 1905              		@ args = 0, pretend = 0, frame = 16
 1906              		@ frame_needed = 0, uses_anonymous_args = 0
 1907 0000 00B5     		push	{lr}
 1908              		.cfi_def_cfa_offset 4
 1909              		.cfi_offset 14, -4
 1910 0002 85B0     		sub	sp, sp, #20
 1911              		.cfi_def_cfa_offset 24
 1912 0004 0190     		str	r0, [sp, #4]
 1913 0006 0A00     		movs	r2, r1
 1914 0008 6B46     		mov	r3, sp
 1915 000a 0233     		adds	r3, r3, #2
 1916 000c 1A80     		strh	r2, [r3]
 1917              		.loc 10 587 0
 1918 000e FFF7FEFF 		bl	chDbgCheckClassS
 1919              		.loc 10 589 0
 1920 0012 0EE0     		b	.L105
 1921              	.L107:
 1922              	.LBB14:
 1923              		.loc 10 590 0
 1924 0014 019A     		ldr	r2, [sp, #4]
 1925 0016 6B46     		mov	r3, sp
 1926 0018 0233     		adds	r3, r3, #2
 1927 001a 1B88     		ldrh	r3, [r3]
 1928 001c 1900     		movs	r1, r3
 1929 001e 1000     		movs	r0, r2
 1930 0020 FFF7FEFF 		bl	osalThreadEnqueueTimeoutS
 1931 0024 0300     		movs	r3, r0
 1932 0026 0393     		str	r3, [sp, #12]
 1933              		.loc 10 591 0
 1934 0028 039B     		ldr	r3, [sp, #12]
 1935 002a 002B     		cmp	r3, #0
 1936 002c 01DA     		bge	.L105
 1937              		.loc 10 592 0
 1938 002e 039B     		ldr	r3, [sp, #12]
ARM GAS  /tmp/cctghmAI.s 			page 35


 1939 0030 18E0     		b	.L106
 1940              	.L105:
 1941              	.LBE14:
 1942              		.loc 10 589 0
 1943 0032 019B     		ldr	r3, [sp, #4]
 1944 0034 9B68     		ldr	r3, [r3, #8]
 1945 0036 002B     		cmp	r3, #0
 1946 0038 ECD0     		beq	.L107
 1947              		.loc 10 596 0 discriminator 1
 1948 003a 019B     		ldr	r3, [sp, #4]
 1949 003c 9B68     		ldr	r3, [r3, #8]
 1950 003e 002B     		cmp	r3, #0
 1951 0040 03D1     		bne	.L108
 1952              		.loc 10 596 0 is_stmt 0 discriminator 2
 1953 0042 0A4B     		ldr	r3, .L109
 1954 0044 1800     		movs	r0, r3
 1955 0046 FFF7FEFF 		bl	chSysHalt
 1956              	.L108:
 1957              		.loc 10 599 0 is_stmt 1
 1958 004a 019B     		ldr	r3, [sp, #4]
 1959 004c DB68     		ldr	r3, [r3, #12]
 1960 004e 1A1D     		adds	r2, r3, #4
 1961 0050 019B     		ldr	r3, [sp, #4]
 1962 0052 5A62     		str	r2, [r3, #36]
 1963              		.loc 10 600 0
 1964 0054 019B     		ldr	r3, [sp, #4]
 1965 0056 DA68     		ldr	r2, [r3, #12]
 1966 0058 019B     		ldr	r3, [sp, #4]
 1967 005a 9B69     		ldr	r3, [r3, #24]
 1968 005c D218     		adds	r2, r2, r3
 1969 005e 019B     		ldr	r3, [sp, #4]
 1970 0060 9A62     		str	r2, [r3, #40]
 1971              		.loc 10 602 0
 1972 0062 0023     		movs	r3, #0
 1973              	.L106:
 1974              		.loc 10 603 0
 1975 0064 1800     		movs	r0, r3
 1976 0066 05B0     		add	sp, sp, #20
 1977              		@ sp needed
 1978 0068 00BD     		pop	{pc}
 1979              	.L110:
 1980 006a C046     		.align	2
 1981              	.L109:
 1982 006c 00000000 		.word	__func__.6674
 1983              		.cfi_endproc
 1984              	.LFE197:
 1985              		.size	obqGetEmptyBufferTimeoutS, .-obqGetEmptyBufferTimeoutS
 1986              		.section	.text.obqPostFullBuffer,"ax",%progbits
 1987              		.align	1
 1988              		.p2align 4,,15
 1989              		.global	obqPostFullBuffer
 1990              		.syntax unified
 1991              		.code	16
 1992              		.thumb_func
 1993              		.fpu softvfp
 1994              		.type	obqPostFullBuffer, %function
 1995              	obqPostFullBuffer:
ARM GAS  /tmp/cctghmAI.s 			page 36


 1996              	.LFB198:
 1997              		.loc 10 614 0
 1998              		.cfi_startproc
 1999              		@ args = 0, pretend = 0, frame = 8
 2000              		@ frame_needed = 0, uses_anonymous_args = 0
 2001 0000 00B5     		push	{lr}
 2002              		.cfi_def_cfa_offset 4
 2003              		.cfi_offset 14, -4
 2004 0002 83B0     		sub	sp, sp, #12
 2005              		.cfi_def_cfa_offset 16
 2006 0004 0190     		str	r0, [sp, #4]
 2007 0006 0091     		str	r1, [sp]
 2008              		.loc 10 616 0
 2009 0008 FFF7FEFF 		bl	osalSysLock
 2010              		.loc 10 617 0
 2011 000c 009A     		ldr	r2, [sp]
 2012 000e 019B     		ldr	r3, [sp, #4]
 2013 0010 1100     		movs	r1, r2
 2014 0012 1800     		movs	r0, r3
 2015 0014 FFF7FEFF 		bl	obqPostFullBufferS
 2016              		.loc 10 618 0
 2017 0018 FFF7FEFF 		bl	osalSysUnlock
 2018              		.loc 10 619 0
 2019 001c C046     		nop
 2020 001e 03B0     		add	sp, sp, #12
 2021              		@ sp needed
 2022 0020 00BD     		pop	{pc}
 2023              		.cfi_endproc
 2024              	.LFE198:
 2025              		.size	obqPostFullBuffer, .-obqPostFullBuffer
 2026 0022 C046     		.section	.text.obqPostFullBufferS,"ax",%progbits
 2027              		.align	1
 2028              		.p2align 4,,15
 2029              		.global	obqPostFullBufferS
 2030              		.syntax unified
 2031              		.code	16
 2032              		.thumb_func
 2033              		.fpu softvfp
 2034              		.type	obqPostFullBufferS, %function
 2035              	obqPostFullBufferS:
 2036              	.LFB199:
 2037              		.loc 10 630 0
 2038              		.cfi_startproc
 2039              		@ args = 0, pretend = 0, frame = 8
 2040              		@ frame_needed = 0, uses_anonymous_args = 0
 2041 0000 00B5     		push	{lr}
 2042              		.cfi_def_cfa_offset 4
 2043              		.cfi_offset 14, -4
 2044 0002 83B0     		sub	sp, sp, #12
 2045              		.cfi_def_cfa_offset 16
 2046 0004 0190     		str	r0, [sp, #4]
 2047 0006 0091     		str	r1, [sp]
 2048              		.loc 10 632 0
 2049 0008 FFF7FEFF 		bl	chDbgCheckClassS
 2050              		.loc 10 633 0
 2051 000c 009B     		ldr	r3, [sp]
 2052 000e 002B     		cmp	r3, #0
ARM GAS  /tmp/cctghmAI.s 			page 37


 2053 0010 05D0     		beq	.L113
 2054              		.loc 10 633 0 is_stmt 0 discriminator 3
 2055 0012 019B     		ldr	r3, [sp, #4]
 2056 0014 9B69     		ldr	r3, [r3, #24]
 2057 0016 1A1F     		subs	r2, r3, #4
 2058 0018 009B     		ldr	r3, [sp]
 2059 001a 9A42     		cmp	r2, r3
 2060 001c 03D2     		bcs	.L118
 2061              	.L113:
 2062              		.loc 10 633 0 discriminator 4
 2063 001e 1A4B     		ldr	r3, .L120
 2064 0020 1800     		movs	r0, r3
 2065 0022 FFF7FEFF 		bl	chSysHalt
 2066              	.L118:
 2067              		.loc 10 634 0 is_stmt 1 discriminator 1
 2068 0026 019B     		ldr	r3, [sp, #4]
 2069 0028 9B68     		ldr	r3, [r3, #8]
 2070 002a 002B     		cmp	r3, #0
 2071 002c 03D1     		bne	.L115
 2072              		.loc 10 634 0 is_stmt 0 discriminator 2
 2073 002e 164B     		ldr	r3, .L120
 2074 0030 1800     		movs	r0, r3
 2075 0032 FFF7FEFF 		bl	chSysHalt
 2076              	.L115:
 2077              		.loc 10 637 0 is_stmt 1
 2078 0036 019B     		ldr	r3, [sp, #4]
 2079 0038 DB68     		ldr	r3, [r3, #12]
 2080 003a 009A     		ldr	r2, [sp]
 2081 003c 1A60     		str	r2, [r3]
 2082              		.loc 10 640 0
 2083 003e 019B     		ldr	r3, [sp, #4]
 2084 0040 9B68     		ldr	r3, [r3, #8]
 2085 0042 5A1E     		subs	r2, r3, #1
 2086 0044 019B     		ldr	r3, [sp, #4]
 2087 0046 9A60     		str	r2, [r3, #8]
 2088              		.loc 10 641 0
 2089 0048 019B     		ldr	r3, [sp, #4]
 2090 004a DA68     		ldr	r2, [r3, #12]
 2091 004c 019B     		ldr	r3, [sp, #4]
 2092 004e 9B69     		ldr	r3, [r3, #24]
 2093 0050 D218     		adds	r2, r2, r3
 2094 0052 019B     		ldr	r3, [sp, #4]
 2095 0054 DA60     		str	r2, [r3, #12]
 2096              		.loc 10 642 0
 2097 0056 019B     		ldr	r3, [sp, #4]
 2098 0058 DA68     		ldr	r2, [r3, #12]
 2099 005a 019B     		ldr	r3, [sp, #4]
 2100 005c 5B69     		ldr	r3, [r3, #20]
 2101 005e 9A42     		cmp	r2, r3
 2102 0060 03D3     		bcc	.L116
 2103              		.loc 10 643 0
 2104 0062 019B     		ldr	r3, [sp, #4]
 2105 0064 1A6A     		ldr	r2, [r3, #32]
 2106 0066 019B     		ldr	r3, [sp, #4]
 2107 0068 DA60     		str	r2, [r3, #12]
 2108              	.L116:
 2109              		.loc 10 647 0
ARM GAS  /tmp/cctghmAI.s 			page 38


 2110 006a 019B     		ldr	r3, [sp, #4]
 2111 006c 0022     		movs	r2, #0
 2112 006e 5A62     		str	r2, [r3, #36]
 2113              		.loc 10 650 0
 2114 0070 019B     		ldr	r3, [sp, #4]
 2115 0072 DB6A     		ldr	r3, [r3, #44]
 2116 0074 002B     		cmp	r3, #0
 2117 0076 04D0     		beq	.L119
 2118              		.loc 10 651 0
 2119 0078 019B     		ldr	r3, [sp, #4]
 2120 007a DB6A     		ldr	r3, [r3, #44]
 2121 007c 019A     		ldr	r2, [sp, #4]
 2122 007e 1000     		movs	r0, r2
 2123 0080 9847     		blx	r3
 2124              	.LVL1:
 2125              	.L119:
 2126              		.loc 10 653 0
 2127 0082 C046     		nop
 2128 0084 03B0     		add	sp, sp, #12
 2129              		@ sp needed
 2130 0086 00BD     		pop	{pc}
 2131              	.L121:
 2132              		.align	2
 2133              	.L120:
 2134 0088 00000000 		.word	__func__.6683
 2135              		.cfi_endproc
 2136              	.LFE199:
 2137              		.size	obqPostFullBufferS, .-obqPostFullBufferS
 2138              		.section	.text.obqPutTimeout,"ax",%progbits
 2139              		.align	1
 2140              		.p2align 4,,15
 2141              		.global	obqPutTimeout
 2142              		.syntax unified
 2143              		.code	16
 2144              		.thumb_func
 2145              		.fpu softvfp
 2146              		.type	obqPutTimeout, %function
 2147              	obqPutTimeout:
 2148              	.LFB200:
 2149              		.loc 10 675 0
 2150              		.cfi_startproc
 2151              		@ args = 0, pretend = 0, frame = 16
 2152              		@ frame_needed = 0, uses_anonymous_args = 0
 2153 0000 00B5     		push	{lr}
 2154              		.cfi_def_cfa_offset 4
 2155              		.cfi_offset 14, -4
 2156 0002 85B0     		sub	sp, sp, #20
 2157              		.cfi_def_cfa_offset 24
 2158 0004 0190     		str	r0, [sp, #4]
 2159 0006 0800     		movs	r0, r1
 2160 0008 1100     		movs	r1, r2
 2161 000a 6B46     		mov	r3, sp
 2162 000c 0333     		adds	r3, r3, #3
 2163 000e 021C     		adds	r2, r0, #0
 2164 0010 1A70     		strb	r2, [r3]
 2165 0012 6B46     		mov	r3, sp
 2166 0014 0A1C     		adds	r2, r1, #0
ARM GAS  /tmp/cctghmAI.s 			page 39


 2167 0016 1A80     		strh	r2, [r3]
 2168              		.loc 10 678 0
 2169 0018 FFF7FEFF 		bl	osalSysLock
 2170              		.loc 10 681 0
 2171 001c 019B     		ldr	r3, [sp, #4]
 2172 001e 5B6A     		ldr	r3, [r3, #36]
 2173 0020 002B     		cmp	r3, #0
 2174 0022 0FD1     		bne	.L123
 2175              		.loc 10 682 0
 2176 0024 6B46     		mov	r3, sp
 2177 0026 1A88     		ldrh	r2, [r3]
 2178 0028 019B     		ldr	r3, [sp, #4]
 2179 002a 1100     		movs	r1, r2
 2180 002c 1800     		movs	r0, r3
 2181 002e FFF7FEFF 		bl	obqGetEmptyBufferTimeoutS
 2182 0032 0300     		movs	r3, r0
 2183 0034 0393     		str	r3, [sp, #12]
 2184              		.loc 10 683 0
 2185 0036 039B     		ldr	r3, [sp, #12]
 2186 0038 002B     		cmp	r3, #0
 2187 003a 03D0     		beq	.L123
 2188              		.loc 10 684 0
 2189 003c FFF7FEFF 		bl	osalSysUnlock
 2190              		.loc 10 685 0
 2191 0040 039B     		ldr	r3, [sp, #12]
 2192 0042 1BE0     		b	.L124
 2193              	.L123:
 2194              		.loc 10 690 0
 2195 0044 019B     		ldr	r3, [sp, #4]
 2196 0046 5B6A     		ldr	r3, [r3, #36]
 2197 0048 6A46     		mov	r2, sp
 2198 004a 0332     		adds	r2, r2, #3
 2199 004c 1278     		ldrb	r2, [r2]
 2200 004e 1A70     		strb	r2, [r3]
 2201              		.loc 10 691 0
 2202 0050 019B     		ldr	r3, [sp, #4]
 2203 0052 5B6A     		ldr	r3, [r3, #36]
 2204 0054 5A1C     		adds	r2, r3, #1
 2205 0056 019B     		ldr	r3, [sp, #4]
 2206 0058 5A62     		str	r2, [r3, #36]
 2207              		.loc 10 695 0
 2208 005a 019B     		ldr	r3, [sp, #4]
 2209 005c 5A6A     		ldr	r2, [r3, #36]
 2210 005e 019B     		ldr	r3, [sp, #4]
 2211 0060 9B6A     		ldr	r3, [r3, #40]
 2212 0062 9A42     		cmp	r2, r3
 2213 0064 07D3     		bcc	.L125
 2214              		.loc 10 696 0
 2215 0066 019B     		ldr	r3, [sp, #4]
 2216 0068 9B69     		ldr	r3, [r3, #24]
 2217 006a 1A1F     		subs	r2, r3, #4
 2218 006c 019B     		ldr	r3, [sp, #4]
 2219 006e 1100     		movs	r1, r2
 2220 0070 1800     		movs	r0, r3
 2221 0072 FFF7FEFF 		bl	obqPostFullBufferS
 2222              	.L125:
 2223              		.loc 10 699 0
ARM GAS  /tmp/cctghmAI.s 			page 40


 2224 0076 FFF7FEFF 		bl	osalSysUnlock
 2225              		.loc 10 700 0
 2226 007a 0023     		movs	r3, #0
 2227              	.L124:
 2228              		.loc 10 701 0
 2229 007c 1800     		movs	r0, r3
 2230 007e 05B0     		add	sp, sp, #20
 2231              		@ sp needed
 2232 0080 00BD     		pop	{pc}
 2233              		.cfi_endproc
 2234              	.LFE200:
 2235              		.size	obqPutTimeout, .-obqPutTimeout
 2236 0082 C046     		.section	.text.obqWriteTimeout,"ax",%progbits
 2237              		.align	1
 2238              		.p2align 4,,15
 2239              		.global	obqWriteTimeout
 2240              		.syntax unified
 2241              		.code	16
 2242              		.thumb_func
 2243              		.fpu softvfp
 2244              		.type	obqWriteTimeout, %function
 2245              	obqWriteTimeout:
 2246              	.LFB201:
 2247              		.loc 10 725 0
 2248              		.cfi_startproc
 2249              		@ args = 0, pretend = 0, frame = 32
 2250              		@ frame_needed = 0, uses_anonymous_args = 0
 2251 0000 00B5     		push	{lr}
 2252              		.cfi_def_cfa_offset 4
 2253              		.cfi_offset 14, -4
 2254 0002 89B0     		sub	sp, sp, #36
 2255              		.cfi_def_cfa_offset 40
 2256 0004 0390     		str	r0, [sp, #12]
 2257 0006 0291     		str	r1, [sp, #8]
 2258 0008 0192     		str	r2, [sp, #4]
 2259 000a 1A00     		movs	r2, r3
 2260 000c 6B46     		mov	r3, sp
 2261 000e 0233     		adds	r3, r3, #2
 2262 0010 1A80     		strh	r2, [r3]
 2263              		.loc 10 726 0
 2264 0012 0023     		movs	r3, #0
 2265 0014 0793     		str	r3, [sp, #28]
 2266              		.loc 10 729 0
 2267 0016 FFF7FEFF 		bl	osalSysLock
 2268              		.loc 10 732 0
 2269 001a FFF7FEFF 		bl	osalOsGetSystemTimeX
 2270 001e 0300     		movs	r3, r0
 2271 0020 1900     		movs	r1, r3
 2272 0022 1223     		movs	r3, #18
 2273 0024 6B44     		add	r3, r3, sp
 2274 0026 6A46     		mov	r2, sp
 2275 0028 0232     		adds	r2, r2, #2
 2276 002a 1288     		ldrh	r2, [r2]
 2277 002c 8A18     		adds	r2, r1, r2
 2278 002e 1A80     		strh	r2, [r3]
 2279              	.L138:
 2280              	.LBB15:
ARM GAS  /tmp/cctghmAI.s 			page 41


 2281              		.loc 10 738 0
 2282 0030 039B     		ldr	r3, [sp, #12]
 2283 0032 5B6A     		ldr	r3, [r3, #36]
 2284 0034 002B     		cmp	r3, #0
 2285 0036 3AD1     		bne	.L127
 2286              	.LBB16:
 2287              		.loc 10 743 0
 2288 0038 6B46     		mov	r3, sp
 2289 003a 0233     		adds	r3, r3, #2
 2290 003c 1B88     		ldrh	r3, [r3]
 2291 003e 484A     		ldr	r2, .L139
 2292 0040 9342     		cmp	r3, r2
 2293 0042 04D0     		beq	.L128
 2294              		.loc 10 743 0 is_stmt 0 discriminator 1
 2295 0044 6B46     		mov	r3, sp
 2296 0046 0233     		adds	r3, r3, #2
 2297 0048 1B88     		ldrh	r3, [r3]
 2298 004a 002B     		cmp	r3, #0
 2299 004c 0AD1     		bne	.L129
 2300              	.L128:
 2301              		.loc 10 744 0 is_stmt 1
 2302 004e 6B46     		mov	r3, sp
 2303 0050 0233     		adds	r3, r3, #2
 2304 0052 1A88     		ldrh	r2, [r3]
 2305 0054 039B     		ldr	r3, [sp, #12]
 2306 0056 1100     		movs	r1, r2
 2307 0058 1800     		movs	r0, r3
 2308 005a FFF7FEFF 		bl	obqGetEmptyBufferTimeoutS
 2309 005e 0300     		movs	r3, r0
 2310 0060 0593     		str	r3, [sp, #20]
 2311 0062 1DE0     		b	.L130
 2312              	.L129:
 2313              	.LBB17:
 2314              		.loc 10 747 0
 2315 0064 FFF7FEFF 		bl	osalOsGetSystemTimeX
 2316 0068 0300     		movs	r3, r0
 2317 006a 1900     		movs	r1, r3
 2318 006c 04AB     		add	r3, sp, #16
 2319 006e 1222     		movs	r2, #18
 2320 0070 6A44     		add	r2, r2, sp
 2321 0072 1288     		ldrh	r2, [r2]
 2322 0074 521A     		subs	r2, r2, r1
 2323 0076 1A80     		strh	r2, [r3]
 2324              		.loc 10 752 0
 2325 0078 04AA     		add	r2, sp, #16
 2326 007a 6B46     		mov	r3, sp
 2327 007c 0233     		adds	r3, r3, #2
 2328 007e 1288     		ldrh	r2, [r2]
 2329 0080 1B88     		ldrh	r3, [r3]
 2330 0082 9A42     		cmp	r2, r3
 2331 0084 03D9     		bls	.L131
 2332              		.loc 10 753 0
 2333 0086 FFF7FEFF 		bl	osalSysUnlock
 2334              		.loc 10 754 0
 2335 008a 079B     		ldr	r3, [sp, #28]
 2336 008c 65E0     		b	.L132
 2337              	.L131:
ARM GAS  /tmp/cctghmAI.s 			page 42


 2338              		.loc 10 756 0
 2339 008e 04AB     		add	r3, sp, #16
 2340 0090 1A88     		ldrh	r2, [r3]
 2341 0092 039B     		ldr	r3, [sp, #12]
 2342 0094 1100     		movs	r1, r2
 2343 0096 1800     		movs	r0, r3
 2344 0098 FFF7FEFF 		bl	obqGetEmptyBufferTimeoutS
 2345 009c 0300     		movs	r3, r0
 2346 009e 0593     		str	r3, [sp, #20]
 2347              	.L130:
 2348              	.LBE17:
 2349              		.loc 10 760 0
 2350 00a0 059B     		ldr	r3, [sp, #20]
 2351 00a2 002B     		cmp	r3, #0
 2352 00a4 03D0     		beq	.L127
 2353              		.loc 10 761 0
 2354 00a6 FFF7FEFF 		bl	osalSysUnlock
 2355              		.loc 10 762 0
 2356 00aa 079B     		ldr	r3, [sp, #28]
 2357 00ac 55E0     		b	.L132
 2358              	.L127:
 2359              	.LBE16:
 2360              		.loc 10 767 0
 2361 00ae 039B     		ldr	r3, [sp, #12]
 2362 00b0 9B6A     		ldr	r3, [r3, #40]
 2363 00b2 1A00     		movs	r2, r3
 2364 00b4 039B     		ldr	r3, [sp, #12]
 2365 00b6 5B6A     		ldr	r3, [r3, #36]
 2366 00b8 D31A     		subs	r3, r2, r3
 2367 00ba 0693     		str	r3, [sp, #24]
 2368              		.loc 10 768 0
 2369 00bc 019A     		ldr	r2, [sp, #4]
 2370 00be 079B     		ldr	r3, [sp, #28]
 2371 00c0 D21A     		subs	r2, r2, r3
 2372 00c2 069B     		ldr	r3, [sp, #24]
 2373 00c4 9A42     		cmp	r2, r3
 2374 00c6 03D2     		bcs	.L133
 2375              		.loc 10 769 0
 2376 00c8 019A     		ldr	r2, [sp, #4]
 2377 00ca 079B     		ldr	r3, [sp, #28]
 2378 00cc D31A     		subs	r3, r2, r3
 2379 00ce 0693     		str	r3, [sp, #24]
 2380              	.L133:
 2381              		.loc 10 774 0
 2382 00d0 069B     		ldr	r3, [sp, #24]
 2383 00d2 402B     		cmp	r3, #64
 2384 00d4 13D9     		bls	.L134
 2385              		.loc 10 776 0
 2386 00d6 039B     		ldr	r3, [sp, #12]
 2387 00d8 5B6A     		ldr	r3, [r3, #36]
 2388 00da 0299     		ldr	r1, [sp, #8]
 2389 00dc 4022     		movs	r2, #64
 2390 00de 1800     		movs	r0, r3
 2391 00e0 FFF7FEFF 		bl	memcpy
 2392              		.loc 10 777 0
 2393 00e4 029B     		ldr	r3, [sp, #8]
 2394 00e6 4033     		adds	r3, r3, #64
ARM GAS  /tmp/cctghmAI.s 			page 43


 2395 00e8 0293     		str	r3, [sp, #8]
 2396              		.loc 10 778 0
 2397 00ea 039B     		ldr	r3, [sp, #12]
 2398 00ec 5B6A     		ldr	r3, [r3, #36]
 2399 00ee 4033     		adds	r3, r3, #64
 2400 00f0 1A00     		movs	r2, r3
 2401 00f2 039B     		ldr	r3, [sp, #12]
 2402 00f4 5A62     		str	r2, [r3, #36]
 2403              		.loc 10 779 0
 2404 00f6 079B     		ldr	r3, [sp, #28]
 2405 00f8 4033     		adds	r3, r3, #64
 2406 00fa 0793     		str	r3, [sp, #28]
 2407 00fc 14E0     		b	.L135
 2408              	.L134:
 2409              		.loc 10 782 0
 2410 00fe 039B     		ldr	r3, [sp, #12]
 2411 0100 5B6A     		ldr	r3, [r3, #36]
 2412 0102 069A     		ldr	r2, [sp, #24]
 2413 0104 0299     		ldr	r1, [sp, #8]
 2414 0106 1800     		movs	r0, r3
 2415 0108 FFF7FEFF 		bl	memcpy
 2416              		.loc 10 783 0
 2417 010c 029A     		ldr	r2, [sp, #8]
 2418 010e 069B     		ldr	r3, [sp, #24]
 2419 0110 D318     		adds	r3, r2, r3
 2420 0112 0293     		str	r3, [sp, #8]
 2421              		.loc 10 784 0
 2422 0114 039B     		ldr	r3, [sp, #12]
 2423 0116 5A6A     		ldr	r2, [r3, #36]
 2424 0118 069B     		ldr	r3, [sp, #24]
 2425 011a D218     		adds	r2, r2, r3
 2426 011c 039B     		ldr	r3, [sp, #12]
 2427 011e 5A62     		str	r2, [r3, #36]
 2428              		.loc 10 785 0
 2429 0120 079A     		ldr	r2, [sp, #28]
 2430 0122 069B     		ldr	r3, [sp, #24]
 2431 0124 D318     		adds	r3, r2, r3
 2432 0126 0793     		str	r3, [sp, #28]
 2433              	.L135:
 2434              		.loc 10 789 0
 2435 0128 039B     		ldr	r3, [sp, #12]
 2436 012a 5A6A     		ldr	r2, [r3, #36]
 2437 012c 039B     		ldr	r3, [sp, #12]
 2438 012e 9B6A     		ldr	r3, [r3, #40]
 2439 0130 9A42     		cmp	r2, r3
 2440 0132 07D3     		bcc	.L136
 2441              		.loc 10 790 0
 2442 0134 039B     		ldr	r3, [sp, #12]
 2443 0136 9B69     		ldr	r3, [r3, #24]
 2444 0138 1A1F     		subs	r2, r3, #4
 2445 013a 039B     		ldr	r3, [sp, #12]
 2446 013c 1100     		movs	r1, r2
 2447 013e 1800     		movs	r0, r3
 2448 0140 FFF7FEFF 		bl	obqPostFullBufferS
 2449              	.L136:
 2450              		.loc 10 794 0
 2451 0144 FFF7FEFF 		bl	osalSysUnlock
ARM GAS  /tmp/cctghmAI.s 			page 44


 2452              		.loc 10 795 0
 2453 0148 079A     		ldr	r2, [sp, #28]
 2454 014a 019B     		ldr	r3, [sp, #4]
 2455 014c 9A42     		cmp	r2, r3
 2456 014e 01D3     		bcc	.L137
 2457              		.loc 10 796 0
 2458 0150 079B     		ldr	r3, [sp, #28]
 2459 0152 02E0     		b	.L132
 2460              	.L137:
 2461              		.loc 10 798 0
 2462 0154 FFF7FEFF 		bl	osalSysLock
 2463              	.LBE15:
 2464              		.loc 10 734 0
 2465 0158 6AE7     		b	.L138
 2466              	.L132:
 2467              		.loc 10 800 0
 2468 015a 1800     		movs	r0, r3
 2469 015c 09B0     		add	sp, sp, #36
 2470              		@ sp needed
 2471 015e 00BD     		pop	{pc}
 2472              	.L140:
 2473              		.align	2
 2474              	.L139:
 2475 0160 FFFF0000 		.word	65535
 2476              		.cfi_endproc
 2477              	.LFE201:
 2478              		.size	obqWriteTimeout, .-obqWriteTimeout
 2479              		.section	.text.obqTryFlushI,"ax",%progbits
 2480              		.align	1
 2481              		.p2align 4,,15
 2482              		.global	obqTryFlushI
 2483              		.syntax unified
 2484              		.code	16
 2485              		.thumb_func
 2486              		.fpu softvfp
 2487              		.type	obqTryFlushI, %function
 2488              	obqTryFlushI:
 2489              	.LFB202:
 2490              		.loc 10 815 0
 2491              		.cfi_startproc
 2492              		@ args = 0, pretend = 0, frame = 16
 2493              		@ frame_needed = 0, uses_anonymous_args = 0
 2494 0000 00B5     		push	{lr}
 2495              		.cfi_def_cfa_offset 4
 2496              		.cfi_offset 14, -4
 2497 0002 85B0     		sub	sp, sp, #20
 2498              		.cfi_def_cfa_offset 24
 2499 0004 0190     		str	r0, [sp, #4]
 2500              		.loc 10 817 0
 2501 0006 FFF7FEFF 		bl	chDbgCheckClassI
 2502              		.loc 10 821 0
 2503 000a 019B     		ldr	r3, [sp, #4]
 2504 000c DA68     		ldr	r2, [r3, #12]
 2505 000e 019B     		ldr	r3, [sp, #4]
 2506 0010 1B69     		ldr	r3, [r3, #16]
 2507 0012 9A42     		cmp	r2, r3
 2508 0014 05D1     		bne	.L142
ARM GAS  /tmp/cctghmAI.s 			page 45


 2509              		.loc 10 821 0 is_stmt 0 discriminator 1
 2510 0016 019B     		ldr	r3, [sp, #4]
 2511 0018 9B68     		ldr	r3, [r3, #8]
 2512 001a 002B     		cmp	r3, #0
 2513 001c 01D0     		beq	.L142
 2514              		.loc 10 821 0 discriminator 3
 2515 001e 0123     		movs	r3, #1
 2516 0020 00E0     		b	.L143
 2517              	.L142:
 2518              		.loc 10 821 0 discriminator 4
 2519 0022 0023     		movs	r3, #0
 2520              	.L143:
 2521              		.loc 10 821 0 discriminator 6
 2522 0024 1A1C     		adds	r2, r3, #0
 2523 0026 0123     		movs	r3, #1
 2524 0028 1340     		ands	r3, r2
 2525 002a DBB2     		uxtb	r3, r3
 2526 002c 002B     		cmp	r3, #0
 2527 002e 2DD0     		beq	.L144
 2528              		.loc 10 821 0 discriminator 7
 2529 0030 019B     		ldr	r3, [sp, #4]
 2530 0032 5B6A     		ldr	r3, [r3, #36]
 2531 0034 002B     		cmp	r3, #0
 2532 0036 29D0     		beq	.L144
 2533              	.LBB18:
 2534              		.loc 10 822 0 is_stmt 1
 2535 0038 019B     		ldr	r3, [sp, #4]
 2536 003a 5B6A     		ldr	r3, [r3, #36]
 2537 003c 1A00     		movs	r2, r3
 2538 003e 019B     		ldr	r3, [sp, #4]
 2539 0040 DB68     		ldr	r3, [r3, #12]
 2540 0042 D31A     		subs	r3, r2, r3
 2541 0044 043B     		subs	r3, r3, #4
 2542 0046 0393     		str	r3, [sp, #12]
 2543              		.loc 10 824 0
 2544 0048 039B     		ldr	r3, [sp, #12]
 2545 004a 002B     		cmp	r3, #0
 2546 004c 1ED0     		beq	.L144
 2547              		.loc 10 827 0
 2548 004e 019B     		ldr	r3, [sp, #4]
 2549 0050 DB68     		ldr	r3, [r3, #12]
 2550 0052 039A     		ldr	r2, [sp, #12]
 2551 0054 1A60     		str	r2, [r3]
 2552              		.loc 10 830 0
 2553 0056 019B     		ldr	r3, [sp, #4]
 2554 0058 9B68     		ldr	r3, [r3, #8]
 2555 005a 5A1E     		subs	r2, r3, #1
 2556 005c 019B     		ldr	r3, [sp, #4]
 2557 005e 9A60     		str	r2, [r3, #8]
 2558              		.loc 10 831 0
 2559 0060 019B     		ldr	r3, [sp, #4]
 2560 0062 DA68     		ldr	r2, [r3, #12]
 2561 0064 019B     		ldr	r3, [sp, #4]
 2562 0066 9B69     		ldr	r3, [r3, #24]
 2563 0068 D218     		adds	r2, r2, r3
 2564 006a 019B     		ldr	r3, [sp, #4]
 2565 006c DA60     		str	r2, [r3, #12]
ARM GAS  /tmp/cctghmAI.s 			page 46


 2566              		.loc 10 832 0
 2567 006e 019B     		ldr	r3, [sp, #4]
 2568 0070 DA68     		ldr	r2, [r3, #12]
 2569 0072 019B     		ldr	r3, [sp, #4]
 2570 0074 5B69     		ldr	r3, [r3, #20]
 2571 0076 9A42     		cmp	r2, r3
 2572 0078 03D3     		bcc	.L145
 2573              		.loc 10 833 0
 2574 007a 019B     		ldr	r3, [sp, #4]
 2575 007c 1A6A     		ldr	r2, [r3, #32]
 2576 007e 019B     		ldr	r3, [sp, #4]
 2577 0080 DA60     		str	r2, [r3, #12]
 2578              	.L145:
 2579              		.loc 10 837 0
 2580 0082 019B     		ldr	r3, [sp, #4]
 2581 0084 0022     		movs	r2, #0
 2582 0086 5A62     		str	r2, [r3, #36]
 2583              		.loc 10 839 0
 2584 0088 0123     		movs	r3, #1
 2585 008a 00E0     		b	.L146
 2586              	.L144:
 2587              	.LBE18:
 2588              		.loc 10 842 0
 2589 008c 0023     		movs	r3, #0
 2590              	.L146:
 2591              		.loc 10 843 0
 2592 008e 1800     		movs	r0, r3
 2593 0090 05B0     		add	sp, sp, #20
 2594              		@ sp needed
 2595 0092 00BD     		pop	{pc}
 2596              		.cfi_endproc
 2597              	.LFE202:
 2598              		.size	obqTryFlushI, .-obqTryFlushI
 2599              		.section	.text.obqFlush,"ax",%progbits
 2600              		.align	1
 2601              		.p2align 4,,15
 2602              		.global	obqFlush
 2603              		.syntax unified
 2604              		.code	16
 2605              		.thumb_func
 2606              		.fpu softvfp
 2607              		.type	obqFlush, %function
 2608              	obqFlush:
 2609              	.LFB203:
 2610              		.loc 10 852 0
 2611              		.cfi_startproc
 2612              		@ args = 0, pretend = 0, frame = 16
 2613              		@ frame_needed = 0, uses_anonymous_args = 0
 2614 0000 00B5     		push	{lr}
 2615              		.cfi_def_cfa_offset 4
 2616              		.cfi_offset 14, -4
 2617 0002 85B0     		sub	sp, sp, #20
 2618              		.cfi_def_cfa_offset 24
 2619 0004 0190     		str	r0, [sp, #4]
 2620              		.loc 10 854 0
 2621 0006 FFF7FEFF 		bl	osalSysLock
 2622              		.loc 10 857 0
ARM GAS  /tmp/cctghmAI.s 			page 47


 2623 000a 019B     		ldr	r3, [sp, #4]
 2624 000c 5B6A     		ldr	r3, [r3, #36]
 2625 000e 002B     		cmp	r3, #0
 2626 0010 10D0     		beq	.L148
 2627              	.LBB19:
 2628              		.loc 10 858 0
 2629 0012 019B     		ldr	r3, [sp, #4]
 2630 0014 5B6A     		ldr	r3, [r3, #36]
 2631 0016 1A00     		movs	r2, r3
 2632 0018 019B     		ldr	r3, [sp, #4]
 2633 001a DB68     		ldr	r3, [r3, #12]
 2634 001c D31A     		subs	r3, r2, r3
 2635 001e 043B     		subs	r3, r3, #4
 2636 0020 0393     		str	r3, [sp, #12]
 2637              		.loc 10 860 0
 2638 0022 039B     		ldr	r3, [sp, #12]
 2639 0024 002B     		cmp	r3, #0
 2640 0026 05D0     		beq	.L148
 2641              		.loc 10 861 0
 2642 0028 039A     		ldr	r2, [sp, #12]
 2643 002a 019B     		ldr	r3, [sp, #4]
 2644 002c 1100     		movs	r1, r2
 2645 002e 1800     		movs	r0, r3
 2646 0030 FFF7FEFF 		bl	obqPostFullBufferS
 2647              	.L148:
 2648              	.LBE19:
 2649              		.loc 10 865 0
 2650 0034 FFF7FEFF 		bl	osalSysUnlock
 2651              		.loc 10 866 0
 2652 0038 C046     		nop
 2653 003a 05B0     		add	sp, sp, #20
 2654              		@ sp needed
 2655 003c 00BD     		pop	{pc}
 2656              		.cfi_endproc
 2657              	.LFE203:
 2658              		.size	obqFlush, .-obqFlush
 2659 003e C046     		.section	.rodata.__func__.6591,"a",%progbits
 2660              		.align	2
 2661              		.type	__func__.6591, %object
 2662              		.size	__func__.6591, 14
 2663              	__func__.6591:
 2664 0000 6962714F 		.ascii	"ibqObjectInit\000"
 2664      626A6563 
 2664      74496E69 
 2664      7400
 2665              		.section	.rodata.__func__.6602,"a",%progbits
 2666              		.align	2
 2667              		.type	__func__.6602, %object
 2668              		.size	__func__.6602, 19
 2669              	__func__.6602:
 2670 0000 69627150 		.ascii	"ibqPostFullBufferI\000"
 2670      6F737446 
 2670      756C6C42 
 2670      75666665 
 2670      724900
 2671              		.section	.rodata.__func__.5371,"a",%progbits
 2672              		.align	2
ARM GAS  /tmp/cctghmAI.s 			page 48


 2673              		.type	__func__.5371, %object
 2674              		.size	__func__.5371, 12
 2675              	__func__.5371:
 2676 0000 63685379 		.ascii	"chSysUnlock\000"
 2676      73556E6C 
 2676      6F636B00 
 2677              		.section	.rodata.__func__.6616,"a",%progbits
 2678              		.align	2
 2679              		.type	__func__.6616, %object
 2680              		.size	__func__.6616, 25
 2681              	__func__.6616:
 2682 0000 69627147 		.ascii	"ibqGetFullBufferTimeoutS\000"
 2682      65744675 
 2682      6C6C4275 
 2682      66666572 
 2682      54696D65 
 2683              		.section	.rodata.__func__.6623,"a",%progbits
 2684              		.align	2
 2685              		.type	__func__.6623, %object
 2686              		.size	__func__.6623, 23
 2687              	__func__.6623:
 2688 0000 69627152 		.ascii	"ibqReleaseEmptyBufferS\000"
 2688      656C6561 
 2688      7365456D 
 2688      70747942 
 2688      75666665 
 2689              		.section	.rodata.__func__.6649,"a",%progbits
 2690              		.align	2
 2691              		.type	__func__.6649, %object
 2692              		.size	__func__.6649, 14
 2693              	__func__.6649:
 2694 0000 6F62714F 		.ascii	"obqObjectInit\000"
 2694      626A6563 
 2694      74496E69 
 2694      7400
 2695              		.section	.rodata.__func__.6660,"a",%progbits
 2696              		.align	2
 2697              		.type	__func__.6660, %object
 2698              		.size	__func__.6660, 23
 2699              	__func__.6660:
 2700 0000 6F627152 		.ascii	"obqReleaseEmptyBufferI\000"
 2700      656C6561 
 2700      7365456D 
 2700      70747942 
 2700      75666665 
 2701              		.section	.rodata.__func__.6674,"a",%progbits
 2702              		.align	2
 2703              		.type	__func__.6674, %object
 2704              		.size	__func__.6674, 26
 2705              	__func__.6674:
 2706 0000 6F627147 		.ascii	"obqGetEmptyBufferTimeoutS\000"
 2706      6574456D 
 2706      70747942 
 2706      75666665 
 2706      7254696D 
 2707              		.section	.rodata.__func__.6683,"a",%progbits
 2708              		.align	2
ARM GAS  /tmp/cctghmAI.s 			page 49


 2709              		.type	__func__.6683, %object
 2710              		.size	__func__.6683, 19
 2711              	__func__.6683:
 2712 0000 6F627150 		.ascii	"obqPostFullBufferS\000"
 2712      6F737446 
 2712      756C6C42 
 2712      75666665 
 2712      725300
 2713              		.text
 2714              	.Letext0:
 2715              		.file 11 "/home/felix/opt/gcc-arm-none-eabi-6-2017-q1-update/lib/gcc/arm-none-eabi/6.3.1/include/s
 2716              		.file 12 "/home/felix/opt/gcc-arm-none-eabi-6-2017-q1-update/arm-none-eabi/include/machine/_defaul
 2717              		.file 13 "/home/felix/opt/gcc-arm-none-eabi-6-2017-q1-update/arm-none-eabi/include/sys/lock.h"
 2718              		.file 14 "/home/felix/opt/gcc-arm-none-eabi-6-2017-q1-update/arm-none-eabi/include/sys/_types.h"
 2719              		.file 15 "/home/felix/opt/gcc-arm-none-eabi-6-2017-q1-update/arm-none-eabi/include/sys/reent.h"
 2720              		.file 16 "/home/felix/opt/gcc-arm-none-eabi-6-2017-q1-update/arm-none-eabi/include/sys/_stdint.h"
 2721              		.file 17 "ChibiOS/os/rt/ports/ARMCMx/compilers/GCC/chtypes.h"
 2722              		.file 18 "ChibiOS/os/rt/include/chsystypes.h"
 2723              		.file 19 "ChibiOS/os/ext/CMSIS/ST/STM32F0xx/system_stm32f0xx.h"
 2724              		.file 20 "ChibiOS/os/ext/CMSIS/ST/STM32F0xx/stm32f030xc.h"
 2725              		.file 21 "ChibiOS/os/rt/ports/ARMCMx/chcore.h"
 2726              		.file 22 "ChibiOS/os/hal/ports/STM32/LLD/TIMv1/stm32_tim.h"
 2727              		.file 23 "ChibiOS/os/rt/include/chdebug.h"
 2728              		.file 24 "ChibiOS/os/rt/include/chsem.h"
 2729              		.file 25 "ChibiOS/os/rt/include/chmtx.h"
 2730              		.file 26 "ChibiOS/os/rt/include/chregistry.h"
 2731              		.file 27 "ChibiOS/os/rt/include/chevents.h"
 2732              		.file 28 "ChibiOS/os/rt/include/chqueues.h"
 2733              		.file 29 "ChibiOS/os/hal/ports/STM32/LLD/DMAv1/stm32_dma.h"
 2734              		.file 30 "ChibiOS/os/hal/include/hal_buffers.h"
 2735              		.file 31 "ChibiOS/os/hal/ports/STM32/LLD/GPIOv2/pal_lld.h"
 2736              		.file 32 "ChibiOS/os/hal/include/serial.h"
 2737              		.file 33 "ChibiOS/os/hal/ports/STM32/LLD/USARTv2/serial_lld.h"