ARM GAS  /tmp/cctghmAI.s 			page 1


   1              		.cpu cortex-m0
   2              		.eabi_attribute 20, 1
   3              		.eabi_attribute 21, 1
   4              		.eabi_attribute 23, 3
   5              		.eabi_attribute 24, 1
   6              		.eabi_attribute 25, 1
   7              		.eabi_attribute 26, 1
   8              		.eabi_attribute 30, 6
   9              		.eabi_attribute 34, 0
  10              		.eabi_attribute 18, 4
  11              		.file	"hal_buffers.c"
  12              		.text
  13              	.Ltext0:
  14              		.cfi_sections	.debug_frame
  15              		.section	.text.port_lock,"ax",%progbits
  16              		.align	1
  17              		.p2align 4,,15
  18              		.syntax unified
  19              		.code	16
  20              		.thumb_func
  21              		.fpu softvfp
  22              		.type	port_lock, %function
  23              	port_lock:
  24              	.LFB38:
  25              		.file 1 "ChibiOS/os/rt/ports/ARMCMx/chcore_v6m.h"
  26              		.loc 1 330 0
  27              		.cfi_startproc
  28              		@ args = 0, pretend = 0, frame = 0
  29              		@ frame_needed = 0, uses_anonymous_args = 0
  30              		@ link register save eliminated.
  31              	.LBB6:
  32              	.LBB7:
  33              		.file 2 "ChibiOS/os/ext/CMSIS/include/core_cmFunc.h"
  34              		.loc 2 344 0
  35              		.syntax divided
  36              	@ 344 "ChibiOS/os/ext/CMSIS/include/core_cmFunc.h" 1
  37 0000 72B6     		cpsid i
  38              	@ 0 "" 2
  39              		.thumb
  40              		.syntax unified
  41              	.LBE7:
  42              	.LBE6:
  43              		.loc 1 333 0
  44 0002 C046     		nop
  45              		@ sp needed
  46 0004 7047     		bx	lr
  47              		.cfi_endproc
  48              	.LFE38:
  49              		.size	port_lock, .-port_lock
  50 0006 C046     		.section	.text.port_unlock,"ax",%progbits
  51              		.align	1
  52              		.p2align 4,,15
  53              		.syntax unified
  54              		.code	16
  55              		.thumb_func
  56              		.fpu softvfp
  57              		.type	port_unlock, %function
ARM GAS  /tmp/cctghmAI.s 			page 2


  58              	port_unlock:
  59              	.LFB39:
  60              		.loc 1 339 0
  61              		.cfi_startproc
  62              		@ args = 0, pretend = 0, frame = 0
  63              		@ frame_needed = 0, uses_anonymous_args = 0
  64              		@ link register save eliminated.
  65              	.LBB8:
  66              	.LBB9:
  67              		.loc 2 333 0
  68              		.syntax divided
  69              	@ 333 "ChibiOS/os/ext/CMSIS/include/core_cmFunc.h" 1
  70 0000 62B6     		cpsie i
  71              	@ 0 "" 2
  72              		.thumb
  73              		.syntax unified
  74              	.LBE9:
  75              	.LBE8:
  76              		.loc 1 342 0
  77 0002 C046     		nop
  78              		@ sp needed
  79 0004 7047     		bx	lr
  80              		.cfi_endproc
  81              	.LFE39:
  82              		.size	port_unlock, .-port_unlock
  83 0006 C046     		.section	.text.st_lld_get_counter,"ax",%progbits
  84              		.align	1
  85              		.p2align 4,,15
  86              		.syntax unified
  87              		.code	16
  88              		.thumb_func
  89              		.fpu softvfp
  90              		.type	st_lld_get_counter, %function
  91              	st_lld_get_counter:
  92              	.LFB46:
  93              		.file 3 "ChibiOS/os/hal/ports/STM32/LLD/TIMv1/st_lld.h"
  94              		.loc 3 139 0
  95              		.cfi_startproc
  96              		@ args = 0, pretend = 0, frame = 0
  97              		@ frame_needed = 0, uses_anonymous_args = 0
  98              		@ link register save eliminated.
  99              		.loc 3 141 0
 100 0000 024B     		ldr	r3, .L5
 101 0002 5B6A     		ldr	r3, [r3, #36]
 102 0004 9BB2     		uxth	r3, r3
 103              		.loc 3 142 0
 104 0006 1800     		movs	r0, r3
 105              		@ sp needed
 106 0008 7047     		bx	lr
 107              	.L6:
 108 000a C046     		.align	2
 109              	.L5:
 110 000c 00040040 		.word	1073742848
 111              		.cfi_endproc
 112              	.LFE46:
 113              		.size	st_lld_get_counter, .-st_lld_get_counter
 114              		.section	.text.port_timer_get_time,"ax",%progbits
ARM GAS  /tmp/cctghmAI.s 			page 3


 115              		.align	1
 116              		.p2align 4,,15
 117              		.syntax unified
 118              		.code	16
 119              		.thumb_func
 120              		.fpu softvfp
 121              		.type	port_timer_get_time, %function
 122              	port_timer_get_time:
 123              	.LFB55:
 124              		.file 4 "ChibiOS/os/rt/ports/ARMCMx/chcore_timer.h"
 125              		.loc 4 105 0
 126              		.cfi_startproc
 127              		@ args = 0, pretend = 0, frame = 0
 128              		@ frame_needed = 0, uses_anonymous_args = 0
 129 0000 10B5     		push	{r4, lr}
 130              		.cfi_def_cfa_offset 8
 131              		.cfi_offset 4, -8
 132              		.cfi_offset 14, -4
 133              		.loc 4 107 0
 134 0002 FFF7FEFF 		bl	st_lld_get_counter
 135 0006 0300     		movs	r3, r0
 136              		.loc 4 108 0
 137 0008 1800     		movs	r0, r3
 138              		@ sp needed
 139 000a 10BD     		pop	{r4, pc}
 140              		.cfi_endproc
 141              	.LFE55:
 142              		.size	port_timer_get_time, .-port_timer_get_time
 143              		.section	.text.queue_init,"ax",%progbits
 144              		.align	1
 145              		.p2align 4,,15
 146              		.syntax unified
 147              		.code	16
 148              		.thumb_func
 149              		.fpu softvfp
 150              		.type	queue_init, %function
 151              	queue_init:
 152              	.LFB60:
 153              		.file 5 "ChibiOS/os/rt/include/chschd.h"
 154              		.loc 5 602 0
 155              		.cfi_startproc
 156              		@ args = 0, pretend = 0, frame = 8
 157              		@ frame_needed = 0, uses_anonymous_args = 0
 158              		@ link register save eliminated.
 159 0000 82B0     		sub	sp, sp, #8
 160              		.cfi_def_cfa_offset 8
 161 0002 0190     		str	r0, [sp, #4]
 162              		.loc 5 604 0
 163 0004 019B     		ldr	r3, [sp, #4]
 164 0006 019A     		ldr	r2, [sp, #4]
 165 0008 1A60     		str	r2, [r3]
 166              		.loc 5 605 0
 167 000a 019B     		ldr	r3, [sp, #4]
 168 000c 019A     		ldr	r2, [sp, #4]
 169 000e 5A60     		str	r2, [r3, #4]
 170              		.loc 5 606 0
 171 0010 C046     		nop
ARM GAS  /tmp/cctghmAI.s 			page 4


 172 0012 02B0     		add	sp, sp, #8
 173              		@ sp needed
 174 0014 7047     		bx	lr
 175              		.cfi_endproc
 176              	.LFE60:
 177              		.size	queue_init, .-queue_init
 178 0016 C046     		.section	.text.chSysLock,"ax",%progbits
 179              		.align	1
 180              		.p2align 4,,15
 181              		.syntax unified
 182              		.code	16
 183              		.thumb_func
 184              		.fpu softvfp
 185              		.type	chSysLock, %function
 186              	chSysLock:
 187              	.LFB77:
 188              		.file 6 "ChibiOS/os/rt/include/chsys.h"
 189              		.loc 6 346 0
 190              		.cfi_startproc
 191              		@ args = 0, pretend = 0, frame = 0
 192              		@ frame_needed = 0, uses_anonymous_args = 0
 193 0000 10B5     		push	{r4, lr}
 194              		.cfi_def_cfa_offset 8
 195              		.cfi_offset 4, -8
 196              		.cfi_offset 14, -4
 197              		.loc 6 348 0
 198 0002 FFF7FEFF 		bl	port_lock
 199              		.loc 6 350 0
 200 0006 FFF7FEFF 		bl	_dbg_check_lock
 201              		.loc 6 351 0
 202 000a C046     		nop
 203              		@ sp needed
 204 000c 10BD     		pop	{r4, pc}
 205              		.cfi_endproc
 206              	.LFE77:
 207              		.size	chSysLock, .-chSysLock
 208 000e C046     		.section	.text.chSysUnlock,"ax",%progbits
 209              		.align	1
 210              		.p2align 4,,15
 211              		.syntax unified
 212              		.code	16
 213              		.thumb_func
 214              		.fpu softvfp
 215              		.type	chSysUnlock, %function
 216              	chSysUnlock:
 217              	.LFB78:
 218              		.loc 6 358 0
 219              		.cfi_startproc
 220              		@ args = 0, pretend = 0, frame = 0
 221              		@ frame_needed = 0, uses_anonymous_args = 0
 222 0000 10B5     		push	{r4, lr}
 223              		.cfi_def_cfa_offset 8
 224              		.cfi_offset 4, -8
 225              		.cfi_offset 14, -4
 226              		.loc 6 360 0
 227 0002 FFF7FEFF 		bl	_dbg_check_unlock
 228              		.loc 6 367 0
ARM GAS  /tmp/cctghmAI.s 			page 5


 229 0006 0A4B     		ldr	r3, .L13
 230 0008 1A68     		ldr	r2, [r3]
 231 000a 094B     		ldr	r3, .L13
 232 000c 9A42     		cmp	r2, r3
 233 000e 0BD0     		beq	.L12
 234              		.loc 6 367 0 is_stmt 0 discriminator 2
 235 0010 074B     		ldr	r3, .L13
 236 0012 9B69     		ldr	r3, [r3, #24]
 237 0014 9A68     		ldr	r2, [r3, #8]
 238 0016 064B     		ldr	r3, .L13
 239 0018 1B68     		ldr	r3, [r3]
 240 001a 9B68     		ldr	r3, [r3, #8]
 241 001c 9A42     		cmp	r2, r3
 242 001e 03D2     		bcs	.L12
 243              		.loc 6 367 0 discriminator 3
 244 0020 044B     		ldr	r3, .L13+4
 245 0022 1800     		movs	r0, r3
 246 0024 FFF7FEFF 		bl	chSysHalt
 247              	.L12:
 248              		.loc 6 371 0 is_stmt 1
 249 0028 FFF7FEFF 		bl	port_unlock
 250              		.loc 6 372 0
 251 002c C046     		nop
 252              		@ sp needed
 253 002e 10BD     		pop	{r4, pc}
 254              	.L14:
 255              		.align	2
 256              	.L13:
 257 0030 00000000 		.word	ch
 258 0034 00000000 		.word	__func__.5371
 259              		.cfi_endproc
 260              	.LFE78:
 261              		.size	chSysUnlock, .-chSysUnlock
 262              		.section	.text.chVTGetSystemTimeX,"ax",%progbits
 263              		.align	1
 264              		.p2align 4,,15
 265              		.syntax unified
 266              		.code	16
 267              		.thumb_func
 268              		.fpu softvfp
 269              		.type	chVTGetSystemTimeX, %function
 270              	chVTGetSystemTimeX:
 271              	.LFB85:
 272              		.file 7 "ChibiOS/os/rt/include/chvt.h"
 273              		.loc 7 228 0
 274              		.cfi_startproc
 275              		@ args = 0, pretend = 0, frame = 0
 276              		@ frame_needed = 0, uses_anonymous_args = 0
 277 0000 10B5     		push	{r4, lr}
 278              		.cfi_def_cfa_offset 8
 279              		.cfi_offset 4, -8
 280              		.cfi_offset 14, -4
 281              		.loc 7 233 0
 282 0002 FFF7FEFF 		bl	port_timer_get_time
 283 0006 0300     		movs	r3, r0
 284              		.loc 7 235 0
 285 0008 1800     		movs	r0, r3
ARM GAS  /tmp/cctghmAI.s 			page 6


 286              		@ sp needed
 287 000a 10BD     		pop	{r4, pc}
 288              		.cfi_endproc
 289              	.LFE85:
 290              		.size	chVTGetSystemTimeX, .-chVTGetSystemTimeX
 291              		.section	.text.chThdQueueObjectInit,"ax",%progbits
 292              		.align	1
 293              		.p2align 4,,15
 294              		.syntax unified
 295              		.code	16
 296              		.thumb_func
 297              		.fpu softvfp
 298              		.type	chThdQueueObjectInit, %function
 299              	chThdQueueObjectInit:
 300              	.LFB105:
 301              		.file 8 "ChibiOS/os/rt/include/chthreads.h"
 302              		.loc 8 278 0
 303              		.cfi_startproc
 304              		@ args = 0, pretend = 0, frame = 8
 305              		@ frame_needed = 0, uses_anonymous_args = 0
 306 0000 00B5     		push	{lr}
 307              		.cfi_def_cfa_offset 4
 308              		.cfi_offset 14, -4
 309 0002 83B0     		sub	sp, sp, #12
 310              		.cfi_def_cfa_offset 16
 311 0004 0190     		str	r0, [sp, #4]
 312              		.loc 8 280 0
 313 0006 019B     		ldr	r3, [sp, #4]
 314 0008 1800     		movs	r0, r3
 315 000a FFF7FEFF 		bl	queue_init
 316              		.loc 8 281 0
 317 000e C046     		nop
 318 0010 03B0     		add	sp, sp, #12
 319              		@ sp needed
 320 0012 00BD     		pop	{pc}
 321              		.cfi_endproc
 322              	.LFE105:
 323              		.size	chThdQueueObjectInit, .-chThdQueueObjectInit
 324              		.section	.text.osalSysLock,"ax",%progbits
 325              		.align	1
 326              		.p2align 4,,15
 327              		.syntax unified
 328              		.code	16
 329              		.thumb_func
 330              		.fpu softvfp
 331              		.type	osalSysLock, %function
 332              	osalSysLock:
 333              	.LFB156:
 334              		.file 9 "ChibiOS/os/hal/osal/rt/osal.h"
 335              		.loc 9 491 0
 336              		.cfi_startproc
 337              		@ args = 0, pretend = 0, frame = 0
 338              		@ frame_needed = 0, uses_anonymous_args = 0
 339 0000 10B5     		push	{r4, lr}
 340              		.cfi_def_cfa_offset 8
 341              		.cfi_offset 4, -8
 342              		.cfi_offset 14, -4
ARM GAS  /tmp/cctghmAI.s 			page 7


 343              		.loc 9 493 0
 344 0002 FFF7FEFF 		bl	chSysLock
 345              		.loc 9 494 0
 346 0006 C046     		nop
 347              		@ sp needed
 348 0008 10BD     		pop	{r4, pc}
 349              		.cfi_endproc
 350              	.LFE156:
 351              		.size	osalSysLock, .-osalSysLock
 352 000a C046     		.section	.text.osalSysUnlock,"ax",%progbits
 353              		.align	1
 354              		.p2align 4,,15
 355              		.syntax unified
 356              		.code	16
 357              		.thumb_func
 358              		.fpu softvfp
 359              		.type	osalSysUnlock, %function
 360              	osalSysUnlock:
 361              	.LFB157:
 362              		.loc 9 502 0
 363              		.cfi_startproc
 364              		@ args = 0, pretend = 0, frame = 0
 365              		@ frame_needed = 0, uses_anonymous_args = 0
 366 0000 10B5     		push	{r4, lr}
 367              		.cfi_def_cfa_offset 8
 368              		.cfi_offset 4, -8
 369              		.cfi_offset 14, -4
 370              		.loc 9 504 0
 371 0002 FFF7FEFF 		bl	chSysUnlock
 372              		.loc 9 505 0
 373 0006 C046     		nop
 374              		@ sp needed
 375 0008 10BD     		pop	{r4, pc}
 376              		.cfi_endproc
 377              	.LFE157:
 378              		.size	osalSysUnlock, .-osalSysUnlock
 379 000a C046     		.section	.text.osalOsGetSystemTimeX,"ax",%progbits
 380              		.align	1
 381              		.p2align 4,,15
 382              		.syntax unified
 383              		.code	16
 384              		.thumb_func
 385              		.fpu softvfp
 386              		.type	osalOsGetSystemTimeX, %function
 387              	osalOsGetSystemTimeX:
 388              	.LFB164:
 389              		.loc 9 616 0
 390              		.cfi_startproc
 391              		@ args = 0, pretend = 0, frame = 0
 392              		@ frame_needed = 0, uses_anonymous_args = 0
 393 0000 10B5     		push	{r4, lr}
 394              		.cfi_def_cfa_offset 8
 395              		.cfi_offset 4, -8
 396              		.cfi_offset 14, -4
 397              		.loc 9 618 0
 398 0002 FFF7FEFF 		bl	chVTGetSystemTimeX
 399 0006 0300     		movs	r3, r0
ARM GAS  /tmp/cctghmAI.s 			page 8


 400              		.loc 9 619 0
 401 0008 1800     		movs	r0, r3
 402              		@ sp needed
 403 000a 10BD     		pop	{r4, pc}
 404              		.cfi_endproc
 405              	.LFE164:
 406              		.size	osalOsGetSystemTimeX, .-osalOsGetSystemTimeX
 407              		.section	.text.osalThreadQueueObjectInit,"ax",%progbits
 408              		.align	1
 409              		.p2align 4,,15
 410              		.syntax unified
 411              		.code	16
 412              		.thumb_func
 413              		.fpu softvfp
 414              		.type	osalThreadQueueObjectInit, %function
 415              	osalThreadQueueObjectInit:
 416              	.LFB172:
 417              		.loc 9 753 0
 418              		.cfi_startproc
 419              		@ args = 0, pretend = 0, frame = 8
 420              		@ frame_needed = 0, uses_anonymous_args = 0
 421 0000 00B5     		push	{lr}
 422              		.cfi_def_cfa_offset 4
 423              		.cfi_offset 14, -4
 424 0002 83B0     		sub	sp, sp, #12
 425              		.cfi_def_cfa_offset 16
 426 0004 0190     		str	r0, [sp, #4]
 427              		.loc 9 755 0
 428 0006 019B     		ldr	r3, [sp, #4]
 429 0008 1800     		movs	r0, r3
 430 000a FFF7FEFF 		bl	chThdQueueObjectInit
 431              		.loc 9 756 0
 432 000e C046     		nop
 433 0010 03B0     		add	sp, sp, #12
 434              		@ sp needed
 435 0012 00BD     		pop	{pc}
 436              		.cfi_endproc
 437              	.LFE172:
 438              		.size	osalThreadQueueObjectInit, .-osalThreadQueueObjectInit
 439              		.section	.text.osalThreadEnqueueTimeoutS,"ax",%progbits
 440              		.align	1
 441              		.p2align 4,,15
 442              		.syntax unified
 443              		.code	16
 444              		.thumb_func
 445              		.fpu softvfp
 446              		.type	osalThreadEnqueueTimeoutS, %function
 447              	osalThreadEnqueueTimeoutS:
 448              	.LFB173:
 449              		.loc 9 782 0
 450              		.cfi_startproc
 451              		@ args = 0, pretend = 0, frame = 8
 452              		@ frame_needed = 0, uses_anonymous_args = 0
 453 0000 00B5     		push	{lr}
 454              		.cfi_def_cfa_offset 4
 455              		.cfi_offset 14, -4
 456 0002 83B0     		sub	sp, sp, #12
ARM GAS  /tmp/cctghmAI.s 			page 9


 457              		.cfi_def_cfa_offset 16
 458 0004 0190     		str	r0, [sp, #4]
 459 0006 0A00     		movs	r2, r1
 460 0008 6B46     		mov	r3, sp
 461 000a 0233     		adds	r3, r3, #2
 462 000c 1A80     		strh	r2, [r3]
 463              		.loc 9 784 0
 464 000e 6B46     		mov	r3, sp
 465 0010 0233     		adds	r3, r3, #2
 466 0012 1A88     		ldrh	r2, [r3]
 467 0014 019B     		ldr	r3, [sp, #4]
 468 0016 1100     		movs	r1, r2
 469 0018 1800     		movs	r0, r3
 470 001a FFF7FEFF 		bl	chThdEnqueueTimeoutS
 471 001e 0300     		movs	r3, r0
 472              		.loc 9 785 0
 473 0020 1800     		movs	r0, r3
 474 0022 03B0     		add	sp, sp, #12
 475              		@ sp needed
 476 0024 00BD     		pop	{pc}
 477              		.cfi_endproc
 478              	.LFE173:
 479              		.size	osalThreadEnqueueTimeoutS, .-osalThreadEnqueueTimeoutS
 480 0026 C046     		.section	.text.osalThreadDequeueNextI,"ax",%progbits
 481              		.align	1
 482              		.p2align 4,,15
 483              		.syntax unified
 484              		.code	16
 485              		.thumb_func
 486              		.fpu softvfp
 487              		.type	osalThreadDequeueNextI, %function
 488              	osalThreadDequeueNextI:
 489              	.LFB174:
 490              		.loc 9 795 0
 491              		.cfi_startproc
 492              		@ args = 0, pretend = 0, frame = 8
 493              		@ frame_needed = 0, uses_anonymous_args = 0
 494 0000 00B5     		push	{lr}
 495              		.cfi_def_cfa_offset 4
 496              		.cfi_offset 14, -4
 497 0002 83B0     		sub	sp, sp, #12
 498              		.cfi_def_cfa_offset 16
 499 0004 0190     		str	r0, [sp, #4]
 500 0006 0091     		str	r1, [sp]
 501              		.loc 9 797 0
 502 0008 009A     		ldr	r2, [sp]
 503 000a 019B     		ldr	r3, [sp, #4]
 504 000c 1100     		movs	r1, r2
 505 000e 1800     		movs	r0, r3
 506 0010 FFF7FEFF 		bl	chThdDequeueNextI
 507              		.loc 9 798 0
 508 0014 C046     		nop
 509 0016 03B0     		add	sp, sp, #12
 510              		@ sp needed
 511 0018 00BD     		pop	{pc}
 512              		.cfi_endproc
 513              	.LFE174:
ARM GAS  /tmp/cctghmAI.s 			page 10


 514              		.size	osalThreadDequeueNextI, .-osalThreadDequeueNextI
 515 001a C046     		.section	.text.osalThreadDequeueAllI,"ax",%progbits
 516              		.align	1
 517              		.p2align 4,,15
 518              		.syntax unified
 519              		.code	16
 520              		.thumb_func
 521              		.fpu softvfp
 522              		.type	osalThreadDequeueAllI, %function
 523              	osalThreadDequeueAllI:
 524              	.LFB175:
 525              		.loc 9 808 0
 526              		.cfi_startproc
 527              		@ args = 0, pretend = 0, frame = 8
 528              		@ frame_needed = 0, uses_anonymous_args = 0
 529 0000 00B5     		push	{lr}
 530              		.cfi_def_cfa_offset 4
 531              		.cfi_offset 14, -4
 532 0002 83B0     		sub	sp, sp, #12
 533              		.cfi_def_cfa_offset 16
 534 0004 0190     		str	r0, [sp, #4]
 535 0006 0091     		str	r1, [sp]
 536              		.loc 9 810 0
 537 0008 009A     		ldr	r2, [sp]
 538 000a 019B     		ldr	r3, [sp, #4]
 539 000c 1100     		movs	r1, r2
 540 000e 1800     		movs	r0, r3
 541 0010 FFF7FEFF 		bl	chThdDequeueAllI
 542              		.loc 9 811 0
 543 0014 C046     		nop
 544 0016 03B0     		add	sp, sp, #12
 545              		@ sp needed
 546 0018 00BD     		pop	{pc}
 547              		.cfi_endproc
 548              	.LFE175:
 549              		.size	osalThreadDequeueAllI, .-osalThreadDequeueAllI
 550 001a C046     		.section	.text.ibqObjectInit,"ax",%progbits
 551              		.align	1
 552              		.p2align 4,,15
 553              		.global	ibqObjectInit
 554              		.syntax unified
 555              		.code	16
 556              		.thumb_func
 557              		.fpu softvfp
 558              		.type	ibqObjectInit, %function
 559              	ibqObjectInit:
 560              	.LFB182:
 561              		.file 10 "ChibiOS/os/hal/src/hal_buffers.c"
 562              		.loc 10 77 0
 563              		.cfi_startproc
 564              		@ args = 8, pretend = 0, frame = 16
 565              		@ frame_needed = 0, uses_anonymous_args = 0
 566 0000 00B5     		push	{lr}
 567              		.cfi_def_cfa_offset 4
 568              		.cfi_offset 14, -4
 569 0002 85B0     		sub	sp, sp, #20
 570              		.cfi_def_cfa_offset 24
ARM GAS  /tmp/cctghmAI.s 			page 11


 571 0004 0390     		str	r0, [sp, #12]
 572 0006 0291     		str	r1, [sp, #8]
 573 0008 0192     		str	r2, [sp, #4]
 574 000a 0093     		str	r3, [sp]
 575              		.loc 10 79 0
 576 000c 039B     		ldr	r3, [sp, #12]
 577 000e 002B     		cmp	r3, #0
 578 0010 05D0     		beq	.L28
 579              		.loc 10 79 0 is_stmt 0 discriminator 3
 580 0012 029B     		ldr	r3, [sp, #8]
 581 0014 002B     		cmp	r3, #0
 582 0016 02D0     		beq	.L28
 583              		.loc 10 79 0 discriminator 5
 584 0018 019B     		ldr	r3, [sp, #4]
 585 001a 012B     		cmp	r3, #1
 586 001c 03D8     		bhi	.L29
 587              	.L28:
 588              		.loc 10 79 0 discriminator 6
 589 001e 194B     		ldr	r3, .L30
 590 0020 1800     		movs	r0, r3
 591 0022 FFF7FEFF 		bl	chSysHalt
 592              	.L29:
 593              		.loc 10 81 0 is_stmt 1
 594 0026 039B     		ldr	r3, [sp, #12]
 595 0028 1800     		movs	r0, r3
 596 002a FFF7FEFF 		bl	osalThreadQueueObjectInit
 597              		.loc 10 82 0
 598 002e 039B     		ldr	r3, [sp, #12]
 599 0030 0022     		movs	r2, #0
 600 0032 9A60     		str	r2, [r3, #8]
 601              		.loc 10 83 0
 602 0034 039B     		ldr	r3, [sp, #12]
 603 0036 029A     		ldr	r2, [sp, #8]
 604 0038 1A61     		str	r2, [r3, #16]
 605              		.loc 10 84 0
 606 003a 039B     		ldr	r3, [sp, #12]
 607 003c 029A     		ldr	r2, [sp, #8]
 608 003e DA60     		str	r2, [r3, #12]
 609              		.loc 10 85 0
 610 0040 019B     		ldr	r3, [sp, #4]
 611 0042 0433     		adds	r3, r3, #4
 612 0044 009A     		ldr	r2, [sp]
 613 0046 5343     		muls	r3, r2
 614 0048 029A     		ldr	r2, [sp, #8]
 615 004a D218     		adds	r2, r2, r3
 616 004c 039B     		ldr	r3, [sp, #12]
 617 004e 5A61     		str	r2, [r3, #20]
 618              		.loc 10 86 0
 619 0050 019B     		ldr	r3, [sp, #4]
 620 0052 1A1D     		adds	r2, r3, #4
 621 0054 039B     		ldr	r3, [sp, #12]
 622 0056 9A61     		str	r2, [r3, #24]
 623              		.loc 10 87 0
 624 0058 039B     		ldr	r3, [sp, #12]
 625 005a 009A     		ldr	r2, [sp]
 626 005c DA61     		str	r2, [r3, #28]
 627              		.loc 10 88 0
ARM GAS  /tmp/cctghmAI.s 			page 12


 628 005e 039B     		ldr	r3, [sp, #12]
 629 0060 029A     		ldr	r2, [sp, #8]
 630 0062 1A62     		str	r2, [r3, #32]
 631              		.loc 10 89 0
 632 0064 039B     		ldr	r3, [sp, #12]
 633 0066 0022     		movs	r2, #0
 634 0068 5A62     		str	r2, [r3, #36]
 635              		.loc 10 90 0
 636 006a 039B     		ldr	r3, [sp, #12]
 637 006c 0022     		movs	r2, #0
 638 006e 9A62     		str	r2, [r3, #40]
 639              		.loc 10 91 0
 640 0070 039B     		ldr	r3, [sp, #12]
 641 0072 069A     		ldr	r2, [sp, #24]
 642 0074 DA62     		str	r2, [r3, #44]
 643              		.loc 10 92 0
 644 0076 039B     		ldr	r3, [sp, #12]
 645 0078 079A     		ldr	r2, [sp, #28]
 646 007a 1A63     		str	r2, [r3, #48]
 647              		.loc 10 93 0
 648 007c C046     		nop
 649 007e 05B0     		add	sp, sp, #20
 650              		@ sp needed
 651 0080 00BD     		pop	{pc}
 652              	.L31:
 653 0082 C046     		.align	2
 654              	.L30:
 655 0084 00000000 		.word	__func__.6591
 656              		.cfi_endproc
 657              	.LFE182:
 658              		.size	ibqObjectInit, .-ibqObjectInit
 659              		.section	.text.ibqResetI,"ax",%progbits
 660              		.align	1
 661              		.p2align 4,,15
 662              		.global	ibqResetI
 663              		.syntax unified
 664              		.code	16
 665              		.thumb_func
 666              		.fpu softvfp
 667              		.type	ibqResetI, %function
 668              	ibqResetI:
 669              	.LFB183:
 670              		.loc 10 106 0
 671              		.cfi_startproc
 672              		@ args = 0, pretend = 0, frame = 8
 673              		@ frame_needed = 0, uses_anonymous_args = 0
 674 0000 00B5     		push	{lr}
 675              		.cfi_def_cfa_offset 4
 676              		.cfi_offset 14, -4
 677 0002 83B0     		sub	sp, sp, #12
 678              		.cfi_def_cfa_offset 16
 679 0004 0190     		str	r0, [sp, #4]
 680              		.loc 10 108 0
 681 0006 FFF7FEFF 		bl	chDbgCheckClassI
 682              		.loc 10 110 0
 683 000a 019B     		ldr	r3, [sp, #4]
 684 000c 0022     		movs	r2, #0
ARM GAS  /tmp/cctghmAI.s 			page 13


 685 000e 9A60     		str	r2, [r3, #8]
 686              		.loc 10 111 0
 687 0010 019B     		ldr	r3, [sp, #4]
 688 0012 1A6A     		ldr	r2, [r3, #32]
 689 0014 019B     		ldr	r3, [sp, #4]
 690 0016 1A61     		str	r2, [r3, #16]
 691              		.loc 10 112 0
 692 0018 019B     		ldr	r3, [sp, #4]
 693 001a 1A6A     		ldr	r2, [r3, #32]
 694 001c 019B     		ldr	r3, [sp, #4]
 695 001e DA60     		str	r2, [r3, #12]
 696              		.loc 10 113 0
 697 0020 019B     		ldr	r3, [sp, #4]
 698 0022 0022     		movs	r2, #0
 699 0024 5A62     		str	r2, [r3, #36]
 700              		.loc 10 114 0
 701 0026 019B     		ldr	r3, [sp, #4]
 702 0028 0022     		movs	r2, #0
 703 002a 9A62     		str	r2, [r3, #40]
 704              		.loc 10 115 0
 705 002c 019A     		ldr	r2, [sp, #4]
 706 002e 0223     		movs	r3, #2
 707 0030 5B42     		rsbs	r3, r3, #0
 708 0032 1900     		movs	r1, r3
 709 0034 1000     		movs	r0, r2
 710 0036 FFF7FEFF 		bl	osalThreadDequeueAllI
 711              		.loc 10 116 0
 712 003a C046     		nop
 713 003c 03B0     		add	sp, sp, #12
 714              		@ sp needed
 715 003e 00BD     		pop	{pc}
 716              		.cfi_endproc
 717              	.LFE183:
 718              		.size	ibqResetI, .-ibqResetI
 719              		.section	.text.ibqGetEmptyBufferI,"ax",%progbits
 720              		.align	1
 721              		.p2align 4,,15
 722              		.global	ibqGetEmptyBufferI
 723              		.syntax unified
 724              		.code	16
 725              		.thumb_func
 726              		.fpu softvfp
 727              		.type	ibqGetEmptyBufferI, %function
 728              	ibqGetEmptyBufferI:
 729              	.LFB184:
 730              		.loc 10 128 0
 731              		.cfi_startproc
 732              		@ args = 0, pretend = 0, frame = 8
 733              		@ frame_needed = 0, uses_anonymous_args = 0
 734 0000 00B5     		push	{lr}
 735              		.cfi_def_cfa_offset 4
 736              		.cfi_offset 14, -4
 737 0002 83B0     		sub	sp, sp, #12
 738              		.cfi_def_cfa_offset 16
 739 0004 0190     		str	r0, [sp, #4]
 740              		.loc 10 130 0
 741 0006 FFF7FEFF 		bl	chDbgCheckClassI
ARM GAS  /tmp/cctghmAI.s 			page 14


 742              		.loc 10 132 0
 743 000a 019B     		ldr	r3, [sp, #4]
 744 000c DA68     		ldr	r2, [r3, #12]
 745 000e 019B     		ldr	r3, [sp, #4]
 746 0010 1B69     		ldr	r3, [r3, #16]
 747 0012 9A42     		cmp	r2, r3
 748 0014 05D1     		bne	.L34
 749              		.loc 10 132 0 is_stmt 0 discriminator 1
 750 0016 019B     		ldr	r3, [sp, #4]
 751 0018 9B68     		ldr	r3, [r3, #8]
 752 001a 002B     		cmp	r3, #0
 753 001c 01D0     		beq	.L34
 754              		.loc 10 132 0 discriminator 3
 755 001e 0123     		movs	r3, #1
 756 0020 00E0     		b	.L35
 757              	.L34:
 758              		.loc 10 132 0 discriminator 4
 759 0022 0023     		movs	r3, #0
 760              	.L35:
 761              		.loc 10 132 0 discriminator 6
 762 0024 1A1C     		adds	r2, r3, #0
 763 0026 0123     		movs	r3, #1
 764 0028 1340     		ands	r3, r2
 765 002a DBB2     		uxtb	r3, r3
 766 002c 002B     		cmp	r3, #0
 767 002e 01D0     		beq	.L36
 768              		.loc 10 133 0 is_stmt 1
 769 0030 0023     		movs	r3, #0
 770 0032 02E0     		b	.L37
 771              	.L36:
 772              		.loc 10 136 0
 773 0034 019B     		ldr	r3, [sp, #4]
 774 0036 DB68     		ldr	r3, [r3, #12]
 775 0038 0433     		adds	r3, r3, #4
 776              	.L37:
 777              		.loc 10 137 0
 778 003a 1800     		movs	r0, r3
 779 003c 03B0     		add	sp, sp, #12
 780              		@ sp needed
 781 003e 00BD     		pop	{pc}
 782              		.cfi_endproc
 783              	.LFE184:
 784              		.size	ibqGetEmptyBufferI, .-ibqGetEmptyBufferI
 785              		.section	.text.ibqPostFullBufferI,"ax",%progbits
 786              		.align	1
 787              		.p2align 4,,15
 788              		.global	ibqPostFullBufferI
 789              		.syntax unified
 790              		.code	16
 791              		.thumb_func
 792              		.fpu softvfp
 793              		.type	ibqPostFullBufferI, %function
 794              	ibqPostFullBufferI:
 795              	.LFB185:
 796              		.loc 10 147 0
 797              		.cfi_startproc
 798              		@ args = 0, pretend = 0, frame = 8
ARM GAS  /tmp/cctghmAI.s 			page 15


 799              		@ frame_needed = 0, uses_anonymous_args = 0
 800 0000 00B5     		push	{lr}
 801              		.cfi_def_cfa_offset 4
 802              		.cfi_offset 14, -4
 803 0002 83B0     		sub	sp, sp, #12
 804              		.cfi_def_cfa_offset 16
 805 0004 0190     		str	r0, [sp, #4]
 806 0006 0091     		str	r1, [sp]
 807              		.loc 10 149 0
 808 0008 FFF7FEFF 		bl	chDbgCheckClassI
 809              		.loc 10 151 0
 810 000c 009B     		ldr	r3, [sp]
 811 000e 002B     		cmp	r3, #0
 812 0010 05D0     		beq	.L39
 813              		.loc 10 151 0 is_stmt 0 discriminator 3
 814 0012 019B     		ldr	r3, [sp, #4]
 815 0014 9B69     		ldr	r3, [r3, #24]
 816 0016 1A1F     		subs	r2, r3, #4
 817 0018 009B     		ldr	r3, [sp]
 818 001a 9A42     		cmp	r2, r3
 819 001c 03D2     		bcs	.L45
 820              	.L39:
 821              		.loc 10 151 0 discriminator 4
 822 001e 1E4B     		ldr	r3, .L46
 823 0020 1800     		movs	r0, r3
 824 0022 FFF7FEFF 		bl	chSysHalt
 825              	.L45:
 826              		.loc 10 152 0 is_stmt 1 discriminator 1
 827 0026 019B     		ldr	r3, [sp, #4]
 828 0028 DA68     		ldr	r2, [r3, #12]
 829 002a 019B     		ldr	r3, [sp, #4]
 830 002c 1B69     		ldr	r3, [r3, #16]
 831 002e 9A42     		cmp	r2, r3
 832 0030 05D1     		bne	.L41
 833              		.loc 10 152 0 is_stmt 0 discriminator 2
 834 0032 019B     		ldr	r3, [sp, #4]
 835 0034 9B68     		ldr	r3, [r3, #8]
 836 0036 002B     		cmp	r3, #0
 837 0038 01D0     		beq	.L41
 838              		.loc 10 152 0 discriminator 4
 839 003a 0123     		movs	r3, #1
 840 003c 00E0     		b	.L42
 841              	.L41:
 842              		.loc 10 152 0 discriminator 5
 843 003e 0023     		movs	r3, #0
 844              	.L42:
 845              		.loc 10 152 0 discriminator 7
 846 0040 1A1C     		adds	r2, r3, #0
 847 0042 0123     		movs	r3, #1
 848 0044 1340     		ands	r3, r2
 849 0046 DBB2     		uxtb	r3, r3
 850 0048 002B     		cmp	r3, #0
 851 004a 03D0     		beq	.L43
 852              		.loc 10 152 0 discriminator 8
 853 004c 124B     		ldr	r3, .L46
 854 004e 1800     		movs	r0, r3
 855 0050 FFF7FEFF 		bl	chSysHalt
ARM GAS  /tmp/cctghmAI.s 			page 16


 856              	.L43:
 857              		.loc 10 155 0 is_stmt 1
 858 0054 019B     		ldr	r3, [sp, #4]
 859 0056 DB68     		ldr	r3, [r3, #12]
 860 0058 009A     		ldr	r2, [sp]
 861 005a 1A60     		str	r2, [r3]
 862              		.loc 10 158 0
 863 005c 019B     		ldr	r3, [sp, #4]
 864 005e 9B68     		ldr	r3, [r3, #8]
 865 0060 5A1C     		adds	r2, r3, #1
 866 0062 019B     		ldr	r3, [sp, #4]
 867 0064 9A60     		str	r2, [r3, #8]
 868              		.loc 10 159 0
 869 0066 019B     		ldr	r3, [sp, #4]
 870 0068 DA68     		ldr	r2, [r3, #12]
 871 006a 019B     		ldr	r3, [sp, #4]
 872 006c 9B69     		ldr	r3, [r3, #24]
 873 006e D218     		adds	r2, r2, r3
 874 0070 019B     		ldr	r3, [sp, #4]
 875 0072 DA60     		str	r2, [r3, #12]
 876              		.loc 10 160 0
 877 0074 019B     		ldr	r3, [sp, #4]
 878 0076 DA68     		ldr	r2, [r3, #12]
 879 0078 019B     		ldr	r3, [sp, #4]
 880 007a 5B69     		ldr	r3, [r3, #20]
 881 007c 9A42     		cmp	r2, r3
 882 007e 03D3     		bcc	.L44
 883              		.loc 10 161 0
 884 0080 019B     		ldr	r3, [sp, #4]
 885 0082 1A6A     		ldr	r2, [r3, #32]
 886 0084 019B     		ldr	r3, [sp, #4]
 887 0086 DA60     		str	r2, [r3, #12]
 888              	.L44:
 889              		.loc 10 165 0
 890 0088 019B     		ldr	r3, [sp, #4]
 891 008a 0021     		movs	r1, #0
 892 008c 1800     		movs	r0, r3
 893 008e FFF7FEFF 		bl	osalThreadDequeueNextI
 894              		.loc 10 166 0
 895 0092 C046     		nop
 896 0094 03B0     		add	sp, sp, #12
 897              		@ sp needed
 898 0096 00BD     		pop	{pc}
 899              	.L47:
 900              		.align	2
 901              	.L46:
 902 0098 00000000 		.word	__func__.6602
 903              		.cfi_endproc
 904              	.LFE185:
 905              		.size	ibqPostFullBufferI, .-ibqPostFullBufferI
 906              		.section	.text.ibqGetFullBufferTimeout,"ax",%progbits
 907              		.align	1
 908              		.p2align 4,,15
 909              		.global	ibqGetFullBufferTimeout
 910              		.syntax unified
 911              		.code	16
 912              		.thumb_func
ARM GAS  /tmp/cctghmAI.s 			page 17


 913              		.fpu softvfp
 914              		.type	ibqGetFullBufferTimeout, %function
 915              	ibqGetFullBufferTimeout:
 916              	.LFB186:
 917              		.loc 10 189 0
 918              		.cfi_startproc
 919              		@ args = 0, pretend = 0, frame = 16
 920              		@ frame_needed = 0, uses_anonymous_args = 0
 921 0000 00B5     		push	{lr}
 922              		.cfi_def_cfa_offset 4
 923              		.cfi_offset 14, -4
 924 0002 85B0     		sub	sp, sp, #20
 925              		.cfi_def_cfa_offset 24
 926 0004 0190     		str	r0, [sp, #4]
 927 0006 0A00     		movs	r2, r1
 928 0008 6B46     		mov	r3, sp
 929 000a 0233     		adds	r3, r3, #2
 930 000c 1A80     		strh	r2, [r3]
 931              		.loc 10 192 0
 932 000e FFF7FEFF 		bl	osalSysLock
 933              		.loc 10 193 0
 934 0012 6B46     		mov	r3, sp
 935 0014 0233     		adds	r3, r3, #2
 936 0016 1A88     		ldrh	r2, [r3]
 937 0018 019B     		ldr	r3, [sp, #4]
 938 001a 1100     		movs	r1, r2
 939 001c 1800     		movs	r0, r3
 940 001e FFF7FEFF 		bl	ibqGetFullBufferTimeoutS
 941 0022 0300     		movs	r3, r0
 942 0024 0393     		str	r3, [sp, #12]
 943              		.loc 10 194 0
 944 0026 FFF7FEFF 		bl	osalSysUnlock
 945              		.loc 10 196 0
 946 002a 039B     		ldr	r3, [sp, #12]
 947              		.loc 10 197 0
 948 002c 1800     		movs	r0, r3
 949 002e 05B0     		add	sp, sp, #20
 950              		@ sp needed
 951 0030 00BD     		pop	{pc}
 952              		.cfi_endproc
 953              	.LFE186:
 954              		.size	ibqGetFullBufferTimeout, .-ibqGetFullBufferTimeout
 955 0032 C046     		.section	.text.ibqGetFullBufferTimeoutS,"ax",%progbits
 956              		.align	1
 957              		.p2align 4,,15
 958              		.global	ibqGetFullBufferTimeoutS
 959              		.syntax unified
 960              		.code	16
 961              		.thumb_func
 962              		.fpu softvfp
 963              		.type	ibqGetFullBufferTimeoutS, %function
 964              	ibqGetFullBufferTimeoutS:
 965              	.LFB187:
 966              		.loc 10 220 0
 967              		.cfi_startproc
 968              		@ args = 0, pretend = 0, frame = 16
 969              		@ frame_needed = 0, uses_anonymous_args = 0
ARM GAS  /tmp/cctghmAI.s 			page 18


 970 0000 00B5     		push	{lr}
 971              		.cfi_def_cfa_offset 4
 972              		.cfi_offset 14, -4
 973 0002 85B0     		sub	sp, sp, #20
 974              		.cfi_def_cfa_offset 24
 975 0004 0190     		str	r0, [sp, #4]
 976 0006 0A00     		movs	r2, r1
 977 0008 6B46     		mov	r3, sp
 978 000a 0233     		adds	r3, r3, #2
 979 000c 1A80     		strh	r2, [r3]
 980              		.loc 10 222 0
 981 000e FFF7FEFF 		bl	chDbgCheckClassS
 982              		.loc 10 224 0
 983 0012 0EE0     		b	.L51
 984              	.L53:
 985              	.LBB10:
 986              		.loc 10 225 0
 987 0014 019A     		ldr	r2, [sp, #4]
 988 0016 6B46     		mov	r3, sp
 989 0018 0233     		adds	r3, r3, #2
 990 001a 1B88     		ldrh	r3, [r3]
 991 001c 1900     		movs	r1, r3
 992 001e 1000     		movs	r0, r2
 993 0020 FFF7FEFF 		bl	osalThreadEnqueueTimeoutS
 994 0024 0300     		movs	r3, r0
 995 0026 0393     		str	r3, [sp, #12]
 996              		.loc 10 226 0
 997 0028 039B     		ldr	r3, [sp, #12]
 998 002a 002B     		cmp	r3, #0
 999 002c 01DA     		bge	.L51
 1000              		.loc 10 227 0
 1001 002e 039B     		ldr	r3, [sp, #12]
 1002 0030 19E0     		b	.L52
 1003              	.L51:
 1004              	.LBE10:
 1005              		.loc 10 224 0
 1006 0032 019B     		ldr	r3, [sp, #4]
 1007 0034 9B68     		ldr	r3, [r3, #8]
 1008 0036 002B     		cmp	r3, #0
 1009 0038 ECD0     		beq	.L53
 1010              		.loc 10 231 0 discriminator 1
 1011 003a 019B     		ldr	r3, [sp, #4]
 1012 003c 9B68     		ldr	r3, [r3, #8]
 1013 003e 002B     		cmp	r3, #0
 1014 0040 03D1     		bne	.L54
 1015              		.loc 10 231 0 is_stmt 0 discriminator 2
 1016 0042 0A4B     		ldr	r3, .L55
 1017 0044 1800     		movs	r0, r3
 1018 0046 FFF7FEFF 		bl	chSysHalt
 1019              	.L54:
 1020              		.loc 10 234 0 is_stmt 1
 1021 004a 019B     		ldr	r3, [sp, #4]
 1022 004c 1B69     		ldr	r3, [r3, #16]
 1023 004e 1A1D     		adds	r2, r3, #4
 1024 0050 019B     		ldr	r3, [sp, #4]
 1025 0052 5A62     		str	r2, [r3, #36]
 1026              		.loc 10 235 0
ARM GAS  /tmp/cctghmAI.s 			page 19


 1027 0054 019B     		ldr	r3, [sp, #4]
 1028 0056 5A6A     		ldr	r2, [r3, #36]
 1029 0058 019B     		ldr	r3, [sp, #4]
 1030 005a 1B69     		ldr	r3, [r3, #16]
 1031 005c 1B68     		ldr	r3, [r3]
 1032 005e D218     		adds	r2, r2, r3
 1033 0060 019B     		ldr	r3, [sp, #4]
 1034 0062 9A62     		str	r2, [r3, #40]
 1035              		.loc 10 237 0
 1036 0064 0023     		movs	r3, #0
 1037              	.L52:
 1038              		.loc 10 238 0
 1039 0066 1800     		movs	r0, r3
 1040 0068 05B0     		add	sp, sp, #20
 1041              		@ sp needed
 1042 006a 00BD     		pop	{pc}
 1043              	.L56:
 1044              		.align	2
 1045              	.L55:
 1046 006c 00000000 		.word	__func__.6616
 1047              		.cfi_endproc
 1048              	.LFE187:
 1049              		.size	ibqGetFullBufferTimeoutS, .-ibqGetFullBufferTimeoutS
 1050              		.section	.text.ibqReleaseEmptyBuffer,"ax",%progbits
 1051              		.align	1
 1052              		.p2align 4,,15
 1053              		.global	ibqReleaseEmptyBuffer
 1054              		.syntax unified
 1055              		.code	16
 1056              		.thumb_func
 1057              		.fpu softvfp
 1058              		.type	ibqReleaseEmptyBuffer, %function
 1059              	ibqReleaseEmptyBuffer:
 1060              	.LFB188:
 1061              		.loc 10 248 0
 1062              		.cfi_startproc
 1063              		@ args = 0, pretend = 0, frame = 8
 1064              		@ frame_needed = 0, uses_anonymous_args = 0
 1065 0000 00B5     		push	{lr}
 1066              		.cfi_def_cfa_offset 4
 1067              		.cfi_offset 14, -4
 1068 0002 83B0     		sub	sp, sp, #12
 1069              		.cfi_def_cfa_offset 16
 1070 0004 0190     		str	r0, [sp, #4]
 1071              		.loc 10 250 0
 1072 0006 FFF7FEFF 		bl	osalSysLock
 1073              		.loc 10 251 0
 1074 000a 019B     		ldr	r3, [sp, #4]
 1075 000c 1800     		movs	r0, r3
 1076 000e FFF7FEFF 		bl	ibqReleaseEmptyBufferS
 1077              		.loc 10 252 0
 1078 0012 FFF7FEFF 		bl	osalSysUnlock
 1079              		.loc 10 253 0
 1080 0016 C046     		nop
 1081 0018 03B0     		add	sp, sp, #12
 1082              		@ sp needed
 1083 001a 00BD     		pop	{pc}
ARM GAS  /tmp/cctghmAI.s 			page 20


 1084              		.cfi_endproc
 1085              	.LFE188:
 1086              		.size	ibqReleaseEmptyBuffer, .-ibqReleaseEmptyBuffer
 1087              		.section	.text.ibqReleaseEmptyBufferS,"ax",%progbits
 1088              		.align	1
 1089              		.p2align 4,,15
 1090              		.global	ibqReleaseEmptyBufferS
 1091              		.syntax unified
 1092              		.code	16
 1093              		.thumb_func
 1094              		.fpu softvfp
 1095              		.type	ibqReleaseEmptyBufferS, %function
 1096              	ibqReleaseEmptyBufferS:
 1097              	.LFB189:
 1098              		.loc 10 263 0
 1099              		.cfi_startproc
 1100              		@ args = 0, pretend = 0, frame = 8
 1101              		@ frame_needed = 0, uses_anonymous_args = 0
 1102 0000 00B5     		push	{lr}
 1103              		.cfi_def_cfa_offset 4
 1104              		.cfi_offset 14, -4
 1105 0002 83B0     		sub	sp, sp, #12
 1106              		.cfi_def_cfa_offset 16
 1107 0004 0190     		str	r0, [sp, #4]
 1108              		.loc 10 265 0
 1109 0006 FFF7FEFF 		bl	chDbgCheckClassS
 1110              		.loc 10 266 0
 1111 000a 019B     		ldr	r3, [sp, #4]
 1112 000c 9B68     		ldr	r3, [r3, #8]
 1113 000e 002B     		cmp	r3, #0
 1114 0010 03D1     		bne	.L59
 1115              		.loc 10 266 0 is_stmt 0 discriminator 2
 1116 0012 144B     		ldr	r3, .L63
 1117 0014 1800     		movs	r0, r3
 1118 0016 FFF7FEFF 		bl	chSysHalt
 1119              	.L59:
 1120              		.loc 10 269 0 is_stmt 1
 1121 001a 019B     		ldr	r3, [sp, #4]
 1122 001c 9B68     		ldr	r3, [r3, #8]
 1123 001e 5A1E     		subs	r2, r3, #1
 1124 0020 019B     		ldr	r3, [sp, #4]
 1125 0022 9A60     		str	r2, [r3, #8]
 1126              		.loc 10 270 0
 1127 0024 019B     		ldr	r3, [sp, #4]
 1128 0026 1A69     		ldr	r2, [r3, #16]
 1129 0028 019B     		ldr	r3, [sp, #4]
 1130 002a 9B69     		ldr	r3, [r3, #24]
 1131 002c D218     		adds	r2, r2, r3
 1132 002e 019B     		ldr	r3, [sp, #4]
 1133 0030 1A61     		str	r2, [r3, #16]
 1134              		.loc 10 271 0
 1135 0032 019B     		ldr	r3, [sp, #4]
 1136 0034 1A69     		ldr	r2, [r3, #16]
 1137 0036 019B     		ldr	r3, [sp, #4]
 1138 0038 5B69     		ldr	r3, [r3, #20]
 1139 003a 9A42     		cmp	r2, r3
 1140 003c 03D3     		bcc	.L60
ARM GAS  /tmp/cctghmAI.s 			page 21


 1141              		.loc 10 272 0
 1142 003e 019B     		ldr	r3, [sp, #4]
 1143 0040 1A6A     		ldr	r2, [r3, #32]
 1144 0042 019B     		ldr	r3, [sp, #4]
 1145 0044 1A61     		str	r2, [r3, #16]
 1146              	.L60:
 1147              		.loc 10 276 0
 1148 0046 019B     		ldr	r3, [sp, #4]
 1149 0048 0022     		movs	r2, #0
 1150 004a 5A62     		str	r2, [r3, #36]
 1151              		.loc 10 279 0
 1152 004c 019B     		ldr	r3, [sp, #4]
 1153 004e DB6A     		ldr	r3, [r3, #44]
 1154 0050 002B     		cmp	r3, #0
 1155 0052 04D0     		beq	.L62
 1156              		.loc 10 280 0
 1157 0054 019B     		ldr	r3, [sp, #4]
 1158 0056 DB6A     		ldr	r3, [r3, #44]
 1159 0058 019A     		ldr	r2, [sp, #4]
 1160 005a 1000     		movs	r0, r2
 1161 005c 9847     		blx	r3
 1162              	.LVL0:
 1163              	.L62:
 1164              		.loc 10 282 0
 1165 005e C046     		nop
 1166 0060 03B0     		add	sp, sp, #12
 1167              		@ sp needed
 1168 0062 00BD     		pop	{pc}
 1169              	.L64:
 1170              		.align	2
 1171              	.L63:
 1172 0064 00000000 		.word	__func__.6623
 1173              		.cfi_endproc
 1174              	.LFE189:
 1175              		.size	ibqReleaseEmptyBufferS, .-ibqReleaseEmptyBufferS
 1176              		.section	.text.ibqGetTimeout,"ax",%progbits
 1177              		.align	1
 1178              		.p2align 4,,15
 1179              		.global	ibqGetTimeout
 1180              		.syntax unified
 1181              		.code	16
 1182              		.thumb_func
 1183              		.fpu softvfp
 1184              		.type	ibqGetTimeout, %function
 1185              	ibqGetTimeout:
 1186              	.LFB190:
 1187              		.loc 10 302 0
 1188              		.cfi_startproc
 1189              		@ args = 0, pretend = 0, frame = 16
 1190              		@ frame_needed = 0, uses_anonymous_args = 0
 1191 0000 00B5     		push	{lr}
 1192              		.cfi_def_cfa_offset 4
 1193              		.cfi_offset 14, -4
 1194 0002 85B0     		sub	sp, sp, #20
 1195              		.cfi_def_cfa_offset 24
 1196 0004 0190     		str	r0, [sp, #4]
 1197 0006 0A00     		movs	r2, r1
ARM GAS  /tmp/cctghmAI.s 			page 22


 1198 0008 6B46     		mov	r3, sp
 1199 000a 0233     		adds	r3, r3, #2
 1200 000c 1A80     		strh	r2, [r3]
 1201              		.loc 10 305 0
 1202 000e FFF7FEFF 		bl	osalSysLock
 1203              		.loc 10 308 0
 1204 0012 019B     		ldr	r3, [sp, #4]
 1205 0014 5B6A     		ldr	r3, [r3, #36]
 1206 0016 002B     		cmp	r3, #0
 1207 0018 10D1     		bne	.L66
 1208              		.loc 10 309 0
 1209 001a 6B46     		mov	r3, sp
 1210 001c 0233     		adds	r3, r3, #2
 1211 001e 1A88     		ldrh	r2, [r3]
 1212 0020 019B     		ldr	r3, [sp, #4]
 1213 0022 1100     		movs	r1, r2
 1214 0024 1800     		movs	r0, r3
 1215 0026 FFF7FEFF 		bl	ibqGetFullBufferTimeoutS
 1216 002a 0300     		movs	r3, r0
 1217 002c 0393     		str	r3, [sp, #12]
 1218              		.loc 10 310 0
 1219 002e 039B     		ldr	r3, [sp, #12]
 1220 0030 002B     		cmp	r3, #0
 1221 0032 03D0     		beq	.L66
 1222              		.loc 10 311 0
 1223 0034 FFF7FEFF 		bl	osalSysUnlock
 1224              		.loc 10 312 0
 1225 0038 039B     		ldr	r3, [sp, #12]
 1226 003a 15E0     		b	.L67
 1227              	.L66:
 1228              		.loc 10 317 0
 1229 003c 019B     		ldr	r3, [sp, #4]
 1230 003e 5B6A     		ldr	r3, [r3, #36]
 1231 0040 1B78     		ldrb	r3, [r3]
 1232 0042 0393     		str	r3, [sp, #12]
 1233              		.loc 10 318 0
 1234 0044 019B     		ldr	r3, [sp, #4]
 1235 0046 5B6A     		ldr	r3, [r3, #36]
 1236 0048 5A1C     		adds	r2, r3, #1
 1237 004a 019B     		ldr	r3, [sp, #4]
 1238 004c 5A62     		str	r2, [r3, #36]
 1239              		.loc 10 322 0
 1240 004e 019B     		ldr	r3, [sp, #4]
 1241 0050 5A6A     		ldr	r2, [r3, #36]
 1242 0052 019B     		ldr	r3, [sp, #4]
 1243 0054 9B6A     		ldr	r3, [r3, #40]
 1244 0056 9A42     		cmp	r2, r3
 1245 0058 03D3     		bcc	.L68
 1246              		.loc 10 323 0
 1247 005a 019B     		ldr	r3, [sp, #4]
 1248 005c 1800     		movs	r0, r3
 1249 005e FFF7FEFF 		bl	ibqReleaseEmptyBufferS
 1250              	.L68:
 1251              		.loc 10 326 0
 1252 0062 FFF7FEFF 		bl	osalSysUnlock
 1253              		.loc 10 327 0
 1254 0066 039B     		ldr	r3, [sp, #12]
ARM GAS  /tmp/cctghmAI.s 			page 23


 1255              	.L67:
 1256              		.loc 10 328 0
 1257 0068 1800     		movs	r0, r3
 1258 006a 05B0     		add	sp, sp, #20
 1259              		@ sp needed
 1260 006c 00BD     		pop	{pc}
 1261              		.cfi_endproc
 1262              	.LFE190:
 1263              		.size	ibqGetTimeout, .-ibqGetTimeout
 1264 006e C046     		.section	.text.ibqReadTimeout,"ax",%progbits
 1265              		.align	1
 1266              		.p2align 4,,15
 1267              		.global	ibqReadTimeout
 1268              		.syntax unified
 1269              		.code	16
 1270              		.thumb_func
 1271              		.fpu softvfp
 1272              		.type	ibqReadTimeout, %function
 1273              	ibqReadTimeout:
 1274              	.LFB191:
 1275              		.loc 10 352 0
 1276              		.cfi_startproc
 1277              		@ args = 0, pretend = 0, frame = 32
 1278              		@ frame_needed = 0, uses_anonymous_args = 0
 1279 0000 00B5     		push	{lr}
 1280              		.cfi_def_cfa_offset 4
 1281              		.cfi_offset 14, -4
 1282 0002 89B0     		sub	sp, sp, #36
 1283              		.cfi_def_cfa_offset 40
 1284 0004 0390     		str	r0, [sp, #12]
 1285 0006 0291     		str	r1, [sp, #8]
 1286 0008 0192     		str	r2, [sp, #4]
 1287 000a 1A00     		movs	r2, r3
 1288 000c 6B46     		mov	r3, sp
 1289 000e 0233     		adds	r3, r3, #2
 1290 0010 1A80     		strh	r2, [r3]
 1291              		.loc 10 353 0
 1292 0012 0023     		movs	r3, #0
 1293 0014 0793     		str	r3, [sp, #28]
 1294              		.loc 10 356 0
 1295 0016 FFF7FEFF 		bl	osalSysLock
 1296              		.loc 10 359 0
 1297 001a FFF7FEFF 		bl	osalOsGetSystemTimeX
 1298 001e 0300     		movs	r3, r0
 1299 0020 1900     		movs	r1, r3
 1300 0022 1223     		movs	r3, #18
 1301 0024 6B44     		add	r3, r3, sp
 1302 0026 6A46     		mov	r2, sp
 1303 0028 0232     		adds	r2, r2, #2
 1304 002a 1288     		ldrh	r2, [r2]
 1305 002c 8A18     		adds	r2, r1, r2
 1306 002e 1A80     		strh	r2, [r3]
 1307              	.L81:
 1308              	.LBB11:
 1309              		.loc 10 365 0
 1310 0030 039B     		ldr	r3, [sp, #12]
 1311 0032 5B6A     		ldr	r3, [r3, #36]
ARM GAS  /tmp/cctghmAI.s 			page 24


 1312 0034 002B     		cmp	r3, #0
 1313 0036 3AD1     		bne	.L70
 1314              	.LBB12:
 1315              		.loc 10 370 0
 1316 0038 6B46     		mov	r3, sp
 1317 003a 0233     		adds	r3, r3, #2
 1318 003c 1B88     		ldrh	r3, [r3]
 1319 003e 464A     		ldr	r2, .L82
 1320 0040 9342     		cmp	r3, r2
 1321 0042 04D0     		beq	.L71
 1322              		.loc 10 370 0 is_stmt 0 discriminator 1
 1323 0044 6B46     		mov	r3, sp
 1324 0046 0233     		adds	r3, r3, #2
 1325 0048 1B88     		ldrh	r3, [r3]
 1326 004a 002B     		cmp	r3, #0
 1327 004c 0AD1     		bne	.L72
 1328              	.L71:
 1329              		.loc 10 371 0 is_stmt 1
 1330 004e 6B46     		mov	r3, sp
 1331 0050 0233     		adds	r3, r3, #2
 1332 0052 1A88     		ldrh	r2, [r3]
 1333 0054 039B     		ldr	r3, [sp, #12]
 1334 0056 1100     		movs	r1, r2
 1335 0058 1800     		movs	r0, r3
 1336 005a FFF7FEFF 		bl	ibqGetFullBufferTimeoutS
 1337 005e 0300     		movs	r3, r0
 1338 0060 0593     		str	r3, [sp, #20]
 1339 0062 1DE0     		b	.L73
 1340              	.L72:
 1341              	.LBB13:
 1342              		.loc 10 374 0
 1343 0064 FFF7FEFF 		bl	osalOsGetSystemTimeX
 1344 0068 0300     		movs	r3, r0
 1345 006a 1900     		movs	r1, r3
 1346 006c 04AB     		add	r3, sp, #16
 1347 006e 1222     		movs	r2, #18
 1348 0070 6A44     		add	r2, r2, sp
 1349 0072 1288     		ldrh	r2, [r2]
 1350 0074 521A     		subs	r2, r2, r1
 1351 0076 1A80     		strh	r2, [r3]
 1352              		.loc 10 379 0
 1353 0078 04AA     		add	r2, sp, #16
 1354 007a 6B46     		mov	r3, sp
 1355 007c 0233     		adds	r3, r3, #2
 1356 007e 1288     		ldrh	r2, [r2]
 1357 0080 1B88     		ldrh	r3, [r3]
 1358 0082 9A42     		cmp	r2, r3
 1359 0084 03D9     		bls	.L74
 1360              		.loc 10 380 0
 1361 0086 FFF7FEFF 		bl	osalSysUnlock
 1362              		.loc 10 381 0
 1363 008a 079B     		ldr	r3, [sp, #28]
 1364 008c 61E0     		b	.L75
 1365              	.L74:
 1366              		.loc 10 383 0
 1367 008e 04AB     		add	r3, sp, #16
 1368 0090 1A88     		ldrh	r2, [r3]
ARM GAS  /tmp/cctghmAI.s 			page 25


 1369 0092 039B     		ldr	r3, [sp, #12]
 1370 0094 1100     		movs	r1, r2
 1371 0096 1800     		movs	r0, r3
 1372 0098 FFF7FEFF 		bl	ibqGetFullBufferTimeoutS
 1373 009c 0300     		movs	r3, r0
 1374 009e 0593     		str	r3, [sp, #20]
 1375              	.L73:
 1376              	.LBE13:
 1377              		.loc 10 387 0
 1378 00a0 059B     		ldr	r3, [sp, #20]
 1379 00a2 002B     		cmp	r3, #0
 1380 00a4 03D0     		beq	.L70
 1381              		.loc 10 388 0
 1382 00a6 FFF7FEFF 		bl	osalSysUnlock
 1383              		.loc 10 389 0
 1384 00aa 079B     		ldr	r3, [sp, #28]
 1385 00ac 51E0     		b	.L75
 1386              	.L70:
 1387              	.LBE12:
 1388              		.loc 10 394 0
 1389 00ae 039B     		ldr	r3, [sp, #12]
 1390 00b0 9B6A     		ldr	r3, [r3, #40]
 1391 00b2 1A00     		movs	r2, r3
 1392 00b4 039B     		ldr	r3, [sp, #12]
 1393 00b6 5B6A     		ldr	r3, [r3, #36]
 1394 00b8 D31A     		subs	r3, r2, r3
 1395 00ba 0693     		str	r3, [sp, #24]
 1396              		.loc 10 395 0
 1397 00bc 019A     		ldr	r2, [sp, #4]
 1398 00be 079B     		ldr	r3, [sp, #28]
 1399 00c0 D21A     		subs	r2, r2, r3
 1400 00c2 069B     		ldr	r3, [sp, #24]
 1401 00c4 9A42     		cmp	r2, r3
 1402 00c6 03D2     		bcs	.L76
 1403              		.loc 10 396 0
 1404 00c8 019A     		ldr	r2, [sp, #4]
 1405 00ca 079B     		ldr	r3, [sp, #28]
 1406 00cc D31A     		subs	r3, r2, r3
 1407 00ce 0693     		str	r3, [sp, #24]
 1408              	.L76:
 1409              		.loc 10 401 0
 1410 00d0 069B     		ldr	r3, [sp, #24]
 1411 00d2 402B     		cmp	r3, #64
 1412 00d4 13D9     		bls	.L77
 1413              		.loc 10 403 0
 1414 00d6 039B     		ldr	r3, [sp, #12]
 1415 00d8 596A     		ldr	r1, [r3, #36]
 1416 00da 029B     		ldr	r3, [sp, #8]
 1417 00dc 4022     		movs	r2, #64
 1418 00de 1800     		movs	r0, r3
 1419 00e0 FFF7FEFF 		bl	memcpy
 1420              		.loc 10 404 0
 1421 00e4 029B     		ldr	r3, [sp, #8]
 1422 00e6 4033     		adds	r3, r3, #64
 1423 00e8 0293     		str	r3, [sp, #8]
 1424              		.loc 10 405 0
 1425 00ea 039B     		ldr	r3, [sp, #12]
ARM GAS  /tmp/cctghmAI.s 			page 26


 1426 00ec 5B6A     		ldr	r3, [r3, #36]
 1427 00ee 4033     		adds	r3, r3, #64
 1428 00f0 1A00     		movs	r2, r3
 1429 00f2 039B     		ldr	r3, [sp, #12]
 1430 00f4 5A62     		str	r2, [r3, #36]
 1431              		.loc 10 406 0
 1432 00f6 079B     		ldr	r3, [sp, #28]
 1433 00f8 4033     		adds	r3, r3, #64
 1434 00fa 0793     		str	r3, [sp, #28]
 1435 00fc 14E0     		b	.L78
 1436              	.L77:
 1437              		.loc 10 409 0
 1438 00fe 039B     		ldr	r3, [sp, #12]
 1439 0100 596A     		ldr	r1, [r3, #36]
 1440 0102 069A     		ldr	r2, [sp, #24]
 1441 0104 029B     		ldr	r3, [sp, #8]
 1442 0106 1800     		movs	r0, r3
 1443 0108 FFF7FEFF 		bl	memcpy
 1444              		.loc 10 410 0
 1445 010c 029A     		ldr	r2, [sp, #8]
 1446 010e 069B     		ldr	r3, [sp, #24]
 1447 0110 D318     		adds	r3, r2, r3
 1448 0112 0293     		str	r3, [sp, #8]
 1449              		.loc 10 411 0
 1450 0114 039B     		ldr	r3, [sp, #12]
 1451 0116 5A6A     		ldr	r2, [r3, #36]
 1452 0118 069B     		ldr	r3, [sp, #24]
 1453 011a D218     		adds	r2, r2, r3
 1454 011c 039B     		ldr	r3, [sp, #12]
 1455 011e 5A62     		str	r2, [r3, #36]
 1456              		.loc 10 412 0
 1457 0120 079A     		ldr	r2, [sp, #28]
 1458 0122 069B     		ldr	r3, [sp, #24]
 1459 0124 D318     		adds	r3, r2, r3
 1460 0126 0793     		str	r3, [sp, #28]
 1461              	.L78:
 1462              		.loc 10 416 0
 1463 0128 039B     		ldr	r3, [sp, #12]
 1464 012a 5A6A     		ldr	r2, [r3, #36]
 1465 012c 039B     		ldr	r3, [sp, #12]
 1466 012e 9B6A     		ldr	r3, [r3, #40]
 1467 0130 9A42     		cmp	r2, r3
 1468 0132 03D3     		bcc	.L79
 1469              		.loc 10 417 0
 1470 0134 039B     		ldr	r3, [sp, #12]
 1471 0136 1800     		movs	r0, r3
 1472 0138 FFF7FEFF 		bl	ibqReleaseEmptyBufferS
 1473              	.L79:
 1474              		.loc 10 421 0
 1475 013c FFF7FEFF 		bl	osalSysUnlock
 1476              		.loc 10 422 0
 1477 0140 079A     		ldr	r2, [sp, #28]
 1478 0142 019B     		ldr	r3, [sp, #4]
 1479 0144 9A42     		cmp	r2, r3
 1480 0146 01D3     		bcc	.L80
 1481              		.loc 10 423 0
 1482 0148 079B     		ldr	r3, [sp, #28]
ARM GAS  /tmp/cctghmAI.s 			page 27


 1483 014a 02E0     		b	.L75
 1484              	.L80:
 1485              		.loc 10 425 0
 1486 014c FFF7FEFF 		bl	osalSysLock
 1487              	.LBE11:
 1488              		.loc 10 361 0
 1489 0150 6EE7     		b	.L81
 1490              	.L75:
 1491              		.loc 10 427 0
 1492 0152 1800     		movs	r0, r3
 1493 0154 09B0     		add	sp, sp, #36
 1494              		@ sp needed
 1495 0156 00BD     		pop	{pc}
 1496              	.L83:
 1497              		.align	2
 1498              	.L82:
 1499 0158 FFFF0000 		.word	65535
 1500              		.cfi_endproc
 1501              	.LFE191:
 1502              		.size	ibqReadTimeout, .-ibqReadTimeout
 1503              		.section	.text.obqObjectInit,"ax",%progbits
 1504              		.align	1
 1505              		.p2align 4,,15
 1506              		.global	obqObjectInit
 1507              		.syntax unified
 1508              		.code	16
 1509              		.thumb_func
 1510              		.fpu softvfp
 1511              		.type	obqObjectInit, %function
 1512              	obqObjectInit:
 1513              	.LFB192:
 1514              		.loc 10 443 0
 1515              		.cfi_startproc
 1516              		@ args = 8, pretend = 0, frame = 16
 1517              		@ frame_needed = 0, uses_anonymous_args = 0
 1518 0000 00B5     		push	{lr}
 1519              		.cfi_def_cfa_offset 4
 1520              		.cfi_offset 14, -4
 1521 0002 85B0     		sub	sp, sp, #20
 1522              		.cfi_def_cfa_offset 24
 1523 0004 0390     		str	r0, [sp, #12]
 1524 0006 0291     		str	r1, [sp, #8]
 1525 0008 0192     		str	r2, [sp, #4]
 1526 000a 0093     		str	r3, [sp]
 1527              		.loc 10 445 0
 1528 000c 039B     		ldr	r3, [sp, #12]
 1529 000e 002B     		cmp	r3, #0
 1530 0010 05D0     		beq	.L85
 1531              		.loc 10 445 0 is_stmt 0 discriminator 3
 1532 0012 029B     		ldr	r3, [sp, #8]
 1533 0014 002B     		cmp	r3, #0
 1534 0016 02D0     		beq	.L85
 1535              		.loc 10 445 0 discriminator 5
 1536 0018 019B     		ldr	r3, [sp, #4]
 1537 001a 012B     		cmp	r3, #1
 1538 001c 03D8     		bhi	.L86
 1539              	.L85:
ARM GAS  /tmp/cctghmAI.s 			page 28


 1540              		.loc 10 445 0 discriminator 6
 1541 001e 194B     		ldr	r3, .L87
 1542 0020 1800     		movs	r0, r3
 1543 0022 FFF7FEFF 		bl	chSysHalt
 1544              	.L86:
 1545              		.loc 10 447 0 is_stmt 1
 1546 0026 039B     		ldr	r3, [sp, #12]
 1547 0028 1800     		movs	r0, r3
 1548 002a FFF7FEFF 		bl	osalThreadQueueObjectInit
 1549              		.loc 10 448 0
 1550 002e 039B     		ldr	r3, [sp, #12]
 1551 0030 009A     		ldr	r2, [sp]
 1552 0032 9A60     		str	r2, [r3, #8]
 1553              		.loc 10 449 0
 1554 0034 039B     		ldr	r3, [sp, #12]
 1555 0036 029A     		ldr	r2, [sp, #8]
 1556 0038 1A61     		str	r2, [r3, #16]
 1557              		.loc 10 450 0
 1558 003a 039B     		ldr	r3, [sp, #12]
 1559 003c 029A     		ldr	r2, [sp, #8]
 1560 003e DA60     		str	r2, [r3, #12]
 1561              		.loc 10 451 0
 1562 0040 019B     		ldr	r3, [sp, #4]
 1563 0042 0433     		adds	r3, r3, #4
 1564 0044 009A     		ldr	r2, [sp]
 1565 0046 5343     		muls	r3, r2
 1566 0048 029A     		ldr	r2, [sp, #8]
 1567 004a D218     		adds	r2, r2, r3
 1568 004c 039B     		ldr	r3, [sp, #12]
 1569 004e 5A61     		str	r2, [r3, #20]
 1570              		.loc 10 452 0
 1571 0050 019B     		ldr	r3, [sp, #4]
 1572 0052 1A1D     		adds	r2, r3, #4
 1573 0054 039B     		ldr	r3, [sp, #12]
 1574 0056 9A61     		str	r2, [r3, #24]
 1575              		.loc 10 453 0
 1576 0058 039B     		ldr	r3, [sp, #12]
 1577 005a 009A     		ldr	r2, [sp]
 1578 005c DA61     		str	r2, [r3, #28]
 1579              		.loc 10 454 0
 1580 005e 039B     		ldr	r3, [sp, #12]
 1581 0060 029A     		ldr	r2, [sp, #8]
 1582 0062 1A62     		str	r2, [r3, #32]
 1583              		.loc 10 455 0
 1584 0064 039B     		ldr	r3, [sp, #12]
 1585 0066 0022     		movs	r2, #0
 1586 0068 5A62     		str	r2, [r3, #36]
 1587              		.loc 10 456 0
 1588 006a 039B     		ldr	r3, [sp, #12]
 1589 006c 0022     		movs	r2, #0
 1590 006e 9A62     		str	r2, [r3, #40]
 1591              		.loc 10 457 0
 1592 0070 039B     		ldr	r3, [sp, #12]
 1593 0072 069A     		ldr	r2, [sp, #24]
 1594 0074 DA62     		str	r2, [r3, #44]
 1595              		.loc 10 458 0
 1596 0076 039B     		ldr	r3, [sp, #12]
ARM GAS  /tmp/cctghmAI.s 			page 29


 1597 0078 079A     		ldr	r2, [sp, #28]
 1598 007a 1A63     		str	r2, [r3, #48]
 1599              		.loc 10 459 0
 1600 007c C046     		nop
 1601 007e 05B0     		add	sp, sp, #20
 1602              		@ sp needed
 1603 0080 00BD     		pop	{pc}
 1604              	.L88:
 1605 0082 C046     		.align	2
 1606              	.L87:
 1607 0084 00000000 		.word	__func__.6649
 1608              		.cfi_endproc
 1609              	.LFE192:
 1610              		.size	obqObjectInit, .-obqObjectInit
 1611              		.section	.text.obqResetI,"ax",%progbits
 1612              		.align	1
 1613              		.p2align 4,,15
 1614              		.global	obqResetI
 1615              		.syntax unified
 1616              		.code	16
 1617              		.thumb_func
 1618              		.fpu softvfp
 1619              		.type	obqResetI, %function
 1620              	obqResetI:
 1621              	.LFB193:
 1622              		.loc 10 472 0
 1623              		.cfi_startproc
 1624              		@ args = 0, pretend = 0, frame = 8
 1625              		@ frame_needed = 0, uses_anonymous_args = 0
 1626 0000 00B5     		push	{lr}
 1627              		.cfi_def_cfa_offset 4
 1628              		.cfi_offset 14, -4
 1629 0002 83B0     		sub	sp, sp, #12
 1630              		.cfi_def_cfa_offset 16
 1631 0004 0190     		str	r0, [sp, #4]
 1632              		.loc 10 474 0
 1633 0006 FFF7FEFF 		bl	chDbgCheckClassI
 1634              		.loc 10 476 0
 1635 000a 019B     		ldr	r3, [sp, #4]
 1636 000c DA69     		ldr	r2, [r3, #28]
 1637 000e 019B     		ldr	r3, [sp, #4]
 1638 0010 9A60     		str	r2, [r3, #8]
 1639              		.loc 10 477 0
 1640 0012 019B     		ldr	r3, [sp, #4]
 1641 0014 1A6A     		ldr	r2, [r3, #32]
 1642 0016 019B     		ldr	r3, [sp, #4]
 1643 0018 1A61     		str	r2, [r3, #16]
 1644              		.loc 10 478 0
 1645 001a 019B     		ldr	r3, [sp, #4]
 1646 001c 1A6A     		ldr	r2, [r3, #32]
 1647 001e 019B     		ldr	r3, [sp, #4]
 1648 0020 DA60     		str	r2, [r3, #12]
 1649              		.loc 10 479 0
 1650 0022 019B     		ldr	r3, [sp, #4]
 1651 0024 0022     		movs	r2, #0
 1652 0026 5A62     		str	r2, [r3, #36]
 1653              		.loc 10 480 0
ARM GAS  /tmp/cctghmAI.s 			page 30


 1654 0028 019B     		ldr	r3, [sp, #4]
 1655 002a 0022     		movs	r2, #0
 1656 002c 9A62     		str	r2, [r3, #40]
 1657              		.loc 10 481 0
 1658 002e 019A     		ldr	r2, [sp, #4]
 1659 0030 0223     		movs	r3, #2
 1660 0032 5B42     		rsbs	r3, r3, #0
 1661 0034 1900     		movs	r1, r3
 1662 0036 1000     		movs	r0, r2
 1663 0038 FFF7FEFF 		bl	osalThreadDequeueAllI
 1664              		.loc 10 482 0
 1665 003c C046     		nop
 1666 003e 03B0     		add	sp, sp, #12
 1667              		@ sp needed
 1668 0040 00BD     		pop	{pc}
 1669              		.cfi_endproc
 1670              	.LFE193:
 1671              		.size	obqResetI, .-obqResetI
 1672 0042 C046     		.section	.text.obqGetFullBufferI,"ax",%progbits
 1673              		.align	1
 1674              		.p2align 4,,15
 1675              		.global	obqGetFullBufferI
 1676              		.syntax unified
 1677              		.code	16
 1678              		.thumb_func
 1679              		.fpu softvfp
 1680              		.type	obqGetFullBufferI, %function
 1681              	obqGetFullBufferI:
 1682              	.LFB194:
 1683              		.loc 10 496 0
 1684              		.cfi_startproc
 1685              		@ args = 0, pretend = 0, frame = 8
 1686              		@ frame_needed = 0, uses_anonymous_args = 0
 1687 0000 00B5     		push	{lr}
 1688              		.cfi_def_cfa_offset 4
 1689              		.cfi_offset 14, -4
 1690 0002 83B0     		sub	sp, sp, #12
 1691              		.cfi_def_cfa_offset 16
 1692 0004 0190     		str	r0, [sp, #4]
 1693 0006 0091     		str	r1, [sp]
 1694              		.loc 10 498 0
 1695 0008 FFF7FEFF 		bl	chDbgCheckClassI
 1696              		.loc 10 500 0
 1697 000c 019B     		ldr	r3, [sp, #4]
 1698 000e DA68     		ldr	r2, [r3, #12]
 1699 0010 019B     		ldr	r3, [sp, #4]
 1700 0012 1B69     		ldr	r3, [r3, #16]
 1701 0014 9A42     		cmp	r2, r3
 1702 0016 05D1     		bne	.L91
 1703              		.loc 10 500 0 is_stmt 0 discriminator 1
 1704 0018 019B     		ldr	r3, [sp, #4]
 1705 001a 9B68     		ldr	r3, [r3, #8]
 1706 001c 002B     		cmp	r3, #0
 1707 001e 01D0     		beq	.L91
 1708              		.loc 10 500 0 discriminator 3
 1709 0020 0123     		movs	r3, #1
 1710 0022 00E0     		b	.L92
ARM GAS  /tmp/cctghmAI.s 			page 31


 1711              	.L91:
 1712              		.loc 10 500 0 discriminator 4
 1713 0024 0023     		movs	r3, #0
 1714              	.L92:
 1715              		.loc 10 500 0 discriminator 6
 1716 0026 1A1C     		adds	r2, r3, #0
 1717 0028 0123     		movs	r3, #1
 1718 002a 1340     		ands	r3, r2
 1719 002c DBB2     		uxtb	r3, r3
 1720 002e 002B     		cmp	r3, #0
 1721 0030 01D0     		beq	.L93
 1722              		.loc 10 501 0 is_stmt 1
 1723 0032 0023     		movs	r3, #0
 1724 0034 07E0     		b	.L94
 1725              	.L93:
 1726              		.loc 10 505 0
 1727 0036 019B     		ldr	r3, [sp, #4]
 1728 0038 1B69     		ldr	r3, [r3, #16]
 1729 003a 1A68     		ldr	r2, [r3]
 1730 003c 009B     		ldr	r3, [sp]
 1731 003e 1A60     		str	r2, [r3]
 1732              		.loc 10 507 0
 1733 0040 019B     		ldr	r3, [sp, #4]
 1734 0042 1B69     		ldr	r3, [r3, #16]
 1735 0044 0433     		adds	r3, r3, #4
 1736              	.L94:
 1737              		.loc 10 508 0
 1738 0046 1800     		movs	r0, r3
 1739 0048 03B0     		add	sp, sp, #12
 1740              		@ sp needed
 1741 004a 00BD     		pop	{pc}
 1742              		.cfi_endproc
 1743              	.LFE194:
 1744              		.size	obqGetFullBufferI, .-obqGetFullBufferI
 1745              		.section	.text.obqReleaseEmptyBufferI,"ax",%progbits
 1746              		.align	1
 1747              		.p2align 4,,15
 1748              		.global	obqReleaseEmptyBufferI
 1749              		.syntax unified
 1750              		.code	16
 1751              		.thumb_func
 1752              		.fpu softvfp
 1753              		.type	obqReleaseEmptyBufferI, %function
 1754              	obqReleaseEmptyBufferI:
 1755              	.LFB195:
 1756              		.loc 10 517 0
 1757              		.cfi_startproc
 1758              		@ args = 0, pretend = 0, frame = 8
 1759              		@ frame_needed = 0, uses_anonymous_args = 0
 1760 0000 00B5     		push	{lr}
 1761              		.cfi_def_cfa_offset 4
 1762              		.cfi_offset 14, -4
 1763 0002 83B0     		sub	sp, sp, #12
 1764              		.cfi_def_cfa_offset 16
 1765 0004 0190     		str	r0, [sp, #4]
 1766              		.loc 10 519 0
 1767 0006 FFF7FEFF 		bl	chDbgCheckClassI
ARM GAS  /tmp/cctghmAI.s 			page 32


 1768              		.loc 10 520 0
 1769 000a 019B     		ldr	r3, [sp, #4]
 1770 000c DA68     		ldr	r2, [r3, #12]
 1771 000e 019B     		ldr	r3, [sp, #4]
 1772 0010 1B69     		ldr	r3, [r3, #16]
 1773 0012 9A42     		cmp	r2, r3
 1774 0014 05D1     		bne	.L96
 1775              		.loc 10 520 0 is_stmt 0 discriminator 2
 1776 0016 019B     		ldr	r3, [sp, #4]
 1777 0018 9B68     		ldr	r3, [r3, #8]
 1778 001a 002B     		cmp	r3, #0
 1779 001c 01D0     		beq	.L96
 1780              		.loc 10 520 0 discriminator 4
 1781 001e 0123     		movs	r3, #1
 1782 0020 00E0     		b	.L97
 1783              	.L96:
 1784              		.loc 10 520 0 discriminator 5
 1785 0022 0023     		movs	r3, #0
 1786              	.L97:
 1787              		.loc 10 520 0 discriminator 7
 1788 0024 1A1C     		adds	r2, r3, #0
 1789 0026 0123     		movs	r3, #1
 1790 0028 1340     		ands	r3, r2
 1791 002a DBB2     		uxtb	r3, r3
 1792 002c 002B     		cmp	r3, #0
 1793 002e 03D0     		beq	.L98
 1794              		.loc 10 520 0 discriminator 8
 1795 0030 104B     		ldr	r3, .L100
 1796 0032 1800     		movs	r0, r3
 1797 0034 FFF7FEFF 		bl	chSysHalt
 1798              	.L98:
 1799              		.loc 10 523 0 is_stmt 1
 1800 0038 019B     		ldr	r3, [sp, #4]
 1801 003a 9B68     		ldr	r3, [r3, #8]
 1802 003c 5A1C     		adds	r2, r3, #1
 1803 003e 019B     		ldr	r3, [sp, #4]
 1804 0040 9A60     		str	r2, [r3, #8]
 1805              		.loc 10 524 0
 1806 0042 019B     		ldr	r3, [sp, #4]
 1807 0044 1A69     		ldr	r2, [r3, #16]
 1808 0046 019B     		ldr	r3, [sp, #4]
 1809 0048 9B69     		ldr	r3, [r3, #24]
 1810 004a D218     		adds	r2, r2, r3
 1811 004c 019B     		ldr	r3, [sp, #4]
 1812 004e 1A61     		str	r2, [r3, #16]
 1813              		.loc 10 525 0
 1814 0050 019B     		ldr	r3, [sp, #4]
 1815 0052 1A69     		ldr	r2, [r3, #16]
 1816 0054 019B     		ldr	r3, [sp, #4]
 1817 0056 5B69     		ldr	r3, [r3, #20]
 1818 0058 9A42     		cmp	r2, r3
 1819 005a 03D3     		bcc	.L99
 1820              		.loc 10 526 0
 1821 005c 019B     		ldr	r3, [sp, #4]
 1822 005e 1A6A     		ldr	r2, [r3, #32]
 1823 0060 019B     		ldr	r3, [sp, #4]
 1824 0062 1A61     		str	r2, [r3, #16]
ARM GAS  /tmp/cctghmAI.s 			page 33


 1825              	.L99:
 1826              		.loc 10 530 0
 1827 0064 019B     		ldr	r3, [sp, #4]
 1828 0066 0021     		movs	r1, #0
 1829 0068 1800     		movs	r0, r3
 1830 006a FFF7FEFF 		bl	osalThreadDequeueNextI
 1831              		.loc 10 531 0
 1832 006e C046     		nop
 1833 0070 03B0     		add	sp, sp, #12
 1834              		@ sp needed
 1835 0072 00BD     		pop	{pc}
 1836              	.L101:
 1837              		.align	2
 1838              	.L100:
 1839 0074 00000000 		.word	__func__.6660
 1840              		.cfi_endproc
 1841              	.LFE195:
 1842              		.size	obqReleaseEmptyBufferI, .-obqReleaseEmptyBufferI
 1843              		.section	.text.obqGetEmptyBufferTimeout,"ax",%progbits
 1844              		.align	1
 1845              		.p2align 4,,15
 1846              		.global	obqGetEmptyBufferTimeout
 1847              		.syntax unified
 1848              		.code	16
 1849              		.thumb_func
 1850              		.fpu softvfp
 1851              		.type	obqGetEmptyBufferTimeout, %function
 1852              	obqGetEmptyBufferTimeout:
 1853              	.LFB196:
 1854              		.loc 10 554 0
 1855              		.cfi_startproc
 1856              		@ args = 0, pretend = 0, frame = 16
 1857              		@ frame_needed = 0, uses_anonymous_args = 0
 1858 0000 00B5     		push	{lr}
 1859              		.cfi_def_cfa_offset 4
 1860              		.cfi_offset 14, -4
 1861 0002 85B0     		sub	sp, sp, #20
 1862              		.cfi_def_cfa_offset 24
 1863 0004 0190     		str	r0, [sp, #4]
 1864 0006 0A00     		movs	r2, r1
 1865 0008 6B46     		mov	r3, sp
 1866 000a 0233     		adds	r3, r3, #2
 1867 000c 1A80     		strh	r2, [r3]
 1868              		.loc 10 557 0
 1869 000e FFF7FEFF 		bl	osalSysLock
 1870              		.loc 10 558 0
 1871 0012 6B46     		mov	r3, sp
 1872 0014 0233     		adds	r3, r3, #2
 1873 0016 1A88     		ldrh	r2, [r3]
 1874 0018 019B     		ldr	r3, [sp, #4]
 1875 001a 1100     		movs	r1, r2
 1876 001c 1800     		movs	r0, r3
 1877 001e FFF7FEFF 		bl	obqGetEmptyBufferTimeoutS
 1878 0022 0300     		movs	r3, r0
 1879 0024 0393     		str	r3, [sp, #12]
 1880              		.loc 10 559 0
 1881 0026 FFF7FEFF 		bl	osalSysUnlock
ARM GAS  /tmp/cctghmAI.s 			page 34


 1882              		.loc 10 561 0
 1883 002a 039B     		ldr	r3, [sp, #12]
 1884              		.loc 10 562 0
 1885 002c 1800     		movs	r0, r3
 1886 002e 05B0     		add	sp, sp, #20
 1887              		@ sp needed
 1888 0030 00BD     		pop	{pc}
 1889              		.cfi_endproc
 1890              	.LFE196:
 1891              		.size	obqGetEmptyBufferTimeout, .-obqGetEmptyBufferTimeout
 1892 0032 C046     		.section	.text.obqGetEmptyBufferTimeoutS,"ax",%progbits
 1893              		.align	1
 1894              		.p2align 4,,15
 1895              		.global	obqGetEmptyBufferTimeoutS
 1896              		.syntax unified
 1897              		.code	16
 1898              		.thumb_func
 1899              		.fpu softvfp
 1900              		.type	obqGetEmptyBufferTimeoutS, %function
 1901              	obqGetEmptyBufferTimeoutS:
 1902              	.LFB197:
 1903              		.loc 10 585 0
 1904              		.cfi_startproc
 1905              		@ args = 0, pretend = 0, frame = 16
 1906              		@ frame_needed = 0, uses_anonymous_args = 0
 1907 0000 00B5     		push	{lr}
 1908              		.cfi_def_cfa_offset 4
 1909              		.cfi_offset 14, -4
 1910 0002 85B0     		sub	sp, sp, #20
 1911              		.cfi_def_cfa_offset 24
 1912 0004 0190     		str	r0, [sp, #4]
 1913 0006 0A00     		movs	r2, r1
 1914 0008 6B46     		mov	r3, sp
 1915 000a 0233     		adds	r3, r3, #2
 1916 000c 1A80     		strh	r2, [r3]
 1917              		.loc 10 587 0
 1918 000e FFF7FEFF 		bl	chDbgCheckClassS
 1919              		.loc 10 589 0
 1920 0012 0EE0     		b	.L105
 1921              	.L107:
 1922              	.LBB14:
 1923              		.loc 10 590 0
 1924 0014 019A     		ldr	r2, [sp, #4]
 1925 0016 6B46     		mov	r3, sp
 1926 0018 0233     		adds	r3, r3, #2
 1927 001a 1B88     		ldrh	r3, [r3]
 1928 001c 1900     		movs	r1, r3
 1929 001e 1000     		movs	r0, r2
 1930 0020 FFF7FEFF 		bl	osalThreadEnqueueTimeoutS
 1931 0024 0300     		movs	r3, r0
 1932 0026 0393     		str	r3, [sp, #12]
 1933              		.loc 10 591 0
 1934 0028 039B     		ldr	r3, [sp, #12]
 1935 002a 002B     		cmp	r3, #0
 1936 002c 01DA     		bge	.L105
 1937              		.loc 10 592 0
 1938 002e 039B     		ldr	r3, [sp, #12]
ARM GAS  /tmp/cctghmAI.s 			page 35


 1939 0030 18E0     		b	.L106
 1940              	.L105:
 1941              	.LBE14:
 1942              		.loc 10 589 0
 1943 0032 019B     		ldr	r3, [sp, #4]
 1944 0034 9B68     		ldr	r3, [r3, #8]
 1945 0036 002B     		cmp	r3, #0
 1946 0038 ECD0     		beq	.L107
 1947              		.loc 10 596 0 discriminator 1
 1948 003a 019B     		ldr	r3, [sp, #4]
 1949 003c 9B68     		ldr	r3, [r3, #8]
 1950 003e 002B     		cmp	r3, #0
 1951 0040 03D1     		bne	.L108
 1952              		.loc 10 596 0 is_stmt 0 discriminator 2
 1953 0042 0A4B     		ldr	r3, .L109
 1954 0044 1800     		movs	r0, r3
 1955 0046 FFF7FEFF 		bl	chSysHalt
 1956              	.L108:
 1957              		.loc 10 599 0 is_stmt 1
 1958 004a 019B     		ldr	r3, [sp, #4]
 1959 004c DB68     		ldr	r3, [r3, #12]
 1960 004e 1A1D     		adds	r2, r3, #4
 1961 0050 019B     		ldr	r3, [sp, #4]
 1962 0052 5A62     		str	r2, [r3, #36]
 1963              		.loc 10 600 0
 1964 0054 019B     		ldr	r3, [sp, #4]
 1965 0056 DA68     		ldr	r2, [r3, #12]
 1966 0058 019B     		ldr	r3, [sp, #4]
 1967 005a 9B69     		ldr	r3, [r3, #24]
 1968 005c D218     		adds	r2, r2, r3
 1969 005e 019B     		ldr	r3, [sp, #4]
 1970 0060 9A62     		str	r2, [r3, #40]
 1971              		.loc 10 602 0
 1972 0062 0023     		movs	r3, #0
 1973              	.L106:
 1974              		.loc 10 603 0
 1975 0064 1800     		movs	r0, r3
 1976 0066 05B0     		add	sp, sp, #20
 1977              		@ sp needed
 1978 0068 00BD     		pop	{pc}
 1979              	.L110:
 1980 006a C046     		.align	2
 1981              	.L109:
 1982 006c 00000000 		.word	__func__.6674
 1983              		.cfi_endproc
 1984              	.LFE197:
 1985              		.size	obqGetEmptyBufferTimeoutS, .-obqGetEmptyBufferTimeoutS
 1986              		.section	.text.obqPostFullBuffer,"ax",%progbits
 1987              		.align	1
 1988              		.p2align 4,,15
 1989              		.global	obqPostFullBuffer
 1990              		.syntax unified
 1991              		.code	16
 1992              		.thumb_func
 1993              		.fpu softvfp
 1994              		.type	obqPostFullBuffer, %function
 1995              	obqPostFullBuffer:
ARM GAS  /tmp/cctghmAI.s 			page 36


 1996              	.LFB198:
 1997              		.loc 10 614 0
 1998              		.cfi_startproc
 1999              		@ args = 0, pretend = 0, frame = 8
 2000              		@ frame_needed = 0, uses_anonymous_args = 0
 2001 0000 00B5     		push	{lr}
 2002              		.cfi_def_cfa_offset 4
 2003              		.cfi_offset 14, -4
 2004 0002 83B0     		sub	sp, sp, #12
 2005              		.cfi_def_cfa_offset 16
 2006 0004 0190     		str	r0, [sp, #4]
 2007 0006 0091     		str	r1, [sp]
 2008              		.loc 10 616 0
 2009 0008 FFF7FEFF 		bl	osalSysLock
 2010              		.loc 10 617 0
 2011 000c 009A     		ldr	r2, [sp]
 2012 000e 019B     		ldr	r3, [sp, #4]
 2013 0010 1100     		movs	r1, r2
 2014 0012 1800     		movs	r0, r3
 2015 0014 FFF7FEFF 		bl	obqPostFullBufferS
 2016              		.loc 10 618 0
 2017 0018 FFF7FEFF 		bl	osalSysUnlock
 2018              		.loc 10 619 0
 2019 001c C046     		nop
 2020 001e 03B0     		add	sp, sp, #12
 2021              		@ sp needed
 2022 0020 00BD     		pop	{pc}
 2023              		.cfi_endproc
 2024              	.LFE198:
 2025              		.size	obqPostFullBuffer, .-obqPostFullBuffer
 2026 0022 C046     		.section	.text.obqPostFullBufferS,"ax",%progbits
 2027              		.align	1
 2028              		.p2align 4,,15
 2029              		.global	obqPostFullBufferS
 2030              		.syntax unified
 2031              		.code	16
 2032              		.thumb_func
 2033              		.fpu softvfp
 2034              		.type	obqPostFullBufferS, %function
 2035              	obqPostFullBufferS:
 2036              	.LFB199:
 2037              		.loc 10 630 0
 2038              		.cfi_startproc
 2039              		@ args = 0, pretend = 0, frame = 8
 2040              		@ frame_needed = 0, uses_anonymous_args = 0
 2041 0000 00B5     		push	{lr}
 2042              		.cfi_def_cfa_offset 4
 2043              		.cfi_offset 14, -4
 2044 0002 83B0     		sub	sp, sp, #12
 2045              		.cfi_def_cfa_offset 16
 2046 0004 0190     		str	r0, [sp, #4]
 2047 0006 0091     		str	r1, [sp]
 2048              		.loc 10 632 0
 2049 0008 FFF7FEFF 		bl	chDbgCheckClassS
 2050              		.loc 10 633 0
 2051 000c 009B     		ldr	r3, [sp]
 2052 000e 002B     		cmp	r3, #0
ARM GAS  /tmp/cctghmAI.s 			page 37


 2053 0010 05D0     		beq	.L113
 2054              		.loc 10 633 0 is_stmt 0 discriminator 3
 2055 0012 019B     		ldr	r3, [sp, #4]
 2056 0014 9B69     		ldr	r3, [r3, #24]
 2057 0016 1A1F     		subs	r2, r3, #4
 2058 0018 009B     		ldr	r3, [sp]
 2059 001a 9A42     		cmp	r2, r3
 2060 001c 03D2     		bcs	.L118
 2061              	.L113:
 2062              		.loc 10 633 0 discriminator 4
 2063 001e 1A4B     		ldr	r3, .L120
 2064 0020 1800     		movs	r0, r3
 2065 0022 FFF7FEFF 		bl	chSysHalt
 2066              	.L118:
 2067              		.loc 10 634 0 is_stmt 1 discriminator 1
 2068 0026 019B     		ldr	r3, [sp, #4]
 2069 0028 9B68     		ldr	r3, [r3, #8]
 2070 002a 002B     		cmp	r3, #0
 2071 002c 03D1     		bne	.L115
 2072              		.loc 10 634 0 is_stmt 0 discriminator 2
 2073 002e 164B     		ldr	r3, .L120
 2074 0030 1800     		movs	r0, r3
 2075 0032 FFF7FEFF 		bl	chSysHalt
 2076              	.L115:
 2077              		.loc 10 637 0 is_stmt 1
 2078 0036 019B     		ldr	r3, [sp, #4]
 2079 0038 DB68     		ldr	r3, [r3, #12]
 2080 003a 009A     		ldr	r2, [sp]
 2081 003c 1A60     		str	r2, [r3]
 2082              		.loc 10 640 0
 2083 003e 019B     		ldr	r3, [sp, #4]
 2084 0040 9B68     		ldr	r3, [r3, #8]
 2085 0042 5A1E     		subs	r2, r3, #1
 2086 0044 019B     		ldr	r3, [sp, #4]
 2087 0046 9A60     		str	r2, [r3, #8]
 2088              		.loc 10 641 0
 2089 0048 019B     		ldr	r3, [sp, #4]
 2090 004a DA68     		ldr	r2, [r3, #12]
 2091 004c 019B     		ldr	r3, [sp, #4]
 2092 004e 9B69     		ldr	r3, [r3, #24]
 2093 0050 D218     		adds	r2, r2, r3
 2094 0052 019B     		ldr	r3, [sp, #4]
 2095 0054 DA60     		str	r2, [r3, #12]
 2096              		.loc 10 642 0
 2097 0056 019B     		ldr	r3, [sp, #4]
 2098 0058 DA68     		ldr	r2, [r3, #12]
 2099 005a 019B     		ldr	r3, [sp, #4]
 2100 005c 5B69     		ldr	r3, [r3, #20]
 2101 005e 9A42     		cmp	r2, r3
 2102 0060 03D3     		bcc	.L116
 2103              		.loc 10 643 0
 2104 0062 019B     		ldr	r3, [sp, #4]
 2105 0064 1A6A     		ldr	r2, [r3, #32]
 2106 0066 019B     		ldr	r3, [sp, #4]
 2107 0068 DA60     		str	r2, [r3, #12]
 2108              	.L116:
 2109              		.loc 10 647 0
ARM GAS  /tmp/cctghmAI.s 			page 38


 2110 006a 019B     		ldr	r3, [sp, #4]
 2111 006c 0022     		movs	r2, #0
 2112 006e 5A62     		str	r2, [r3, #36]
 2113              		.loc 10 650 0
 2114 0070 019B     		ldr	r3, [sp, #4]
 2115 0072 DB6A     		ldr	r3, [r3, #44]
 2116 0074 002B     		cmp	r3, #0
 2117 0076 04D0     		beq	.L119
 2118              		.loc 10 651 0
 2119 0078 019B     		ldr	r3, [sp, #4]
 2120 007a DB6A     		ldr	r3, [r3, #44]
 2121 007c 019A     		ldr	r2, [sp, #4]
 2122 007e 1000     		movs	r0, r2
 2123 0080 9847     		blx	r3
 2124              	.LVL1:
 2125              	.L119:
 2126              		.loc 10 653 0
 2127 0082 C046     		nop
 2128 0084 03B0     		add	sp, sp, #12
 2129              		@ sp needed
 2130 0086 00BD     		pop	{pc}
 2131              	.L121:
 2132              		.align	2
 2133              	.L120:
 2134 0088 00000000 		.word	__func__.6683
 2135              		.cfi_endproc
 2136              	.LFE199:
 2137              		.size	obqPostFullBufferS, .-obqPostFullBufferS
 2138              		.section	.text.obqPutTimeout,"ax",%progbits
 2139              		.align	1
 2140              		.p2align 4,,15
 2141              		.global	obqPutTimeout
 2142              		.syntax unified
 2143              		.code	16
 2144              		.thumb_func
 2145              		.fpu softvfp
 2146              		.type	obqPutTimeout, %function
 2147              	obqPutTimeout:
 2148              	.LFB200:
 2149              		.loc 10 675 0
 2150              		.cfi_startproc
 2151              		@ args = 0, pretend = 0, frame = 16
 2152              		@ frame_needed = 0, uses_anonymous_args = 0
 2153 0000 00B5     		push	{lr}
 2154              		.cfi_def_cfa_offset 4
 2155              		.cfi_offset 14, -4
 2156 0002 85B0     		sub	sp, sp, #20
 2157              		.cfi_def_cfa_offset 24
 2158 0004 0190     		str	r0, [sp, #4]
 2159 0006 0800     		movs	r0, r1
 2160 0008 1100     		movs	r1, r2
 2161 000a 6B46     		mov	r3, sp
 2162 000c 0333     		adds	r3, r3, #3
 2163 000e 021C     		adds	r2, r0, #0
 2164 0010 1A70     		strb	r2, [r3]
 2165 0012 6B46     		mov	r3, sp
 2166 0014 0A1C     		adds	r2, r1, #0
ARM GAS  /tmp/cctghmAI.s 			page 39


 2167 0016 1A80     		strh	r2, [r3]
 2168              		.loc 10 678 0
 2169 0018 FFF7FEFF 		bl	osalSysLock
 2170              		.loc 10 681 0
 2171 001c 019B     		ldr	r3, [sp, #4]
 2172 001e 5B6A     		ldr	r3, [r3, #36]
 2173 0020 002B     		cmp	r3, #0
 2174 0022 0FD1     		bne	.L123
 2175              		.loc 10 682 0
 2176 0024 6B46     		mov	r3, sp
 2177 0026 1A88     		ldrh	r2, [r3]
 2178 0028 019B     		ldr	r3, [sp, #4]
 2179 002a 1100     		movs	r1, r2
 2180 002c 1800     		movs	r0, r3
 2181 002e FFF7FEFF 		bl	obqGetEmptyBufferTimeoutS
 2182 0032 0300     		movs	r3, r0
 2183 0034 0393     		str	r3, [sp, #12]
 2184              		.loc 10 683 0
 2185 0036 039B     		ldr	r3, [sp, #12]
 2186 0038 002B     		cmp	r3, #0
 2187 003a 03D0     		beq	.L123
 2188              		.loc 10 684 0
 2189 003c FFF7FEFF 		bl	osalSysUnlock
 2190              		.loc 10 685 0
 2191 0040 039B     		ldr	r3, [sp, #12]
 2192 0042 1BE0     		b	.L124
 2193              	.L123:
 2194              		.loc 10 690 0
 2195 0044 019B     		ldr	r3, [sp, #4]
 2196 0046 5B6A     		ldr	r3, [r3, #36]
 2197 0048 6A46     		mov	r2, sp
 2198 004a 0332     		adds	r2, r2, #3
 2199 004c 1278     		ldrb	r2, [r2]
 2200 004e 1A70     		strb	r2, [r3]
 2201              		.loc 10 691 0
 2202 0050 019B     		ldr	r3, [sp, #4]
 2203 0052 5B6A     		ldr	r3, [r3, #36]
 2204 0054 5A1C     		adds	r2, r3, #1
 2205 0056 019B     		ldr	r3, [sp, #4]
 2206 0058 5A62     		str	r2, [r3, #36]
 2207              		.loc 10 695 0
 2208 005a 019B     		ldr	r3, [sp, #4]
 2209 005c 5A6A     		ldr	r2, [r3, #36]
 2210 005e 019B     		ldr	r3, [sp, #4]
 2211 0060 9B6A     		ldr	r3, [r3, #40]
 2212 0062 9A42     		cmp	r2, r3
 2213 0064 07D3     		bcc	.L125
 2214              		.loc 10 696 0
 2215 0066 019B     		ldr	r3, [sp, #4]
 2216 0068 9B69     		ldr	r3, [r3, #24]
 2217 006a 1A1F     		subs	r2, r3, #4
 2218 006c 019B     		ldr	r3, [sp, #4]
 2219 006e 1100     		movs	r1, r2
 2220 0070 1800     		movs	r0, r3
 2221 0072 FFF7FEFF 		bl	obqPostFullBufferS
 2222              	.L125:
 2223              		.loc 10 699 0
ARM GAS  /tmp/cctghmAI.s 			page 40


 2224 0076 FFF7FEFF 		bl	osalSysUnlock
 2225              		.loc 10 700 0
 2226 007a 0023     		movs	r3, #0
 2227              	.L124:
 2228              		.loc 10 701 0
 2229 007c 1800     		movs	r0, r3
 2230 007e 05B0     		add	sp, sp, #20
 2231              		@ sp needed
 2232 0080 00BD     		pop	{pc}
 2233              		.cfi_endproc
 2234              	.LFE200:
 2235              		.size	obqPutTimeout, .-obqPutTimeout
 2236 0082 C046     		.section	.text.obqWriteTimeout,"ax",%progbits
 2237              		.align	1
 2238              		.p2align 4,,15
 2239              		.global	obqWriteTimeout
 2240              		.syntax unified
 2241              		.code	16
 2242              		.thumb_func
 2243              		.fpu softvfp
 2244              		.type	obqWriteTimeout, %function
 2245              	obqWriteTimeout:
 2246              	.LFB201:
 2247              		.loc 10 725 0
 2248              		.cfi_startproc
 2249              		@ args = 0, pretend = 0, frame = 32
 2250              		@ frame_needed = 0, uses_anonymous_args = 0
 2251 0000 00B5     		push	{lr}
 2252              		.cfi_def_cfa_offset 4
 2253              		.cfi_offset 14, -4
 2254 0002 89B0     		sub	sp, sp, #36
 2255              		.cfi_def_cfa_offset 40
 2256 0004 0390     		str	r0, [sp, #12]
 2257 0006 0291     		str	r1, [sp, #8]
 2258 0008 0192     		str	r2, [sp, #4]
 2259 000a 1A00     		movs	r2, r3
 2260 000c 6B46     		mov	r3, sp
 2261 000e 0233     		adds	r3, r3, #2
 2262 0010 1A80     		strh	r2, [r3]
 2263              		.loc 10 726 0
 2264 0012 0023     		movs	r3, #0
 2265 0014 0793     		str	r3, [sp, #28]
 2266              		.loc 10 729 0
 2267 0016 FFF7FEFF 		bl	osalSysLock
 2268              		.loc 10 732 0
 2269 001a FFF7FEFF 		bl	osalOsGetSystemTimeX
 2270 001e 0300     		movs	r3, r0
 2271 0020 1900     		movs	r1, r3
 2272 0022 1223     		movs	r3, #18
 2273 0024 6B44     		add	r3, r3, sp
 2274 0026 6A46     		mov	r2, sp
 2275 0028 0232     		adds	r2, r2, #2
 2276 002a 1288     		ldrh	r2, [r2]
 2277 002c 8A18     		adds	r2, r1, r2
 2278 002e 1A80     		strh	r2, [r3]
 2279              	.L138:
 2280              	.LBB15:
ARM GAS  /tmp/cctghmAI.s 			page 41


 2281              		.loc 10 738 0
 2282 0030 039B     		ldr	r3, [sp, #12]
 2283 0032 5B6A     		ldr	r3, [r3, #36]
 2284 0034 002B     		cmp	r3, #0
 2285 0036 3AD1     		bne	.L127
 2286              	.LBB16:
 2287              		.loc 10 743 0
 2288 0038 6B46     		mov	r3, sp
 2289 003a 0233     		adds	r3, r3, #2
 2290 003c 1B88     		ldrh	r3, [r3]
 2291 003e 484A     		ldr	r2, .L139
 2292 0040 9342     		cmp	r3, r2
 2293 0042 04D0     		beq	.L128
 2294              		.loc 10 743 0 is_stmt 0 discriminator 1
 2295 0044 6B46     		mov	r3, sp
 2296 0046 0233     		adds	r3, r3, #2
 2297 0048 1B88     		ldrh	r3, [r3]
 2298 004a 002B     		cmp	r3, #0
 2299 004c 0AD1     		bne	.L129
 2300              	.L128:
 2301              		.loc 10 744 0 is_stmt 1
 2302 004e 6B46     		mov	r3, sp
 2303 0050 0233     		adds	r3, r3, #2
 2304 0052 1A88     		ldrh	r2, [r3]
 2305 0054 039B     		ldr	r3, [sp, #12]
 2306 0056 1100     		movs	r1, r2
 2307 0058 1800     		movs	r0, r3
 2308 005a FFF7FEFF 		bl	obqGetEmptyBufferTimeoutS
 2309 005e 0300     		movs	r3, r0
 2310 0060 0593     		str	r3, [sp, #20]
 2311 0062 1DE0     		b	.L130
 2312              	.L129:
 2313              	.LBB17:
 2314              		.loc 10 747 0
 2315 0064 FFF7FEFF 		bl	osalOsGetSystemTimeX
 2316 0068 0300     		movs	r3, r0
 2317 006a 1900     		movs	r1, r3
 2318 006c 04AB     		add	r3, sp, #16
 2319 006e 1222     		movs	r2, #18
 2320 0070 6A44     		add	r2, r2, sp
 2321 0072 1288     		ldrh	r2, [r2]
 2322 0074 521A     		subs	r2, r2, r1
 2323 0076 1A80     		strh	r2, [r3]
 2324              		.loc 10 752 0
 2325 0078 04AA     		add	r2, sp, #16
 2326 007a 6B46     		mov	r3, sp
 2327 007c 0233     		adds	r3, r3, #2
 2328 007e 1288     		ldrh	r2, [r2]
 2329 0080 1B88     		ldrh	r3, [r3]
 2330 0082 9A42     		cmp	r2, r3
 2331 0084 03D9     		bls	.L131
 2332              		.loc 10 753 0
 2333 0086 FFF7FEFF 		bl	osalSysUnlock
 2334              		.loc 10 754 0
 2335 008a 079B     		ldr	r3, [sp, #28]
 2336 008c 65E0     		b	.L132
 2337              	.L131:
ARM GAS  /tmp/cctghmAI.s 			page 42


 2338              		.loc 10 756 0
 2339 008e 04AB     		add	r3, sp, #16
 2340 0090 1A88     		ldrh	r2, [r3]
 2341 0092 039B     		ldr	r3, [sp, #12]
 2342 0094 1100     		movs	r1, r2
 2343 0096 1800     		movs	r0, r3
 2344 0098 FFF7FEFF 		bl	obqGetEmptyBufferTimeoutS
 2345 009c 0300     		movs	r3, r0
 2346 009e 0593     		str	r3, [sp, #20]
 2347              	.L130:
 2348              	.LBE17:
 2349              		.loc 10 760 0
 2350 00a0 059B     		ldr	r3, [sp, #20]
 2351 00a2 002B     		cmp	r3, #0
 2352 00a4 03D0     		beq	.L127
 2353              		.loc 10 761 0
 2354 00a6 FFF7FEFF 		bl	osalSysUnlock
 2355              		.loc 10 762 0
 2356 00aa 079B     		ldr	r3, [sp, #28]
 2357 00ac 55E0     		b	.L132
 2358              	.L127:
 2359              	.LBE16:
 2360              		.loc 10 767 0
 2361 00ae 039B     		ldr	r3, [sp, #12]
 2362 00b0 9B6A     		ldr	r3, [r3, #40]
 2363 00b2 1A00     		movs	r2, r3
 2364 00b4 039B     		ldr	r3, [sp, #12]
 2365 00b6 5B6A     		ldr	r3, [r3, #36]
 2366 00b8 D31A     		subs	r3, r2, r3
 2367 00ba 0693     		str	r3, [sp, #24]
 2368              		.loc 10 768 0
 2369 00bc 019A     		ldr	r2, [sp, #4]
 2370 00be 079B     		ldr	r3, [sp, #28]
 2371 00c0 D21A     		subs	r2, r2, r3
 2372 00c2 069B     		ldr	r3, [sp, #24]
 2373 00c4 9A42     		cmp	r2, r3
 2374 00c6 03D2     		bcs	.L133
 2375              		.loc 10 769 0
 2376 00c8 019A     		ldr	r2, [sp, #4]
 2377 00ca 079B     		ldr	r3, [sp, #28]
 2378 00cc D31A     		subs	r3, r2, r3
 2379 00ce 0693     		str	r3, [sp, #24]
 2380              	.L133:
 2381              		.loc 10 774 0
 2382 00d0 069B     		ldr	r3, [sp, #24]
 2383 00d2 402B     		cmp	r3, #64
 2384 00d4 13D9     		bls	.L134
 2385              		.loc 10 776 0
 2386 00d6 039B     		ldr	r3, [sp, #12]
 2387 00d8 5B6A     		ldr	r3, [r3, #36]
 2388 00da 0299     		ldr	r1, [sp, #8]
 2389 00dc 4022     		movs	r2, #64
 2390 00de 1800     		movs	r0, r3
 2391 00e0 FFF7FEFF 		bl	memcpy
 2392              		.loc 10 777 0
 2393 00e4 029B     		ldr	r3, [sp, #8]
 2394 00e6 4033     		adds	r3, r3, #64
ARM GAS  /tmp/cctghmAI.s 			page 43


 2395 00e8 0293     		str	r3, [sp, #8]
 2396              		.loc 10 778 0
 2397 00ea 039B     		ldr	r3, [sp, #12]
 2398 00ec 5B6A     		ldr	r3, [r3, #36]
 2399 00ee 4033     		adds	r3, r3, #64
 2400 00f0 1A00     		movs	r2, r3
 2401 00f2 039B     		ldr	r3, [sp, #12]
 2402 00f4 5A62     		str	r2, [r3, #36]
 2403              		.loc 10 779 0
 2404 00f6 079B     		ldr	r3, [sp, #28]
 2405 00f8 4033     		adds	r3, r3, #64
 2406 00fa 0793     		str	r3, [sp, #28]
 2407 00fc 14E0     		b	.L135
 2408              	.L134:
 2409              		.loc 10 782 0
 2410 00fe 039B     		ldr	r3, [sp, #12]
 2411 0100 5B6A     		ldr	r3, [r3, #36]
 2412 0102 069A     		ldr	r2, [sp, #24]
 2413 0104 0299     		ldr	r1, [sp, #8]
 2414 0106 1800     		movs	r0, r3
 2415 0108 FFF7FEFF 		bl	memcpy
 2416              		.loc 10 783 0
 2417 010c 029A     		ldr	r2, [sp, #8]
 2418 010e 069B     		ldr	r3, [sp, #24]
 2419 0110 D318     		adds	r3, r2, r3
 2420 0112 0293     		str	r3, [sp, #8]
 2421              		.loc 10 784 0
 2422 0114 039B     		ldr	r3, [sp, #12]
 2423 0116 5A6A     		ldr	r2, [r3, #36]
 2424 0118 069B     		ldr	r3, [sp, #24]
 2425 011a D218     		adds	r2, r2, r3
 2426 011c 039B     		ldr	r3, [sp, #12]
 2427 011e 5A62     		str	r2, [r3, #36]
 2428              		.loc 10 785 0
 2429 0120 079A     		ldr	r2, [sp, #28]
 2430 0122 069B     		ldr	r3, [sp, #24]
 2431 0124 D318     		adds	r3, r2, r3
 2432 0126 0793     		str	r3, [sp, #28]
 2433              	.L135:
 2434              		.loc 10 789 0
 2435 0128 039B     		ldr	r3, [sp, #12]
 2436 012a 5A6A     		ldr	r2, [r3, #36]
 2437 012c 039B     		ldr	r3, [sp, #12]
 2438 012e 9B6A     		ldr	r3, [r3, #40]
 2439 0130 9A42     		cmp	r2, r3
 2440 0132 07D3     		bcc	.L136
 2441              		.loc 10 790 0
 2442 0134 039B     		ldr	r3, [sp, #12]
 2443 0136 9B69     		ldr	r3, [r3, #24]
 2444 0138 1A1F     		subs	r2, r3, #4
 2445 013a 039B     		ldr	r3, [sp, #12]
 2446 013c 1100     		movs	r1, r2
 2447 013e 1800     		movs	r0, r3
 2448 0140 FFF7FEFF 		bl	obqPostFullBufferS
 2449              	.L136:
 2450              		.loc 10 794 0
 2451 0144 FFF7FEFF 		bl	osalSysUnlock
ARM GAS  /tmp/cctghmAI.s 			page 44


 2452              		.loc 10 795 0
 2453 0148 079A     		ldr	r2, [sp, #28]
 2454 014a 019B     		ldr	r3, [sp, #4]
 2455 014c 9A42     		cmp	r2, r3
 2456 014e 01D3     		bcc	.L137
 2457              		.loc 10 796 0
 2458 0150 079B     		ldr	r3, [sp, #28]
 2459 0152 02E0     		b	.L132
 2460              	.L137:
 2461              		.loc 10 798 0
 2462 0154 FFF7FEFF 		bl	osalSysLock
 2463              	.LBE15:
 2464              		.loc 10 734 0
 2465 0158 6AE7     		b	.L138
 2466              	.L132:
 2467              		.loc 10 800 0
 2468 015a 1800     		movs	r0, r3
 2469 015c 09B0     		add	sp, sp, #36
 2470              		@ sp needed
 2471 015e 00BD     		pop	{pc}
 2472              	.L140:
 2473              		.align	2
 2474              	.L139:
 2475 0160 FFFF0000 		.word	65535
 2476              		.cfi_endproc
 2477              	.LFE201:
 2478              		.size	obqWriteTimeout, .-obqWriteTimeout
 2479              		.section	.text.obqTryFlushI,"ax",%progbits
 2480              		.align	1
 2481              		.p2align 4,,15
 2482              		.global	obqTryFlushI
 2483              		.syntax unified
 2484              		.code	16
 2485              		.thumb_func
 2486              		.fpu softvfp
 2487              		.type	obqTryFlushI, %function
 2488              	obqTryFlushI:
 2489              	.LFB202:
 2490              		.loc 10 815 0
 2491              		.cfi_startproc
 2492              		@ args = 0, pretend = 0, frame = 16
 2493              		@ frame_needed = 0, uses_anonymous_args = 0
 2494 0000 00B5     		push	{lr}
 2495              		.cfi_def_cfa_offset 4
 2496              		.cfi_offset 14, -4
 2497 0002 85B0     		sub	sp, sp, #20
 2498              		.cfi_def_cfa_offset 24
 2499 0004 0190     		str	r0, [sp, #4]
 2500              		.loc 10 817 0
 2501 0006 FFF7FEFF 		bl	chDbgCheckClassI
 2502              		.loc 10 821 0
 2503 000a 019B     		ldr	r3, [sp, #4]
 2504 000c DA68     		ldr	r2, [r3, #12]
 2505 000e 019B     		ldr	r3, [sp, #4]
 2506 0010 1B69     		ldr	r3, [r3, #16]
 2507 0012 9A42     		cmp	r2, r3
 2508 0014 05D1     		bne	.L142
ARM GAS  /tmp/cctghmAI.s 			page 45


 2509              		.loc 10 821 0 is_stmt 0 discriminator 1
 2510 0016 019B     		ldr	r3, [sp, #4]
 2511 0018 9B68     		ldr	r3, [r3, #8]
 2512 001a 002B     		cmp	r3, #0
 2513 001c 01D0     		beq	.L142
 2514              		.loc 10 821 0 discriminator 3
 2515 001e 0123     		movs	r3, #1
 2516 0020 00E0     		b	.L143
 2517              	.L142:
 2518              		.loc 10 821 0 discriminator 4
 2519 0022 0023     		movs	r3, #0
 2520              	.L143:
 2521              		.loc 10 821 0 discriminator 6
 2522 0024 1A1C     		adds	r2, r3, #0
 2523 0026 0123     		movs	r3, #1
 2524 0028 1340     		ands	r3, r2
 2525 002a DBB2     		uxtb	r3, r3
 2526 002c 002B     		cmp	r3, #0
 2527 002e 2DD0     		beq	.L144
 2528              		.loc 10 821 0 discriminator 7
 2529 0030 019B     		ldr	r3, [sp, #4]
 2530 0032 5B6A     		ldr	r3, [r3, #36]
 2531 0034 002B     		cmp	r3, #0
 2532 0036 29D0     		beq	.L144
 2533              	.LBB18:
 2534              		.loc 10 822 0 is_stmt 1
 2535 0038 019B     		ldr	r3, [sp, #4]
 2536 003a 5B6A     		ldr	r3, [r3, #36]
 2537 003c 1A00     		movs	r2, r3
 2538 003e 019B     		ldr	r3, [sp, #4]
 2539 0040 DB68     		ldr	r3, [r3, #12]
 2540 0042 D31A     		subs	r3, r2, r3
 2541 0044 043B     		subs	r3, r3, #4
 2542 0046 0393     		str	r3, [sp, #12]
 2543              		.loc 10 824 0
 2544 0048 039B     		ldr	r3, [sp, #12]
 2545 004a 002B     		cmp	r3, #0
 2546 004c 1ED0     		beq	.L144
 2547              		.loc 10 827 0
 2548 004e 019B     		ldr	r3, [sp, #4]
 2549 0050 DB68     		ldr	r3, [r3, #12]
 2550 0052 039A     		ldr	r2, [sp, #12]
 2551 0054 1A60     		str	r2, [r3]
 2552              		.loc 10 830 0
 2553 0056 019B     		ldr	r3, [sp, #4]
 2554 0058 9B68     		ldr	r3, [r3, #8]
 2555 005a 5A1E     		subs	r2, r3, #1
 2556 005c 019B     		ldr	r3, [sp, #4]
 2557 005e 9A60     		str	r2, [r3, #8]
 2558              		.loc 10 831 0
 2559 0060 019B     		ldr	r3, [sp, #4]
 2560 0062 DA68     		ldr	r2, [r3, #12]
 2561 0064 019B     		ldr	r3, [sp, #4]
 2562 0066 9B69     		ldr	r3, [r3, #24]
 2563 0068 D218     		adds	r2, r2, r3
 2564 006a 019B     		ldr	r3, [sp, #4]
 2565 006c DA60     		str	r2, [r3, #12]
ARM GAS  /tmp/cctghmAI.s 			page 46


 2566              		.loc 10 832 0
 2567 006e 019B     		ldr	r3, [sp, #4]
 2568 0070 DA68     		ldr	r2, [r3, #12]
 2569 0072 019B     		ldr	r3, [sp, #4]
 2570 0074 5B69     		ldr	r3, [r3, #20]
 2571 0076 9A42     		cmp	r2, r3
 2572 0078 03D3     		bcc	.L145
 2573              		.loc 10 833 0
 2574 007a 019B     		ldr	r3, [sp, #4]
 2575 007c 1A6A     		ldr	r2, [r3, #32]
 2576 007e 019B     		ldr	r3, [sp, #4]
 2577 0080 DA60     		str	r2, [r3, #12]
 2578              	.L145:
 2579              		.loc 10 837 0
 2580 0082 019B     		ldr	r3, [sp, #4]
 2581 0084 0022     		movs	r2, #0
 2582 0086 5A62     		str	r2, [r3, #36]
 2583              		.loc 10 839 0
 2584 0088 0123     		movs	r3, #1
 2585 008a 00E0     		b	.L146
 2586              	.L144:
 2587              	.LBE18:
 2588              		.loc 10 842 0
 2589 008c 0023     		movs	r3, #0
 2590              	.L146:
 2591              		.loc 10 843 0
 2592 008e 1800     		movs	r0, r3
 2593 0090 05B0     		add	sp, sp, #20
 2594              		@ sp needed
 2595 0092 00BD     		pop	{pc}
 2596              		.cfi_endproc
 2597              	.LFE202:
 2598              		.size	obqTryFlushI, .-obqTryFlushI
 2599              		.section	.text.obqFlush,"ax",%progbits
 2600              		.align	1
 2601              		.p2align 4,,15
 2602              		.global	obqFlush
 2603              		.syntax unified
 2604              		.code	16
 2605              		.thumb_func
 2606              		.fpu softvfp
 2607              		.type	obqFlush, %function
 2608              	obqFlush:
 2609              	.LFB203:
 2610              		.loc 10 852 0
 2611              		.cfi_startproc
 2612              		@ args = 0, pretend = 0, frame = 16
 2613              		@ frame_needed = 0, uses_anonymous_args = 0
 2614 0000 00B5     		push	{lr}
 2615              		.cfi_def_cfa_offset 4
 2616              		.cfi_offset 14, -4
 2617 0002 85B0     		sub	sp, sp, #20
 2618              		.cfi_def_cfa_offset 24
 2619 0004 0190     		str	r0, [sp, #4]
 2620              		.loc 10 854 0
 2621 0006 FFF7FEFF 		bl	osalSysLock
 2622              		.loc 10 857 0
ARM GAS  /tmp/cctghmAI.s 			page 47


 2623 000a 019B     		ldr	r3, [sp, #4]
 2624 000c 5B6A     		ldr	r3, [r3, #36]
 2625 000e 002B     		cmp	r3, #0
 2626 0010 10D0     		beq	.L148
 2627              	.LBB19:
 2628              		.loc 10 858 0
 2629 0012 019B     		ldr	r3, [sp, #4]
 2630 0014 5B6A     		ldr	r3, [r3, #36]
 2631 0016 1A00     		movs	r2, r3
 2632 0018 019B     		ldr	r3, [sp, #4]
 2633 001a DB68     		ldr	r3, [r3, #12]
 2634 001c D31A     		subs	r3, r2, r3
 2635 001e 043B     		subs	r3, r3, #4
 2636 0020 0393     		str	r3, [sp, #12]
 2637              		.loc 10 860 0
 2638 0022 039B     		ldr	r3, [sp, #12]
 2639 0024 002B     		cmp	r3, #0
 2640 0026 05D0     		beq	.L148
 2641              		.loc 10 861 0
 2642 0028 039A     		ldr	r2, [sp, #12]
 2643 002a 019B     		ldr	r3, [sp, #4]
 2644 002c 1100     		movs	r1, r2
 2645 002e 1800     		movs	r0, r3
 2646 0030 FFF7FEFF 		bl	obqPostFullBufferS
 2647              	.L148:
 2648              	.LBE19:
 2649              		.loc 10 865 0
 2650 0034 FFF7FEFF 		bl	osalSysUnlock
 2651              		.loc 10 866 0
 2652 0038 C046     		nop
 2653 003a 05B0     		add	sp, sp, #20
 2654              		@ sp needed
 2655 003c 00BD     		pop	{pc}
 2656              		.cfi_endproc
 2657              	.LFE203:
 2658              		.size	obqFlush, .-obqFlush
 2659 003e C046     		.section	.rodata.__func__.6591,"a",%progbits
 2660              		.align	2
 2661              		.type	__func__.6591, %object
 2662              		.size	__func__.6591, 14
 2663              	__func__.6591:
 2664 0000 6962714F 		.ascii	"ibqObjectInit\000"
 2664      626A6563 
 2664      74496E69 
 2664      7400
 2665              		.section	.rodata.__func__.6602,"a",%progbits
 2666              		.align	2
 2667              		.type	__func__.6602, %object
 2668              		.size	__func__.6602, 19
 2669              	__func__.6602:
 2670 0000 69627150 		.ascii	"ibqPostFullBufferI\000"
 2670      6F737446 
 2670      756C6C42 
 2670      75666665 
 2670      724900
 2671              		.section	.rodata.__func__.5371,"a",%progbits
 2672              		.align	2
ARM GAS  /tmp/cctghmAI.s 			page 48


 2673              		.type	__func__.5371, %object
 2674              		.size	__func__.5371, 12
 2675              	__func__.5371:
 2676 0000 63685379 		.ascii	"chSysUnlock\000"
 2676      73556E6C 
 2676      6F636B00 
 2677              		.section	.rodata.__func__.6616,"a",%progbits
 2678              		.align	2
 2679              		.type	__func__.6616, %object
 2680              		.size	__func__.6616, 25
 2681              	__func__.6616:
 2682 0000 69627147 		.ascii	"ibqGetFullBufferTimeoutS\000"
 2682      65744675 
 2682      6C6C4275 
 2682      66666572 
 2682      54696D65 
 2683              		.section	.rodata.__func__.6623,"a",%progbits
 2684              		.align	2
 2685              		.type	__func__.6623, %object
 2686              		.size	__func__.6623, 23
 2687              	__func__.6623:
 2688 0000 69627152 		.ascii	"ibqReleaseEmptyBufferS\000"
 2688      656C6561 
 2688      7365456D 
 2688      70747942 
 2688      75666665 
 2689              		.section	.rodata.__func__.6649,"a",%progbits
 2690              		.align	2
 2691              		.type	__func__.6649, %object
 2692              		.size	__func__.6649, 14
 2693              	__func__.6649:
 2694 0000 6F62714F 		.ascii	"obqObjectInit\000"
 2694      626A6563 
 2694      74496E69 
 2694      7400
 2695              		.section	.rodata.__func__.6660,"a",%progbits
 2696              		.align	2
 2697              		.type	__func__.6660, %object
 2698              		.size	__func__.6660, 23
 2699              	__func__.6660:
 2700 0000 6F627152 		.ascii	"obqReleaseEmptyBufferI\000"
 2700      656C6561 
 2700      7365456D 
 2700      70747942 
 2700      75666665 
 2701              		.section	.rodata.__func__.6674,"a",%progbits
 2702              		.align	2
 2703              		.type	__func__.6674, %object
 2704              		.size	__func__.6674, 26
 2705              	__func__.6674:
 2706 0000 6F627147 		.ascii	"obqGetEmptyBufferTimeoutS\000"
 2706      6574456D 
 2706      70747942 
 2706      75666665 
 2706      7254696D 
 2707              		.section	.rodata.__func__.6683,"a",%progbits
 2708              		.align	2
ARM GAS  /tmp/cctghmAI.s 			page 49


 2709              		.type	__func__.6683, %object
 2710              		.size	__func__.6683, 19
 2711              	__func__.6683:
 2712 0000 6F627150 		.ascii	"obqPostFullBufferS\000"
 2712      6F737446 
 2712      756C6C42 
 2712      75666665 
 2712      725300
 2713              		.text
 2714              	.Letext0:
 2715              		.file 11 "/home/felix/opt/gcc-arm-none-eabi-6-2017-q1-update/lib/gcc/arm-none-eabi/6.3.1/include/s
 2716              		.file 12 "/home/felix/opt/gcc-arm-none-eabi-6-2017-q1-update/arm-none-eabi/include/machine/_defaul
 2717              		.file 13 "/home/felix/opt/gcc-arm-none-eabi-6-2017-q1-update/arm-none-eabi/include/sys/lock.h"
 2718              		.file 14 "/home/felix/opt/gcc-arm-none-eabi-6-2017-q1-update/arm-none-eabi/include/sys/_types.h"
 2719              		.file 15 "/home/felix/opt/gcc-arm-none-eabi-6-2017-q1-update/arm-none-eabi/include/sys/reent.h"
 2720              		.file 16 "/home/felix/opt/gcc-arm-none-eabi-6-2017-q1-update/arm-none-eabi/include/sys/_stdint.h"
 2721              		.file 17 "ChibiOS/os/rt/ports/ARMCMx/compilers/GCC/chtypes.h"
 2722              		.file 18 "ChibiOS/os/rt/include/chsystypes.h"
 2723              		.file 19 "ChibiOS/os/ext/CMSIS/ST/STM32F0xx/system_stm32f0xx.h"
 2724              		.file 20 "ChibiOS/os/ext/CMSIS/ST/STM32F0xx/stm32f030xc.h"
 2725              		.file 21 "ChibiOS/os/rt/ports/ARMCMx/chcore.h"
 2726              		.file 22 "ChibiOS/os/hal/ports/STM32/LLD/TIMv1/stm32_tim.h"
 2727              		.file 23 "ChibiOS/os/rt/include/chdebug.h"
 2728              		.file 24 "ChibiOS/os/rt/include/chsem.h"
 2729              		.file 25 "ChibiOS/os/rt/include/chmtx.h"
 2730              		.file 26 "ChibiOS/os/rt/include/chregistry.h"
 2731              		.file 27 "ChibiOS/os/rt/include/chevents.h"
 2732              		.file 28 "ChibiOS/os/rt/include/chqueues.h"
 2733              		.file 29 "ChibiOS/os/hal/ports/STM32/LLD/DMAv1/stm32_dma.h"
 2734              		.file 30 "ChibiOS/os/hal/include/hal_buffers.h"
 2735              		.file 31 "ChibiOS/os/hal/ports/STM32/LLD/GPIOv2/pal_lld.h"
 2736              		.file 32 "ChibiOS/os/hal/include/serial.h"
 2737              		.file 33 "ChibiOS/os/hal/ports/STM32/LLD/USARTv2/serial_lld.h"
 2738              		.section	.debug_info,"",%progbits
 2739              	.Ldebug_info0:
 2740 0000 59220000 		.4byte	0x2259
 2741 0004 0400     		.2byte	0x4
 2742 0006 00000000 		.4byte	.Ldebug_abbrev0
 2743 000a 04       		.byte	0x4
 2744 000b 01       		.uleb128 0x1
 2745 000c D50D0000 		.4byte	.LASF402
 2746 0010 0C       		.byte	0xc
 2747 0011 60080000 		.4byte	.LASF403
 2748 0015 43000000 		.4byte	.LASF404
 2749 0019 00000000 		.4byte	.Ldebug_ranges0+0
 2750 001d 00000000 		.4byte	0
 2751 0021 00000000 		.4byte	.Ldebug_line0
 2752 0025 02       		.uleb128 0x2
 2753 0026 04       		.byte	0x4
 2754 0027 05       		.byte	0x5
 2755 0028 696E7400 		.ascii	"int\000"
 2756 002c 03       		.uleb128 0x3
 2757 002d 13000000 		.4byte	.LASF4
 2758 0031 0B       		.byte	0xb
 2759 0032 D8       		.byte	0xd8
 2760 0033 3C000000 		.4byte	0x3c
 2761 0037 04       		.uleb128 0x4
ARM GAS  /tmp/cctghmAI.s 			page 50


 2762 0038 2C000000 		.4byte	0x2c
 2763 003c 05       		.uleb128 0x5
 2764 003d 04       		.byte	0x4
 2765 003e 07       		.byte	0x7
 2766 003f 4E090000 		.4byte	.LASF0
 2767 0043 05       		.uleb128 0x5
 2768 0044 08       		.byte	0x8
 2769 0045 05       		.byte	0x5
 2770 0046 11080000 		.4byte	.LASF1
 2771 004a 05       		.uleb128 0x5
 2772 004b 08       		.byte	0x8
 2773 004c 04       		.byte	0x4
 2774 004d D60A0000 		.4byte	.LASF2
 2775 0051 05       		.uleb128 0x5
 2776 0052 01       		.byte	0x1
 2777 0053 06       		.byte	0x6
 2778 0054 43030000 		.4byte	.LASF3
 2779 0058 03       		.uleb128 0x3
 2780 0059 F2010000 		.4byte	.LASF5
 2781 005d 0C       		.byte	0xc
 2782 005e 2B       		.byte	0x2b
 2783 005f 63000000 		.4byte	0x63
 2784 0063 05       		.uleb128 0x5
 2785 0064 01       		.byte	0x1
 2786 0065 08       		.byte	0x8
 2787 0066 99030000 		.4byte	.LASF6
 2788 006a 05       		.uleb128 0x5
 2789 006b 02       		.byte	0x2
 2790 006c 05       		.byte	0x5
 2791 006d 6F0D0000 		.4byte	.LASF7
 2792 0071 03       		.uleb128 0x3
 2793 0072 85040000 		.4byte	.LASF8
 2794 0076 0C       		.byte	0xc
 2795 0077 39       		.byte	0x39
 2796 0078 7C000000 		.4byte	0x7c
 2797 007c 05       		.uleb128 0x5
 2798 007d 02       		.byte	0x2
 2799 007e 07       		.byte	0x7
 2800 007f 24100000 		.4byte	.LASF9
 2801 0083 03       		.uleb128 0x3
 2802 0084 A6100000 		.4byte	.LASF10
 2803 0088 0C       		.byte	0xc
 2804 0089 4D       		.byte	0x4d
 2805 008a 8E000000 		.4byte	0x8e
 2806 008e 05       		.uleb128 0x5
 2807 008f 04       		.byte	0x4
 2808 0090 05       		.byte	0x5
 2809 0091 52020000 		.4byte	.LASF11
 2810 0095 03       		.uleb128 0x3
 2811 0096 FB070000 		.4byte	.LASF12
 2812 009a 0C       		.byte	0xc
 2813 009b 4F       		.byte	0x4f
 2814 009c A0000000 		.4byte	0xa0
 2815 00a0 05       		.uleb128 0x5
 2816 00a1 04       		.byte	0x4
 2817 00a2 07       		.byte	0x7
 2818 00a3 42060000 		.4byte	.LASF13
ARM GAS  /tmp/cctghmAI.s 			page 51


 2819 00a7 03       		.uleb128 0x3
 2820 00a8 26060000 		.4byte	.LASF14
 2821 00ac 0C       		.byte	0xc
 2822 00ad 69       		.byte	0x69
 2823 00ae B2000000 		.4byte	0xb2
 2824 00b2 05       		.uleb128 0x5
 2825 00b3 08       		.byte	0x8
 2826 00b4 07       		.byte	0x7
 2827 00b5 C20B0000 		.4byte	.LASF15
 2828 00b9 03       		.uleb128 0x3
 2829 00ba 300F0000 		.4byte	.LASF16
 2830 00be 0D       		.byte	0xd
 2831 00bf 22       		.byte	0x22
 2832 00c0 C4000000 		.4byte	0xc4
 2833 00c4 06       		.uleb128 0x6
 2834 00c5 04       		.byte	0x4
 2835 00c6 CA000000 		.4byte	0xca
 2836 00ca 07       		.uleb128 0x7
 2837 00cb C3050000 		.4byte	.LASF124
 2838 00cf 03       		.uleb128 0x3
 2839 00d0 F60F0000 		.4byte	.LASF17
 2840 00d4 0E       		.byte	0xe
 2841 00d5 2C       		.byte	0x2c
 2842 00d6 8E000000 		.4byte	0x8e
 2843 00da 03       		.uleb128 0x3
 2844 00db 4C0B0000 		.4byte	.LASF18
 2845 00df 0E       		.byte	0xe
 2846 00e0 72       		.byte	0x72
 2847 00e1 8E000000 		.4byte	0x8e
 2848 00e5 08       		.uleb128 0x8
 2849 00e6 C50C0000 		.4byte	.LASF19
 2850 00ea 0B       		.byte	0xb
 2851 00eb 6501     		.2byte	0x165
 2852 00ed 3C000000 		.4byte	0x3c
 2853 00f1 09       		.uleb128 0x9
 2854 00f2 04       		.byte	0x4
 2855 00f3 0E       		.byte	0xe
 2856 00f4 A6       		.byte	0xa6
 2857 00f5 10010000 		.4byte	0x110
 2858 00f9 0A       		.uleb128 0xa
 2859 00fa E3010000 		.4byte	.LASF20
 2860 00fe 0E       		.byte	0xe
 2861 00ff A8       		.byte	0xa8
 2862 0100 E5000000 		.4byte	0xe5
 2863 0104 0A       		.uleb128 0xa
 2864 0105 540B0000 		.4byte	.LASF21
 2865 0109 0E       		.byte	0xe
 2866 010a A9       		.byte	0xa9
 2867 010b 10010000 		.4byte	0x110
 2868 010f 00       		.byte	0
 2869 0110 0B       		.uleb128 0xb
 2870 0111 63000000 		.4byte	0x63
 2871 0115 20010000 		.4byte	0x120
 2872 0119 0C       		.uleb128 0xc
 2873 011a 20010000 		.4byte	0x120
 2874 011e 03       		.byte	0x3
 2875 011f 00       		.byte	0
ARM GAS  /tmp/cctghmAI.s 			page 52


 2876 0120 05       		.uleb128 0x5
 2877 0121 04       		.byte	0x4
 2878 0122 07       		.byte	0x7
 2879 0123 1A000000 		.4byte	.LASF22
 2880 0127 0D       		.uleb128 0xd
 2881 0128 08       		.byte	0x8
 2882 0129 0E       		.byte	0xe
 2883 012a A3       		.byte	0xa3
 2884 012b 48010000 		.4byte	0x148
 2885 012f 0E       		.uleb128 0xe
 2886 0130 9C0A0000 		.4byte	.LASF23
 2887 0134 0E       		.byte	0xe
 2888 0135 A5       		.byte	0xa5
 2889 0136 25000000 		.4byte	0x25
 2890 013a 00       		.byte	0
 2891 013b 0E       		.uleb128 0xe
 2892 013c 63030000 		.4byte	.LASF24
 2893 0140 0E       		.byte	0xe
 2894 0141 AA       		.byte	0xaa
 2895 0142 F1000000 		.4byte	0xf1
 2896 0146 04       		.byte	0x4
 2897 0147 00       		.byte	0
 2898 0148 03       		.uleb128 0x3
 2899 0149 AD0C0000 		.4byte	.LASF25
 2900 014d 0E       		.byte	0xe
 2901 014e AB       		.byte	0xab
 2902 014f 27010000 		.4byte	0x127
 2903 0153 03       		.uleb128 0x3
 2904 0154 9D0C0000 		.4byte	.LASF26
 2905 0158 0E       		.byte	0xe
 2906 0159 AF       		.byte	0xaf
 2907 015a B9000000 		.4byte	0xb9
 2908 015e 0F       		.uleb128 0xf
 2909 015f 04       		.byte	0x4
 2910 0160 06       		.uleb128 0x6
 2911 0161 04       		.byte	0x4
 2912 0162 66010000 		.4byte	0x166
 2913 0166 05       		.uleb128 0x5
 2914 0167 01       		.byte	0x1
 2915 0168 08       		.byte	0x8
 2916 0169 49040000 		.4byte	.LASF27
 2917 016d 10       		.uleb128 0x10
 2918 016e 66010000 		.4byte	0x166
 2919 0172 03       		.uleb128 0x3
 2920 0173 B00F0000 		.4byte	.LASF28
 2921 0177 0F       		.byte	0xf
 2922 0178 16       		.byte	0x16
 2923 0179 A0000000 		.4byte	0xa0
 2924 017d 11       		.uleb128 0x11
 2925 017e 76070000 		.4byte	.LASF33
 2926 0182 18       		.byte	0x18
 2927 0183 0F       		.byte	0xf
 2928 0184 2F       		.byte	0x2f
 2929 0185 D0010000 		.4byte	0x1d0
 2930 0189 0E       		.uleb128 0xe
 2931 018a D90C0000 		.4byte	.LASF29
 2932 018e 0F       		.byte	0xf
ARM GAS  /tmp/cctghmAI.s 			page 53


 2933 018f 31       		.byte	0x31
 2934 0190 D0010000 		.4byte	0x1d0
 2935 0194 00       		.byte	0
 2936 0195 12       		.uleb128 0x12
 2937 0196 5F6B00   		.ascii	"_k\000"
 2938 0199 0F       		.byte	0xf
 2939 019a 32       		.byte	0x32
 2940 019b 25000000 		.4byte	0x25
 2941 019f 04       		.byte	0x4
 2942 01a0 0E       		.uleb128 0xe
 2943 01a1 9D070000 		.4byte	.LASF30
 2944 01a5 0F       		.byte	0xf
 2945 01a6 32       		.byte	0x32
 2946 01a7 25000000 		.4byte	0x25
 2947 01ab 08       		.byte	0x8
 2948 01ac 0E       		.uleb128 0xe
 2949 01ad E9080000 		.4byte	.LASF31
 2950 01b1 0F       		.byte	0xf
 2951 01b2 32       		.byte	0x32
 2952 01b3 25000000 		.4byte	0x25
 2953 01b7 0C       		.byte	0xc
 2954 01b8 0E       		.uleb128 0xe
 2955 01b9 B0050000 		.4byte	.LASF32
 2956 01bd 0F       		.byte	0xf
 2957 01be 32       		.byte	0x32
 2958 01bf 25000000 		.4byte	0x25
 2959 01c3 10       		.byte	0x10
 2960 01c4 12       		.uleb128 0x12
 2961 01c5 5F7800   		.ascii	"_x\000"
 2962 01c8 0F       		.byte	0xf
 2963 01c9 33       		.byte	0x33
 2964 01ca D6010000 		.4byte	0x1d6
 2965 01ce 14       		.byte	0x14
 2966 01cf 00       		.byte	0
 2967 01d0 06       		.uleb128 0x6
 2968 01d1 04       		.byte	0x4
 2969 01d2 7D010000 		.4byte	0x17d
 2970 01d6 0B       		.uleb128 0xb
 2971 01d7 72010000 		.4byte	0x172
 2972 01db E6010000 		.4byte	0x1e6
 2973 01df 0C       		.uleb128 0xc
 2974 01e0 20010000 		.4byte	0x120
 2975 01e4 00       		.byte	0
 2976 01e5 00       		.byte	0
 2977 01e6 11       		.uleb128 0x11
 2978 01e7 23010000 		.4byte	.LASF34
 2979 01eb 24       		.byte	0x24
 2980 01ec 0F       		.byte	0xf
 2981 01ed 37       		.byte	0x37
 2982 01ee 5F020000 		.4byte	0x25f
 2983 01f2 0E       		.uleb128 0xe
 2984 01f3 3F010000 		.4byte	.LASF35
 2985 01f7 0F       		.byte	0xf
 2986 01f8 39       		.byte	0x39
 2987 01f9 25000000 		.4byte	0x25
 2988 01fd 00       		.byte	0
 2989 01fe 0E       		.uleb128 0xe
ARM GAS  /tmp/cctghmAI.s 			page 54


 2990 01ff 28110000 		.4byte	.LASF36
 2991 0203 0F       		.byte	0xf
 2992 0204 3A       		.byte	0x3a
 2993 0205 25000000 		.4byte	0x25
 2994 0209 04       		.byte	0x4
 2995 020a 0E       		.uleb128 0xe
 2996 020b 37100000 		.4byte	.LASF37
 2997 020f 0F       		.byte	0xf
 2998 0210 3B       		.byte	0x3b
 2999 0211 25000000 		.4byte	0x25
 3000 0215 08       		.byte	0x8
 3001 0216 0E       		.uleb128 0xe
 3002 0217 C8090000 		.4byte	.LASF38
 3003 021b 0F       		.byte	0xf
 3004 021c 3C       		.byte	0x3c
 3005 021d 25000000 		.4byte	0x25
 3006 0221 0C       		.byte	0xc
 3007 0222 0E       		.uleb128 0xe
 3008 0223 F4020000 		.4byte	.LASF39
 3009 0227 0F       		.byte	0xf
 3010 0228 3D       		.byte	0x3d
 3011 0229 25000000 		.4byte	0x25
 3012 022d 10       		.byte	0x10
 3013 022e 0E       		.uleb128 0xe
 3014 022f A30E0000 		.4byte	.LASF40
 3015 0233 0F       		.byte	0xf
 3016 0234 3E       		.byte	0x3e
 3017 0235 25000000 		.4byte	0x25
 3018 0239 14       		.byte	0x14
 3019 023a 0E       		.uleb128 0xe
 3020 023b B90A0000 		.4byte	.LASF41
 3021 023f 0F       		.byte	0xf
 3022 0240 3F       		.byte	0x3f
 3023 0241 25000000 		.4byte	0x25
 3024 0245 18       		.byte	0x18
 3025 0246 0E       		.uleb128 0xe
 3026 0247 EF0A0000 		.4byte	.LASF42
 3027 024b 0F       		.byte	0xf
 3028 024c 40       		.byte	0x40
 3029 024d 25000000 		.4byte	0x25
 3030 0251 1C       		.byte	0x1c
 3031 0252 0E       		.uleb128 0xe
 3032 0253 F2100000 		.4byte	.LASF43
 3033 0257 0F       		.byte	0xf
 3034 0258 41       		.byte	0x41
 3035 0259 25000000 		.4byte	0x25
 3036 025d 20       		.byte	0x20
 3037 025e 00       		.byte	0
 3038 025f 13       		.uleb128 0x13
 3039 0260 16020000 		.4byte	.LASF44
 3040 0264 0801     		.2byte	0x108
 3041 0266 0F       		.byte	0xf
 3042 0267 4A       		.byte	0x4a
 3043 0268 9F020000 		.4byte	0x29f
 3044 026c 0E       		.uleb128 0xe
 3045 026d EA100000 		.4byte	.LASF45
 3046 0271 0F       		.byte	0xf
ARM GAS  /tmp/cctghmAI.s 			page 55


 3047 0272 4B       		.byte	0x4b
 3048 0273 9F020000 		.4byte	0x29f
 3049 0277 00       		.byte	0
 3050 0278 0E       		.uleb128 0xe
 3051 0279 F70B0000 		.4byte	.LASF46
 3052 027d 0F       		.byte	0xf
 3053 027e 4C       		.byte	0x4c
 3054 027f 9F020000 		.4byte	0x29f
 3055 0283 80       		.byte	0x80
 3056 0284 14       		.uleb128 0x14
 3057 0285 B50D0000 		.4byte	.LASF47
 3058 0289 0F       		.byte	0xf
 3059 028a 4E       		.byte	0x4e
 3060 028b 72010000 		.4byte	0x172
 3061 028f 0001     		.2byte	0x100
 3062 0291 14       		.uleb128 0x14
 3063 0292 280F0000 		.4byte	.LASF48
 3064 0296 0F       		.byte	0xf
 3065 0297 51       		.byte	0x51
 3066 0298 72010000 		.4byte	0x172
 3067 029c 0401     		.2byte	0x104
 3068 029e 00       		.byte	0
 3069 029f 0B       		.uleb128 0xb
 3070 02a0 5E010000 		.4byte	0x15e
 3071 02a4 AF020000 		.4byte	0x2af
 3072 02a8 0C       		.uleb128 0xc
 3073 02a9 20010000 		.4byte	0x120
 3074 02ad 1F       		.byte	0x1f
 3075 02ae 00       		.byte	0
 3076 02af 13       		.uleb128 0x13
 3077 02b0 530A0000 		.4byte	.LASF49
 3078 02b4 9001     		.2byte	0x190
 3079 02b6 0F       		.byte	0xf
 3080 02b7 5D       		.byte	0x5d
 3081 02b8 ED020000 		.4byte	0x2ed
 3082 02bc 0E       		.uleb128 0xe
 3083 02bd D90C0000 		.4byte	.LASF29
 3084 02c1 0F       		.byte	0xf
 3085 02c2 5E       		.byte	0x5e
 3086 02c3 ED020000 		.4byte	0x2ed
 3087 02c7 00       		.byte	0
 3088 02c8 0E       		.uleb128 0xe
 3089 02c9 140F0000 		.4byte	.LASF50
 3090 02cd 0F       		.byte	0xf
 3091 02ce 5F       		.byte	0x5f
 3092 02cf 25000000 		.4byte	0x25
 3093 02d3 04       		.byte	0x4
 3094 02d4 0E       		.uleb128 0xe
 3095 02d5 4E040000 		.4byte	.LASF51
 3096 02d9 0F       		.byte	0xf
 3097 02da 61       		.byte	0x61
 3098 02db F3020000 		.4byte	0x2f3
 3099 02df 08       		.byte	0x8
 3100 02e0 0E       		.uleb128 0xe
 3101 02e1 16020000 		.4byte	.LASF44
 3102 02e5 0F       		.byte	0xf
 3103 02e6 62       		.byte	0x62
ARM GAS  /tmp/cctghmAI.s 			page 56


 3104 02e7 5F020000 		.4byte	0x25f
 3105 02eb 88       		.byte	0x88
 3106 02ec 00       		.byte	0
 3107 02ed 06       		.uleb128 0x6
 3108 02ee 04       		.byte	0x4
 3109 02ef AF020000 		.4byte	0x2af
 3110 02f3 0B       		.uleb128 0xb
 3111 02f4 03030000 		.4byte	0x303
 3112 02f8 03030000 		.4byte	0x303
 3113 02fc 0C       		.uleb128 0xc
 3114 02fd 20010000 		.4byte	0x120
 3115 0301 1F       		.byte	0x1f
 3116 0302 00       		.byte	0
 3117 0303 06       		.uleb128 0x6
 3118 0304 04       		.byte	0x4
 3119 0305 09030000 		.4byte	0x309
 3120 0309 15       		.uleb128 0x15
 3121 030a 11       		.uleb128 0x11
 3122 030b 210F0000 		.4byte	.LASF52
 3123 030f 08       		.byte	0x8
 3124 0310 0F       		.byte	0xf
 3125 0311 75       		.byte	0x75
 3126 0312 2F030000 		.4byte	0x32f
 3127 0316 0E       		.uleb128 0xe
 3128 0317 520C0000 		.4byte	.LASF53
 3129 031b 0F       		.byte	0xf
 3130 031c 76       		.byte	0x76
 3131 031d 2F030000 		.4byte	0x32f
 3132 0321 00       		.byte	0
 3133 0322 0E       		.uleb128 0xe
 3134 0323 99020000 		.4byte	.LASF54
 3135 0327 0F       		.byte	0xf
 3136 0328 77       		.byte	0x77
 3137 0329 25000000 		.4byte	0x25
 3138 032d 04       		.byte	0x4
 3139 032e 00       		.byte	0
 3140 032f 06       		.uleb128 0x6
 3141 0330 04       		.byte	0x4
 3142 0331 63000000 		.4byte	0x63
 3143 0335 11       		.uleb128 0x11
 3144 0336 80060000 		.4byte	.LASF55
 3145 033a 68       		.byte	0x68
 3146 033b 0F       		.byte	0xf
 3147 033c B5       		.byte	0xb5
 3148 033d 5F040000 		.4byte	0x45f
 3149 0341 12       		.uleb128 0x12
 3150 0342 5F7000   		.ascii	"_p\000"
 3151 0345 0F       		.byte	0xf
 3152 0346 B6       		.byte	0xb6
 3153 0347 2F030000 		.4byte	0x32f
 3154 034b 00       		.byte	0
 3155 034c 12       		.uleb128 0x12
 3156 034d 5F7200   		.ascii	"_r\000"
 3157 0350 0F       		.byte	0xf
 3158 0351 B7       		.byte	0xb7
 3159 0352 25000000 		.4byte	0x25
 3160 0356 04       		.byte	0x4
ARM GAS  /tmp/cctghmAI.s 			page 57


 3161 0357 12       		.uleb128 0x12
 3162 0358 5F7700   		.ascii	"_w\000"
 3163 035b 0F       		.byte	0xf
 3164 035c B8       		.byte	0xb8
 3165 035d 25000000 		.4byte	0x25
 3166 0361 08       		.byte	0x8
 3167 0362 0E       		.uleb128 0xe
 3168 0363 390A0000 		.4byte	.LASF56
 3169 0367 0F       		.byte	0xf
 3170 0368 B9       		.byte	0xb9
 3171 0369 6A000000 		.4byte	0x6a
 3172 036d 0C       		.byte	0xc
 3173 036e 0E       		.uleb128 0xe
 3174 036f 02020000 		.4byte	.LASF57
 3175 0373 0F       		.byte	0xf
 3176 0374 BA       		.byte	0xba
 3177 0375 6A000000 		.4byte	0x6a
 3178 0379 0E       		.byte	0xe
 3179 037a 12       		.uleb128 0x12
 3180 037b 5F626600 		.ascii	"_bf\000"
 3181 037f 0F       		.byte	0xf
 3182 0380 BB       		.byte	0xbb
 3183 0381 0A030000 		.4byte	0x30a
 3184 0385 10       		.byte	0x10
 3185 0386 0E       		.uleb128 0xe
 3186 0387 FF0E0000 		.4byte	.LASF58
 3187 038b 0F       		.byte	0xf
 3188 038c BC       		.byte	0xbc
 3189 038d 25000000 		.4byte	0x25
 3190 0391 18       		.byte	0x18
 3191 0392 0E       		.uleb128 0xe
 3192 0393 6E050000 		.4byte	.LASF59
 3193 0397 0F       		.byte	0xf
 3194 0398 C3       		.byte	0xc3
 3195 0399 5E010000 		.4byte	0x15e
 3196 039d 1C       		.byte	0x1c
 3197 039e 0E       		.uleb128 0xe
 3198 039f 8F000000 		.4byte	.LASF60
 3199 03a3 0F       		.byte	0xf
 3200 03a4 C5       		.byte	0xc5
 3201 03a5 BA050000 		.4byte	0x5ba
 3202 03a9 20       		.byte	0x20
 3203 03aa 0E       		.uleb128 0xe
 3204 03ab B1000000 		.4byte	.LASF61
 3205 03af 0F       		.byte	0xf
 3206 03b0 C7       		.byte	0xc7
 3207 03b1 E9050000 		.4byte	0x5e9
 3208 03b5 24       		.byte	0x24
 3209 03b6 0E       		.uleb128 0xe
 3210 03b7 370B0000 		.4byte	.LASF62
 3211 03bb 0F       		.byte	0xf
 3212 03bc CA       		.byte	0xca
 3213 03bd 0D060000 		.4byte	0x60d
 3214 03c1 28       		.byte	0x28
 3215 03c2 0E       		.uleb128 0xe
 3216 03c3 72040000 		.4byte	.LASF63
 3217 03c7 0F       		.byte	0xf
ARM GAS  /tmp/cctghmAI.s 			page 58


 3218 03c8 CB       		.byte	0xcb
 3219 03c9 27060000 		.4byte	0x627
 3220 03cd 2C       		.byte	0x2c
 3221 03ce 12       		.uleb128 0x12
 3222 03cf 5F756200 		.ascii	"_ub\000"
 3223 03d3 0F       		.byte	0xf
 3224 03d4 CE       		.byte	0xce
 3225 03d5 0A030000 		.4byte	0x30a
 3226 03d9 30       		.byte	0x30
 3227 03da 12       		.uleb128 0x12
 3228 03db 5F757000 		.ascii	"_up\000"
 3229 03df 0F       		.byte	0xf
 3230 03e0 CF       		.byte	0xcf
 3231 03e1 2F030000 		.4byte	0x32f
 3232 03e5 38       		.byte	0x38
 3233 03e6 12       		.uleb128 0x12
 3234 03e7 5F757200 		.ascii	"_ur\000"
 3235 03eb 0F       		.byte	0xf
 3236 03ec D0       		.byte	0xd0
 3237 03ed 25000000 		.4byte	0x25
 3238 03f1 3C       		.byte	0x3c
 3239 03f2 0E       		.uleb128 0xe
 3240 03f3 FA090000 		.4byte	.LASF64
 3241 03f7 0F       		.byte	0xf
 3242 03f8 D3       		.byte	0xd3
 3243 03f9 2D060000 		.4byte	0x62d
 3244 03fd 40       		.byte	0x40
 3245 03fe 0E       		.uleb128 0xe
 3246 03ff 39010000 		.4byte	.LASF65
 3247 0403 0F       		.byte	0xf
 3248 0404 D4       		.byte	0xd4
 3249 0405 3D060000 		.4byte	0x63d
 3250 0409 43       		.byte	0x43
 3251 040a 12       		.uleb128 0x12
 3252 040b 5F6C6200 		.ascii	"_lb\000"
 3253 040f 0F       		.byte	0xf
 3254 0410 D7       		.byte	0xd7
 3255 0411 0A030000 		.4byte	0x30a
 3256 0415 44       		.byte	0x44
 3257 0416 0E       		.uleb128 0xe
 3258 0417 490C0000 		.4byte	.LASF66
 3259 041b 0F       		.byte	0xf
 3260 041c DA       		.byte	0xda
 3261 041d 25000000 		.4byte	0x25
 3262 0421 4C       		.byte	0x4c
 3263 0422 0E       		.uleb128 0xe
 3264 0423 DC050000 		.4byte	.LASF67
 3265 0427 0F       		.byte	0xf
 3266 0428 DB       		.byte	0xdb
 3267 0429 CF000000 		.4byte	0xcf
 3268 042d 50       		.byte	0x50
 3269 042e 0E       		.uleb128 0xe
 3270 042f DF0C0000 		.4byte	.LASF68
 3271 0433 0F       		.byte	0xf
 3272 0434 DE       		.byte	0xde
 3273 0435 7D040000 		.4byte	0x47d
 3274 0439 54       		.byte	0x54
ARM GAS  /tmp/cctghmAI.s 			page 59


 3275 043a 0E       		.uleb128 0xe
 3276 043b 61010000 		.4byte	.LASF69
 3277 043f 0F       		.byte	0xf
 3278 0440 E2       		.byte	0xe2
 3279 0441 53010000 		.4byte	0x153
 3280 0445 58       		.byte	0x58
 3281 0446 0E       		.uleb128 0xe
 3282 0447 250A0000 		.4byte	.LASF70
 3283 044b 0F       		.byte	0xf
 3284 044c E4       		.byte	0xe4
 3285 044d 48010000 		.4byte	0x148
 3286 0451 5C       		.byte	0x5c
 3287 0452 0E       		.uleb128 0xe
 3288 0453 93060000 		.4byte	.LASF71
 3289 0457 0F       		.byte	0xf
 3290 0458 E5       		.byte	0xe5
 3291 0459 25000000 		.4byte	0x25
 3292 045d 64       		.byte	0x64
 3293 045e 00       		.byte	0
 3294 045f 16       		.uleb128 0x16
 3295 0460 25000000 		.4byte	0x25
 3296 0464 7D040000 		.4byte	0x47d
 3297 0468 17       		.uleb128 0x17
 3298 0469 7D040000 		.4byte	0x47d
 3299 046d 17       		.uleb128 0x17
 3300 046e 5E010000 		.4byte	0x15e
 3301 0472 17       		.uleb128 0x17
 3302 0473 60010000 		.4byte	0x160
 3303 0477 17       		.uleb128 0x17
 3304 0478 25000000 		.4byte	0x25
 3305 047c 00       		.byte	0
 3306 047d 06       		.uleb128 0x6
 3307 047e 04       		.byte	0x4
 3308 047f 88040000 		.4byte	0x488
 3309 0483 10       		.uleb128 0x10
 3310 0484 7D040000 		.4byte	0x47d
 3311 0488 18       		.uleb128 0x18
 3312 0489 DD030000 		.4byte	.LASF72
 3313 048d 2804     		.2byte	0x428
 3314 048f 0F       		.byte	0xf
 3315 0490 3902     		.2byte	0x239
 3316 0492 BA050000 		.4byte	0x5ba
 3317 0496 19       		.uleb128 0x19
 3318 0497 0D070000 		.4byte	.LASF73
 3319 049b 0F       		.byte	0xf
 3320 049c 3B02     		.2byte	0x23b
 3321 049e 25000000 		.4byte	0x25
 3322 04a2 00       		.byte	0
 3323 04a3 19       		.uleb128 0x19
 3324 04a4 A8040000 		.4byte	.LASF74
 3325 04a8 0F       		.byte	0xf
 3326 04a9 4002     		.2byte	0x240
 3327 04ab 94060000 		.4byte	0x694
 3328 04af 04       		.byte	0x4
 3329 04b0 19       		.uleb128 0x19
 3330 04b1 410C0000 		.4byte	.LASF75
 3331 04b5 0F       		.byte	0xf
ARM GAS  /tmp/cctghmAI.s 			page 60


 3332 04b6 4002     		.2byte	0x240
 3333 04b8 94060000 		.4byte	0x694
 3334 04bc 08       		.byte	0x8
 3335 04bd 19       		.uleb128 0x19
 3336 04be 050A0000 		.4byte	.LASF76
 3337 04c2 0F       		.byte	0xf
 3338 04c3 4002     		.2byte	0x240
 3339 04c5 94060000 		.4byte	0x694
 3340 04c9 0C       		.byte	0xc
 3341 04ca 19       		.uleb128 0x19
 3342 04cb 0F0F0000 		.4byte	.LASF77
 3343 04cf 0F       		.byte	0xf
 3344 04d0 4202     		.2byte	0x242
 3345 04d2 25000000 		.4byte	0x25
 3346 04d6 10       		.byte	0x10
 3347 04d7 19       		.uleb128 0x19
 3348 04d8 06080000 		.4byte	.LASF78
 3349 04dc 0F       		.byte	0xf
 3350 04dd 4302     		.2byte	0x243
 3351 04df 76080000 		.4byte	0x876
 3352 04e3 14       		.byte	0x14
 3353 04e4 19       		.uleb128 0x19
 3354 04e5 C4030000 		.4byte	.LASF79
 3355 04e9 0F       		.byte	0xf
 3356 04ea 4602     		.2byte	0x246
 3357 04ec 25000000 		.4byte	0x25
 3358 04f0 30       		.byte	0x30
 3359 04f1 19       		.uleb128 0x19
 3360 04f2 A80F0000 		.4byte	.LASF80
 3361 04f6 0F       		.byte	0xf
 3362 04f7 4702     		.2byte	0x247
 3363 04f9 8B080000 		.4byte	0x88b
 3364 04fd 34       		.byte	0x34
 3365 04fe 19       		.uleb128 0x19
 3366 04ff 88060000 		.4byte	.LASF81
 3367 0503 0F       		.byte	0xf
 3368 0504 4902     		.2byte	0x249
 3369 0506 25000000 		.4byte	0x25
 3370 050a 38       		.byte	0x38
 3371 050b 19       		.uleb128 0x19
 3372 050c D1070000 		.4byte	.LASF82
 3373 0510 0F       		.byte	0xf
 3374 0511 4B02     		.2byte	0x24b
 3375 0513 9C080000 		.4byte	0x89c
 3376 0517 3C       		.byte	0x3c
 3377 0518 19       		.uleb128 0x19
 3378 0519 D90F0000 		.4byte	.LASF83
 3379 051d 0F       		.byte	0xf
 3380 051e 4E02     		.2byte	0x24e
 3381 0520 D0010000 		.4byte	0x1d0
 3382 0524 40       		.byte	0x40
 3383 0525 19       		.uleb128 0x19
 3384 0526 82020000 		.4byte	.LASF84
 3385 052a 0F       		.byte	0xf
 3386 052b 4F02     		.2byte	0x24f
 3387 052d 25000000 		.4byte	0x25
 3388 0531 44       		.byte	0x44
ARM GAS  /tmp/cctghmAI.s 			page 61


 3389 0532 19       		.uleb128 0x19
 3390 0533 3D060000 		.4byte	.LASF85
 3391 0537 0F       		.byte	0xf
 3392 0538 5002     		.2byte	0x250
 3393 053a D0010000 		.4byte	0x1d0
 3394 053e 48       		.byte	0x48
 3395 053f 19       		.uleb128 0x19
 3396 0540 BD080000 		.4byte	.LASF86
 3397 0544 0F       		.byte	0xf
 3398 0545 5102     		.2byte	0x251
 3399 0547 A2080000 		.4byte	0x8a2
 3400 054b 4C       		.byte	0x4c
 3401 054c 19       		.uleb128 0x19
 3402 054d DA000000 		.4byte	.LASF87
 3403 0551 0F       		.byte	0xf
 3404 0552 5402     		.2byte	0x254
 3405 0554 25000000 		.4byte	0x25
 3406 0558 50       		.byte	0x50
 3407 0559 19       		.uleb128 0x19
 3408 055a E4050000 		.4byte	.LASF88
 3409 055e 0F       		.byte	0xf
 3410 055f 5502     		.2byte	0x255
 3411 0561 60010000 		.4byte	0x160
 3412 0565 54       		.byte	0x54
 3413 0566 19       		.uleb128 0x19
 3414 0567 DC090000 		.4byte	.LASF89
 3415 056b 0F       		.byte	0xf
 3416 056c 7802     		.2byte	0x278
 3417 056e 54080000 		.4byte	0x854
 3418 0572 58       		.byte	0x58
 3419 0573 1A       		.uleb128 0x1a
 3420 0574 530A0000 		.4byte	.LASF49
 3421 0578 0F       		.byte	0xf
 3422 0579 7C02     		.2byte	0x27c
 3423 057b ED020000 		.4byte	0x2ed
 3424 057f 4801     		.2byte	0x148
 3425 0581 1A       		.uleb128 0x1a
 3426 0582 DB070000 		.4byte	.LASF90
 3427 0586 0F       		.byte	0xf
 3428 0587 7D02     		.2byte	0x27d
 3429 0589 AF020000 		.4byte	0x2af
 3430 058d 4C01     		.2byte	0x14c
 3431 058f 1A       		.uleb128 0x1a
 3432 0590 CA050000 		.4byte	.LASF91
 3433 0594 0F       		.byte	0xf
 3434 0595 8102     		.2byte	0x281
 3435 0597 B3080000 		.4byte	0x8b3
 3436 059b DC02     		.2byte	0x2dc
 3437 059d 1A       		.uleb128 0x1a
 3438 059e 58080000 		.4byte	.LASF92
 3439 05a2 0F       		.byte	0xf
 3440 05a3 8602     		.2byte	0x286
 3441 05a5 59060000 		.4byte	0x659
 3442 05a9 E002     		.2byte	0x2e0
 3443 05ab 1A       		.uleb128 0x1a
 3444 05ac 76000000 		.4byte	.LASF93
 3445 05b0 0F       		.byte	0xf
ARM GAS  /tmp/cctghmAI.s 			page 62


 3446 05b1 8702     		.2byte	0x287
 3447 05b3 BF080000 		.4byte	0x8bf
 3448 05b7 EC02     		.2byte	0x2ec
 3449 05b9 00       		.byte	0
 3450 05ba 06       		.uleb128 0x6
 3451 05bb 04       		.byte	0x4
 3452 05bc 5F040000 		.4byte	0x45f
 3453 05c0 16       		.uleb128 0x16
 3454 05c1 25000000 		.4byte	0x25
 3455 05c5 DE050000 		.4byte	0x5de
 3456 05c9 17       		.uleb128 0x17
 3457 05ca 7D040000 		.4byte	0x47d
 3458 05ce 17       		.uleb128 0x17
 3459 05cf 5E010000 		.4byte	0x15e
 3460 05d3 17       		.uleb128 0x17
 3461 05d4 DE050000 		.4byte	0x5de
 3462 05d8 17       		.uleb128 0x17
 3463 05d9 25000000 		.4byte	0x25
 3464 05dd 00       		.byte	0
 3465 05de 06       		.uleb128 0x6
 3466 05df 04       		.byte	0x4
 3467 05e0 6D010000 		.4byte	0x16d
 3468 05e4 04       		.uleb128 0x4
 3469 05e5 DE050000 		.4byte	0x5de
 3470 05e9 06       		.uleb128 0x6
 3471 05ea 04       		.byte	0x4
 3472 05eb C0050000 		.4byte	0x5c0
 3473 05ef 16       		.uleb128 0x16
 3474 05f0 DA000000 		.4byte	0xda
 3475 05f4 0D060000 		.4byte	0x60d
 3476 05f8 17       		.uleb128 0x17
 3477 05f9 7D040000 		.4byte	0x47d
 3478 05fd 17       		.uleb128 0x17
 3479 05fe 5E010000 		.4byte	0x15e
 3480 0602 17       		.uleb128 0x17
 3481 0603 DA000000 		.4byte	0xda
 3482 0607 17       		.uleb128 0x17
 3483 0608 25000000 		.4byte	0x25
 3484 060c 00       		.byte	0
 3485 060d 06       		.uleb128 0x6
 3486 060e 04       		.byte	0x4
 3487 060f EF050000 		.4byte	0x5ef
 3488 0613 16       		.uleb128 0x16
 3489 0614 25000000 		.4byte	0x25
 3490 0618 27060000 		.4byte	0x627
 3491 061c 17       		.uleb128 0x17
 3492 061d 7D040000 		.4byte	0x47d
 3493 0621 17       		.uleb128 0x17
 3494 0622 5E010000 		.4byte	0x15e
 3495 0626 00       		.byte	0
 3496 0627 06       		.uleb128 0x6
 3497 0628 04       		.byte	0x4
 3498 0629 13060000 		.4byte	0x613
 3499 062d 0B       		.uleb128 0xb
 3500 062e 63000000 		.4byte	0x63
 3501 0632 3D060000 		.4byte	0x63d
 3502 0636 0C       		.uleb128 0xc
ARM GAS  /tmp/cctghmAI.s 			page 63


 3503 0637 20010000 		.4byte	0x120
 3504 063b 02       		.byte	0x2
 3505 063c 00       		.byte	0
 3506 063d 0B       		.uleb128 0xb
 3507 063e 63000000 		.4byte	0x63
 3508 0642 4D060000 		.4byte	0x64d
 3509 0646 0C       		.uleb128 0xc
 3510 0647 20010000 		.4byte	0x120
 3511 064b 00       		.byte	0
 3512 064c 00       		.byte	0
 3513 064d 08       		.uleb128 0x8
 3514 064e A60C0000 		.4byte	.LASF94
 3515 0652 0F       		.byte	0xf
 3516 0653 1F01     		.2byte	0x11f
 3517 0655 35030000 		.4byte	0x335
 3518 0659 1B       		.uleb128 0x1b
 3519 065a E3080000 		.4byte	.LASF95
 3520 065e 0C       		.byte	0xc
 3521 065f 0F       		.byte	0xf
 3522 0660 2301     		.2byte	0x123
 3523 0662 8E060000 		.4byte	0x68e
 3524 0666 19       		.uleb128 0x19
 3525 0667 D90C0000 		.4byte	.LASF29
 3526 066b 0F       		.byte	0xf
 3527 066c 2501     		.2byte	0x125
 3528 066e 8E060000 		.4byte	0x68e
 3529 0672 00       		.byte	0
 3530 0673 19       		.uleb128 0x19
 3531 0674 3F080000 		.4byte	.LASF96
 3532 0678 0F       		.byte	0xf
 3533 0679 2601     		.2byte	0x126
 3534 067b 25000000 		.4byte	0x25
 3535 067f 04       		.byte	0x4
 3536 0680 19       		.uleb128 0x19
 3537 0681 C7080000 		.4byte	.LASF97
 3538 0685 0F       		.byte	0xf
 3539 0686 2701     		.2byte	0x127
 3540 0688 94060000 		.4byte	0x694
 3541 068c 08       		.byte	0x8
 3542 068d 00       		.byte	0
 3543 068e 06       		.uleb128 0x6
 3544 068f 04       		.byte	0x4
 3545 0690 59060000 		.4byte	0x659
 3546 0694 06       		.uleb128 0x6
 3547 0695 04       		.byte	0x4
 3548 0696 4D060000 		.4byte	0x64d
 3549 069a 1B       		.uleb128 0x1b
 3550 069b 1A0C0000 		.4byte	.LASF98
 3551 069f 0E       		.byte	0xe
 3552 06a0 0F       		.byte	0xf
 3553 06a1 3F01     		.2byte	0x13f
 3554 06a3 CF060000 		.4byte	0x6cf
 3555 06a7 19       		.uleb128 0x19
 3556 06a8 310B0000 		.4byte	.LASF99
 3557 06ac 0F       		.byte	0xf
 3558 06ad 4001     		.2byte	0x140
 3559 06af CF060000 		.4byte	0x6cf
ARM GAS  /tmp/cctghmAI.s 			page 64


 3560 06b3 00       		.byte	0
 3561 06b4 19       		.uleb128 0x19
 3562 06b5 86010000 		.4byte	.LASF100
 3563 06b9 0F       		.byte	0xf
 3564 06ba 4101     		.2byte	0x141
 3565 06bc CF060000 		.4byte	0x6cf
 3566 06c0 06       		.byte	0x6
 3567 06c1 19       		.uleb128 0x19
 3568 06c2 13100000 		.4byte	.LASF101
 3569 06c6 0F       		.byte	0xf
 3570 06c7 4201     		.2byte	0x142
 3571 06c9 7C000000 		.4byte	0x7c
 3572 06cd 0C       		.byte	0xc
 3573 06ce 00       		.byte	0
 3574 06cf 0B       		.uleb128 0xb
 3575 06d0 7C000000 		.4byte	0x7c
 3576 06d4 DF060000 		.4byte	0x6df
 3577 06d8 0C       		.uleb128 0xc
 3578 06d9 20010000 		.4byte	0x120
 3579 06dd 02       		.byte	0x2
 3580 06de 00       		.byte	0
 3581 06df 1C       		.uleb128 0x1c
 3582 06e0 D0       		.byte	0xd0
 3583 06e1 0F       		.byte	0xf
 3584 06e2 5902     		.2byte	0x259
 3585 06e4 E0070000 		.4byte	0x7e0
 3586 06e8 19       		.uleb128 0x19
 3587 06e9 36030000 		.4byte	.LASF102
 3588 06ed 0F       		.byte	0xf
 3589 06ee 5B02     		.2byte	0x25b
 3590 06f0 3C000000 		.4byte	0x3c
 3591 06f4 00       		.byte	0
 3592 06f5 19       		.uleb128 0x19
 3593 06f6 5F0C0000 		.4byte	.LASF103
 3594 06fa 0F       		.byte	0xf
 3595 06fb 5C02     		.2byte	0x25c
 3596 06fd 60010000 		.4byte	0x160
 3597 0701 04       		.byte	0x4
 3598 0702 19       		.uleb128 0x19
 3599 0703 CD000000 		.4byte	.LASF104
 3600 0707 0F       		.byte	0xf
 3601 0708 5D02     		.2byte	0x25d
 3602 070a E0070000 		.4byte	0x7e0
 3603 070e 08       		.byte	0x8
 3604 070f 19       		.uleb128 0x19
 3605 0710 A6020000 		.4byte	.LASF105
 3606 0714 0F       		.byte	0xf
 3607 0715 5E02     		.2byte	0x25e
 3608 0717 E6010000 		.4byte	0x1e6
 3609 071b 24       		.byte	0x24
 3610 071c 19       		.uleb128 0x19
 3611 071d 97080000 		.4byte	.LASF106
 3612 0721 0F       		.byte	0xf
 3613 0722 5F02     		.2byte	0x25f
 3614 0724 25000000 		.4byte	0x25
 3615 0728 48       		.byte	0x48
 3616 0729 19       		.uleb128 0x19
ARM GAS  /tmp/cctghmAI.s 			page 65


 3617 072a 2E0A0000 		.4byte	.LASF107
 3618 072e 0F       		.byte	0xf
 3619 072f 6002     		.2byte	0x260
 3620 0731 B2000000 		.4byte	0xb2
 3621 0735 50       		.byte	0x50
 3622 0736 19       		.uleb128 0x19
 3623 0737 C00C0000 		.4byte	.LASF108
 3624 073b 0F       		.byte	0xf
 3625 073c 6102     		.2byte	0x261
 3626 073e 9A060000 		.4byte	0x69a
 3627 0742 58       		.byte	0x58
 3628 0743 19       		.uleb128 0x19
 3629 0744 4D0D0000 		.4byte	.LASF109
 3630 0748 0F       		.byte	0xf
 3631 0749 6202     		.2byte	0x262
 3632 074b 48010000 		.4byte	0x148
 3633 074f 68       		.byte	0x68
 3634 0750 19       		.uleb128 0x19
 3635 0751 8B0B0000 		.4byte	.LASF110
 3636 0755 0F       		.byte	0xf
 3637 0756 6302     		.2byte	0x263
 3638 0758 48010000 		.4byte	0x148
 3639 075c 70       		.byte	0x70
 3640 075d 19       		.uleb128 0x19
 3641 075e 170A0000 		.4byte	.LASF111
 3642 0762 0F       		.byte	0xf
 3643 0763 6402     		.2byte	0x264
 3644 0765 48010000 		.4byte	0x148
 3645 0769 78       		.byte	0x78
 3646 076a 19       		.uleb128 0x19
 3647 076b 48010000 		.4byte	.LASF112
 3648 076f 0F       		.byte	0xf
 3649 0770 6502     		.2byte	0x265
 3650 0772 F0070000 		.4byte	0x7f0
 3651 0776 80       		.byte	0x80
 3652 0777 19       		.uleb128 0x19
 3653 0778 39070000 		.4byte	.LASF113
 3654 077c 0F       		.byte	0xf
 3655 077d 6602     		.2byte	0x266
 3656 077f 00080000 		.4byte	0x800
 3657 0783 88       		.byte	0x88
 3658 0784 19       		.uleb128 0x19
 3659 0785 31110000 		.4byte	.LASF114
 3660 0789 0F       		.byte	0xf
 3661 078a 6702     		.2byte	0x267
 3662 078c 25000000 		.4byte	0x25
 3663 0790 A0       		.byte	0xa0
 3664 0791 19       		.uleb128 0x19
 3665 0792 44020000 		.4byte	.LASF115
 3666 0796 0F       		.byte	0xf
 3667 0797 6802     		.2byte	0x268
 3668 0799 48010000 		.4byte	0x148
 3669 079d A4       		.byte	0xa4
 3670 079e 19       		.uleb128 0x19
 3671 079f 6C0C0000 		.4byte	.LASF116
 3672 07a3 0F       		.byte	0xf
 3673 07a4 6902     		.2byte	0x269
ARM GAS  /tmp/cctghmAI.s 			page 66


 3674 07a6 48010000 		.4byte	0x148
 3675 07aa AC       		.byte	0xac
 3676 07ab 19       		.uleb128 0x19
 3677 07ac 76100000 		.4byte	.LASF117
 3678 07b0 0F       		.byte	0xf
 3679 07b1 6A02     		.2byte	0x26a
 3680 07b3 48010000 		.4byte	0x148
 3681 07b7 B4       		.byte	0xb4
 3682 07b8 19       		.uleb128 0x19
 3683 07b9 B9090000 		.4byte	.LASF118
 3684 07bd 0F       		.byte	0xf
 3685 07be 6B02     		.2byte	0x26b
 3686 07c0 48010000 		.4byte	0x148
 3687 07c4 BC       		.byte	0xbc
 3688 07c5 19       		.uleb128 0x19
 3689 07c6 28010000 		.4byte	.LASF119
 3690 07ca 0F       		.byte	0xf
 3691 07cb 6C02     		.2byte	0x26c
 3692 07cd 48010000 		.4byte	0x148
 3693 07d1 C4       		.byte	0xc4
 3694 07d2 19       		.uleb128 0x19
 3695 07d3 79090000 		.4byte	.LASF120
 3696 07d7 0F       		.byte	0xf
 3697 07d8 6D02     		.2byte	0x26d
 3698 07da 25000000 		.4byte	0x25
 3699 07de CC       		.byte	0xcc
 3700 07df 00       		.byte	0
 3701 07e0 0B       		.uleb128 0xb
 3702 07e1 66010000 		.4byte	0x166
 3703 07e5 F0070000 		.4byte	0x7f0
 3704 07e9 0C       		.uleb128 0xc
 3705 07ea 20010000 		.4byte	0x120
 3706 07ee 19       		.byte	0x19
 3707 07ef 00       		.byte	0
 3708 07f0 0B       		.uleb128 0xb
 3709 07f1 66010000 		.4byte	0x166
 3710 07f5 00080000 		.4byte	0x800
 3711 07f9 0C       		.uleb128 0xc
 3712 07fa 20010000 		.4byte	0x120
 3713 07fe 07       		.byte	0x7
 3714 07ff 00       		.byte	0
 3715 0800 0B       		.uleb128 0xb
 3716 0801 66010000 		.4byte	0x166
 3717 0805 10080000 		.4byte	0x810
 3718 0809 0C       		.uleb128 0xc
 3719 080a 20010000 		.4byte	0x120
 3720 080e 17       		.byte	0x17
 3721 080f 00       		.byte	0
 3722 0810 1C       		.uleb128 0x1c
 3723 0811 F0       		.byte	0xf0
 3724 0812 0F       		.byte	0xf
 3725 0813 7202     		.2byte	0x272
 3726 0815 34080000 		.4byte	0x834
 3727 0819 19       		.uleb128 0x19
 3728 081a 530F0000 		.4byte	.LASF121
 3729 081e 0F       		.byte	0xf
 3730 081f 7502     		.2byte	0x275
ARM GAS  /tmp/cctghmAI.s 			page 67


 3731 0821 34080000 		.4byte	0x834
 3732 0825 00       		.byte	0
 3733 0826 19       		.uleb128 0x19
 3734 0827 81080000 		.4byte	.LASF122
 3735 082b 0F       		.byte	0xf
 3736 082c 7602     		.2byte	0x276
 3737 082e 44080000 		.4byte	0x844
 3738 0832 78       		.byte	0x78
 3739 0833 00       		.byte	0
 3740 0834 0B       		.uleb128 0xb
 3741 0835 2F030000 		.4byte	0x32f
 3742 0839 44080000 		.4byte	0x844
 3743 083d 0C       		.uleb128 0xc
 3744 083e 20010000 		.4byte	0x120
 3745 0842 1D       		.byte	0x1d
 3746 0843 00       		.byte	0
 3747 0844 0B       		.uleb128 0xb
 3748 0845 3C000000 		.4byte	0x3c
 3749 0849 54080000 		.4byte	0x854
 3750 084d 0C       		.uleb128 0xc
 3751 084e 20010000 		.4byte	0x120
 3752 0852 1D       		.byte	0x1d
 3753 0853 00       		.byte	0
 3754 0854 1D       		.uleb128 0x1d
 3755 0855 F0       		.byte	0xf0
 3756 0856 0F       		.byte	0xf
 3757 0857 5702     		.2byte	0x257
 3758 0859 76080000 		.4byte	0x876
 3759 085d 1E       		.uleb128 0x1e
 3760 085e DD030000 		.4byte	.LASF72
 3761 0862 0F       		.byte	0xf
 3762 0863 6E02     		.2byte	0x26e
 3763 0865 DF060000 		.4byte	0x6df
 3764 0869 1E       		.uleb128 0x1e
 3765 086a 1B010000 		.4byte	.LASF123
 3766 086e 0F       		.byte	0xf
 3767 086f 7702     		.2byte	0x277
 3768 0871 10080000 		.4byte	0x810
 3769 0875 00       		.byte	0
 3770 0876 0B       		.uleb128 0xb
 3771 0877 66010000 		.4byte	0x166
 3772 087b 86080000 		.4byte	0x886
 3773 087f 0C       		.uleb128 0xc
 3774 0880 20010000 		.4byte	0x120
 3775 0884 18       		.byte	0x18
 3776 0885 00       		.byte	0
 3777 0886 07       		.uleb128 0x7
 3778 0887 23000000 		.4byte	.LASF125
 3779 088b 06       		.uleb128 0x6
 3780 088c 04       		.byte	0x4
 3781 088d 86080000 		.4byte	0x886
 3782 0891 1F       		.uleb128 0x1f
 3783 0892 9C080000 		.4byte	0x89c
 3784 0896 17       		.uleb128 0x17
 3785 0897 7D040000 		.4byte	0x47d
 3786 089b 00       		.byte	0
 3787 089c 06       		.uleb128 0x6
ARM GAS  /tmp/cctghmAI.s 			page 68


 3788 089d 04       		.byte	0x4
 3789 089e 91080000 		.4byte	0x891
 3790 08a2 06       		.uleb128 0x6
 3791 08a3 04       		.byte	0x4
 3792 08a4 D0010000 		.4byte	0x1d0
 3793 08a8 1F       		.uleb128 0x1f
 3794 08a9 B3080000 		.4byte	0x8b3
 3795 08ad 17       		.uleb128 0x17
 3796 08ae 25000000 		.4byte	0x25
 3797 08b2 00       		.byte	0
 3798 08b3 06       		.uleb128 0x6
 3799 08b4 04       		.byte	0x4
 3800 08b5 B9080000 		.4byte	0x8b9
 3801 08b9 06       		.uleb128 0x6
 3802 08ba 04       		.byte	0x4
 3803 08bb A8080000 		.4byte	0x8a8
 3804 08bf 0B       		.uleb128 0xb
 3805 08c0 4D060000 		.4byte	0x64d
 3806 08c4 CF080000 		.4byte	0x8cf
 3807 08c8 0C       		.uleb128 0xc
 3808 08c9 20010000 		.4byte	0x120
 3809 08cd 02       		.byte	0x2
 3810 08ce 00       		.byte	0
 3811 08cf 20       		.uleb128 0x20
 3812 08d0 6E020000 		.4byte	.LASF126
 3813 08d4 0F       		.byte	0xf
 3814 08d5 FE02     		.2byte	0x2fe
 3815 08d7 7D040000 		.4byte	0x47d
 3816 08db 20       		.uleb128 0x20
 3817 08dc EC030000 		.4byte	.LASF127
 3818 08e0 0F       		.byte	0xf
 3819 08e1 FF02     		.2byte	0x2ff
 3820 08e3 83040000 		.4byte	0x483
 3821 08e7 03       		.uleb128 0x3
 3822 08e8 56030000 		.4byte	.LASF128
 3823 08ec 10       		.byte	0x10
 3824 08ed 18       		.byte	0x18
 3825 08ee 58000000 		.4byte	0x58
 3826 08f2 10       		.uleb128 0x10
 3827 08f3 E7080000 		.4byte	0x8e7
 3828 08f7 03       		.uleb128 0x3
 3829 08f8 EE0B0000 		.4byte	.LASF129
 3830 08fc 10       		.byte	0x10
 3831 08fd 24       		.byte	0x24
 3832 08fe 71000000 		.4byte	0x71
 3833 0902 04       		.uleb128 0x4
 3834 0903 F7080000 		.4byte	0x8f7
 3835 0907 03       		.uleb128 0x3
 3836 0908 BE000000 		.4byte	.LASF130
 3837 090c 10       		.byte	0x10
 3838 090d 2C       		.byte	0x2c
 3839 090e 83000000 		.4byte	0x83
 3840 0912 03       		.uleb128 0x3
 3841 0913 D00F0000 		.4byte	.LASF131
 3842 0917 10       		.byte	0x10
 3843 0918 30       		.byte	0x30
 3844 0919 95000000 		.4byte	0x95
ARM GAS  /tmp/cctghmAI.s 			page 69


 3845 091d 04       		.uleb128 0x4
 3846 091e 12090000 		.4byte	0x912
 3847 0922 03       		.uleb128 0x3
 3848 0923 860D0000 		.4byte	.LASF132
 3849 0927 10       		.byte	0x10
 3850 0928 3C       		.byte	0x3c
 3851 0929 A7000000 		.4byte	0xa7
 3852 092d 03       		.uleb128 0x3
 3853 092e F50C0000 		.4byte	.LASF133
 3854 0932 11       		.byte	0x11
 3855 0933 3C       		.byte	0x3c
 3856 0934 E7080000 		.4byte	0x8e7
 3857 0938 03       		.uleb128 0x3
 3858 0939 B5020000 		.4byte	.LASF134
 3859 093d 11       		.byte	0x11
 3860 093e 3D       		.byte	0x3d
 3861 093f E7080000 		.4byte	0x8e7
 3862 0943 03       		.uleb128 0x3
 3863 0944 4B0F0000 		.4byte	.LASF135
 3864 0948 11       		.byte	0x11
 3865 0949 3E       		.byte	0x3e
 3866 094a E7080000 		.4byte	0x8e7
 3867 094e 03       		.uleb128 0x3
 3868 094f 95000000 		.4byte	.LASF136
 3869 0953 11       		.byte	0x11
 3870 0954 40       		.byte	0x40
 3871 0955 12090000 		.4byte	0x912
 3872 0959 03       		.uleb128 0x3
 3873 095a 030C0000 		.4byte	.LASF137
 3874 095e 11       		.byte	0x11
 3875 095f 41       		.byte	0x41
 3876 0960 07090000 		.4byte	0x907
 3877 0964 03       		.uleb128 0x3
 3878 0965 6B030000 		.4byte	.LASF138
 3879 0969 11       		.byte	0x11
 3880 096a 43       		.byte	0x43
 3881 096b 12090000 		.4byte	0x912
 3882 096f 03       		.uleb128 0x3
 3883 0970 220C0000 		.4byte	.LASF139
 3884 0974 11       		.byte	0x11
 3885 0975 44       		.byte	0x44
 3886 0976 12090000 		.4byte	0x912
 3887 097a 03       		.uleb128 0x3
 3888 097b 4C050000 		.4byte	.LASF140
 3889 097f 11       		.byte	0x11
 3890 0980 45       		.byte	0x45
 3891 0981 07090000 		.4byte	0x907
 3892 0985 03       		.uleb128 0x3
 3893 0986 6C000000 		.4byte	.LASF141
 3894 098a 12       		.byte	0x12
 3895 098b 35       		.byte	0x35
 3896 098c F7080000 		.4byte	0x8f7
 3897 0990 03       		.uleb128 0x3
 3898 0991 C80A0000 		.4byte	.LASF142
 3899 0995 12       		.byte	0x12
 3900 0996 3F       		.byte	0x3f
 3901 0997 9B090000 		.4byte	0x99b
ARM GAS  /tmp/cctghmAI.s 			page 70


 3902 099b 11       		.uleb128 0x11
 3903 099c CD060000 		.4byte	.LASF143
 3904 09a0 48       		.byte	0x48
 3905 09a1 05       		.byte	0x5
 3906 09a2 C2       		.byte	0xc2
 3907 09a3 940A0000 		.4byte	0xa94
 3908 09a7 0E       		.uleb128 0xe
 3909 09a8 5B020000 		.4byte	.LASF144
 3910 09ac 05       		.byte	0x5
 3911 09ad C3       		.byte	0xc3
 3912 09ae 9F0A0000 		.4byte	0xa9f
 3913 09b2 00       		.byte	0
 3914 09b3 0E       		.uleb128 0xe
 3915 09b4 9F020000 		.4byte	.LASF145
 3916 09b8 05       		.byte	0x5
 3917 09b9 C5       		.byte	0xc5
 3918 09ba 9F0A0000 		.4byte	0xa9f
 3919 09be 04       		.byte	0x4
 3920 09bf 0E       		.uleb128 0xe
 3921 09c0 7E040000 		.4byte	.LASF146
 3922 09c4 05       		.byte	0x5
 3923 09c5 C7       		.byte	0xc7
 3924 09c6 4E090000 		.4byte	0x94e
 3925 09ca 08       		.byte	0x8
 3926 09cb 0E       		.uleb128 0xe
 3927 09cc 89000000 		.4byte	.LASF147
 3928 09d0 05       		.byte	0x5
 3929 09d1 C8       		.byte	0xc8
 3930 09d2 700E0000 		.4byte	0xe70
 3931 09d6 0C       		.byte	0xc
 3932 09d7 0E       		.uleb128 0xe
 3933 09d8 3C020000 		.4byte	.LASF148
 3934 09dc 05       		.byte	0x5
 3935 09dd CA       		.byte	0xca
 3936 09de 9F0A0000 		.4byte	0xa9f
 3937 09e2 10       		.byte	0x10
 3938 09e3 0E       		.uleb128 0xe
 3939 09e4 E60B0000 		.4byte	.LASF149
 3940 09e8 05       		.byte	0x5
 3941 09e9 CB       		.byte	0xcb
 3942 09ea 9F0A0000 		.4byte	0xa9f
 3943 09ee 14       		.byte	0x14
 3944 09ef 0E       		.uleb128 0xe
 3945 09f0 13110000 		.4byte	.LASF150
 3946 09f4 05       		.byte	0x5
 3947 09f5 D2       		.byte	0xd2
 3948 09f6 DE050000 		.4byte	0x5de
 3949 09fa 18       		.byte	0x18
 3950 09fb 0E       		.uleb128 0xe
 3951 09fc 96100000 		.4byte	.LASF151
 3952 0a00 05       		.byte	0x5
 3953 0a01 D8       		.byte	0xd8
 3954 0a02 71110000 		.4byte	0x1171
 3955 0a06 1C       		.byte	0x1c
 3956 0a07 0E       		.uleb128 0xe
 3957 0a08 57110000 		.4byte	.LASF152
 3958 0a0c 05       		.byte	0x5
ARM GAS  /tmp/cctghmAI.s 			page 71


 3959 0a0d DD       		.byte	0xdd
 3960 0a0e 38090000 		.4byte	0x938
 3961 0a12 20       		.byte	0x20
 3962 0a13 0E       		.uleb128 0xe
 3963 0a14 DB010000 		.4byte	.LASF153
 3964 0a18 05       		.byte	0x5
 3965 0a19 E1       		.byte	0xe1
 3966 0a1a 2D090000 		.4byte	0x92d
 3967 0a1e 21       		.byte	0x21
 3968 0a1f 0E       		.uleb128 0xe
 3969 0a20 A6090000 		.4byte	.LASF154
 3970 0a24 05       		.byte	0x5
 3971 0a25 E6       		.byte	0xe6
 3972 0a26 43090000 		.4byte	0x943
 3973 0a2a 22       		.byte	0x22
 3974 0a2b 21       		.uleb128 0x21
 3975 0a2c 705F7500 		.ascii	"p_u\000"
 3976 0a30 05       		.byte	0x5
 3977 0a31 3101     		.2byte	0x131
 3978 0a33 AC100000 		.4byte	0x10ac
 3979 0a37 24       		.byte	0x24
 3980 0a38 19       		.uleb128 0x19
 3981 0a39 1A090000 		.4byte	.LASF155
 3982 0a3d 05       		.byte	0x5
 3983 0a3e 3601     		.2byte	0x136
 3984 0a40 A50A0000 		.4byte	0xaa5
 3985 0a44 28       		.byte	0x28
 3986 0a45 19       		.uleb128 0x19
 3987 0a46 A6000000 		.4byte	.LASF156
 3988 0a4a 05       		.byte	0x5
 3989 0a4b 3C01     		.2byte	0x13c
 3990 0a4d C90A0000 		.4byte	0xac9
 3991 0a51 2C       		.byte	0x2c
 3992 0a52 19       		.uleb128 0x19
 3993 0a53 45110000 		.4byte	.LASF157
 3994 0a57 05       		.byte	0x5
 3995 0a58 4001     		.2byte	0x140
 3996 0a5a 59090000 		.4byte	0x959
 3997 0a5e 34       		.byte	0x34
 3998 0a5f 19       		.uleb128 0x19
 3999 0a60 9E050000 		.4byte	.LASF158
 4000 0a64 05       		.byte	0x5
 4001 0a65 4601     		.2byte	0x146
 4002 0a67 64090000 		.4byte	0x964
 4003 0a6b 38       		.byte	0x38
 4004 0a6c 19       		.uleb128 0x19
 4005 0a6d DA020000 		.4byte	.LASF159
 4006 0a71 05       		.byte	0x5
 4007 0a72 4D01     		.2byte	0x14d
 4008 0a74 6B110000 		.4byte	0x116b
 4009 0a78 3C       		.byte	0x3c
 4010 0a79 19       		.uleb128 0x19
 4011 0a7a 1A0B0000 		.4byte	.LASF160
 4012 0a7e 05       		.byte	0x5
 4013 0a7f 5101     		.2byte	0x151
 4014 0a81 4E090000 		.4byte	0x94e
 4015 0a85 40       		.byte	0x40
ARM GAS  /tmp/cctghmAI.s 			page 72


 4016 0a86 19       		.uleb128 0x19
 4017 0a87 71090000 		.4byte	.LASF161
 4018 0a8b 05       		.byte	0x5
 4019 0a8c 5801     		.2byte	0x158
 4020 0a8e 5E010000 		.4byte	0x15e
 4021 0a92 44       		.byte	0x44
 4022 0a93 00       		.byte	0
 4023 0a94 03       		.uleb128 0x3
 4024 0a95 400A0000 		.4byte	.LASF162
 4025 0a99 12       		.byte	0x12
 4026 0a9a 44       		.byte	0x44
 4027 0a9b 9F0A0000 		.4byte	0xa9f
 4028 0a9f 06       		.uleb128 0x6
 4029 0aa0 04       		.byte	0x4
 4030 0aa1 90090000 		.4byte	0x990
 4031 0aa5 03       		.uleb128 0x3
 4032 0aa6 7E0F0000 		.4byte	.LASF163
 4033 0aaa 12       		.byte	0x12
 4034 0aab 49       		.byte	0x49
 4035 0aac B00A0000 		.4byte	0xab0
 4036 0ab0 11       		.uleb128 0x11
 4037 0ab1 7E070000 		.4byte	.LASF164
 4038 0ab5 04       		.byte	0x4
 4039 0ab6 05       		.byte	0x5
 4040 0ab7 B0       		.byte	0xb0
 4041 0ab8 C90A0000 		.4byte	0xac9
 4042 0abc 0E       		.uleb128 0xe
 4043 0abd 5B020000 		.4byte	.LASF144
 4044 0ac1 05       		.byte	0x5
 4045 0ac2 B1       		.byte	0xb1
 4046 0ac3 9F0A0000 		.4byte	0xa9f
 4047 0ac7 00       		.byte	0
 4048 0ac8 00       		.byte	0
 4049 0ac9 03       		.uleb128 0x3
 4050 0aca CA020000 		.4byte	.LASF165
 4051 0ace 12       		.byte	0x12
 4052 0acf 50       		.byte	0x50
 4053 0ad0 D40A0000 		.4byte	0xad4
 4054 0ad4 11       		.uleb128 0x11
 4055 0ad5 090C0000 		.4byte	.LASF166
 4056 0ad9 08       		.byte	0x8
 4057 0ada 05       		.byte	0x5
 4058 0adb B7       		.byte	0xb7
 4059 0adc F90A0000 		.4byte	0xaf9
 4060 0ae0 0E       		.uleb128 0xe
 4061 0ae1 5B020000 		.4byte	.LASF144
 4062 0ae5 05       		.byte	0x5
 4063 0ae6 B8       		.byte	0xb8
 4064 0ae7 9F0A0000 		.4byte	0xa9f
 4065 0aeb 00       		.byte	0
 4066 0aec 0E       		.uleb128 0xe
 4067 0aed 9F020000 		.4byte	.LASF145
 4068 0af1 05       		.byte	0x5
 4069 0af2 B9       		.byte	0xb9
 4070 0af3 9F0A0000 		.4byte	0xa9f
 4071 0af7 04       		.byte	0x4
 4072 0af8 00       		.byte	0
ARM GAS  /tmp/cctghmAI.s 			page 73


 4073 0af9 03       		.uleb128 0x3
 4074 0afa 24070000 		.4byte	.LASF167
 4075 0afe 12       		.byte	0x12
 4076 0aff 57       		.byte	0x57
 4077 0b00 040B0000 		.4byte	0xb04
 4078 0b04 1B       		.uleb128 0x1b
 4079 0b05 B5050000 		.4byte	.LASF168
 4080 0b09 1C       		.byte	0x1c
 4081 0b0a 05       		.byte	0x5
 4082 0b0b 9001     		.2byte	0x190
 4083 0b0d 600B0000 		.4byte	0xb60
 4084 0b11 19       		.uleb128 0x19
 4085 0b12 B80C0000 		.4byte	.LASF169
 4086 0b16 05       		.byte	0x5
 4087 0b17 9101     		.2byte	0x191
 4088 0b19 C90A0000 		.4byte	0xac9
 4089 0b1d 00       		.byte	0
 4090 0b1e 19       		.uleb128 0x19
 4091 0b1f BE0D0000 		.4byte	.LASF170
 4092 0b23 05       		.byte	0x5
 4093 0b24 9201     		.2byte	0x192
 4094 0b26 4E090000 		.4byte	0x94e
 4095 0b2a 08       		.byte	0x8
 4096 0b2b 19       		.uleb128 0x19
 4097 0b2c B8000000 		.4byte	.LASF171
 4098 0b30 05       		.byte	0x5
 4099 0b31 9401     		.2byte	0x194
 4100 0b33 700E0000 		.4byte	0xe70
 4101 0b37 0C       		.byte	0xc
 4102 0b38 19       		.uleb128 0x19
 4103 0b39 E4030000 		.4byte	.LASF172
 4104 0b3d 05       		.byte	0x5
 4105 0b3e 9701     		.2byte	0x197
 4106 0b40 9F0A0000 		.4byte	0xa9f
 4107 0b44 10       		.byte	0x10
 4108 0b45 19       		.uleb128 0x19
 4109 0b46 100D0000 		.4byte	.LASF173
 4110 0b4a 05       		.byte	0x5
 4111 0b4b 9801     		.2byte	0x198
 4112 0b4d 9F0A0000 		.4byte	0xa9f
 4113 0b51 14       		.byte	0x14
 4114 0b52 19       		.uleb128 0x19
 4115 0b53 E0100000 		.4byte	.LASF174
 4116 0b57 05       		.byte	0x5
 4117 0b58 9B01     		.2byte	0x19b
 4118 0b5a 9F0A0000 		.4byte	0xa9f
 4119 0b5e 18       		.byte	0x18
 4120 0b5f 00       		.byte	0
 4121 0b60 03       		.uleb128 0x3
 4122 0b61 ED000000 		.4byte	.LASF175
 4123 0b65 12       		.byte	0x12
 4124 0b66 5C       		.byte	0x5c
 4125 0b67 6B0B0000 		.4byte	0xb6b
 4126 0b6b 06       		.uleb128 0x6
 4127 0b6c 04       		.byte	0x4
 4128 0b6d 710B0000 		.4byte	0xb71
 4129 0b71 1F       		.uleb128 0x1f
ARM GAS  /tmp/cctghmAI.s 			page 74


 4130 0b72 7C0B0000 		.4byte	0xb7c
 4131 0b76 17       		.uleb128 0x17
 4132 0b77 5E010000 		.4byte	0x15e
 4133 0b7b 00       		.byte	0
 4134 0b7c 03       		.uleb128 0x3
 4135 0b7d 14070000 		.4byte	.LASF176
 4136 0b81 12       		.byte	0x12
 4137 0b82 61       		.byte	0x61
 4138 0b83 870B0000 		.4byte	0xb87
 4139 0b87 1B       		.uleb128 0x1b
 4140 0b88 740B0000 		.4byte	.LASF177
 4141 0b8c 14       		.byte	0x14
 4142 0b8d 05       		.byte	0x5
 4143 0b8e 6B01     		.2byte	0x16b
 4144 0b90 D60B0000 		.4byte	0xbd6
 4145 0b94 19       		.uleb128 0x19
 4146 0b95 50080000 		.4byte	.LASF178
 4147 0b99 05       		.byte	0x5
 4148 0b9a 6C01     		.2byte	0x16c
 4149 0b9c 77110000 		.4byte	0x1177
 4150 0ba0 00       		.byte	0
 4151 0ba1 19       		.uleb128 0x19
 4152 0ba2 8A080000 		.4byte	.LASF179
 4153 0ba6 05       		.byte	0x5
 4154 0ba7 6D01     		.2byte	0x16d
 4155 0ba9 77110000 		.4byte	0x1177
 4156 0bad 04       		.byte	0x4
 4157 0bae 19       		.uleb128 0x19
 4158 0baf 430B0000 		.4byte	.LASF180
 4159 0bb3 05       		.byte	0x5
 4160 0bb4 6E01     		.2byte	0x16e
 4161 0bb6 85090000 		.4byte	0x985
 4162 0bba 08       		.byte	0x8
 4163 0bbb 19       		.uleb128 0x19
 4164 0bbc 5F050000 		.4byte	.LASF181
 4165 0bc0 05       		.byte	0x5
 4166 0bc1 6F01     		.2byte	0x16f
 4167 0bc3 600B0000 		.4byte	0xb60
 4168 0bc7 0C       		.byte	0xc
 4169 0bc8 19       		.uleb128 0x19
 4170 0bc9 D4010000 		.4byte	.LASF182
 4171 0bcd 05       		.byte	0x5
 4172 0bce 7101     		.2byte	0x171
 4173 0bd0 5E010000 		.4byte	0x15e
 4174 0bd4 10       		.byte	0x10
 4175 0bd5 00       		.byte	0
 4176 0bd6 03       		.uleb128 0x3
 4177 0bd7 D7060000 		.4byte	.LASF183
 4178 0bdb 12       		.byte	0x12
 4179 0bdc 66       		.byte	0x66
 4180 0bdd E10B0000 		.4byte	0xbe1
 4181 0be1 1B       		.uleb128 0x1b
 4182 0be2 04010000 		.4byte	.LASF184
 4183 0be6 0C       		.byte	0xc
 4184 0be7 05       		.byte	0x5
 4185 0be8 7B01     		.2byte	0x17b
 4186 0bea 230C0000 		.4byte	0xc23
ARM GAS  /tmp/cctghmAI.s 			page 75


 4187 0bee 19       		.uleb128 0x19
 4188 0bef 50080000 		.4byte	.LASF178
 4189 0bf3 05       		.byte	0x5
 4190 0bf4 7C01     		.2byte	0x17c
 4191 0bf6 77110000 		.4byte	0x1177
 4192 0bfa 00       		.byte	0
 4193 0bfb 19       		.uleb128 0x19
 4194 0bfc 8A080000 		.4byte	.LASF179
 4195 0c00 05       		.byte	0x5
 4196 0c01 7E01     		.2byte	0x17e
 4197 0c03 77110000 		.4byte	0x1177
 4198 0c07 04       		.byte	0x4
 4199 0c08 19       		.uleb128 0x19
 4200 0c09 430B0000 		.4byte	.LASF180
 4201 0c0d 05       		.byte	0x5
 4202 0c0e 8001     		.2byte	0x180
 4203 0c10 85090000 		.4byte	0x985
 4204 0c14 08       		.byte	0x8
 4205 0c15 19       		.uleb128 0x19
 4206 0c16 18100000 		.4byte	.LASF185
 4207 0c1a 05       		.byte	0x5
 4208 0c1b 8801     		.2byte	0x188
 4209 0c1d 85090000 		.4byte	0x985
 4210 0c21 0A       		.byte	0xa
 4211 0c22 00       		.byte	0
 4212 0c23 03       		.uleb128 0x3
 4213 0c24 09040000 		.4byte	.LASF186
 4214 0c28 12       		.byte	0x12
 4215 0c29 6B       		.byte	0x6b
 4216 0c2a 2E0C0000 		.4byte	0xc2e
 4217 0c2e 18       		.uleb128 0x18
 4218 0c2f C50D0000 		.4byte	.LASF187
 4219 0c33 1404     		.2byte	0x414
 4220 0c35 05       		.byte	0x5
 4221 0c36 A201     		.2byte	0x1a2
 4222 0c38 710C0000 		.4byte	0xc71
 4223 0c3c 19       		.uleb128 0x19
 4224 0c3d BA030000 		.4byte	.LASF188
 4225 0c41 05       		.byte	0x5
 4226 0c42 AA01     		.2byte	0x1aa
 4227 0c44 E4050000 		.4byte	0x5e4
 4228 0c48 00       		.byte	0
 4229 0c49 19       		.uleb128 0x19
 4230 0c4a F8050000 		.4byte	.LASF189
 4231 0c4e 05       		.byte	0x5
 4232 0c4f AF01     		.2byte	0x1af
 4233 0c51 7A090000 		.4byte	0x97a
 4234 0c55 04       		.byte	0x4
 4235 0c56 19       		.uleb128 0x19
 4236 0c57 67010000 		.4byte	.LASF190
 4237 0c5b 05       		.byte	0x5
 4238 0c5c B301     		.2byte	0x1b3
 4239 0c5e 7A090000 		.4byte	0x97a
 4240 0c62 08       		.byte	0x8
 4241 0c63 19       		.uleb128 0x19
 4242 0c64 52050000 		.4byte	.LASF191
 4243 0c68 05       		.byte	0x5
ARM GAS  /tmp/cctghmAI.s 			page 76


 4244 0c69 B901     		.2byte	0x1b9
 4245 0c6b A1100000 		.4byte	0x10a1
 4246 0c6f 0C       		.byte	0xc
 4247 0c70 00       		.byte	0
 4248 0c71 03       		.uleb128 0x3
 4249 0c72 58100000 		.4byte	.LASF192
 4250 0c76 12       		.byte	0x12
 4251 0c77 70       		.byte	0x70
 4252 0c78 7C0C0000 		.4byte	0xc7c
 4253 0c7c 18       		.uleb128 0x18
 4254 0c7d 9E0F0000 		.4byte	.LASF193
 4255 0c81 6805     		.2byte	0x568
 4256 0c83 05       		.byte	0x5
 4257 0c84 C201     		.2byte	0x1c2
 4258 0c86 CE0C0000 		.4byte	0xcce
 4259 0c8a 19       		.uleb128 0x19
 4260 0c8b EF0C0000 		.4byte	.LASF194
 4261 0c8f 05       		.byte	0x5
 4262 0c90 C601     		.2byte	0x1c6
 4263 0c92 F90A0000 		.4byte	0xaf9
 4264 0c96 00       		.byte	0
 4265 0c97 19       		.uleb128 0x19
 4266 0c98 080F0000 		.4byte	.LASF195
 4267 0c9c 05       		.byte	0x5
 4268 0c9d CA01     		.2byte	0x1ca
 4269 0c9f D60B0000 		.4byte	0xbd6
 4270 0ca3 1C       		.byte	0x1c
 4271 0ca4 21       		.uleb128 0x21
 4272 0ca5 64626700 		.ascii	"dbg\000"
 4273 0ca9 05       		.byte	0x5
 4274 0caa CE01     		.2byte	0x1ce
 4275 0cac 230C0000 		.4byte	0xc23
 4276 0cb0 28       		.byte	0x28
 4277 0cb1 1A       		.uleb128 0x1a
 4278 0cb2 920C0000 		.4byte	.LASF196
 4279 0cb6 05       		.byte	0x5
 4280 0cb7 D201     		.2byte	0x1d2
 4281 0cb9 90090000 		.4byte	0x990
 4282 0cbd 3C04     		.2byte	0x43c
 4283 0cbf 1A       		.uleb128 0x1a
 4284 0cc0 3F090000 		.4byte	.LASF197
 4285 0cc4 05       		.byte	0x5
 4286 0cc5 E301     		.2byte	0x1e3
 4287 0cc7 7D110000 		.4byte	0x117d
 4288 0ccb 8804     		.2byte	0x488
 4289 0ccd 00       		.byte	0
 4290 0cce 0B       		.uleb128 0xb
 4291 0ccf 1D090000 		.4byte	0x91d
 4292 0cd3 DE0C0000 		.4byte	0xcde
 4293 0cd7 0C       		.uleb128 0xc
 4294 0cd8 20010000 		.4byte	0x120
 4295 0cdc 01       		.byte	0x1
 4296 0cdd 00       		.byte	0
 4297 0cde 04       		.uleb128 0x4
 4298 0cdf CE0C0000 		.4byte	0xcce
 4299 0ce3 22       		.uleb128 0x22
 4300 0ce4 A2060000 		.4byte	.LASF198
ARM GAS  /tmp/cctghmAI.s 			page 77


 4301 0ce8 13       		.byte	0x13
 4302 0ce9 4C       		.byte	0x4c
 4303 0cea 12090000 		.4byte	0x912
 4304 0cee 0D       		.uleb128 0xd
 4305 0cef 10       		.byte	0x10
 4306 0cf0 14       		.byte	0x14
 4307 0cf1 BE       		.byte	0xbe
 4308 0cf2 270D0000 		.4byte	0xd27
 4309 0cf6 12       		.uleb128 0x12
 4310 0cf7 43435200 		.ascii	"CCR\000"
 4311 0cfb 14       		.byte	0x14
 4312 0cfc C0       		.byte	0xc0
 4313 0cfd 1D090000 		.4byte	0x91d
 4314 0d01 00       		.byte	0
 4315 0d02 0E       		.uleb128 0xe
 4316 0d03 80010000 		.4byte	.LASF199
 4317 0d07 14       		.byte	0x14
 4318 0d08 C1       		.byte	0xc1
 4319 0d09 1D090000 		.4byte	0x91d
 4320 0d0d 04       		.byte	0x4
 4321 0d0e 0E       		.uleb128 0xe
 4322 0d0f 18030000 		.4byte	.LASF200
 4323 0d13 14       		.byte	0x14
 4324 0d14 C2       		.byte	0xc2
 4325 0d15 1D090000 		.4byte	0x91d
 4326 0d19 08       		.byte	0x8
 4327 0d1a 0E       		.uleb128 0xe
 4328 0d1b 000A0000 		.4byte	.LASF201
 4329 0d1f 14       		.byte	0x14
 4330 0d20 C3       		.byte	0xc3
 4331 0d21 1D090000 		.4byte	0x91d
 4332 0d25 0C       		.byte	0xc
 4333 0d26 00       		.byte	0
 4334 0d27 03       		.uleb128 0x3
 4335 0d28 5B0B0000 		.4byte	.LASF202
 4336 0d2c 14       		.byte	0x14
 4337 0d2d C4       		.byte	0xc4
 4338 0d2e EE0C0000 		.4byte	0xcee
 4339 0d32 0D       		.uleb128 0xd
 4340 0d33 AC       		.byte	0xac
 4341 0d34 14       		.byte	0x14
 4342 0d35 C6       		.byte	0xc6
 4343 0d36 6B0D0000 		.4byte	0xd6b
 4344 0d3a 12       		.uleb128 0x12
 4345 0d3b 49535200 		.ascii	"ISR\000"
 4346 0d3f 14       		.byte	0x14
 4347 0d40 C8       		.byte	0xc8
 4348 0d41 1D090000 		.4byte	0x91d
 4349 0d45 00       		.byte	0
 4350 0d46 0E       		.uleb128 0xe
 4351 0d47 79040000 		.4byte	.LASF203
 4352 0d4b 14       		.byte	0x14
 4353 0d4c C9       		.byte	0xc9
 4354 0d4d 1D090000 		.4byte	0x91d
 4355 0d51 04       		.byte	0x4
 4356 0d52 0E       		.uleb128 0xe
 4357 0d53 85030000 		.4byte	.LASF204
ARM GAS  /tmp/cctghmAI.s 			page 78


 4358 0d57 14       		.byte	0x14
 4359 0d58 CA       		.byte	0xca
 4360 0d59 6B0D0000 		.4byte	0xd6b
 4361 0d5d 08       		.byte	0x8
 4362 0d5e 0E       		.uleb128 0xe
 4363 0d5f 34090000 		.4byte	.LASF205
 4364 0d63 14       		.byte	0x14
 4365 0d64 CB       		.byte	0xcb
 4366 0d65 1D090000 		.4byte	0x91d
 4367 0d69 A8       		.byte	0xa8
 4368 0d6a 00       		.byte	0
 4369 0d6b 0B       		.uleb128 0xb
 4370 0d6c 12090000 		.4byte	0x912
 4371 0d70 7B0D0000 		.4byte	0xd7b
 4372 0d74 0C       		.uleb128 0xc
 4373 0d75 20010000 		.4byte	0x120
 4374 0d79 27       		.byte	0x27
 4375 0d7a 00       		.byte	0
 4376 0d7b 03       		.uleb128 0x3
 4377 0d7c AE030000 		.4byte	.LASF206
 4378 0d80 14       		.byte	0x14
 4379 0d81 CC       		.byte	0xcc
 4380 0d82 320D0000 		.4byte	0xd32
 4381 0d86 0B       		.uleb128 0xb
 4382 0d87 1D090000 		.4byte	0x91d
 4383 0d8b 960D0000 		.4byte	0xd96
 4384 0d8f 0C       		.uleb128 0xc
 4385 0d90 20010000 		.4byte	0x120
 4386 0d94 03       		.byte	0x3
 4387 0d95 00       		.byte	0
 4388 0d96 04       		.uleb128 0x4
 4389 0d97 860D0000 		.4byte	0xd86
 4390 0d9b 1C       		.uleb128 0x1c
 4391 0d9c 2C       		.byte	0x2c
 4392 0d9d 14       		.byte	0x14
 4393 0d9e A501     		.2byte	0x1a5
 4394 0da0 4E0E0000 		.4byte	0xe4e
 4395 0da4 21       		.uleb128 0x21
 4396 0da5 43523100 		.ascii	"CR1\000"
 4397 0da9 14       		.byte	0x14
 4398 0daa A701     		.2byte	0x1a7
 4399 0dac 1D090000 		.4byte	0x91d
 4400 0db0 00       		.byte	0
 4401 0db1 21       		.uleb128 0x21
 4402 0db2 43523200 		.ascii	"CR2\000"
 4403 0db6 14       		.byte	0x14
 4404 0db7 A801     		.2byte	0x1a8
 4405 0db9 1D090000 		.4byte	0x91d
 4406 0dbd 04       		.byte	0x4
 4407 0dbe 21       		.uleb128 0x21
 4408 0dbf 43523300 		.ascii	"CR3\000"
 4409 0dc3 14       		.byte	0x14
 4410 0dc4 A901     		.2byte	0x1a9
 4411 0dc6 1D090000 		.4byte	0x91d
 4412 0dca 08       		.byte	0x8
 4413 0dcb 21       		.uleb128 0x21
 4414 0dcc 42525200 		.ascii	"BRR\000"
ARM GAS  /tmp/cctghmAI.s 			page 79


 4415 0dd0 14       		.byte	0x14
 4416 0dd1 AA01     		.2byte	0x1aa
 4417 0dd3 1D090000 		.4byte	0x91d
 4418 0dd7 0C       		.byte	0xc
 4419 0dd8 19       		.uleb128 0x19
 4420 0dd9 92080000 		.4byte	.LASF207
 4421 0ddd 14       		.byte	0x14
 4422 0dde AB01     		.2byte	0x1ab
 4423 0de0 1D090000 		.4byte	0x91d
 4424 0de4 10       		.byte	0x10
 4425 0de5 19       		.uleb128 0x19
 4426 0de6 F6000000 		.4byte	.LASF208
 4427 0dea 14       		.byte	0x14
 4428 0deb AC01     		.2byte	0x1ac
 4429 0ded 1D090000 		.4byte	0x91d
 4430 0df1 14       		.byte	0x14
 4431 0df2 21       		.uleb128 0x21
 4432 0df3 52515200 		.ascii	"RQR\000"
 4433 0df7 14       		.byte	0x14
 4434 0df8 AD01     		.2byte	0x1ad
 4435 0dfa 1D090000 		.4byte	0x91d
 4436 0dfe 18       		.byte	0x18
 4437 0dff 21       		.uleb128 0x21
 4438 0e00 49535200 		.ascii	"ISR\000"
 4439 0e04 14       		.byte	0x14
 4440 0e05 AE01     		.2byte	0x1ae
 4441 0e07 1D090000 		.4byte	0x91d
 4442 0e0b 1C       		.byte	0x1c
 4443 0e0c 21       		.uleb128 0x21
 4444 0e0d 49435200 		.ascii	"ICR\000"
 4445 0e11 14       		.byte	0x14
 4446 0e12 AF01     		.2byte	0x1af
 4447 0e14 1D090000 		.4byte	0x91d
 4448 0e18 20       		.byte	0x20
 4449 0e19 21       		.uleb128 0x21
 4450 0e1a 52445200 		.ascii	"RDR\000"
 4451 0e1e 14       		.byte	0x14
 4452 0e1f B001     		.2byte	0x1b0
 4453 0e21 02090000 		.4byte	0x902
 4454 0e25 24       		.byte	0x24
 4455 0e26 19       		.uleb128 0x19
 4456 0e27 8F030000 		.4byte	.LASF209
 4457 0e2b 14       		.byte	0x14
 4458 0e2c B101     		.2byte	0x1b1
 4459 0e2e F7080000 		.4byte	0x8f7
 4460 0e32 26       		.byte	0x26
 4461 0e33 21       		.uleb128 0x21
 4462 0e34 54445200 		.ascii	"TDR\000"
 4463 0e38 14       		.byte	0x14
 4464 0e39 B201     		.2byte	0x1b2
 4465 0e3b 02090000 		.4byte	0x902
 4466 0e3f 28       		.byte	0x28
 4467 0e40 19       		.uleb128 0x19
 4468 0e41 28040000 		.4byte	.LASF210
 4469 0e45 14       		.byte	0x14
 4470 0e46 B301     		.2byte	0x1b3
 4471 0e48 F7080000 		.4byte	0x8f7
ARM GAS  /tmp/cctghmAI.s 			page 80


 4472 0e4c 2A       		.byte	0x2a
 4473 0e4d 00       		.byte	0
 4474 0e4e 08       		.uleb128 0x8
 4475 0e4f DF040000 		.4byte	.LASF211
 4476 0e53 14       		.byte	0x14
 4477 0e54 B401     		.2byte	0x1b4
 4478 0e56 9B0D0000 		.4byte	0xd9b
 4479 0e5a 03       		.uleb128 0x3
 4480 0e5b EB020000 		.4byte	.LASF212
 4481 0e5f 15       		.byte	0x15
 4482 0e60 65       		.byte	0x65
 4483 0e61 5E010000 		.4byte	0x15e
 4484 0e65 03       		.uleb128 0x3
 4485 0e66 D4040000 		.4byte	.LASF213
 4486 0e6a 15       		.byte	0x15
 4487 0e6b 6D       		.byte	0x6d
 4488 0e6c 22090000 		.4byte	0x922
 4489 0e70 11       		.uleb128 0x11
 4490 0e71 77030000 		.4byte	.LASF214
 4491 0e75 04       		.byte	0x4
 4492 0e76 15       		.byte	0x15
 4493 0e77 89       		.byte	0x89
 4494 0e78 890E0000 		.4byte	0xe89
 4495 0e7c 12       		.uleb128 0x12
 4496 0e7d 72313300 		.ascii	"r13\000"
 4497 0e81 15       		.byte	0x15
 4498 0e82 8A       		.byte	0x8a
 4499 0e83 FB0E0000 		.4byte	0xefb
 4500 0e87 00       		.byte	0
 4501 0e88 00       		.byte	0
 4502 0e89 11       		.uleb128 0x11
 4503 0e8a 250B0000 		.4byte	.LASF215
 4504 0e8e 24       		.byte	0x24
 4505 0e8f 01       		.byte	0x1
 4506 0e90 A4       		.byte	0xa4
 4507 0e91 FB0E0000 		.4byte	0xefb
 4508 0e95 12       		.uleb128 0x12
 4509 0e96 723800   		.ascii	"r8\000"
 4510 0e99 01       		.byte	0x1
 4511 0e9a A5       		.byte	0xa5
 4512 0e9b 5A0E0000 		.4byte	0xe5a
 4513 0e9f 00       		.byte	0
 4514 0ea0 12       		.uleb128 0x12
 4515 0ea1 723900   		.ascii	"r9\000"
 4516 0ea4 01       		.byte	0x1
 4517 0ea5 A6       		.byte	0xa6
 4518 0ea6 5A0E0000 		.4byte	0xe5a
 4519 0eaa 04       		.byte	0x4
 4520 0eab 12       		.uleb128 0x12
 4521 0eac 72313000 		.ascii	"r10\000"
 4522 0eb0 01       		.byte	0x1
 4523 0eb1 A7       		.byte	0xa7
 4524 0eb2 5A0E0000 		.4byte	0xe5a
 4525 0eb6 08       		.byte	0x8
 4526 0eb7 12       		.uleb128 0x12
 4527 0eb8 72313100 		.ascii	"r11\000"
 4528 0ebc 01       		.byte	0x1
ARM GAS  /tmp/cctghmAI.s 			page 81


 4529 0ebd A8       		.byte	0xa8
 4530 0ebe 5A0E0000 		.4byte	0xe5a
 4531 0ec2 0C       		.byte	0xc
 4532 0ec3 12       		.uleb128 0x12
 4533 0ec4 723400   		.ascii	"r4\000"
 4534 0ec7 01       		.byte	0x1
 4535 0ec8 A9       		.byte	0xa9
 4536 0ec9 5A0E0000 		.4byte	0xe5a
 4537 0ecd 10       		.byte	0x10
 4538 0ece 12       		.uleb128 0x12
 4539 0ecf 723500   		.ascii	"r5\000"
 4540 0ed2 01       		.byte	0x1
 4541 0ed3 AA       		.byte	0xaa
 4542 0ed4 5A0E0000 		.4byte	0xe5a
 4543 0ed8 14       		.byte	0x14
 4544 0ed9 12       		.uleb128 0x12
 4545 0eda 723600   		.ascii	"r6\000"
 4546 0edd 01       		.byte	0x1
 4547 0ede AB       		.byte	0xab
 4548 0edf 5A0E0000 		.4byte	0xe5a
 4549 0ee3 18       		.byte	0x18
 4550 0ee4 12       		.uleb128 0x12
 4551 0ee5 723700   		.ascii	"r7\000"
 4552 0ee8 01       		.byte	0x1
 4553 0ee9 AC       		.byte	0xac
 4554 0eea 5A0E0000 		.4byte	0xe5a
 4555 0eee 1C       		.byte	0x1c
 4556 0eef 12       		.uleb128 0x12
 4557 0ef0 6C7200   		.ascii	"lr\000"
 4558 0ef3 01       		.byte	0x1
 4559 0ef4 AD       		.byte	0xad
 4560 0ef5 5A0E0000 		.4byte	0xe5a
 4561 0ef9 20       		.byte	0x20
 4562 0efa 00       		.byte	0
 4563 0efb 06       		.uleb128 0x6
 4564 0efc 04       		.byte	0x4
 4565 0efd 890E0000 		.4byte	0xe89
 4566 0f01 1C       		.uleb128 0x1c
 4567 0f02 60       		.byte	0x60
 4568 0f03 16       		.byte	0x16
 4569 0f04 A101     		.2byte	0x1a1
 4570 0f06 0D100000 		.4byte	0x100d
 4571 0f0a 21       		.uleb128 0x21
 4572 0f0b 43523100 		.ascii	"CR1\000"
 4573 0f0f 16       		.byte	0x16
 4574 0f10 A201     		.2byte	0x1a2
 4575 0f12 1D090000 		.4byte	0x91d
 4576 0f16 00       		.byte	0
 4577 0f17 21       		.uleb128 0x21
 4578 0f18 43523200 		.ascii	"CR2\000"
 4579 0f1c 16       		.byte	0x16
 4580 0f1d A301     		.2byte	0x1a3
 4581 0f1f 1D090000 		.4byte	0x91d
 4582 0f23 04       		.byte	0x4
 4583 0f24 19       		.uleb128 0x19
 4584 0f25 5E030000 		.4byte	.LASF216
 4585 0f29 16       		.byte	0x16
ARM GAS  /tmp/cctghmAI.s 			page 82


 4586 0f2a A401     		.2byte	0x1a4
 4587 0f2c 1D090000 		.4byte	0x91d
 4588 0f30 08       		.byte	0x8
 4589 0f31 19       		.uleb128 0x19
 4590 0f32 F3050000 		.4byte	.LASF217
 4591 0f36 16       		.byte	0x16
 4592 0f37 A501     		.2byte	0x1a5
 4593 0f39 1D090000 		.4byte	0x91d
 4594 0f3d 0C       		.byte	0xc
 4595 0f3e 21       		.uleb128 0x21
 4596 0f3f 535200   		.ascii	"SR\000"
 4597 0f42 16       		.byte	0x16
 4598 0f43 A601     		.2byte	0x1a6
 4599 0f45 1D090000 		.4byte	0x91d
 4600 0f49 10       		.byte	0x10
 4601 0f4a 21       		.uleb128 0x21
 4602 0f4b 45475200 		.ascii	"EGR\000"
 4603 0f4f 16       		.byte	0x16
 4604 0f50 A701     		.2byte	0x1a7
 4605 0f52 1D090000 		.4byte	0x91d
 4606 0f56 14       		.byte	0x14
 4607 0f57 19       		.uleb128 0x19
 4608 0f58 37040000 		.4byte	.LASF218
 4609 0f5c 16       		.byte	0x16
 4610 0f5d A801     		.2byte	0x1a8
 4611 0f5f 1D090000 		.4byte	0x91d
 4612 0f63 18       		.byte	0x18
 4613 0f64 19       		.uleb128 0x19
 4614 0f65 3D040000 		.4byte	.LASF219
 4615 0f69 16       		.byte	0x16
 4616 0f6a A901     		.2byte	0x1a9
 4617 0f6c 1D090000 		.4byte	0x91d
 4618 0f70 1C       		.byte	0x1c
 4619 0f71 19       		.uleb128 0x19
 4620 0f72 3C0C0000 		.4byte	.LASF220
 4621 0f76 16       		.byte	0x16
 4622 0f77 AA01     		.2byte	0x1aa
 4623 0f79 1D090000 		.4byte	0x91d
 4624 0f7d 20       		.byte	0x20
 4625 0f7e 21       		.uleb128 0x21
 4626 0f7f 434E5400 		.ascii	"CNT\000"
 4627 0f83 16       		.byte	0x16
 4628 0f84 AB01     		.2byte	0x1ab
 4629 0f86 1D090000 		.4byte	0x91d
 4630 0f8a 24       		.byte	0x24
 4631 0f8b 21       		.uleb128 0x21
 4632 0f8c 50534300 		.ascii	"PSC\000"
 4633 0f90 16       		.byte	0x16
 4634 0f91 AC01     		.2byte	0x1ac
 4635 0f93 1D090000 		.4byte	0x91d
 4636 0f97 28       		.byte	0x28
 4637 0f98 21       		.uleb128 0x21
 4638 0f99 41525200 		.ascii	"ARR\000"
 4639 0f9d 16       		.byte	0x16
 4640 0f9e AD01     		.2byte	0x1ad
 4641 0fa0 1D090000 		.4byte	0x91d
 4642 0fa4 2C       		.byte	0x2c
ARM GAS  /tmp/cctghmAI.s 			page 83


 4643 0fa5 21       		.uleb128 0x21
 4644 0fa6 52435200 		.ascii	"RCR\000"
 4645 0faa 16       		.byte	0x16
 4646 0fab AE01     		.2byte	0x1ae
 4647 0fad 1D090000 		.4byte	0x91d
 4648 0fb1 30       		.byte	0x30
 4649 0fb2 21       		.uleb128 0x21
 4650 0fb3 43435200 		.ascii	"CCR\000"
 4651 0fb7 16       		.byte	0x16
 4652 0fb8 AF01     		.2byte	0x1af
 4653 0fba 960D0000 		.4byte	0xd96
 4654 0fbe 34       		.byte	0x34
 4655 0fbf 19       		.uleb128 0x19
 4656 0fc0 B80F0000 		.4byte	.LASF221
 4657 0fc4 16       		.byte	0x16
 4658 0fc5 B001     		.2byte	0x1b0
 4659 0fc7 1D090000 		.4byte	0x91d
 4660 0fcb 44       		.byte	0x44
 4661 0fcc 21       		.uleb128 0x21
 4662 0fcd 44435200 		.ascii	"DCR\000"
 4663 0fd1 16       		.byte	0x16
 4664 0fd2 B101     		.2byte	0x1b1
 4665 0fd4 1D090000 		.4byte	0x91d
 4666 0fd8 48       		.byte	0x48
 4667 0fd9 19       		.uleb128 0x19
 4668 0fda 8C010000 		.4byte	.LASF222
 4669 0fde 16       		.byte	0x16
 4670 0fdf B201     		.2byte	0x1b2
 4671 0fe1 1D090000 		.4byte	0x91d
 4672 0fe5 4C       		.byte	0x4c
 4673 0fe6 21       		.uleb128 0x21
 4674 0fe7 4F5200   		.ascii	"OR\000"
 4675 0fea 16       		.byte	0x16
 4676 0feb B301     		.2byte	0x1b3
 4677 0fed 1D090000 		.4byte	0x91d
 4678 0ff1 50       		.byte	0x50
 4679 0ff2 19       		.uleb128 0x19
 4680 0ff3 43040000 		.4byte	.LASF223
 4681 0ff7 16       		.byte	0x16
 4682 0ff8 B401     		.2byte	0x1b4
 4683 0ffa 1D090000 		.4byte	0x91d
 4684 0ffe 54       		.byte	0x54
 4685 0fff 19       		.uleb128 0x19
 4686 1000 1E050000 		.4byte	.LASF224
 4687 1004 16       		.byte	0x16
 4688 1005 B501     		.2byte	0x1b5
 4689 1007 DE0C0000 		.4byte	0xcde
 4690 100b 58       		.byte	0x58
 4691 100c 00       		.byte	0
 4692 100d 08       		.uleb128 0x8
 4693 100e 55070000 		.4byte	.LASF225
 4694 1012 16       		.byte	0x16
 4695 1013 B601     		.2byte	0x1b6
 4696 1015 010F0000 		.4byte	0xf01
 4697 1019 0D       		.uleb128 0xd
 4698 101a 10       		.byte	0x10
 4699 101b 17       		.byte	0x17
ARM GAS  /tmp/cctghmAI.s 			page 84


 4700 101c 51       		.byte	0x51
 4701 101d 52100000 		.4byte	0x1052
 4702 1021 0E       		.uleb128 0xe
 4703 1022 FD100000 		.4byte	.LASF226
 4704 1026 17       		.byte	0x17
 4705 1027 55       		.byte	0x55
 4706 1028 85090000 		.4byte	0x985
 4707 102c 00       		.byte	0
 4708 102d 0E       		.uleb128 0xe
 4709 102e A80D0000 		.4byte	.LASF227
 4710 1032 17       		.byte	0x17
 4711 1033 59       		.byte	0x59
 4712 1034 9F0A0000 		.4byte	0xa9f
 4713 1038 04       		.byte	0x4
 4714 1039 0E       		.uleb128 0xe
 4715 103a 2A090000 		.4byte	.LASF228
 4716 103e 17       		.byte	0x17
 4717 103f 5D       		.byte	0x5d
 4718 1040 5E010000 		.4byte	0x15e
 4719 1044 08       		.byte	0x8
 4720 1045 0E       		.uleb128 0xe
 4721 1046 12060000 		.4byte	.LASF229
 4722 104a 17       		.byte	0x17
 4723 104b 61       		.byte	0x61
 4724 104c E7080000 		.4byte	0x8e7
 4725 1050 0C       		.byte	0xc
 4726 1051 00       		.byte	0
 4727 1052 03       		.uleb128 0x3
 4728 1053 8E070000 		.4byte	.LASF230
 4729 1057 17       		.byte	0x17
 4730 1058 62       		.byte	0x62
 4731 1059 19100000 		.4byte	0x1019
 4732 105d 23       		.uleb128 0x23
 4733 105e 0804     		.2byte	0x408
 4734 1060 17       		.byte	0x17
 4735 1061 67       		.byte	0x67
 4736 1062 8B100000 		.4byte	0x108b
 4737 1066 0E       		.uleb128 0xe
 4738 1067 A6080000 		.4byte	.LASF231
 4739 106b 17       		.byte	0x17
 4740 106c 6B       		.byte	0x6b
 4741 106d 3C000000 		.4byte	0x3c
 4742 1071 00       		.byte	0
 4743 1072 0E       		.uleb128 0xe
 4744 1073 21110000 		.4byte	.LASF232
 4745 1077 17       		.byte	0x17
 4746 1078 6F       		.byte	0x6f
 4747 1079 8B100000 		.4byte	0x108b
 4748 107d 04       		.byte	0x4
 4749 107e 0E       		.uleb128 0xe
 4750 107f 46080000 		.4byte	.LASF233
 4751 1083 17       		.byte	0x17
 4752 1084 73       		.byte	0x73
 4753 1085 91100000 		.4byte	0x1091
 4754 1089 08       		.byte	0x8
 4755 108a 00       		.byte	0
 4756 108b 06       		.uleb128 0x6
ARM GAS  /tmp/cctghmAI.s 			page 85


 4757 108c 04       		.byte	0x4
 4758 108d 52100000 		.4byte	0x1052
 4759 1091 0B       		.uleb128 0xb
 4760 1092 52100000 		.4byte	0x1052
 4761 1096 A1100000 		.4byte	0x10a1
 4762 109a 0C       		.uleb128 0xc
 4763 109b 20010000 		.4byte	0x120
 4764 109f 3F       		.byte	0x3f
 4765 10a0 00       		.byte	0
 4766 10a1 03       		.uleb128 0x3
 4767 10a2 76050000 		.4byte	.LASF234
 4768 10a6 17       		.byte	0x17
 4769 10a7 74       		.byte	0x74
 4770 10a8 5D100000 		.4byte	0x105d
 4771 10ac 09       		.uleb128 0x9
 4772 10ad 04       		.byte	0x4
 4773 10ae 05       		.byte	0x5
 4774 10af FA       		.byte	0xfa
 4775 10b0 09110000 		.4byte	0x1109
 4776 10b4 1E       		.uleb128 0x1e
 4777 10b5 0C100000 		.4byte	.LASF235
 4778 10b9 05       		.byte	0x5
 4779 10ba 0101     		.2byte	0x101
 4780 10bc 59090000 		.4byte	0x959
 4781 10c0 1E       		.uleb128 0x1e
 4782 10c1 E9010000 		.4byte	.LASF236
 4783 10c5 05       		.byte	0x5
 4784 10c6 0801     		.2byte	0x108
 4785 10c8 59090000 		.4byte	0x959
 4786 10cc 1E       		.uleb128 0x1e
 4787 10cd 95040000 		.4byte	.LASF237
 4788 10d1 05       		.byte	0x5
 4789 10d2 0F01     		.2byte	0x10f
 4790 10d4 5E010000 		.4byte	0x15e
 4791 10d8 1E       		.uleb128 0x1e
 4792 10d9 7F030000 		.4byte	.LASF238
 4793 10dd 05       		.byte	0x5
 4794 10de 1601     		.2byte	0x116
 4795 10e0 09110000 		.4byte	0x1109
 4796 10e4 1E       		.uleb128 0x1e
 4797 10e5 3E110000 		.4byte	.LASF239
 4798 10e9 05       		.byte	0x5
 4799 10ea 1E01     		.2byte	0x11e
 4800 10ec 34110000 		.4byte	0x1134
 4801 10f0 1E       		.uleb128 0x1e
 4802 10f1 A9050000 		.4byte	.LASF240
 4803 10f5 05       		.byte	0x5
 4804 10f6 2701     		.2byte	0x127
 4805 10f8 6B110000 		.4byte	0x116b
 4806 10fc 1E       		.uleb128 0x1e
 4807 10fd 4F030000 		.4byte	.LASF241
 4808 1101 05       		.byte	0x5
 4809 1102 2F01     		.2byte	0x12f
 4810 1104 64090000 		.4byte	0x964
 4811 1108 00       		.byte	0
 4812 1109 06       		.uleb128 0x6
 4813 110a 04       		.byte	0x4
ARM GAS  /tmp/cctghmAI.s 			page 86


 4814 110b 940A0000 		.4byte	0xa94
 4815 110f 11       		.uleb128 0x11
 4816 1110 B2060000 		.4byte	.LASF242
 4817 1114 0C       		.byte	0xc
 4818 1115 18       		.byte	0x18
 4819 1116 34       		.byte	0x34
 4820 1117 34110000 		.4byte	0x1134
 4821 111b 0E       		.uleb128 0xe
 4822 111c 220D0000 		.4byte	.LASF243
 4823 1120 18       		.byte	0x18
 4824 1121 35       		.byte	0x35
 4825 1122 C90A0000 		.4byte	0xac9
 4826 1126 00       		.byte	0
 4827 1127 0E       		.uleb128 0xe
 4828 1128 850B0000 		.4byte	.LASF244
 4829 112c 18       		.byte	0x18
 4830 112d 37       		.byte	0x37
 4831 112e 7A090000 		.4byte	0x97a
 4832 1132 08       		.byte	0x8
 4833 1133 00       		.byte	0
 4834 1134 06       		.uleb128 0x6
 4835 1135 04       		.byte	0x4
 4836 1136 0F110000 		.4byte	0x110f
 4837 113a 11       		.uleb128 0x11
 4838 113b 9F0D0000 		.4byte	.LASF245
 4839 113f 10       		.byte	0x10
 4840 1140 19       		.byte	0x19
 4841 1141 39       		.byte	0x39
 4842 1142 6B110000 		.4byte	0x116b
 4843 1146 0E       		.uleb128 0xe
 4844 1147 37080000 		.4byte	.LASF246
 4845 114b 19       		.byte	0x19
 4846 114c 3A       		.byte	0x3a
 4847 114d C90A0000 		.4byte	0xac9
 4848 1151 00       		.byte	0
 4849 1152 0E       		.uleb128 0xe
 4850 1153 CC010000 		.4byte	.LASF247
 4851 1157 19       		.byte	0x19
 4852 1158 3C       		.byte	0x3c
 4853 1159 9F0A0000 		.4byte	0xa9f
 4854 115d 08       		.byte	0x8
 4855 115e 0E       		.uleb128 0xe
 4856 115f 1A110000 		.4byte	.LASF248
 4857 1163 19       		.byte	0x19
 4858 1164 3E       		.byte	0x3e
 4859 1165 AF120000 		.4byte	0x12af
 4860 1169 0C       		.byte	0xc
 4861 116a 00       		.byte	0
 4862 116b 06       		.uleb128 0x6
 4863 116c 04       		.byte	0x4
 4864 116d 3A110000 		.4byte	0x113a
 4865 1171 06       		.uleb128 0x6
 4866 1172 04       		.byte	0x4
 4867 1173 650E0000 		.4byte	0xe65
 4868 1177 06       		.uleb128 0x6
 4869 1178 04       		.byte	0x4
 4870 1179 7C0B0000 		.4byte	0xb7c
ARM GAS  /tmp/cctghmAI.s 			page 87


 4871 117d 0B       		.uleb128 0xb
 4872 117e 650E0000 		.4byte	0xe65
 4873 1182 8D110000 		.4byte	0x118d
 4874 1186 0C       		.uleb128 0xc
 4875 1187 20010000 		.4byte	0x120
 4876 118b 1B       		.byte	0x1b
 4877 118c 00       		.byte	0
 4878 118d 24       		.uleb128 0x24
 4879 118e 636800   		.ascii	"ch\000"
 4880 1191 05       		.byte	0x5
 4881 1192 0902     		.2byte	0x209
 4882 1194 710C0000 		.4byte	0xc71
 4883 1198 0D       		.uleb128 0xd
 4884 1199 16       		.byte	0x16
 4885 119a 1A       		.byte	0x1a
 4886 119b 34       		.byte	0x34
 4887 119c 79120000 		.4byte	0x1279
 4888 11a0 0E       		.uleb128 0xe
 4889 11a1 7B000000 		.4byte	.LASF249
 4890 11a5 1A       		.byte	0x1a
 4891 11a6 35       		.byte	0x35
 4892 11a7 79120000 		.4byte	0x1279
 4893 11ab 00       		.byte	0
 4894 11ac 0E       		.uleb128 0xe
 4895 11ad 54060000 		.4byte	.LASF250
 4896 11b1 1A       		.byte	0x1a
 4897 11b2 36       		.byte	0x36
 4898 11b3 E7080000 		.4byte	0x8e7
 4899 11b7 04       		.byte	0x4
 4900 11b8 0E       		.uleb128 0xe
 4901 11b9 6E100000 		.4byte	.LASF251
 4902 11bd 1A       		.byte	0x1a
 4903 11be 37       		.byte	0x37
 4904 11bf E7080000 		.4byte	0x8e7
 4905 11c3 05       		.byte	0x5
 4906 11c4 0E       		.uleb128 0xe
 4907 11c5 2C080000 		.4byte	.LASF252
 4908 11c9 1A       		.byte	0x1a
 4909 11ca 38       		.byte	0x38
 4910 11cb F7080000 		.4byte	0x8f7
 4911 11cf 06       		.byte	0x6
 4912 11d0 0E       		.uleb128 0xe
 4913 11d1 75010000 		.4byte	.LASF253
 4914 11d5 1A       		.byte	0x1a
 4915 11d6 39       		.byte	0x39
 4916 11d7 E7080000 		.4byte	0x8e7
 4917 11db 08       		.byte	0x8
 4918 11dc 0E       		.uleb128 0xe
 4919 11dd AD090000 		.4byte	.LASF254
 4920 11e1 1A       		.byte	0x1a
 4921 11e2 3A       		.byte	0x3a
 4922 11e3 E7080000 		.4byte	0x8e7
 4923 11e7 09       		.byte	0x9
 4924 11e8 0E       		.uleb128 0xe
 4925 11e9 08020000 		.4byte	.LASF255
 4926 11ed 1A       		.byte	0x1a
 4927 11ee 3B       		.byte	0x3b
ARM GAS  /tmp/cctghmAI.s 			page 88


 4928 11ef E7080000 		.4byte	0x8e7
 4929 11f3 0A       		.byte	0xa
 4930 11f4 0E       		.uleb128 0xe
 4931 11f5 F4040000 		.4byte	.LASF256
 4932 11f9 1A       		.byte	0x1a
 4933 11fa 3C       		.byte	0x3c
 4934 11fb E7080000 		.4byte	0x8e7
 4935 11ff 0B       		.byte	0xb
 4936 1200 0E       		.uleb128 0xe
 4937 1201 E2000000 		.4byte	.LASF257
 4938 1205 1A       		.byte	0x1a
 4939 1206 3D       		.byte	0x3d
 4940 1207 E7080000 		.4byte	0x8e7
 4941 120b 0C       		.byte	0xc
 4942 120c 0E       		.uleb128 0xe
 4943 120d AF040000 		.4byte	.LASF258
 4944 1211 1A       		.byte	0x1a
 4945 1212 3E       		.byte	0x3e
 4946 1213 E7080000 		.4byte	0x8e7
 4947 1217 0D       		.byte	0xd
 4948 1218 0E       		.uleb128 0xe
 4949 1219 AD0E0000 		.4byte	.LASF259
 4950 121d 1A       		.byte	0x1a
 4951 121e 3F       		.byte	0x3f
 4952 121f E7080000 		.4byte	0x8e7
 4953 1223 0E       		.byte	0xe
 4954 1224 0E       		.uleb128 0xe
 4955 1225 60000000 		.4byte	.LASF260
 4956 1229 1A       		.byte	0x1a
 4957 122a 40       		.byte	0x40
 4958 122b E7080000 		.4byte	0x8e7
 4959 122f 0F       		.byte	0xf
 4960 1230 0E       		.uleb128 0xe
 4961 1231 6E0F0000 		.4byte	.LASF261
 4962 1235 1A       		.byte	0x1a
 4963 1236 41       		.byte	0x41
 4964 1237 E7080000 		.4byte	0x8e7
 4965 123b 10       		.byte	0x10
 4966 123c 0E       		.uleb128 0xe
 4967 123d 8C020000 		.4byte	.LASF262
 4968 1241 1A       		.byte	0x1a
 4969 1242 43       		.byte	0x43
 4970 1243 E7080000 		.4byte	0x8e7
 4971 1247 11       		.byte	0x11
 4972 1248 0E       		.uleb128 0xe
 4973 1249 2F0C0000 		.4byte	.LASF263
 4974 124d 1A       		.byte	0x1a
 4975 124e 44       		.byte	0x44
 4976 124f E7080000 		.4byte	0x8e7
 4977 1253 12       		.byte	0x12
 4978 1254 0E       		.uleb128 0xe
 4979 1255 600A0000 		.4byte	.LASF264
 4980 1259 1A       		.byte	0x1a
 4981 125a 45       		.byte	0x45
 4982 125b E7080000 		.4byte	0x8e7
 4983 125f 13       		.byte	0x13
 4984 1260 0E       		.uleb128 0xe
ARM GAS  /tmp/cctghmAI.s 			page 89


 4985 1261 EC070000 		.4byte	.LASF265
 4986 1265 1A       		.byte	0x1a
 4987 1266 46       		.byte	0x46
 4988 1267 E7080000 		.4byte	0x8e7
 4989 126b 14       		.byte	0x14
 4990 126c 0E       		.uleb128 0xe
 4991 126d 9C040000 		.4byte	.LASF266
 4992 1271 1A       		.byte	0x1a
 4993 1272 48       		.byte	0x48
 4994 1273 E7080000 		.4byte	0x8e7
 4995 1277 15       		.byte	0x15
 4996 1278 00       		.byte	0
 4997 1279 0B       		.uleb128 0xb
 4998 127a 66010000 		.4byte	0x166
 4999 127e 89120000 		.4byte	0x1289
 5000 1282 0C       		.uleb128 0xc
 5001 1283 20010000 		.4byte	0x120
 5002 1287 03       		.byte	0x3
 5003 1288 00       		.byte	0
 5004 1289 03       		.uleb128 0x3
 5005 128a 64100000 		.4byte	.LASF267
 5006 128e 1A       		.byte	0x1a
 5007 128f 49       		.byte	0x49
 5008 1290 98110000 		.4byte	0x1198
 5009 1294 10       		.uleb128 0x10
 5010 1295 89120000 		.4byte	0x1289
 5011 1299 22       		.uleb128 0x22
 5012 129a 9D000000 		.4byte	.LASF268
 5013 129e 1A       		.byte	0x1a
 5014 129f 6E       		.byte	0x6e
 5015 12a0 94120000 		.4byte	0x1294
 5016 12a4 03       		.uleb128 0x3
 5017 12a5 380F0000 		.4byte	.LASF269
 5018 12a9 19       		.byte	0x19
 5019 12aa 34       		.byte	0x34
 5020 12ab 3A110000 		.4byte	0x113a
 5021 12af 06       		.uleb128 0x6
 5022 12b0 04       		.byte	0x4
 5023 12b1 A4120000 		.4byte	0x12a4
 5024 12b5 03       		.uleb128 0x3
 5025 12b6 0D050000 		.4byte	.LASF270
 5026 12ba 1B       		.byte	0x1b
 5027 12bb 34       		.byte	0x34
 5028 12bc C0120000 		.4byte	0x12c0
 5029 12c0 11       		.uleb128 0x11
 5030 12c1 FD0F0000 		.4byte	.LASF271
 5031 12c5 14       		.byte	0x14
 5032 12c6 1B       		.byte	0x1b
 5033 12c7 39       		.byte	0x39
 5034 12c8 09130000 		.4byte	0x1309
 5035 12cc 0E       		.uleb128 0xe
 5036 12cd 05070000 		.4byte	.LASF272
 5037 12d1 1B       		.byte	0x1b
 5038 12d2 3A       		.byte	0x3a
 5039 12d3 09130000 		.4byte	0x1309
 5040 12d7 00       		.byte	0
 5041 12d8 0E       		.uleb128 0xe
ARM GAS  /tmp/cctghmAI.s 			page 90


 5042 12d9 4B110000 		.4byte	.LASF273
 5043 12dd 1B       		.byte	0x1b
 5044 12de 3D       		.byte	0x3d
 5045 12df 9F0A0000 		.4byte	0xa9f
 5046 12e3 04       		.byte	0x4
 5047 12e4 0E       		.uleb128 0xe
 5048 12e5 0D0A0000 		.4byte	.LASF274
 5049 12e9 1B       		.byte	0x1b
 5050 12ea 3F       		.byte	0x3f
 5051 12eb 64090000 		.4byte	0x964
 5052 12ef 08       		.byte	0x8
 5053 12f0 0E       		.uleb128 0xe
 5054 12f1 52010000 		.4byte	.LASF275
 5055 12f5 1B       		.byte	0x1b
 5056 12f6 41       		.byte	0x41
 5057 12f7 6F090000 		.4byte	0x96f
 5058 12fb 0C       		.byte	0xc
 5059 12fc 0E       		.uleb128 0xe
 5060 12fd D2090000 		.4byte	.LASF276
 5061 1301 1B       		.byte	0x1b
 5062 1302 43       		.byte	0x43
 5063 1303 6F090000 		.4byte	0x96f
 5064 1307 10       		.byte	0x10
 5065 1308 00       		.byte	0
 5066 1309 06       		.uleb128 0x6
 5067 130a 04       		.byte	0x4
 5068 130b B5120000 		.4byte	0x12b5
 5069 130f 11       		.uleb128 0x11
 5070 1310 790D0000 		.4byte	.LASF277
 5071 1314 04       		.byte	0x4
 5072 1315 1B       		.byte	0x1b
 5073 1316 4A       		.byte	0x4a
 5074 1317 28130000 		.4byte	0x1328
 5075 131b 0E       		.uleb128 0xe
 5076 131c 00060000 		.4byte	.LASF278
 5077 1320 1B       		.byte	0x1b
 5078 1321 4B       		.byte	0x4b
 5079 1322 09130000 		.4byte	0x1309
 5080 1326 00       		.byte	0
 5081 1327 00       		.byte	0
 5082 1328 03       		.uleb128 0x3
 5083 1329 AE080000 		.4byte	.LASF279
 5084 132d 1B       		.byte	0x1b
 5085 132e 4E       		.byte	0x4e
 5086 132f 0F130000 		.4byte	0x130f
 5087 1333 05       		.uleb128 0x5
 5088 1334 01       		.byte	0x1
 5089 1335 02       		.byte	0x2
 5090 1336 22040000 		.4byte	.LASF280
 5091 133a 03       		.uleb128 0x3
 5092 133b BA0E0000 		.4byte	.LASF281
 5093 133f 1C       		.byte	0x1c
 5094 1340 3F       		.byte	0x3f
 5095 1341 45130000 		.4byte	0x1345
 5096 1345 11       		.uleb128 0x11
 5097 1346 FD020000 		.4byte	.LASF282
 5098 134a 24       		.byte	0x24
ARM GAS  /tmp/cctghmAI.s 			page 91


 5099 134b 1C       		.byte	0x1c
 5100 134c 4D       		.byte	0x4d
 5101 134d B2130000 		.4byte	0x13b2
 5102 1351 0E       		.uleb128 0xe
 5103 1352 E50C0000 		.4byte	.LASF283
 5104 1356 1C       		.byte	0x1c
 5105 1357 4E       		.byte	0x4e
 5106 1358 C90A0000 		.4byte	0xac9
 5107 135c 00       		.byte	0
 5108 135d 0E       		.uleb128 0xe
 5109 135e 08060000 		.4byte	.LASF284
 5110 1362 1C       		.byte	0x1c
 5111 1363 4F       		.byte	0x4f
 5112 1364 37000000 		.4byte	0x37
 5113 1368 08       		.byte	0x8
 5114 1369 0E       		.uleb128 0xe
 5115 136a 2A020000 		.4byte	.LASF285
 5116 136e 1C       		.byte	0x1c
 5117 136f 50       		.byte	0x50
 5118 1370 D4130000 		.4byte	0x13d4
 5119 1374 0C       		.byte	0xc
 5120 1375 0E       		.uleb128 0xe
 5121 1376 FC010000 		.4byte	.LASF286
 5122 137a 1C       		.byte	0x1c
 5123 137b 51       		.byte	0x51
 5124 137c D4130000 		.4byte	0x13d4
 5125 1380 10       		.byte	0x10
 5126 1381 0E       		.uleb128 0xe
 5127 1382 31070000 		.4byte	.LASF287
 5128 1386 1C       		.byte	0x1c
 5129 1387 53       		.byte	0x53
 5130 1388 D4130000 		.4byte	0x13d4
 5131 138c 14       		.byte	0x14
 5132 138d 0E       		.uleb128 0xe
 5133 138e 7A020000 		.4byte	.LASF288
 5134 1392 1C       		.byte	0x1c
 5135 1393 54       		.byte	0x54
 5136 1394 D4130000 		.4byte	0x13d4
 5137 1398 18       		.byte	0x18
 5138 1399 0E       		.uleb128 0xe
 5139 139a 33020000 		.4byte	.LASF289
 5140 139e 1C       		.byte	0x1c
 5141 139f 55       		.byte	0x55
 5142 13a0 B2130000 		.4byte	0x13b2
 5143 13a4 1C       		.byte	0x1c
 5144 13a5 0E       		.uleb128 0xe
 5145 13a6 A7030000 		.4byte	.LASF290
 5146 13aa 1C       		.byte	0x1c
 5147 13ab 56       		.byte	0x56
 5148 13ac 5E010000 		.4byte	0x15e
 5149 13b0 20       		.byte	0x20
 5150 13b1 00       		.byte	0
 5151 13b2 03       		.uleb128 0x3
 5152 13b3 FE080000 		.4byte	.LASF291
 5153 13b7 1C       		.byte	0x1c
 5154 13b8 42       		.byte	0x42
 5155 13b9 BD130000 		.4byte	0x13bd
ARM GAS  /tmp/cctghmAI.s 			page 92


 5156 13bd 06       		.uleb128 0x6
 5157 13be 04       		.byte	0x4
 5158 13bf C3130000 		.4byte	0x13c3
 5159 13c3 1F       		.uleb128 0x1f
 5160 13c4 CE130000 		.4byte	0x13ce
 5161 13c8 17       		.uleb128 0x17
 5162 13c9 CE130000 		.4byte	0x13ce
 5163 13cd 00       		.byte	0
 5164 13ce 06       		.uleb128 0x6
 5165 13cf 04       		.byte	0x4
 5166 13d0 3A130000 		.4byte	0x133a
 5167 13d4 06       		.uleb128 0x6
 5168 13d5 04       		.byte	0x4
 5169 13d6 E7080000 		.4byte	0x8e7
 5170 13da 03       		.uleb128 0x3
 5171 13db E10F0000 		.4byte	.LASF292
 5172 13df 1C       		.byte	0x1c
 5173 13e0 64       		.byte	0x64
 5174 13e1 3A130000 		.4byte	0x133a
 5175 13e5 03       		.uleb128 0x3
 5176 13e6 87100000 		.4byte	.LASF293
 5177 13ea 1C       		.byte	0x1c
 5178 13eb 71       		.byte	0x71
 5179 13ec 3A130000 		.4byte	0x133a
 5180 13f0 16       		.uleb128 0x16
 5181 13f1 2C000000 		.4byte	0x2c
 5182 13f5 09140000 		.4byte	0x1409
 5183 13f9 17       		.uleb128 0x17
 5184 13fa 5E010000 		.4byte	0x15e
 5185 13fe 17       		.uleb128 0x17
 5186 13ff 09140000 		.4byte	0x1409
 5187 1403 17       		.uleb128 0x17
 5188 1404 2C000000 		.4byte	0x2c
 5189 1408 00       		.byte	0
 5190 1409 06       		.uleb128 0x6
 5191 140a 04       		.byte	0x4
 5192 140b F2080000 		.4byte	0x8f2
 5193 140f 06       		.uleb128 0x6
 5194 1410 04       		.byte	0x4
 5195 1411 F0130000 		.4byte	0x13f0
 5196 1415 16       		.uleb128 0x16
 5197 1416 2C000000 		.4byte	0x2c
 5198 141a 2E140000 		.4byte	0x142e
 5199 141e 17       		.uleb128 0x17
 5200 141f 5E010000 		.4byte	0x15e
 5201 1423 17       		.uleb128 0x17
 5202 1424 D4130000 		.4byte	0x13d4
 5203 1428 17       		.uleb128 0x17
 5204 1429 2C000000 		.4byte	0x2c
 5205 142d 00       		.byte	0
 5206 142e 06       		.uleb128 0x6
 5207 142f 04       		.byte	0x4
 5208 1430 15140000 		.4byte	0x1415
 5209 1434 16       		.uleb128 0x16
 5210 1435 59090000 		.4byte	0x959
 5211 1439 48140000 		.4byte	0x1448
 5212 143d 17       		.uleb128 0x17
ARM GAS  /tmp/cctghmAI.s 			page 93


 5213 143e 5E010000 		.4byte	0x15e
 5214 1442 17       		.uleb128 0x17
 5215 1443 E7080000 		.4byte	0x8e7
 5216 1447 00       		.byte	0
 5217 1448 06       		.uleb128 0x6
 5218 1449 04       		.byte	0x4
 5219 144a 34140000 		.4byte	0x1434
 5220 144e 16       		.uleb128 0x16
 5221 144f 59090000 		.4byte	0x959
 5222 1453 5D140000 		.4byte	0x145d
 5223 1457 17       		.uleb128 0x17
 5224 1458 5E010000 		.4byte	0x15e
 5225 145c 00       		.byte	0
 5226 145d 06       		.uleb128 0x6
 5227 145e 04       		.byte	0x4
 5228 145f 4E140000 		.4byte	0x144e
 5229 1463 0D       		.uleb128 0xd
 5230 1464 14       		.byte	0x14
 5231 1465 1D       		.byte	0x1d
 5232 1466 E4       		.byte	0xe4
 5233 1467 C0140000 		.4byte	0x14c0
 5234 146b 12       		.uleb128 0x12
 5235 146c 646D6100 		.ascii	"dma\000"
 5236 1470 1D       		.byte	0x1d
 5237 1471 E5       		.byte	0xe5
 5238 1472 C0140000 		.4byte	0x14c0
 5239 1476 00       		.byte	0
 5240 1477 0E       		.uleb128 0xe
 5241 1478 C5060000 		.4byte	.LASF294
 5242 147c 1D       		.byte	0x1d
 5243 147d E6       		.byte	0xe6
 5244 147e C6140000 		.4byte	0x14c6
 5245 1482 04       		.byte	0x4
 5246 1483 0E       		.uleb128 0xe
 5247 1484 3D0B0000 		.4byte	.LASF295
 5248 1488 1D       		.byte	0x1d
 5249 1489 E7       		.byte	0xe7
 5250 148a 12090000 		.4byte	0x912
 5251 148e 08       		.byte	0x8
 5252 148f 0E       		.uleb128 0xe
 5253 1490 6C040000 		.4byte	.LASF296
 5254 1494 1D       		.byte	0x1d
 5255 1495 E9       		.byte	0xe9
 5256 1496 CC140000 		.4byte	0x14cc
 5257 149a 0C       		.byte	0xc
 5258 149b 0E       		.uleb128 0xe
 5259 149c BF060000 		.4byte	.LASF297
 5260 14a0 1D       		.byte	0x1d
 5261 14a1 EA       		.byte	0xea
 5262 14a2 E7080000 		.4byte	0x8e7
 5263 14a6 10       		.byte	0x10
 5264 14a7 0E       		.uleb128 0xe
 5265 14a8 AC0B0000 		.4byte	.LASF298
 5266 14ac 1D       		.byte	0x1d
 5267 14ad EC       		.byte	0xec
 5268 14ae E7080000 		.4byte	0x8e7
 5269 14b2 11       		.byte	0x11
ARM GAS  /tmp/cctghmAI.s 			page 94


 5270 14b3 0E       		.uleb128 0xe
 5271 14b4 580C0000 		.4byte	.LASF299
 5272 14b8 1D       		.byte	0x1d
 5273 14b9 ED       		.byte	0xed
 5274 14ba E7080000 		.4byte	0x8e7
 5275 14be 12       		.byte	0x12
 5276 14bf 00       		.byte	0
 5277 14c0 06       		.uleb128 0x6
 5278 14c1 04       		.byte	0x4
 5279 14c2 7B0D0000 		.4byte	0xd7b
 5280 14c6 06       		.uleb128 0x6
 5281 14c7 04       		.byte	0x4
 5282 14c8 270D0000 		.4byte	0xd27
 5283 14cc 06       		.uleb128 0x6
 5284 14cd 04       		.byte	0x4
 5285 14ce 1D090000 		.4byte	0x91d
 5286 14d2 03       		.uleb128 0x3
 5287 14d3 00000000 		.4byte	.LASF300
 5288 14d7 1D       		.byte	0x1d
 5289 14d8 EE       		.byte	0xee
 5290 14d9 63140000 		.4byte	0x1463
 5291 14dd 10       		.uleb128 0x10
 5292 14de D2140000 		.4byte	0x14d2
 5293 14e2 03       		.uleb128 0x3
 5294 14e3 97090000 		.4byte	.LASF301
 5295 14e7 1D       		.byte	0x1d
 5296 14e8 F7       		.byte	0xf7
 5297 14e9 ED140000 		.4byte	0x14ed
 5298 14ed 06       		.uleb128 0x6
 5299 14ee 04       		.byte	0x4
 5300 14ef F3140000 		.4byte	0x14f3
 5301 14f3 1F       		.uleb128 0x1f
 5302 14f4 03150000 		.4byte	0x1503
 5303 14f8 17       		.uleb128 0x17
 5304 14f9 5E010000 		.4byte	0x15e
 5305 14fd 17       		.uleb128 0x17
 5306 14fe 12090000 		.4byte	0x912
 5307 1502 00       		.byte	0
 5308 1503 0D       		.uleb128 0xd
 5309 1504 08       		.byte	0x8
 5310 1505 1D       		.byte	0x1d
 5311 1506 FC       		.byte	0xfc
 5312 1507 24150000 		.4byte	0x1524
 5313 150b 0E       		.uleb128 0xe
 5314 150c 43050000 		.4byte	.LASF302
 5315 1510 1D       		.byte	0x1d
 5316 1511 FD       		.byte	0xfd
 5317 1512 E2140000 		.4byte	0x14e2
 5318 1516 00       		.byte	0
 5319 1517 0E       		.uleb128 0xe
 5320 1518 E20E0000 		.4byte	.LASF303
 5321 151c 1D       		.byte	0x1d
 5322 151d FE       		.byte	0xfe
 5323 151e 5E010000 		.4byte	0x15e
 5324 1522 04       		.byte	0x4
 5325 1523 00       		.byte	0
 5326 1524 03       		.uleb128 0x3
ARM GAS  /tmp/cctghmAI.s 			page 95


 5327 1525 A90A0000 		.4byte	.LASF304
 5328 1529 1D       		.byte	0x1d
 5329 152a FF       		.byte	0xff
 5330 152b 03150000 		.4byte	0x1503
 5331 152f 0B       		.uleb128 0xb
 5332 1530 DD140000 		.4byte	0x14dd
 5333 1534 3F150000 		.4byte	0x153f
 5334 1538 0C       		.uleb128 0xc
 5335 1539 20010000 		.4byte	0x120
 5336 153d 04       		.byte	0x4
 5337 153e 00       		.byte	0
 5338 153f 10       		.uleb128 0x10
 5339 1540 2F150000 		.4byte	0x152f
 5340 1544 20       		.uleb128 0x20
 5341 1545 F2060000 		.4byte	.LASF305
 5342 1549 1D       		.byte	0x1d
 5343 154a CD01     		.2byte	0x1cd
 5344 154c 3F150000 		.4byte	0x153f
 5345 1550 0B       		.uleb128 0xb
 5346 1551 24150000 		.4byte	0x1524
 5347 1555 60150000 		.4byte	0x1560
 5348 1559 0C       		.uleb128 0xc
 5349 155a 20010000 		.4byte	0x120
 5350 155e 04       		.byte	0x4
 5351 155f 00       		.byte	0
 5352 1560 20       		.uleb128 0x20
 5353 1561 5A0D0000 		.4byte	.LASF306
 5354 1565 1D       		.byte	0x1d
 5355 1566 CE01     		.2byte	0x1ce
 5356 1568 50150000 		.4byte	0x1550
 5357 156c 16       		.uleb128 0x16
 5358 156d 59090000 		.4byte	0x959
 5359 1571 85150000 		.4byte	0x1585
 5360 1575 17       		.uleb128 0x17
 5361 1576 5E010000 		.4byte	0x15e
 5362 157a 17       		.uleb128 0x17
 5363 157b E7080000 		.4byte	0x8e7
 5364 157f 17       		.uleb128 0x17
 5365 1580 85090000 		.4byte	0x985
 5366 1584 00       		.byte	0
 5367 1585 06       		.uleb128 0x6
 5368 1586 04       		.byte	0x4
 5369 1587 6C150000 		.4byte	0x156c
 5370 158b 16       		.uleb128 0x16
 5371 158c 59090000 		.4byte	0x959
 5372 1590 9F150000 		.4byte	0x159f
 5373 1594 17       		.uleb128 0x17
 5374 1595 5E010000 		.4byte	0x15e
 5375 1599 17       		.uleb128 0x17
 5376 159a 85090000 		.4byte	0x985
 5377 159e 00       		.byte	0
 5378 159f 06       		.uleb128 0x6
 5379 15a0 04       		.byte	0x4
 5380 15a1 8B150000 		.4byte	0x158b
 5381 15a5 16       		.uleb128 0x16
 5382 15a6 2C000000 		.4byte	0x2c
 5383 15aa C3150000 		.4byte	0x15c3
ARM GAS  /tmp/cctghmAI.s 			page 96


 5384 15ae 17       		.uleb128 0x17
 5385 15af 5E010000 		.4byte	0x15e
 5386 15b3 17       		.uleb128 0x17
 5387 15b4 09140000 		.4byte	0x1409
 5388 15b8 17       		.uleb128 0x17
 5389 15b9 2C000000 		.4byte	0x2c
 5390 15bd 17       		.uleb128 0x17
 5391 15be 85090000 		.4byte	0x985
 5392 15c2 00       		.byte	0
 5393 15c3 06       		.uleb128 0x6
 5394 15c4 04       		.byte	0x4
 5395 15c5 A5150000 		.4byte	0x15a5
 5396 15c9 16       		.uleb128 0x16
 5397 15ca 2C000000 		.4byte	0x2c
 5398 15ce E7150000 		.4byte	0x15e7
 5399 15d2 17       		.uleb128 0x17
 5400 15d3 5E010000 		.4byte	0x15e
 5401 15d7 17       		.uleb128 0x17
 5402 15d8 D4130000 		.4byte	0x13d4
 5403 15dc 17       		.uleb128 0x17
 5404 15dd 2C000000 		.4byte	0x2c
 5405 15e1 17       		.uleb128 0x17
 5406 15e2 85090000 		.4byte	0x985
 5407 15e6 00       		.byte	0
 5408 15e7 06       		.uleb128 0x6
 5409 15e8 04       		.byte	0x4
 5410 15e9 C9150000 		.4byte	0x15c9
 5411 15ed 03       		.uleb128 0x3
 5412 15ee EC0E0000 		.4byte	.LASF307
 5413 15f2 1E       		.byte	0x1e
 5414 15f3 2F       		.byte	0x2f
 5415 15f4 F8150000 		.4byte	0x15f8
 5416 15f8 11       		.uleb128 0x11
 5417 15f9 8D0F0000 		.4byte	.LASF308
 5418 15fd 34       		.byte	0x34
 5419 15fe 1E       		.byte	0x1e
 5420 15ff 3B       		.byte	0x3b
 5421 1600 94160000 		.4byte	0x1694
 5422 1604 0E       		.uleb128 0xe
 5423 1605 190F0000 		.4byte	.LASF309
 5424 1609 1E       		.byte	0x1e
 5425 160a 3F       		.byte	0x3f
 5426 160b C90A0000 		.4byte	0xac9
 5427 160f 00       		.byte	0
 5428 1610 0E       		.uleb128 0xe
 5429 1611 CB040000 		.4byte	.LASF310
 5430 1615 1E       		.byte	0x1e
 5431 1616 43       		.byte	0x43
 5432 1617 37000000 		.4byte	0x37
 5433 161b 08       		.byte	0x8
 5434 161c 0E       		.uleb128 0xe
 5435 161d 67050000 		.4byte	.LASF311
 5436 1621 1E       		.byte	0x1e
 5437 1622 47       		.byte	0x47
 5438 1623 D4130000 		.4byte	0x13d4
 5439 1627 0C       		.byte	0xc
 5440 1628 0E       		.uleb128 0xe
ARM GAS  /tmp/cctghmAI.s 			page 97


 5441 1629 ED040000 		.4byte	.LASF312
 5442 162d 1E       		.byte	0x1e
 5443 162e 4B       		.byte	0x4b
 5444 162f D4130000 		.4byte	0x13d4
 5445 1633 10       		.byte	0x10
 5446 1634 0E       		.uleb128 0xe
 5447 1635 C30A0000 		.4byte	.LASF313
 5448 1639 1E       		.byte	0x1e
 5449 163a 4F       		.byte	0x4f
 5450 163b D4130000 		.4byte	0x13d4
 5451 163f 14       		.byte	0x14
 5452 1640 0E       		.uleb128 0xe
 5453 1641 D90B0000 		.4byte	.LASF314
 5454 1645 1E       		.byte	0x1e
 5455 1646 56       		.byte	0x56
 5456 1647 2C000000 		.4byte	0x2c
 5457 164b 18       		.byte	0x18
 5458 164c 12       		.uleb128 0x12
 5459 164d 626E00   		.ascii	"bn\000"
 5460 1650 1E       		.byte	0x1e
 5461 1651 5A       		.byte	0x5a
 5462 1652 2C000000 		.4byte	0x2c
 5463 1656 1C       		.byte	0x1c
 5464 1657 0E       		.uleb128 0xe
 5465 1658 E4070000 		.4byte	.LASF315
 5466 165c 1E       		.byte	0x1e
 5467 165d 5E       		.byte	0x5e
 5468 165e D4130000 		.4byte	0x13d4
 5469 1662 20       		.byte	0x20
 5470 1663 12       		.uleb128 0x12
 5471 1664 70747200 		.ascii	"ptr\000"
 5472 1668 1E       		.byte	0x1e
 5473 1669 63       		.byte	0x63
 5474 166a D4130000 		.4byte	0x13d4
 5475 166e 24       		.byte	0x24
 5476 166f 12       		.uleb128 0x12
 5477 1670 746F7000 		.ascii	"top\000"
 5478 1674 1E       		.byte	0x1e
 5479 1675 67       		.byte	0x67
 5480 1676 D4130000 		.4byte	0x13d4
 5481 167a 28       		.byte	0x28
 5482 167b 0E       		.uleb128 0xe
 5483 167c B60B0000 		.4byte	.LASF316
 5484 1680 1E       		.byte	0x1e
 5485 1681 6B       		.byte	0x6b
 5486 1682 94160000 		.4byte	0x1694
 5487 1686 2C       		.byte	0x2c
 5488 1687 0E       		.uleb128 0xe
 5489 1688 ED060000 		.4byte	.LASF317
 5490 168c 1E       		.byte	0x1e
 5491 168d 6F       		.byte	0x6f
 5492 168e 5E010000 		.4byte	0x15e
 5493 1692 30       		.byte	0x30
 5494 1693 00       		.byte	0
 5495 1694 03       		.uleb128 0x3
 5496 1695 8C090000 		.4byte	.LASF318
 5497 1699 1E       		.byte	0x1e
ARM GAS  /tmp/cctghmAI.s 			page 98


 5498 169a 36       		.byte	0x36
 5499 169b 9F160000 		.4byte	0x169f
 5500 169f 06       		.uleb128 0x6
 5501 16a0 04       		.byte	0x4
 5502 16a1 A5160000 		.4byte	0x16a5
 5503 16a5 1F       		.uleb128 0x1f
 5504 16a6 B0160000 		.4byte	0x16b0
 5505 16aa 17       		.uleb128 0x17
 5506 16ab B0160000 		.4byte	0x16b0
 5507 16af 00       		.byte	0
 5508 16b0 06       		.uleb128 0x6
 5509 16b1 04       		.byte	0x4
 5510 16b2 ED150000 		.4byte	0x15ed
 5511 16b6 03       		.uleb128 0x3
 5512 16b7 5B090000 		.4byte	.LASF319
 5513 16bb 1E       		.byte	0x1e
 5514 16bc 75       		.byte	0x75
 5515 16bd ED150000 		.4byte	0x15ed
 5516 16c1 03       		.uleb128 0x3
 5517 16c2 41100000 		.4byte	.LASF320
 5518 16c6 1E       		.byte	0x1e
 5519 16c7 7A       		.byte	0x7a
 5520 16c8 ED150000 		.4byte	0x15ed
 5521 16cc 0D       		.uleb128 0xd
 5522 16cd 1C       		.byte	0x1c
 5523 16ce 1F       		.byte	0x1f
 5524 16cf F5       		.byte	0xf5
 5525 16d0 2B170000 		.4byte	0x172b
 5526 16d4 0E       		.uleb128 0xe
 5527 16d5 53040000 		.4byte	.LASF321
 5528 16d9 1F       		.byte	0x1f
 5529 16da F7       		.byte	0xf7
 5530 16db 12090000 		.4byte	0x912
 5531 16df 00       		.byte	0
 5532 16e0 0E       		.uleb128 0xe
 5533 16e1 9B060000 		.4byte	.LASF322
 5534 16e5 1F       		.byte	0x1f
 5535 16e6 F9       		.byte	0xf9
 5536 16e7 12090000 		.4byte	0x912
 5537 16eb 04       		.byte	0x4
 5538 16ec 0E       		.uleb128 0xe
 5539 16ed D4050000 		.4byte	.LASF323
 5540 16f1 1F       		.byte	0x1f
 5541 16f2 FB       		.byte	0xfb
 5542 16f3 12090000 		.4byte	0x912
 5543 16f7 08       		.byte	0x8
 5544 16f8 0E       		.uleb128 0xe
 5545 16f9 CB070000 		.4byte	.LASF324
 5546 16fd 1F       		.byte	0x1f
 5547 16fe FD       		.byte	0xfd
 5548 16ff 12090000 		.4byte	0x912
 5549 1703 0C       		.byte	0xc
 5550 1704 12       		.uleb128 0x12
 5551 1705 6F647200 		.ascii	"odr\000"
 5552 1709 1F       		.byte	0x1f
 5553 170a FF       		.byte	0xff
 5554 170b 12090000 		.4byte	0x912
ARM GAS  /tmp/cctghmAI.s 			page 99


 5555 170f 10       		.byte	0x10
 5556 1710 19       		.uleb128 0x19
 5557 1711 A40A0000 		.4byte	.LASF325
 5558 1715 1F       		.byte	0x1f
 5559 1716 0101     		.2byte	0x101
 5560 1718 12090000 		.4byte	0x912
 5561 171c 14       		.byte	0x14
 5562 171d 19       		.uleb128 0x19
 5563 171e 21060000 		.4byte	.LASF326
 5564 1722 1F       		.byte	0x1f
 5565 1723 0301     		.2byte	0x103
 5566 1725 12090000 		.4byte	0x912
 5567 1729 18       		.byte	0x18
 5568 172a 00       		.byte	0
 5569 172b 08       		.uleb128 0x8
 5570 172c B9010000 		.4byte	.LASF327
 5571 1730 1F       		.byte	0x1f
 5572 1731 0401     		.2byte	0x104
 5573 1733 CC160000 		.4byte	0x16cc
 5574 1737 1C       		.uleb128 0x1c
 5575 1738 70       		.byte	0x70
 5576 1739 1F       		.byte	0x1f
 5577 173a 0D01     		.2byte	0x10d
 5578 173c 75170000 		.4byte	0x1775
 5579 1740 19       		.uleb128 0x19
 5580 1741 DF0B0000 		.4byte	.LASF328
 5581 1745 1F       		.byte	0x1f
 5582 1746 1001     		.2byte	0x110
 5583 1748 2B170000 		.4byte	0x172b
 5584 174c 00       		.byte	0
 5585 174d 19       		.uleb128 0x19
 5586 174e EF080000 		.4byte	.LASF329
 5587 1752 1F       		.byte	0x1f
 5588 1753 1401     		.2byte	0x114
 5589 1755 2B170000 		.4byte	0x172b
 5590 1759 1C       		.byte	0x1c
 5591 175a 19       		.uleb128 0x19
 5592 175b EC050000 		.4byte	.LASF330
 5593 175f 1F       		.byte	0x1f
 5594 1760 1801     		.2byte	0x118
 5595 1762 2B170000 		.4byte	0x172b
 5596 1766 38       		.byte	0x38
 5597 1767 19       		.uleb128 0x19
 5598 1768 EF0F0000 		.4byte	.LASF331
 5599 176c 1F       		.byte	0x1f
 5600 176d 2401     		.2byte	0x124
 5601 176f 2B170000 		.4byte	0x172b
 5602 1773 54       		.byte	0x54
 5603 1774 00       		.byte	0
 5604 1775 08       		.uleb128 0x8
 5605 1776 D80E0000 		.4byte	.LASF332
 5606 177a 1F       		.byte	0x1f
 5607 177b 3A01     		.2byte	0x13a
 5608 177d 37170000 		.4byte	0x1737
 5609 1781 10       		.uleb128 0x10
 5610 1782 75170000 		.4byte	0x1775
 5611 1786 20       		.uleb128 0x20
ARM GAS  /tmp/cctghmAI.s 			page 100


 5612 1787 23030000 		.4byte	.LASF333
 5613 178b 1F       		.byte	0x1f
 5614 178c 1E02     		.2byte	0x21e
 5615 178e 81170000 		.4byte	0x1781
 5616 1792 25       		.uleb128 0x25
 5617 1793 01       		.byte	0x1
 5618 1794 63000000 		.4byte	0x63
 5619 1798 20       		.byte	0x20
 5620 1799 55       		.byte	0x55
 5621 179a B1170000 		.4byte	0x17b1
 5622 179e 26       		.uleb128 0x26
 5623 179f 18040000 		.4byte	.LASF334
 5624 17a3 00       		.byte	0
 5625 17a4 26       		.uleb128 0x26
 5626 17a5 B0100000 		.4byte	.LASF335
 5627 17a9 01       		.byte	0x1
 5628 17aa 26       		.uleb128 0x26
 5629 17ab 070D0000 		.4byte	.LASF336
 5630 17af 02       		.byte	0x2
 5631 17b0 00       		.byte	0
 5632 17b1 03       		.uleb128 0x3
 5633 17b2 FD0C0000 		.4byte	.LASF337
 5634 17b6 20       		.byte	0x20
 5635 17b7 59       		.byte	0x59
 5636 17b8 92170000 		.4byte	0x1792
 5637 17bc 03       		.uleb128 0x3
 5638 17bd CC0C0000 		.4byte	.LASF338
 5639 17c1 20       		.byte	0x20
 5640 17c2 5E       		.byte	0x5e
 5641 17c3 C7170000 		.4byte	0x17c7
 5642 17c7 13       		.uleb128 0x13
 5643 17c8 CC0C0000 		.4byte	.LASF338
 5644 17cc 5C01     		.2byte	0x15c
 5645 17ce 20       		.byte	0x20
 5646 17cf 78       		.byte	0x78
 5647 17d0 41180000 		.4byte	0x1841
 5648 17d4 12       		.uleb128 0x12
 5649 17d5 766D7400 		.ascii	"vmt\000"
 5650 17d9 20       		.byte	0x20
 5651 17da 7A       		.byte	0x7a
 5652 17db BF180000 		.4byte	0x18bf
 5653 17df 00       		.byte	0
 5654 17e0 0E       		.uleb128 0xe
 5655 17e1 24090000 		.4byte	.LASF339
 5656 17e5 20       		.byte	0x20
 5657 17e6 7B       		.byte	0x7b
 5658 17e7 28130000 		.4byte	0x1328
 5659 17eb 04       		.byte	0x4
 5660 17ec 0E       		.uleb128 0xe
 5661 17ed 5B010000 		.4byte	.LASF340
 5662 17f1 20       		.byte	0x20
 5663 17f2 7B       		.byte	0x7b
 5664 17f3 B1170000 		.4byte	0x17b1
 5665 17f7 08       		.byte	0x8
 5666 17f8 0E       		.uleb128 0xe
 5667 17f9 AE0D0000 		.4byte	.LASF341
 5668 17fd 20       		.byte	0x20
ARM GAS  /tmp/cctghmAI.s 			page 101


 5669 17fe 7B       		.byte	0x7b
 5670 17ff DA130000 		.4byte	0x13da
 5671 1803 0C       		.byte	0xc
 5672 1804 0E       		.uleb128 0xe
 5673 1805 E4020000 		.4byte	.LASF342
 5674 1809 20       		.byte	0x20
 5675 180a 7B       		.byte	0x7b
 5676 180b E5130000 		.4byte	0x13e5
 5677 180f 30       		.byte	0x30
 5678 1810 12       		.uleb128 0x12
 5679 1811 696200   		.ascii	"ib\000"
 5680 1814 20       		.byte	0x20
 5681 1815 7B       		.byte	0x7b
 5682 1816 C5180000 		.4byte	0x18c5
 5683 181a 54       		.byte	0x54
 5684 181b 12       		.uleb128 0x12
 5685 181c 6F6200   		.ascii	"ob\000"
 5686 181f 20       		.byte	0x20
 5687 1820 7B       		.byte	0x7b
 5688 1821 C5180000 		.4byte	0x18c5
 5689 1825 D4       		.byte	0xd4
 5690 1826 14       		.uleb128 0x14
 5691 1827 1D030000 		.4byte	.LASF343
 5692 182b 20       		.byte	0x20
 5693 182c 7B       		.byte	0x7b
 5694 182d D5180000 		.4byte	0x18d5
 5695 1831 5401     		.2byte	0x154
 5696 1833 14       		.uleb128 0x14
 5697 1834 61070000 		.4byte	.LASF344
 5698 1838 20       		.byte	0x20
 5699 1839 7B       		.byte	0x7b
 5700 183a 12090000 		.4byte	0x912
 5701 183e 5801     		.2byte	0x158
 5702 1840 00       		.byte	0
 5703 1841 24       		.uleb128 0x24
 5704 1842 53443500 		.ascii	"SD5\000"
 5705 1846 21       		.byte	0x21
 5706 1847 7201     		.2byte	0x172
 5707 1849 BC170000 		.4byte	0x17bc
 5708 184d 11       		.uleb128 0x11
 5709 184e 45070000 		.4byte	.LASF345
 5710 1852 20       		.byte	0x20
 5711 1853 20       		.byte	0x20
 5712 1854 6D       		.byte	0x6d
 5713 1855 BA180000 		.4byte	0x18ba
 5714 1859 0E       		.uleb128 0xe
 5715 185a 67070000 		.4byte	.LASF346
 5716 185e 20       		.byte	0x20
 5717 185f 6E       		.byte	0x6e
 5718 1860 0F140000 		.4byte	0x140f
 5719 1864 00       		.byte	0
 5720 1865 0E       		.uleb128 0xe
 5721 1866 3A090000 		.4byte	.LASF347
 5722 186a 20       		.byte	0x20
 5723 186b 6E       		.byte	0x6e
 5724 186c 2E140000 		.4byte	0x142e
 5725 1870 04       		.byte	0x4
ARM GAS  /tmp/cctghmAI.s 			page 102


 5726 1871 12       		.uleb128 0x12
 5727 1872 70757400 		.ascii	"put\000"
 5728 1876 20       		.byte	0x20
 5729 1877 6E       		.byte	0x6e
 5730 1878 48140000 		.4byte	0x1448
 5731 187c 08       		.byte	0x8
 5732 187d 12       		.uleb128 0x12
 5733 187e 67657400 		.ascii	"get\000"
 5734 1882 20       		.byte	0x20
 5735 1883 6E       		.byte	0x6e
 5736 1884 5D140000 		.4byte	0x145d
 5737 1888 0C       		.byte	0xc
 5738 1889 0E       		.uleb128 0xe
 5739 188a 70010000 		.4byte	.LASF348
 5740 188e 20       		.byte	0x20
 5741 188f 6E       		.byte	0x6e
 5742 1890 85150000 		.4byte	0x1585
 5743 1894 10       		.byte	0x10
 5744 1895 0E       		.uleb128 0xe
 5745 1896 90040000 		.4byte	.LASF349
 5746 189a 20       		.byte	0x20
 5747 189b 6E       		.byte	0x6e
 5748 189c 9F150000 		.4byte	0x159f
 5749 18a0 14       		.byte	0x14
 5750 18a1 0E       		.uleb128 0xe
 5751 18a2 C6000000 		.4byte	.LASF350
 5752 18a6 20       		.byte	0x20
 5753 18a7 6E       		.byte	0x6e
 5754 18a8 C3150000 		.4byte	0x15c3
 5755 18ac 18       		.byte	0x18
 5756 18ad 0E       		.uleb128 0xe
 5757 18ae 24020000 		.4byte	.LASF351
 5758 18b2 20       		.byte	0x20
 5759 18b3 6E       		.byte	0x6e
 5760 18b4 E7150000 		.4byte	0x15e7
 5761 18b8 1C       		.byte	0x1c
 5762 18b9 00       		.byte	0
 5763 18ba 10       		.uleb128 0x10
 5764 18bb 4D180000 		.4byte	0x184d
 5765 18bf 06       		.uleb128 0x6
 5766 18c0 04       		.byte	0x4
 5767 18c1 BA180000 		.4byte	0x18ba
 5768 18c5 0B       		.uleb128 0xb
 5769 18c6 E7080000 		.4byte	0x8e7
 5770 18ca D5180000 		.4byte	0x18d5
 5771 18ce 0C       		.uleb128 0xc
 5772 18cf 20010000 		.4byte	0x120
 5773 18d3 7F       		.byte	0x7f
 5774 18d4 00       		.byte	0
 5775 18d5 06       		.uleb128 0x6
 5776 18d6 04       		.byte	0x4
 5777 18d7 4E0E0000 		.4byte	0xe4e
 5778 18db 27       		.uleb128 0x27
 5779 18dc 3A050000 		.4byte	.LASF360
 5780 18e0 0A       		.byte	0xa
 5781 18e1 5403     		.2byte	0x354
 5782 18e3 00000000 		.4byte	.LFB203
ARM GAS  /tmp/cctghmAI.s 			page 103


 5783 18e7 3E000000 		.4byte	.LFE203-.LFB203
 5784 18eb 01       		.uleb128 0x1
 5785 18ec 9C       		.byte	0x9c
 5786 18ed 1A190000 		.4byte	0x191a
 5787 18f1 28       		.uleb128 0x28
 5788 18f2 D10A0000 		.4byte	.LASF352
 5789 18f6 0A       		.byte	0xa
 5790 18f7 5403     		.2byte	0x354
 5791 18f9 1A190000 		.4byte	0x191a
 5792 18fd 02       		.uleb128 0x2
 5793 18fe 91       		.byte	0x91
 5794 18ff 6C       		.sleb128 -20
 5795 1900 29       		.uleb128 0x29
 5796 1901 12000000 		.4byte	.LBB19
 5797 1905 22000000 		.4byte	.LBE19-.LBB19
 5798 1909 2A       		.uleb128 0x2a
 5799 190a BD0B0000 		.4byte	.LASF353
 5800 190e 0A       		.byte	0xa
 5801 190f 5A03     		.2byte	0x35a
 5802 1911 2C000000 		.4byte	0x2c
 5803 1915 02       		.uleb128 0x2
 5804 1916 91       		.byte	0x91
 5805 1917 74       		.sleb128 -12
 5806 1918 00       		.byte	0
 5807 1919 00       		.byte	0
 5808 191a 06       		.uleb128 0x6
 5809 191b 04       		.byte	0x4
 5810 191c C1160000 		.4byte	0x16c1
 5811 1920 2B       		.uleb128 0x2b
 5812 1921 E20A0000 		.4byte	.LASF354
 5813 1925 0A       		.byte	0xa
 5814 1926 2F03     		.2byte	0x32f
 5815 1928 33130000 		.4byte	0x1333
 5816 192c 00000000 		.4byte	.LFB202
 5817 1930 94000000 		.4byte	.LFE202-.LFB202
 5818 1934 01       		.uleb128 0x1
 5819 1935 9C       		.byte	0x9c
 5820 1936 63190000 		.4byte	0x1963
 5821 193a 28       		.uleb128 0x28
 5822 193b D10A0000 		.4byte	.LASF352
 5823 193f 0A       		.byte	0xa
 5824 1940 2F03     		.2byte	0x32f
 5825 1942 1A190000 		.4byte	0x191a
 5826 1946 02       		.uleb128 0x2
 5827 1947 91       		.byte	0x91
 5828 1948 6C       		.sleb128 -20
 5829 1949 29       		.uleb128 0x29
 5830 194a 38000000 		.4byte	.LBB18
 5831 194e 54000000 		.4byte	.LBE18-.LBB18
 5832 1952 2A       		.uleb128 0x2a
 5833 1953 BD0B0000 		.4byte	.LASF353
 5834 1957 0A       		.byte	0xa
 5835 1958 3603     		.2byte	0x336
 5836 195a 2C000000 		.4byte	0x2c
 5837 195e 02       		.uleb128 0x2
 5838 195f 91       		.byte	0x91
 5839 1960 74       		.sleb128 -12
ARM GAS  /tmp/cctghmAI.s 			page 104


 5840 1961 00       		.byte	0
 5841 1962 00       		.byte	0
 5842 1963 2B       		.uleb128 0x2b
 5843 1964 8F0D0000 		.4byte	.LASF355
 5844 1968 0A       		.byte	0xa
 5845 1969 D402     		.2byte	0x2d4
 5846 196b 2C000000 		.4byte	0x2c
 5847 196f 00000000 		.4byte	.LFB201
 5848 1973 64010000 		.4byte	.LFE201-.LFB201
 5849 1977 01       		.uleb128 0x1
 5850 1978 9C       		.byte	0x9c
 5851 1979 1E1A0000 		.4byte	0x1a1e
 5852 197d 28       		.uleb128 0x28
 5853 197e D10A0000 		.4byte	.LASF352
 5854 1982 0A       		.byte	0xa
 5855 1983 D402     		.2byte	0x2d4
 5856 1985 1A190000 		.4byte	0x191a
 5857 1989 02       		.uleb128 0x2
 5858 198a 91       		.byte	0x91
 5859 198b 64       		.sleb128 -28
 5860 198c 2C       		.uleb128 0x2c
 5861 198d 627000   		.ascii	"bp\000"
 5862 1990 0A       		.byte	0xa
 5863 1991 D402     		.2byte	0x2d4
 5864 1993 09140000 		.4byte	0x1409
 5865 1997 02       		.uleb128 0x2
 5866 1998 91       		.byte	0x91
 5867 1999 60       		.sleb128 -32
 5868 199a 2C       		.uleb128 0x2c
 5869 199b 6E00     		.ascii	"n\000"
 5870 199d 0A       		.byte	0xa
 5871 199e D502     		.2byte	0x2d5
 5872 19a0 2C000000 		.4byte	0x2c
 5873 19a4 02       		.uleb128 0x2
 5874 19a5 91       		.byte	0x91
 5875 19a6 5C       		.sleb128 -36
 5876 19a7 28       		.uleb128 0x28
 5877 19a8 F6080000 		.4byte	.LASF356
 5878 19ac 0A       		.byte	0xa
 5879 19ad D502     		.2byte	0x2d5
 5880 19af 85090000 		.4byte	0x985
 5881 19b3 02       		.uleb128 0x2
 5882 19b4 91       		.byte	0x91
 5883 19b5 5A       		.sleb128 -38
 5884 19b6 2D       		.uleb128 0x2d
 5885 19b7 7700     		.ascii	"w\000"
 5886 19b9 0A       		.byte	0xa
 5887 19ba D602     		.2byte	0x2d6
 5888 19bc 2C000000 		.4byte	0x2c
 5889 19c0 02       		.uleb128 0x2
 5890 19c1 91       		.byte	0x91
 5891 19c2 74       		.sleb128 -12
 5892 19c3 2A       		.uleb128 0x2a
 5893 19c4 6D070000 		.4byte	.LASF357
 5894 19c8 0A       		.byte	0xa
 5895 19c9 D702     		.2byte	0x2d7
 5896 19cb 85090000 		.4byte	0x985
ARM GAS  /tmp/cctghmAI.s 			page 105


 5897 19cf 02       		.uleb128 0x2
 5898 19d0 91       		.byte	0x91
 5899 19d1 6A       		.sleb128 -22
 5900 19d2 29       		.uleb128 0x29
 5901 19d3 30000000 		.4byte	.LBB15
 5902 19d7 28010000 		.4byte	.LBE15-.LBB15
 5903 19db 2A       		.uleb128 0x2a
 5904 19dc BD0B0000 		.4byte	.LASF353
 5905 19e0 0A       		.byte	0xa
 5906 19e1 DF02     		.2byte	0x2df
 5907 19e3 2C000000 		.4byte	0x2c
 5908 19e7 02       		.uleb128 0x2
 5909 19e8 91       		.byte	0x91
 5910 19e9 70       		.sleb128 -16
 5911 19ea 29       		.uleb128 0x29
 5912 19eb 38000000 		.4byte	.LBB16
 5913 19ef 76000000 		.4byte	.LBE16-.LBB16
 5914 19f3 2D       		.uleb128 0x2d
 5915 19f4 6D736700 		.ascii	"msg\000"
 5916 19f8 0A       		.byte	0xa
 5917 19f9 E302     		.2byte	0x2e3
 5918 19fb 59090000 		.4byte	0x959
 5919 19ff 02       		.uleb128 0x2
 5920 1a00 91       		.byte	0x91
 5921 1a01 6C       		.sleb128 -20
 5922 1a02 29       		.uleb128 0x29
 5923 1a03 64000000 		.4byte	.LBB17
 5924 1a07 3C000000 		.4byte	.LBE17-.LBB17
 5925 1a0b 2A       		.uleb128 0x2a
 5926 1a0c 1F080000 		.4byte	.LASF358
 5927 1a10 0A       		.byte	0xa
 5928 1a11 EB02     		.2byte	0x2eb
 5929 1a13 85090000 		.4byte	0x985
 5930 1a17 02       		.uleb128 0x2
 5931 1a18 91       		.byte	0x91
 5932 1a19 68       		.sleb128 -24
 5933 1a1a 00       		.byte	0
 5934 1a1b 00       		.byte	0
 5935 1a1c 00       		.byte	0
 5936 1a1d 00       		.byte	0
 5937 1a1e 2B       		.uleb128 0x2b
 5938 1a1f F90A0000 		.4byte	.LASF359
 5939 1a23 0A       		.byte	0xa
 5940 1a24 A202     		.2byte	0x2a2
 5941 1a26 59090000 		.4byte	0x959
 5942 1a2a 00000000 		.4byte	.LFB200
 5943 1a2e 82000000 		.4byte	.LFE200-.LFB200
 5944 1a32 01       		.uleb128 0x1
 5945 1a33 9C       		.byte	0x9c
 5946 1a34 731A0000 		.4byte	0x1a73
 5947 1a38 28       		.uleb128 0x28
 5948 1a39 D10A0000 		.4byte	.LASF352
 5949 1a3d 0A       		.byte	0xa
 5950 1a3e A202     		.2byte	0x2a2
 5951 1a40 1A190000 		.4byte	0x191a
 5952 1a44 02       		.uleb128 0x2
 5953 1a45 91       		.byte	0x91
ARM GAS  /tmp/cctghmAI.s 			page 106


 5954 1a46 6C       		.sleb128 -20
 5955 1a47 2C       		.uleb128 0x2c
 5956 1a48 6200     		.ascii	"b\000"
 5957 1a4a 0A       		.byte	0xa
 5958 1a4b A202     		.2byte	0x2a2
 5959 1a4d E7080000 		.4byte	0x8e7
 5960 1a51 02       		.uleb128 0x2
 5961 1a52 91       		.byte	0x91
 5962 1a53 6B       		.sleb128 -21
 5963 1a54 28       		.uleb128 0x28
 5964 1a55 F6080000 		.4byte	.LASF356
 5965 1a59 0A       		.byte	0xa
 5966 1a5a A302     		.2byte	0x2a3
 5967 1a5c 85090000 		.4byte	0x985
 5968 1a60 02       		.uleb128 0x2
 5969 1a61 91       		.byte	0x91
 5970 1a62 68       		.sleb128 -24
 5971 1a63 2D       		.uleb128 0x2d
 5972 1a64 6D736700 		.ascii	"msg\000"
 5973 1a68 0A       		.byte	0xa
 5974 1a69 A402     		.2byte	0x2a4
 5975 1a6b 59090000 		.4byte	0x959
 5976 1a6f 02       		.uleb128 0x2
 5977 1a70 91       		.byte	0x91
 5978 1a71 74       		.sleb128 -12
 5979 1a72 00       		.byte	0
 5980 1a73 27       		.uleb128 0x27
 5981 1a74 59040000 		.4byte	.LASF361
 5982 1a78 0A       		.byte	0xa
 5983 1a79 7602     		.2byte	0x276
 5984 1a7b 00000000 		.4byte	.LFB199
 5985 1a7f 8C000000 		.4byte	.LFE199-.LFB199
 5986 1a83 01       		.uleb128 0x1
 5987 1a84 9C       		.byte	0x9c
 5988 1a85 B71A0000 		.4byte	0x1ab7
 5989 1a89 28       		.uleb128 0x28
 5990 1a8a D10A0000 		.4byte	.LASF352
 5991 1a8e 0A       		.byte	0xa
 5992 1a8f 7602     		.2byte	0x276
 5993 1a91 1A190000 		.4byte	0x191a
 5994 1a95 02       		.uleb128 0x2
 5995 1a96 91       		.byte	0x91
 5996 1a97 74       		.sleb128 -12
 5997 1a98 28       		.uleb128 0x28
 5998 1a99 BD0B0000 		.4byte	.LASF353
 5999 1a9d 0A       		.byte	0xa
 6000 1a9e 7602     		.2byte	0x276
 6001 1aa0 2C000000 		.4byte	0x2c
 6002 1aa4 02       		.uleb128 0x2
 6003 1aa5 91       		.byte	0x91
 6004 1aa6 70       		.sleb128 -16
 6005 1aa7 2E       		.uleb128 0x2e
 6006 1aa8 FB000000 		.4byte	.LASF364
 6007 1aac C71A0000 		.4byte	0x1ac7
 6008 1ab0 05       		.uleb128 0x5
 6009 1ab1 03       		.byte	0x3
 6010 1ab2 00000000 		.4byte	__func__.6683
ARM GAS  /tmp/cctghmAI.s 			page 107


 6011 1ab6 00       		.byte	0
 6012 1ab7 0B       		.uleb128 0xb
 6013 1ab8 6D010000 		.4byte	0x16d
 6014 1abc C71A0000 		.4byte	0x1ac7
 6015 1ac0 0C       		.uleb128 0xc
 6016 1ac1 20010000 		.4byte	0x120
 6017 1ac5 12       		.byte	0x12
 6018 1ac6 00       		.byte	0
 6019 1ac7 10       		.uleb128 0x10
 6020 1ac8 B71A0000 		.4byte	0x1ab7
 6021 1acc 27       		.uleb128 0x27
 6022 1acd 06030000 		.4byte	.LASF362
 6023 1ad1 0A       		.byte	0xa
 6024 1ad2 6602     		.2byte	0x266
 6025 1ad4 00000000 		.4byte	.LFB198
 6026 1ad8 22000000 		.4byte	.LFE198-.LFB198
 6027 1adc 01       		.uleb128 0x1
 6028 1add 9C       		.byte	0x9c
 6029 1ade 011B0000 		.4byte	0x1b01
 6030 1ae2 28       		.uleb128 0x28
 6031 1ae3 D10A0000 		.4byte	.LASF352
 6032 1ae7 0A       		.byte	0xa
 6033 1ae8 6602     		.2byte	0x266
 6034 1aea 1A190000 		.4byte	0x191a
 6035 1aee 02       		.uleb128 0x2
 6036 1aef 91       		.byte	0x91
 6037 1af0 74       		.sleb128 -12
 6038 1af1 28       		.uleb128 0x28
 6039 1af2 BD0B0000 		.4byte	.LASF353
 6040 1af6 0A       		.byte	0xa
 6041 1af7 6602     		.2byte	0x266
 6042 1af9 2C000000 		.4byte	0x2c
 6043 1afd 02       		.uleb128 0x2
 6044 1afe 91       		.byte	0x91
 6045 1aff 70       		.sleb128 -16
 6046 1b00 00       		.byte	0
 6047 1b01 2B       		.uleb128 0x2b
 6048 1b02 66060000 		.4byte	.LASF363
 6049 1b06 0A       		.byte	0xa
 6050 1b07 4802     		.2byte	0x248
 6051 1b09 59090000 		.4byte	0x959
 6052 1b0d 00000000 		.4byte	.LFB197
 6053 1b11 70000000 		.4byte	.LFE197-.LFB197
 6054 1b15 01       		.uleb128 0x1
 6055 1b16 9C       		.byte	0x9c
 6056 1b17 621B0000 		.4byte	0x1b62
 6057 1b1b 28       		.uleb128 0x28
 6058 1b1c D10A0000 		.4byte	.LASF352
 6059 1b20 0A       		.byte	0xa
 6060 1b21 4802     		.2byte	0x248
 6061 1b23 1A190000 		.4byte	0x191a
 6062 1b27 02       		.uleb128 0x2
 6063 1b28 91       		.byte	0x91
 6064 1b29 6C       		.sleb128 -20
 6065 1b2a 28       		.uleb128 0x28
 6066 1b2b F6080000 		.4byte	.LASF356
 6067 1b2f 0A       		.byte	0xa
ARM GAS  /tmp/cctghmAI.s 			page 108


 6068 1b30 4902     		.2byte	0x249
 6069 1b32 85090000 		.4byte	0x985
 6070 1b36 02       		.uleb128 0x2
 6071 1b37 91       		.byte	0x91
 6072 1b38 6A       		.sleb128 -22
 6073 1b39 2E       		.uleb128 0x2e
 6074 1b3a FB000000 		.4byte	.LASF364
 6075 1b3e 721B0000 		.4byte	0x1b72
 6076 1b42 05       		.uleb128 0x5
 6077 1b43 03       		.byte	0x3
 6078 1b44 00000000 		.4byte	__func__.6674
 6079 1b48 29       		.uleb128 0x29
 6080 1b49 14000000 		.4byte	.LBB14
 6081 1b4d 1E000000 		.4byte	.LBE14-.LBB14
 6082 1b51 2D       		.uleb128 0x2d
 6083 1b52 6D736700 		.ascii	"msg\000"
 6084 1b56 0A       		.byte	0xa
 6085 1b57 4E02     		.2byte	0x24e
 6086 1b59 59090000 		.4byte	0x959
 6087 1b5d 02       		.uleb128 0x2
 6088 1b5e 91       		.byte	0x91
 6089 1b5f 74       		.sleb128 -12
 6090 1b60 00       		.byte	0
 6091 1b61 00       		.byte	0
 6092 1b62 0B       		.uleb128 0xb
 6093 1b63 6D010000 		.4byte	0x16d
 6094 1b67 721B0000 		.4byte	0x1b72
 6095 1b6b 0C       		.uleb128 0xc
 6096 1b6c 20010000 		.4byte	0x120
 6097 1b70 19       		.byte	0x19
 6098 1b71 00       		.byte	0
 6099 1b72 10       		.uleb128 0x10
 6100 1b73 621B0000 		.4byte	0x1b62
 6101 1b77 2B       		.uleb128 0x2b
 6102 1b78 E1090000 		.4byte	.LASF365
 6103 1b7c 0A       		.byte	0xa
 6104 1b7d 2902     		.2byte	0x229
 6105 1b7f 59090000 		.4byte	0x959
 6106 1b83 00000000 		.4byte	.LFB196
 6107 1b87 32000000 		.4byte	.LFE196-.LFB196
 6108 1b8b 01       		.uleb128 0x1
 6109 1b8c 9C       		.byte	0x9c
 6110 1b8d BF1B0000 		.4byte	0x1bbf
 6111 1b91 28       		.uleb128 0x28
 6112 1b92 D10A0000 		.4byte	.LASF352
 6113 1b96 0A       		.byte	0xa
 6114 1b97 2902     		.2byte	0x229
 6115 1b99 1A190000 		.4byte	0x191a
 6116 1b9d 02       		.uleb128 0x2
 6117 1b9e 91       		.byte	0x91
 6118 1b9f 6C       		.sleb128 -20
 6119 1ba0 28       		.uleb128 0x28
 6120 1ba1 F6080000 		.4byte	.LASF356
 6121 1ba5 0A       		.byte	0xa
 6122 1ba6 2A02     		.2byte	0x22a
 6123 1ba8 85090000 		.4byte	0x985
 6124 1bac 02       		.uleb128 0x2
ARM GAS  /tmp/cctghmAI.s 			page 109


 6125 1bad 91       		.byte	0x91
 6126 1bae 6A       		.sleb128 -22
 6127 1baf 2D       		.uleb128 0x2d
 6128 1bb0 6D736700 		.ascii	"msg\000"
 6129 1bb4 0A       		.byte	0xa
 6130 1bb5 2B02     		.2byte	0x22b
 6131 1bb7 59090000 		.4byte	0x959
 6132 1bbb 02       		.uleb128 0x2
 6133 1bbc 91       		.byte	0x91
 6134 1bbd 74       		.sleb128 -12
 6135 1bbe 00       		.byte	0
 6136 1bbf 27       		.uleb128 0x27
 6137 1bc0 7B0C0000 		.4byte	.LASF366
 6138 1bc4 0A       		.byte	0xa
 6139 1bc5 0502     		.2byte	0x205
 6140 1bc7 00000000 		.4byte	.LFB195
 6141 1bcb 78000000 		.4byte	.LFE195-.LFB195
 6142 1bcf 01       		.uleb128 0x1
 6143 1bd0 9C       		.byte	0x9c
 6144 1bd1 F41B0000 		.4byte	0x1bf4
 6145 1bd5 28       		.uleb128 0x28
 6146 1bd6 D10A0000 		.4byte	.LASF352
 6147 1bda 0A       		.byte	0xa
 6148 1bdb 0502     		.2byte	0x205
 6149 1bdd 1A190000 		.4byte	0x191a
 6150 1be1 02       		.uleb128 0x2
 6151 1be2 91       		.byte	0x91
 6152 1be3 74       		.sleb128 -12
 6153 1be4 2E       		.uleb128 0x2e
 6154 1be5 FB000000 		.4byte	.LASF364
 6155 1be9 041C0000 		.4byte	0x1c04
 6156 1bed 05       		.uleb128 0x5
 6157 1bee 03       		.byte	0x3
 6158 1bef 00000000 		.4byte	__func__.6660
 6159 1bf3 00       		.byte	0
 6160 1bf4 0B       		.uleb128 0xb
 6161 1bf5 6D010000 		.4byte	0x16d
 6162 1bf9 041C0000 		.4byte	0x1c04
 6163 1bfd 0C       		.uleb128 0xc
 6164 1bfe 20010000 		.4byte	0x120
 6165 1c02 16       		.byte	0x16
 6166 1c03 00       		.byte	0
 6167 1c04 10       		.uleb128 0x10
 6168 1c05 F41B0000 		.4byte	0x1bf4
 6169 1c09 2B       		.uleb128 0x2b
 6170 1c0a 08090000 		.4byte	.LASF367
 6171 1c0e 0A       		.byte	0xa
 6172 1c0f EF01     		.2byte	0x1ef
 6173 1c11 D4130000 		.4byte	0x13d4
 6174 1c15 00000000 		.4byte	.LFB194
 6175 1c19 4C000000 		.4byte	.LFE194-.LFB194
 6176 1c1d 01       		.uleb128 0x1
 6177 1c1e 9C       		.byte	0x9c
 6178 1c1f 421C0000 		.4byte	0x1c42
 6179 1c23 28       		.uleb128 0x28
 6180 1c24 D10A0000 		.4byte	.LASF352
 6181 1c28 0A       		.byte	0xa
ARM GAS  /tmp/cctghmAI.s 			page 110


 6182 1c29 EF01     		.2byte	0x1ef
 6183 1c2b 1A190000 		.4byte	0x191a
 6184 1c2f 02       		.uleb128 0x2
 6185 1c30 91       		.byte	0x91
 6186 1c31 74       		.sleb128 -12
 6187 1c32 28       		.uleb128 0x28
 6188 1c33 1B060000 		.4byte	.LASF368
 6189 1c37 0A       		.byte	0xa
 6190 1c38 F001     		.2byte	0x1f0
 6191 1c3a 421C0000 		.4byte	0x1c42
 6192 1c3e 02       		.uleb128 0x2
 6193 1c3f 91       		.byte	0x91
 6194 1c40 70       		.sleb128 -16
 6195 1c41 00       		.byte	0
 6196 1c42 06       		.uleb128 0x6
 6197 1c43 04       		.byte	0x4
 6198 1c44 2C000000 		.4byte	0x2c
 6199 1c48 27       		.uleb128 0x27
 6200 1c49 82090000 		.4byte	.LASF369
 6201 1c4d 0A       		.byte	0xa
 6202 1c4e D801     		.2byte	0x1d8
 6203 1c50 00000000 		.4byte	.LFB193
 6204 1c54 42000000 		.4byte	.LFE193-.LFB193
 6205 1c58 01       		.uleb128 0x1
 6206 1c59 9C       		.byte	0x9c
 6207 1c5a 6E1C0000 		.4byte	0x1c6e
 6208 1c5e 28       		.uleb128 0x28
 6209 1c5f D10A0000 		.4byte	.LASF352
 6210 1c63 0A       		.byte	0xa
 6211 1c64 D801     		.2byte	0x1d8
 6212 1c66 1A190000 		.4byte	0x191a
 6213 1c6a 02       		.uleb128 0x2
 6214 1c6b 91       		.byte	0x91
 6215 1c6c 74       		.sleb128 -12
 6216 1c6d 00       		.byte	0
 6217 1c6e 27       		.uleb128 0x27
 6218 1c6f B8100000 		.4byte	.LASF370
 6219 1c73 0A       		.byte	0xa
 6220 1c74 B901     		.2byte	0x1b9
 6221 1c76 00000000 		.4byte	.LFB192
 6222 1c7a 88000000 		.4byte	.LFE192-.LFB192
 6223 1c7e 01       		.uleb128 0x1
 6224 1c7f 9C       		.byte	0x9c
 6225 1c80 EB1C0000 		.4byte	0x1ceb
 6226 1c84 28       		.uleb128 0x28
 6227 1c85 D10A0000 		.4byte	.LASF352
 6228 1c89 0A       		.byte	0xa
 6229 1c8a B901     		.2byte	0x1b9
 6230 1c8c 1A190000 		.4byte	0x191a
 6231 1c90 02       		.uleb128 0x2
 6232 1c91 91       		.byte	0x91
 6233 1c92 74       		.sleb128 -12
 6234 1c93 2C       		.uleb128 0x2c
 6235 1c94 627000   		.ascii	"bp\000"
 6236 1c97 0A       		.byte	0xa
 6237 1c98 B901     		.2byte	0x1b9
 6238 1c9a D4130000 		.4byte	0x13d4
ARM GAS  /tmp/cctghmAI.s 			page 111


 6239 1c9e 02       		.uleb128 0x2
 6240 1c9f 91       		.byte	0x91
 6241 1ca0 70       		.sleb128 -16
 6242 1ca1 28       		.uleb128 0x28
 6243 1ca2 BD0B0000 		.4byte	.LASF353
 6244 1ca6 0A       		.byte	0xa
 6245 1ca7 BA01     		.2byte	0x1ba
 6246 1ca9 2C000000 		.4byte	0x2c
 6247 1cad 02       		.uleb128 0x2
 6248 1cae 91       		.byte	0x91
 6249 1caf 6C       		.sleb128 -20
 6250 1cb0 2C       		.uleb128 0x2c
 6251 1cb1 6E00     		.ascii	"n\000"
 6252 1cb3 0A       		.byte	0xa
 6253 1cb4 BA01     		.2byte	0x1ba
 6254 1cb6 2C000000 		.4byte	0x2c
 6255 1cba 02       		.uleb128 0x2
 6256 1cbb 91       		.byte	0x91
 6257 1cbc 68       		.sleb128 -24
 6258 1cbd 28       		.uleb128 0x28
 6259 1cbe 32040000 		.4byte	.LASF371
 6260 1cc2 0A       		.byte	0xa
 6261 1cc3 BB01     		.2byte	0x1bb
 6262 1cc5 94160000 		.4byte	0x1694
 6263 1cc9 02       		.uleb128 0x2
 6264 1cca 91       		.byte	0x91
 6265 1ccb 00       		.sleb128 0
 6266 1ccc 28       		.uleb128 0x28
 6267 1ccd ED060000 		.4byte	.LASF317
 6268 1cd1 0A       		.byte	0xa
 6269 1cd2 BB01     		.2byte	0x1bb
 6270 1cd4 5E010000 		.4byte	0x15e
 6271 1cd8 02       		.uleb128 0x2
 6272 1cd9 91       		.byte	0x91
 6273 1cda 04       		.sleb128 4
 6274 1cdb 2E       		.uleb128 0x2e
 6275 1cdc FB000000 		.4byte	.LASF364
 6276 1ce0 FB1C0000 		.4byte	0x1cfb
 6277 1ce4 05       		.uleb128 0x5
 6278 1ce5 03       		.byte	0x3
 6279 1ce6 00000000 		.4byte	__func__.6649
 6280 1cea 00       		.byte	0
 6281 1ceb 0B       		.uleb128 0xb
 6282 1cec 6D010000 		.4byte	0x16d
 6283 1cf0 FB1C0000 		.4byte	0x1cfb
 6284 1cf4 0C       		.uleb128 0xc
 6285 1cf5 20010000 		.4byte	0x120
 6286 1cf9 0D       		.byte	0xd
 6287 1cfa 00       		.byte	0
 6288 1cfb 10       		.uleb128 0x10
 6289 1cfc EB1C0000 		.4byte	0x1ceb
 6290 1d00 2B       		.uleb128 0x2b
 6291 1d01 BC040000 		.4byte	.LASF372
 6292 1d05 0A       		.byte	0xa
 6293 1d06 5F01     		.2byte	0x15f
 6294 1d08 2C000000 		.4byte	0x2c
 6295 1d0c 00000000 		.4byte	.LFB191
ARM GAS  /tmp/cctghmAI.s 			page 112


 6296 1d10 5C010000 		.4byte	.LFE191-.LFB191
 6297 1d14 01       		.uleb128 0x1
 6298 1d15 9C       		.byte	0x9c
 6299 1d16 BB1D0000 		.4byte	0x1dbb
 6300 1d1a 28       		.uleb128 0x28
 6301 1d1b 5B0A0000 		.4byte	.LASF373
 6302 1d1f 0A       		.byte	0xa
 6303 1d20 5F01     		.2byte	0x15f
 6304 1d22 BB1D0000 		.4byte	0x1dbb
 6305 1d26 02       		.uleb128 0x2
 6306 1d27 91       		.byte	0x91
 6307 1d28 64       		.sleb128 -28
 6308 1d29 2C       		.uleb128 0x2c
 6309 1d2a 627000   		.ascii	"bp\000"
 6310 1d2d 0A       		.byte	0xa
 6311 1d2e 5F01     		.2byte	0x15f
 6312 1d30 D4130000 		.4byte	0x13d4
 6313 1d34 02       		.uleb128 0x2
 6314 1d35 91       		.byte	0x91
 6315 1d36 60       		.sleb128 -32
 6316 1d37 2C       		.uleb128 0x2c
 6317 1d38 6E00     		.ascii	"n\000"
 6318 1d3a 0A       		.byte	0xa
 6319 1d3b 6001     		.2byte	0x160
 6320 1d3d 2C000000 		.4byte	0x2c
 6321 1d41 02       		.uleb128 0x2
 6322 1d42 91       		.byte	0x91
 6323 1d43 5C       		.sleb128 -36
 6324 1d44 28       		.uleb128 0x28
 6325 1d45 F6080000 		.4byte	.LASF356
 6326 1d49 0A       		.byte	0xa
 6327 1d4a 6001     		.2byte	0x160
 6328 1d4c 85090000 		.4byte	0x985
 6329 1d50 02       		.uleb128 0x2
 6330 1d51 91       		.byte	0x91
 6331 1d52 5A       		.sleb128 -38
 6332 1d53 2D       		.uleb128 0x2d
 6333 1d54 7200     		.ascii	"r\000"
 6334 1d56 0A       		.byte	0xa
 6335 1d57 6101     		.2byte	0x161
 6336 1d59 2C000000 		.4byte	0x2c
 6337 1d5d 02       		.uleb128 0x2
 6338 1d5e 91       		.byte	0x91
 6339 1d5f 74       		.sleb128 -12
 6340 1d60 2A       		.uleb128 0x2a
 6341 1d61 6D070000 		.4byte	.LASF357
 6342 1d65 0A       		.byte	0xa
 6343 1d66 6201     		.2byte	0x162
 6344 1d68 85090000 		.4byte	0x985
 6345 1d6c 02       		.uleb128 0x2
 6346 1d6d 91       		.byte	0x91
 6347 1d6e 6A       		.sleb128 -22
 6348 1d6f 29       		.uleb128 0x29
 6349 1d70 30000000 		.4byte	.LBB11
 6350 1d74 20010000 		.4byte	.LBE11-.LBB11
 6351 1d78 2A       		.uleb128 0x2a
 6352 1d79 BD0B0000 		.4byte	.LASF353
ARM GAS  /tmp/cctghmAI.s 			page 113


 6353 1d7d 0A       		.byte	0xa
 6354 1d7e 6A01     		.2byte	0x16a
 6355 1d80 2C000000 		.4byte	0x2c
 6356 1d84 02       		.uleb128 0x2
 6357 1d85 91       		.byte	0x91
 6358 1d86 70       		.sleb128 -16
 6359 1d87 29       		.uleb128 0x29
 6360 1d88 38000000 		.4byte	.LBB12
 6361 1d8c 76000000 		.4byte	.LBE12-.LBB12
 6362 1d90 2D       		.uleb128 0x2d
 6363 1d91 6D736700 		.ascii	"msg\000"
 6364 1d95 0A       		.byte	0xa
 6365 1d96 6E01     		.2byte	0x16e
 6366 1d98 59090000 		.4byte	0x959
 6367 1d9c 02       		.uleb128 0x2
 6368 1d9d 91       		.byte	0x91
 6369 1d9e 6C       		.sleb128 -20
 6370 1d9f 29       		.uleb128 0x29
 6371 1da0 64000000 		.4byte	.LBB13
 6372 1da4 3C000000 		.4byte	.LBE13-.LBB13
 6373 1da8 2A       		.uleb128 0x2a
 6374 1da9 1F080000 		.4byte	.LASF358
 6375 1dad 0A       		.byte	0xa
 6376 1dae 7601     		.2byte	0x176
 6377 1db0 85090000 		.4byte	0x985
 6378 1db4 02       		.uleb128 0x2
 6379 1db5 91       		.byte	0x91
 6380 1db6 68       		.sleb128 -24
 6381 1db7 00       		.byte	0
 6382 1db8 00       		.byte	0
 6383 1db9 00       		.byte	0
 6384 1dba 00       		.byte	0
 6385 1dbb 06       		.uleb128 0x6
 6386 1dbc 04       		.byte	0x4
 6387 1dbd B6160000 		.4byte	0x16b6
 6388 1dc1 2B       		.uleb128 0x2b
 6389 1dc2 05110000 		.4byte	.LASF374
 6390 1dc6 0A       		.byte	0xa
 6391 1dc7 2E01     		.2byte	0x12e
 6392 1dc9 59090000 		.4byte	0x959
 6393 1dcd 00000000 		.4byte	.LFB190
 6394 1dd1 6E000000 		.4byte	.LFE190-.LFB190
 6395 1dd5 01       		.uleb128 0x1
 6396 1dd6 9C       		.byte	0x9c
 6397 1dd7 091E0000 		.4byte	0x1e09
 6398 1ddb 28       		.uleb128 0x28
 6399 1ddc 5B0A0000 		.4byte	.LASF373
 6400 1de0 0A       		.byte	0xa
 6401 1de1 2E01     		.2byte	0x12e
 6402 1de3 BB1D0000 		.4byte	0x1dbb
 6403 1de7 02       		.uleb128 0x2
 6404 1de8 91       		.byte	0x91
 6405 1de9 6C       		.sleb128 -20
 6406 1dea 28       		.uleb128 0x28
 6407 1deb F6080000 		.4byte	.LASF356
 6408 1def 0A       		.byte	0xa
 6409 1df0 2E01     		.2byte	0x12e
ARM GAS  /tmp/cctghmAI.s 			page 114


 6410 1df2 85090000 		.4byte	0x985
 6411 1df6 02       		.uleb128 0x2
 6412 1df7 91       		.byte	0x91
 6413 1df8 6A       		.sleb128 -22
 6414 1df9 2D       		.uleb128 0x2d
 6415 1dfa 6D736700 		.ascii	"msg\000"
 6416 1dfe 0A       		.byte	0xa
 6417 1dff 2F01     		.2byte	0x12f
 6418 1e01 59090000 		.4byte	0x959
 6419 1e05 02       		.uleb128 0x2
 6420 1e06 91       		.byte	0x91
 6421 1e07 74       		.sleb128 -12
 6422 1e08 00       		.byte	0
 6423 1e09 27       		.uleb128 0x27
 6424 1e0a 23050000 		.4byte	.LASF375
 6425 1e0e 0A       		.byte	0xa
 6426 1e0f 0701     		.2byte	0x107
 6427 1e11 00000000 		.4byte	.LFB189
 6428 1e15 68000000 		.4byte	.LFE189-.LFB189
 6429 1e19 01       		.uleb128 0x1
 6430 1e1a 9C       		.byte	0x9c
 6431 1e1b 3E1E0000 		.4byte	0x1e3e
 6432 1e1f 28       		.uleb128 0x28
 6433 1e20 5B0A0000 		.4byte	.LASF373
 6434 1e24 0A       		.byte	0xa
 6435 1e25 0701     		.2byte	0x107
 6436 1e27 BB1D0000 		.4byte	0x1dbb
 6437 1e2b 02       		.uleb128 0x2
 6438 1e2c 91       		.byte	0x91
 6439 1e2d 74       		.sleb128 -12
 6440 1e2e 2E       		.uleb128 0x2e
 6441 1e2f FB000000 		.4byte	.LASF364
 6442 1e33 041C0000 		.4byte	0x1c04
 6443 1e37 05       		.uleb128 0x5
 6444 1e38 03       		.byte	0x3
 6445 1e39 00000000 		.4byte	__func__.6623
 6446 1e3d 00       		.byte	0
 6447 1e3e 2F       		.uleb128 0x2f
 6448 1e3f CD080000 		.4byte	.LASF376
 6449 1e43 0A       		.byte	0xa
 6450 1e44 F8       		.byte	0xf8
 6451 1e45 00000000 		.4byte	.LFB188
 6452 1e49 1C000000 		.4byte	.LFE188-.LFB188
 6453 1e4d 01       		.uleb128 0x1
 6454 1e4e 9C       		.byte	0x9c
 6455 1e4f 621E0000 		.4byte	0x1e62
 6456 1e53 30       		.uleb128 0x30
 6457 1e54 5B0A0000 		.4byte	.LASF373
 6458 1e58 0A       		.byte	0xa
 6459 1e59 F8       		.byte	0xf8
 6460 1e5a BB1D0000 		.4byte	0x1dbb
 6461 1e5e 02       		.uleb128 0x2
 6462 1e5f 91       		.byte	0x91
 6463 1e60 74       		.sleb128 -12
 6464 1e61 00       		.byte	0
 6465 1e62 31       		.uleb128 0x31
 6466 1e63 830A0000 		.4byte	.LASF377
ARM GAS  /tmp/cctghmAI.s 			page 115


 6467 1e67 0A       		.byte	0xa
 6468 1e68 DB       		.byte	0xdb
 6469 1e69 59090000 		.4byte	0x959
 6470 1e6d 00000000 		.4byte	.LFB187
 6471 1e71 70000000 		.4byte	.LFE187-.LFB187
 6472 1e75 01       		.uleb128 0x1
 6473 1e76 9C       		.byte	0x9c
 6474 1e77 BF1E0000 		.4byte	0x1ebf
 6475 1e7b 30       		.uleb128 0x30
 6476 1e7c 5B0A0000 		.4byte	.LASF373
 6477 1e80 0A       		.byte	0xa
 6478 1e81 DB       		.byte	0xdb
 6479 1e82 BB1D0000 		.4byte	0x1dbb
 6480 1e86 02       		.uleb128 0x2
 6481 1e87 91       		.byte	0x91
 6482 1e88 6C       		.sleb128 -20
 6483 1e89 30       		.uleb128 0x30
 6484 1e8a F6080000 		.4byte	.LASF356
 6485 1e8e 0A       		.byte	0xa
 6486 1e8f DC       		.byte	0xdc
 6487 1e90 85090000 		.4byte	0x985
 6488 1e94 02       		.uleb128 0x2
 6489 1e95 91       		.byte	0x91
 6490 1e96 6A       		.sleb128 -22
 6491 1e97 2E       		.uleb128 0x2e
 6492 1e98 FB000000 		.4byte	.LASF364
 6493 1e9c CF1E0000 		.4byte	0x1ecf
 6494 1ea0 05       		.uleb128 0x5
 6495 1ea1 03       		.byte	0x3
 6496 1ea2 00000000 		.4byte	__func__.6616
 6497 1ea6 29       		.uleb128 0x29
 6498 1ea7 14000000 		.4byte	.LBB10
 6499 1eab 1E000000 		.4byte	.LBE10-.LBB10
 6500 1eaf 32       		.uleb128 0x32
 6501 1eb0 6D736700 		.ascii	"msg\000"
 6502 1eb4 0A       		.byte	0xa
 6503 1eb5 E1       		.byte	0xe1
 6504 1eb6 59090000 		.4byte	0x959
 6505 1eba 02       		.uleb128 0x2
 6506 1ebb 91       		.byte	0x91
 6507 1ebc 74       		.sleb128 -12
 6508 1ebd 00       		.byte	0
 6509 1ebe 00       		.byte	0
 6510 1ebf 0B       		.uleb128 0xb
 6511 1ec0 6D010000 		.4byte	0x16d
 6512 1ec4 CF1E0000 		.4byte	0x1ecf
 6513 1ec8 0C       		.uleb128 0xc
 6514 1ec9 20010000 		.4byte	0x120
 6515 1ecd 18       		.byte	0x18
 6516 1ece 00       		.byte	0
 6517 1ecf 10       		.uleb128 0x10
 6518 1ed0 BF1E0000 		.4byte	0x1ebf
 6519 1ed4 31       		.uleb128 0x31
 6520 1ed5 B3070000 		.4byte	.LASF378
 6521 1ed9 0A       		.byte	0xa
 6522 1eda BC       		.byte	0xbc
 6523 1edb 59090000 		.4byte	0x959
ARM GAS  /tmp/cctghmAI.s 			page 116


 6524 1edf 00000000 		.4byte	.LFB186
 6525 1ee3 32000000 		.4byte	.LFE186-.LFB186
 6526 1ee7 01       		.uleb128 0x1
 6527 1ee8 9C       		.byte	0x9c
 6528 1ee9 181F0000 		.4byte	0x1f18
 6529 1eed 30       		.uleb128 0x30
 6530 1eee 5B0A0000 		.4byte	.LASF373
 6531 1ef2 0A       		.byte	0xa
 6532 1ef3 BC       		.byte	0xbc
 6533 1ef4 BB1D0000 		.4byte	0x1dbb
 6534 1ef8 02       		.uleb128 0x2
 6535 1ef9 91       		.byte	0x91
 6536 1efa 6C       		.sleb128 -20
 6537 1efb 30       		.uleb128 0x30
 6538 1efc F6080000 		.4byte	.LASF356
 6539 1f00 0A       		.byte	0xa
 6540 1f01 BD       		.byte	0xbd
 6541 1f02 85090000 		.4byte	0x985
 6542 1f06 02       		.uleb128 0x2
 6543 1f07 91       		.byte	0x91
 6544 1f08 6A       		.sleb128 -22
 6545 1f09 32       		.uleb128 0x32
 6546 1f0a 6D736700 		.ascii	"msg\000"
 6547 1f0e 0A       		.byte	0xa
 6548 1f0f BE       		.byte	0xbe
 6549 1f10 59090000 		.4byte	0x959
 6550 1f14 02       		.uleb128 0x2
 6551 1f15 91       		.byte	0x91
 6552 1f16 74       		.sleb128 -12
 6553 1f17 00       		.byte	0
 6554 1f18 2F       		.uleb128 0x2f
 6555 1f19 BD0F0000 		.4byte	.LASF379
 6556 1f1d 0A       		.byte	0xa
 6557 1f1e 93       		.byte	0x93
 6558 1f1f 00000000 		.4byte	.LFB185
 6559 1f23 9C000000 		.4byte	.LFE185-.LFB185
 6560 1f27 01       		.uleb128 0x1
 6561 1f28 9C       		.byte	0x9c
 6562 1f29 591F0000 		.4byte	0x1f59
 6563 1f2d 30       		.uleb128 0x30
 6564 1f2e 5B0A0000 		.4byte	.LASF373
 6565 1f32 0A       		.byte	0xa
 6566 1f33 93       		.byte	0x93
 6567 1f34 BB1D0000 		.4byte	0x1dbb
 6568 1f38 02       		.uleb128 0x2
 6569 1f39 91       		.byte	0x91
 6570 1f3a 74       		.sleb128 -12
 6571 1f3b 30       		.uleb128 0x30
 6572 1f3c BD0B0000 		.4byte	.LASF353
 6573 1f40 0A       		.byte	0xa
 6574 1f41 93       		.byte	0x93
 6575 1f42 2C000000 		.4byte	0x2c
 6576 1f46 02       		.uleb128 0x2
 6577 1f47 91       		.byte	0x91
 6578 1f48 70       		.sleb128 -16
 6579 1f49 2E       		.uleb128 0x2e
 6580 1f4a FB000000 		.4byte	.LASF364
ARM GAS  /tmp/cctghmAI.s 			page 117


 6581 1f4e C71A0000 		.4byte	0x1ac7
 6582 1f52 05       		.uleb128 0x5
 6583 1f53 03       		.byte	0x3
 6584 1f54 00000000 		.4byte	__func__.6602
 6585 1f58 00       		.byte	0
 6586 1f59 31       		.uleb128 0x31
 6587 1f5a C50E0000 		.4byte	.LASF380
 6588 1f5e 0A       		.byte	0xa
 6589 1f5f 80       		.byte	0x80
 6590 1f60 D4130000 		.4byte	0x13d4
 6591 1f64 00000000 		.4byte	.LFB184
 6592 1f68 40000000 		.4byte	.LFE184-.LFB184
 6593 1f6c 01       		.uleb128 0x1
 6594 1f6d 9C       		.byte	0x9c
 6595 1f6e 811F0000 		.4byte	0x1f81
 6596 1f72 30       		.uleb128 0x30
 6597 1f73 5B0A0000 		.4byte	.LASF373
 6598 1f77 0A       		.byte	0xa
 6599 1f78 80       		.byte	0x80
 6600 1f79 BB1D0000 		.4byte	0x1dbb
 6601 1f7d 02       		.uleb128 0x2
 6602 1f7e 91       		.byte	0x91
 6603 1f7f 74       		.sleb128 -12
 6604 1f80 00       		.byte	0
 6605 1f81 2F       		.uleb128 0x2f
 6606 1f82 FF030000 		.4byte	.LASF381
 6607 1f86 0A       		.byte	0xa
 6608 1f87 6A       		.byte	0x6a
 6609 1f88 00000000 		.4byte	.LFB183
 6610 1f8c 40000000 		.4byte	.LFE183-.LFB183
 6611 1f90 01       		.uleb128 0x1
 6612 1f91 9C       		.byte	0x9c
 6613 1f92 A51F0000 		.4byte	0x1fa5
 6614 1f96 30       		.uleb128 0x30
 6615 1f97 5B0A0000 		.4byte	.LASF373
 6616 1f9b 0A       		.byte	0xa
 6617 1f9c 6A       		.byte	0x6a
 6618 1f9d BB1D0000 		.4byte	0x1dbb
 6619 1fa1 02       		.uleb128 0x2
 6620 1fa2 91       		.byte	0x91
 6621 1fa3 74       		.sleb128 -12
 6622 1fa4 00       		.byte	0
 6623 1fa5 2F       		.uleb128 0x2f
 6624 1fa6 2A0D0000 		.4byte	.LASF382
 6625 1faa 0A       		.byte	0xa
 6626 1fab 4B       		.byte	0x4b
 6627 1fac 00000000 		.4byte	.LFB182
 6628 1fb0 88000000 		.4byte	.LFE182-.LFB182
 6629 1fb4 01       		.uleb128 0x1
 6630 1fb5 9C       		.byte	0x9c
 6631 1fb6 1B200000 		.4byte	0x201b
 6632 1fba 30       		.uleb128 0x30
 6633 1fbb 5B0A0000 		.4byte	.LASF373
 6634 1fbf 0A       		.byte	0xa
 6635 1fc0 4B       		.byte	0x4b
 6636 1fc1 BB1D0000 		.4byte	0x1dbb
 6637 1fc5 02       		.uleb128 0x2
ARM GAS  /tmp/cctghmAI.s 			page 118


 6638 1fc6 91       		.byte	0x91
 6639 1fc7 74       		.sleb128 -12
 6640 1fc8 33       		.uleb128 0x33
 6641 1fc9 627000   		.ascii	"bp\000"
 6642 1fcc 0A       		.byte	0xa
 6643 1fcd 4B       		.byte	0x4b
 6644 1fce D4130000 		.4byte	0x13d4
 6645 1fd2 02       		.uleb128 0x2
 6646 1fd3 91       		.byte	0x91
 6647 1fd4 70       		.sleb128 -16
 6648 1fd5 30       		.uleb128 0x30
 6649 1fd6 BD0B0000 		.4byte	.LASF353
 6650 1fda 0A       		.byte	0xa
 6651 1fdb 4C       		.byte	0x4c
 6652 1fdc 2C000000 		.4byte	0x2c
 6653 1fe0 02       		.uleb128 0x2
 6654 1fe1 91       		.byte	0x91
 6655 1fe2 6C       		.sleb128 -20
 6656 1fe3 33       		.uleb128 0x33
 6657 1fe4 6E00     		.ascii	"n\000"
 6658 1fe6 0A       		.byte	0xa
 6659 1fe7 4C       		.byte	0x4c
 6660 1fe8 2C000000 		.4byte	0x2c
 6661 1fec 02       		.uleb128 0x2
 6662 1fed 91       		.byte	0x91
 6663 1fee 68       		.sleb128 -24
 6664 1fef 30       		.uleb128 0x30
 6665 1ff0 6F0B0000 		.4byte	.LASF383
 6666 1ff4 0A       		.byte	0xa
 6667 1ff5 4D       		.byte	0x4d
 6668 1ff6 94160000 		.4byte	0x1694
 6669 1ffa 02       		.uleb128 0x2
 6670 1ffb 91       		.byte	0x91
 6671 1ffc 00       		.sleb128 0
 6672 1ffd 30       		.uleb128 0x30
 6673 1ffe ED060000 		.4byte	.LASF317
 6674 2002 0A       		.byte	0xa
 6675 2003 4D       		.byte	0x4d
 6676 2004 5E010000 		.4byte	0x15e
 6677 2008 02       		.uleb128 0x2
 6678 2009 91       		.byte	0x91
 6679 200a 04       		.sleb128 4
 6680 200b 2E       		.uleb128 0x2e
 6681 200c FB000000 		.4byte	.LASF364
 6682 2010 FB1C0000 		.4byte	0x1cfb
 6683 2014 05       		.uleb128 0x5
 6684 2015 03       		.byte	0x3
 6685 2016 00000000 		.4byte	__func__.6591
 6686 201a 00       		.byte	0
 6687 201b 34       		.uleb128 0x34
 6688 201c 88050000 		.4byte	.LASF384
 6689 2020 09       		.byte	0x9
 6690 2021 2803     		.2byte	0x328
 6691 2023 00000000 		.4byte	.LFB175
 6692 2027 1A000000 		.4byte	.LFE175-.LFB175
 6693 202b 01       		.uleb128 0x1
 6694 202c 9C       		.byte	0x9c
ARM GAS  /tmp/cctghmAI.s 			page 119


 6695 202d 50200000 		.4byte	0x2050
 6696 2031 2C       		.uleb128 0x2c
 6697 2032 74717000 		.ascii	"tqp\000"
 6698 2036 09       		.byte	0x9
 6699 2037 2803     		.2byte	0x328
 6700 2039 50200000 		.4byte	0x2050
 6701 203d 02       		.uleb128 0x2
 6702 203e 91       		.byte	0x91
 6703 203f 74       		.sleb128 -12
 6704 2040 2C       		.uleb128 0x2c
 6705 2041 6D736700 		.ascii	"msg\000"
 6706 2045 09       		.byte	0x9
 6707 2046 2803     		.2byte	0x328
 6708 2048 59090000 		.4byte	0x959
 6709 204c 02       		.uleb128 0x2
 6710 204d 91       		.byte	0x91
 6711 204e 70       		.sleb128 -16
 6712 204f 00       		.byte	0
 6713 2050 06       		.uleb128 0x6
 6714 2051 04       		.byte	0x4
 6715 2052 C90A0000 		.4byte	0xac9
 6716 2056 34       		.uleb128 0x34
 6717 2057 6C0A0000 		.4byte	.LASF385
 6718 205b 09       		.byte	0x9
 6719 205c 1B03     		.2byte	0x31b
 6720 205e 00000000 		.4byte	.LFB174
 6721 2062 1A000000 		.4byte	.LFE174-.LFB174
 6722 2066 01       		.uleb128 0x1
 6723 2067 9C       		.byte	0x9c
 6724 2068 8B200000 		.4byte	0x208b
 6725 206c 2C       		.uleb128 0x2c
 6726 206d 74717000 		.ascii	"tqp\000"
 6727 2071 09       		.byte	0x9
 6728 2072 1B03     		.2byte	0x31b
 6729 2074 50200000 		.4byte	0x2050
 6730 2078 02       		.uleb128 0x2
 6731 2079 91       		.byte	0x91
 6732 207a 74       		.sleb128 -12
 6733 207b 2C       		.uleb128 0x2c
 6734 207c 6D736700 		.ascii	"msg\000"
 6735 2080 09       		.byte	0x9
 6736 2081 1B03     		.2byte	0x31b
 6737 2083 59090000 		.4byte	0x959
 6738 2087 02       		.uleb128 0x2
 6739 2088 91       		.byte	0x91
 6740 2089 70       		.sleb128 -16
 6741 208a 00       		.byte	0
 6742 208b 35       		.uleb128 0x35
 6743 208c 91010000 		.4byte	.LASF405
 6744 2090 09       		.byte	0x9
 6745 2091 0D03     		.2byte	0x30d
 6746 2093 59090000 		.4byte	0x959
 6747 2097 00000000 		.4byte	.LFB173
 6748 209b 26000000 		.4byte	.LFE173-.LFB173
 6749 209f 01       		.uleb128 0x1
 6750 20a0 9C       		.byte	0x9c
 6751 20a1 C4200000 		.4byte	0x20c4
ARM GAS  /tmp/cctghmAI.s 			page 120


 6752 20a5 2C       		.uleb128 0x2c
 6753 20a6 74717000 		.ascii	"tqp\000"
 6754 20aa 09       		.byte	0x9
 6755 20ab 0D03     		.2byte	0x30d
 6756 20ad 50200000 		.4byte	0x2050
 6757 20b1 02       		.uleb128 0x2
 6758 20b2 91       		.byte	0x91
 6759 20b3 74       		.sleb128 -12
 6760 20b4 28       		.uleb128 0x28
 6761 20b5 A1100000 		.4byte	.LASF386
 6762 20b9 09       		.byte	0x9
 6763 20ba 0E03     		.2byte	0x30e
 6764 20bc 85090000 		.4byte	0x985
 6765 20c0 02       		.uleb128 0x2
 6766 20c1 91       		.byte	0x91
 6767 20c2 72       		.sleb128 -14
 6768 20c3 00       		.byte	0
 6769 20c4 34       		.uleb128 0x34
 6770 20c5 C6100000 		.4byte	.LASF387
 6771 20c9 09       		.byte	0x9
 6772 20ca F102     		.2byte	0x2f1
 6773 20cc 00000000 		.4byte	.LFB172
 6774 20d0 14000000 		.4byte	.LFE172-.LFB172
 6775 20d4 01       		.uleb128 0x1
 6776 20d5 9C       		.byte	0x9c
 6777 20d6 EA200000 		.4byte	0x20ea
 6778 20da 2C       		.uleb128 0x2c
 6779 20db 74717000 		.ascii	"tqp\000"
 6780 20df 09       		.byte	0x9
 6781 20e0 F102     		.2byte	0x2f1
 6782 20e2 50200000 		.4byte	0x2050
 6783 20e6 02       		.uleb128 0x2
 6784 20e7 91       		.byte	0x91
 6785 20e8 74       		.sleb128 -12
 6786 20e9 00       		.byte	0
 6787 20ea 36       		.uleb128 0x36
 6788 20eb 380D0000 		.4byte	.LASF391
 6789 20ef 09       		.byte	0x9
 6790 20f0 6802     		.2byte	0x268
 6791 20f2 85090000 		.4byte	0x985
 6792 20f6 00000000 		.4byte	.LFB164
 6793 20fa 0C000000 		.4byte	.LFE164-.LFB164
 6794 20fe 01       		.uleb128 0x1
 6795 20ff 9C       		.byte	0x9c
 6796 2100 37       		.uleb128 0x37
 6797 2101 AB010000 		.4byte	.LASF388
 6798 2105 09       		.byte	0x9
 6799 2106 F601     		.2byte	0x1f6
 6800 2108 00000000 		.4byte	.LFB157
 6801 210c 0A000000 		.4byte	.LFE157-.LFB157
 6802 2110 01       		.uleb128 0x1
 6803 2111 9C       		.byte	0x9c
 6804 2112 37       		.uleb128 0x37
 6805 2113 BE020000 		.4byte	.LASF389
 6806 2117 09       		.byte	0x9
 6807 2118 EB01     		.2byte	0x1eb
 6808 211a 00000000 		.4byte	.LFB156
ARM GAS  /tmp/cctghmAI.s 			page 121


 6809 211e 0A000000 		.4byte	.LFE156-.LFB156
 6810 2122 01       		.uleb128 0x1
 6811 2123 9C       		.byte	0x9c
 6812 2124 34       		.uleb128 0x34
 6813 2125 2E000000 		.4byte	.LASF390
 6814 2129 08       		.byte	0x8
 6815 212a 1601     		.2byte	0x116
 6816 212c 00000000 		.4byte	.LFB105
 6817 2130 14000000 		.4byte	.LFE105-.LFB105
 6818 2134 01       		.uleb128 0x1
 6819 2135 9C       		.byte	0x9c
 6820 2136 4A210000 		.4byte	0x214a
 6821 213a 2C       		.uleb128 0x2c
 6822 213b 74717000 		.ascii	"tqp\000"
 6823 213f 08       		.byte	0x8
 6824 2140 1601     		.2byte	0x116
 6825 2142 50200000 		.4byte	0x2050
 6826 2146 02       		.uleb128 0x2
 6827 2147 91       		.byte	0x91
 6828 2148 74       		.sleb128 -12
 6829 2149 00       		.byte	0
 6830 214a 38       		.uleb128 0x38
 6831 214b 070B0000 		.4byte	.LASF392
 6832 214f 07       		.byte	0x7
 6833 2150 E4       		.byte	0xe4
 6834 2151 85090000 		.4byte	0x985
 6835 2155 00000000 		.4byte	.LFB85
 6836 2159 0C000000 		.4byte	.LFE85-.LFB85
 6837 215d 01       		.uleb128 0x1
 6838 215e 9C       		.byte	0x9c
 6839 215f 34       		.uleb128 0x34
 6840 2160 31060000 		.4byte	.LASF393
 6841 2164 06       		.byte	0x6
 6842 2165 6601     		.2byte	0x166
 6843 2167 00000000 		.4byte	.LFB78
 6844 216b 38000000 		.4byte	.LFE78-.LFB78
 6845 216f 01       		.uleb128 0x1
 6846 2170 9C       		.byte	0x9c
 6847 2171 85210000 		.4byte	0x2185
 6848 2175 2E       		.uleb128 0x2e
 6849 2176 FB000000 		.4byte	.LASF364
 6850 217a 95210000 		.4byte	0x2195
 6851 217e 05       		.uleb128 0x5
 6852 217f 03       		.byte	0x3
 6853 2180 00000000 		.4byte	__func__.5371
 6854 2184 00       		.byte	0
 6855 2185 0B       		.uleb128 0xb
 6856 2186 6D010000 		.4byte	0x16d
 6857 218a 95210000 		.4byte	0x2195
 6858 218e 0C       		.uleb128 0xc
 6859 218f 20010000 		.4byte	0x120
 6860 2193 0B       		.byte	0xb
 6861 2194 00       		.byte	0
 6862 2195 10       		.uleb128 0x10
 6863 2196 85210000 		.4byte	0x2185
 6864 219a 37       		.uleb128 0x37
 6865 219b 5C060000 		.4byte	.LASF394
ARM GAS  /tmp/cctghmAI.s 			page 122


 6866 219f 06       		.byte	0x6
 6867 21a0 5A01     		.2byte	0x15a
 6868 21a2 00000000 		.4byte	.LFB77
 6869 21a6 0E000000 		.4byte	.LFE77-.LFB77
 6870 21aa 01       		.uleb128 0x1
 6871 21ab 9C       		.byte	0x9c
 6872 21ac 39       		.uleb128 0x39
 6873 21ad 400F0000 		.4byte	.LASF395
 6874 21b1 05       		.byte	0x5
 6875 21b2 5A02     		.2byte	0x25a
 6876 21b4 00000000 		.4byte	.LFB60
 6877 21b8 16000000 		.4byte	.LFE60-.LFB60
 6878 21bc 01       		.uleb128 0x1
 6879 21bd 9C       		.byte	0x9c
 6880 21be D2210000 		.4byte	0x21d2
 6881 21c2 2C       		.uleb128 0x2c
 6882 21c3 74717000 		.ascii	"tqp\000"
 6883 21c7 05       		.byte	0x5
 6884 21c8 5A02     		.2byte	0x25a
 6885 21ca 50200000 		.4byte	0x2050
 6886 21ce 02       		.uleb128 0x2
 6887 21cf 91       		.byte	0x91
 6888 21d0 7C       		.sleb128 -4
 6889 21d1 00       		.byte	0
 6890 21d2 38       		.uleb128 0x38
 6891 21d3 5A0F0000 		.4byte	.LASF396
 6892 21d7 04       		.byte	0x4
 6893 21d8 69       		.byte	0x69
 6894 21d9 85090000 		.4byte	0x985
 6895 21dd 00000000 		.4byte	.LFB55
 6896 21e1 0C000000 		.4byte	.LFE55-.LFB55
 6897 21e5 01       		.uleb128 0x1
 6898 21e6 9C       		.byte	0x9c
 6899 21e7 3A       		.uleb128 0x3a
 6900 21e8 990B0000 		.4byte	.LASF397
 6901 21ec 03       		.byte	0x3
 6902 21ed 8B       		.byte	0x8b
 6903 21ee 85090000 		.4byte	0x985
 6904 21f2 00000000 		.4byte	.LFB46
 6905 21f6 10000000 		.4byte	.LFE46-.LFB46
 6906 21fa 01       		.uleb128 0x1
 6907 21fb 9C       		.byte	0x9c
 6908 21fc 39       		.uleb128 0x39
 6909 21fd 62020000 		.4byte	.LASF398
 6910 2201 01       		.byte	0x1
 6911 2202 5301     		.2byte	0x153
 6912 2204 00000000 		.4byte	.LFB39
 6913 2208 06000000 		.4byte	.LFE39-.LFB39
 6914 220c 01       		.uleb128 0x1
 6915 220d 9C       		.byte	0x9c
 6916 220e 23220000 		.4byte	0x2223
 6917 2212 3B       		.uleb128 0x3b
 6918 2213 53220000 		.4byte	0x2253
 6919 2217 00000000 		.4byte	.LBB8
 6920 221b 02000000 		.4byte	.LBE8-.LBB8
 6921 221f 01       		.byte	0x1
 6922 2220 5501     		.2byte	0x155
ARM GAS  /tmp/cctghmAI.s 			page 123


 6923 2222 00       		.byte	0
 6924 2223 39       		.uleb128 0x39
 6925 2224 180D0000 		.4byte	.LASF399
 6926 2228 01       		.byte	0x1
 6927 2229 4A01     		.2byte	0x14a
 6928 222b 00000000 		.4byte	.LFB38
 6929 222f 06000000 		.4byte	.LFE38-.LFB38
 6930 2233 01       		.uleb128 0x1
 6931 2234 9C       		.byte	0x9c
 6932 2235 4A220000 		.4byte	0x224a
 6933 2239 3B       		.uleb128 0x3b
 6934 223a 4A220000 		.4byte	0x224a
 6935 223e 00000000 		.4byte	.LBB6
 6936 2242 02000000 		.4byte	.LBE6-.LBB6
 6937 2246 01       		.byte	0x1
 6938 2247 4C01     		.2byte	0x14c
 6939 2249 00       		.byte	0
 6940 224a 3C       		.uleb128 0x3c
 6941 224b A5070000 		.4byte	.LASF400
 6942 224f 02       		.byte	0x2
 6943 2250 5601     		.2byte	0x156
 6944 2252 03       		.byte	0x3
 6945 2253 3C       		.uleb128 0x3c
 6946 2254 00050000 		.4byte	.LASF401
 6947 2258 02       		.byte	0x2
 6948 2259 4B01     		.2byte	0x14b
 6949 225b 03       		.byte	0x3
 6950 225c 00       		.byte	0
 6951              		.section	.debug_abbrev,"",%progbits
 6952              	.Ldebug_abbrev0:
 6953 0000 01       		.uleb128 0x1
 6954 0001 11       		.uleb128 0x11
 6955 0002 01       		.byte	0x1
 6956 0003 25       		.uleb128 0x25
 6957 0004 0E       		.uleb128 0xe
 6958 0005 13       		.uleb128 0x13
 6959 0006 0B       		.uleb128 0xb
 6960 0007 03       		.uleb128 0x3
 6961 0008 0E       		.uleb128 0xe
 6962 0009 1B       		.uleb128 0x1b
 6963 000a 0E       		.uleb128 0xe
 6964 000b 55       		.uleb128 0x55
 6965 000c 17       		.uleb128 0x17
 6966 000d 11       		.uleb128 0x11
 6967 000e 01       		.uleb128 0x1
 6968 000f 10       		.uleb128 0x10
 6969 0010 17       		.uleb128 0x17
 6970 0011 00       		.byte	0
 6971 0012 00       		.byte	0
 6972 0013 02       		.uleb128 0x2
 6973 0014 24       		.uleb128 0x24
 6974 0015 00       		.byte	0
 6975 0016 0B       		.uleb128 0xb
 6976 0017 0B       		.uleb128 0xb
 6977 0018 3E       		.uleb128 0x3e
 6978 0019 0B       		.uleb128 0xb
 6979 001a 03       		.uleb128 0x3
ARM GAS  /tmp/cctghmAI.s 			page 124


 6980 001b 08       		.uleb128 0x8
 6981 001c 00       		.byte	0
 6982 001d 00       		.byte	0
 6983 001e 03       		.uleb128 0x3
 6984 001f 16       		.uleb128 0x16
 6985 0020 00       		.byte	0
 6986 0021 03       		.uleb128 0x3
 6987 0022 0E       		.uleb128 0xe
 6988 0023 3A       		.uleb128 0x3a
 6989 0024 0B       		.uleb128 0xb
 6990 0025 3B       		.uleb128 0x3b
 6991 0026 0B       		.uleb128 0xb
 6992 0027 49       		.uleb128 0x49
 6993 0028 13       		.uleb128 0x13
 6994 0029 00       		.byte	0
 6995 002a 00       		.byte	0
 6996 002b 04       		.uleb128 0x4
 6997 002c 35       		.uleb128 0x35
 6998 002d 00       		.byte	0
 6999 002e 49       		.uleb128 0x49
 7000 002f 13       		.uleb128 0x13
 7001 0030 00       		.byte	0
 7002 0031 00       		.byte	0
 7003 0032 05       		.uleb128 0x5
 7004 0033 24       		.uleb128 0x24
 7005 0034 00       		.byte	0
 7006 0035 0B       		.uleb128 0xb
 7007 0036 0B       		.uleb128 0xb
 7008 0037 3E       		.uleb128 0x3e
 7009 0038 0B       		.uleb128 0xb
 7010 0039 03       		.uleb128 0x3
 7011 003a 0E       		.uleb128 0xe
 7012 003b 00       		.byte	0
 7013 003c 00       		.byte	0
 7014 003d 06       		.uleb128 0x6
 7015 003e 0F       		.uleb128 0xf
 7016 003f 00       		.byte	0
 7017 0040 0B       		.uleb128 0xb
 7018 0041 0B       		.uleb128 0xb
 7019 0042 49       		.uleb128 0x49
 7020 0043 13       		.uleb128 0x13
 7021 0044 00       		.byte	0
 7022 0045 00       		.byte	0
 7023 0046 07       		.uleb128 0x7
 7024 0047 13       		.uleb128 0x13
 7025 0048 00       		.byte	0
 7026 0049 03       		.uleb128 0x3
 7027 004a 0E       		.uleb128 0xe
 7028 004b 3C       		.uleb128 0x3c
 7029 004c 19       		.uleb128 0x19
 7030 004d 00       		.byte	0
 7031 004e 00       		.byte	0
 7032 004f 08       		.uleb128 0x8
 7033 0050 16       		.uleb128 0x16
 7034 0051 00       		.byte	0
 7035 0052 03       		.uleb128 0x3
 7036 0053 0E       		.uleb128 0xe
ARM GAS  /tmp/cctghmAI.s 			page 125


 7037 0054 3A       		.uleb128 0x3a
 7038 0055 0B       		.uleb128 0xb
 7039 0056 3B       		.uleb128 0x3b
 7040 0057 05       		.uleb128 0x5
 7041 0058 49       		.uleb128 0x49
 7042 0059 13       		.uleb128 0x13
 7043 005a 00       		.byte	0
 7044 005b 00       		.byte	0
 7045 005c 09       		.uleb128 0x9
 7046 005d 17       		.uleb128 0x17
 7047 005e 01       		.byte	0x1
 7048 005f 0B       		.uleb128 0xb
 7049 0060 0B       		.uleb128 0xb
 7050 0061 3A       		.uleb128 0x3a
 7051 0062 0B       		.uleb128 0xb
 7052 0063 3B       		.uleb128 0x3b
 7053 0064 0B       		.uleb128 0xb
 7054 0065 01       		.uleb128 0x1
 7055 0066 13       		.uleb128 0x13
 7056 0067 00       		.byte	0
 7057 0068 00       		.byte	0
 7058 0069 0A       		.uleb128 0xa
 7059 006a 0D       		.uleb128 0xd
 7060 006b 00       		.byte	0
 7061 006c 03       		.uleb128 0x3
 7062 006d 0E       		.uleb128 0xe
 7063 006e 3A       		.uleb128 0x3a
 7064 006f 0B       		.uleb128 0xb
 7065 0070 3B       		.uleb128 0x3b
 7066 0071 0B       		.uleb128 0xb
 7067 0072 49       		.uleb128 0x49
 7068 0073 13       		.uleb128 0x13
 7069 0074 00       		.byte	0
 7070 0075 00       		.byte	0
 7071 0076 0B       		.uleb128 0xb
 7072 0077 01       		.uleb128 0x1
 7073 0078 01       		.byte	0x1
 7074 0079 49       		.uleb128 0x49
 7075 007a 13       		.uleb128 0x13
 7076 007b 01       		.uleb128 0x1
 7077 007c 13       		.uleb128 0x13
 7078 007d 00       		.byte	0
 7079 007e 00       		.byte	0
 7080 007f 0C       		.uleb128 0xc
 7081 0080 21       		.uleb128 0x21
 7082 0081 00       		.byte	0
 7083 0082 49       		.uleb128 0x49
 7084 0083 13       		.uleb128 0x13
 7085 0084 2F       		.uleb128 0x2f
 7086 0085 0B       		.uleb128 0xb
 7087 0086 00       		.byte	0
 7088 0087 00       		.byte	0
 7089 0088 0D       		.uleb128 0xd
 7090 0089 13       		.uleb128 0x13
 7091 008a 01       		.byte	0x1
 7092 008b 0B       		.uleb128 0xb
 7093 008c 0B       		.uleb128 0xb
ARM GAS  /tmp/cctghmAI.s 			page 126


 7094 008d 3A       		.uleb128 0x3a
 7095 008e 0B       		.uleb128 0xb
 7096 008f 3B       		.uleb128 0x3b
 7097 0090 0B       		.uleb128 0xb
 7098 0091 01       		.uleb128 0x1
 7099 0092 13       		.uleb128 0x13
 7100 0093 00       		.byte	0
 7101 0094 00       		.byte	0
 7102 0095 0E       		.uleb128 0xe
 7103 0096 0D       		.uleb128 0xd
 7104 0097 00       		.byte	0
 7105 0098 03       		.uleb128 0x3
 7106 0099 0E       		.uleb128 0xe
 7107 009a 3A       		.uleb128 0x3a
 7108 009b 0B       		.uleb128 0xb
 7109 009c 3B       		.uleb128 0x3b
 7110 009d 0B       		.uleb128 0xb
 7111 009e 49       		.uleb128 0x49
 7112 009f 13       		.uleb128 0x13
 7113 00a0 38       		.uleb128 0x38
 7114 00a1 0B       		.uleb128 0xb
 7115 00a2 00       		.byte	0
 7116 00a3 00       		.byte	0
 7117 00a4 0F       		.uleb128 0xf
 7118 00a5 0F       		.uleb128 0xf
 7119 00a6 00       		.byte	0
 7120 00a7 0B       		.uleb128 0xb
 7121 00a8 0B       		.uleb128 0xb
 7122 00a9 00       		.byte	0
 7123 00aa 00       		.byte	0
 7124 00ab 10       		.uleb128 0x10
 7125 00ac 26       		.uleb128 0x26
 7126 00ad 00       		.byte	0
 7127 00ae 49       		.uleb128 0x49
 7128 00af 13       		.uleb128 0x13
 7129 00b0 00       		.byte	0
 7130 00b1 00       		.byte	0
 7131 00b2 11       		.uleb128 0x11
 7132 00b3 13       		.uleb128 0x13
 7133 00b4 01       		.byte	0x1
 7134 00b5 03       		.uleb128 0x3
 7135 00b6 0E       		.uleb128 0xe
 7136 00b7 0B       		.uleb128 0xb
 7137 00b8 0B       		.uleb128 0xb
 7138 00b9 3A       		.uleb128 0x3a
 7139 00ba 0B       		.uleb128 0xb
 7140 00bb 3B       		.uleb128 0x3b
 7141 00bc 0B       		.uleb128 0xb
 7142 00bd 01       		.uleb128 0x1
 7143 00be 13       		.uleb128 0x13
 7144 00bf 00       		.byte	0
 7145 00c0 00       		.byte	0
 7146 00c1 12       		.uleb128 0x12
 7147 00c2 0D       		.uleb128 0xd
 7148 00c3 00       		.byte	0
 7149 00c4 03       		.uleb128 0x3
 7150 00c5 08       		.uleb128 0x8
ARM GAS  /tmp/cctghmAI.s 			page 127


 7151 00c6 3A       		.uleb128 0x3a
 7152 00c7 0B       		.uleb128 0xb
 7153 00c8 3B       		.uleb128 0x3b
 7154 00c9 0B       		.uleb128 0xb
 7155 00ca 49       		.uleb128 0x49
 7156 00cb 13       		.uleb128 0x13
 7157 00cc 38       		.uleb128 0x38
 7158 00cd 0B       		.uleb128 0xb
 7159 00ce 00       		.byte	0
 7160 00cf 00       		.byte	0
 7161 00d0 13       		.uleb128 0x13
 7162 00d1 13       		.uleb128 0x13
 7163 00d2 01       		.byte	0x1
 7164 00d3 03       		.uleb128 0x3
 7165 00d4 0E       		.uleb128 0xe
 7166 00d5 0B       		.uleb128 0xb
 7167 00d6 05       		.uleb128 0x5
 7168 00d7 3A       		.uleb128 0x3a
 7169 00d8 0B       		.uleb128 0xb
 7170 00d9 3B       		.uleb128 0x3b
 7171 00da 0B       		.uleb128 0xb
 7172 00db 01       		.uleb128 0x1
 7173 00dc 13       		.uleb128 0x13
 7174 00dd 00       		.byte	0
 7175 00de 00       		.byte	0
 7176 00df 14       		.uleb128 0x14
 7177 00e0 0D       		.uleb128 0xd
 7178 00e1 00       		.byte	0
 7179 00e2 03       		.uleb128 0x3
 7180 00e3 0E       		.uleb128 0xe
 7181 00e4 3A       		.uleb128 0x3a
 7182 00e5 0B       		.uleb128 0xb
 7183 00e6 3B       		.uleb128 0x3b
 7184 00e7 0B       		.uleb128 0xb
 7185 00e8 49       		.uleb128 0x49
 7186 00e9 13       		.uleb128 0x13
 7187 00ea 38       		.uleb128 0x38
 7188 00eb 05       		.uleb128 0x5
 7189 00ec 00       		.byte	0
 7190 00ed 00       		.byte	0
 7191 00ee 15       		.uleb128 0x15
 7192 00ef 15       		.uleb128 0x15
 7193 00f0 00       		.byte	0
 7194 00f1 27       		.uleb128 0x27
 7195 00f2 19       		.uleb128 0x19
 7196 00f3 00       		.byte	0
 7197 00f4 00       		.byte	0
 7198 00f5 16       		.uleb128 0x16
 7199 00f6 15       		.uleb128 0x15
 7200 00f7 01       		.byte	0x1
 7201 00f8 27       		.uleb128 0x27
 7202 00f9 19       		.uleb128 0x19
 7203 00fa 49       		.uleb128 0x49
 7204 00fb 13       		.uleb128 0x13
 7205 00fc 01       		.uleb128 0x1
 7206 00fd 13       		.uleb128 0x13
 7207 00fe 00       		.byte	0
ARM GAS  /tmp/cctghmAI.s 			page 128


 7208 00ff 00       		.byte	0
 7209 0100 17       		.uleb128 0x17
 7210 0101 05       		.uleb128 0x5
 7211 0102 00       		.byte	0
 7212 0103 49       		.uleb128 0x49
 7213 0104 13       		.uleb128 0x13
 7214 0105 00       		.byte	0
 7215 0106 00       		.byte	0
 7216 0107 18       		.uleb128 0x18
 7217 0108 13       		.uleb128 0x13
 7218 0109 01       		.byte	0x1
 7219 010a 03       		.uleb128 0x3
 7220 010b 0E       		.uleb128 0xe
 7221 010c 0B       		.uleb128 0xb
 7222 010d 05       		.uleb128 0x5
 7223 010e 3A       		.uleb128 0x3a
 7224 010f 0B       		.uleb128 0xb
 7225 0110 3B       		.uleb128 0x3b
 7226 0111 05       		.uleb128 0x5
 7227 0112 01       		.uleb128 0x1
 7228 0113 13       		.uleb128 0x13
 7229 0114 00       		.byte	0
 7230 0115 00       		.byte	0
 7231 0116 19       		.uleb128 0x19
 7232 0117 0D       		.uleb128 0xd
 7233 0118 00       		.byte	0
 7234 0119 03       		.uleb128 0x3
 7235 011a 0E       		.uleb128 0xe
 7236 011b 3A       		.uleb128 0x3a
 7237 011c 0B       		.uleb128 0xb
 7238 011d 3B       		.uleb128 0x3b
 7239 011e 05       		.uleb128 0x5
 7240 011f 49       		.uleb128 0x49
 7241 0120 13       		.uleb128 0x13
 7242 0121 38       		.uleb128 0x38
 7243 0122 0B       		.uleb128 0xb
 7244 0123 00       		.byte	0
 7245 0124 00       		.byte	0
 7246 0125 1A       		.uleb128 0x1a
 7247 0126 0D       		.uleb128 0xd
 7248 0127 00       		.byte	0
 7249 0128 03       		.uleb128 0x3
 7250 0129 0E       		.uleb128 0xe
 7251 012a 3A       		.uleb128 0x3a
 7252 012b 0B       		.uleb128 0xb
 7253 012c 3B       		.uleb128 0x3b
 7254 012d 05       		.uleb128 0x5
 7255 012e 49       		.uleb128 0x49
 7256 012f 13       		.uleb128 0x13
 7257 0130 38       		.uleb128 0x38
 7258 0131 05       		.uleb128 0x5
 7259 0132 00       		.byte	0
 7260 0133 00       		.byte	0
 7261 0134 1B       		.uleb128 0x1b
 7262 0135 13       		.uleb128 0x13
 7263 0136 01       		.byte	0x1
 7264 0137 03       		.uleb128 0x3
ARM GAS  /tmp/cctghmAI.s 			page 129


 7265 0138 0E       		.uleb128 0xe
 7266 0139 0B       		.uleb128 0xb
 7267 013a 0B       		.uleb128 0xb
 7268 013b 3A       		.uleb128 0x3a
 7269 013c 0B       		.uleb128 0xb
 7270 013d 3B       		.uleb128 0x3b
 7271 013e 05       		.uleb128 0x5
 7272 013f 01       		.uleb128 0x1
 7273 0140 13       		.uleb128 0x13
 7274 0141 00       		.byte	0
 7275 0142 00       		.byte	0
 7276 0143 1C       		.uleb128 0x1c
 7277 0144 13       		.uleb128 0x13
 7278 0145 01       		.byte	0x1
 7279 0146 0B       		.uleb128 0xb
 7280 0147 0B       		.uleb128 0xb
 7281 0148 3A       		.uleb128 0x3a
 7282 0149 0B       		.uleb128 0xb
 7283 014a 3B       		.uleb128 0x3b
 7284 014b 05       		.uleb128 0x5
 7285 014c 01       		.uleb128 0x1
 7286 014d 13       		.uleb128 0x13
 7287 014e 00       		.byte	0
 7288 014f 00       		.byte	0
 7289 0150 1D       		.uleb128 0x1d
 7290 0151 17       		.uleb128 0x17
 7291 0152 01       		.byte	0x1
 7292 0153 0B       		.uleb128 0xb
 7293 0154 0B       		.uleb128 0xb
 7294 0155 3A       		.uleb128 0x3a
 7295 0156 0B       		.uleb128 0xb
 7296 0157 3B       		.uleb128 0x3b
 7297 0158 05       		.uleb128 0x5
 7298 0159 01       		.uleb128 0x1
 7299 015a 13       		.uleb128 0x13
 7300 015b 00       		.byte	0
 7301 015c 00       		.byte	0
 7302 015d 1E       		.uleb128 0x1e
 7303 015e 0D       		.uleb128 0xd
 7304 015f 00       		.byte	0
 7305 0160 03       		.uleb128 0x3
 7306 0161 0E       		.uleb128 0xe
 7307 0162 3A       		.uleb128 0x3a
 7308 0163 0B       		.uleb128 0xb
 7309 0164 3B       		.uleb128 0x3b
 7310 0165 05       		.uleb128 0x5
 7311 0166 49       		.uleb128 0x49
 7312 0167 13       		.uleb128 0x13
 7313 0168 00       		.byte	0
 7314 0169 00       		.byte	0
 7315 016a 1F       		.uleb128 0x1f
 7316 016b 15       		.uleb128 0x15
 7317 016c 01       		.byte	0x1
 7318 016d 27       		.uleb128 0x27
 7319 016e 19       		.uleb128 0x19
 7320 016f 01       		.uleb128 0x1
 7321 0170 13       		.uleb128 0x13
ARM GAS  /tmp/cctghmAI.s 			page 130


 7322 0171 00       		.byte	0
 7323 0172 00       		.byte	0
 7324 0173 20       		.uleb128 0x20
 7325 0174 34       		.uleb128 0x34
 7326 0175 00       		.byte	0
 7327 0176 03       		.uleb128 0x3
 7328 0177 0E       		.uleb128 0xe
 7329 0178 3A       		.uleb128 0x3a
 7330 0179 0B       		.uleb128 0xb
 7331 017a 3B       		.uleb128 0x3b
 7332 017b 05       		.uleb128 0x5
 7333 017c 49       		.uleb128 0x49
 7334 017d 13       		.uleb128 0x13
 7335 017e 3F       		.uleb128 0x3f
 7336 017f 19       		.uleb128 0x19
 7337 0180 3C       		.uleb128 0x3c
 7338 0181 19       		.uleb128 0x19
 7339 0182 00       		.byte	0
 7340 0183 00       		.byte	0
 7341 0184 21       		.uleb128 0x21
 7342 0185 0D       		.uleb128 0xd
 7343 0186 00       		.byte	0
 7344 0187 03       		.uleb128 0x3
 7345 0188 08       		.uleb128 0x8
 7346 0189 3A       		.uleb128 0x3a
 7347 018a 0B       		.uleb128 0xb
 7348 018b 3B       		.uleb128 0x3b
 7349 018c 05       		.uleb128 0x5
 7350 018d 49       		.uleb128 0x49
 7351 018e 13       		.uleb128 0x13
 7352 018f 38       		.uleb128 0x38
 7353 0190 0B       		.uleb128 0xb
 7354 0191 00       		.byte	0
 7355 0192 00       		.byte	0
 7356 0193 22       		.uleb128 0x22
 7357 0194 34       		.uleb128 0x34
 7358 0195 00       		.byte	0
 7359 0196 03       		.uleb128 0x3
 7360 0197 0E       		.uleb128 0xe
 7361 0198 3A       		.uleb128 0x3a
 7362 0199 0B       		.uleb128 0xb
 7363 019a 3B       		.uleb128 0x3b
 7364 019b 0B       		.uleb128 0xb
 7365 019c 49       		.uleb128 0x49
 7366 019d 13       		.uleb128 0x13
 7367 019e 3F       		.uleb128 0x3f
 7368 019f 19       		.uleb128 0x19
 7369 01a0 3C       		.uleb128 0x3c
 7370 01a1 19       		.uleb128 0x19
 7371 01a2 00       		.byte	0
 7372 01a3 00       		.byte	0
 7373 01a4 23       		.uleb128 0x23
 7374 01a5 13       		.uleb128 0x13
 7375 01a6 01       		.byte	0x1
 7376 01a7 0B       		.uleb128 0xb
 7377 01a8 05       		.uleb128 0x5
 7378 01a9 3A       		.uleb128 0x3a
ARM GAS  /tmp/cctghmAI.s 			page 131


 7379 01aa 0B       		.uleb128 0xb
 7380 01ab 3B       		.uleb128 0x3b
 7381 01ac 0B       		.uleb128 0xb
 7382 01ad 01       		.uleb128 0x1
 7383 01ae 13       		.uleb128 0x13
 7384 01af 00       		.byte	0
 7385 01b0 00       		.byte	0
 7386 01b1 24       		.uleb128 0x24
 7387 01b2 34       		.uleb128 0x34
 7388 01b3 00       		.byte	0
 7389 01b4 03       		.uleb128 0x3
 7390 01b5 08       		.uleb128 0x8
 7391 01b6 3A       		.uleb128 0x3a
 7392 01b7 0B       		.uleb128 0xb
 7393 01b8 3B       		.uleb128 0x3b
 7394 01b9 05       		.uleb128 0x5
 7395 01ba 49       		.uleb128 0x49
 7396 01bb 13       		.uleb128 0x13
 7397 01bc 3F       		.uleb128 0x3f
 7398 01bd 19       		.uleb128 0x19
 7399 01be 3C       		.uleb128 0x3c
 7400 01bf 19       		.uleb128 0x19
 7401 01c0 00       		.byte	0
 7402 01c1 00       		.byte	0
 7403 01c2 25       		.uleb128 0x25
 7404 01c3 04       		.uleb128 0x4
 7405 01c4 01       		.byte	0x1
 7406 01c5 0B       		.uleb128 0xb
 7407 01c6 0B       		.uleb128 0xb
 7408 01c7 49       		.uleb128 0x49
 7409 01c8 13       		.uleb128 0x13
 7410 01c9 3A       		.uleb128 0x3a
 7411 01ca 0B       		.uleb128 0xb
 7412 01cb 3B       		.uleb128 0x3b
 7413 01cc 0B       		.uleb128 0xb
 7414 01cd 01       		.uleb128 0x1
 7415 01ce 13       		.uleb128 0x13
 7416 01cf 00       		.byte	0
 7417 01d0 00       		.byte	0
 7418 01d1 26       		.uleb128 0x26
 7419 01d2 28       		.uleb128 0x28
 7420 01d3 00       		.byte	0
 7421 01d4 03       		.uleb128 0x3
 7422 01d5 0E       		.uleb128 0xe
 7423 01d6 1C       		.uleb128 0x1c
 7424 01d7 0B       		.uleb128 0xb
 7425 01d8 00       		.byte	0
 7426 01d9 00       		.byte	0
 7427 01da 27       		.uleb128 0x27
 7428 01db 2E       		.uleb128 0x2e
 7429 01dc 01       		.byte	0x1
 7430 01dd 3F       		.uleb128 0x3f
 7431 01de 19       		.uleb128 0x19
 7432 01df 03       		.uleb128 0x3
 7433 01e0 0E       		.uleb128 0xe
 7434 01e1 3A       		.uleb128 0x3a
 7435 01e2 0B       		.uleb128 0xb
ARM GAS  /tmp/cctghmAI.s 			page 132


 7436 01e3 3B       		.uleb128 0x3b
 7437 01e4 05       		.uleb128 0x5
 7438 01e5 27       		.uleb128 0x27
 7439 01e6 19       		.uleb128 0x19
 7440 01e7 11       		.uleb128 0x11
 7441 01e8 01       		.uleb128 0x1
 7442 01e9 12       		.uleb128 0x12
 7443 01ea 06       		.uleb128 0x6
 7444 01eb 40       		.uleb128 0x40
 7445 01ec 18       		.uleb128 0x18
 7446 01ed 9642     		.uleb128 0x2116
 7447 01ef 19       		.uleb128 0x19
 7448 01f0 01       		.uleb128 0x1
 7449 01f1 13       		.uleb128 0x13
 7450 01f2 00       		.byte	0
 7451 01f3 00       		.byte	0
 7452 01f4 28       		.uleb128 0x28
 7453 01f5 05       		.uleb128 0x5
 7454 01f6 00       		.byte	0
 7455 01f7 03       		.uleb128 0x3
 7456 01f8 0E       		.uleb128 0xe
 7457 01f9 3A       		.uleb128 0x3a
 7458 01fa 0B       		.uleb128 0xb
 7459 01fb 3B       		.uleb128 0x3b
 7460 01fc 05       		.uleb128 0x5
 7461 01fd 49       		.uleb128 0x49
 7462 01fe 13       		.uleb128 0x13
 7463 01ff 02       		.uleb128 0x2
 7464 0200 18       		.uleb128 0x18
 7465 0201 00       		.byte	0
 7466 0202 00       		.byte	0
 7467 0203 29       		.uleb128 0x29
 7468 0204 0B       		.uleb128 0xb
 7469 0205 01       		.byte	0x1
 7470 0206 11       		.uleb128 0x11
 7471 0207 01       		.uleb128 0x1
 7472 0208 12       		.uleb128 0x12
 7473 0209 06       		.uleb128 0x6
 7474 020a 00       		.byte	0
 7475 020b 00       		.byte	0
 7476 020c 2A       		.uleb128 0x2a
 7477 020d 34       		.uleb128 0x34
 7478 020e 00       		.byte	0
 7479 020f 03       		.uleb128 0x3
 7480 0210 0E       		.uleb128 0xe
 7481 0211 3A       		.uleb128 0x3a
 7482 0212 0B       		.uleb128 0xb
 7483 0213 3B       		.uleb128 0x3b
 7484 0214 05       		.uleb128 0x5
 7485 0215 49       		.uleb128 0x49
 7486 0216 13       		.uleb128 0x13
 7487 0217 02       		.uleb128 0x2
 7488 0218 18       		.uleb128 0x18
 7489 0219 00       		.byte	0
 7490 021a 00       		.byte	0
 7491 021b 2B       		.uleb128 0x2b
 7492 021c 2E       		.uleb128 0x2e
ARM GAS  /tmp/cctghmAI.s 			page 133


 7493 021d 01       		.byte	0x1
 7494 021e 3F       		.uleb128 0x3f
 7495 021f 19       		.uleb128 0x19
 7496 0220 03       		.uleb128 0x3
 7497 0221 0E       		.uleb128 0xe
 7498 0222 3A       		.uleb128 0x3a
 7499 0223 0B       		.uleb128 0xb
 7500 0224 3B       		.uleb128 0x3b
 7501 0225 05       		.uleb128 0x5
 7502 0226 27       		.uleb128 0x27
 7503 0227 19       		.uleb128 0x19
 7504 0228 49       		.uleb128 0x49
 7505 0229 13       		.uleb128 0x13
 7506 022a 11       		.uleb128 0x11
 7507 022b 01       		.uleb128 0x1
 7508 022c 12       		.uleb128 0x12
 7509 022d 06       		.uleb128 0x6
 7510 022e 40       		.uleb128 0x40
 7511 022f 18       		.uleb128 0x18
 7512 0230 9642     		.uleb128 0x2116
 7513 0232 19       		.uleb128 0x19
 7514 0233 01       		.uleb128 0x1
 7515 0234 13       		.uleb128 0x13
 7516 0235 00       		.byte	0
 7517 0236 00       		.byte	0
 7518 0237 2C       		.uleb128 0x2c
 7519 0238 05       		.uleb128 0x5
 7520 0239 00       		.byte	0
 7521 023a 03       		.uleb128 0x3
 7522 023b 08       		.uleb128 0x8
 7523 023c 3A       		.uleb128 0x3a
 7524 023d 0B       		.uleb128 0xb
 7525 023e 3B       		.uleb128 0x3b
 7526 023f 05       		.uleb128 0x5
 7527 0240 49       		.uleb128 0x49
 7528 0241 13       		.uleb128 0x13
 7529 0242 02       		.uleb128 0x2
 7530 0243 18       		.uleb128 0x18
 7531 0244 00       		.byte	0
 7532 0245 00       		.byte	0
 7533 0246 2D       		.uleb128 0x2d
 7534 0247 34       		.uleb128 0x34
 7535 0248 00       		.byte	0
 7536 0249 03       		.uleb128 0x3
 7537 024a 08       		.uleb128 0x8
 7538 024b 3A       		.uleb128 0x3a
 7539 024c 0B       		.uleb128 0xb
 7540 024d 3B       		.uleb128 0x3b
 7541 024e 05       		.uleb128 0x5
 7542 024f 49       		.uleb128 0x49
 7543 0250 13       		.uleb128 0x13
 7544 0251 02       		.uleb128 0x2
 7545 0252 18       		.uleb128 0x18
 7546 0253 00       		.byte	0
 7547 0254 00       		.byte	0
 7548 0255 2E       		.uleb128 0x2e
 7549 0256 34       		.uleb128 0x34
ARM GAS  /tmp/cctghmAI.s 			page 134


 7550 0257 00       		.byte	0
 7551 0258 03       		.uleb128 0x3
 7552 0259 0E       		.uleb128 0xe
 7553 025a 49       		.uleb128 0x49
 7554 025b 13       		.uleb128 0x13
 7555 025c 34       		.uleb128 0x34
 7556 025d 19       		.uleb128 0x19
 7557 025e 02       		.uleb128 0x2
 7558 025f 18       		.uleb128 0x18
 7559 0260 00       		.byte	0
 7560 0261 00       		.byte	0
 7561 0262 2F       		.uleb128 0x2f
 7562 0263 2E       		.uleb128 0x2e
 7563 0264 01       		.byte	0x1
 7564 0265 3F       		.uleb128 0x3f
 7565 0266 19       		.uleb128 0x19
 7566 0267 03       		.uleb128 0x3
 7567 0268 0E       		.uleb128 0xe
 7568 0269 3A       		.uleb128 0x3a
 7569 026a 0B       		.uleb128 0xb
 7570 026b 3B       		.uleb128 0x3b
 7571 026c 0B       		.uleb128 0xb
 7572 026d 27       		.uleb128 0x27
 7573 026e 19       		.uleb128 0x19
 7574 026f 11       		.uleb128 0x11
 7575 0270 01       		.uleb128 0x1
 7576 0271 12       		.uleb128 0x12
 7577 0272 06       		.uleb128 0x6
 7578 0273 40       		.uleb128 0x40
 7579 0274 18       		.uleb128 0x18
 7580 0275 9642     		.uleb128 0x2116
 7581 0277 19       		.uleb128 0x19
 7582 0278 01       		.uleb128 0x1
 7583 0279 13       		.uleb128 0x13
 7584 027a 00       		.byte	0
 7585 027b 00       		.byte	0
 7586 027c 30       		.uleb128 0x30
 7587 027d 05       		.uleb128 0x5
 7588 027e 00       		.byte	0
 7589 027f 03       		.uleb128 0x3
 7590 0280 0E       		.uleb128 0xe
 7591 0281 3A       		.uleb128 0x3a
 7592 0282 0B       		.uleb128 0xb
 7593 0283 3B       		.uleb128 0x3b
 7594 0284 0B       		.uleb128 0xb
 7595 0285 49       		.uleb128 0x49
 7596 0286 13       		.uleb128 0x13
 7597 0287 02       		.uleb128 0x2
 7598 0288 18       		.uleb128 0x18
 7599 0289 00       		.byte	0
 7600 028a 00       		.byte	0
 7601 028b 31       		.uleb128 0x31
 7602 028c 2E       		.uleb128 0x2e
 7603 028d 01       		.byte	0x1
 7604 028e 3F       		.uleb128 0x3f
 7605 028f 19       		.uleb128 0x19
 7606 0290 03       		.uleb128 0x3
ARM GAS  /tmp/cctghmAI.s 			page 135


 7607 0291 0E       		.uleb128 0xe
 7608 0292 3A       		.uleb128 0x3a
 7609 0293 0B       		.uleb128 0xb
 7610 0294 3B       		.uleb128 0x3b
 7611 0295 0B       		.uleb128 0xb
 7612 0296 27       		.uleb128 0x27
 7613 0297 19       		.uleb128 0x19
 7614 0298 49       		.uleb128 0x49
 7615 0299 13       		.uleb128 0x13
 7616 029a 11       		.uleb128 0x11
 7617 029b 01       		.uleb128 0x1
 7618 029c 12       		.uleb128 0x12
 7619 029d 06       		.uleb128 0x6
 7620 029e 40       		.uleb128 0x40
 7621 029f 18       		.uleb128 0x18
 7622 02a0 9642     		.uleb128 0x2116
 7623 02a2 19       		.uleb128 0x19
 7624 02a3 01       		.uleb128 0x1
 7625 02a4 13       		.uleb128 0x13
 7626 02a5 00       		.byte	0
 7627 02a6 00       		.byte	0
 7628 02a7 32       		.uleb128 0x32
 7629 02a8 34       		.uleb128 0x34
 7630 02a9 00       		.byte	0
 7631 02aa 03       		.uleb128 0x3
 7632 02ab 08       		.uleb128 0x8
 7633 02ac 3A       		.uleb128 0x3a
 7634 02ad 0B       		.uleb128 0xb
 7635 02ae 3B       		.uleb128 0x3b
 7636 02af 0B       		.uleb128 0xb
 7637 02b0 49       		.uleb128 0x49
 7638 02b1 13       		.uleb128 0x13
 7639 02b2 02       		.uleb128 0x2
 7640 02b3 18       		.uleb128 0x18
 7641 02b4 00       		.byte	0
 7642 02b5 00       		.byte	0
 7643 02b6 33       		.uleb128 0x33
 7644 02b7 05       		.uleb128 0x5
 7645 02b8 00       		.byte	0
 7646 02b9 03       		.uleb128 0x3
 7647 02ba 08       		.uleb128 0x8
 7648 02bb 3A       		.uleb128 0x3a
 7649 02bc 0B       		.uleb128 0xb
 7650 02bd 3B       		.uleb128 0x3b
 7651 02be 0B       		.uleb128 0xb
 7652 02bf 49       		.uleb128 0x49
 7653 02c0 13       		.uleb128 0x13
 7654 02c1 02       		.uleb128 0x2
 7655 02c2 18       		.uleb128 0x18
 7656 02c3 00       		.byte	0
 7657 02c4 00       		.byte	0
 7658 02c5 34       		.uleb128 0x34
 7659 02c6 2E       		.uleb128 0x2e
 7660 02c7 01       		.byte	0x1
 7661 02c8 03       		.uleb128 0x3
 7662 02c9 0E       		.uleb128 0xe
 7663 02ca 3A       		.uleb128 0x3a
ARM GAS  /tmp/cctghmAI.s 			page 136


 7664 02cb 0B       		.uleb128 0xb
 7665 02cc 3B       		.uleb128 0x3b
 7666 02cd 05       		.uleb128 0x5
 7667 02ce 27       		.uleb128 0x27
 7668 02cf 19       		.uleb128 0x19
 7669 02d0 11       		.uleb128 0x11
 7670 02d1 01       		.uleb128 0x1
 7671 02d2 12       		.uleb128 0x12
 7672 02d3 06       		.uleb128 0x6
 7673 02d4 40       		.uleb128 0x40
 7674 02d5 18       		.uleb128 0x18
 7675 02d6 9642     		.uleb128 0x2116
 7676 02d8 19       		.uleb128 0x19
 7677 02d9 01       		.uleb128 0x1
 7678 02da 13       		.uleb128 0x13
 7679 02db 00       		.byte	0
 7680 02dc 00       		.byte	0
 7681 02dd 35       		.uleb128 0x35
 7682 02de 2E       		.uleb128 0x2e
 7683 02df 01       		.byte	0x1
 7684 02e0 03       		.uleb128 0x3
 7685 02e1 0E       		.uleb128 0xe
 7686 02e2 3A       		.uleb128 0x3a
 7687 02e3 0B       		.uleb128 0xb
 7688 02e4 3B       		.uleb128 0x3b
 7689 02e5 05       		.uleb128 0x5
 7690 02e6 27       		.uleb128 0x27
 7691 02e7 19       		.uleb128 0x19
 7692 02e8 49       		.uleb128 0x49
 7693 02e9 13       		.uleb128 0x13
 7694 02ea 11       		.uleb128 0x11
 7695 02eb 01       		.uleb128 0x1
 7696 02ec 12       		.uleb128 0x12
 7697 02ed 06       		.uleb128 0x6
 7698 02ee 40       		.uleb128 0x40
 7699 02ef 18       		.uleb128 0x18
 7700 02f0 9642     		.uleb128 0x2116
 7701 02f2 19       		.uleb128 0x19
 7702 02f3 01       		.uleb128 0x1
 7703 02f4 13       		.uleb128 0x13
 7704 02f5 00       		.byte	0
 7705 02f6 00       		.byte	0
 7706 02f7 36       		.uleb128 0x36
 7707 02f8 2E       		.uleb128 0x2e
 7708 02f9 00       		.byte	0
 7709 02fa 03       		.uleb128 0x3
 7710 02fb 0E       		.uleb128 0xe
 7711 02fc 3A       		.uleb128 0x3a
 7712 02fd 0B       		.uleb128 0xb
 7713 02fe 3B       		.uleb128 0x3b
 7714 02ff 05       		.uleb128 0x5
 7715 0300 27       		.uleb128 0x27
 7716 0301 19       		.uleb128 0x19
 7717 0302 49       		.uleb128 0x49
 7718 0303 13       		.uleb128 0x13
 7719 0304 11       		.uleb128 0x11
 7720 0305 01       		.uleb128 0x1
ARM GAS  /tmp/cctghmAI.s 			page 137


 7721 0306 12       		.uleb128 0x12
 7722 0307 06       		.uleb128 0x6
 7723 0308 40       		.uleb128 0x40
 7724 0309 18       		.uleb128 0x18
 7725 030a 9642     		.uleb128 0x2116
 7726 030c 19       		.uleb128 0x19
 7727 030d 00       		.byte	0
 7728 030e 00       		.byte	0
 7729 030f 37       		.uleb128 0x37
 7730 0310 2E       		.uleb128 0x2e
 7731 0311 00       		.byte	0
 7732 0312 03       		.uleb128 0x3
 7733 0313 0E       		.uleb128 0xe
 7734 0314 3A       		.uleb128 0x3a
 7735 0315 0B       		.uleb128 0xb
 7736 0316 3B       		.uleb128 0x3b
 7737 0317 05       		.uleb128 0x5
 7738 0318 27       		.uleb128 0x27
 7739 0319 19       		.uleb128 0x19
 7740 031a 11       		.uleb128 0x11
 7741 031b 01       		.uleb128 0x1
 7742 031c 12       		.uleb128 0x12
 7743 031d 06       		.uleb128 0x6
 7744 031e 40       		.uleb128 0x40
 7745 031f 18       		.uleb128 0x18
 7746 0320 9642     		.uleb128 0x2116
 7747 0322 19       		.uleb128 0x19
 7748 0323 00       		.byte	0
 7749 0324 00       		.byte	0
 7750 0325 38       		.uleb128 0x38
 7751 0326 2E       		.uleb128 0x2e
 7752 0327 00       		.byte	0
 7753 0328 03       		.uleb128 0x3
 7754 0329 0E       		.uleb128 0xe
 7755 032a 3A       		.uleb128 0x3a
 7756 032b 0B       		.uleb128 0xb
 7757 032c 3B       		.uleb128 0x3b
 7758 032d 0B       		.uleb128 0xb
 7759 032e 27       		.uleb128 0x27
 7760 032f 19       		.uleb128 0x19
 7761 0330 49       		.uleb128 0x49
 7762 0331 13       		.uleb128 0x13
 7763 0332 11       		.uleb128 0x11
 7764 0333 01       		.uleb128 0x1
 7765 0334 12       		.uleb128 0x12
 7766 0335 06       		.uleb128 0x6
 7767 0336 40       		.uleb128 0x40
 7768 0337 18       		.uleb128 0x18
 7769 0338 9642     		.uleb128 0x2116
 7770 033a 19       		.uleb128 0x19
 7771 033b 00       		.byte	0
 7772 033c 00       		.byte	0
 7773 033d 39       		.uleb128 0x39
 7774 033e 2E       		.uleb128 0x2e
 7775 033f 01       		.byte	0x1
 7776 0340 03       		.uleb128 0x3
 7777 0341 0E       		.uleb128 0xe
ARM GAS  /tmp/cctghmAI.s 			page 138


 7778 0342 3A       		.uleb128 0x3a
 7779 0343 0B       		.uleb128 0xb
 7780 0344 3B       		.uleb128 0x3b
 7781 0345 05       		.uleb128 0x5
 7782 0346 27       		.uleb128 0x27
 7783 0347 19       		.uleb128 0x19
 7784 0348 11       		.uleb128 0x11
 7785 0349 01       		.uleb128 0x1
 7786 034a 12       		.uleb128 0x12
 7787 034b 06       		.uleb128 0x6
 7788 034c 40       		.uleb128 0x40
 7789 034d 18       		.uleb128 0x18
 7790 034e 9742     		.uleb128 0x2117
 7791 0350 19       		.uleb128 0x19
 7792 0351 01       		.uleb128 0x1
 7793 0352 13       		.uleb128 0x13
 7794 0353 00       		.byte	0
 7795 0354 00       		.byte	0
 7796 0355 3A       		.uleb128 0x3a
 7797 0356 2E       		.uleb128 0x2e
 7798 0357 00       		.byte	0
 7799 0358 03       		.uleb128 0x3
 7800 0359 0E       		.uleb128 0xe
 7801 035a 3A       		.uleb128 0x3a
 7802 035b 0B       		.uleb128 0xb
 7803 035c 3B       		.uleb128 0x3b
 7804 035d 0B       		.uleb128 0xb
 7805 035e 27       		.uleb128 0x27
 7806 035f 19       		.uleb128 0x19
 7807 0360 49       		.uleb128 0x49
 7808 0361 13       		.uleb128 0x13
 7809 0362 11       		.uleb128 0x11
 7810 0363 01       		.uleb128 0x1
 7811 0364 12       		.uleb128 0x12
 7812 0365 06       		.uleb128 0x6
 7813 0366 40       		.uleb128 0x40
 7814 0367 18       		.uleb128 0x18
 7815 0368 9742     		.uleb128 0x2117
 7816 036a 19       		.uleb128 0x19
 7817 036b 00       		.byte	0
 7818 036c 00       		.byte	0
 7819 036d 3B       		.uleb128 0x3b
 7820 036e 1D       		.uleb128 0x1d
 7821 036f 00       		.byte	0
 7822 0370 31       		.uleb128 0x31
 7823 0371 13       		.uleb128 0x13
 7824 0372 11       		.uleb128 0x11
 7825 0373 01       		.uleb128 0x1
 7826 0374 12       		.uleb128 0x12
 7827 0375 06       		.uleb128 0x6
 7828 0376 58       		.uleb128 0x58
 7829 0377 0B       		.uleb128 0xb
 7830 0378 59       		.uleb128 0x59
 7831 0379 05       		.uleb128 0x5
 7832 037a 00       		.byte	0
 7833 037b 00       		.byte	0
 7834 037c 3C       		.uleb128 0x3c
ARM GAS  /tmp/cctghmAI.s 			page 139


 7835 037d 2E       		.uleb128 0x2e
 7836 037e 00       		.byte	0
 7837 037f 03       		.uleb128 0x3
 7838 0380 0E       		.uleb128 0xe
 7839 0381 3A       		.uleb128 0x3a
 7840 0382 0B       		.uleb128 0xb
 7841 0383 3B       		.uleb128 0x3b
 7842 0384 05       		.uleb128 0x5
 7843 0385 27       		.uleb128 0x27
 7844 0386 19       		.uleb128 0x19
 7845 0387 20       		.uleb128 0x20
 7846 0388 0B       		.uleb128 0xb
 7847 0389 00       		.byte	0
 7848 038a 00       		.byte	0
 7849 038b 00       		.byte	0
 7850              		.section	.debug_aranges,"",%progbits
 7851 0000 44010000 		.4byte	0x144
 7852 0004 0200     		.2byte	0x2
 7853 0006 00000000 		.4byte	.Ldebug_info0
 7854 000a 04       		.byte	0x4
 7855 000b 00       		.byte	0
 7856 000c 0000     		.2byte	0
 7857 000e 0000     		.2byte	0
 7858 0010 00000000 		.4byte	.LFB38
 7859 0014 06000000 		.4byte	.LFE38-.LFB38
 7860 0018 00000000 		.4byte	.LFB39
 7861 001c 06000000 		.4byte	.LFE39-.LFB39
 7862 0020 00000000 		.4byte	.LFB46
 7863 0024 10000000 		.4byte	.LFE46-.LFB46
 7864 0028 00000000 		.4byte	.LFB55
 7865 002c 0C000000 		.4byte	.LFE55-.LFB55
 7866 0030 00000000 		.4byte	.LFB60
 7867 0034 16000000 		.4byte	.LFE60-.LFB60
 7868 0038 00000000 		.4byte	.LFB77
 7869 003c 0E000000 		.4byte	.LFE77-.LFB77
 7870 0040 00000000 		.4byte	.LFB78
 7871 0044 38000000 		.4byte	.LFE78-.LFB78
 7872 0048 00000000 		.4byte	.LFB85
 7873 004c 0C000000 		.4byte	.LFE85-.LFB85
 7874 0050 00000000 		.4byte	.LFB105
 7875 0054 14000000 		.4byte	.LFE105-.LFB105
 7876 0058 00000000 		.4byte	.LFB156
 7877 005c 0A000000 		.4byte	.LFE156-.LFB156
 7878 0060 00000000 		.4byte	.LFB157
 7879 0064 0A000000 		.4byte	.LFE157-.LFB157
 7880 0068 00000000 		.4byte	.LFB164
 7881 006c 0C000000 		.4byte	.LFE164-.LFB164
 7882 0070 00000000 		.4byte	.LFB172
 7883 0074 14000000 		.4byte	.LFE172-.LFB172
 7884 0078 00000000 		.4byte	.LFB173
 7885 007c 26000000 		.4byte	.LFE173-.LFB173
 7886 0080 00000000 		.4byte	.LFB174
 7887 0084 1A000000 		.4byte	.LFE174-.LFB174
 7888 0088 00000000 		.4byte	.LFB175
 7889 008c 1A000000 		.4byte	.LFE175-.LFB175
 7890 0090 00000000 		.4byte	.LFB182
 7891 0094 88000000 		.4byte	.LFE182-.LFB182
ARM GAS  /tmp/cctghmAI.s 			page 140


 7892 0098 00000000 		.4byte	.LFB183
 7893 009c 40000000 		.4byte	.LFE183-.LFB183
 7894 00a0 00000000 		.4byte	.LFB184
 7895 00a4 40000000 		.4byte	.LFE184-.LFB184
 7896 00a8 00000000 		.4byte	.LFB185
 7897 00ac 9C000000 		.4byte	.LFE185-.LFB185
 7898 00b0 00000000 		.4byte	.LFB186
 7899 00b4 32000000 		.4byte	.LFE186-.LFB186
 7900 00b8 00000000 		.4byte	.LFB187
 7901 00bc 70000000 		.4byte	.LFE187-.LFB187
 7902 00c0 00000000 		.4byte	.LFB188
 7903 00c4 1C000000 		.4byte	.LFE188-.LFB188
 7904 00c8 00000000 		.4byte	.LFB189
 7905 00cc 68000000 		.4byte	.LFE189-.LFB189
 7906 00d0 00000000 		.4byte	.LFB190
 7907 00d4 6E000000 		.4byte	.LFE190-.LFB190
 7908 00d8 00000000 		.4byte	.LFB191
 7909 00dc 5C010000 		.4byte	.LFE191-.LFB191
 7910 00e0 00000000 		.4byte	.LFB192
 7911 00e4 88000000 		.4byte	.LFE192-.LFB192
 7912 00e8 00000000 		.4byte	.LFB193
 7913 00ec 42000000 		.4byte	.LFE193-.LFB193
 7914 00f0 00000000 		.4byte	.LFB194
 7915 00f4 4C000000 		.4byte	.LFE194-.LFB194
 7916 00f8 00000000 		.4byte	.LFB195
 7917 00fc 78000000 		.4byte	.LFE195-.LFB195
 7918 0100 00000000 		.4byte	.LFB196
 7919 0104 32000000 		.4byte	.LFE196-.LFB196
 7920 0108 00000000 		.4byte	.LFB197
 7921 010c 70000000 		.4byte	.LFE197-.LFB197
 7922 0110 00000000 		.4byte	.LFB198
 7923 0114 22000000 		.4byte	.LFE198-.LFB198
 7924 0118 00000000 		.4byte	.LFB199
 7925 011c 8C000000 		.4byte	.LFE199-.LFB199
 7926 0120 00000000 		.4byte	.LFB200
 7927 0124 82000000 		.4byte	.LFE200-.LFB200
 7928 0128 00000000 		.4byte	.LFB201
 7929 012c 64010000 		.4byte	.LFE201-.LFB201
 7930 0130 00000000 		.4byte	.LFB202
 7931 0134 94000000 		.4byte	.LFE202-.LFB202
 7932 0138 00000000 		.4byte	.LFB203
 7933 013c 3E000000 		.4byte	.LFE203-.LFB203
 7934 0140 00000000 		.4byte	0
 7935 0144 00000000 		.4byte	0
 7936              		.section	.debug_ranges,"",%progbits
 7937              	.Ldebug_ranges0:
 7938 0000 00000000 		.4byte	.LFB38
 7939 0004 06000000 		.4byte	.LFE38
 7940 0008 00000000 		.4byte	.LFB39
 7941 000c 06000000 		.4byte	.LFE39
 7942 0010 00000000 		.4byte	.LFB46
 7943 0014 10000000 		.4byte	.LFE46
 7944 0018 00000000 		.4byte	.LFB55
 7945 001c 0C000000 		.4byte	.LFE55
 7946 0020 00000000 		.4byte	.LFB60
 7947 0024 16000000 		.4byte	.LFE60
 7948 0028 00000000 		.4byte	.LFB77
ARM GAS  /tmp/cctghmAI.s 			page 141


 7949 002c 0E000000 		.4byte	.LFE77
 7950 0030 00000000 		.4byte	.LFB78
 7951 0034 38000000 		.4byte	.LFE78
 7952 0038 00000000 		.4byte	.LFB85
 7953 003c 0C000000 		.4byte	.LFE85
 7954 0040 00000000 		.4byte	.LFB105
 7955 0044 14000000 		.4byte	.LFE105
 7956 0048 00000000 		.4byte	.LFB156
 7957 004c 0A000000 		.4byte	.LFE156
 7958 0050 00000000 		.4byte	.LFB157
 7959 0054 0A000000 		.4byte	.LFE157
 7960 0058 00000000 		.4byte	.LFB164
 7961 005c 0C000000 		.4byte	.LFE164
 7962 0060 00000000 		.4byte	.LFB172
 7963 0064 14000000 		.4byte	.LFE172
 7964 0068 00000000 		.4byte	.LFB173
 7965 006c 26000000 		.4byte	.LFE173
 7966 0070 00000000 		.4byte	.LFB174
 7967 0074 1A000000 		.4byte	.LFE174
 7968 0078 00000000 		.4byte	.LFB175
 7969 007c 1A000000 		.4byte	.LFE175
 7970 0080 00000000 		.4byte	.LFB182
 7971 0084 88000000 		.4byte	.LFE182
 7972 0088 00000000 		.4byte	.LFB183
 7973 008c 40000000 		.4byte	.LFE183
 7974 0090 00000000 		.4byte	.LFB184
 7975 0094 40000000 		.4byte	.LFE184
 7976 0098 00000000 		.4byte	.LFB185
 7977 009c 9C000000 		.4byte	.LFE185
 7978 00a0 00000000 		.4byte	.LFB186
 7979 00a4 32000000 		.4byte	.LFE186
 7980 00a8 00000000 		.4byte	.LFB187
 7981 00ac 70000000 		.4byte	.LFE187
 7982 00b0 00000000 		.4byte	.LFB188
 7983 00b4 1C000000 		.4byte	.LFE188
 7984 00b8 00000000 		.4byte	.LFB189
 7985 00bc 68000000 		.4byte	.LFE189
 7986 00c0 00000000 		.4byte	.LFB190
 7987 00c4 6E000000 		.4byte	.LFE190
 7988 00c8 00000000 		.4byte	.LFB191
 7989 00cc 5C010000 		.4byte	.LFE191
 7990 00d0 00000000 		.4byte	.LFB192
 7991 00d4 88000000 		.4byte	.LFE192
 7992 00d8 00000000 		.4byte	.LFB193
 7993 00dc 42000000 		.4byte	.LFE193
 7994 00e0 00000000 		.4byte	.LFB194
 7995 00e4 4C000000 		.4byte	.LFE194
 7996 00e8 00000000 		.4byte	.LFB195
 7997 00ec 78000000 		.4byte	.LFE195
 7998 00f0 00000000 		.4byte	.LFB196
 7999 00f4 32000000 		.4byte	.LFE196
 8000 00f8 00000000 		.4byte	.LFB197
 8001 00fc 70000000 		.4byte	.LFE197
 8002 0100 00000000 		.4byte	.LFB198
 8003 0104 22000000 		.4byte	.LFE198
 8004 0108 00000000 		.4byte	.LFB199
 8005 010c 8C000000 		.4byte	.LFE199
ARM GAS  /tmp/cctghmAI.s 			page 142


 8006 0110 00000000 		.4byte	.LFB200
 8007 0114 82000000 		.4byte	.LFE200
 8008 0118 00000000 		.4byte	.LFB201
 8009 011c 64010000 		.4byte	.LFE201
 8010 0120 00000000 		.4byte	.LFB202
 8011 0124 94000000 		.4byte	.LFE202
 8012 0128 00000000 		.4byte	.LFB203
 8013 012c 3E000000 		.4byte	.LFE203
 8014 0130 00000000 		.4byte	0
 8015 0134 00000000 		.4byte	0
 8016              		.section	.debug_line,"",%progbits
 8017              	.Ldebug_line0:
 8018 0000 2A090000 		.section	.debug_str,"MS",%progbits,1
 8018      02004804 
 8018      00000201 
 8018      FB0E0D00 
 8018      01010101 
 8019              	.LASF300:
 8020 0000 73746D33 		.ascii	"stm32_dma_stream_t\000"
 8020      325F646D 
 8020      615F7374 
 8020      7265616D 
 8020      5F7400
 8021              	.LASF4:
 8022 0013 73697A65 		.ascii	"size_t\000"
 8022      5F7400
 8023              	.LASF22:
 8024 001a 73697A65 		.ascii	"sizetype\000"
 8024      74797065 
 8024      00
 8025              	.LASF125:
 8026 0023 5F5F6C6F 		.ascii	"__locale_t\000"
 8026      63616C65 
 8026      5F7400
 8027              	.LASF390:
 8028 002e 63685468 		.ascii	"chThdQueueObjectInit\000"
 8028      64517565 
 8028      75654F62 
 8028      6A656374 
 8028      496E6974 
 8029              	.LASF404:
 8030 0043 2F686F6D 		.ascii	"/home/felix/esho/Ultrasound/\000"
 8030      652F6665 
 8030      6C69782F 
 8030      6573686F 
 8030      2F556C74 
 8031              	.LASF260:
 8032 0060 63665F6F 		.ascii	"cf_off_name\000"
 8032      66665F6E 
 8032      616D6500 
 8033              	.LASF141:
 8034 006c 73797374 		.ascii	"systime_t\000"
 8034      696D655F 
 8034      7400
 8035              	.LASF93:
 8036 0076 5F5F7366 		.ascii	"__sf\000"
 8036      00
ARM GAS  /tmp/cctghmAI.s 			page 143


 8037              	.LASF249:
 8038 007b 63685F69 		.ascii	"ch_identifier\000"
 8038      64656E74 
 8038      69666965 
 8038      7200
 8039              	.LASF147:
 8040 0089 705F6374 		.ascii	"p_ctx\000"
 8040      7800
 8041              	.LASF60:
 8042 008f 5F726561 		.ascii	"_read\000"
 8042      6400
 8043              	.LASF136:
 8044 0095 74707269 		.ascii	"tprio_t\000"
 8044      6F5F7400 
 8045              	.LASF268:
 8046 009d 63685F64 		.ascii	"ch_debug\000"
 8046      65627567 
 8046      00
 8047              	.LASF156:
 8048 00a6 705F6D73 		.ascii	"p_msgqueue\000"
 8048      67717565 
 8048      756500
 8049              	.LASF61:
 8050 00b1 5F777269 		.ascii	"_write\000"
 8050      746500
 8051              	.LASF171:
 8052 00b8 725F6374 		.ascii	"r_ctx\000"
 8052      7800
 8053              	.LASF130:
 8054 00be 696E7433 		.ascii	"int32_t\000"
 8054      325F7400 
 8055              	.LASF350:
 8056 00c6 77726974 		.ascii	"writet\000"
 8056      657400
 8057              	.LASF104:
 8058 00cd 5F617363 		.ascii	"_asctime_buf\000"
 8058      74696D65 
 8058      5F627566 
 8058      00
 8059              	.LASF87:
 8060 00da 5F637674 		.ascii	"_cvtlen\000"
 8060      6C656E00 
 8061              	.LASF257:
 8062 00e2 63665F6F 		.ascii	"cf_off_ctx\000"
 8062      66665F63 
 8062      747800
 8063              	.LASF175:
 8064 00ed 76746675 		.ascii	"vtfunc_t\000"
 8064      6E635F74 
 8064      00
 8065              	.LASF208:
 8066 00f6 52544F52 		.ascii	"RTOR\000"
 8066      00
 8067              	.LASF364:
 8068 00fb 5F5F6675 		.ascii	"__func__\000"
 8068      6E635F5F 
 8068      00
ARM GAS  /tmp/cctghmAI.s 			page 144


 8069              	.LASF184:
 8070 0104 63685F76 		.ascii	"ch_virtual_timers_list\000"
 8070      69727475 
 8070      616C5F74 
 8070      696D6572 
 8070      735F6C69 
 8071              	.LASF123:
 8072 011b 5F756E75 		.ascii	"_unused\000"
 8072      73656400 
 8073              	.LASF34:
 8074 0123 5F5F746D 		.ascii	"__tm\000"
 8074      00
 8075              	.LASF119:
 8076 0128 5F776373 		.ascii	"_wcsrtombs_state\000"
 8076      72746F6D 
 8076      62735F73 
 8076      74617465 
 8076      00
 8077              	.LASF65:
 8078 0139 5F6E6275 		.ascii	"_nbuf\000"
 8078      6600
 8079              	.LASF35:
 8080 013f 5F5F746D 		.ascii	"__tm_sec\000"
 8080      5F736563 
 8080      00
 8081              	.LASF112:
 8082 0148 5F6C3634 		.ascii	"_l64a_buf\000"
 8082      615F6275 
 8082      6600
 8083              	.LASF275:
 8084 0152 656C5F66 		.ascii	"el_flags\000"
 8084      6C616773 
 8084      00
 8085              	.LASF340:
 8086 015b 73746174 		.ascii	"state\000"
 8086      6500
 8087              	.LASF69:
 8088 0161 5F6C6F63 		.ascii	"_lock\000"
 8088      6B00
 8089              	.LASF190:
 8090 0167 6C6F636B 		.ascii	"lock_cnt\000"
 8090      5F636E74 
 8090      00
 8091              	.LASF348:
 8092 0170 70757474 		.ascii	"putt\000"
 8092      00
 8093              	.LASF253:
 8094 0175 63685F70 		.ascii	"ch_ptrsize\000"
 8094      74727369 
 8094      7A6500
 8095              	.LASF199:
 8096 0180 434E4454 		.ascii	"CNDTR\000"
 8096      5200
 8097              	.LASF100:
 8098 0186 5F6D756C 		.ascii	"_mult\000"
 8098      7400
 8099              	.LASF222:
ARM GAS  /tmp/cctghmAI.s 			page 145


 8100 018c 444D4152 		.ascii	"DMAR\000"
 8100      00
 8101              	.LASF405:
 8102 0191 6F73616C 		.ascii	"osalThreadEnqueueTimeoutS\000"
 8102      54687265 
 8102      6164456E 
 8102      71756575 
 8102      6554696D 
 8103              	.LASF388:
 8104 01ab 6F73616C 		.ascii	"osalSysUnlock\000"
 8104      53797355 
 8104      6E6C6F63 
 8104      6B00
 8105              	.LASF327:
 8106 01b9 73746D33 		.ascii	"stm32_gpio_setup_t\000"
 8106      325F6770 
 8106      696F5F73 
 8106      65747570 
 8106      5F7400
 8107              	.LASF247:
 8108 01cc 6D5F6F77 		.ascii	"m_owner\000"
 8108      6E657200 
 8109              	.LASF182:
 8110 01d4 76745F70 		.ascii	"vt_par\000"
 8110      617200
 8111              	.LASF153:
 8112 01db 705F666C 		.ascii	"p_flags\000"
 8112      61677300 
 8113              	.LASF20:
 8114 01e3 5F5F7763 		.ascii	"__wch\000"
 8114      6800
 8115              	.LASF236:
 8116 01e9 65786974 		.ascii	"exitcode\000"
 8116      636F6465 
 8116      00
 8117              	.LASF5:
 8118 01f2 5F5F7569 		.ascii	"__uint8_t\000"
 8118      6E74385F 
 8118      7400
 8119              	.LASF286:
 8120 01fc 715F746F 		.ascii	"q_top\000"
 8120      7000
 8121              	.LASF57:
 8122 0202 5F66696C 		.ascii	"_file\000"
 8122      6500
 8123              	.LASF255:
 8124 0208 63685F74 		.ascii	"ch_threadsize\000"
 8124      68726561 
 8124      6473697A 
 8124      6500
 8125              	.LASF44:
 8126 0216 5F6F6E5F 		.ascii	"_on_exit_args\000"
 8126      65786974 
 8126      5F617267 
 8126      7300
 8127              	.LASF351:
 8128 0224 72656164 		.ascii	"readt\000"
ARM GAS  /tmp/cctghmAI.s 			page 146


 8128      7400
 8129              	.LASF285:
 8130 022a 715F6275 		.ascii	"q_buffer\000"
 8130      66666572 
 8130      00
 8131              	.LASF289:
 8132 0233 715F6E6F 		.ascii	"q_notify\000"
 8132      74696679 
 8132      00
 8133              	.LASF148:
 8134 023c 705F6E65 		.ascii	"p_newer\000"
 8134      77657200 
 8135              	.LASF115:
 8136 0244 5F6D6272 		.ascii	"_mbrlen_state\000"
 8136      6C656E5F 
 8136      73746174 
 8136      6500
 8137              	.LASF11:
 8138 0252 6C6F6E67 		.ascii	"long int\000"
 8138      20696E74 
 8138      00
 8139              	.LASF144:
 8140 025b 705F6E65 		.ascii	"p_next\000"
 8140      787400
 8141              	.LASF398:
 8142 0262 706F7274 		.ascii	"port_unlock\000"
 8142      5F756E6C 
 8142      6F636B00 
 8143              	.LASF126:
 8144 026e 5F696D70 		.ascii	"_impure_ptr\000"
 8144      7572655F 
 8144      70747200 
 8145              	.LASF288:
 8146 027a 715F7264 		.ascii	"q_rdptr\000"
 8146      70747200 
 8147              	.LASF84:
 8148 0282 5F726573 		.ascii	"_result_k\000"
 8148      756C745F 
 8148      6B00
 8149              	.LASF262:
 8150 028c 63665F6F 		.ascii	"cf_off_state\000"
 8150      66665F73 
 8150      74617465 
 8150      00
 8151              	.LASF54:
 8152 0299 5F73697A 		.ascii	"_size\000"
 8152      6500
 8153              	.LASF145:
 8154 029f 705F7072 		.ascii	"p_prev\000"
 8154      657600
 8155              	.LASF105:
 8156 02a6 5F6C6F63 		.ascii	"_localtime_buf\000"
 8156      616C7469 
 8156      6D655F62 
 8156      756600
 8157              	.LASF134:
 8158 02b5 74737461 		.ascii	"tstate_t\000"
ARM GAS  /tmp/cctghmAI.s 			page 147


 8158      74655F74 
 8158      00
 8159              	.LASF389:
 8160 02be 6F73616C 		.ascii	"osalSysLock\000"
 8160      5379734C 
 8160      6F636B00 
 8161              	.LASF165:
 8162 02ca 74687265 		.ascii	"threads_queue_t\000"
 8162      6164735F 
 8162      71756575 
 8162      655F7400 
 8163              	.LASF159:
 8164 02da 705F6D74 		.ascii	"p_mtxlist\000"
 8164      786C6973 
 8164      7400
 8165              	.LASF342:
 8166 02e4 6F717565 		.ascii	"oqueue\000"
 8166      756500
 8167              	.LASF212:
 8168 02eb 72656761 		.ascii	"regarm_t\000"
 8168      726D5F74 
 8168      00
 8169              	.LASF39:
 8170 02f4 5F5F746D 		.ascii	"__tm_mon\000"
 8170      5F6D6F6E 
 8170      00
 8171              	.LASF282:
 8172 02fd 696F5F71 		.ascii	"io_queue\000"
 8172      75657565 
 8172      00
 8173              	.LASF362:
 8174 0306 6F627150 		.ascii	"obqPostFullBuffer\000"
 8174      6F737446 
 8174      756C6C42 
 8174      75666665 
 8174      7200
 8175              	.LASF200:
 8176 0318 43504152 		.ascii	"CPAR\000"
 8176      00
 8177              	.LASF343:
 8178 031d 75736172 		.ascii	"usart\000"
 8178      7400
 8179              	.LASF333:
 8180 0323 70616C5F 		.ascii	"pal_default_config\000"
 8180      64656661 
 8180      756C745F 
 8180      636F6E66 
 8180      696700
 8181              	.LASF102:
 8182 0336 5F756E75 		.ascii	"_unused_rand\000"
 8182      7365645F 
 8182      72616E64 
 8182      00
 8183              	.LASF3:
 8184 0343 7369676E 		.ascii	"signed char\000"
 8184      65642063 
 8184      68617200 
ARM GAS  /tmp/cctghmAI.s 			page 148


 8185              	.LASF241:
 8186 034f 65776D61 		.ascii	"ewmask\000"
 8186      736B00
 8187              	.LASF128:
 8188 0356 75696E74 		.ascii	"uint8_t\000"
 8188      385F7400 
 8189              	.LASF216:
 8190 035e 534D4352 		.ascii	"SMCR\000"
 8190      00
 8191              	.LASF24:
 8192 0363 5F5F7661 		.ascii	"__value\000"
 8192      6C756500 
 8193              	.LASF138:
 8194 036b 6576656E 		.ascii	"eventmask_t\000"
 8194      746D6173 
 8194      6B5F7400 
 8195              	.LASF214:
 8196 0377 636F6E74 		.ascii	"context\000"
 8196      65787400 
 8197              	.LASF238:
 8198 037f 77747472 		.ascii	"wttrp\000"
 8198      7000
 8199              	.LASF204:
 8200 0385 52455345 		.ascii	"RESERVED0\000"
 8200      52564544 
 8200      3000
 8201              	.LASF209:
 8202 038f 52455345 		.ascii	"RESERVED1\000"
 8202      52564544 
 8202      3100
 8203              	.LASF6:
 8204 0399 756E7369 		.ascii	"unsigned char\000"
 8204      676E6564 
 8204      20636861 
 8204      7200
 8205              	.LASF290:
 8206 03a7 715F6C69 		.ascii	"q_link\000"
 8206      6E6B00
 8207              	.LASF206:
 8208 03ae 444D415F 		.ascii	"DMA_TypeDef\000"
 8208      54797065 
 8208      44656600 
 8209              	.LASF188:
 8210 03ba 70616E69 		.ascii	"panic_msg\000"
 8210      635F6D73 
 8210      6700
 8211              	.LASF79:
 8212 03c4 5F756E73 		.ascii	"_unspecified_locale_info\000"
 8212      70656369 
 8212      66696564 
 8212      5F6C6F63 
 8212      616C655F 
 8213              	.LASF72:
 8214 03dd 5F726565 		.ascii	"_reent\000"
 8214      6E7400
 8215              	.LASF172:
 8216 03e4 725F6E65 		.ascii	"r_newer\000"
ARM GAS  /tmp/cctghmAI.s 			page 149


 8216      77657200 
 8217              	.LASF127:
 8218 03ec 5F676C6F 		.ascii	"_global_impure_ptr\000"
 8218      62616C5F 
 8218      696D7075 
 8218      72655F70 
 8218      747200
 8219              	.LASF381:
 8220 03ff 69627152 		.ascii	"ibqResetI\000"
 8220      65736574 
 8220      4900
 8221              	.LASF186:
 8222 0409 73797374 		.ascii	"system_debug_t\000"
 8222      656D5F64 
 8222      65627567 
 8222      5F7400
 8223              	.LASF334:
 8224 0418 53445F55 		.ascii	"SD_UNINIT\000"
 8224      4E494E49 
 8224      5400
 8225              	.LASF280:
 8226 0422 5F426F6F 		.ascii	"_Bool\000"
 8226      6C00
 8227              	.LASF210:
 8228 0428 52455345 		.ascii	"RESERVED2\000"
 8228      52564544 
 8228      3200
 8229              	.LASF371:
 8230 0432 6F6E6679 		.ascii	"onfy\000"
 8230      00
 8231              	.LASF218:
 8232 0437 43434D52 		.ascii	"CCMR1\000"
 8232      3100
 8233              	.LASF219:
 8234 043d 43434D52 		.ascii	"CCMR2\000"
 8234      3200
 8235              	.LASF223:
 8236 0443 43434D52 		.ascii	"CCMR3\000"
 8236      3300
 8237              	.LASF27:
 8238 0449 63686172 		.ascii	"char\000"
 8238      00
 8239              	.LASF51:
 8240 044e 5F666E73 		.ascii	"_fns\000"
 8240      00
 8241              	.LASF321:
 8242 0453 6D6F6465 		.ascii	"moder\000"
 8242      7200
 8243              	.LASF361:
 8244 0459 6F627150 		.ascii	"obqPostFullBufferS\000"
 8244      6F737446 
 8244      756C6C42 
 8244      75666665 
 8244      725300
 8245              	.LASF296:
 8246 046c 6373656C 		.ascii	"cselr\000"
 8246      7200
ARM GAS  /tmp/cctghmAI.s 			page 150


 8247              	.LASF63:
 8248 0472 5F636C6F 		.ascii	"_close\000"
 8248      736500
 8249              	.LASF203:
 8250 0479 49464352 		.ascii	"IFCR\000"
 8250      00
 8251              	.LASF146:
 8252 047e 705F7072 		.ascii	"p_prio\000"
 8252      696F00
 8253              	.LASF8:
 8254 0485 5F5F7569 		.ascii	"__uint16_t\000"
 8254      6E743136 
 8254      5F7400
 8255              	.LASF349:
 8256 0490 67657474 		.ascii	"gett\000"
 8256      00
 8257              	.LASF237:
 8258 0495 77746F62 		.ascii	"wtobjp\000"
 8258      6A7000
 8259              	.LASF266:
 8260 049c 63665F6F 		.ascii	"cf_off_time\000"
 8260      66665F74 
 8260      696D6500 
 8261              	.LASF74:
 8262 04a8 5F737464 		.ascii	"_stdin\000"
 8262      696E00
 8263              	.LASF258:
 8264 04af 63665F6F 		.ascii	"cf_off_newer\000"
 8264      66665F6E 
 8264      65776572 
 8264      00
 8265              	.LASF372:
 8266 04bc 69627152 		.ascii	"ibqReadTimeout\000"
 8266      65616454 
 8266      696D656F 
 8266      757400
 8267              	.LASF310:
 8268 04cb 62636F75 		.ascii	"bcounter\000"
 8268      6E746572 
 8268      00
 8269              	.LASF213:
 8270 04d4 73746B61 		.ascii	"stkalign_t\000"
 8270      6C69676E 
 8270      5F7400
 8271              	.LASF211:
 8272 04df 55534152 		.ascii	"USART_TypeDef\000"
 8272      545F5479 
 8272      70654465 
 8272      6600
 8273              	.LASF312:
 8274 04ed 62726470 		.ascii	"brdptr\000"
 8274      747200
 8275              	.LASF256:
 8276 04f4 63665F6F 		.ascii	"cf_off_prio\000"
 8276      66665F70 
 8276      72696F00 
 8277              	.LASF401:
ARM GAS  /tmp/cctghmAI.s 			page 151


 8278 0500 5F5F656E 		.ascii	"__enable_irq\000"
 8278      61626C65 
 8278      5F697271 
 8278      00
 8279              	.LASF270:
 8280 050d 6576656E 		.ascii	"event_listener_t\000"
 8280      745F6C69 
 8280      7374656E 
 8280      65725F74 
 8280      00
 8281              	.LASF224:
 8282 051e 43435852 		.ascii	"CCXR\000"
 8282      00
 8283              	.LASF375:
 8284 0523 69627152 		.ascii	"ibqReleaseEmptyBufferS\000"
 8284      656C6561 
 8284      7365456D 
 8284      70747942 
 8284      75666665 
 8285              	.LASF360:
 8286 053a 6F627146 		.ascii	"obqFlush\000"
 8286      6C757368 
 8286      00
 8287              	.LASF302:
 8288 0543 646D615F 		.ascii	"dma_func\000"
 8288      66756E63 
 8288      00
 8289              	.LASF140:
 8290 054c 636E745F 		.ascii	"cnt_t\000"
 8290      7400
 8291              	.LASF191:
 8292 0552 74726163 		.ascii	"trace_buffer\000"
 8292      655F6275 
 8292      66666572 
 8292      00
 8293              	.LASF181:
 8294 055f 76745F66 		.ascii	"vt_func\000"
 8294      756E6300 
 8295              	.LASF311:
 8296 0567 62777270 		.ascii	"bwrptr\000"
 8296      747200
 8297              	.LASF59:
 8298 056e 5F636F6F 		.ascii	"_cookie\000"
 8298      6B696500 
 8299              	.LASF234:
 8300 0576 63685F74 		.ascii	"ch_trace_buffer_t\000"
 8300      72616365 
 8300      5F627566 
 8300      6665725F 
 8300      7400
 8301              	.LASF384:
 8302 0588 6F73616C 		.ascii	"osalThreadDequeueAllI\000"
 8302      54687265 
 8302      61644465 
 8302      71756575 
 8302      65416C6C 
 8303              	.LASF158:
ARM GAS  /tmp/cctghmAI.s 			page 152


 8304 059e 705F6570 		.ascii	"p_epending\000"
 8304      656E6469 
 8304      6E6700
 8305              	.LASF240:
 8306 05a9 77746D74 		.ascii	"wtmtxp\000"
 8306      787000
 8307              	.LASF32:
 8308 05b0 5F776473 		.ascii	"_wds\000"
 8308      00
 8309              	.LASF168:
 8310 05b5 63685F72 		.ascii	"ch_ready_list\000"
 8310      65616479 
 8310      5F6C6973 
 8310      7400
 8311              	.LASF124:
 8312 05c3 5F5F6C6F 		.ascii	"__lock\000"
 8312      636B00
 8313              	.LASF91:
 8314 05ca 5F736967 		.ascii	"_sig_func\000"
 8314      5F66756E 
 8314      6300
 8315              	.LASF323:
 8316 05d4 6F737065 		.ascii	"ospeedr\000"
 8316      65647200 
 8317              	.LASF67:
 8318 05dc 5F6F6666 		.ascii	"_offset\000"
 8318      73657400 
 8319              	.LASF88:
 8320 05e4 5F637674 		.ascii	"_cvtbuf\000"
 8320      62756600 
 8321              	.LASF330:
 8322 05ec 50434461 		.ascii	"PCData\000"
 8322      746100
 8323              	.LASF217:
 8324 05f3 44494552 		.ascii	"DIER\000"
 8324      00
 8325              	.LASF189:
 8326 05f8 6973725F 		.ascii	"isr_cnt\000"
 8326      636E7400 
 8327              	.LASF278:
 8328 0600 65735F6E 		.ascii	"es_next\000"
 8328      65787400 
 8329              	.LASF284:
 8330 0608 715F636F 		.ascii	"q_counter\000"
 8330      756E7465 
 8330      7200
 8331              	.LASF229:
 8332 0612 73655F73 		.ascii	"se_state\000"
 8332      74617465 
 8332      00
 8333              	.LASF368:
 8334 061b 73697A65 		.ascii	"sizep\000"
 8334      7000
 8335              	.LASF326:
 8336 0621 61667268 		.ascii	"afrh\000"
 8336      00
 8337              	.LASF14:
ARM GAS  /tmp/cctghmAI.s 			page 153


 8338 0626 5F5F7569 		.ascii	"__uint64_t\000"
 8338      6E743634 
 8338      5F7400
 8339              	.LASF393:
 8340 0631 63685379 		.ascii	"chSysUnlock\000"
 8340      73556E6C 
 8340      6F636B00 
 8341              	.LASF85:
 8342 063d 5F703573 		.ascii	"_p5s\000"
 8342      00
 8343              	.LASF13:
 8344 0642 6C6F6E67 		.ascii	"long unsigned int\000"
 8344      20756E73 
 8344      69676E65 
 8344      6420696E 
 8344      7400
 8345              	.LASF250:
 8346 0654 63685F7A 		.ascii	"ch_zero\000"
 8346      65726F00 
 8347              	.LASF394:
 8348 065c 63685379 		.ascii	"chSysLock\000"
 8348      734C6F63 
 8348      6B00
 8349              	.LASF363:
 8350 0666 6F627147 		.ascii	"obqGetEmptyBufferTimeoutS\000"
 8350      6574456D 
 8350      70747942 
 8350      75666665 
 8350      7254696D 
 8351              	.LASF55:
 8352 0680 5F5F7346 		.ascii	"__sFILE\000"
 8352      494C4500 
 8353              	.LASF81:
 8354 0688 5F5F7364 		.ascii	"__sdidinit\000"
 8354      6964696E 
 8354      697400
 8355              	.LASF71:
 8356 0693 5F666C61 		.ascii	"_flags2\000"
 8356      67733200 
 8357              	.LASF322:
 8358 069b 6F747970 		.ascii	"otyper\000"
 8358      657200
 8359              	.LASF198:
 8360 06a2 53797374 		.ascii	"SystemCoreClock\000"
 8360      656D436F 
 8360      7265436C 
 8360      6F636B00 
 8361              	.LASF242:
 8362 06b2 63685F73 		.ascii	"ch_semaphore\000"
 8362      656D6170 
 8362      686F7265 
 8362      00
 8363              	.LASF297:
 8364 06bf 73686966 		.ascii	"shift\000"
 8364      7400
 8365              	.LASF294:
 8366 06c5 6368616E 		.ascii	"channel\000"
ARM GAS  /tmp/cctghmAI.s 			page 154


 8366      6E656C00 
 8367              	.LASF143:
 8368 06cd 63685F74 		.ascii	"ch_thread\000"
 8368      68726561 
 8368      6400
 8369              	.LASF183:
 8370 06d7 76697274 		.ascii	"virtual_timers_list_t\000"
 8370      75616C5F 
 8370      74696D65 
 8370      72735F6C 
 8370      6973745F 
 8371              	.LASF317:
 8372 06ed 6C696E6B 		.ascii	"link\000"
 8372      00
 8373              	.LASF305:
 8374 06f2 5F73746D 		.ascii	"_stm32_dma_streams\000"
 8374      33325F64 
 8374      6D615F73 
 8374      74726561 
 8374      6D7300
 8375              	.LASF272:
 8376 0705 656C5F6E 		.ascii	"el_next\000"
 8376      65787400 
 8377              	.LASF73:
 8378 070d 5F657272 		.ascii	"_errno\000"
 8378      6E6F00
 8379              	.LASF176:
 8380 0714 76697274 		.ascii	"virtual_timer_t\000"
 8380      75616C5F 
 8380      74696D65 
 8380      725F7400 
 8381              	.LASF167:
 8382 0724 72656164 		.ascii	"ready_list_t\000"
 8382      795F6C69 
 8382      73745F74 
 8382      00
 8383              	.LASF287:
 8384 0731 715F7772 		.ascii	"q_wrptr\000"
 8384      70747200 
 8385              	.LASF113:
 8386 0739 5F736967 		.ascii	"_signal_buf\000"
 8386      6E616C5F 
 8386      62756600 
 8387              	.LASF345:
 8388 0745 53657269 		.ascii	"SerialDriverVMT\000"
 8388      616C4472 
 8388      69766572 
 8388      564D5400 
 8389              	.LASF225:
 8390 0755 73746D33 		.ascii	"stm32_tim_t\000"
 8390      325F7469 
 8390      6D5F7400 
 8391              	.LASF344:
 8392 0761 636C6F63 		.ascii	"clock\000"
 8392      6B00
 8393              	.LASF346:
 8394 0767 77726974 		.ascii	"write\000"
ARM GAS  /tmp/cctghmAI.s 			page 155


 8394      6500
 8395              	.LASF357:
 8396 076d 64656164 		.ascii	"deadline\000"
 8396      6C696E65 
 8396      00
 8397              	.LASF33:
 8398 0776 5F426967 		.ascii	"_Bigint\000"
 8398      696E7400 
 8399              	.LASF164:
 8400 077e 63685F74 		.ascii	"ch_threads_list\000"
 8400      68726561 
 8400      64735F6C 
 8400      69737400 
 8401              	.LASF230:
 8402 078e 63685F73 		.ascii	"ch_swc_event_t\000"
 8402      77635F65 
 8402      76656E74 
 8402      5F7400
 8403              	.LASF30:
 8404 079d 5F6D6178 		.ascii	"_maxwds\000"
 8404      77647300 
 8405              	.LASF400:
 8406 07a5 5F5F6469 		.ascii	"__disable_irq\000"
 8406      7361626C 
 8406      655F6972 
 8406      7100
 8407              	.LASF378:
 8408 07b3 69627147 		.ascii	"ibqGetFullBufferTimeout\000"
 8408      65744675 
 8408      6C6C4275 
 8408      66666572 
 8408      54696D65 
 8409              	.LASF324:
 8410 07cb 70757064 		.ascii	"pupdr\000"
 8410      7200
 8411              	.LASF82:
 8412 07d1 5F5F636C 		.ascii	"__cleanup\000"
 8412      65616E75 
 8412      7000
 8413              	.LASF90:
 8414 07db 5F617465 		.ascii	"_atexit0\000"
 8414      78697430 
 8414      00
 8415              	.LASF315:
 8416 07e4 62756666 		.ascii	"buffers\000"
 8416      65727300 
 8417              	.LASF265:
 8418 07ec 63665F6F 		.ascii	"cf_off_preempt\000"
 8418      66665F70 
 8418      7265656D 
 8418      707400
 8419              	.LASF12:
 8420 07fb 5F5F7569 		.ascii	"__uint32_t\000"
 8420      6E743332 
 8420      5F7400
 8421              	.LASF78:
 8422 0806 5F656D65 		.ascii	"_emergency\000"
ARM GAS  /tmp/cctghmAI.s 			page 156


 8422      7267656E 
 8422      637900
 8423              	.LASF1:
 8424 0811 6C6F6E67 		.ascii	"long long int\000"
 8424      206C6F6E 
 8424      6720696E 
 8424      7400
 8425              	.LASF358:
 8426 081f 6E657874 		.ascii	"next_timeout\000"
 8426      5F74696D 
 8426      656F7574 
 8426      00
 8427              	.LASF252:
 8428 082c 63685F76 		.ascii	"ch_version\000"
 8428      65727369 
 8428      6F6E00
 8429              	.LASF246:
 8430 0837 6D5F7175 		.ascii	"m_queue\000"
 8430      65756500 
 8431              	.LASF96:
 8432 083f 5F6E696F 		.ascii	"_niobs\000"
 8432      627300
 8433              	.LASF233:
 8434 0846 74625F62 		.ascii	"tb_buffer\000"
 8434      75666665 
 8434      7200
 8435              	.LASF178:
 8436 0850 76745F6E 		.ascii	"vt_next\000"
 8436      65787400 
 8437              	.LASF92:
 8438 0858 5F5F7367 		.ascii	"__sglue\000"
 8438      6C756500 
 8439              	.LASF403:
 8440 0860 43686962 		.ascii	"ChibiOS/os/hal/src/hal_buffers.c\000"
 8440      694F532F 
 8440      6F732F68 
 8440      616C2F73 
 8440      72632F68 
 8441              	.LASF122:
 8442 0881 5F6E6D61 		.ascii	"_nmalloc\000"
 8442      6C6C6F63 
 8442      00
 8443              	.LASF179:
 8444 088a 76745F70 		.ascii	"vt_prev\000"
 8444      72657600 
 8445              	.LASF207:
 8446 0892 47545052 		.ascii	"GTPR\000"
 8446      00
 8447              	.LASF106:
 8448 0897 5F67616D 		.ascii	"_gamma_signgam\000"
 8448      6D615F73 
 8448      69676E67 
 8448      616D00
 8449              	.LASF231:
 8450 08a6 74625F73 		.ascii	"tb_size\000"
 8450      697A6500 
 8451              	.LASF279:
ARM GAS  /tmp/cctghmAI.s 			page 157


 8452 08ae 6576656E 		.ascii	"event_source_t\000"
 8452      745F736F 
 8452      75726365 
 8452      5F7400
 8453              	.LASF86:
 8454 08bd 5F667265 		.ascii	"_freelist\000"
 8454      656C6973 
 8454      7400
 8455              	.LASF97:
 8456 08c7 5F696F62 		.ascii	"_iobs\000"
 8456      7300
 8457              	.LASF376:
 8458 08cd 69627152 		.ascii	"ibqReleaseEmptyBuffer\000"
 8458      656C6561 
 8458      7365456D 
 8458      70747942 
 8458      75666665 
 8459              	.LASF95:
 8460 08e3 5F676C75 		.ascii	"_glue\000"
 8460      6500
 8461              	.LASF31:
 8462 08e9 5F736967 		.ascii	"_sign\000"
 8462      6E00
 8463              	.LASF329:
 8464 08ef 50424461 		.ascii	"PBData\000"
 8464      746100
 8465              	.LASF356:
 8466 08f6 74696D65 		.ascii	"timeout\000"
 8466      6F757400 
 8467              	.LASF291:
 8468 08fe 716E6F74 		.ascii	"qnotify_t\000"
 8468      6966795F 
 8468      7400
 8469              	.LASF367:
 8470 0908 6F627147 		.ascii	"obqGetFullBufferI\000"
 8470      65744675 
 8470      6C6C4275 
 8470      66666572 
 8470      4900
 8471              	.LASF155:
 8472 091a 705F7761 		.ascii	"p_waiting\000"
 8472      6974696E 
 8472      6700
 8473              	.LASF339:
 8474 0924 6576656E 		.ascii	"event\000"
 8474      7400
 8475              	.LASF228:
 8476 092a 73655F77 		.ascii	"se_wtobjp\000"
 8476      746F626A 
 8476      7000
 8477              	.LASF205:
 8478 0934 4353454C 		.ascii	"CSELR\000"
 8478      5200
 8479              	.LASF347:
 8480 093a 72656164 		.ascii	"read\000"
 8480      00
 8481              	.LASF197:
ARM GAS  /tmp/cctghmAI.s 			page 158


 8482 093f 69646C65 		.ascii	"idle_thread_wa\000"
 8482      5F746872 
 8482      6561645F 
 8482      776100
 8483              	.LASF0:
 8484 094e 756E7369 		.ascii	"unsigned int\000"
 8484      676E6564 
 8484      20696E74 
 8484      00
 8485              	.LASF319:
 8486 095b 696E7075 		.ascii	"input_buffers_queue_t\000"
 8486      745F6275 
 8486      66666572 
 8486      735F7175 
 8486      6575655F 
 8487              	.LASF161:
 8488 0971 705F6D70 		.ascii	"p_mpool\000"
 8488      6F6F6C00 
 8489              	.LASF120:
 8490 0979 5F685F65 		.ascii	"_h_errno\000"
 8490      72726E6F 
 8490      00
 8491              	.LASF369:
 8492 0982 6F627152 		.ascii	"obqResetI\000"
 8492      65736574 
 8492      4900
 8493              	.LASF318:
 8494 098c 62716E6F 		.ascii	"bqnotify_t\000"
 8494      74696679 
 8494      5F7400
 8495              	.LASF301:
 8496 0997 73746D33 		.ascii	"stm32_dmaisr_t\000"
 8496      325F646D 
 8496      61697372 
 8496      5F7400
 8497              	.LASF154:
 8498 09a6 705F7265 		.ascii	"p_refs\000"
 8498      667300
 8499              	.LASF254:
 8500 09ad 63685F74 		.ascii	"ch_timesize\000"
 8500      696D6573 
 8500      697A6500 
 8501              	.LASF118:
 8502 09b9 5F776372 		.ascii	"_wcrtomb_state\000"
 8502      746F6D62 
 8502      5F737461 
 8502      746500
 8503              	.LASF38:
 8504 09c8 5F5F746D 		.ascii	"__tm_mday\000"
 8504      5F6D6461 
 8504      7900
 8505              	.LASF276:
 8506 09d2 656C5F77 		.ascii	"el_wflags\000"
 8506      666C6167 
 8506      7300
 8507              	.LASF89:
 8508 09dc 5F6E6577 		.ascii	"_new\000"
ARM GAS  /tmp/cctghmAI.s 			page 159


 8508      00
 8509              	.LASF365:
 8510 09e1 6F627147 		.ascii	"obqGetEmptyBufferTimeout\000"
 8510      6574456D 
 8510      70747942 
 8510      75666665 
 8510      7254696D 
 8511              	.LASF64:
 8512 09fa 5F756275 		.ascii	"_ubuf\000"
 8512      6600
 8513              	.LASF201:
 8514 0a00 434D4152 		.ascii	"CMAR\000"
 8514      00
 8515              	.LASF76:
 8516 0a05 5F737464 		.ascii	"_stderr\000"
 8516      65727200 
 8517              	.LASF274:
 8518 0a0d 656C5F65 		.ascii	"el_events\000"
 8518      76656E74 
 8518      7300
 8519              	.LASF111:
 8520 0a17 5F776374 		.ascii	"_wctomb_state\000"
 8520      6F6D625F 
 8520      73746174 
 8520      6500
 8521              	.LASF70:
 8522 0a25 5F6D6273 		.ascii	"_mbstate\000"
 8522      74617465 
 8522      00
 8523              	.LASF107:
 8524 0a2e 5F72616E 		.ascii	"_rand_next\000"
 8524      645F6E65 
 8524      787400
 8525              	.LASF56:
 8526 0a39 5F666C61 		.ascii	"_flags\000"
 8526      677300
 8527              	.LASF162:
 8528 0a40 74687265 		.ascii	"thread_reference_t\000"
 8528      61645F72 
 8528      65666572 
 8528      656E6365 
 8528      5F7400
 8529              	.LASF49:
 8530 0a53 5F617465 		.ascii	"_atexit\000"
 8530      78697400 
 8531              	.LASF373:
 8532 0a5b 69627170 		.ascii	"ibqp\000"
 8532      00
 8533              	.LASF264:
 8534 0a60 63665F6F 		.ascii	"cf_off_refs\000"
 8534      66665F72 
 8534      65667300 
 8535              	.LASF385:
 8536 0a6c 6F73616C 		.ascii	"osalThreadDequeueNextI\000"
 8536      54687265 
 8536      61644465 
 8536      71756575 
ARM GAS  /tmp/cctghmAI.s 			page 160


 8536      654E6578 
 8537              	.LASF377:
 8538 0a83 69627147 		.ascii	"ibqGetFullBufferTimeoutS\000"
 8538      65744675 
 8538      6C6C4275 
 8538      66666572 
 8538      54696D65 
 8539              	.LASF23:
 8540 0a9c 5F5F636F 		.ascii	"__count\000"
 8540      756E7400 
 8541              	.LASF325:
 8542 0aa4 6166726C 		.ascii	"afrl\000"
 8542      00
 8543              	.LASF304:
 8544 0aa9 646D615F 		.ascii	"dma_isr_redir_t\000"
 8544      6973725F 
 8544      72656469 
 8544      725F7400 
 8545              	.LASF41:
 8546 0ab9 5F5F746D 		.ascii	"__tm_wday\000"
 8546      5F776461 
 8546      7900
 8547              	.LASF313:
 8548 0ac3 62746F70 		.ascii	"btop\000"
 8548      00
 8549              	.LASF142:
 8550 0ac8 74687265 		.ascii	"thread_t\000"
 8550      61645F74 
 8550      00
 8551              	.LASF352:
 8552 0ad1 6F627170 		.ascii	"obqp\000"
 8552      00
 8553              	.LASF2:
 8554 0ad6 6C6F6E67 		.ascii	"long double\000"
 8554      20646F75 
 8554      626C6500 
 8555              	.LASF354:
 8556 0ae2 6F627154 		.ascii	"obqTryFlushI\000"
 8556      7279466C 
 8556      75736849 
 8556      00
 8557              	.LASF42:
 8558 0aef 5F5F746D 		.ascii	"__tm_yday\000"
 8558      5F796461 
 8558      7900
 8559              	.LASF359:
 8560 0af9 6F627150 		.ascii	"obqPutTimeout\000"
 8560      75745469 
 8560      6D656F75 
 8560      7400
 8561              	.LASF392:
 8562 0b07 63685654 		.ascii	"chVTGetSystemTimeX\000"
 8562      47657453 
 8562      79737465 
 8562      6D54696D 
 8562      655800
 8563              	.LASF160:
ARM GAS  /tmp/cctghmAI.s 			page 161


 8564 0b1a 705F7265 		.ascii	"p_realprio\000"
 8564      616C7072 
 8564      696F00
 8565              	.LASF215:
 8566 0b25 706F7274 		.ascii	"port_intctx\000"
 8566      5F696E74 
 8566      63747800 
 8567              	.LASF99:
 8568 0b31 5F736565 		.ascii	"_seed\000"
 8568      6400
 8569              	.LASF62:
 8570 0b37 5F736565 		.ascii	"_seek\000"
 8570      6B00
 8571              	.LASF295:
 8572 0b3d 636D6173 		.ascii	"cmask\000"
 8572      6B00
 8573              	.LASF180:
 8574 0b43 76745F64 		.ascii	"vt_delta\000"
 8574      656C7461 
 8574      00
 8575              	.LASF18:
 8576 0b4c 5F66706F 		.ascii	"_fpos_t\000"
 8576      735F7400 
 8577              	.LASF21:
 8578 0b54 5F5F7763 		.ascii	"__wchb\000"
 8578      686200
 8579              	.LASF202:
 8580 0b5b 444D415F 		.ascii	"DMA_Channel_TypeDef\000"
 8580      4368616E 
 8580      6E656C5F 
 8580      54797065 
 8580      44656600 
 8581              	.LASF383:
 8582 0b6f 696E6679 		.ascii	"infy\000"
 8582      00
 8583              	.LASF177:
 8584 0b74 63685F76 		.ascii	"ch_virtual_timer\000"
 8584      69727475 
 8584      616C5F74 
 8584      696D6572 
 8584      00
 8585              	.LASF244:
 8586 0b85 735F636E 		.ascii	"s_cnt\000"
 8586      7400
 8587              	.LASF110:
 8588 0b8b 5F6D6274 		.ascii	"_mbtowc_state\000"
 8588      6F77635F 
 8588      73746174 
 8588      6500
 8589              	.LASF397:
 8590 0b99 73745F6C 		.ascii	"st_lld_get_counter\000"
 8590      6C645F67 
 8590      65745F63 
 8590      6F756E74 
 8590      657200
 8591              	.LASF298:
 8592 0bac 73656C66 		.ascii	"selfindex\000"
ARM GAS  /tmp/cctghmAI.s 			page 162


 8592      696E6465 
 8592      7800
 8593              	.LASF316:
 8594 0bb6 6E6F7469 		.ascii	"notify\000"
 8594      667900
 8595              	.LASF353:
 8596 0bbd 73697A65 		.ascii	"size\000"
 8596      00
 8597              	.LASF15:
 8598 0bc2 6C6F6E67 		.ascii	"long long unsigned int\000"
 8598      206C6F6E 
 8598      6720756E 
 8598      7369676E 
 8598      65642069 
 8599              	.LASF314:
 8600 0bd9 6273697A 		.ascii	"bsize\000"
 8600      6500
 8601              	.LASF328:
 8602 0bdf 50414461 		.ascii	"PAData\000"
 8602      746100
 8603              	.LASF149:
 8604 0be6 705F6F6C 		.ascii	"p_older\000"
 8604      64657200 
 8605              	.LASF129:
 8606 0bee 75696E74 		.ascii	"uint16_t\000"
 8606      31365F74 
 8606      00
 8607              	.LASF46:
 8608 0bf7 5F64736F 		.ascii	"_dso_handle\000"
 8608      5F68616E 
 8608      646C6500 
 8609              	.LASF137:
 8610 0c03 6D73675F 		.ascii	"msg_t\000"
 8610      7400
 8611              	.LASF166:
 8612 0c09 63685F74 		.ascii	"ch_threads_queue\000"
 8612      68726561 
 8612      64735F71 
 8612      75657565 
 8612      00
 8613              	.LASF98:
 8614 0c1a 5F72616E 		.ascii	"_rand48\000"
 8614      64343800 
 8615              	.LASF139:
 8616 0c22 6576656E 		.ascii	"eventflags_t\000"
 8616      74666C61 
 8616      67735F74 
 8616      00
 8617              	.LASF263:
 8618 0c2f 63665F6F 		.ascii	"cf_off_flags\000"
 8618      66665F66 
 8618      6C616773 
 8618      00
 8619              	.LASF220:
 8620 0c3c 43434552 		.ascii	"CCER\000"
 8620      00
 8621              	.LASF75:
ARM GAS  /tmp/cctghmAI.s 			page 163


 8622 0c41 5F737464 		.ascii	"_stdout\000"
 8622      6F757400 
 8623              	.LASF66:
 8624 0c49 5F626C6B 		.ascii	"_blksize\000"
 8624      73697A65 
 8624      00
 8625              	.LASF53:
 8626 0c52 5F626173 		.ascii	"_base\000"
 8626      6500
 8627              	.LASF299:
 8628 0c58 76656374 		.ascii	"vector\000"
 8628      6F7200
 8629              	.LASF103:
 8630 0c5f 5F737472 		.ascii	"_strtok_last\000"
 8630      746F6B5F 
 8630      6C617374 
 8630      00
 8631              	.LASF116:
 8632 0c6c 5F6D6272 		.ascii	"_mbrtowc_state\000"
 8632      746F7763 
 8632      5F737461 
 8632      746500
 8633              	.LASF366:
 8634 0c7b 6F627152 		.ascii	"obqReleaseEmptyBufferI\000"
 8634      656C6561 
 8634      7365456D 
 8634      70747942 
 8634      75666665 
 8635              	.LASF196:
 8636 0c92 6D61696E 		.ascii	"mainthread\000"
 8636      74687265 
 8636      616400
 8637              	.LASF26:
 8638 0c9d 5F666C6F 		.ascii	"_flock_t\000"
 8638      636B5F74 
 8638      00
 8639              	.LASF94:
 8640 0ca6 5F5F4649 		.ascii	"__FILE\000"
 8640      4C4500
 8641              	.LASF25:
 8642 0cad 5F6D6273 		.ascii	"_mbstate_t\000"
 8642      74617465 
 8642      5F7400
 8643              	.LASF169:
 8644 0cb8 725F7175 		.ascii	"r_queue\000"
 8644      65756500 
 8645              	.LASF108:
 8646 0cc0 5F723438 		.ascii	"_r48\000"
 8646      00
 8647              	.LASF19:
 8648 0cc5 77696E74 		.ascii	"wint_t\000"
 8648      5F7400
 8649              	.LASF338:
 8650 0ccc 53657269 		.ascii	"SerialDriver\000"
 8650      616C4472 
 8650      69766572 
 8650      00
ARM GAS  /tmp/cctghmAI.s 			page 164


 8651              	.LASF29:
 8652 0cd9 5F6E6578 		.ascii	"_next\000"
 8652      7400
 8653              	.LASF68:
 8654 0cdf 5F646174 		.ascii	"_data\000"
 8654      6100
 8655              	.LASF283:
 8656 0ce5 715F7761 		.ascii	"q_waiting\000"
 8656      6974696E 
 8656      6700
 8657              	.LASF194:
 8658 0cef 726C6973 		.ascii	"rlist\000"
 8658      7400
 8659              	.LASF133:
 8660 0cf5 746D6F64 		.ascii	"tmode_t\000"
 8660      655F7400 
 8661              	.LASF337:
 8662 0cfd 73647374 		.ascii	"sdstate_t\000"
 8662      6174655F 
 8662      7400
 8663              	.LASF336:
 8664 0d07 53445F52 		.ascii	"SD_READY\000"
 8664      45414459 
 8664      00
 8665              	.LASF173:
 8666 0d10 725F6F6C 		.ascii	"r_older\000"
 8666      64657200 
 8667              	.LASF399:
 8668 0d18 706F7274 		.ascii	"port_lock\000"
 8668      5F6C6F63 
 8668      6B00
 8669              	.LASF243:
 8670 0d22 735F7175 		.ascii	"s_queue\000"
 8670      65756500 
 8671              	.LASF382:
 8672 0d2a 6962714F 		.ascii	"ibqObjectInit\000"
 8672      626A6563 
 8672      74496E69 
 8672      7400
 8673              	.LASF391:
 8674 0d38 6F73616C 		.ascii	"osalOsGetSystemTimeX\000"
 8674      4F734765 
 8674      74537973 
 8674      74656D54 
 8674      696D6558 
 8675              	.LASF109:
 8676 0d4d 5F6D626C 		.ascii	"_mblen_state\000"
 8676      656E5F73 
 8676      74617465 
 8676      00
 8677              	.LASF306:
 8678 0d5a 5F73746D 		.ascii	"_stm32_dma_isr_redir\000"
 8678      33325F64 
 8678      6D615F69 
 8678      73725F72 
 8678      65646972 
 8679              	.LASF7:
ARM GAS  /tmp/cctghmAI.s 			page 165


 8680 0d6f 73686F72 		.ascii	"short int\000"
 8680      7420696E 
 8680      7400
 8681              	.LASF277:
 8682 0d79 6576656E 		.ascii	"event_source\000"
 8682      745F736F 
 8682      75726365 
 8682      00
 8683              	.LASF132:
 8684 0d86 75696E74 		.ascii	"uint64_t\000"
 8684      36345F74 
 8684      00
 8685              	.LASF355:
 8686 0d8f 6F627157 		.ascii	"obqWriteTimeout\000"
 8686      72697465 
 8686      54696D65 
 8686      6F757400 
 8687              	.LASF245:
 8688 0d9f 63685F6D 		.ascii	"ch_mutex\000"
 8688      75746578 
 8688      00
 8689              	.LASF227:
 8690 0da8 73655F74 		.ascii	"se_tp\000"
 8690      7000
 8691              	.LASF341:
 8692 0dae 69717565 		.ascii	"iqueue\000"
 8692      756500
 8693              	.LASF47:
 8694 0db5 5F666E74 		.ascii	"_fntypes\000"
 8694      79706573 
 8694      00
 8695              	.LASF170:
 8696 0dbe 725F7072 		.ascii	"r_prio\000"
 8696      696F00
 8697              	.LASF187:
 8698 0dc5 63685F73 		.ascii	"ch_system_debug\000"
 8698      79737465 
 8698      6D5F6465 
 8698      62756700 
 8699              	.LASF402:
 8700 0dd5 474E5520 		.ascii	"GNU C11 6.3.1 20170215 (release) [ARM/embedded-6-br"
 8700      43313120 
 8700      362E332E 
 8700      31203230 
 8700      31373032 
 8701 0e08 616E6368 		.ascii	"anch revision 245512] -mcpu=cortex-m0 -mno-thumb-in"
 8701      20726576 
 8701      6973696F 
 8701      6E203234 
 8701      35353132 
 8702 0e3b 74657277 		.ascii	"terwork -mthumb -ggdb -O0 -fomit-frame-pointer -fal"
 8702      6F726B20 
 8702      2D6D7468 
 8702      756D6220 
 8702      2D676764 
 8703 0e6e 69676E2D 		.ascii	"ign-functions=16 -ffunction-sections -fdata-section"
 8703      66756E63 
ARM GAS  /tmp/cctghmAI.s 			page 166


 8703      74696F6E 
 8703      733D3136 
 8703      202D6666 
 8704 0ea1 7300     		.ascii	"s\000"
 8705              	.LASF40:
 8706 0ea3 5F5F746D 		.ascii	"__tm_year\000"
 8706      5F796561 
 8706      7200
 8707              	.LASF259:
 8708 0ead 63665F6F 		.ascii	"cf_off_older\000"
 8708      66665F6F 
 8708      6C646572 
 8708      00
 8709              	.LASF281:
 8710 0eba 696F5F71 		.ascii	"io_queue_t\000"
 8710      75657565 
 8710      5F7400
 8711              	.LASF380:
 8712 0ec5 69627147 		.ascii	"ibqGetEmptyBufferI\000"
 8712      6574456D 
 8712      70747942 
 8712      75666665 
 8712      724900
 8713              	.LASF332:
 8714 0ed8 50414C43 		.ascii	"PALConfig\000"
 8714      6F6E6669 
 8714      6700
 8715              	.LASF303:
 8716 0ee2 646D615F 		.ascii	"dma_param\000"
 8716      70617261 
 8716      6D00
 8717              	.LASF307:
 8718 0eec 696F5F62 		.ascii	"io_buffers_queue_t\000"
 8718      75666665 
 8718      72735F71 
 8718      75657565 
 8718      5F7400
 8719              	.LASF58:
 8720 0eff 5F6C6266 		.ascii	"_lbfsize\000"
 8720      73697A65 
 8720      00
 8721              	.LASF195:
 8722 0f08 76746C69 		.ascii	"vtlist\000"
 8722      737400
 8723              	.LASF77:
 8724 0f0f 5F696E63 		.ascii	"_inc\000"
 8724      00
 8725              	.LASF50:
 8726 0f14 5F696E64 		.ascii	"_ind\000"
 8726      00
 8727              	.LASF309:
 8728 0f19 77616974 		.ascii	"waiting\000"
 8728      696E6700 
 8729              	.LASF52:
 8730 0f21 5F5F7362 		.ascii	"__sbuf\000"
 8730      756600
 8731              	.LASF48:
ARM GAS  /tmp/cctghmAI.s 			page 167


 8732 0f28 5F69735F 		.ascii	"_is_cxa\000"
 8732      63786100 
 8733              	.LASF16:
 8734 0f30 5F4C4F43 		.ascii	"_LOCK_T\000"
 8734      4B5F5400 
 8735              	.LASF269:
 8736 0f38 6D757465 		.ascii	"mutex_t\000"
 8736      785F7400 
 8737              	.LASF395:
 8738 0f40 71756575 		.ascii	"queue_init\000"
 8738      655F696E 
 8738      697400
 8739              	.LASF135:
 8740 0f4b 74726566 		.ascii	"trefs_t\000"
 8740      735F7400 
 8741              	.LASF121:
 8742 0f53 5F6E6578 		.ascii	"_nextf\000"
 8742      746600
 8743              	.LASF396:
 8744 0f5a 706F7274 		.ascii	"port_timer_get_time\000"
 8744      5F74696D 
 8744      65725F67 
 8744      65745F74 
 8744      696D6500 
 8745              	.LASF261:
 8746 0f6e 63665F6F 		.ascii	"cf_off_stklimit\000"
 8746      66665F73 
 8746      746B6C69 
 8746      6D697400 
 8747              	.LASF163:
 8748 0f7e 74687265 		.ascii	"threads_list_t\000"
 8748      6164735F 
 8748      6C697374 
 8748      5F7400
 8749              	.LASF308:
 8750 0f8d 696F5F62 		.ascii	"io_buffers_queue\000"
 8750      75666665 
 8750      72735F71 
 8750      75657565 
 8750      00
 8751              	.LASF193:
 8752 0f9e 63685F73 		.ascii	"ch_system\000"
 8752      79737465 
 8752      6D00
 8753              	.LASF80:
 8754 0fa8 5F6C6F63 		.ascii	"_locale\000"
 8754      616C6500 
 8755              	.LASF28:
 8756 0fb0 5F5F554C 		.ascii	"__ULong\000"
 8756      6F6E6700 
 8757              	.LASF221:
 8758 0fb8 42445452 		.ascii	"BDTR\000"
 8758      00
 8759              	.LASF379:
 8760 0fbd 69627150 		.ascii	"ibqPostFullBufferI\000"
 8760      6F737446 
 8760      756C6C42 
ARM GAS  /tmp/cctghmAI.s 			page 168


 8760      75666665 
 8760      724900
 8761              	.LASF131:
 8762 0fd0 75696E74 		.ascii	"uint32_t\000"
 8762      33325F74 
 8762      00
 8763              	.LASF83:
 8764 0fd9 5F726573 		.ascii	"_result\000"
 8764      756C7400 
 8765              	.LASF292:
 8766 0fe1 696E7075 		.ascii	"input_queue_t\000"
 8766      745F7175 
 8766      6575655F 
 8766      7400
 8767              	.LASF331:
 8768 0fef 50464461 		.ascii	"PFData\000"
 8768      746100
 8769              	.LASF17:
 8770 0ff6 5F6F6666 		.ascii	"_off_t\000"
 8770      5F7400
 8771              	.LASF271:
 8772 0ffd 6576656E 		.ascii	"event_listener\000"
 8772      745F6C69 
 8772      7374656E 
 8772      657200
 8773              	.LASF235:
 8774 100c 7264796D 		.ascii	"rdymsg\000"
 8774      736700
 8775              	.LASF101:
 8776 1013 5F616464 		.ascii	"_add\000"
 8776      00
 8777              	.LASF185:
 8778 1018 76745F6C 		.ascii	"vt_lasttime\000"
 8778      61737474 
 8778      696D6500 
 8779              	.LASF9:
 8780 1024 73686F72 		.ascii	"short unsigned int\000"
 8780      7420756E 
 8780      7369676E 
 8780      65642069 
 8780      6E7400
 8781              	.LASF37:
 8782 1037 5F5F746D 		.ascii	"__tm_hour\000"
 8782      5F686F75 
 8782      7200
 8783              	.LASF320:
 8784 1041 6F757470 		.ascii	"output_buffers_queue_t\000"
 8784      75745F62 
 8784      75666665 
 8784      72735F71 
 8784      75657565 
 8785              	.LASF192:
 8786 1058 63685F73 		.ascii	"ch_system_t\000"
 8786      79737465 
 8786      6D5F7400 
 8787              	.LASF267:
 8788 1064 63686465 		.ascii	"chdebug_t\000"
ARM GAS  /tmp/cctghmAI.s 			page 169


 8788      6275675F 
 8788      7400
 8789              	.LASF251:
 8790 106e 63685F73 		.ascii	"ch_size\000"
 8790      697A6500 
 8791              	.LASF117:
 8792 1076 5F6D6273 		.ascii	"_mbsrtowcs_state\000"
 8792      72746F77 
 8792      63735F73 
 8792      74617465 
 8792      00
 8793              	.LASF293:
 8794 1087 6F757470 		.ascii	"output_queue_t\000"
 8794      75745F71 
 8794      75657565 
 8794      5F7400
 8795              	.LASF151:
 8796 1096 705F7374 		.ascii	"p_stklimit\000"
 8796      6B6C696D 
 8796      697400
 8797              	.LASF386:
 8798 10a1 74696D65 		.ascii	"time\000"
 8798      00
 8799              	.LASF10:
 8800 10a6 5F5F696E 		.ascii	"__int32_t\000"
 8800      7433325F 
 8800      7400
 8801              	.LASF335:
 8802 10b0 53445F53 		.ascii	"SD_STOP\000"
 8802      544F5000 
 8803              	.LASF370:
 8804 10b8 6F62714F 		.ascii	"obqObjectInit\000"
 8804      626A6563 
 8804      74496E69 
 8804      7400
 8805              	.LASF387:
 8806 10c6 6F73616C 		.ascii	"osalThreadQueueObjectInit\000"
 8806      54687265 
 8806      61645175 
 8806      6575654F 
 8806      626A6563 
 8807              	.LASF174:
 8808 10e0 725F6375 		.ascii	"r_current\000"
 8808      7272656E 
 8808      7400
 8809              	.LASF45:
 8810 10ea 5F666E61 		.ascii	"_fnargs\000"
 8810      72677300 
 8811              	.LASF43:
 8812 10f2 5F5F746D 		.ascii	"__tm_isdst\000"
 8812      5F697364 
 8812      737400
 8813              	.LASF226:
 8814 10fd 73655F74 		.ascii	"se_time\000"
 8814      696D6500 
 8815              	.LASF374:
 8816 1105 69627147 		.ascii	"ibqGetTimeout\000"
ARM GAS  /tmp/cctghmAI.s 			page 170


 8816      65745469 
 8816      6D656F75 
 8816      7400
 8817              	.LASF150:
 8818 1113 705F6E61 		.ascii	"p_name\000"
 8818      6D6500
 8819              	.LASF248:
 8820 111a 6D5F6E65 		.ascii	"m_next\000"
 8820      787400
 8821              	.LASF232:
 8822 1121 74625F70 		.ascii	"tb_ptr\000"
 8822      747200
 8823              	.LASF36:
 8824 1128 5F5F746D 		.ascii	"__tm_min\000"
 8824      5F6D696E 
 8824      00
 8825              	.LASF114:
 8826 1131 5F676574 		.ascii	"_getdate_err\000"
 8826      64617465 
 8826      5F657272 
 8826      00
 8827              	.LASF239:
 8828 113e 77747365 		.ascii	"wtsemp\000"
 8828      6D7000
 8829              	.LASF157:
 8830 1145 705F6D73 		.ascii	"p_msg\000"
 8830      6700
 8831              	.LASF273:
 8832 114b 656C5F6C 		.ascii	"el_listener\000"
 8832      69737465 
 8832      6E657200 
 8833              	.LASF152:
 8834 1157 705F7374 		.ascii	"p_state\000"
 8834      61746500 
 8835              		.ident	"GCC: (GNU Tools for ARM Embedded Processors 6-2017-q1-update) 6.3.1 20170215 (release) [AR
ARM GAS  /tmp/cctghmAI.s 			page 171


DEFINED SYMBOLS
                            *ABS*:0000000000000000 hal_buffers.c
     /tmp/cctghmAI.s:16     .text.port_lock:0000000000000000 $t
     /tmp/cctghmAI.s:23     .text.port_lock:0000000000000000 port_lock
     /tmp/cctghmAI.s:51     .text.port_unlock:0000000000000000 $t
     /tmp/cctghmAI.s:58     .text.port_unlock:0000000000000000 port_unlock
     /tmp/cctghmAI.s:84     .text.st_lld_get_counter:0000000000000000 $t
     /tmp/cctghmAI.s:91     .text.st_lld_get_counter:0000000000000000 st_lld_get_counter
     /tmp/cctghmAI.s:110    .text.st_lld_get_counter:000000000000000c $d
     /tmp/cctghmAI.s:115    .text.port_timer_get_time:0000000000000000 $t
     /tmp/cctghmAI.s:122    .text.port_timer_get_time:0000000000000000 port_timer_get_time
     /tmp/cctghmAI.s:144    .text.queue_init:0000000000000000 $t
     /tmp/cctghmAI.s:151    .text.queue_init:0000000000000000 queue_init
     /tmp/cctghmAI.s:179    .text.chSysLock:0000000000000000 $t
     /tmp/cctghmAI.s:186    .text.chSysLock:0000000000000000 chSysLock
     /tmp/cctghmAI.s:209    .text.chSysUnlock:0000000000000000 $t
     /tmp/cctghmAI.s:216    .text.chSysUnlock:0000000000000000 chSysUnlock
     /tmp/cctghmAI.s:257    .text.chSysUnlock:0000000000000030 $d
     /tmp/cctghmAI.s:2675   .rodata.__func__.5371:0000000000000000 __func__.5371
     /tmp/cctghmAI.s:263    .text.chVTGetSystemTimeX:0000000000000000 $t
     /tmp/cctghmAI.s:270    .text.chVTGetSystemTimeX:0000000000000000 chVTGetSystemTimeX
     /tmp/cctghmAI.s:292    .text.chThdQueueObjectInit:0000000000000000 $t
     /tmp/cctghmAI.s:299    .text.chThdQueueObjectInit:0000000000000000 chThdQueueObjectInit
     /tmp/cctghmAI.s:325    .text.osalSysLock:0000000000000000 $t
     /tmp/cctghmAI.s:332    .text.osalSysLock:0000000000000000 osalSysLock
     /tmp/cctghmAI.s:353    .text.osalSysUnlock:0000000000000000 $t
     /tmp/cctghmAI.s:360    .text.osalSysUnlock:0000000000000000 osalSysUnlock
     /tmp/cctghmAI.s:380    .text.osalOsGetSystemTimeX:0000000000000000 $t
     /tmp/cctghmAI.s:387    .text.osalOsGetSystemTimeX:0000000000000000 osalOsGetSystemTimeX
     /tmp/cctghmAI.s:408    .text.osalThreadQueueObjectInit:0000000000000000 $t
     /tmp/cctghmAI.s:415    .text.osalThreadQueueObjectInit:0000000000000000 osalThreadQueueObjectInit
     /tmp/cctghmAI.s:440    .text.osalThreadEnqueueTimeoutS:0000000000000000 $t
     /tmp/cctghmAI.s:447    .text.osalThreadEnqueueTimeoutS:0000000000000000 osalThreadEnqueueTimeoutS
     /tmp/cctghmAI.s:481    .text.osalThreadDequeueNextI:0000000000000000 $t
     /tmp/cctghmAI.s:488    .text.osalThreadDequeueNextI:0000000000000000 osalThreadDequeueNextI
     /tmp/cctghmAI.s:516    .text.osalThreadDequeueAllI:0000000000000000 $t
     /tmp/cctghmAI.s:523    .text.osalThreadDequeueAllI:0000000000000000 osalThreadDequeueAllI
     /tmp/cctghmAI.s:551    .text.ibqObjectInit:0000000000000000 $t
     /tmp/cctghmAI.s:559    .text.ibqObjectInit:0000000000000000 ibqObjectInit
     /tmp/cctghmAI.s:655    .text.ibqObjectInit:0000000000000084 $d
     /tmp/cctghmAI.s:2663   .rodata.__func__.6591:0000000000000000 __func__.6591
     /tmp/cctghmAI.s:660    .text.ibqResetI:0000000000000000 $t
     /tmp/cctghmAI.s:668    .text.ibqResetI:0000000000000000 ibqResetI
     /tmp/cctghmAI.s:720    .text.ibqGetEmptyBufferI:0000000000000000 $t
     /tmp/cctghmAI.s:728    .text.ibqGetEmptyBufferI:0000000000000000 ibqGetEmptyBufferI
     /tmp/cctghmAI.s:786    .text.ibqPostFullBufferI:0000000000000000 $t
     /tmp/cctghmAI.s:794    .text.ibqPostFullBufferI:0000000000000000 ibqPostFullBufferI
     /tmp/cctghmAI.s:902    .text.ibqPostFullBufferI:0000000000000098 $d
     /tmp/cctghmAI.s:2669   .rodata.__func__.6602:0000000000000000 __func__.6602
     /tmp/cctghmAI.s:907    .text.ibqGetFullBufferTimeout:0000000000000000 $t
     /tmp/cctghmAI.s:915    .text.ibqGetFullBufferTimeout:0000000000000000 ibqGetFullBufferTimeout
     /tmp/cctghmAI.s:964    .text.ibqGetFullBufferTimeoutS:0000000000000000 ibqGetFullBufferTimeoutS
     /tmp/cctghmAI.s:956    .text.ibqGetFullBufferTimeoutS:0000000000000000 $t
     /tmp/cctghmAI.s:1046   .text.ibqGetFullBufferTimeoutS:000000000000006c $d
     /tmp/cctghmAI.s:2681   .rodata.__func__.6616:0000000000000000 __func__.6616
     /tmp/cctghmAI.s:1051   .text.ibqReleaseEmptyBuffer:0000000000000000 $t
     /tmp/cctghmAI.s:1059   .text.ibqReleaseEmptyBuffer:0000000000000000 ibqReleaseEmptyBuffer
ARM GAS  /tmp/cctghmAI.s 			page 172


     /tmp/cctghmAI.s:1096   .text.ibqReleaseEmptyBufferS:0000000000000000 ibqReleaseEmptyBufferS
     /tmp/cctghmAI.s:1088   .text.ibqReleaseEmptyBufferS:0000000000000000 $t
     /tmp/cctghmAI.s:1172   .text.ibqReleaseEmptyBufferS:0000000000000064 $d
     /tmp/cctghmAI.s:2687   .rodata.__func__.6623:0000000000000000 __func__.6623
     /tmp/cctghmAI.s:1177   .text.ibqGetTimeout:0000000000000000 $t
     /tmp/cctghmAI.s:1185   .text.ibqGetTimeout:0000000000000000 ibqGetTimeout
     /tmp/cctghmAI.s:1265   .text.ibqReadTimeout:0000000000000000 $t
     /tmp/cctghmAI.s:1273   .text.ibqReadTimeout:0000000000000000 ibqReadTimeout
     /tmp/cctghmAI.s:1499   .text.ibqReadTimeout:0000000000000158 $d
     /tmp/cctghmAI.s:1504   .text.obqObjectInit:0000000000000000 $t
     /tmp/cctghmAI.s:1512   .text.obqObjectInit:0000000000000000 obqObjectInit
     /tmp/cctghmAI.s:1607   .text.obqObjectInit:0000000000000084 $d
     /tmp/cctghmAI.s:2693   .rodata.__func__.6649:0000000000000000 __func__.6649
     /tmp/cctghmAI.s:1612   .text.obqResetI:0000000000000000 $t
     /tmp/cctghmAI.s:1620   .text.obqResetI:0000000000000000 obqResetI
     /tmp/cctghmAI.s:1673   .text.obqGetFullBufferI:0000000000000000 $t
     /tmp/cctghmAI.s:1681   .text.obqGetFullBufferI:0000000000000000 obqGetFullBufferI
     /tmp/cctghmAI.s:1746   .text.obqReleaseEmptyBufferI:0000000000000000 $t
     /tmp/cctghmAI.s:1754   .text.obqReleaseEmptyBufferI:0000000000000000 obqReleaseEmptyBufferI
     /tmp/cctghmAI.s:1839   .text.obqReleaseEmptyBufferI:0000000000000074 $d
     /tmp/cctghmAI.s:2699   .rodata.__func__.6660:0000000000000000 __func__.6660
     /tmp/cctghmAI.s:1844   .text.obqGetEmptyBufferTimeout:0000000000000000 $t
     /tmp/cctghmAI.s:1852   .text.obqGetEmptyBufferTimeout:0000000000000000 obqGetEmptyBufferTimeout
     /tmp/cctghmAI.s:1901   .text.obqGetEmptyBufferTimeoutS:0000000000000000 obqGetEmptyBufferTimeoutS
     /tmp/cctghmAI.s:1893   .text.obqGetEmptyBufferTimeoutS:0000000000000000 $t
     /tmp/cctghmAI.s:1982   .text.obqGetEmptyBufferTimeoutS:000000000000006c $d
     /tmp/cctghmAI.s:2705   .rodata.__func__.6674:0000000000000000 __func__.6674
     /tmp/cctghmAI.s:1987   .text.obqPostFullBuffer:0000000000000000 $t
     /tmp/cctghmAI.s:1995   .text.obqPostFullBuffer:0000000000000000 obqPostFullBuffer
     /tmp/cctghmAI.s:2035   .text.obqPostFullBufferS:0000000000000000 obqPostFullBufferS
     /tmp/cctghmAI.s:2027   .text.obqPostFullBufferS:0000000000000000 $t
     /tmp/cctghmAI.s:2134   .text.obqPostFullBufferS:0000000000000088 $d
     /tmp/cctghmAI.s:2711   .rodata.__func__.6683:0000000000000000 __func__.6683
     /tmp/cctghmAI.s:2139   .text.obqPutTimeout:0000000000000000 $t
     /tmp/cctghmAI.s:2147   .text.obqPutTimeout:0000000000000000 obqPutTimeout
     /tmp/cctghmAI.s:2237   .text.obqWriteTimeout:0000000000000000 $t
     /tmp/cctghmAI.s:2245   .text.obqWriteTimeout:0000000000000000 obqWriteTimeout
     /tmp/cctghmAI.s:2475   .text.obqWriteTimeout:0000000000000160 $d
     /tmp/cctghmAI.s:2480   .text.obqTryFlushI:0000000000000000 $t
     /tmp/cctghmAI.s:2488   .text.obqTryFlushI:0000000000000000 obqTryFlushI
     /tmp/cctghmAI.s:2600   .text.obqFlush:0000000000000000 $t
     /tmp/cctghmAI.s:2608   .text.obqFlush:0000000000000000 obqFlush
     /tmp/cctghmAI.s:2660   .rodata.__func__.6591:0000000000000000 $d
     /tmp/cctghmAI.s:2666   .rodata.__func__.6602:0000000000000000 $d
     /tmp/cctghmAI.s:2672   .rodata.__func__.5371:0000000000000000 $d
     /tmp/cctghmAI.s:2678   .rodata.__func__.6616:0000000000000000 $d
     /tmp/cctghmAI.s:2684   .rodata.__func__.6623:0000000000000000 $d
     /tmp/cctghmAI.s:2690   .rodata.__func__.6649:0000000000000000 $d
     /tmp/cctghmAI.s:2696   .rodata.__func__.6660:0000000000000000 $d
     /tmp/cctghmAI.s:2702   .rodata.__func__.6674:0000000000000000 $d
     /tmp/cctghmAI.s:2708   .rodata.__func__.6683:0000000000000000 $d
                     .debug_frame:0000000000000010 $d

UNDEFINED SYMBOLS
_dbg_check_lock
_dbg_check_unlock
chSysHalt
ARM GAS  /tmp/cctghmAI.s 			page 173


ch
chThdEnqueueTimeoutS
chThdDequeueNextI
chThdDequeueAllI
chDbgCheckClassI
chDbgCheckClassS
memcpy
