ARM GAS  /tmp/ccP9mmiy.s 			page 1


   1              		.cpu cortex-m0
   2              		.eabi_attribute 20, 1
   3              		.eabi_attribute 21, 1
   4              		.eabi_attribute 23, 3
   5              		.eabi_attribute 24, 1
   6              		.eabi_attribute 25, 1
   7              		.eabi_attribute 26, 1
   8              		.eabi_attribute 30, 6
   9              		.eabi_attribute 34, 0
  10              		.eabi_attribute 18, 4
  11              		.file	"main.cpp"
  12              		.text
  13              	.Ltext0:
  14              		.cfi_sections	.debug_frame
  15              		.section	.text._ZL9port_lockv,"ax",%progbits
  16              		.align	1
  17              		.p2align 4,,15
  18              		.syntax unified
  19              		.code	16
  20              		.thumb_func
  21              		.fpu softvfp
  22              		.type	_ZL9port_lockv, %function
  23              	_ZL9port_lockv:
  24              	.LFB39:
  25              		.file 1 "ChibiOS/os/rt/ports/ARMCMx/chcore_v6m.h"
  26              		.loc 1 330 0
  27              		.cfi_startproc
  28              		@ args = 0, pretend = 0, frame = 0
  29              		@ frame_needed = 0, uses_anonymous_args = 0
  30              		@ link register save eliminated.
  31              	.LBB6:
  32              	.LBB7:
  33              		.file 2 "ChibiOS/os/ext/CMSIS/include/core_cmFunc.h"
  34              		.loc 2 344 0
  35              		.syntax divided
  36              	@ 344 "ChibiOS/os/ext/CMSIS/include/core_cmFunc.h" 1
  37 0000 72B6     		cpsid i
  38              	@ 0 "" 2
  39              		.thumb
  40              		.syntax unified
  41              	.LBE7:
  42              	.LBE6:
  43              		.loc 1 333 0
  44 0002 C046     		nop
  45              		@ sp needed
  46 0004 7047     		bx	lr
  47              		.cfi_endproc
  48              	.LFE39:
  49              		.size	_ZL9port_lockv, .-_ZL9port_lockv
  50 0006 C046     		.section	.text._ZL11port_unlockv,"ax",%progbits
  51              		.align	1
  52              		.p2align 4,,15
  53              		.syntax unified
  54              		.code	16
  55              		.thumb_func
  56              		.fpu softvfp
  57              		.type	_ZL11port_unlockv, %function
ARM GAS  /tmp/ccP9mmiy.s 			page 2


  58              	_ZL11port_unlockv:
  59              	.LFB40:
  60              		.loc 1 339 0
  61              		.cfi_startproc
  62              		@ args = 0, pretend = 0, frame = 0
  63              		@ frame_needed = 0, uses_anonymous_args = 0
  64              		@ link register save eliminated.
  65              	.LBB8:
  66              	.LBB9:
  67              		.loc 2 333 0
  68              		.syntax divided
  69              	@ 333 "ChibiOS/os/ext/CMSIS/include/core_cmFunc.h" 1
  70 0000 62B6     		cpsie i
  71              	@ 0 "" 2
  72              		.thumb
  73              		.syntax unified
  74              	.LBE9:
  75              	.LBE8:
  76              		.loc 1 342 0
  77 0002 C046     		nop
  78              		@ sp needed
  79 0004 7047     		bx	lr
  80              		.cfi_endproc
  81              	.LFE40:
  82              		.size	_ZL11port_unlockv, .-_ZL11port_unlockv
  83 0006 C046     		.section	.text._ZL18st_lld_get_counterv,"ax",%progbits
  84              		.align	1
  85              		.p2align 4,,15
  86              		.syntax unified
  87              		.code	16
  88              		.thumb_func
  89              		.fpu softvfp
  90              		.type	_ZL18st_lld_get_counterv, %function
  91              	_ZL18st_lld_get_counterv:
  92              	.LFB47:
  93              		.file 3 "ChibiOS/os/hal/ports/STM32/LLD/TIMv1/st_lld.h"
  94              		.loc 3 139 0
  95              		.cfi_startproc
  96              		@ args = 0, pretend = 0, frame = 0
  97              		@ frame_needed = 0, uses_anonymous_args = 0
  98              		@ link register save eliminated.
  99              		.loc 3 141 0
 100 0000 024B     		ldr	r3, .L5
 101 0002 5B6A     		ldr	r3, [r3, #36]
 102 0004 9BB2     		uxth	r3, r3
 103              		.loc 3 142 0
 104 0006 1800     		movs	r0, r3
 105              		@ sp needed
 106 0008 7047     		bx	lr
 107              	.L6:
 108 000a C046     		.align	2
 109              	.L5:
 110 000c 00040040 		.word	1073742848
 111              		.cfi_endproc
 112              	.LFE47:
 113              		.size	_ZL18st_lld_get_counterv, .-_ZL18st_lld_get_counterv
 114              		.section	.text._ZL19port_timer_get_timev,"ax",%progbits
ARM GAS  /tmp/ccP9mmiy.s 			page 3


 115              		.align	1
 116              		.p2align 4,,15
 117              		.syntax unified
 118              		.code	16
 119              		.thumb_func
 120              		.fpu softvfp
 121              		.type	_ZL19port_timer_get_timev, %function
 122              	_ZL19port_timer_get_timev:
 123              	.LFB56:
 124              		.file 4 "ChibiOS/os/rt/ports/ARMCMx/chcore_timer.h"
 125              		.loc 4 105 0
 126              		.cfi_startproc
 127              		@ args = 0, pretend = 0, frame = 0
 128              		@ frame_needed = 0, uses_anonymous_args = 0
 129 0000 10B5     		push	{r4, lr}
 130              		.cfi_def_cfa_offset 8
 131              		.cfi_offset 4, -8
 132              		.cfi_offset 14, -4
 133              		.loc 4 107 0
 134 0002 FFF7FEFF 		bl	_ZL18st_lld_get_counterv
 135 0006 0300     		movs	r3, r0
 136              		.loc 4 108 0
 137 0008 1800     		movs	r0, r3
 138              		@ sp needed
 139 000a 10BD     		pop	{r4, pc}
 140              		.cfi_endproc
 141              	.LFE56:
 142              		.size	_ZL19port_timer_get_timev, .-_ZL19port_timer_get_timev
 143              		.section	.text._ZL9chSysLockv,"ax",%progbits
 144              		.align	1
 145              		.p2align 4,,15
 146              		.syntax unified
 147              		.code	16
 148              		.thumb_func
 149              		.fpu softvfp
 150              		.type	_ZL9chSysLockv, %function
 151              	_ZL9chSysLockv:
 152              	.LFB78:
 153              		.file 5 "ChibiOS/os/rt/include/chsys.h"
 154              		.loc 5 346 0
 155              		.cfi_startproc
 156              		@ args = 0, pretend = 0, frame = 0
 157              		@ frame_needed = 0, uses_anonymous_args = 0
 158 0000 10B5     		push	{r4, lr}
 159              		.cfi_def_cfa_offset 8
 160              		.cfi_offset 4, -8
 161              		.cfi_offset 14, -4
 162              		.loc 5 348 0
 163 0002 FFF7FEFF 		bl	_ZL9port_lockv
 164              		.loc 5 350 0
 165 0006 FFF7FEFF 		bl	_dbg_check_lock
 166              		.loc 5 351 0
 167 000a C046     		nop
 168              		@ sp needed
 169 000c 10BD     		pop	{r4, pc}
 170              		.cfi_endproc
 171              	.LFE78:
ARM GAS  /tmp/ccP9mmiy.s 			page 4


 172              		.size	_ZL9chSysLockv, .-_ZL9chSysLockv
 173 000e C046     		.section	.text._ZL11chSysUnlockv,"ax",%progbits
 174              		.align	1
 175              		.p2align 4,,15
 176              		.syntax unified
 177              		.code	16
 178              		.thumb_func
 179              		.fpu softvfp
 180              		.type	_ZL11chSysUnlockv, %function
 181              	_ZL11chSysUnlockv:
 182              	.LFB79:
 183              		.loc 5 358 0
 184              		.cfi_startproc
 185              		@ args = 0, pretend = 0, frame = 0
 186              		@ frame_needed = 0, uses_anonymous_args = 0
 187 0000 10B5     		push	{r4, lr}
 188              		.cfi_def_cfa_offset 8
 189              		.cfi_offset 4, -8
 190              		.cfi_offset 14, -4
 191              		.loc 5 360 0
 192 0002 FFF7FEFF 		bl	_dbg_check_unlock
 193              		.loc 5 367 0
 194 0006 0A4B     		ldr	r3, .L12
 195 0008 1A68     		ldr	r2, [r3]
 196 000a 094B     		ldr	r3, .L12
 197 000c 9A42     		cmp	r2, r3
 198 000e 0BD0     		beq	.L11
 199              		.loc 5 367 0 is_stmt 0 discriminator 1
 200 0010 074B     		ldr	r3, .L12
 201 0012 9B69     		ldr	r3, [r3, #24]
 202 0014 9A68     		ldr	r2, [r3, #8]
 203 0016 064B     		ldr	r3, .L12
 204 0018 1B68     		ldr	r3, [r3]
 205 001a 9B68     		ldr	r3, [r3, #8]
 206 001c 9A42     		cmp	r2, r3
 207 001e 03D2     		bcs	.L11
 208              		.loc 5 367 0 discriminator 2
 209 0020 044B     		ldr	r3, .L12+4
 210 0022 1800     		movs	r0, r3
 211 0024 FFF7FEFF 		bl	chSysHalt
 212              	.L11:
 213              		.loc 5 371 0 is_stmt 1
 214 0028 FFF7FEFF 		bl	_ZL11port_unlockv
 215              		.loc 5 372 0
 216 002c C046     		nop
 217              		@ sp needed
 218 002e 10BD     		pop	{r4, pc}
 219              	.L13:
 220              		.align	2
 221              	.L12:
 222 0030 00000000 		.word	ch
 223 0034 00000000 		.word	_ZZL11chSysUnlockvE8__func__
 224              		.cfi_endproc
 225              	.LFE79:
 226              		.size	_ZL11chSysUnlockv, .-_ZL11chSysUnlockv
 227              		.section	.text._ZL18chVTGetSystemTimeXv,"ax",%progbits
 228              		.align	1
ARM GAS  /tmp/ccP9mmiy.s 			page 5


 229              		.p2align 4,,15
 230              		.syntax unified
 231              		.code	16
 232              		.thumb_func
 233              		.fpu softvfp
 234              		.type	_ZL18chVTGetSystemTimeXv, %function
 235              	_ZL18chVTGetSystemTimeXv:
 236              	.LFB86:
 237              		.file 6 "ChibiOS/os/rt/include/chvt.h"
 238              		.loc 6 228 0
 239              		.cfi_startproc
 240              		@ args = 0, pretend = 0, frame = 0
 241              		@ frame_needed = 0, uses_anonymous_args = 0
 242 0000 10B5     		push	{r4, lr}
 243              		.cfi_def_cfa_offset 8
 244              		.cfi_offset 4, -8
 245              		.cfi_offset 14, -4
 246              		.loc 6 233 0
 247 0002 FFF7FEFF 		bl	_ZL19port_timer_get_timev
 248 0006 0300     		movs	r3, r0
 249              		.loc 6 235 0
 250 0008 1800     		movs	r0, r3
 251              		@ sp needed
 252 000a 10BD     		pop	{r4, pc}
 253              		.cfi_endproc
 254              	.LFE86:
 255              		.size	_ZL18chVTGetSystemTimeXv, .-_ZL18chVTGetSystemTimeXv
 256              		.section	.text._ZL17chVTGetSystemTimev,"ax",%progbits
 257              		.align	1
 258              		.p2align 4,,15
 259              		.syntax unified
 260              		.code	16
 261              		.thumb_func
 262              		.fpu softvfp
 263              		.type	_ZL17chVTGetSystemTimev, %function
 264              	_ZL17chVTGetSystemTimev:
 265              	.LFB87:
 266              		.loc 6 247 0
 267              		.cfi_startproc
 268              		@ args = 0, pretend = 0, frame = 8
 269              		@ frame_needed = 0, uses_anonymous_args = 0
 270 0000 10B5     		push	{r4, lr}
 271              		.cfi_def_cfa_offset 8
 272              		.cfi_offset 4, -8
 273              		.cfi_offset 14, -4
 274 0002 82B0     		sub	sp, sp, #8
 275              		.cfi_def_cfa_offset 16
 276              		.loc 6 250 0
 277 0004 FFF7FEFF 		bl	_ZL9chSysLockv
 278              		.loc 6 251 0
 279 0008 6B46     		mov	r3, sp
 280 000a 9C1D     		adds	r4, r3, #6
 281 000c FFF7FEFF 		bl	_ZL18chVTGetSystemTimeXv
 282 0010 0300     		movs	r3, r0
 283 0012 2380     		strh	r3, [r4]
 284              		.loc 6 252 0
 285 0014 FFF7FEFF 		bl	_ZL11chSysUnlockv
ARM GAS  /tmp/ccP9mmiy.s 			page 6


 286              		.loc 6 254 0
 287 0018 6B46     		mov	r3, sp
 288 001a 0633     		adds	r3, r3, #6
 289 001c 1B88     		ldrh	r3, [r3]
 290              		.loc 6 255 0
 291 001e 1800     		movs	r0, r3
 292 0020 02B0     		add	sp, sp, #8
 293              		@ sp needed
 294 0022 10BD     		pop	{r4, pc}
 295              		.cfi_endproc
 296              	.LFE87:
 297              		.size	_ZL17chVTGetSystemTimev, .-_ZL17chVTGetSystemTimev
 298              		.section	.data._ZL6sd5cfg,"aw",%progbits
 299              		.align	2
 300              		.type	_ZL6sd5cfg, %object
 301              		.size	_ZL6sd5cfg, 16
 302              	_ZL6sd5cfg:
 303 0000 00960000 		.word	38400
 304 0004 00000000 		.space	12
 304      00000000 
 304      00000000 
 305              		.section	.text._Z8initUARTv,"ax",%progbits
 306              		.align	1
 307              		.p2align 4,,15
 308              		.global	_Z8initUARTv
 309              		.syntax unified
 310              		.code	16
 311              		.thumb_func
 312              		.fpu softvfp
 313              		.type	_Z8initUARTv, %function
 314              	_Z8initUARTv:
 315              	.LFB223:
 316              		.file 7 "main.cpp"
 317              		.loc 7 11 0
 318              		.cfi_startproc
 319              		@ args = 0, pretend = 0, frame = 0
 320              		@ frame_needed = 0, uses_anonymous_args = 0
 321 0000 10B5     		push	{r4, lr}
 322              		.cfi_def_cfa_offset 8
 323              		.cfi_offset 4, -8
 324              		.cfi_offset 14, -4
 325              		.loc 7 12 0
 326 0002 074A     		ldr	r2, .L19
 327 0004 074B     		ldr	r3, .L19+4
 328 0006 0821     		movs	r1, #8
 329 0008 1800     		movs	r0, r3
 330 000a FFF7FEFF 		bl	_pal_lld_setgroupmode
 331              		.loc 7 13 0
 332 000e 044A     		ldr	r2, .L19
 333 0010 044B     		ldr	r3, .L19+4
 334 0012 1021     		movs	r1, #16
 335 0014 1800     		movs	r0, r3
 336 0016 FFF7FEFF 		bl	_pal_lld_setgroupmode
 337              		.loc 7 14 0
 338 001a C046     		nop
 339              		@ sp needed
 340 001c 10BD     		pop	{r4, pc}
ARM GAS  /tmp/ccP9mmiy.s 			page 7


 341              	.L20:
 342 001e C046     		.align	2
 343              	.L19:
 344 0020 02020000 		.word	514
 345 0024 00040048 		.word	1207960576
 346              		.cfi_endproc
 347              	.LFE223:
 348              		.size	_Z8initUARTv, .-_Z8initUARTv
 349              		.section	.rodata
 350              		.align	2
 351              	.LC2:
 352 0000 256400   		.ascii	"%d\000"
 353              		.section	.text._Z19writeSensorDataUARTt,"ax",%progbits
 354              		.align	1
 355              		.p2align 4,,15
 356              		.global	_Z19writeSensorDataUARTt
 357              		.syntax unified
 358              		.code	16
 359              		.thumb_func
 360              		.fpu softvfp
 361              		.type	_Z19writeSensorDataUARTt, %function
 362              	_Z19writeSensorDataUARTt:
 363              	.LFB224:
 364              		.loc 7 16 0
 365              		.cfi_startproc
 366              		@ args = 0, pretend = 0, frame = 24
 367              		@ frame_needed = 0, uses_anonymous_args = 0
 368 0000 00B5     		push	{lr}
 369              		.cfi_def_cfa_offset 4
 370              		.cfi_offset 14, -4
 371 0002 87B0     		sub	sp, sp, #28
 372              		.cfi_def_cfa_offset 32
 373 0004 0200     		movs	r2, r0
 374 0006 6B46     		mov	r3, sp
 375 0008 0633     		adds	r3, r3, #6
 376 000a 1A80     		strh	r2, [r3]
 377              		.loc 7 20 0
 378 000c 6B46     		mov	r3, sp
 379 000e 0633     		adds	r3, r3, #6
 380 0010 1A88     		ldrh	r2, [r3]
 381 0012 0E49     		ldr	r1, .L22
 382 0014 03AB     		add	r3, sp, #12
 383 0016 1800     		movs	r0, r3
 384 0018 FFF7FEFF 		bl	sprintf
 385 001c 0300     		movs	r3, r0
 386 001e 0593     		str	r3, [sp, #20]
 387              		.loc 7 21 0
 388 0020 059A     		ldr	r2, [sp, #20]
 389 0022 0A49     		ldr	r1, .L22
 390 0024 02AB     		add	r3, sp, #8
 391 0026 1800     		movs	r0, r3
 392 0028 FFF7FEFF 		bl	sprintf
 393              		.loc 7 23 0
 394 002c 084B     		ldr	r3, .L22+4
 395 002e 02A9     		add	r1, sp, #8
 396 0030 0848     		ldr	r0, .L22+8
 397 0032 0122     		movs	r2, #1
ARM GAS  /tmp/ccP9mmiy.s 			page 8


 398 0034 FFF7FEFF 		bl	chOQWriteTimeout
 399              		.loc 7 24 0
 400 0038 059A     		ldr	r2, [sp, #20]
 401 003a 054B     		ldr	r3, .L22+4
 402 003c 03A9     		add	r1, sp, #12
 403 003e 0548     		ldr	r0, .L22+8
 404 0040 FFF7FEFF 		bl	chOQWriteTimeout
 405              		.loc 7 25 0
 406 0044 C046     		nop
 407 0046 07B0     		add	sp, sp, #28
 408              		@ sp needed
 409 0048 00BD     		pop	{pc}
 410              	.L23:
 411 004a C046     		.align	2
 412              	.L22:
 413 004c 00000000 		.word	.LC2
 414 0050 FFFF0000 		.word	65535
 415 0054 30000000 		.word	SD5+48
 416              		.cfi_endproc
 417              	.LFE224:
 418              		.size	_Z19writeSensorDataUARTt, .-_Z19writeSensorDataUARTt
 419              		.section	.text._Z10initSensorv,"ax",%progbits
 420              		.align	1
 421              		.p2align 4,,15
 422              		.global	_Z10initSensorv
 423              		.syntax unified
 424              		.code	16
 425              		.thumb_func
 426              		.fpu softvfp
 427              		.type	_Z10initSensorv, %function
 428              	_Z10initSensorv:
 429              	.LFB225:
 430              		.loc 7 27 0
 431              		.cfi_startproc
 432              		@ args = 0, pretend = 0, frame = 0
 433              		@ frame_needed = 0, uses_anonymous_args = 0
 434 0000 10B5     		push	{r4, lr}
 435              		.cfi_def_cfa_offset 8
 436              		.cfi_offset 4, -8
 437              		.cfi_offset 14, -4
 438              		.loc 7 30 0
 439 0002 8023     		movs	r3, #128
 440 0004 1B02     		lsls	r3, r3, #8
 441 0006 0748     		ldr	r0, .L25
 442 0008 0122     		movs	r2, #1
 443 000a 1900     		movs	r1, r3
 444 000c FFF7FEFF 		bl	_pal_lld_setgroupmode
 445              		.loc 7 31 0
 446 0010 8023     		movs	r3, #128
 447 0012 DB01     		lsls	r3, r3, #7
 448 0014 0348     		ldr	r0, .L25
 449 0016 2022     		movs	r2, #32
 450 0018 1900     		movs	r1, r3
 451 001a FFF7FEFF 		bl	_pal_lld_setgroupmode
 452              		.loc 7 32 0
 453 001e C046     		nop
 454              		@ sp needed
ARM GAS  /tmp/ccP9mmiy.s 			page 9


 455 0020 10BD     		pop	{r4, pc}
 456              	.L26:
 457 0022 C046     		.align	2
 458              	.L25:
 459 0024 00040048 		.word	1207960576
 460              		.cfi_endproc
 461              	.LFE225:
 462              		.size	_Z10initSensorv, .-_Z10initSensorv
 463              		.global	__aeabi_uidiv
 464              		.section	.text._Z9readValuev,"ax",%progbits
 465              		.align	1
 466              		.p2align 4,,15
 467              		.global	_Z9readValuev
 468              		.syntax unified
 469              		.code	16
 470              		.thumb_func
 471              		.fpu softvfp
 472              		.type	_Z9readValuev, %function
 473              	_Z9readValuev:
 474              	.LFB226:
 475              		.loc 7 34 0
 476              		.cfi_startproc
 477              		@ args = 0, pretend = 0, frame = 8
 478              		@ frame_needed = 0, uses_anonymous_args = 0
 479 0000 10B5     		push	{r4, lr}
 480              		.cfi_def_cfa_offset 8
 481              		.cfi_offset 4, -8
 482              		.cfi_offset 14, -4
 483 0002 82B0     		sub	sp, sp, #8
 484              		.cfi_def_cfa_offset 16
 485              		.loc 7 39 0
 486 0004 1F4B     		ldr	r3, .L33
 487 0006 204A     		ldr	r2, .L33+4
 488 0008 1A83     		strh	r2, [r3, #24]
 489              		.loc 7 40 0
 490 000a 0120     		movs	r0, #1
 491 000c FFF7FEFF 		bl	chThdSleep
 492              		.loc 7 41 0
 493 0010 1C4B     		ldr	r3, .L33
 494 0012 1D4A     		ldr	r2, .L33+4
 495 0014 5A83     		strh	r2, [r3, #26]
 496              	.L30:
 497              		.loc 7 44 0
 498 0016 1B4B     		ldr	r3, .L33
 499 0018 1A69     		ldr	r2, [r3, #16]
 500 001a 8023     		movs	r3, #128
 501 001c DB01     		lsls	r3, r3, #7
 502 001e 1340     		ands	r3, r2
 503 0020 5A1E     		subs	r2, r3, #1
 504 0022 9341     		sbcs	r3, r3, r2
 505 0024 DBB2     		uxtb	r3, r3
 506 0026 002B     		cmp	r3, #0
 507 0028 F5D0     		beq	.L30
 508              		.loc 7 45 0
 509 002a 6B46     		mov	r3, sp
 510 002c 9C1D     		adds	r4, r3, #6
 511 002e FFF7FEFF 		bl	_ZL17chVTGetSystemTimev
ARM GAS  /tmp/ccP9mmiy.s 			page 10


 512 0032 0300     		movs	r3, r0
 513 0034 2380     		strh	r3, [r4]
 514              	.L29:
 515              		.loc 7 49 0
 516 0036 134B     		ldr	r3, .L33
 517 0038 1A69     		ldr	r2, [r3, #16]
 518 003a 8023     		movs	r3, #128
 519 003c DB01     		lsls	r3, r3, #7
 520 003e 1340     		ands	r3, r2
 521 0040 5A1E     		subs	r2, r3, #1
 522 0042 9341     		sbcs	r3, r3, r2
 523 0044 DBB2     		uxtb	r3, r3
 524 0046 002B     		cmp	r3, #0
 525 0048 00D0     		beq	.L31
 526 004a F4E7     		b	.L29
 527              	.L31:
 528              		.loc 7 52 0
 529 004c FFF7FEFF 		bl	_ZL17chVTGetSystemTimev
 530 0050 0300     		movs	r3, r0
 531 0052 1A00     		movs	r2, r3
 532 0054 6B46     		mov	r3, sp
 533 0056 0633     		adds	r3, r3, #6
 534 0058 1B88     		ldrh	r3, [r3]
 535 005a D31A     		subs	r3, r2, r3
 536 005c 1A00     		movs	r2, r3
 537 005e 0B4B     		ldr	r3, .L33+8
 538 0060 5343     		muls	r3, r2
 539 0062 0B4A     		ldr	r2, .L33+12
 540 0064 9446     		mov	ip, r2
 541 0066 6344     		add	r3, r3, ip
 542 0068 0A49     		ldr	r1, .L33+16
 543 006a 1800     		movs	r0, r3
 544 006c FFF7FEFF 		bl	__aeabi_uidiv
 545              	.LVL0:
 546 0070 0300     		movs	r3, r0
 547 0072 1A00     		movs	r2, r3
 548 0074 01AB     		add	r3, sp, #4
 549 0076 1A80     		strh	r2, [r3]
 550 0078 01AB     		add	r3, sp, #4
 551 007a 1B88     		ldrh	r3, [r3]
 552              		.loc 7 54 0
 553 007c 1800     		movs	r0, r3
 554 007e 02B0     		add	sp, sp, #8
 555              		@ sp needed
 556 0080 10BD     		pop	{r4, pc}
 557              	.L34:
 558 0082 C046     		.align	2
 559              	.L33:
 560 0084 00040048 		.word	1207960576
 561 0088 0080FFFF 		.word	-32768
 562 008c 40420F00 		.word	1000000
 563 0090 0F270000 		.word	9999
 564 0094 10270000 		.word	10000
 565              		.cfi_endproc
 566              	.LFE226:
 567              		.size	_Z9readValuev, .-_Z9readValuev
 568              		.section	.text.main,"ax",%progbits
ARM GAS  /tmp/ccP9mmiy.s 			page 11


 569              		.align	1
 570              		.p2align 4,,15
 571              		.global	main
 572              		.syntax unified
 573              		.code	16
 574              		.thumb_func
 575              		.fpu softvfp
 576              		.type	main, %function
 577              	main:
 578              	.LFB227:
 579              		.loc 7 56 0
 580              		.cfi_startproc
 581              		@ args = 0, pretend = 0, frame = 8
 582              		@ frame_needed = 0, uses_anonymous_args = 0
 583 0000 10B5     		push	{r4, lr}
 584              		.cfi_def_cfa_offset 8
 585              		.cfi_offset 4, -8
 586              		.cfi_offset 14, -4
 587 0002 82B0     		sub	sp, sp, #8
 588              		.cfi_def_cfa_offset 16
 589              		.loc 7 57 0
 590 0004 FFF7FEFF 		bl	halInit
 591              		.loc 7 58 0
 592 0008 FFF7FEFF 		bl	chSysInit
 593              		.loc 7 60 0
 594 000c FFF7FEFF 		bl	_Z8initUARTv
 595              		.loc 7 61 0
 596 0010 FFF7FEFF 		bl	_Z10initSensorv
 597              		.loc 7 62 0
 598 0014 0A4A     		ldr	r2, .L37
 599 0016 0B4B     		ldr	r3, .L37+4
 600 0018 1100     		movs	r1, r2
 601 001a 1800     		movs	r0, r3
 602 001c FFF7FEFF 		bl	sdStart
 603              	.L36:
 604              	.LBB10:
 605              		.loc 7 65 0 discriminator 1
 606 0020 6B46     		mov	r3, sp
 607 0022 9C1D     		adds	r4, r3, #6
 608 0024 FFF7FEFF 		bl	_Z9readValuev
 609 0028 0300     		movs	r3, r0
 610 002a 2380     		strh	r3, [r4]
 611              		.loc 7 66 0 discriminator 1
 612 002c 6B46     		mov	r3, sp
 613 002e 0633     		adds	r3, r3, #6
 614 0030 1B88     		ldrh	r3, [r3]
 615 0032 1800     		movs	r0, r3
 616 0034 FFF7FEFF 		bl	_Z19writeSensorDataUARTt
 617              		.loc 7 67 0 discriminator 1
 618 0038 6420     		movs	r0, #100
 619 003a FFF7FEFF 		bl	chThdSleep
 620              	.LBE10:
 621              		.loc 7 68 0 discriminator 1
 622 003e EFE7     		b	.L36
 623              	.L38:
 624              		.align	2
 625              	.L37:
ARM GAS  /tmp/ccP9mmiy.s 			page 12


 626 0040 00000000 		.word	_ZL6sd5cfg
 627 0044 00000000 		.word	SD5
 628              		.cfi_endproc
 629              	.LFE227:
 630              		.size	main, .-main
 631              		.section	.rodata._ZZL11chSysUnlockvE8__func__,"a",%progbits
 632              		.align	2
 633              		.type	_ZZL11chSysUnlockvE8__func__, %object
 634              		.size	_ZZL11chSysUnlockvE8__func__, 12
 635              	_ZZL11chSysUnlockvE8__func__:
 636 0000 63685379 		.ascii	"chSysUnlock\000"
 636      73556E6C 
 636      6F636B00 
 637              		.text
 638              	.Letext0:
 639              		.file 8 "/home/felix/opt/gcc-arm-none-eabi-6-2017-q1-update/arm-none-eabi/include/machine/_default
 640              		.file 9 "/home/felix/opt/gcc-arm-none-eabi-6-2017-q1-update/lib/gcc/arm-none-eabi/6.3.1/include/st
 641              		.file 10 "/home/felix/opt/gcc-arm-none-eabi-6-2017-q1-update/arm-none-eabi/include/sys/lock.h"
 642              		.file 11 "/home/felix/opt/gcc-arm-none-eabi-6-2017-q1-update/arm-none-eabi/include/sys/_types.h"
 643              		.file 12 "/home/felix/opt/gcc-arm-none-eabi-6-2017-q1-update/arm-none-eabi/include/sys/reent.h"
 644              		.file 13 "/home/felix/opt/gcc-arm-none-eabi-6-2017-q1-update/arm-none-eabi/include/sys/_stdint.h"
 645              		.file 14 "ChibiOS/os/rt/ports/ARMCMx/compilers/GCC/chtypes.h"
 646              		.file 15 "ChibiOS/os/rt/include/chsystypes.h"
 647              		.file 16 "ChibiOS/os/rt/include/chschd.h"
 648              		.file 17 "ChibiOS/os/ext/CMSIS/ST/STM32F0xx/system_stm32f0xx.h"
 649              		.file 18 "ChibiOS/os/ext/CMSIS/ST/STM32F0xx/stm32f030xc.h"
 650              		.file 19 "ChibiOS/os/ext/CMSIS/ST/STM32F0xx/stm32f0xx.h"
 651              		.file 20 "ChibiOS/os/rt/ports/ARMCMx/chcore.h"
 652              		.file 21 "ChibiOS/os/hal/ports/STM32/LLD/TIMv1/stm32_tim.h"
 653              		.file 22 "ChibiOS/os/rt/include/chdebug.h"
 654              		.file 23 "ChibiOS/os/rt/include/chsem.h"
 655              		.file 24 "ChibiOS/os/rt/include/chmtx.h"
 656              		.file 25 "ChibiOS/os/rt/include/chregistry.h"
 657              		.file 26 "ChibiOS/os/rt/include/chevents.h"
 658              		.file 27 "ChibiOS/os/rt/include/chqueues.h"
 659              		.file 28 "ChibiOS/os/hal/ports/STM32/LLD/DMAv1/stm32_dma.h"
 660              		.file 29 "ChibiOS/os/hal/ports/STM32/LLD/GPIOv2/pal_lld.h"
 661              		.file 30 "ChibiOS/os/hal/include/serial.h"
 662              		.file 31 "ChibiOS/os/hal/ports/STM32/LLD/USARTv2/serial_lld.h"
 663              		.file 32 "ChibiOS/os/various/cpp_wrappers/ch.hpp"
 664              		.file 33 "/home/felix/opt/gcc-arm-none-eabi-6-2017-q1-update/arm-none-eabi/include/c++/6.3.1/arm-n
 665              		.file 34 "/home/felix/opt/gcc-arm-none-eabi-6-2017-q1-update/arm-none-eabi/include/c++/6.3.1/cstri
 666              		.file 35 "/home/felix/opt/gcc-arm-none-eabi-6-2017-q1-update/arm-none-eabi/include/string.h"
 667              		.file 36 "<built-in>"