ARM GAS  /tmp/ccBrRTc8.s 			page 1


   1              		.cpu cortex-m0
   2              		.eabi_attribute 20, 1
   3              		.eabi_attribute 21, 1
   4              		.eabi_attribute 23, 3
   5              		.eabi_attribute 24, 1
   6              		.eabi_attribute 25, 1
   7              		.eabi_attribute 26, 1
   8              		.eabi_attribute 30, 6
   9              		.eabi_attribute 34, 0
  10              		.eabi_attribute 18, 4
  11              		.file	"nvic.c"
  12              		.text
  13              	.Ltext0:
  14              		.cfi_sections	.debug_frame
  15              		.section	.text.nvicEnableVector,"ax",%progbits
  16              		.align	1
  17              		.p2align 4,,15
  18              		.global	nvicEnableVector
  19              		.syntax unified
  20              		.code	16
  21              		.thumb_func
  22              		.fpu softvfp
  23              		.type	nvicEnableVector, %function
  24              	nvicEnableVector:
  25              	.LFB182:
  26              		.file 1 "ChibiOS/os/hal/ports/common/ARMCMx/nvic.c"
  27              		.loc 1 57 0
  28              		.cfi_startproc
  29              		@ args = 0, pretend = 0, frame = 8
  30              		@ frame_needed = 0, uses_anonymous_args = 0
  31 0000 30B5     		push	{r4, r5, lr}
  32              		.cfi_def_cfa_offset 12
  33              		.cfi_offset 4, -12
  34              		.cfi_offset 5, -8
  35              		.cfi_offset 14, -4
  36 0002 83B0     		sub	sp, sp, #12
  37              		.cfi_def_cfa_offset 24
  38 0004 0190     		str	r0, [sp, #4]
  39 0006 0091     		str	r1, [sp]
  40              		.loc 1 60 0
  41 0008 1B4C     		ldr	r4, .L2
  42 000a 019B     		ldr	r3, [sp, #4]
  43 000c 9B08     		lsrs	r3, r3, #2
  44 000e 1A49     		ldr	r1, .L2
  45 0010 019A     		ldr	r2, [sp, #4]
  46 0012 9208     		lsrs	r2, r2, #2
  47 0014 C032     		adds	r2, r2, #192
  48 0016 9200     		lsls	r2, r2, #2
  49 0018 5258     		ldr	r2, [r2, r1]
  50 001a 0199     		ldr	r1, [sp, #4]
  51 001c 0320     		movs	r0, #3
  52 001e 0140     		ands	r1, r0
  53 0020 C900     		lsls	r1, r1, #3
  54 0022 FF20     		movs	r0, #255
  55 0024 8840     		lsls	r0, r0, r1
  56 0026 0100     		movs	r1, r0
  57 0028 C943     		mvns	r1, r1
ARM GAS  /tmp/ccBrRTc8.s 			page 2


  58 002a 1140     		ands	r1, r2
  59              		.loc 1 61 0
  60 002c 009A     		ldr	r2, [sp]
  61 002e 9001     		lsls	r0, r2, #6
  62 0030 019A     		ldr	r2, [sp, #4]
  63 0032 0325     		movs	r5, #3
  64 0034 2A40     		ands	r2, r5
  65 0036 D200     		lsls	r2, r2, #3
  66 0038 9040     		lsls	r0, r0, r2
  67 003a 0200     		movs	r2, r0
  68              		.loc 1 60 0
  69 003c 0A43     		orrs	r2, r1
  70 003e C033     		adds	r3, r3, #192
  71 0040 9B00     		lsls	r3, r3, #2
  72 0042 1A51     		str	r2, [r3, r4]
  73              		.loc 1 65 0
  74 0044 0C49     		ldr	r1, .L2
  75 0046 019B     		ldr	r3, [sp, #4]
  76 0048 5B09     		lsrs	r3, r3, #5
  77 004a 019A     		ldr	r2, [sp, #4]
  78 004c 1F20     		movs	r0, #31
  79 004e 0240     		ands	r2, r0
  80 0050 0120     		movs	r0, #1
  81 0052 9040     		lsls	r0, r0, r2
  82 0054 0200     		movs	r2, r0
  83 0056 6033     		adds	r3, r3, #96
  84 0058 9B00     		lsls	r3, r3, #2
  85 005a 5A50     		str	r2, [r3, r1]
  86              		.loc 1 66 0
  87 005c 0649     		ldr	r1, .L2
  88 005e 019B     		ldr	r3, [sp, #4]
  89 0060 5B09     		lsrs	r3, r3, #5
  90 0062 019A     		ldr	r2, [sp, #4]
  91 0064 1F20     		movs	r0, #31
  92 0066 0240     		ands	r2, r0
  93 0068 0120     		movs	r0, #1
  94 006a 9040     		lsls	r0, r0, r2
  95 006c 0200     		movs	r2, r0
  96 006e 9B00     		lsls	r3, r3, #2
  97 0070 5A50     		str	r2, [r3, r1]
  98              		.loc 1 67 0
  99 0072 C046     		nop
 100 0074 03B0     		add	sp, sp, #12
 101              		@ sp needed
 102 0076 30BD     		pop	{r4, r5, pc}
 103              	.L3:
 104              		.align	2
 105              	.L2:
 106 0078 00E100E0 		.word	-536813312
 107              		.cfi_endproc
 108              	.LFE182:
 109              		.size	nvicEnableVector, .-nvicEnableVector
 110              		.section	.text.nvicDisableVector,"ax",%progbits
 111              		.align	1
 112              		.p2align 4,,15
 113              		.global	nvicDisableVector
 114              		.syntax unified
ARM GAS  /tmp/ccBrRTc8.s 			page 3


 115              		.code	16
 116              		.thumb_func
 117              		.fpu softvfp
 118              		.type	nvicDisableVector, %function
 119              	nvicDisableVector:
 120              	.LFB183:
 121              		.loc 1 74 0
 122              		.cfi_startproc
 123              		@ args = 0, pretend = 0, frame = 8
 124              		@ frame_needed = 0, uses_anonymous_args = 0
 125 0000 10B5     		push	{r4, lr}
 126              		.cfi_def_cfa_offset 8
 127              		.cfi_offset 4, -8
 128              		.cfi_offset 14, -4
 129 0002 82B0     		sub	sp, sp, #8
 130              		.cfi_def_cfa_offset 16
 131 0004 0190     		str	r0, [sp, #4]
 132              		.loc 1 76 0
 133 0006 1249     		ldr	r1, .L5
 134 0008 019B     		ldr	r3, [sp, #4]
 135 000a 5B09     		lsrs	r3, r3, #5
 136 000c 019A     		ldr	r2, [sp, #4]
 137 000e 1F20     		movs	r0, #31
 138 0010 0240     		ands	r2, r0
 139 0012 0120     		movs	r0, #1
 140 0014 9040     		lsls	r0, r0, r2
 141 0016 0200     		movs	r2, r0
 142 0018 2033     		adds	r3, r3, #32
 143 001a 9B00     		lsls	r3, r3, #2
 144 001c 5A50     		str	r2, [r3, r1]
 145              		.loc 1 78 0
 146 001e 0C48     		ldr	r0, .L5
 147 0020 019B     		ldr	r3, [sp, #4]
 148 0022 9B08     		lsrs	r3, r3, #2
 149 0024 0A49     		ldr	r1, .L5
 150 0026 019A     		ldr	r2, [sp, #4]
 151 0028 9208     		lsrs	r2, r2, #2
 152 002a C032     		adds	r2, r2, #192
 153 002c 9200     		lsls	r2, r2, #2
 154 002e 5258     		ldr	r2, [r2, r1]
 155 0030 0199     		ldr	r1, [sp, #4]
 156 0032 0324     		movs	r4, #3
 157 0034 2140     		ands	r1, r4
 158 0036 C900     		lsls	r1, r1, #3
 159 0038 FF24     		movs	r4, #255
 160 003a 8C40     		lsls	r4, r4, r1
 161 003c 2100     		movs	r1, r4
 162 003e C943     		mvns	r1, r1
 163 0040 0A40     		ands	r2, r1
 164 0042 C033     		adds	r3, r3, #192
 165 0044 9B00     		lsls	r3, r3, #2
 166 0046 1A50     		str	r2, [r3, r0]
 167              		.loc 1 82 0
 168 0048 C046     		nop
 169 004a 02B0     		add	sp, sp, #8
 170              		@ sp needed
 171 004c 10BD     		pop	{r4, pc}
ARM GAS  /tmp/ccBrRTc8.s 			page 4


 172              	.L6:
 173 004e C046     		.align	2
 174              	.L5:
 175 0050 00E100E0 		.word	-536813312
 176              		.cfi_endproc
 177              	.LFE183:
 178              		.size	nvicDisableVector, .-nvicDisableVector
 179              		.section	.text.nvicSetSystemHandlerPriority,"ax",%progbits
 180              		.align	1
 181              		.p2align 4,,15
 182              		.global	nvicSetSystemHandlerPriority
 183              		.syntax unified
 184              		.code	16
 185              		.thumb_func
 186              		.fpu softvfp
 187              		.type	nvicSetSystemHandlerPriority, %function
 188              	nvicSetSystemHandlerPriority:
 189              	.LFB184:
 190              		.loc 1 90 0
 191              		.cfi_startproc
 192              		@ args = 0, pretend = 0, frame = 8
 193              		@ frame_needed = 0, uses_anonymous_args = 0
 194 0000 30B5     		push	{r4, r5, lr}
 195              		.cfi_def_cfa_offset 12
 196              		.cfi_offset 4, -12
 197              		.cfi_offset 5, -8
 198              		.cfi_offset 14, -4
 199 0002 83B0     		sub	sp, sp, #12
 200              		.cfi_def_cfa_offset 24
 201 0004 0190     		str	r0, [sp, #4]
 202 0006 0091     		str	r1, [sp]
 203              		.loc 1 92 0
 204 0008 019B     		ldr	r3, [sp, #4]
 205 000a 0B2B     		cmp	r3, #11
 206 000c 03D9     		bls	.L8
 207              		.loc 1 92 0 is_stmt 0 discriminator 2
 208 000e 174B     		ldr	r3, .L9
 209 0010 1800     		movs	r0, r3
 210 0012 FFF7FEFF 		bl	chSysHalt
 211              	.L8:
 212              		.loc 1 95 0 is_stmt 1
 213 0016 164C     		ldr	r4, .L9+4
 214 0018 019B     		ldr	r3, [sp, #4]
 215 001a 0F22     		movs	r2, #15
 216 001c 1340     		ands	r3, r2
 217 001e 083B     		subs	r3, r3, #8
 218 0020 9908     		lsrs	r1, r3, #2
 219 0022 134A     		ldr	r2, .L9+4
 220 0024 019B     		ldr	r3, [sp, #4]
 221 0026 0F20     		movs	r0, #15
 222 0028 0340     		ands	r3, r0
 223 002a 083B     		subs	r3, r3, #8
 224 002c 9B08     		lsrs	r3, r3, #2
 225 002e 0633     		adds	r3, r3, #6
 226 0030 9B00     		lsls	r3, r3, #2
 227 0032 D318     		adds	r3, r2, r3
 228 0034 0433     		adds	r3, r3, #4
ARM GAS  /tmp/ccBrRTc8.s 			page 5


 229 0036 1B68     		ldr	r3, [r3]
 230 0038 019A     		ldr	r2, [sp, #4]
 231 003a 0320     		movs	r0, #3
 232 003c 0240     		ands	r2, r0
 233 003e D200     		lsls	r2, r2, #3
 234 0040 FF20     		movs	r0, #255
 235 0042 9040     		lsls	r0, r0, r2
 236 0044 0200     		movs	r2, r0
 237 0046 D243     		mvns	r2, r2
 238 0048 1A40     		ands	r2, r3
 239              		.loc 1 96 0
 240 004a 009B     		ldr	r3, [sp]
 241 004c 9801     		lsls	r0, r3, #6
 242 004e 019B     		ldr	r3, [sp, #4]
 243 0050 0325     		movs	r5, #3
 244 0052 2B40     		ands	r3, r5
 245 0054 DB00     		lsls	r3, r3, #3
 246 0056 9840     		lsls	r0, r0, r3
 247 0058 0300     		movs	r3, r0
 248              		.loc 1 95 0
 249 005a 1A43     		orrs	r2, r3
 250 005c 8B1D     		adds	r3, r1, #6
 251 005e 9B00     		lsls	r3, r3, #2
 252 0060 E318     		adds	r3, r4, r3
 253 0062 0433     		adds	r3, r3, #4
 254 0064 1A60     		str	r2, [r3]
 255              		.loc 1 102 0
 256 0066 C046     		nop
 257 0068 03B0     		add	sp, sp, #12
 258              		@ sp needed
 259 006a 30BD     		pop	{r4, r5, pc}
 260              	.L10:
 261              		.align	2
 262              	.L9:
 263 006c 00000000 		.word	__func__.6216
 264 0070 00ED00E0 		.word	-536810240
 265              		.cfi_endproc
 266              	.LFE184:
 267              		.size	nvicSetSystemHandlerPriority, .-nvicSetSystemHandlerPriority
 268              		.section	.text.nvicClearPending,"ax",%progbits
 269              		.align	1
 270              		.p2align 4,,15
 271              		.global	nvicClearPending
 272              		.syntax unified
 273              		.code	16
 274              		.thumb_func
 275              		.fpu softvfp
 276              		.type	nvicClearPending, %function
 277              	nvicClearPending:
 278              	.LFB185:
 279              		.loc 1 109 0
 280              		.cfi_startproc
 281              		@ args = 0, pretend = 0, frame = 8
 282              		@ frame_needed = 0, uses_anonymous_args = 0
 283              		@ link register save eliminated.
 284 0000 82B0     		sub	sp, sp, #8
 285              		.cfi_def_cfa_offset 8
ARM GAS  /tmp/ccBrRTc8.s 			page 6


 286 0002 0190     		str	r0, [sp, #4]
 287              		.loc 1 111 0
 288 0004 0749     		ldr	r1, .L12
 289 0006 019B     		ldr	r3, [sp, #4]
 290 0008 5B09     		lsrs	r3, r3, #5
 291 000a 019A     		ldr	r2, [sp, #4]
 292 000c 1F20     		movs	r0, #31
 293 000e 0240     		ands	r2, r0
 294 0010 0120     		movs	r0, #1
 295 0012 9040     		lsls	r0, r0, r2
 296 0014 0200     		movs	r2, r0
 297 0016 6033     		adds	r3, r3, #96
 298 0018 9B00     		lsls	r3, r3, #2
 299 001a 5A50     		str	r2, [r3, r1]
 300              		.loc 1 112 0
 301 001c C046     		nop
 302 001e 02B0     		add	sp, sp, #8
 303              		@ sp needed
 304 0020 7047     		bx	lr
 305              	.L13:
 306 0022 C046     		.align	2
 307              	.L12:
 308 0024 00E100E0 		.word	-536813312
 309              		.cfi_endproc
 310              	.LFE185:
 311              		.size	nvicClearPending, .-nvicClearPending
 312              		.section	.rodata.__func__.6216,"a",%progbits
 313              		.align	2
 314              		.type	__func__.6216, %object
 315              		.size	__func__.6216, 29
 316              	__func__.6216:
 317 0000 6E766963 		.ascii	"nvicSetSystemHandlerPriority\000"
 317      53657453 
 317      79737465 
 317      6D48616E 
 317      646C6572 
 318              		.text
 319              	.Letext0:
 320              		.file 2 "/home/felix/opt/gcc-arm-none-eabi-6-2017-q1-update/lib/gcc/arm-none-eabi/6.3.1/include/st
 321              		.file 3 "/home/felix/opt/gcc-arm-none-eabi-6-2017-q1-update/arm-none-eabi/include/machine/_default
 322              		.file 4 "/home/felix/opt/gcc-arm-none-eabi-6-2017-q1-update/arm-none-eabi/include/sys/_stdint.h"
 323              		.file 5 "ChibiOS/os/rt/ports/ARMCMx/compilers/GCC/chtypes.h"
 324              		.file 6 "ChibiOS/os/rt/include/chsystypes.h"
 325              		.file 7 "ChibiOS/os/rt/include/chschd.h"
 326              		.file 8 "ChibiOS/os/ext/CMSIS/include/core_cm0.h"
 327              		.file 9 "ChibiOS/os/ext/CMSIS/ST/STM32F0xx/stm32f030xc.h"
 328              		.file 10 "ChibiOS/os/rt/ports/ARMCMx/chcore.h"
 329              		.file 11 "ChibiOS/os/rt/ports/ARMCMx/chcore_v6m.h"
 330              		.file 12 "ChibiOS/os/rt/include/chdebug.h"
 331              		.file 13 "ChibiOS/os/rt/include/chsem.h"
 332              		.file 14 "ChibiOS/os/rt/include/chmtx.h"
 333              		.file 15 "ChibiOS/os/rt/include/chregistry.h"
 334              		.file 16 "ChibiOS/os/ext/CMSIS/ST/STM32F0xx/system_stm32f0xx.h"
 335              		.file 17 "ChibiOS/os/rt/include/chevents.h"
 336              		.file 18 "ChibiOS/os/rt/include/chqueues.h"
 337              		.file 19 "ChibiOS/os/hal/ports/STM32/LLD/DMAv1/stm32_dma.h"
 338              		.file 20 "ChibiOS/os/hal/ports/STM32/LLD/GPIOv2/pal_lld.h"
ARM GAS  /tmp/ccBrRTc8.s 			page 7


 339              		.file 21 "ChibiOS/os/hal/include/serial.h"
 340              		.file 22 "ChibiOS/os/hal/ports/STM32/LLD/USARTv2/serial_lld.h"