ARM GAS  /tmp/ccoMVsnu.s 			page 1


   1              		.cpu cortex-m0
   2              		.eabi_attribute 20, 1
   3              		.eabi_attribute 21, 1
   4              		.eabi_attribute 23, 3
   5              		.eabi_attribute 24, 1
   6              		.eabi_attribute 25, 1
   7              		.eabi_attribute 26, 1
   8              		.eabi_attribute 30, 6
   9              		.eabi_attribute 34, 0
  10              		.eabi_attribute 18, 4
  11              		.file	"pal.c"
  12              		.text
  13              	.Ltext0:
  14              		.cfi_sections	.debug_frame
  15              		.section	.text.palReadBus,"ax",%progbits
  16              		.align	1
  17              		.p2align 4,,15
  18              		.global	palReadBus
  19              		.syntax unified
  20              		.code	16
  21              		.thumb_func
  22              		.fpu softvfp
  23              		.type	palReadBus, %function
  24              	palReadBus:
  25              	.LFB182:
  26              		.file 1 "ChibiOS/os/hal/src/pal.c"
  27              		.loc 1 65 0
  28              		.cfi_startproc
  29              		@ args = 0, pretend = 0, frame = 8
  30              		@ frame_needed = 0, uses_anonymous_args = 0
  31 0000 00B5     		push	{lr}
  32              		.cfi_def_cfa_offset 4
  33              		.cfi_offset 14, -4
  34 0002 83B0     		sub	sp, sp, #12
  35              		.cfi_def_cfa_offset 16
  36 0004 0190     		str	r0, [sp, #4]
  37              		.loc 1 67 0
  38 0006 019B     		ldr	r3, [sp, #4]
  39 0008 002B     		cmp	r3, #0
  40 000a 03D0     		beq	.L2
  41              		.loc 1 67 0 is_stmt 0 discriminator 3
  42 000c 019B     		ldr	r3, [sp, #4]
  43 000e 9B68     		ldr	r3, [r3, #8]
  44 0010 0F2B     		cmp	r3, #15
  45 0012 03D9     		bls	.L3
  46              	.L2:
  47              		.loc 1 67 0 discriminator 4
  48 0014 074B     		ldr	r3, .L5
  49 0016 1800     		movs	r0, r3
  50 0018 FFF7FEFF 		bl	chSysHalt
  51              	.L3:
  52              		.loc 1 69 0 is_stmt 1
  53 001c 019B     		ldr	r3, [sp, #4]
  54 001e 1B68     		ldr	r3, [r3]
  55 0020 1A69     		ldr	r2, [r3, #16]
  56 0022 019B     		ldr	r3, [sp, #4]
  57 0024 9B68     		ldr	r3, [r3, #8]
ARM GAS  /tmp/ccoMVsnu.s 			page 2


  58 0026 DA40     		lsrs	r2, r2, r3
  59 0028 019B     		ldr	r3, [sp, #4]
  60 002a 5B68     		ldr	r3, [r3, #4]
  61 002c 1340     		ands	r3, r2
  62              		.loc 1 70 0
  63 002e 1800     		movs	r0, r3
  64 0030 03B0     		add	sp, sp, #12
  65              		@ sp needed
  66 0032 00BD     		pop	{pc}
  67              	.L6:
  68              		.align	2
  69              	.L5:
  70 0034 00000000 		.word	__func__.6209
  71              		.cfi_endproc
  72              	.LFE182:
  73              		.size	palReadBus, .-palReadBus
  74              		.section	.text.palWriteBus,"ax",%progbits
  75              		.align	1
  76              		.p2align 4,,15
  77              		.global	palWriteBus
  78              		.syntax unified
  79              		.code	16
  80              		.thumb_func
  81              		.fpu softvfp
  82              		.type	palWriteBus, %function
  83              	palWriteBus:
  84              	.LFB183:
  85              		.loc 1 90 0
  86              		.cfi_startproc
  87              		@ args = 0, pretend = 0, frame = 8
  88              		@ frame_needed = 0, uses_anonymous_args = 0
  89 0000 00B5     		push	{lr}
  90              		.cfi_def_cfa_offset 4
  91              		.cfi_offset 14, -4
  92 0002 83B0     		sub	sp, sp, #12
  93              		.cfi_def_cfa_offset 16
  94 0004 0190     		str	r0, [sp, #4]
  95 0006 0091     		str	r1, [sp]
  96              		.loc 1 92 0
  97 0008 019B     		ldr	r3, [sp, #4]
  98 000a 002B     		cmp	r3, #0
  99 000c 03D0     		beq	.L8
 100              		.loc 1 92 0 is_stmt 0 discriminator 3
 101 000e 019B     		ldr	r3, [sp, #4]
 102 0010 9B68     		ldr	r3, [r3, #8]
 103 0012 0F2B     		cmp	r3, #15
 104 0014 03D9     		bls	.L9
 105              	.L8:
 106              		.loc 1 92 0 discriminator 4
 107 0016 0E4B     		ldr	r3, .L10
 108 0018 1800     		movs	r0, r3
 109 001a FFF7FEFF 		bl	chSysHalt
 110              	.L9:
 111              		.loc 1 94 0 is_stmt 1
 112 001e 019B     		ldr	r3, [sp, #4]
 113 0020 1B68     		ldr	r3, [r3]
 114 0022 009A     		ldr	r2, [sp]
ARM GAS  /tmp/ccoMVsnu.s 			page 3


 115 0024 D143     		mvns	r1, r2
 116 0026 019A     		ldr	r2, [sp, #4]
 117 0028 5268     		ldr	r2, [r2, #4]
 118 002a 1140     		ands	r1, r2
 119 002c 019A     		ldr	r2, [sp, #4]
 120 002e 9268     		ldr	r2, [r2, #8]
 121 0030 1032     		adds	r2, r2, #16
 122 0032 9140     		lsls	r1, r1, r2
 123 0034 019A     		ldr	r2, [sp, #4]
 124 0036 5268     		ldr	r2, [r2, #4]
 125 0038 0098     		ldr	r0, [sp]
 126 003a 1040     		ands	r0, r2
 127 003c 019A     		ldr	r2, [sp, #4]
 128 003e 9268     		ldr	r2, [r2, #8]
 129 0040 9040     		lsls	r0, r0, r2
 130 0042 0200     		movs	r2, r0
 131 0044 0A43     		orrs	r2, r1
 132 0046 9A61     		str	r2, [r3, #24]
 133              		.loc 1 95 0
 134 0048 C046     		nop
 135 004a 03B0     		add	sp, sp, #12
 136              		@ sp needed
 137 004c 00BD     		pop	{pc}
 138              	.L11:
 139 004e C046     		.align	2
 140              	.L10:
 141 0050 00000000 		.word	__func__.6214
 142              		.cfi_endproc
 143              	.LFE183:
 144              		.size	palWriteBus, .-palWriteBus
 145              		.section	.text.palSetBusMode,"ax",%progbits
 146              		.align	1
 147              		.p2align 4,,15
 148              		.global	palSetBusMode
 149              		.syntax unified
 150              		.code	16
 151              		.thumb_func
 152              		.fpu softvfp
 153              		.type	palSetBusMode, %function
 154              	palSetBusMode:
 155              	.LFB184:
 156              		.loc 1 113 0
 157              		.cfi_startproc
 158              		@ args = 0, pretend = 0, frame = 8
 159              		@ frame_needed = 0, uses_anonymous_args = 0
 160 0000 00B5     		push	{lr}
 161              		.cfi_def_cfa_offset 4
 162              		.cfi_offset 14, -4
 163 0002 83B0     		sub	sp, sp, #12
 164              		.cfi_def_cfa_offset 16
 165 0004 0190     		str	r0, [sp, #4]
 166 0006 0091     		str	r1, [sp]
 167              		.loc 1 115 0
 168 0008 019B     		ldr	r3, [sp, #4]
 169 000a 002B     		cmp	r3, #0
 170 000c 03D0     		beq	.L13
 171              		.loc 1 115 0 is_stmt 0 discriminator 3
ARM GAS  /tmp/ccoMVsnu.s 			page 4


 172 000e 019B     		ldr	r3, [sp, #4]
 173 0010 9B68     		ldr	r3, [r3, #8]
 174 0012 0F2B     		cmp	r3, #15
 175 0014 03D9     		bls	.L14
 176              	.L13:
 177              		.loc 1 115 0 discriminator 4
 178 0016 094B     		ldr	r3, .L15
 179 0018 1800     		movs	r0, r3
 180 001a FFF7FEFF 		bl	chSysHalt
 181              	.L14:
 182              		.loc 1 117 0 is_stmt 1
 183 001e 019B     		ldr	r3, [sp, #4]
 184 0020 1868     		ldr	r0, [r3]
 185 0022 019B     		ldr	r3, [sp, #4]
 186 0024 5A68     		ldr	r2, [r3, #4]
 187 0026 019B     		ldr	r3, [sp, #4]
 188 0028 9B68     		ldr	r3, [r3, #8]
 189 002a 9A40     		lsls	r2, r2, r3
 190 002c 1300     		movs	r3, r2
 191 002e 009A     		ldr	r2, [sp]
 192 0030 1900     		movs	r1, r3
 193 0032 FFF7FEFF 		bl	_pal_lld_setgroupmode
 194              		.loc 1 118 0
 195 0036 C046     		nop
 196 0038 03B0     		add	sp, sp, #12
 197              		@ sp needed
 198 003a 00BD     		pop	{pc}
 199              	.L16:
 200              		.align	2
 201              	.L15:
 202 003c 00000000 		.word	__func__.6219
 203              		.cfi_endproc
 204              	.LFE184:
 205              		.size	palSetBusMode, .-palSetBusMode
 206              		.section	.rodata.__func__.6209,"a",%progbits
 207              		.align	2
 208              		.type	__func__.6209, %object
 209              		.size	__func__.6209, 11
 210              	__func__.6209:
 211 0000 70616C52 		.ascii	"palReadBus\000"
 211      65616442 
 211      757300
 212              		.section	.rodata.__func__.6214,"a",%progbits
 213              		.align	2
 214              		.type	__func__.6214, %object
 215              		.size	__func__.6214, 12
 216              	__func__.6214:
 217 0000 70616C57 		.ascii	"palWriteBus\000"
 217      72697465 
 217      42757300 
 218              		.section	.rodata.__func__.6219,"a",%progbits
 219              		.align	2
 220              		.type	__func__.6219, %object
 221              		.size	__func__.6219, 14
 222              	__func__.6219:
 223 0000 70616C53 		.ascii	"palSetBusMode\000"
 223      65744275 
ARM GAS  /tmp/ccoMVsnu.s 			page 5


 223      734D6F64 
 223      6500
 224              		.text
 225              	.Letext0:
 226              		.file 2 "/home/felix/opt/gcc-arm-none-eabi-6-2017-q1-update/lib/gcc/arm-none-eabi/6.3.1/include/st
 227              		.file 3 "/home/felix/opt/gcc-arm-none-eabi-6-2017-q1-update/arm-none-eabi/include/machine/_default
 228              		.file 4 "/home/felix/opt/gcc-arm-none-eabi-6-2017-q1-update/arm-none-eabi/include/sys/_stdint.h"
 229              		.file 5 "/home/felix/opt/gcc-arm-none-eabi-6-2017-q1-update/arm-none-eabi/include/stdint.h"
 230              		.file 6 "ChibiOS/os/rt/ports/ARMCMx/compilers/GCC/chtypes.h"
 231              		.file 7 "ChibiOS/os/rt/include/chsystypes.h"
 232              		.file 8 "ChibiOS/os/rt/include/chschd.h"
 233              		.file 9 "ChibiOS/os/ext/CMSIS/ST/STM32F0xx/stm32f030xc.h"
 234              		.file 10 "ChibiOS/os/rt/ports/ARMCMx/chcore.h"
 235              		.file 11 "ChibiOS/os/rt/ports/ARMCMx/chcore_v6m.h"
 236              		.file 12 "ChibiOS/os/rt/include/chdebug.h"
 237              		.file 13 "ChibiOS/os/rt/include/chsem.h"
 238              		.file 14 "ChibiOS/os/rt/include/chmtx.h"
 239              		.file 15 "ChibiOS/os/rt/include/chregistry.h"
 240              		.file 16 "ChibiOS/os/ext/CMSIS/ST/STM32F0xx/system_stm32f0xx.h"
 241              		.file 17 "ChibiOS/os/rt/include/chevents.h"
 242              		.file 18 "ChibiOS/os/rt/include/chqueues.h"
 243              		.file 19 "ChibiOS/os/hal/ports/STM32/LLD/DMAv1/stm32_dma.h"
 244              		.file 20 "ChibiOS/os/hal/ports/STM32/LLD/GPIOv2/pal_lld.h"
 245              		.file 21 "ChibiOS/os/hal/include/pal.h"
 246              		.file 22 "ChibiOS/os/hal/include/serial.h"
 247              		.file 23 "ChibiOS/os/hal/ports/STM32/LLD/USARTv2/serial_lld.h"