ARM GAS  /tmp/ccoMVsnu.s 			page 1


   1              		.cpu cortex-m0
   2              		.eabi_attribute 20, 1
   3              		.eabi_attribute 21, 1
   4              		.eabi_attribute 23, 3
   5              		.eabi_attribute 24, 1
   6              		.eabi_attribute 25, 1
   7              		.eabi_attribute 26, 1
   8              		.eabi_attribute 30, 6
   9              		.eabi_attribute 34, 0
  10              		.eabi_attribute 18, 4
  11              		.file	"pal.c"
  12              		.text
  13              	.Ltext0:
  14              		.cfi_sections	.debug_frame
  15              		.section	.text.palReadBus,"ax",%progbits
  16              		.align	1
  17              		.p2align 4,,15
  18              		.global	palReadBus
  19              		.syntax unified
  20              		.code	16
  21              		.thumb_func
  22              		.fpu softvfp
  23              		.type	palReadBus, %function
  24              	palReadBus:
  25              	.LFB182:
  26              		.file 1 "ChibiOS/os/hal/src/pal.c"
  27              		.loc 1 65 0
  28              		.cfi_startproc
  29              		@ args = 0, pretend = 0, frame = 8
  30              		@ frame_needed = 0, uses_anonymous_args = 0
  31 0000 00B5     		push	{lr}
  32              		.cfi_def_cfa_offset 4
  33              		.cfi_offset 14, -4
  34 0002 83B0     		sub	sp, sp, #12
  35              		.cfi_def_cfa_offset 16
  36 0004 0190     		str	r0, [sp, #4]
  37              		.loc 1 67 0
  38 0006 019B     		ldr	r3, [sp, #4]
  39 0008 002B     		cmp	r3, #0
  40 000a 03D0     		beq	.L2
  41              		.loc 1 67 0 is_stmt 0 discriminator 3
  42 000c 019B     		ldr	r3, [sp, #4]
  43 000e 9B68     		ldr	r3, [r3, #8]
  44 0010 0F2B     		cmp	r3, #15
  45 0012 03D9     		bls	.L3
  46              	.L2:
  47              		.loc 1 67 0 discriminator 4
  48 0014 074B     		ldr	r3, .L5
  49 0016 1800     		movs	r0, r3
  50 0018 FFF7FEFF 		bl	chSysHalt
  51              	.L3:
  52              		.loc 1 69 0 is_stmt 1
  53 001c 019B     		ldr	r3, [sp, #4]
  54 001e 1B68     		ldr	r3, [r3]
  55 0020 1A69     		ldr	r2, [r3, #16]
  56 0022 019B     		ldr	r3, [sp, #4]
  57 0024 9B68     		ldr	r3, [r3, #8]
ARM GAS  /tmp/ccoMVsnu.s 			page 2


  58 0026 DA40     		lsrs	r2, r2, r3
  59 0028 019B     		ldr	r3, [sp, #4]
  60 002a 5B68     		ldr	r3, [r3, #4]
  61 002c 1340     		ands	r3, r2
  62              		.loc 1 70 0
  63 002e 1800     		movs	r0, r3
  64 0030 03B0     		add	sp, sp, #12
  65              		@ sp needed
  66 0032 00BD     		pop	{pc}
  67              	.L6:
  68              		.align	2
  69              	.L5:
  70 0034 00000000 		.word	__func__.6209
  71              		.cfi_endproc
  72              	.LFE182:
  73              		.size	palReadBus, .-palReadBus
  74              		.section	.text.palWriteBus,"ax",%progbits
  75              		.align	1
  76              		.p2align 4,,15
  77              		.global	palWriteBus
  78              		.syntax unified
  79              		.code	16
  80              		.thumb_func
  81              		.fpu softvfp
  82              		.type	palWriteBus, %function
  83              	palWriteBus:
  84              	.LFB183:
  85              		.loc 1 90 0
  86              		.cfi_startproc
  87              		@ args = 0, pretend = 0, frame = 8
  88              		@ frame_needed = 0, uses_anonymous_args = 0
  89 0000 00B5     		push	{lr}
  90              		.cfi_def_cfa_offset 4
  91              		.cfi_offset 14, -4
  92 0002 83B0     		sub	sp, sp, #12
  93              		.cfi_def_cfa_offset 16
  94 0004 0190     		str	r0, [sp, #4]
  95 0006 0091     		str	r1, [sp]
  96              		.loc 1 92 0
  97 0008 019B     		ldr	r3, [sp, #4]
  98 000a 002B     		cmp	r3, #0
  99 000c 03D0     		beq	.L8
 100              		.loc 1 92 0 is_stmt 0 discriminator 3
 101 000e 019B     		ldr	r3, [sp, #4]
 102 0010 9B68     		ldr	r3, [r3, #8]
 103 0012 0F2B     		cmp	r3, #15
 104 0014 03D9     		bls	.L9
 105              	.L8:
 106              		.loc 1 92 0 discriminator 4
 107 0016 0E4B     		ldr	r3, .L10
 108 0018 1800     		movs	r0, r3
 109 001a FFF7FEFF 		bl	chSysHalt
 110              	.L9:
 111              		.loc 1 94 0 is_stmt 1
 112 001e 019B     		ldr	r3, [sp, #4]
 113 0020 1B68     		ldr	r3, [r3]
 114 0022 009A     		ldr	r2, [sp]
ARM GAS  /tmp/ccoMVsnu.s 			page 3


 115 0024 D143     		mvns	r1, r2
 116 0026 019A     		ldr	r2, [sp, #4]
 117 0028 5268     		ldr	r2, [r2, #4]
 118 002a 1140     		ands	r1, r2
 119 002c 019A     		ldr	r2, [sp, #4]
 120 002e 9268     		ldr	r2, [r2, #8]
 121 0030 1032     		adds	r2, r2, #16
 122 0032 9140     		lsls	r1, r1, r2
 123 0034 019A     		ldr	r2, [sp, #4]
 124 0036 5268     		ldr	r2, [r2, #4]
 125 0038 0098     		ldr	r0, [sp]
 126 003a 1040     		ands	r0, r2
 127 003c 019A     		ldr	r2, [sp, #4]
 128 003e 9268     		ldr	r2, [r2, #8]
 129 0040 9040     		lsls	r0, r0, r2
 130 0042 0200     		movs	r2, r0
 131 0044 0A43     		orrs	r2, r1
 132 0046 9A61     		str	r2, [r3, #24]
 133              		.loc 1 95 0
 134 0048 C046     		nop
 135 004a 03B0     		add	sp, sp, #12
 136              		@ sp needed
 137 004c 00BD     		pop	{pc}
 138              	.L11:
 139 004e C046     		.align	2
 140              	.L10:
 141 0050 00000000 		.word	__func__.6214
 142              		.cfi_endproc
 143              	.LFE183:
 144              		.size	palWriteBus, .-palWriteBus
 145              		.section	.text.palSetBusMode,"ax",%progbits
 146              		.align	1
 147              		.p2align 4,,15
 148              		.global	palSetBusMode
 149              		.syntax unified
 150              		.code	16
 151              		.thumb_func
 152              		.fpu softvfp
 153              		.type	palSetBusMode, %function
 154              	palSetBusMode:
 155              	.LFB184:
 156              		.loc 1 113 0
 157              		.cfi_startproc
 158              		@ args = 0, pretend = 0, frame = 8
 159              		@ frame_needed = 0, uses_anonymous_args = 0
 160 0000 00B5     		push	{lr}
 161              		.cfi_def_cfa_offset 4
 162              		.cfi_offset 14, -4
 163 0002 83B0     		sub	sp, sp, #12
 164              		.cfi_def_cfa_offset 16
 165 0004 0190     		str	r0, [sp, #4]
 166 0006 0091     		str	r1, [sp]
 167              		.loc 1 115 0
 168 0008 019B     		ldr	r3, [sp, #4]
 169 000a 002B     		cmp	r3, #0
 170 000c 03D0     		beq	.L13
 171              		.loc 1 115 0 is_stmt 0 discriminator 3
ARM GAS  /tmp/ccoMVsnu.s 			page 4


 172 000e 019B     		ldr	r3, [sp, #4]
 173 0010 9B68     		ldr	r3, [r3, #8]
 174 0012 0F2B     		cmp	r3, #15
 175 0014 03D9     		bls	.L14
 176              	.L13:
 177              		.loc 1 115 0 discriminator 4
 178 0016 094B     		ldr	r3, .L15
 179 0018 1800     		movs	r0, r3
 180 001a FFF7FEFF 		bl	chSysHalt
 181              	.L14:
 182              		.loc 1 117 0 is_stmt 1
 183 001e 019B     		ldr	r3, [sp, #4]
 184 0020 1868     		ldr	r0, [r3]
 185 0022 019B     		ldr	r3, [sp, #4]
 186 0024 5A68     		ldr	r2, [r3, #4]
 187 0026 019B     		ldr	r3, [sp, #4]
 188 0028 9B68     		ldr	r3, [r3, #8]
 189 002a 9A40     		lsls	r2, r2, r3
 190 002c 1300     		movs	r3, r2
 191 002e 009A     		ldr	r2, [sp]
 192 0030 1900     		movs	r1, r3
 193 0032 FFF7FEFF 		bl	_pal_lld_setgroupmode
 194              		.loc 1 118 0
 195 0036 C046     		nop
 196 0038 03B0     		add	sp, sp, #12
 197              		@ sp needed
 198 003a 00BD     		pop	{pc}
 199              	.L16:
 200              		.align	2
 201              	.L15:
 202 003c 00000000 		.word	__func__.6219
 203              		.cfi_endproc
 204              	.LFE184:
 205              		.size	palSetBusMode, .-palSetBusMode
 206              		.section	.rodata.__func__.6209,"a",%progbits
 207              		.align	2
 208              		.type	__func__.6209, %object
 209              		.size	__func__.6209, 11
 210              	__func__.6209:
 211 0000 70616C52 		.ascii	"palReadBus\000"
 211      65616442 
 211      757300
 212              		.section	.rodata.__func__.6214,"a",%progbits
 213              		.align	2
 214              		.type	__func__.6214, %object
 215              		.size	__func__.6214, 12
 216              	__func__.6214:
 217 0000 70616C57 		.ascii	"palWriteBus\000"
 217      72697465 
 217      42757300 
 218              		.section	.rodata.__func__.6219,"a",%progbits
 219              		.align	2
 220              		.type	__func__.6219, %object
 221              		.size	__func__.6219, 14
 222              	__func__.6219:
 223 0000 70616C53 		.ascii	"palSetBusMode\000"
 223      65744275 
ARM GAS  /tmp/ccoMVsnu.s 			page 5


 223      734D6F64 
 223      6500
 224              		.text
 225              	.Letext0:
 226              		.file 2 "/home/felix/opt/gcc-arm-none-eabi-6-2017-q1-update/lib/gcc/arm-none-eabi/6.3.1/include/st
 227              		.file 3 "/home/felix/opt/gcc-arm-none-eabi-6-2017-q1-update/arm-none-eabi/include/machine/_default
 228              		.file 4 "/home/felix/opt/gcc-arm-none-eabi-6-2017-q1-update/arm-none-eabi/include/sys/_stdint.h"
 229              		.file 5 "/home/felix/opt/gcc-arm-none-eabi-6-2017-q1-update/arm-none-eabi/include/stdint.h"
 230              		.file 6 "ChibiOS/os/rt/ports/ARMCMx/compilers/GCC/chtypes.h"
 231              		.file 7 "ChibiOS/os/rt/include/chsystypes.h"
 232              		.file 8 "ChibiOS/os/rt/include/chschd.h"
 233              		.file 9 "ChibiOS/os/ext/CMSIS/ST/STM32F0xx/stm32f030xc.h"
 234              		.file 10 "ChibiOS/os/rt/ports/ARMCMx/chcore.h"
 235              		.file 11 "ChibiOS/os/rt/ports/ARMCMx/chcore_v6m.h"
 236              		.file 12 "ChibiOS/os/rt/include/chdebug.h"
 237              		.file 13 "ChibiOS/os/rt/include/chsem.h"
 238              		.file 14 "ChibiOS/os/rt/include/chmtx.h"
 239              		.file 15 "ChibiOS/os/rt/include/chregistry.h"
 240              		.file 16 "ChibiOS/os/ext/CMSIS/ST/STM32F0xx/system_stm32f0xx.h"
 241              		.file 17 "ChibiOS/os/rt/include/chevents.h"
 242              		.file 18 "ChibiOS/os/rt/include/chqueues.h"
 243              		.file 19 "ChibiOS/os/hal/ports/STM32/LLD/DMAv1/stm32_dma.h"
 244              		.file 20 "ChibiOS/os/hal/ports/STM32/LLD/GPIOv2/pal_lld.h"
 245              		.file 21 "ChibiOS/os/hal/include/pal.h"
 246              		.file 22 "ChibiOS/os/hal/include/serial.h"
 247              		.file 23 "ChibiOS/os/hal/ports/STM32/LLD/USARTv2/serial_lld.h"
 248              		.section	.debug_info,"",%progbits
 249              	.Ldebug_info0:
 250 0000 F9100000 		.4byte	0x10f9
 251 0004 0400     		.2byte	0x4
 252 0006 00000000 		.4byte	.Ldebug_abbrev0
 253 000a 04       		.byte	0x4
 254 000b 01       		.uleb128 0x1
 255 000c 5C030000 		.4byte	.LASF241
 256 0010 0C       		.byte	0xc
 257 0011 73060000 		.4byte	.LASF242
 258 0015 D2040000 		.4byte	.LASF243
 259 0019 00000000 		.4byte	.Ldebug_ranges0+0
 260 001d 00000000 		.4byte	0
 261 0021 00000000 		.4byte	.Ldebug_line0
 262 0025 02       		.uleb128 0x2
 263 0026 04       		.byte	0x4
 264 0027 05       		.byte	0x5
 265 0028 696E7400 		.ascii	"int\000"
 266 002c 03       		.uleb128 0x3
 267 002d 12030000 		.4byte	.LASF4
 268 0031 02       		.byte	0x2
 269 0032 D8       		.byte	0xd8
 270 0033 3C000000 		.4byte	0x3c
 271 0037 04       		.uleb128 0x4
 272 0038 2C000000 		.4byte	0x2c
 273 003c 05       		.uleb128 0x5
 274 003d 04       		.byte	0x4
 275 003e 07       		.byte	0x7
 276 003f D0000000 		.4byte	.LASF0
 277 0043 05       		.uleb128 0x5
 278 0044 08       		.byte	0x8
ARM GAS  /tmp/ccoMVsnu.s 			page 6


 279 0045 05       		.byte	0x5
 280 0046 F2050000 		.4byte	.LASF1
 281 004a 05       		.uleb128 0x5
 282 004b 08       		.byte	0x8
 283 004c 04       		.byte	0x4
 284 004d 39070000 		.4byte	.LASF2
 285 0051 05       		.uleb128 0x5
 286 0052 01       		.byte	0x1
 287 0053 06       		.byte	0x6
 288 0054 A6090000 		.4byte	.LASF3
 289 0058 03       		.uleb128 0x3
 290 0059 44080000 		.4byte	.LASF5
 291 005d 03       		.byte	0x3
 292 005e 2B       		.byte	0x2b
 293 005f 63000000 		.4byte	0x63
 294 0063 05       		.uleb128 0x5
 295 0064 01       		.byte	0x1
 296 0065 08       		.byte	0x8
 297 0066 1B090000 		.4byte	.LASF6
 298 006a 05       		.uleb128 0x5
 299 006b 02       		.byte	0x2
 300 006c 05       		.byte	0x5
 301 006d A8070000 		.4byte	.LASF7
 302 0071 03       		.uleb128 0x3
 303 0072 84020000 		.4byte	.LASF8
 304 0076 03       		.byte	0x3
 305 0077 39       		.byte	0x39
 306 0078 7C000000 		.4byte	0x7c
 307 007c 05       		.uleb128 0x5
 308 007d 02       		.byte	0x2
 309 007e 07       		.byte	0x7
 310 007f CE090000 		.4byte	.LASF9
 311 0083 03       		.uleb128 0x3
 312 0084 F4000000 		.4byte	.LASF10
 313 0088 03       		.byte	0x3
 314 0089 4D       		.byte	0x4d
 315 008a 8E000000 		.4byte	0x8e
 316 008e 05       		.uleb128 0x5
 317 008f 04       		.byte	0x4
 318 0090 05       		.byte	0x5
 319 0091 DA070000 		.4byte	.LASF11
 320 0095 03       		.uleb128 0x3
 321 0096 29090000 		.4byte	.LASF12
 322 009a 03       		.byte	0x3
 323 009b 4F       		.byte	0x4f
 324 009c A0000000 		.4byte	0xa0
 325 00a0 05       		.uleb128 0x5
 326 00a1 04       		.byte	0x4
 327 00a2 07       		.byte	0x7
 328 00a3 C3080000 		.4byte	.LASF13
 329 00a7 03       		.uleb128 0x3
 330 00a8 3A040000 		.4byte	.LASF14
 331 00ac 03       		.byte	0x3
 332 00ad 69       		.byte	0x69
 333 00ae B2000000 		.4byte	0xb2
 334 00b2 05       		.uleb128 0x5
 335 00b3 08       		.byte	0x8
ARM GAS  /tmp/ccoMVsnu.s 			page 7


 336 00b4 07       		.byte	0x7
 337 00b5 4D020000 		.4byte	.LASF15
 338 00b9 03       		.uleb128 0x3
 339 00ba 80050000 		.4byte	.LASF16
 340 00be 04       		.byte	0x4
 341 00bf 18       		.byte	0x18
 342 00c0 58000000 		.4byte	0x58
 343 00c4 06       		.uleb128 0x6
 344 00c5 B9000000 		.4byte	0xb9
 345 00c9 03       		.uleb128 0x3
 346 00ca 4C070000 		.4byte	.LASF17
 347 00ce 04       		.byte	0x4
 348 00cf 24       		.byte	0x24
 349 00d0 71000000 		.4byte	0x71
 350 00d4 04       		.uleb128 0x4
 351 00d5 C9000000 		.4byte	0xc9
 352 00d9 03       		.uleb128 0x3
 353 00da EF080000 		.4byte	.LASF18
 354 00de 04       		.byte	0x4
 355 00df 2C       		.byte	0x2c
 356 00e0 83000000 		.4byte	0x83
 357 00e4 03       		.uleb128 0x3
 358 00e5 D5010000 		.4byte	.LASF19
 359 00e9 04       		.byte	0x4
 360 00ea 30       		.byte	0x30
 361 00eb 95000000 		.4byte	0x95
 362 00ef 04       		.uleb128 0x4
 363 00f0 E4000000 		.4byte	0xe4
 364 00f4 03       		.uleb128 0x3
 365 00f5 17080000 		.4byte	.LASF20
 366 00f9 04       		.byte	0x4
 367 00fa 3C       		.byte	0x3c
 368 00fb A7000000 		.4byte	0xa7
 369 00ff 03       		.uleb128 0x3
 370 0100 51090000 		.4byte	.LASF21
 371 0104 05       		.byte	0x5
 372 0105 34       		.byte	0x34
 373 0106 3C000000 		.4byte	0x3c
 374 010a 03       		.uleb128 0x3
 375 010b 16070000 		.4byte	.LASF22
 376 010f 06       		.byte	0x6
 377 0110 3C       		.byte	0x3c
 378 0111 B9000000 		.4byte	0xb9
 379 0115 03       		.uleb128 0x3
 380 0116 43050000 		.4byte	.LASF23
 381 011a 06       		.byte	0x6
 382 011b 3D       		.byte	0x3d
 383 011c B9000000 		.4byte	0xb9
 384 0120 03       		.uleb128 0x3
 385 0121 BB080000 		.4byte	.LASF24
 386 0125 06       		.byte	0x6
 387 0126 3E       		.byte	0x3e
 388 0127 B9000000 		.4byte	0xb9
 389 012b 03       		.uleb128 0x3
 390 012c 34020000 		.4byte	.LASF25
 391 0130 06       		.byte	0x6
 392 0131 40       		.byte	0x40
ARM GAS  /tmp/ccoMVsnu.s 			page 8


 393 0132 E4000000 		.4byte	0xe4
 394 0136 03       		.uleb128 0x3
 395 0137 25060000 		.4byte	.LASF26
 396 013b 06       		.byte	0x6
 397 013c 41       		.byte	0x41
 398 013d D9000000 		.4byte	0xd9
 399 0141 03       		.uleb128 0x3
 400 0142 F4010000 		.4byte	.LASF27
 401 0146 06       		.byte	0x6
 402 0147 43       		.byte	0x43
 403 0148 E4000000 		.4byte	0xe4
 404 014c 03       		.uleb128 0x3
 405 014d DC060000 		.4byte	.LASF28
 406 0151 06       		.byte	0x6
 407 0152 44       		.byte	0x44
 408 0153 E4000000 		.4byte	0xe4
 409 0157 03       		.uleb128 0x3
 410 0158 8F020000 		.4byte	.LASF29
 411 015c 06       		.byte	0x6
 412 015d 45       		.byte	0x45
 413 015e D9000000 		.4byte	0xd9
 414 0162 03       		.uleb128 0x3
 415 0163 8D000000 		.4byte	.LASF30
 416 0167 07       		.byte	0x7
 417 0168 35       		.byte	0x35
 418 0169 C9000000 		.4byte	0xc9
 419 016d 03       		.uleb128 0x3
 420 016e FA020000 		.4byte	.LASF31
 421 0172 07       		.byte	0x7
 422 0173 3F       		.byte	0x3f
 423 0174 78010000 		.4byte	0x178
 424 0178 07       		.uleb128 0x7
 425 0179 BD050000 		.4byte	.LASF52
 426 017d 48       		.byte	0x48
 427 017e 08       		.byte	0x8
 428 017f C2       		.byte	0xc2
 429 0180 71020000 		.4byte	0x271
 430 0184 08       		.uleb128 0x8
 431 0185 10080000 		.4byte	.LASF32
 432 0189 08       		.byte	0x8
 433 018a C3       		.byte	0xc3
 434 018b 7C020000 		.4byte	0x27c
 435 018f 00       		.byte	0
 436 0190 08       		.uleb128 0x8
 437 0191 AB080000 		.4byte	.LASF33
 438 0195 08       		.byte	0x8
 439 0196 C5       		.byte	0xc5
 440 0197 7C020000 		.4byte	0x27c
 441 019b 04       		.byte	0x4
 442 019c 08       		.uleb128 0x8
 443 019d 79000000 		.4byte	.LASF34
 444 01a1 08       		.byte	0x8
 445 01a2 C7       		.byte	0xc7
 446 01a3 2B010000 		.4byte	0x12b
 447 01a7 08       		.byte	0x8
 448 01a8 08       		.uleb128 0x8
 449 01a9 20080000 		.4byte	.LASF35
ARM GAS  /tmp/ccoMVsnu.s 			page 9


 450 01ad 08       		.byte	0x8
 451 01ae C8       		.byte	0xc8
 452 01af 2C060000 		.4byte	0x62c
 453 01b3 0C       		.byte	0xc
 454 01b4 08       		.uleb128 0x8
 455 01b5 C8020000 		.4byte	.LASF36
 456 01b9 08       		.byte	0x8
 457 01ba CA       		.byte	0xca
 458 01bb 7C020000 		.4byte	0x27c
 459 01bf 10       		.byte	0x10
 460 01c0 08       		.uleb128 0x8
 461 01c1 65050000 		.4byte	.LASF37
 462 01c5 08       		.byte	0x8
 463 01c6 CB       		.byte	0xcb
 464 01c7 7C020000 		.4byte	0x27c
 465 01cb 14       		.byte	0x14
 466 01cc 08       		.uleb128 0x8
 467 01cd B5040000 		.4byte	.LASF38
 468 01d1 08       		.byte	0x8
 469 01d2 D2       		.byte	0xd2
 470 01d3 15080000 		.4byte	0x815
 471 01d7 18       		.byte	0x18
 472 01d8 08       		.uleb128 0x8
 473 01d9 75050000 		.4byte	.LASF39
 474 01dd 08       		.byte	0x8
 475 01de D8       		.byte	0xd8
 476 01df 2C080000 		.4byte	0x82c
 477 01e3 1C       		.byte	0x1c
 478 01e4 08       		.uleb128 0x8
 479 01e5 6D050000 		.4byte	.LASF40
 480 01e9 08       		.byte	0x8
 481 01ea DD       		.byte	0xdd
 482 01eb 15010000 		.4byte	0x115
 483 01ef 20       		.byte	0x20
 484 01f0 08       		.uleb128 0x8
 485 01f1 39060000 		.4byte	.LASF41
 486 01f5 08       		.byte	0x8
 487 01f6 E1       		.byte	0xe1
 488 01f7 0A010000 		.4byte	0x10a
 489 01fb 21       		.byte	0x21
 490 01fc 08       		.uleb128 0x8
 491 01fd 4A090000 		.4byte	.LASF42
 492 0201 08       		.byte	0x8
 493 0202 E6       		.byte	0xe6
 494 0203 20010000 		.4byte	0x120
 495 0207 22       		.byte	0x22
 496 0208 09       		.uleb128 0x9
 497 0209 705F7500 		.ascii	"p_u\000"
 498 020d 08       		.byte	0x8
 499 020e 3101     		.2byte	0x131
 500 0210 50070000 		.4byte	0x750
 501 0214 24       		.byte	0x24
 502 0215 0A       		.uleb128 0xa
 503 0216 31000000 		.4byte	.LASF43
 504 021a 08       		.byte	0x8
 505 021b 3601     		.2byte	0x136
 506 021d 82020000 		.4byte	0x282
ARM GAS  /tmp/ccoMVsnu.s 			page 10


 507 0221 28       		.byte	0x28
 508 0222 0A       		.uleb128 0xa
 509 0223 C5000000 		.4byte	.LASF44
 510 0227 08       		.byte	0x8
 511 0228 3C01     		.2byte	0x13c
 512 022a A6020000 		.4byte	0x2a6
 513 022e 2C       		.byte	0x2c
 514 022f 0A       		.uleb128 0xa
 515 0230 0B070000 		.4byte	.LASF45
 516 0234 08       		.byte	0x8
 517 0235 4001     		.2byte	0x140
 518 0237 36010000 		.4byte	0x136
 519 023b 34       		.byte	0x34
 520 023c 0A       		.uleb128 0xa
 521 023d C7070000 		.4byte	.LASF46
 522 0241 08       		.byte	0x8
 523 0242 4601     		.2byte	0x146
 524 0244 41010000 		.4byte	0x141
 525 0248 38       		.byte	0x38
 526 0249 0A       		.uleb128 0xa
 527 024a B3050000 		.4byte	.LASF47
 528 024e 08       		.byte	0x8
 529 024f 4D01     		.2byte	0x14d
 530 0251 0F080000 		.4byte	0x80f
 531 0255 3C       		.byte	0x3c
 532 0256 0A       		.uleb128 0xa
 533 0257 89070000 		.4byte	.LASF48
 534 025b 08       		.byte	0x8
 535 025c 5101     		.2byte	0x151
 536 025e 2B010000 		.4byte	0x12b
 537 0262 40       		.byte	0x40
 538 0263 0A       		.uleb128 0xa
 539 0264 AB050000 		.4byte	.LASF49
 540 0268 08       		.byte	0x8
 541 0269 5801     		.2byte	0x158
 542 026b 59030000 		.4byte	0x359
 543 026f 44       		.byte	0x44
 544 0270 00       		.byte	0
 545 0271 03       		.uleb128 0x3
 546 0272 1C050000 		.4byte	.LASF50
 547 0276 07       		.byte	0x7
 548 0277 44       		.byte	0x44
 549 0278 7C020000 		.4byte	0x27c
 550 027c 0B       		.uleb128 0xb
 551 027d 04       		.byte	0x4
 552 027e 6D010000 		.4byte	0x16d
 553 0282 03       		.uleb128 0x3
 554 0283 DD000000 		.4byte	.LASF51
 555 0287 07       		.byte	0x7
 556 0288 49       		.byte	0x49
 557 0289 8D020000 		.4byte	0x28d
 558 028d 07       		.uleb128 0x7
 559 028e 00000000 		.4byte	.LASF53
 560 0292 04       		.byte	0x4
 561 0293 08       		.byte	0x8
 562 0294 B0       		.byte	0xb0
 563 0295 A6020000 		.4byte	0x2a6
ARM GAS  /tmp/ccoMVsnu.s 			page 11


 564 0299 08       		.uleb128 0x8
 565 029a 10080000 		.4byte	.LASF32
 566 029e 08       		.byte	0x8
 567 029f B1       		.byte	0xb1
 568 02a0 7C020000 		.4byte	0x27c
 569 02a4 00       		.byte	0
 570 02a5 00       		.byte	0
 571 02a6 03       		.uleb128 0x3
 572 02a7 10000000 		.4byte	.LASF54
 573 02ab 07       		.byte	0x7
 574 02ac 50       		.byte	0x50
 575 02ad B1020000 		.4byte	0x2b1
 576 02b1 07       		.uleb128 0x7
 577 02b2 81010000 		.4byte	.LASF55
 578 02b6 08       		.byte	0x8
 579 02b7 08       		.byte	0x8
 580 02b8 B7       		.byte	0xb7
 581 02b9 D6020000 		.4byte	0x2d6
 582 02bd 08       		.uleb128 0x8
 583 02be 10080000 		.4byte	.LASF32
 584 02c2 08       		.byte	0x8
 585 02c3 B8       		.byte	0xb8
 586 02c4 7C020000 		.4byte	0x27c
 587 02c8 00       		.byte	0
 588 02c9 08       		.uleb128 0x8
 589 02ca AB080000 		.4byte	.LASF33
 590 02ce 08       		.byte	0x8
 591 02cf B9       		.byte	0xb9
 592 02d0 7C020000 		.4byte	0x27c
 593 02d4 04       		.byte	0x4
 594 02d5 00       		.byte	0
 595 02d6 03       		.uleb128 0x3
 596 02d7 E2080000 		.4byte	.LASF56
 597 02db 07       		.byte	0x7
 598 02dc 57       		.byte	0x57
 599 02dd E1020000 		.4byte	0x2e1
 600 02e1 0C       		.uleb128 0xc
 601 02e2 4B010000 		.4byte	.LASF57
 602 02e6 1C       		.byte	0x1c
 603 02e7 08       		.byte	0x8
 604 02e8 9001     		.2byte	0x190
 605 02ea 3D030000 		.4byte	0x33d
 606 02ee 0A       		.uleb128 0xa
 607 02ef 15060000 		.4byte	.LASF58
 608 02f3 08       		.byte	0x8
 609 02f4 9101     		.2byte	0x191
 610 02f6 A6020000 		.4byte	0x2a6
 611 02fa 00       		.byte	0
 612 02fb 0A       		.uleb128 0xa
 613 02fc 00020000 		.4byte	.LASF59
 614 0300 08       		.byte	0x8
 615 0301 9201     		.2byte	0x192
 616 0303 2B010000 		.4byte	0x12b
 617 0307 08       		.byte	0x8
 618 0308 0A       		.uleb128 0xa
 619 0309 E1090000 		.4byte	.LASF60
 620 030d 08       		.byte	0x8
ARM GAS  /tmp/ccoMVsnu.s 			page 12


 621 030e 9401     		.2byte	0x194
 622 0310 2C060000 		.4byte	0x62c
 623 0314 0C       		.byte	0xc
 624 0315 0A       		.uleb128 0xa
 625 0316 1D060000 		.4byte	.LASF61
 626 031a 08       		.byte	0x8
 627 031b 9701     		.2byte	0x197
 628 031d 7C020000 		.4byte	0x27c
 629 0321 10       		.byte	0x10
 630 0322 0A       		.uleb128 0xa
 631 0323 CF060000 		.4byte	.LASF62
 632 0327 08       		.byte	0x8
 633 0328 9801     		.2byte	0x198
 634 032a 7C020000 		.4byte	0x27c
 635 032e 14       		.byte	0x14
 636 032f 0A       		.uleb128 0xa
 637 0330 BD070000 		.4byte	.LASF63
 638 0334 08       		.byte	0x8
 639 0335 9B01     		.2byte	0x19b
 640 0337 7C020000 		.4byte	0x27c
 641 033b 18       		.byte	0x18
 642 033c 00       		.byte	0
 643 033d 03       		.uleb128 0x3
 644 033e 9D010000 		.4byte	.LASF64
 645 0342 07       		.byte	0x7
 646 0343 5C       		.byte	0x5c
 647 0344 48030000 		.4byte	0x348
 648 0348 0B       		.uleb128 0xb
 649 0349 04       		.byte	0x4
 650 034a 4E030000 		.4byte	0x34e
 651 034e 0D       		.uleb128 0xd
 652 034f 59030000 		.4byte	0x359
 653 0353 0E       		.uleb128 0xe
 654 0354 59030000 		.4byte	0x359
 655 0358 00       		.byte	0
 656 0359 0F       		.uleb128 0xf
 657 035a 04       		.byte	0x4
 658 035b 03       		.uleb128 0x3
 659 035c 41060000 		.4byte	.LASF65
 660 0360 07       		.byte	0x7
 661 0361 61       		.byte	0x61
 662 0362 66030000 		.4byte	0x366
 663 0366 0C       		.uleb128 0xc
 664 0367 3C020000 		.4byte	.LASF66
 665 036b 14       		.byte	0x14
 666 036c 08       		.byte	0x8
 667 036d 6B01     		.2byte	0x16b
 668 036f B5030000 		.4byte	0x3b5
 669 0373 0A       		.uleb128 0xa
 670 0374 6C090000 		.4byte	.LASF67
 671 0378 08       		.byte	0x8
 672 0379 6C01     		.2byte	0x16c
 673 037b 32080000 		.4byte	0x832
 674 037f 00       		.byte	0
 675 0380 0A       		.uleb128 0xa
 676 0381 170A0000 		.4byte	.LASF68
 677 0385 08       		.byte	0x8
ARM GAS  /tmp/ccoMVsnu.s 			page 13


 678 0386 6D01     		.2byte	0x16d
 679 0388 32080000 		.4byte	0x832
 680 038c 04       		.byte	0x4
 681 038d 0A       		.uleb128 0xa
 682 038e C9040000 		.4byte	.LASF69
 683 0392 08       		.byte	0x8
 684 0393 6E01     		.2byte	0x16e
 685 0395 62010000 		.4byte	0x162
 686 0399 08       		.byte	0x8
 687 039a 0A       		.uleb128 0xa
 688 039b 0F0A0000 		.4byte	.LASF70
 689 039f 08       		.byte	0x8
 690 03a0 6F01     		.2byte	0x16f
 691 03a2 3D030000 		.4byte	0x33d
 692 03a6 0C       		.byte	0xc
 693 03a7 0A       		.uleb128 0xa
 694 03a8 07020000 		.4byte	.LASF71
 695 03ac 08       		.byte	0x8
 696 03ad 7101     		.2byte	0x171
 697 03af 59030000 		.4byte	0x359
 698 03b3 10       		.byte	0x10
 699 03b4 00       		.byte	0
 700 03b5 03       		.uleb128 0x3
 701 03b6 34090000 		.4byte	.LASF72
 702 03ba 07       		.byte	0x7
 703 03bb 66       		.byte	0x66
 704 03bc C0030000 		.4byte	0x3c0
 705 03c0 0C       		.uleb128 0xc
 706 03c1 D6020000 		.4byte	.LASF73
 707 03c5 0C       		.byte	0xc
 708 03c6 08       		.byte	0x8
 709 03c7 7B01     		.2byte	0x17b
 710 03c9 02040000 		.4byte	0x402
 711 03cd 0A       		.uleb128 0xa
 712 03ce 6C090000 		.4byte	.LASF67
 713 03d2 08       		.byte	0x8
 714 03d3 7C01     		.2byte	0x17c
 715 03d5 32080000 		.4byte	0x832
 716 03d9 00       		.byte	0
 717 03da 0A       		.uleb128 0xa
 718 03db 170A0000 		.4byte	.LASF68
 719 03df 08       		.byte	0x8
 720 03e0 7E01     		.2byte	0x17e
 721 03e2 32080000 		.4byte	0x832
 722 03e6 04       		.byte	0x4
 723 03e7 0A       		.uleb128 0xa
 724 03e8 C9040000 		.4byte	.LASF69
 725 03ec 08       		.byte	0x8
 726 03ed 8001     		.2byte	0x180
 727 03ef 62010000 		.4byte	0x162
 728 03f3 08       		.byte	0x8
 729 03f4 0A       		.uleb128 0xa
 730 03f5 2F050000 		.4byte	.LASF74
 731 03f9 08       		.byte	0x8
 732 03fa 8801     		.2byte	0x188
 733 03fc 62010000 		.4byte	0x162
 734 0400 0A       		.byte	0xa
ARM GAS  /tmp/ccoMVsnu.s 			page 14


 735 0401 00       		.byte	0
 736 0402 03       		.uleb128 0x3
 737 0403 E3050000 		.4byte	.LASF75
 738 0407 07       		.byte	0x7
 739 0408 6B       		.byte	0x6b
 740 0409 0D040000 		.4byte	0x40d
 741 040d 10       		.uleb128 0x10
 742 040e B9010000 		.4byte	.LASF76
 743 0412 1404     		.2byte	0x414
 744 0414 08       		.byte	0x8
 745 0415 A201     		.2byte	0x1a2
 746 0417 50040000 		.4byte	0x450
 747 041b 0A       		.uleb128 0xa
 748 041c F4060000 		.4byte	.LASF77
 749 0420 08       		.byte	0x8
 750 0421 AA01     		.2byte	0x1aa
 751 0423 1B080000 		.4byte	0x81b
 752 0427 00       		.byte	0
 753 0428 0A       		.uleb128 0xa
 754 0429 9B020000 		.4byte	.LASF78
 755 042d 08       		.byte	0x8
 756 042e AF01     		.2byte	0x1af
 757 0430 57010000 		.4byte	0x157
 758 0434 04       		.byte	0x4
 759 0435 0A       		.uleb128 0xa
 760 0436 70070000 		.4byte	.LASF79
 761 043a 08       		.byte	0x8
 762 043b B301     		.2byte	0x1b3
 763 043d 57010000 		.4byte	0x157
 764 0441 08       		.byte	0x8
 765 0442 0A       		.uleb128 0xa
 766 0443 F7080000 		.4byte	.LASF80
 767 0447 08       		.byte	0x8
 768 0448 B901     		.2byte	0x1b9
 769 044a 45070000 		.4byte	0x745
 770 044e 0C       		.byte	0xc
 771 044f 00       		.byte	0
 772 0450 03       		.uleb128 0x3
 773 0451 74090000 		.4byte	.LASF81
 774 0455 07       		.byte	0x7
 775 0456 70       		.byte	0x70
 776 0457 5B040000 		.4byte	0x45b
 777 045b 10       		.uleb128 0x10
 778 045c FF070000 		.4byte	.LASF82
 779 0460 6805     		.2byte	0x568
 780 0462 08       		.byte	0x8
 781 0463 C201     		.2byte	0x1c2
 782 0465 AD040000 		.4byte	0x4ad
 783 0469 0A       		.uleb128 0xa
 784 046a 26080000 		.4byte	.LASF83
 785 046e 08       		.byte	0x8
 786 046f C601     		.2byte	0x1c6
 787 0471 D6020000 		.4byte	0x2d6
 788 0475 00       		.byte	0
 789 0476 0A       		.uleb128 0xa
 790 0477 29010000 		.4byte	.LASF84
 791 047b 08       		.byte	0x8
ARM GAS  /tmp/ccoMVsnu.s 			page 15


 792 047c CA01     		.2byte	0x1ca
 793 047e B5030000 		.4byte	0x3b5
 794 0482 1C       		.byte	0x1c
 795 0483 09       		.uleb128 0x9
 796 0484 64626700 		.ascii	"dbg\000"
 797 0488 08       		.byte	0x8
 798 0489 CE01     		.2byte	0x1ce
 799 048b 02040000 		.4byte	0x402
 800 048f 28       		.byte	0x28
 801 0490 11       		.uleb128 0x11
 802 0491 26070000 		.4byte	.LASF85
 803 0495 08       		.byte	0x8
 804 0496 D201     		.2byte	0x1d2
 805 0498 6D010000 		.4byte	0x16d
 806 049c 3C04     		.2byte	0x43c
 807 049e 11       		.uleb128 0x11
 808 049f 59010000 		.4byte	.LASF86
 809 04a3 08       		.byte	0x8
 810 04a4 E301     		.2byte	0x1e3
 811 04a6 38080000 		.4byte	0x838
 812 04aa 8804     		.2byte	0x488
 813 04ac 00       		.byte	0
 814 04ad 05       		.uleb128 0x5
 815 04ae 04       		.byte	0x4
 816 04af 07       		.byte	0x7
 817 04b0 B2080000 		.4byte	.LASF87
 818 04b4 12       		.uleb128 0x12
 819 04b5 4F000000 		.4byte	.LASF129
 820 04b9 10       		.byte	0x10
 821 04ba 4C       		.byte	0x4c
 822 04bb E4000000 		.4byte	0xe4
 823 04bf 13       		.uleb128 0x13
 824 04c0 10       		.byte	0x10
 825 04c1 09       		.byte	0x9
 826 04c2 BE       		.byte	0xbe
 827 04c3 F8040000 		.4byte	0x4f8
 828 04c7 14       		.uleb128 0x14
 829 04c8 43435200 		.ascii	"CCR\000"
 830 04cc 09       		.byte	0x9
 831 04cd C0       		.byte	0xc0
 832 04ce EF000000 		.4byte	0xef
 833 04d2 00       		.byte	0
 834 04d3 08       		.uleb128 0x8
 835 04d4 AD010000 		.4byte	.LASF88
 836 04d8 09       		.byte	0x9
 837 04d9 C1       		.byte	0xc1
 838 04da EF000000 		.4byte	0xef
 839 04de 04       		.byte	0x4
 840 04df 08       		.uleb128 0x8
 841 04e0 ED020000 		.4byte	.LASF89
 842 04e4 09       		.byte	0x9
 843 04e5 C2       		.byte	0xc2
 844 04e6 EF000000 		.4byte	0xef
 845 04ea 08       		.byte	0x8
 846 04eb 08       		.uleb128 0x8
 847 04ec 1D010000 		.4byte	.LASF90
 848 04f0 09       		.byte	0x9
ARM GAS  /tmp/ccoMVsnu.s 			page 16


 849 04f1 C3       		.byte	0xc3
 850 04f2 EF000000 		.4byte	0xef
 851 04f6 0C       		.byte	0xc
 852 04f7 00       		.byte	0
 853 04f8 03       		.uleb128 0x3
 854 04f9 37010000 		.4byte	.LASF91
 855 04fd 09       		.byte	0x9
 856 04fe C4       		.byte	0xc4
 857 04ff BF040000 		.4byte	0x4bf
 858 0503 13       		.uleb128 0x13
 859 0504 AC       		.byte	0xac
 860 0505 09       		.byte	0x9
 861 0506 C6       		.byte	0xc6
 862 0507 3C050000 		.4byte	0x53c
 863 050b 14       		.uleb128 0x14
 864 050c 49535200 		.ascii	"ISR\000"
 865 0510 09       		.byte	0x9
 866 0511 C8       		.byte	0xc8
 867 0512 EF000000 		.4byte	0xef
 868 0516 00       		.byte	0
 869 0517 08       		.uleb128 0x8
 870 0518 F2090000 		.4byte	.LASF92
 871 051c 09       		.byte	0x9
 872 051d C9       		.byte	0xc9
 873 051e EF000000 		.4byte	0xef
 874 0522 04       		.byte	0x4
 875 0523 08       		.uleb128 0x8
 876 0524 1F0A0000 		.4byte	.LASF93
 877 0528 09       		.byte	0x9
 878 0529 CA       		.byte	0xca
 879 052a 3C050000 		.4byte	0x53c
 880 052e 08       		.byte	0x8
 881 052f 08       		.uleb128 0x8
 882 0530 F7090000 		.4byte	.LASF94
 883 0534 09       		.byte	0x9
 884 0535 CB       		.byte	0xcb
 885 0536 EF000000 		.4byte	0xef
 886 053a A8       		.byte	0xa8
 887 053b 00       		.byte	0
 888 053c 15       		.uleb128 0x15
 889 053d E4000000 		.4byte	0xe4
 890 0541 4C050000 		.4byte	0x54c
 891 0545 16       		.uleb128 0x16
 892 0546 AD040000 		.4byte	0x4ad
 893 054a 27       		.byte	0x27
 894 054b 00       		.byte	0
 895 054c 03       		.uleb128 0x3
 896 054d 5E060000 		.4byte	.LASF95
 897 0551 09       		.byte	0x9
 898 0552 CC       		.byte	0xcc
 899 0553 03050000 		.4byte	0x503
 900 0557 17       		.uleb128 0x17
 901 0558 2C       		.byte	0x2c
 902 0559 09       		.byte	0x9
 903 055a A501     		.2byte	0x1a5
 904 055c 0A060000 		.4byte	0x60a
 905 0560 09       		.uleb128 0x9
ARM GAS  /tmp/ccoMVsnu.s 			page 17


 906 0561 43523100 		.ascii	"CR1\000"
 907 0565 09       		.byte	0x9
 908 0566 A701     		.2byte	0x1a7
 909 0568 EF000000 		.4byte	0xef
 910 056c 00       		.byte	0
 911 056d 09       		.uleb128 0x9
 912 056e 43523200 		.ascii	"CR2\000"
 913 0572 09       		.byte	0x9
 914 0573 A801     		.2byte	0x1a8
 915 0575 EF000000 		.4byte	0xef
 916 0579 04       		.byte	0x4
 917 057a 09       		.uleb128 0x9
 918 057b 43523300 		.ascii	"CR3\000"
 919 057f 09       		.byte	0x9
 920 0580 A901     		.2byte	0x1a9
 921 0582 EF000000 		.4byte	0xef
 922 0586 08       		.byte	0x8
 923 0587 09       		.uleb128 0x9
 924 0588 42525200 		.ascii	"BRR\000"
 925 058c 09       		.byte	0x9
 926 058d AA01     		.2byte	0x1aa
 927 058f EF000000 		.4byte	0xef
 928 0593 0C       		.byte	0xc
 929 0594 0A       		.uleb128 0xa
 930 0595 C9010000 		.4byte	.LASF96
 931 0599 09       		.byte	0x9
 932 059a AB01     		.2byte	0x1ab
 933 059c EF000000 		.4byte	0xef
 934 05a0 10       		.byte	0x10
 935 05a1 0A       		.uleb128 0xa
 936 05a2 92050000 		.4byte	.LASF97
 937 05a6 09       		.byte	0x9
 938 05a7 AC01     		.2byte	0x1ac
 939 05a9 EF000000 		.4byte	0xef
 940 05ad 14       		.byte	0x14
 941 05ae 09       		.uleb128 0x9
 942 05af 52515200 		.ascii	"RQR\000"
 943 05b3 09       		.byte	0x9
 944 05b4 AD01     		.2byte	0x1ad
 945 05b6 EF000000 		.4byte	0xef
 946 05ba 18       		.byte	0x18
 947 05bb 09       		.uleb128 0x9
 948 05bc 49535200 		.ascii	"ISR\000"
 949 05c0 09       		.byte	0x9
 950 05c1 AE01     		.2byte	0x1ae
 951 05c3 EF000000 		.4byte	0xef
 952 05c7 1C       		.byte	0x1c
 953 05c8 09       		.uleb128 0x9
 954 05c9 49435200 		.ascii	"ICR\000"
 955 05cd 09       		.byte	0x9
 956 05ce AF01     		.2byte	0x1af
 957 05d0 EF000000 		.4byte	0xef
 958 05d4 20       		.byte	0x20
 959 05d5 09       		.uleb128 0x9
 960 05d6 52445200 		.ascii	"RDR\000"
 961 05da 09       		.byte	0x9
 962 05db B001     		.2byte	0x1b0
ARM GAS  /tmp/ccoMVsnu.s 			page 18


 963 05dd D4000000 		.4byte	0xd4
 964 05e1 24       		.byte	0x24
 965 05e2 0A       		.uleb128 0xa
 966 05e3 94070000 		.4byte	.LASF98
 967 05e7 09       		.byte	0x9
 968 05e8 B101     		.2byte	0x1b1
 969 05ea C9000000 		.4byte	0xc9
 970 05ee 26       		.byte	0x26
 971 05ef 09       		.uleb128 0x9
 972 05f0 54445200 		.ascii	"TDR\000"
 973 05f4 09       		.byte	0x9
 974 05f5 B201     		.2byte	0x1b2
 975 05f7 D4000000 		.4byte	0xd4
 976 05fb 28       		.byte	0x28
 977 05fc 0A       		.uleb128 0xa
 978 05fd 9E070000 		.4byte	.LASF99
 979 0601 09       		.byte	0x9
 980 0602 B301     		.2byte	0x1b3
 981 0604 C9000000 		.4byte	0xc9
 982 0608 2A       		.byte	0x2a
 983 0609 00       		.byte	0
 984 060a 18       		.uleb128 0x18
 985 060b 5D040000 		.4byte	.LASF100
 986 060f 09       		.byte	0x9
 987 0610 B401     		.2byte	0x1b4
 988 0612 57050000 		.4byte	0x557
 989 0616 03       		.uleb128 0x3
 990 0617 70000000 		.4byte	.LASF101
 991 061b 0A       		.byte	0xa
 992 061c 65       		.byte	0x65
 993 061d 59030000 		.4byte	0x359
 994 0621 03       		.uleb128 0x3
 995 0622 E7090000 		.4byte	.LASF102
 996 0626 0A       		.byte	0xa
 997 0627 6D       		.byte	0x6d
 998 0628 F4000000 		.4byte	0xf4
 999 062c 07       		.uleb128 0x7
 1000 062d 31060000 		.4byte	.LASF103
 1001 0631 04       		.byte	0x4
 1002 0632 0A       		.byte	0xa
 1003 0633 89       		.byte	0x89
 1004 0634 45060000 		.4byte	0x645
 1005 0638 14       		.uleb128 0x14
 1006 0639 72313300 		.ascii	"r13\000"
 1007 063d 0A       		.byte	0xa
 1008 063e 8A       		.byte	0x8a
 1009 063f B7060000 		.4byte	0x6b7
 1010 0643 00       		.byte	0
 1011 0644 00       		.byte	0
 1012 0645 07       		.uleb128 0x7
 1013 0646 E3070000 		.4byte	.LASF104
 1014 064a 24       		.byte	0x24
 1015 064b 0B       		.byte	0xb
 1016 064c A4       		.byte	0xa4
 1017 064d B7060000 		.4byte	0x6b7
 1018 0651 14       		.uleb128 0x14
 1019 0652 723800   		.ascii	"r8\000"
ARM GAS  /tmp/ccoMVsnu.s 			page 19


 1020 0655 0B       		.byte	0xb
 1021 0656 A5       		.byte	0xa5
 1022 0657 16060000 		.4byte	0x616
 1023 065b 00       		.byte	0
 1024 065c 14       		.uleb128 0x14
 1025 065d 723900   		.ascii	"r9\000"
 1026 0660 0B       		.byte	0xb
 1027 0661 A6       		.byte	0xa6
 1028 0662 16060000 		.4byte	0x616
 1029 0666 04       		.byte	0x4
 1030 0667 14       		.uleb128 0x14
 1031 0668 72313000 		.ascii	"r10\000"
 1032 066c 0B       		.byte	0xb
 1033 066d A7       		.byte	0xa7
 1034 066e 16060000 		.4byte	0x616
 1035 0672 08       		.byte	0x8
 1036 0673 14       		.uleb128 0x14
 1037 0674 72313100 		.ascii	"r11\000"
 1038 0678 0B       		.byte	0xb
 1039 0679 A8       		.byte	0xa8
 1040 067a 16060000 		.4byte	0x616
 1041 067e 0C       		.byte	0xc
 1042 067f 14       		.uleb128 0x14
 1043 0680 723400   		.ascii	"r4\000"
 1044 0683 0B       		.byte	0xb
 1045 0684 A9       		.byte	0xa9
 1046 0685 16060000 		.4byte	0x616
 1047 0689 10       		.byte	0x10
 1048 068a 14       		.uleb128 0x14
 1049 068b 723500   		.ascii	"r5\000"
 1050 068e 0B       		.byte	0xb
 1051 068f AA       		.byte	0xaa
 1052 0690 16060000 		.4byte	0x616
 1053 0694 14       		.byte	0x14
 1054 0695 14       		.uleb128 0x14
 1055 0696 723600   		.ascii	"r6\000"
 1056 0699 0B       		.byte	0xb
 1057 069a AB       		.byte	0xab
 1058 069b 16060000 		.4byte	0x616
 1059 069f 18       		.byte	0x18
 1060 06a0 14       		.uleb128 0x14
 1061 06a1 723700   		.ascii	"r7\000"
 1062 06a4 0B       		.byte	0xb
 1063 06a5 AC       		.byte	0xac
 1064 06a6 16060000 		.4byte	0x616
 1065 06aa 1C       		.byte	0x1c
 1066 06ab 14       		.uleb128 0x14
 1067 06ac 6C7200   		.ascii	"lr\000"
 1068 06af 0B       		.byte	0xb
 1069 06b0 AD       		.byte	0xad
 1070 06b1 16060000 		.4byte	0x616
 1071 06b5 20       		.byte	0x20
 1072 06b6 00       		.byte	0
 1073 06b7 0B       		.uleb128 0xb
 1074 06b8 04       		.byte	0x4
 1075 06b9 45060000 		.4byte	0x645
 1076 06bd 13       		.uleb128 0x13
ARM GAS  /tmp/ccoMVsnu.s 			page 20


 1077 06be 10       		.byte	0x10
 1078 06bf 0C       		.byte	0xc
 1079 06c0 51       		.byte	0x51
 1080 06c1 F6060000 		.4byte	0x6f6
 1081 06c5 08       		.uleb128 0x8
 1082 06c6 F2020000 		.4byte	.LASF105
 1083 06ca 0C       		.byte	0xc
 1084 06cb 55       		.byte	0x55
 1085 06cc 62010000 		.4byte	0x162
 1086 06d0 00       		.byte	0
 1087 06d1 08       		.uleb128 0x8
 1088 06d2 4C050000 		.4byte	.LASF106
 1089 06d6 0C       		.byte	0xc
 1090 06d7 59       		.byte	0x59
 1091 06d8 7C020000 		.4byte	0x27c
 1092 06dc 04       		.byte	0x4
 1093 06dd 08       		.uleb128 0x8
 1094 06de 64020000 		.4byte	.LASF107
 1095 06e2 0C       		.byte	0xc
 1096 06e3 5D       		.byte	0x5d
 1097 06e4 59030000 		.4byte	0x359
 1098 06e8 08       		.byte	0x8
 1099 06e9 08       		.uleb128 0x8
 1100 06ea FE000000 		.4byte	.LASF108
 1101 06ee 0C       		.byte	0xc
 1102 06ef 61       		.byte	0x61
 1103 06f0 B9000000 		.4byte	0xb9
 1104 06f4 0C       		.byte	0xc
 1105 06f5 00       		.byte	0
 1106 06f6 03       		.uleb128 0x3
 1107 06f7 04090000 		.4byte	.LASF109
 1108 06fb 0C       		.byte	0xc
 1109 06fc 62       		.byte	0x62
 1110 06fd BD060000 		.4byte	0x6bd
 1111 0701 19       		.uleb128 0x19
 1112 0702 0804     		.2byte	0x408
 1113 0704 0C       		.byte	0xc
 1114 0705 67       		.byte	0x67
 1115 0706 2F070000 		.4byte	0x72f
 1116 070a 08       		.uleb128 0x8
 1117 070b C7050000 		.4byte	.LASF110
 1118 070f 0C       		.byte	0xc
 1119 0710 6B       		.byte	0x6b
 1120 0711 3C000000 		.4byte	0x3c
 1121 0715 00       		.byte	0
 1122 0716 08       		.uleb128 0x8
 1123 0717 B9060000 		.4byte	.LASF111
 1124 071b 0C       		.byte	0xc
 1125 071c 6F       		.byte	0x6f
 1126 071d 2F070000 		.4byte	0x72f
 1127 0721 04       		.byte	0x4
 1128 0722 08       		.uleb128 0x8
 1129 0723 88050000 		.4byte	.LASF112
 1130 0727 0C       		.byte	0xc
 1131 0728 73       		.byte	0x73
 1132 0729 35070000 		.4byte	0x735
 1133 072d 08       		.byte	0x8
ARM GAS  /tmp/ccoMVsnu.s 			page 21


 1134 072e 00       		.byte	0
 1135 072f 0B       		.uleb128 0xb
 1136 0730 04       		.byte	0x4
 1137 0731 F6060000 		.4byte	0x6f6
 1138 0735 15       		.uleb128 0x15
 1139 0736 F6060000 		.4byte	0x6f6
 1140 073a 45070000 		.4byte	0x745
 1141 073e 16       		.uleb128 0x16
 1142 073f AD040000 		.4byte	0x4ad
 1143 0743 3F       		.byte	0x3f
 1144 0744 00       		.byte	0
 1145 0745 03       		.uleb128 0x3
 1146 0746 8D090000 		.4byte	.LASF113
 1147 074a 0C       		.byte	0xc
 1148 074b 74       		.byte	0x74
 1149 074c 01070000 		.4byte	0x701
 1150 0750 1A       		.uleb128 0x1a
 1151 0751 04       		.byte	0x4
 1152 0752 08       		.byte	0x8
 1153 0753 FA       		.byte	0xfa
 1154 0754 AD070000 		.4byte	0x7ad
 1155 0758 1B       		.uleb128 0x1b
 1156 0759 19030000 		.4byte	.LASF114
 1157 075d 08       		.byte	0x8
 1158 075e 0101     		.2byte	0x101
 1159 0760 36010000 		.4byte	0x136
 1160 0764 1B       		.uleb128 0x1b
 1161 0765 600A0000 		.4byte	.LASF115
 1162 0769 08       		.byte	0x8
 1163 076a 0801     		.2byte	0x108
 1164 076c 36010000 		.4byte	0x136
 1165 0770 1B       		.uleb128 0x1b
 1166 0771 22010000 		.4byte	.LASF116
 1167 0775 08       		.byte	0x8
 1168 0776 0F01     		.2byte	0x10f
 1169 0778 59030000 		.4byte	0x359
 1170 077c 1B       		.uleb128 0x1b
 1171 077d 87090000 		.4byte	.LASF117
 1172 0781 08       		.byte	0x8
 1173 0782 1601     		.2byte	0x116
 1174 0784 AD070000 		.4byte	0x7ad
 1175 0788 1B       		.uleb128 0x1b
 1176 0789 80090000 		.4byte	.LASF118
 1177 078d 08       		.byte	0x8
 1178 078e 1E01     		.2byte	0x11e
 1179 0790 D8070000 		.4byte	0x7d8
 1180 0794 1B       		.uleb128 0x1b
 1181 0795 5F000000 		.4byte	.LASF119
 1182 0799 08       		.byte	0x8
 1183 079a 2701     		.2byte	0x127
 1184 079c 0F080000 		.4byte	0x80f
 1185 07a0 1B       		.uleb128 0x1b
 1186 07a1 68010000 		.4byte	.LASF120
 1187 07a5 08       		.byte	0x8
 1188 07a6 2F01     		.2byte	0x12f
 1189 07a8 41010000 		.4byte	0x141
 1190 07ac 00       		.byte	0
ARM GAS  /tmp/ccoMVsnu.s 			page 22


 1191 07ad 0B       		.uleb128 0xb
 1192 07ae 04       		.byte	0x4
 1193 07af 71020000 		.4byte	0x271
 1194 07b3 07       		.uleb128 0x7
 1195 07b4 21020000 		.4byte	.LASF121
 1196 07b8 0C       		.byte	0xc
 1197 07b9 0D       		.byte	0xd
 1198 07ba 34       		.byte	0x34
 1199 07bb D8070000 		.4byte	0x7d8
 1200 07bf 08       		.uleb128 0x8
 1201 07c0 B2000000 		.4byte	.LASF122
 1202 07c4 0D       		.byte	0xd
 1203 07c5 35       		.byte	0x35
 1204 07c6 A6020000 		.4byte	0x2a6
 1205 07ca 00       		.byte	0
 1206 07cb 08       		.uleb128 0x8
 1207 07cc B3010000 		.4byte	.LASF123
 1208 07d0 0D       		.byte	0xd
 1209 07d1 37       		.byte	0x37
 1210 07d2 57010000 		.4byte	0x157
 1211 07d6 08       		.byte	0x8
 1212 07d7 00       		.byte	0
 1213 07d8 0B       		.uleb128 0xb
 1214 07d9 04       		.byte	0x4
 1215 07da B3070000 		.4byte	0x7b3
 1216 07de 07       		.uleb128 0x7
 1217 07df 31040000 		.4byte	.LASF124
 1218 07e3 10       		.byte	0x10
 1219 07e4 0E       		.byte	0xe
 1220 07e5 39       		.byte	0x39
 1221 07e6 0F080000 		.4byte	0x80f
 1222 07ea 08       		.uleb128 0x8
 1223 07eb D2070000 		.4byte	.LASF125
 1224 07ef 0E       		.byte	0xe
 1225 07f0 3A       		.byte	0x3a
 1226 07f1 A6020000 		.4byte	0x2a6
 1227 07f5 00       		.byte	0
 1228 07f6 08       		.uleb128 0x8
 1229 07f7 AA000000 		.4byte	.LASF126
 1230 07fb 0E       		.byte	0xe
 1231 07fc 3C       		.byte	0x3c
 1232 07fd 7C020000 		.4byte	0x27c
 1233 0801 08       		.byte	0x8
 1234 0802 08       		.uleb128 0x8
 1235 0803 9F090000 		.4byte	.LASF127
 1236 0807 0E       		.byte	0xe
 1237 0808 3E       		.byte	0x3e
 1238 0809 6A090000 		.4byte	0x96a
 1239 080d 0C       		.byte	0xc
 1240 080e 00       		.byte	0
 1241 080f 0B       		.uleb128 0xb
 1242 0810 04       		.byte	0x4
 1243 0811 DE070000 		.4byte	0x7de
 1244 0815 0B       		.uleb128 0xb
 1245 0816 04       		.byte	0x4
 1246 0817 27080000 		.4byte	0x827
 1247 081b 04       		.uleb128 0x4
ARM GAS  /tmp/ccoMVsnu.s 			page 23


 1248 081c 15080000 		.4byte	0x815
 1249 0820 05       		.uleb128 0x5
 1250 0821 01       		.byte	0x1
 1251 0822 08       		.byte	0x8
 1252 0823 6B000000 		.4byte	.LASF128
 1253 0827 06       		.uleb128 0x6
 1254 0828 20080000 		.4byte	0x820
 1255 082c 0B       		.uleb128 0xb
 1256 082d 04       		.byte	0x4
 1257 082e 21060000 		.4byte	0x621
 1258 0832 0B       		.uleb128 0xb
 1259 0833 04       		.byte	0x4
 1260 0834 5B030000 		.4byte	0x35b
 1261 0838 15       		.uleb128 0x15
 1262 0839 21060000 		.4byte	0x621
 1263 083d 48080000 		.4byte	0x848
 1264 0841 16       		.uleb128 0x16
 1265 0842 AD040000 		.4byte	0x4ad
 1266 0846 1B       		.byte	0x1b
 1267 0847 00       		.byte	0
 1268 0848 1C       		.uleb128 0x1c
 1269 0849 636800   		.ascii	"ch\000"
 1270 084c 08       		.byte	0x8
 1271 084d 0902     		.2byte	0x209
 1272 084f 50040000 		.4byte	0x450
 1273 0853 13       		.uleb128 0x13
 1274 0854 16       		.byte	0x16
 1275 0855 0F       		.byte	0xf
 1276 0856 34       		.byte	0x34
 1277 0857 34090000 		.4byte	0x934
 1278 085b 08       		.uleb128 0x8
 1279 085c 83080000 		.4byte	.LASF130
 1280 0860 0F       		.byte	0xf
 1281 0861 35       		.byte	0x35
 1282 0862 34090000 		.4byte	0x934
 1283 0866 00       		.byte	0
 1284 0867 08       		.uleb128 0x8
 1285 0868 98060000 		.4byte	.LASF131
 1286 086c 0F       		.byte	0xf
 1287 086d 36       		.byte	0x36
 1288 086e B9000000 		.4byte	0xb9
 1289 0872 04       		.byte	0x4
 1290 0873 08       		.uleb128 0x8
 1291 0874 1E070000 		.4byte	.LASF132
 1292 0878 0F       		.byte	0xf
 1293 0879 37       		.byte	0x37
 1294 087a B9000000 		.4byte	0xb9
 1295 087e 05       		.byte	0x5
 1296 087f 08       		.uleb128 0x8
 1297 0880 B2070000 		.4byte	.LASF133
 1298 0884 0F       		.byte	0xf
 1299 0885 38       		.byte	0x38
 1300 0886 C9000000 		.4byte	0xc9
 1301 088a 06       		.byte	0x6
 1302 088b 08       		.uleb128 0x8
 1303 088c 92010000 		.4byte	.LASF134
 1304 0890 0F       		.byte	0xf
ARM GAS  /tmp/ccoMVsnu.s 			page 24


 1305 0891 39       		.byte	0x39
 1306 0892 B9000000 		.4byte	0xb9
 1307 0896 08       		.byte	0x8
 1308 0897 08       		.uleb128 0x8
 1309 0898 E8010000 		.4byte	.LASF135
 1310 089c 0F       		.byte	0xf
 1311 089d 3A       		.byte	0x3a
 1312 089e B9000000 		.4byte	0xb9
 1313 08a2 09       		.byte	0x9
 1314 08a3 08       		.uleb128 0x8
 1315 08a4 20030000 		.4byte	.LASF136
 1316 08a8 0F       		.byte	0xf
 1317 08a9 3B       		.byte	0x3b
 1318 08aa B9000000 		.4byte	0xb9
 1319 08ae 0A       		.byte	0xa
 1320 08af 08       		.uleb128 0x8
 1321 08b0 38080000 		.4byte	.LASF137
 1322 08b4 0F       		.byte	0xf
 1323 08b5 3C       		.byte	0x3c
 1324 08b6 B9000000 		.4byte	0xb9
 1325 08ba 0B       		.byte	0xb
 1326 08bb 08       		.uleb128 0x8
 1327 08bc 8B040000 		.4byte	.LASF138
 1328 08c0 0F       		.byte	0xf
 1329 08c1 3D       		.byte	0x3d
 1330 08c2 B9000000 		.4byte	0xb9
 1331 08c6 0C       		.byte	0xc
 1332 08c7 08       		.uleb128 0x8
 1333 08c8 B2090000 		.4byte	.LASF139
 1334 08cc 0F       		.byte	0xf
 1335 08cd 3E       		.byte	0x3e
 1336 08ce B9000000 		.4byte	0xb9
 1337 08d2 0D       		.byte	0xd
 1338 08d3 08       		.uleb128 0x8
 1339 08d4 9D000000 		.4byte	.LASF140
 1340 08d8 0F       		.byte	0xf
 1341 08d9 3F       		.byte	0x3f
 1342 08da B9000000 		.4byte	0xb9
 1343 08de 0E       		.byte	0xe
 1344 08df 08       		.uleb128 0x8
 1345 08e0 07010000 		.4byte	.LASF141
 1346 08e4 0F       		.byte	0xf
 1347 08e5 40       		.byte	0x40
 1348 08e6 B9000000 		.4byte	0xb9
 1349 08ea 0F       		.byte	0xf
 1350 08eb 08       		.uleb128 0x8
 1351 08ec A5040000 		.4byte	.LASF142
 1352 08f0 0F       		.byte	0xf
 1353 08f1 41       		.byte	0x41
 1354 08f2 B9000000 		.4byte	0xb9
 1355 08f6 10       		.byte	0x10
 1356 08f7 08       		.uleb128 0x8
 1357 08f8 D5080000 		.4byte	.LASF143
 1358 08fc 0F       		.byte	0xf
 1359 08fd 43       		.byte	0x43
 1360 08fe B9000000 		.4byte	0xb9
 1361 0902 11       		.byte	0x11
ARM GAS  /tmp/ccoMVsnu.s 			page 25


 1362 0903 08       		.uleb128 0x8
 1363 0904 74010000 		.4byte	.LASF144
 1364 0908 0F       		.byte	0xf
 1365 0909 44       		.byte	0x44
 1366 090a B9000000 		.4byte	0xb9
 1367 090e 12       		.byte	0x12
 1368 090f 08       		.uleb128 0x8
 1369 0910 8C060000 		.4byte	.LASF145
 1370 0914 0F       		.byte	0xf
 1371 0915 45       		.byte	0x45
 1372 0916 B9000000 		.4byte	0xb9
 1373 091a 13       		.byte	0x13
 1374 091b 08       		.uleb128 0x8
 1375 091c 35030000 		.4byte	.LASF146
 1376 0920 0F       		.byte	0xf
 1377 0921 46       		.byte	0x46
 1378 0922 B9000000 		.4byte	0xb9
 1379 0926 14       		.byte	0x14
 1380 0927 08       		.uleb128 0x8
 1381 0928 2C080000 		.4byte	.LASF147
 1382 092c 0F       		.byte	0xf
 1383 092d 48       		.byte	0x48
 1384 092e B9000000 		.4byte	0xb9
 1385 0932 15       		.byte	0x15
 1386 0933 00       		.byte	0
 1387 0934 15       		.uleb128 0x15
 1388 0935 20080000 		.4byte	0x820
 1389 0939 44090000 		.4byte	0x944
 1390 093d 16       		.uleb128 0x16
 1391 093e AD040000 		.4byte	0x4ad
 1392 0942 03       		.byte	0x3
 1393 0943 00       		.byte	0
 1394 0944 03       		.uleb128 0x3
 1395 0945 55070000 		.4byte	.LASF148
 1396 0949 0F       		.byte	0xf
 1397 094a 49       		.byte	0x49
 1398 094b 53080000 		.4byte	0x853
 1399 094f 06       		.uleb128 0x6
 1400 0950 44090000 		.4byte	0x944
 1401 0954 12       		.uleb128 0x12
 1402 0955 060A0000 		.4byte	.LASF149
 1403 0959 0F       		.byte	0xf
 1404 095a 6E       		.byte	0x6e
 1405 095b 4F090000 		.4byte	0x94f
 1406 095f 03       		.uleb128 0x3
 1407 0960 13090000 		.4byte	.LASF150
 1408 0964 0E       		.byte	0xe
 1409 0965 34       		.byte	0x34
 1410 0966 DE070000 		.4byte	0x7de
 1411 096a 0B       		.uleb128 0xb
 1412 096b 04       		.byte	0x4
 1413 096c 5F090000 		.4byte	0x95f
 1414 0970 03       		.uleb128 0x3
 1415 0971 20000000 		.4byte	.LASF151
 1416 0975 11       		.byte	0x11
 1417 0976 34       		.byte	0x34
 1418 0977 7B090000 		.4byte	0x97b
ARM GAS  /tmp/ccoMVsnu.s 			page 26


 1419 097b 07       		.uleb128 0x7
 1420 097c 06060000 		.4byte	.LASF152
 1421 0980 14       		.byte	0x14
 1422 0981 11       		.byte	0x11
 1423 0982 39       		.byte	0x39
 1424 0983 C4090000 		.4byte	0x9c4
 1425 0987 08       		.uleb128 0x8
 1426 0988 03070000 		.4byte	.LASF153
 1427 098c 11       		.byte	0x11
 1428 098d 3A       		.byte	0x3a
 1429 098e C4090000 		.4byte	0x9c4
 1430 0992 00       		.byte	0
 1431 0993 08       		.uleb128 0x8
 1432 0994 5D080000 		.4byte	.LASF154
 1433 0998 11       		.byte	0x11
 1434 0999 3D       		.byte	0x3d
 1435 099a 7C020000 		.4byte	0x27c
 1436 099e 04       		.byte	0x4
 1437 099f 08       		.uleb128 0x8
 1438 09a0 53080000 		.4byte	.LASF155
 1439 09a4 11       		.byte	0x11
 1440 09a5 3F       		.byte	0x3f
 1441 09a6 41010000 		.4byte	0x141
 1442 09aa 08       		.byte	0x8
 1443 09ab 08       		.uleb128 0x8
 1444 09ac 570A0000 		.4byte	.LASF156
 1445 09b0 11       		.byte	0x11
 1446 09b1 41       		.byte	0x41
 1447 09b2 4C010000 		.4byte	0x14c
 1448 09b6 0C       		.byte	0xc
 1449 09b7 08       		.uleb128 0x8
 1450 09b8 03030000 		.4byte	.LASF157
 1451 09bc 11       		.byte	0x11
 1452 09bd 43       		.byte	0x43
 1453 09be 4C010000 		.4byte	0x14c
 1454 09c2 10       		.byte	0x10
 1455 09c3 00       		.byte	0
 1456 09c4 0B       		.uleb128 0xb
 1457 09c5 04       		.byte	0x4
 1458 09c6 70090000 		.4byte	0x970
 1459 09ca 07       		.uleb128 0x7
 1460 09cb 80000000 		.4byte	.LASF158
 1461 09cf 04       		.byte	0x4
 1462 09d0 11       		.byte	0x11
 1463 09d1 4A       		.byte	0x4a
 1464 09d2 E3090000 		.4byte	0x9e3
 1465 09d6 08       		.uleb128 0x8
 1466 09d7 5E090000 		.4byte	.LASF159
 1467 09db 11       		.byte	0x11
 1468 09dc 4B       		.byte	0x4b
 1469 09dd C4090000 		.4byte	0x9c4
 1470 09e1 00       		.byte	0
 1471 09e2 00       		.byte	0
 1472 09e3 03       		.uleb128 0x3
 1473 09e4 75020000 		.4byte	.LASF160
 1474 09e8 11       		.byte	0x11
 1475 09e9 4E       		.byte	0x4e
ARM GAS  /tmp/ccoMVsnu.s 			page 27


 1476 09ea CA090000 		.4byte	0x9ca
 1477 09ee 05       		.uleb128 0x5
 1478 09ef 01       		.byte	0x1
 1479 09f0 02       		.byte	0x2
 1480 09f1 4E030000 		.4byte	.LASF161
 1481 09f5 03       		.uleb128 0x3
 1482 09f6 BA000000 		.4byte	.LASF162
 1483 09fa 12       		.byte	0x12
 1484 09fb 3F       		.byte	0x3f
 1485 09fc 000A0000 		.4byte	0xa00
 1486 0a00 07       		.uleb128 0x7
 1487 0a01 BF090000 		.4byte	.LASF163
 1488 0a05 24       		.byte	0x24
 1489 0a06 12       		.byte	0x12
 1490 0a07 4D       		.byte	0x4d
 1491 0a08 6D0A0000 		.4byte	0xa6d
 1492 0a0c 08       		.uleb128 0x8
 1493 0a0d DE010000 		.4byte	.LASF164
 1494 0a11 12       		.byte	0x12
 1495 0a12 4E       		.byte	0x4e
 1496 0a13 A6020000 		.4byte	0x2a6
 1497 0a17 00       		.byte	0
 1498 0a18 08       		.uleb128 0x8
 1499 0a19 91080000 		.4byte	.LASF165
 1500 0a1d 12       		.byte	0x12
 1501 0a1e 4F       		.byte	0x4f
 1502 0a1f 37000000 		.4byte	0x37
 1503 0a23 08       		.byte	0x8
 1504 0a24 08       		.uleb128 0x8
 1505 0a25 730A0000 		.4byte	.LASF166
 1506 0a29 12       		.byte	0x12
 1507 0a2a 50       		.byte	0x50
 1508 0a2b 8F0A0000 		.4byte	0xa8f
 1509 0a2f 0C       		.byte	0xc
 1510 0a30 08       		.uleb128 0x8
 1511 0a31 A5080000 		.4byte	.LASF167
 1512 0a35 12       		.byte	0x12
 1513 0a36 51       		.byte	0x51
 1514 0a37 8F0A0000 		.4byte	0xa8f
 1515 0a3b 10       		.byte	0x10
 1516 0a3c 08       		.uleb128 0x8
 1517 0a3d 3B050000 		.4byte	.LASF168
 1518 0a41 12       		.byte	0x12
 1519 0a42 53       		.byte	0x53
 1520 0a43 8F0A0000 		.4byte	0xa8f
 1521 0a47 14       		.byte	0x14
 1522 0a48 08       		.uleb128 0x8
 1523 0a49 EC000000 		.4byte	.LASF169
 1524 0a4d 12       		.byte	0x12
 1525 0a4e 54       		.byte	0x54
 1526 0a4f 8F0A0000 		.4byte	0xa8f
 1527 0a53 18       		.byte	0x18
 1528 0a54 08       		.uleb128 0x8
 1529 0a55 76040000 		.4byte	.LASF170
 1530 0a59 12       		.byte	0x12
 1531 0a5a 55       		.byte	0x55
 1532 0a5b 6D0A0000 		.4byte	0xa6d
ARM GAS  /tmp/ccoMVsnu.s 			page 28


 1533 0a5f 1C       		.byte	0x1c
 1534 0a60 08       		.uleb128 0x8
 1535 0a61 30010000 		.4byte	.LASF171
 1536 0a65 12       		.byte	0x12
 1537 0a66 56       		.byte	0x56
 1538 0a67 59030000 		.4byte	0x359
 1539 0a6b 20       		.byte	0x20
 1540 0a6c 00       		.byte	0
 1541 0a6d 03       		.uleb128 0x3
 1542 0a6e 13010000 		.4byte	.LASF172
 1543 0a72 12       		.byte	0x12
 1544 0a73 42       		.byte	0x42
 1545 0a74 780A0000 		.4byte	0xa78
 1546 0a78 0B       		.uleb128 0xb
 1547 0a79 04       		.byte	0x4
 1548 0a7a 7E0A0000 		.4byte	0xa7e
 1549 0a7e 0D       		.uleb128 0xd
 1550 0a7f 890A0000 		.4byte	0xa89
 1551 0a83 0E       		.uleb128 0xe
 1552 0a84 890A0000 		.4byte	0xa89
 1553 0a88 00       		.byte	0
 1554 0a89 0B       		.uleb128 0xb
 1555 0a8a 04       		.byte	0x4
 1556 0a8b F5090000 		.4byte	0x9f5
 1557 0a8f 0B       		.uleb128 0xb
 1558 0a90 04       		.byte	0x4
 1559 0a91 B9000000 		.4byte	0xb9
 1560 0a95 03       		.uleb128 0x3
 1561 0a96 9D050000 		.4byte	.LASF173
 1562 0a9a 12       		.byte	0x12
 1563 0a9b 64       		.byte	0x64
 1564 0a9c F5090000 		.4byte	0x9f5
 1565 0aa0 03       		.uleb128 0x3
 1566 0aa1 A0060000 		.4byte	.LASF174
 1567 0aa5 12       		.byte	0x12
 1568 0aa6 71       		.byte	0x71
 1569 0aa7 F5090000 		.4byte	0x9f5
 1570 0aab 1D       		.uleb128 0x1d
 1571 0aac 2C000000 		.4byte	0x2c
 1572 0ab0 C40A0000 		.4byte	0xac4
 1573 0ab4 0E       		.uleb128 0xe
 1574 0ab5 59030000 		.4byte	0x359
 1575 0ab9 0E       		.uleb128 0xe
 1576 0aba C40A0000 		.4byte	0xac4
 1577 0abe 0E       		.uleb128 0xe
 1578 0abf 2C000000 		.4byte	0x2c
 1579 0ac3 00       		.byte	0
 1580 0ac4 0B       		.uleb128 0xb
 1581 0ac5 04       		.byte	0x4
 1582 0ac6 C4000000 		.4byte	0xc4
 1583 0aca 0B       		.uleb128 0xb
 1584 0acb 04       		.byte	0x4
 1585 0acc AB0A0000 		.4byte	0xaab
 1586 0ad0 1D       		.uleb128 0x1d
 1587 0ad1 2C000000 		.4byte	0x2c
 1588 0ad5 E90A0000 		.4byte	0xae9
 1589 0ad9 0E       		.uleb128 0xe
ARM GAS  /tmp/ccoMVsnu.s 			page 29


 1590 0ada 59030000 		.4byte	0x359
 1591 0ade 0E       		.uleb128 0xe
 1592 0adf 8F0A0000 		.4byte	0xa8f
 1593 0ae3 0E       		.uleb128 0xe
 1594 0ae4 2C000000 		.4byte	0x2c
 1595 0ae8 00       		.byte	0
 1596 0ae9 0B       		.uleb128 0xb
 1597 0aea 04       		.byte	0x4
 1598 0aeb D00A0000 		.4byte	0xad0
 1599 0aef 1D       		.uleb128 0x1d
 1600 0af0 36010000 		.4byte	0x136
 1601 0af4 030B0000 		.4byte	0xb03
 1602 0af8 0E       		.uleb128 0xe
 1603 0af9 59030000 		.4byte	0x359
 1604 0afd 0E       		.uleb128 0xe
 1605 0afe B9000000 		.4byte	0xb9
 1606 0b02 00       		.byte	0
 1607 0b03 0B       		.uleb128 0xb
 1608 0b04 04       		.byte	0x4
 1609 0b05 EF0A0000 		.4byte	0xaef
 1610 0b09 1D       		.uleb128 0x1d
 1611 0b0a 36010000 		.4byte	0x136
 1612 0b0e 180B0000 		.4byte	0xb18
 1613 0b12 0E       		.uleb128 0xe
 1614 0b13 59030000 		.4byte	0x359
 1615 0b17 00       		.byte	0
 1616 0b18 0B       		.uleb128 0xb
 1617 0b19 04       		.byte	0x4
 1618 0b1a 090B0000 		.4byte	0xb09
 1619 0b1e 13       		.uleb128 0x13
 1620 0b1f 14       		.byte	0x14
 1621 0b20 13       		.byte	0x13
 1622 0b21 E4       		.byte	0xe4
 1623 0b22 7B0B0000 		.4byte	0xb7b
 1624 0b26 14       		.uleb128 0x14
 1625 0b27 646D6100 		.ascii	"dma\000"
 1626 0b2b 13       		.byte	0x13
 1627 0b2c E5       		.byte	0xe5
 1628 0b2d 7B0B0000 		.4byte	0xb7b
 1629 0b31 00       		.byte	0
 1630 0b32 08       		.uleb128 0x8
 1631 0b33 5F070000 		.4byte	.LASF175
 1632 0b37 13       		.byte	0x13
 1633 0b38 E6       		.byte	0xe6
 1634 0b39 810B0000 		.4byte	0xb81
 1635 0b3d 04       		.byte	0x4
 1636 0b3e 08       		.uleb128 0x8
 1637 0b3f 97050000 		.4byte	.LASF176
 1638 0b43 13       		.byte	0x13
 1639 0b44 E7       		.byte	0xe7
 1640 0b45 E4000000 		.4byte	0xe4
 1641 0b49 08       		.byte	0x8
 1642 0b4a 08       		.uleb128 0x8
 1643 0b4b 2E020000 		.4byte	.LASF177
 1644 0b4f 13       		.byte	0x13
 1645 0b50 E9       		.byte	0xe9
 1646 0b51 870B0000 		.4byte	0xb87
ARM GAS  /tmp/ccoMVsnu.s 			page 30


 1647 0b55 0C       		.byte	0xc
 1648 0b56 08       		.uleb128 0x8
 1649 0b57 15020000 		.4byte	.LASF178
 1650 0b5b 13       		.byte	0x13
 1651 0b5c EA       		.byte	0xea
 1652 0b5d B9000000 		.4byte	0xb9
 1653 0b61 10       		.byte	0x10
 1654 0b62 08       		.uleb128 0x8
 1655 0b63 690A0000 		.4byte	.LASF179
 1656 0b67 13       		.byte	0x13
 1657 0b68 EC       		.byte	0xec
 1658 0b69 B9000000 		.4byte	0xb9
 1659 0b6d 11       		.byte	0x11
 1660 0b6e 08       		.uleb128 0x8
 1661 0b6f 6E020000 		.4byte	.LASF180
 1662 0b73 13       		.byte	0x13
 1663 0b74 ED       		.byte	0xed
 1664 0b75 B9000000 		.4byte	0xb9
 1665 0b79 12       		.byte	0x12
 1666 0b7a 00       		.byte	0
 1667 0b7b 0B       		.uleb128 0xb
 1668 0b7c 04       		.byte	0x4
 1669 0b7d 4C050000 		.4byte	0x54c
 1670 0b81 0B       		.uleb128 0xb
 1671 0b82 04       		.byte	0x4
 1672 0b83 F8040000 		.4byte	0x4f8
 1673 0b87 0B       		.uleb128 0xb
 1674 0b88 04       		.byte	0x4
 1675 0b89 EF000000 		.4byte	0xef
 1676 0b8d 03       		.uleb128 0x3
 1677 0b8e 52050000 		.4byte	.LASF181
 1678 0b92 13       		.byte	0x13
 1679 0b93 EE       		.byte	0xee
 1680 0b94 1E0B0000 		.4byte	0xb1e
 1681 0b98 06       		.uleb128 0x6
 1682 0b99 8D0B0000 		.4byte	0xb8d
 1683 0b9d 03       		.uleb128 0x3
 1684 0b9e 96040000 		.4byte	.LASF182
 1685 0ba2 13       		.byte	0x13
 1686 0ba3 F7       		.byte	0xf7
 1687 0ba4 A80B0000 		.4byte	0xba8
 1688 0ba8 0B       		.uleb128 0xb
 1689 0ba9 04       		.byte	0x4
 1690 0baa AE0B0000 		.4byte	0xbae
 1691 0bae 0D       		.uleb128 0xd
 1692 0baf BE0B0000 		.4byte	0xbbe
 1693 0bb3 0E       		.uleb128 0xe
 1694 0bb4 59030000 		.4byte	0x359
 1695 0bb8 0E       		.uleb128 0xe
 1696 0bb9 E4000000 		.4byte	0xe4
 1697 0bbd 00       		.byte	0
 1698 0bbe 13       		.uleb128 0x13
 1699 0bbf 08       		.byte	0x8
 1700 0bc0 13       		.byte	0x13
 1701 0bc1 FC       		.byte	0xfc
 1702 0bc2 DF0B0000 		.4byte	0xbdf
 1703 0bc6 08       		.uleb128 0x8
ARM GAS  /tmp/ccoMVsnu.s 			page 31


 1704 0bc7 EF070000 		.4byte	.LASF183
 1705 0bcb 13       		.byte	0x13
 1706 0bcc FD       		.byte	0xfd
 1707 0bcd 9D0B0000 		.4byte	0xb9d
 1708 0bd1 00       		.byte	0
 1709 0bd2 08       		.uleb128 0x8
 1710 0bd3 AF060000 		.4byte	.LASF184
 1711 0bd7 13       		.byte	0x13
 1712 0bd8 FE       		.byte	0xfe
 1713 0bd9 59030000 		.4byte	0x359
 1714 0bdd 04       		.byte	0x4
 1715 0bde 00       		.byte	0
 1716 0bdf 03       		.uleb128 0x3
 1717 0be0 73080000 		.4byte	.LASF185
 1718 0be4 13       		.byte	0x13
 1719 0be5 FF       		.byte	0xff
 1720 0be6 BE0B0000 		.4byte	0xbbe
 1721 0bea 15       		.uleb128 0x15
 1722 0beb 980B0000 		.4byte	0xb98
 1723 0bef FA0B0000 		.4byte	0xbfa
 1724 0bf3 16       		.uleb128 0x16
 1725 0bf4 AD040000 		.4byte	0x4ad
 1726 0bf8 04       		.byte	0x4
 1727 0bf9 00       		.byte	0
 1728 0bfa 06       		.uleb128 0x6
 1729 0bfb EA0B0000 		.4byte	0xbea
 1730 0bff 1E       		.uleb128 0x1e
 1731 0c00 3C0A0000 		.4byte	.LASF186
 1732 0c04 13       		.byte	0x13
 1733 0c05 CD01     		.2byte	0x1cd
 1734 0c07 FA0B0000 		.4byte	0xbfa
 1735 0c0b 15       		.uleb128 0x15
 1736 0c0c DF0B0000 		.4byte	0xbdf
 1737 0c10 1B0C0000 		.4byte	0xc1b
 1738 0c14 16       		.uleb128 0x16
 1739 0c15 AD040000 		.4byte	0x4ad
 1740 0c19 04       		.byte	0x4
 1741 0c1a 00       		.byte	0
 1742 0c1b 1E       		.uleb128 0x1e
 1743 0c1c 07050000 		.4byte	.LASF187
 1744 0c20 13       		.byte	0x13
 1745 0c21 CE01     		.2byte	0x1ce
 1746 0c23 0B0C0000 		.4byte	0xc0b
 1747 0c27 1D       		.uleb128 0x1d
 1748 0c28 36010000 		.4byte	0x136
 1749 0c2c 400C0000 		.4byte	0xc40
 1750 0c30 0E       		.uleb128 0xe
 1751 0c31 59030000 		.4byte	0x359
 1752 0c35 0E       		.uleb128 0xe
 1753 0c36 B9000000 		.4byte	0xb9
 1754 0c3a 0E       		.uleb128 0xe
 1755 0c3b 62010000 		.4byte	0x162
 1756 0c3f 00       		.byte	0
 1757 0c40 0B       		.uleb128 0xb
 1758 0c41 04       		.byte	0x4
 1759 0c42 270C0000 		.4byte	0xc27
 1760 0c46 1D       		.uleb128 0x1d
ARM GAS  /tmp/ccoMVsnu.s 			page 32


 1761 0c47 36010000 		.4byte	0x136
 1762 0c4b 5A0C0000 		.4byte	0xc5a
 1763 0c4f 0E       		.uleb128 0xe
 1764 0c50 59030000 		.4byte	0x359
 1765 0c54 0E       		.uleb128 0xe
 1766 0c55 62010000 		.4byte	0x162
 1767 0c59 00       		.byte	0
 1768 0c5a 0B       		.uleb128 0xb
 1769 0c5b 04       		.byte	0x4
 1770 0c5c 460C0000 		.4byte	0xc46
 1771 0c60 1D       		.uleb128 0x1d
 1772 0c61 2C000000 		.4byte	0x2c
 1773 0c65 7E0C0000 		.4byte	0xc7e
 1774 0c69 0E       		.uleb128 0xe
 1775 0c6a 59030000 		.4byte	0x359
 1776 0c6e 0E       		.uleb128 0xe
 1777 0c6f C40A0000 		.4byte	0xac4
 1778 0c73 0E       		.uleb128 0xe
 1779 0c74 2C000000 		.4byte	0x2c
 1780 0c78 0E       		.uleb128 0xe
 1781 0c79 62010000 		.4byte	0x162
 1782 0c7d 00       		.byte	0
 1783 0c7e 0B       		.uleb128 0xb
 1784 0c7f 04       		.byte	0x4
 1785 0c80 600C0000 		.4byte	0xc60
 1786 0c84 1D       		.uleb128 0x1d
 1787 0c85 2C000000 		.4byte	0x2c
 1788 0c89 A20C0000 		.4byte	0xca2
 1789 0c8d 0E       		.uleb128 0xe
 1790 0c8e 59030000 		.4byte	0x359
 1791 0c92 0E       		.uleb128 0xe
 1792 0c93 8F0A0000 		.4byte	0xa8f
 1793 0c97 0E       		.uleb128 0xe
 1794 0c98 2C000000 		.4byte	0x2c
 1795 0c9c 0E       		.uleb128 0xe
 1796 0c9d 62010000 		.4byte	0x162
 1797 0ca1 00       		.byte	0
 1798 0ca2 0B       		.uleb128 0xb
 1799 0ca3 04       		.byte	0x4
 1800 0ca4 840C0000 		.4byte	0xc84
 1801 0ca8 13       		.uleb128 0x13
 1802 0ca9 04       		.byte	0x4
 1803 0caa 14       		.byte	0x14
 1804 0cab E7       		.byte	0xe7
 1805 0cac C90C0000 		.4byte	0xcc9
 1806 0cb0 14       		.uleb128 0x14
 1807 0cb1 73657400 		.ascii	"set\000"
 1808 0cb5 14       		.byte	0x14
 1809 0cb6 E8       		.byte	0xe8
 1810 0cb7 C9000000 		.4byte	0xc9
 1811 0cbb 00       		.byte	0
 1812 0cbc 08       		.uleb128 0x8
 1813 0cbd D0020000 		.4byte	.LASF188
 1814 0cc1 14       		.byte	0x14
 1815 0cc2 E9       		.byte	0xe9
 1816 0cc3 C9000000 		.4byte	0xc9
 1817 0cc7 02       		.byte	0x2
ARM GAS  /tmp/ccoMVsnu.s 			page 33


 1818 0cc8 00       		.byte	0
 1819 0cc9 1A       		.uleb128 0x1a
 1820 0cca 04       		.byte	0x4
 1821 0ccb 14       		.byte	0x14
 1822 0ccc E5       		.byte	0xe5
 1823 0ccd E40C0000 		.4byte	0xce4
 1824 0cd1 1F       		.uleb128 0x1f
 1825 0cd2 5700     		.ascii	"W\000"
 1826 0cd4 14       		.byte	0x14
 1827 0cd5 E6       		.byte	0xe6
 1828 0cd6 E4000000 		.4byte	0xe4
 1829 0cda 1F       		.uleb128 0x1f
 1830 0cdb 4800     		.ascii	"H\000"
 1831 0cdd 14       		.byte	0x14
 1832 0cde EA       		.byte	0xea
 1833 0cdf A80C0000 		.4byte	0xca8
 1834 0ce3 00       		.byte	0
 1835 0ce4 04       		.uleb128 0x4
 1836 0ce5 C90C0000 		.4byte	0xcc9
 1837 0ce9 13       		.uleb128 0x13
 1838 0cea 2C       		.byte	0x2c
 1839 0ceb 14       		.byte	0x14
 1840 0cec DD       		.byte	0xdd
 1841 0ced 760D0000 		.4byte	0xd76
 1842 0cf1 08       		.uleb128 0x8
 1843 0cf2 95020000 		.4byte	.LASF189
 1844 0cf6 14       		.byte	0x14
 1845 0cf7 DF       		.byte	0xdf
 1846 0cf8 EF000000 		.4byte	0xef
 1847 0cfc 00       		.byte	0
 1848 0cfd 08       		.uleb128 0x8
 1849 0cfe 09080000 		.4byte	.LASF190
 1850 0d02 14       		.byte	0x14
 1851 0d03 E0       		.byte	0xe0
 1852 0d04 EF000000 		.4byte	0xef
 1853 0d08 04       		.byte	0x4
 1854 0d09 08       		.uleb128 0x8
 1855 0d0a 31070000 		.4byte	.LASF191
 1856 0d0e 14       		.byte	0x14
 1857 0d0f E1       		.byte	0xe1
 1858 0d10 EF000000 		.4byte	0xef
 1859 0d14 08       		.byte	0x8
 1860 0d15 08       		.uleb128 0x8
 1861 0d16 85040000 		.4byte	.LASF192
 1862 0d1a 14       		.byte	0x14
 1863 0d1b E2       		.byte	0xe2
 1864 0d1c EF000000 		.4byte	0xef
 1865 0d20 0C       		.byte	0xc
 1866 0d21 14       		.uleb128 0x14
 1867 0d22 49445200 		.ascii	"IDR\000"
 1868 0d26 14       		.byte	0x14
 1869 0d27 E3       		.byte	0xe3
 1870 0d28 EF000000 		.4byte	0xef
 1871 0d2c 10       		.byte	0x10
 1872 0d2d 14       		.uleb128 0x14
 1873 0d2e 4F445200 		.ascii	"ODR\000"
 1874 0d32 14       		.byte	0x14
ARM GAS  /tmp/ccoMVsnu.s 			page 34


 1875 0d33 E4       		.byte	0xe4
 1876 0d34 EF000000 		.4byte	0xef
 1877 0d38 14       		.byte	0x14
 1878 0d39 08       		.uleb128 0x8
 1879 0d3a 66000000 		.4byte	.LASF193
 1880 0d3e 14       		.byte	0x14
 1881 0d3f EB       		.byte	0xeb
 1882 0d40 E40C0000 		.4byte	0xce4
 1883 0d44 18       		.byte	0x18
 1884 0d45 08       		.uleb128 0x8
 1885 0d46 C5060000 		.4byte	.LASF194
 1886 0d4a 14       		.byte	0x14
 1887 0d4b EC       		.byte	0xec
 1888 0d4c EF000000 		.4byte	0xef
 1889 0d50 1C       		.byte	0x1c
 1890 0d51 08       		.uleb128 0x8
 1891 0d52 C3020000 		.4byte	.LASF195
 1892 0d56 14       		.byte	0x14
 1893 0d57 ED       		.byte	0xed
 1894 0d58 EF000000 		.4byte	0xef
 1895 0d5c 20       		.byte	0x20
 1896 0d5d 08       		.uleb128 0x8
 1897 0d5e 58040000 		.4byte	.LASF196
 1898 0d62 14       		.byte	0x14
 1899 0d63 EE       		.byte	0xee
 1900 0d64 EF000000 		.4byte	0xef
 1901 0d68 24       		.byte	0x24
 1902 0d69 14       		.uleb128 0x14
 1903 0d6a 42525200 		.ascii	"BRR\000"
 1904 0d6e 14       		.byte	0x14
 1905 0d6f EF       		.byte	0xef
 1906 0d70 EF000000 		.4byte	0xef
 1907 0d74 28       		.byte	0x28
 1908 0d75 00       		.byte	0
 1909 0d76 03       		.uleb128 0x3
 1910 0d77 B6020000 		.4byte	.LASF197
 1911 0d7b 14       		.byte	0x14
 1912 0d7c F0       		.byte	0xf0
 1913 0d7d E90C0000 		.4byte	0xce9
 1914 0d81 13       		.uleb128 0x13
 1915 0d82 1C       		.byte	0x1c
 1916 0d83 14       		.byte	0x14
 1917 0d84 F5       		.byte	0xf5
 1918 0d85 E00D0000 		.4byte	0xde0
 1919 0d89 08       		.uleb128 0x8
 1920 0d8a C3040000 		.4byte	.LASF198
 1921 0d8e 14       		.byte	0x14
 1922 0d8f F7       		.byte	0xf7
 1923 0d90 E4000000 		.4byte	0xe4
 1924 0d94 00       		.byte	0
 1925 0d95 08       		.uleb128 0x8
 1926 0d96 0E020000 		.4byte	.LASF199
 1927 0d9a 14       		.byte	0x14
 1928 0d9b F9       		.byte	0xf9
 1929 0d9c E4000000 		.4byte	0xe4
 1930 0da0 04       		.byte	0x4
 1931 0da1 08       		.uleb128 0x8
ARM GAS  /tmp/ccoMVsnu.s 			page 35


 1932 0da2 4F0A0000 		.4byte	.LASF200
 1933 0da6 14       		.byte	0x14
 1934 0da7 FB       		.byte	0xfb
 1935 0da8 E4000000 		.4byte	0xe4
 1936 0dac 08       		.byte	0x8
 1937 0dad 08       		.uleb128 0x8
 1938 0dae 2B060000 		.4byte	.LASF201
 1939 0db2 14       		.byte	0x14
 1940 0db3 FD       		.byte	0xfd
 1941 0db4 E4000000 		.4byte	0xe4
 1942 0db8 0C       		.byte	0xc
 1943 0db9 14       		.uleb128 0x14
 1944 0dba 6F647200 		.ascii	"odr\000"
 1945 0dbe 14       		.byte	0x14
 1946 0dbf FF       		.byte	0xff
 1947 0dc0 E4000000 		.4byte	0xe4
 1948 0dc4 10       		.byte	0x10
 1949 0dc5 0A       		.uleb128 0xa
 1950 0dc6 CA060000 		.4byte	.LASF202
 1951 0dca 14       		.byte	0x14
 1952 0dcb 0101     		.2byte	0x101
 1953 0dcd E4000000 		.4byte	0xe4
 1954 0dd1 14       		.byte	0x14
 1955 0dd2 0A       		.uleb128 0xa
 1956 0dd3 C0060000 		.4byte	.LASF203
 1957 0dd7 14       		.byte	0x14
 1958 0dd8 0301     		.2byte	0x103
 1959 0dda E4000000 		.4byte	0xe4
 1960 0dde 18       		.byte	0x18
 1961 0ddf 00       		.byte	0
 1962 0de0 18       		.uleb128 0x18
 1963 0de1 A3020000 		.4byte	.LASF204
 1964 0de5 14       		.byte	0x14
 1965 0de6 0401     		.2byte	0x104
 1966 0de8 810D0000 		.4byte	0xd81
 1967 0dec 17       		.uleb128 0x17
 1968 0ded 70       		.byte	0x70
 1969 0dee 14       		.byte	0x14
 1970 0def 0D01     		.2byte	0x10d
 1971 0df1 2A0E0000 		.4byte	0xe2a
 1972 0df5 0A       		.uleb128 0xa
 1973 0df6 F8070000 		.4byte	.LASF205
 1974 0dfa 14       		.byte	0x14
 1975 0dfb 1001     		.2byte	0x110
 1976 0dfd E00D0000 		.4byte	0xde0
 1977 0e01 00       		.byte	0
 1978 0e02 0A       		.uleb128 0xa
 1979 0e03 2A040000 		.4byte	.LASF206
 1980 0e07 14       		.byte	0x14
 1981 0e08 1401     		.2byte	0x114
 1982 0e0a E00D0000 		.4byte	0xde0
 1983 0e0e 1C       		.byte	0x1c
 1984 0e0f 0A       		.uleb128 0xa
 1985 0e10 48000000 		.4byte	.LASF207
 1986 0e14 14       		.byte	0x14
 1987 0e15 1801     		.2byte	0x118
 1988 0e17 E00D0000 		.4byte	0xde0
ARM GAS  /tmp/ccoMVsnu.s 			page 36


 1989 0e1b 38       		.byte	0x38
 1990 0e1c 0A       		.uleb128 0xa
 1991 0e1d 350A0000 		.4byte	.LASF208
 1992 0e21 14       		.byte	0x14
 1993 0e22 2401     		.2byte	0x124
 1994 0e24 E00D0000 		.4byte	0xde0
 1995 0e28 54       		.byte	0x54
 1996 0e29 00       		.byte	0
 1997 0e2a 18       		.uleb128 0x18
 1998 0e2b 9B080000 		.4byte	.LASF209
 1999 0e2f 14       		.byte	0x14
 2000 0e30 3A01     		.2byte	0x13a
 2001 0e32 EC0D0000 		.4byte	0xdec
 2002 0e36 06       		.uleb128 0x6
 2003 0e37 2A0E0000 		.4byte	0xe2a
 2004 0e3b 18       		.uleb128 0x18
 2005 0e3c 51060000 		.4byte	.LASF210
 2006 0e40 14       		.byte	0x14
 2007 0e41 3F01     		.2byte	0x13f
 2008 0e43 E4000000 		.4byte	0xe4
 2009 0e47 18       		.uleb128 0x18
 2010 0e48 6A060000 		.4byte	.LASF211
 2011 0e4c 14       		.byte	0x14
 2012 0e4d 4401     		.2byte	0x144
 2013 0e4f E4000000 		.4byte	0xe4
 2014 0e53 18       		.uleb128 0x18
 2015 0e54 6B040000 		.4byte	.LASF212
 2016 0e58 14       		.byte	0x14
 2017 0e59 5101     		.2byte	0x151
 2018 0e5b 5F0E0000 		.4byte	0xe5f
 2019 0e5f 0B       		.uleb128 0xb
 2020 0e60 04       		.byte	0x4
 2021 0e61 760D0000 		.4byte	0xd76
 2022 0e65 1E       		.uleb128 0x1e
 2023 0e66 45040000 		.4byte	.LASF213
 2024 0e6a 14       		.byte	0x14
 2025 0e6b 1E02     		.2byte	0x21e
 2026 0e6d 360E0000 		.4byte	0xe36
 2027 0e71 13       		.uleb128 0x13
 2028 0e72 0C       		.byte	0xc
 2029 0e73 15       		.byte	0x15
 2030 0e74 7A       		.byte	0x7a
 2031 0e75 9E0E0000 		.4byte	0xe9e
 2032 0e79 08       		.uleb128 0x8
 2033 0e7a BC040000 		.4byte	.LASF214
 2034 0e7e 15       		.byte	0x15
 2035 0e7f 7E       		.byte	0x7e
 2036 0e80 530E0000 		.4byte	0xe53
 2037 0e84 00       		.byte	0
 2038 0e85 08       		.uleb128 0x8
 2039 0e86 D7060000 		.4byte	.LASF215
 2040 0e8a 15       		.byte	0x15
 2041 0e8b 84       		.byte	0x84
 2042 0e8c 3B0E0000 		.4byte	0xe3b
 2043 0e90 04       		.byte	0x4
 2044 0e91 08       		.uleb128 0x8
 2045 0e92 2E030000 		.4byte	.LASF216
ARM GAS  /tmp/ccoMVsnu.s 			page 37


 2046 0e96 15       		.byte	0x15
 2047 0e97 88       		.byte	0x88
 2048 0e98 FF000000 		.4byte	0xff
 2049 0e9c 08       		.byte	0x8
 2050 0e9d 00       		.byte	0
 2051 0e9e 03       		.uleb128 0x3
 2052 0e9f 97000000 		.4byte	.LASF217
 2053 0ea3 15       		.byte	0x15
 2054 0ea4 89       		.byte	0x89
 2055 0ea5 710E0000 		.4byte	0xe71
 2056 0ea9 20       		.uleb128 0x20
 2057 0eaa 01       		.byte	0x1
 2058 0eab 63000000 		.4byte	0x63
 2059 0eaf 16       		.byte	0x16
 2060 0eb0 55       		.byte	0x55
 2061 0eb1 C80E0000 		.4byte	0xec8
 2062 0eb5 21       		.uleb128 0x21
 2063 0eb6 69080000 		.4byte	.LASF218
 2064 0eba 00       		.byte	0
 2065 0ebb 21       		.uleb128 0x21
 2066 0ebc 54030000 		.4byte	.LASF219
 2067 0ec0 01       		.byte	0x1
 2068 0ec1 21       		.uleb128 0x21
 2069 0ec2 67070000 		.4byte	.LASF220
 2070 0ec6 02       		.byte	0x2
 2071 0ec7 00       		.byte	0
 2072 0ec8 03       		.uleb128 0x3
 2073 0ec9 44030000 		.4byte	.LASF221
 2074 0ecd 16       		.byte	0x16
 2075 0ece 59       		.byte	0x59
 2076 0ecf A90E0000 		.4byte	0xea9
 2077 0ed3 03       		.uleb128 0x3
 2078 0ed4 3B000000 		.4byte	.LASF222
 2079 0ed8 16       		.byte	0x16
 2080 0ed9 5E       		.byte	0x5e
 2081 0eda DE0E0000 		.4byte	0xede
 2082 0ede 22       		.uleb128 0x22
 2083 0edf 3B000000 		.4byte	.LASF222
 2084 0ee3 5C01     		.2byte	0x15c
 2085 0ee5 16       		.byte	0x16
 2086 0ee6 78       		.byte	0x78
 2087 0ee7 580F0000 		.4byte	0xf58
 2088 0eeb 14       		.uleb128 0x14
 2089 0eec 766D7400 		.ascii	"vmt\000"
 2090 0ef0 16       		.byte	0x16
 2091 0ef1 7A       		.byte	0x7a
 2092 0ef2 E20F0000 		.4byte	0xfe2
 2093 0ef6 00       		.byte	0
 2094 0ef7 08       		.uleb128 0x8
 2095 0ef8 1B020000 		.4byte	.LASF223
 2096 0efc 16       		.byte	0x16
 2097 0efd 7B       		.byte	0x7b
 2098 0efe E3090000 		.4byte	0x9e3
 2099 0f02 04       		.byte	0x4
 2100 0f03 08       		.uleb128 0x8
 2101 0f04 66090000 		.4byte	.LASF224
 2102 0f08 16       		.byte	0x16
ARM GAS  /tmp/ccoMVsnu.s 			page 38


 2103 0f09 7B       		.byte	0x7b
 2104 0f0a C80E0000 		.4byte	0xec8
 2105 0f0e 08       		.byte	0x8
 2106 0f0f 08       		.uleb128 0x8
 2107 0f10 CE010000 		.4byte	.LASF225
 2108 0f14 16       		.byte	0x16
 2109 0f15 7B       		.byte	0x7b
 2110 0f16 950A0000 		.4byte	0xa95
 2111 0f1a 0C       		.byte	0xc
 2112 0f1b 08       		.uleb128 0x8
 2113 0f1c 45070000 		.4byte	.LASF226
 2114 0f20 16       		.byte	0x16
 2115 0f21 7B       		.byte	0x7b
 2116 0f22 A00A0000 		.4byte	0xaa0
 2117 0f26 30       		.byte	0x30
 2118 0f27 14       		.uleb128 0x14
 2119 0f28 696200   		.ascii	"ib\000"
 2120 0f2b 16       		.byte	0x16
 2121 0f2c 7B       		.byte	0x7b
 2122 0f2d E80F0000 		.4byte	0xfe8
 2123 0f31 54       		.byte	0x54
 2124 0f32 14       		.uleb128 0x14
 2125 0f33 6F6200   		.ascii	"ob\000"
 2126 0f36 16       		.byte	0x16
 2127 0f37 7B       		.byte	0x7b
 2128 0f38 E80F0000 		.4byte	0xfe8
 2129 0f3c D4       		.byte	0xd4
 2130 0f3d 23       		.uleb128 0x23
 2131 0f3e DD050000 		.4byte	.LASF227
 2132 0f42 16       		.byte	0x16
 2133 0f43 7B       		.byte	0x7b
 2134 0f44 F80F0000 		.4byte	0xff8
 2135 0f48 5401     		.2byte	0x154
 2136 0f4a 23       		.uleb128 0x23
 2137 0f4b 7F040000 		.4byte	.LASF228
 2138 0f4f 16       		.byte	0x16
 2139 0f50 7B       		.byte	0x7b
 2140 0f51 E4000000 		.4byte	0xe4
 2141 0f55 5801     		.2byte	0x158
 2142 0f57 00       		.byte	0
 2143 0f58 1C       		.uleb128 0x1c
 2144 0f59 53443200 		.ascii	"SD2\000"
 2145 0f5d 17       		.byte	0x17
 2146 0f5e 6901     		.2byte	0x169
 2147 0f60 D30E0000 		.4byte	0xed3
 2148 0f64 1C       		.uleb128 0x1c
 2149 0f65 53443500 		.ascii	"SD5\000"
 2150 0f69 17       		.byte	0x17
 2151 0f6a 7201     		.2byte	0x172
 2152 0f6c D30E0000 		.4byte	0xed3
 2153 0f70 07       		.uleb128 0x7
 2154 0f71 79070000 		.4byte	.LASF229
 2155 0f75 20       		.byte	0x20
 2156 0f76 16       		.byte	0x16
 2157 0f77 6D       		.byte	0x6d
 2158 0f78 DD0F0000 		.4byte	0xfdd
 2159 0f7c 08       		.uleb128 0x8
ARM GAS  /tmp/ccoMVsnu.s 			page 39


 2160 0f7d 00060000 		.4byte	.LASF230
 2161 0f81 16       		.byte	0x16
 2162 0f82 6E       		.byte	0x6e
 2163 0f83 CA0A0000 		.4byte	0xaca
 2164 0f87 00       		.byte	0
 2165 0f88 08       		.uleb128 0x8
 2166 0f89 4E080000 		.4byte	.LASF231
 2167 0f8d 16       		.byte	0x16
 2168 0f8e 6E       		.byte	0x6e
 2169 0f8f E90A0000 		.4byte	0xae9
 2170 0f93 04       		.byte	0x4
 2171 0f94 14       		.uleb128 0x14
 2172 0f95 70757400 		.ascii	"put\000"
 2173 0f99 16       		.byte	0x16
 2174 0f9a 6E       		.byte	0x6e
 2175 0f9b 030B0000 		.4byte	0xb03
 2176 0f9f 08       		.byte	0x8
 2177 0fa0 14       		.uleb128 0x14
 2178 0fa1 67657400 		.ascii	"get\000"
 2179 0fa5 16       		.byte	0x16
 2180 0fa6 6E       		.byte	0x6e
 2181 0fa7 180B0000 		.4byte	0xb18
 2182 0fab 0C       		.byte	0xc
 2183 0fac 08       		.uleb128 0x8
 2184 0fad 0D030000 		.4byte	.LASF232
 2185 0fb1 16       		.byte	0x16
 2186 0fb2 6E       		.byte	0x6e
 2187 0fb3 400C0000 		.4byte	0xc40
 2188 0fb7 10       		.byte	0x10
 2189 0fb8 08       		.uleb128 0x8
 2190 0fb9 11070000 		.4byte	.LASF233
 2191 0fbd 16       		.byte	0x16
 2192 0fbe 6E       		.byte	0x6e
 2193 0fbf 5A0C0000 		.4byte	0xc5a
 2194 0fc3 14       		.byte	0x14
 2195 0fc4 08       		.uleb128 0x8
 2196 0fc5 A6010000 		.4byte	.LASF234
 2197 0fc9 16       		.byte	0x16
 2198 0fca 6E       		.byte	0x6e
 2199 0fcb 7E0C0000 		.4byte	0xc7e
 2200 0fcf 18       		.byte	0x18
 2201 0fd0 08       		.uleb128 0x8
 2202 0fd1 C8090000 		.4byte	.LASF235
 2203 0fd5 16       		.byte	0x16
 2204 0fd6 6E       		.byte	0x6e
 2205 0fd7 A20C0000 		.4byte	0xca2
 2206 0fdb 1C       		.byte	0x1c
 2207 0fdc 00       		.byte	0
 2208 0fdd 06       		.uleb128 0x6
 2209 0fde 700F0000 		.4byte	0xf70
 2210 0fe2 0B       		.uleb128 0xb
 2211 0fe3 04       		.byte	0x4
 2212 0fe4 DD0F0000 		.4byte	0xfdd
 2213 0fe8 15       		.uleb128 0x15
 2214 0fe9 B9000000 		.4byte	0xb9
 2215 0fed F80F0000 		.4byte	0xff8
 2216 0ff1 16       		.uleb128 0x16
ARM GAS  /tmp/ccoMVsnu.s 			page 40


 2217 0ff2 AD040000 		.4byte	0x4ad
 2218 0ff6 7F       		.byte	0x7f
 2219 0ff7 00       		.byte	0
 2220 0ff8 0B       		.uleb128 0xb
 2221 0ff9 04       		.byte	0x4
 2222 0ffa 0A060000 		.4byte	0x60a
 2223 0ffe 24       		.uleb128 0x24
 2224 0fff CF050000 		.4byte	.LASF237
 2225 1003 01       		.byte	0x1
 2226 1004 71       		.byte	0x71
 2227 1005 00000000 		.4byte	.LFB184
 2228 1009 40000000 		.4byte	.LFE184-.LFB184
 2229 100d 01       		.uleb128 0x1
 2230 100e 9C       		.byte	0x9c
 2231 100f 3F100000 		.4byte	0x103f
 2232 1013 25       		.uleb128 0x25
 2233 1014 62757300 		.ascii	"bus\000"
 2234 1018 01       		.byte	0x1
 2235 1019 71       		.byte	0x71
 2236 101a 3F100000 		.4byte	0x103f
 2237 101e 02       		.uleb128 0x2
 2238 101f 91       		.byte	0x91
 2239 1020 74       		.sleb128 -12
 2240 1021 26       		.uleb128 0x26
 2241 1022 6F010000 		.4byte	.LASF236
 2242 1026 01       		.byte	0x1
 2243 1027 71       		.byte	0x71
 2244 1028 470E0000 		.4byte	0xe47
 2245 102c 02       		.uleb128 0x2
 2246 102d 91       		.byte	0x91
 2247 102e 70       		.sleb128 -16
 2248 102f 27       		.uleb128 0x27
 2249 1030 FD090000 		.4byte	.LASF240
 2250 1034 55100000 		.4byte	0x1055
 2251 1038 05       		.uleb128 0x5
 2252 1039 03       		.byte	0x3
 2253 103a 00000000 		.4byte	__func__.6219
 2254 103e 00       		.byte	0
 2255 103f 0B       		.uleb128 0xb
 2256 1040 04       		.byte	0x4
 2257 1041 9E0E0000 		.4byte	0xe9e
 2258 1045 15       		.uleb128 0x15
 2259 1046 27080000 		.4byte	0x827
 2260 104a 55100000 		.4byte	0x1055
 2261 104e 16       		.uleb128 0x16
 2262 104f AD040000 		.4byte	0x4ad
 2263 1053 0D       		.byte	0xd
 2264 1054 00       		.byte	0
 2265 1055 06       		.uleb128 0x6
 2266 1056 45100000 		.4byte	0x1045
 2267 105a 24       		.uleb128 0x24
 2268 105b 290A0000 		.4byte	.LASF238
 2269 105f 01       		.byte	0x1
 2270 1060 5A       		.byte	0x5a
 2271 1061 00000000 		.4byte	.LFB183
 2272 1065 54000000 		.4byte	.LFE183-.LFB183
 2273 1069 01       		.uleb128 0x1
ARM GAS  /tmp/ccoMVsnu.s 			page 41


 2274 106a 9C       		.byte	0x9c
 2275 106b 9B100000 		.4byte	0x109b
 2276 106f 25       		.uleb128 0x25
 2277 1070 62757300 		.ascii	"bus\000"
 2278 1074 01       		.byte	0x1
 2279 1075 5A       		.byte	0x5a
 2280 1076 3F100000 		.4byte	0x103f
 2281 107a 02       		.uleb128 0x2
 2282 107b 91       		.byte	0x91
 2283 107c 74       		.sleb128 -12
 2284 107d 26       		.uleb128 0x26
 2285 107e FE060000 		.4byte	.LASF239
 2286 1082 01       		.byte	0x1
 2287 1083 5A       		.byte	0x5a
 2288 1084 3B0E0000 		.4byte	0xe3b
 2289 1088 02       		.uleb128 0x2
 2290 1089 91       		.byte	0x91
 2291 108a 70       		.sleb128 -16
 2292 108b 27       		.uleb128 0x27
 2293 108c FD090000 		.4byte	.LASF240
 2294 1090 AB100000 		.4byte	0x10ab
 2295 1094 05       		.uleb128 0x5
 2296 1095 03       		.byte	0x3
 2297 1096 00000000 		.4byte	__func__.6214
 2298 109a 00       		.byte	0
 2299 109b 15       		.uleb128 0x15
 2300 109c 27080000 		.4byte	0x827
 2301 10a0 AB100000 		.4byte	0x10ab
 2302 10a4 16       		.uleb128 0x16
 2303 10a5 AD040000 		.4byte	0x4ad
 2304 10a9 0B       		.byte	0xb
 2305 10aa 00       		.byte	0
 2306 10ab 06       		.uleb128 0x6
 2307 10ac 9B100000 		.4byte	0x109b
 2308 10b0 28       		.uleb128 0x28
 2309 10b1 E9060000 		.4byte	.LASF244
 2310 10b5 01       		.byte	0x1
 2311 10b6 41       		.byte	0x41
 2312 10b7 3B0E0000 		.4byte	0xe3b
 2313 10bb 00000000 		.4byte	.LFB182
 2314 10bf 38000000 		.4byte	.LFE182-.LFB182
 2315 10c3 01       		.uleb128 0x1
 2316 10c4 9C       		.byte	0x9c
 2317 10c5 E7100000 		.4byte	0x10e7
 2318 10c9 25       		.uleb128 0x25
 2319 10ca 62757300 		.ascii	"bus\000"
 2320 10ce 01       		.byte	0x1
 2321 10cf 41       		.byte	0x41
 2322 10d0 3F100000 		.4byte	0x103f
 2323 10d4 02       		.uleb128 0x2
 2324 10d5 91       		.byte	0x91
 2325 10d6 74       		.sleb128 -12
 2326 10d7 27       		.uleb128 0x27
 2327 10d8 FD090000 		.4byte	.LASF240
 2328 10dc F7100000 		.4byte	0x10f7
 2329 10e0 05       		.uleb128 0x5
 2330 10e1 03       		.byte	0x3
ARM GAS  /tmp/ccoMVsnu.s 			page 42


 2331 10e2 00000000 		.4byte	__func__.6209
 2332 10e6 00       		.byte	0
 2333 10e7 15       		.uleb128 0x15
 2334 10e8 27080000 		.4byte	0x827
 2335 10ec F7100000 		.4byte	0x10f7
 2336 10f0 16       		.uleb128 0x16
 2337 10f1 AD040000 		.4byte	0x4ad
 2338 10f5 0A       		.byte	0xa
 2339 10f6 00       		.byte	0
 2340 10f7 06       		.uleb128 0x6
 2341 10f8 E7100000 		.4byte	0x10e7
 2342 10fc 00       		.byte	0
 2343              		.section	.debug_abbrev,"",%progbits
 2344              	.Ldebug_abbrev0:
 2345 0000 01       		.uleb128 0x1
 2346 0001 11       		.uleb128 0x11
 2347 0002 01       		.byte	0x1
 2348 0003 25       		.uleb128 0x25
 2349 0004 0E       		.uleb128 0xe
 2350 0005 13       		.uleb128 0x13
 2351 0006 0B       		.uleb128 0xb
 2352 0007 03       		.uleb128 0x3
 2353 0008 0E       		.uleb128 0xe
 2354 0009 1B       		.uleb128 0x1b
 2355 000a 0E       		.uleb128 0xe
 2356 000b 55       		.uleb128 0x55
 2357 000c 17       		.uleb128 0x17
 2358 000d 11       		.uleb128 0x11
 2359 000e 01       		.uleb128 0x1
 2360 000f 10       		.uleb128 0x10
 2361 0010 17       		.uleb128 0x17
 2362 0011 00       		.byte	0
 2363 0012 00       		.byte	0
 2364 0013 02       		.uleb128 0x2
 2365 0014 24       		.uleb128 0x24
 2366 0015 00       		.byte	0
 2367 0016 0B       		.uleb128 0xb
 2368 0017 0B       		.uleb128 0xb
 2369 0018 3E       		.uleb128 0x3e
 2370 0019 0B       		.uleb128 0xb
 2371 001a 03       		.uleb128 0x3
 2372 001b 08       		.uleb128 0x8
 2373 001c 00       		.byte	0
 2374 001d 00       		.byte	0
 2375 001e 03       		.uleb128 0x3
 2376 001f 16       		.uleb128 0x16
 2377 0020 00       		.byte	0
 2378 0021 03       		.uleb128 0x3
 2379 0022 0E       		.uleb128 0xe
 2380 0023 3A       		.uleb128 0x3a
 2381 0024 0B       		.uleb128 0xb
 2382 0025 3B       		.uleb128 0x3b
 2383 0026 0B       		.uleb128 0xb
 2384 0027 49       		.uleb128 0x49
 2385 0028 13       		.uleb128 0x13
 2386 0029 00       		.byte	0
 2387 002a 00       		.byte	0
ARM GAS  /tmp/ccoMVsnu.s 			page 43


 2388 002b 04       		.uleb128 0x4
 2389 002c 35       		.uleb128 0x35
 2390 002d 00       		.byte	0
 2391 002e 49       		.uleb128 0x49
 2392 002f 13       		.uleb128 0x13
 2393 0030 00       		.byte	0
 2394 0031 00       		.byte	0
 2395 0032 05       		.uleb128 0x5
 2396 0033 24       		.uleb128 0x24
 2397 0034 00       		.byte	0
 2398 0035 0B       		.uleb128 0xb
 2399 0036 0B       		.uleb128 0xb
 2400 0037 3E       		.uleb128 0x3e
 2401 0038 0B       		.uleb128 0xb
 2402 0039 03       		.uleb128 0x3
 2403 003a 0E       		.uleb128 0xe
 2404 003b 00       		.byte	0
 2405 003c 00       		.byte	0
 2406 003d 06       		.uleb128 0x6
 2407 003e 26       		.uleb128 0x26
 2408 003f 00       		.byte	0
 2409 0040 49       		.uleb128 0x49
 2410 0041 13       		.uleb128 0x13
 2411 0042 00       		.byte	0
 2412 0043 00       		.byte	0
 2413 0044 07       		.uleb128 0x7
 2414 0045 13       		.uleb128 0x13
 2415 0046 01       		.byte	0x1
 2416 0047 03       		.uleb128 0x3
 2417 0048 0E       		.uleb128 0xe
 2418 0049 0B       		.uleb128 0xb
 2419 004a 0B       		.uleb128 0xb
 2420 004b 3A       		.uleb128 0x3a
 2421 004c 0B       		.uleb128 0xb
 2422 004d 3B       		.uleb128 0x3b
 2423 004e 0B       		.uleb128 0xb
 2424 004f 01       		.uleb128 0x1
 2425 0050 13       		.uleb128 0x13
 2426 0051 00       		.byte	0
 2427 0052 00       		.byte	0
 2428 0053 08       		.uleb128 0x8
 2429 0054 0D       		.uleb128 0xd
 2430 0055 00       		.byte	0
 2431 0056 03       		.uleb128 0x3
 2432 0057 0E       		.uleb128 0xe
 2433 0058 3A       		.uleb128 0x3a
 2434 0059 0B       		.uleb128 0xb
 2435 005a 3B       		.uleb128 0x3b
 2436 005b 0B       		.uleb128 0xb
 2437 005c 49       		.uleb128 0x49
 2438 005d 13       		.uleb128 0x13
 2439 005e 38       		.uleb128 0x38
 2440 005f 0B       		.uleb128 0xb
 2441 0060 00       		.byte	0
 2442 0061 00       		.byte	0
 2443 0062 09       		.uleb128 0x9
 2444 0063 0D       		.uleb128 0xd
ARM GAS  /tmp/ccoMVsnu.s 			page 44


 2445 0064 00       		.byte	0
 2446 0065 03       		.uleb128 0x3
 2447 0066 08       		.uleb128 0x8
 2448 0067 3A       		.uleb128 0x3a
 2449 0068 0B       		.uleb128 0xb
 2450 0069 3B       		.uleb128 0x3b
 2451 006a 05       		.uleb128 0x5
 2452 006b 49       		.uleb128 0x49
 2453 006c 13       		.uleb128 0x13
 2454 006d 38       		.uleb128 0x38
 2455 006e 0B       		.uleb128 0xb
 2456 006f 00       		.byte	0
 2457 0070 00       		.byte	0
 2458 0071 0A       		.uleb128 0xa
 2459 0072 0D       		.uleb128 0xd
 2460 0073 00       		.byte	0
 2461 0074 03       		.uleb128 0x3
 2462 0075 0E       		.uleb128 0xe
 2463 0076 3A       		.uleb128 0x3a
 2464 0077 0B       		.uleb128 0xb
 2465 0078 3B       		.uleb128 0x3b
 2466 0079 05       		.uleb128 0x5
 2467 007a 49       		.uleb128 0x49
 2468 007b 13       		.uleb128 0x13
 2469 007c 38       		.uleb128 0x38
 2470 007d 0B       		.uleb128 0xb
 2471 007e 00       		.byte	0
 2472 007f 00       		.byte	0
 2473 0080 0B       		.uleb128 0xb
 2474 0081 0F       		.uleb128 0xf
 2475 0082 00       		.byte	0
 2476 0083 0B       		.uleb128 0xb
 2477 0084 0B       		.uleb128 0xb
 2478 0085 49       		.uleb128 0x49
 2479 0086 13       		.uleb128 0x13
 2480 0087 00       		.byte	0
 2481 0088 00       		.byte	0
 2482 0089 0C       		.uleb128 0xc
 2483 008a 13       		.uleb128 0x13
 2484 008b 01       		.byte	0x1
 2485 008c 03       		.uleb128 0x3
 2486 008d 0E       		.uleb128 0xe
 2487 008e 0B       		.uleb128 0xb
 2488 008f 0B       		.uleb128 0xb
 2489 0090 3A       		.uleb128 0x3a
 2490 0091 0B       		.uleb128 0xb
 2491 0092 3B       		.uleb128 0x3b
 2492 0093 05       		.uleb128 0x5
 2493 0094 01       		.uleb128 0x1
 2494 0095 13       		.uleb128 0x13
 2495 0096 00       		.byte	0
 2496 0097 00       		.byte	0
 2497 0098 0D       		.uleb128 0xd
 2498 0099 15       		.uleb128 0x15
 2499 009a 01       		.byte	0x1
 2500 009b 27       		.uleb128 0x27
 2501 009c 19       		.uleb128 0x19
ARM GAS  /tmp/ccoMVsnu.s 			page 45


 2502 009d 01       		.uleb128 0x1
 2503 009e 13       		.uleb128 0x13
 2504 009f 00       		.byte	0
 2505 00a0 00       		.byte	0
 2506 00a1 0E       		.uleb128 0xe
 2507 00a2 05       		.uleb128 0x5
 2508 00a3 00       		.byte	0
 2509 00a4 49       		.uleb128 0x49
 2510 00a5 13       		.uleb128 0x13
 2511 00a6 00       		.byte	0
 2512 00a7 00       		.byte	0
 2513 00a8 0F       		.uleb128 0xf
 2514 00a9 0F       		.uleb128 0xf
 2515 00aa 00       		.byte	0
 2516 00ab 0B       		.uleb128 0xb
 2517 00ac 0B       		.uleb128 0xb
 2518 00ad 00       		.byte	0
 2519 00ae 00       		.byte	0
 2520 00af 10       		.uleb128 0x10
 2521 00b0 13       		.uleb128 0x13
 2522 00b1 01       		.byte	0x1
 2523 00b2 03       		.uleb128 0x3
 2524 00b3 0E       		.uleb128 0xe
 2525 00b4 0B       		.uleb128 0xb
 2526 00b5 05       		.uleb128 0x5
 2527 00b6 3A       		.uleb128 0x3a
 2528 00b7 0B       		.uleb128 0xb
 2529 00b8 3B       		.uleb128 0x3b
 2530 00b9 05       		.uleb128 0x5
 2531 00ba 01       		.uleb128 0x1
 2532 00bb 13       		.uleb128 0x13
 2533 00bc 00       		.byte	0
 2534 00bd 00       		.byte	0
 2535 00be 11       		.uleb128 0x11
 2536 00bf 0D       		.uleb128 0xd
 2537 00c0 00       		.byte	0
 2538 00c1 03       		.uleb128 0x3
 2539 00c2 0E       		.uleb128 0xe
 2540 00c3 3A       		.uleb128 0x3a
 2541 00c4 0B       		.uleb128 0xb
 2542 00c5 3B       		.uleb128 0x3b
 2543 00c6 05       		.uleb128 0x5
 2544 00c7 49       		.uleb128 0x49
 2545 00c8 13       		.uleb128 0x13
 2546 00c9 38       		.uleb128 0x38
 2547 00ca 05       		.uleb128 0x5
 2548 00cb 00       		.byte	0
 2549 00cc 00       		.byte	0
 2550 00cd 12       		.uleb128 0x12
 2551 00ce 34       		.uleb128 0x34
 2552 00cf 00       		.byte	0
 2553 00d0 03       		.uleb128 0x3
 2554 00d1 0E       		.uleb128 0xe
 2555 00d2 3A       		.uleb128 0x3a
 2556 00d3 0B       		.uleb128 0xb
 2557 00d4 3B       		.uleb128 0x3b
 2558 00d5 0B       		.uleb128 0xb
ARM GAS  /tmp/ccoMVsnu.s 			page 46


 2559 00d6 49       		.uleb128 0x49
 2560 00d7 13       		.uleb128 0x13
 2561 00d8 3F       		.uleb128 0x3f
 2562 00d9 19       		.uleb128 0x19
 2563 00da 3C       		.uleb128 0x3c
 2564 00db 19       		.uleb128 0x19
 2565 00dc 00       		.byte	0
 2566 00dd 00       		.byte	0
 2567 00de 13       		.uleb128 0x13
 2568 00df 13       		.uleb128 0x13
 2569 00e0 01       		.byte	0x1
 2570 00e1 0B       		.uleb128 0xb
 2571 00e2 0B       		.uleb128 0xb
 2572 00e3 3A       		.uleb128 0x3a
 2573 00e4 0B       		.uleb128 0xb
 2574 00e5 3B       		.uleb128 0x3b
 2575 00e6 0B       		.uleb128 0xb
 2576 00e7 01       		.uleb128 0x1
 2577 00e8 13       		.uleb128 0x13
 2578 00e9 00       		.byte	0
 2579 00ea 00       		.byte	0
 2580 00eb 14       		.uleb128 0x14
 2581 00ec 0D       		.uleb128 0xd
 2582 00ed 00       		.byte	0
 2583 00ee 03       		.uleb128 0x3
 2584 00ef 08       		.uleb128 0x8
 2585 00f0 3A       		.uleb128 0x3a
 2586 00f1 0B       		.uleb128 0xb
 2587 00f2 3B       		.uleb128 0x3b
 2588 00f3 0B       		.uleb128 0xb
 2589 00f4 49       		.uleb128 0x49
 2590 00f5 13       		.uleb128 0x13
 2591 00f6 38       		.uleb128 0x38
 2592 00f7 0B       		.uleb128 0xb
 2593 00f8 00       		.byte	0
 2594 00f9 00       		.byte	0
 2595 00fa 15       		.uleb128 0x15
 2596 00fb 01       		.uleb128 0x1
 2597 00fc 01       		.byte	0x1
 2598 00fd 49       		.uleb128 0x49
 2599 00fe 13       		.uleb128 0x13
 2600 00ff 01       		.uleb128 0x1
 2601 0100 13       		.uleb128 0x13
 2602 0101 00       		.byte	0
 2603 0102 00       		.byte	0
 2604 0103 16       		.uleb128 0x16
 2605 0104 21       		.uleb128 0x21
 2606 0105 00       		.byte	0
 2607 0106 49       		.uleb128 0x49
 2608 0107 13       		.uleb128 0x13
 2609 0108 2F       		.uleb128 0x2f
 2610 0109 0B       		.uleb128 0xb
 2611 010a 00       		.byte	0
 2612 010b 00       		.byte	0
 2613 010c 17       		.uleb128 0x17
 2614 010d 13       		.uleb128 0x13
 2615 010e 01       		.byte	0x1
ARM GAS  /tmp/ccoMVsnu.s 			page 47


 2616 010f 0B       		.uleb128 0xb
 2617 0110 0B       		.uleb128 0xb
 2618 0111 3A       		.uleb128 0x3a
 2619 0112 0B       		.uleb128 0xb
 2620 0113 3B       		.uleb128 0x3b
 2621 0114 05       		.uleb128 0x5
 2622 0115 01       		.uleb128 0x1
 2623 0116 13       		.uleb128 0x13
 2624 0117 00       		.byte	0
 2625 0118 00       		.byte	0
 2626 0119 18       		.uleb128 0x18
 2627 011a 16       		.uleb128 0x16
 2628 011b 00       		.byte	0
 2629 011c 03       		.uleb128 0x3
 2630 011d 0E       		.uleb128 0xe
 2631 011e 3A       		.uleb128 0x3a
 2632 011f 0B       		.uleb128 0xb
 2633 0120 3B       		.uleb128 0x3b
 2634 0121 05       		.uleb128 0x5
 2635 0122 49       		.uleb128 0x49
 2636 0123 13       		.uleb128 0x13
 2637 0124 00       		.byte	0
 2638 0125 00       		.byte	0
 2639 0126 19       		.uleb128 0x19
 2640 0127 13       		.uleb128 0x13
 2641 0128 01       		.byte	0x1
 2642 0129 0B       		.uleb128 0xb
 2643 012a 05       		.uleb128 0x5
 2644 012b 3A       		.uleb128 0x3a
 2645 012c 0B       		.uleb128 0xb
 2646 012d 3B       		.uleb128 0x3b
 2647 012e 0B       		.uleb128 0xb
 2648 012f 01       		.uleb128 0x1
 2649 0130 13       		.uleb128 0x13
 2650 0131 00       		.byte	0
 2651 0132 00       		.byte	0
 2652 0133 1A       		.uleb128 0x1a
 2653 0134 17       		.uleb128 0x17
 2654 0135 01       		.byte	0x1
 2655 0136 0B       		.uleb128 0xb
 2656 0137 0B       		.uleb128 0xb
 2657 0138 3A       		.uleb128 0x3a
 2658 0139 0B       		.uleb128 0xb
 2659 013a 3B       		.uleb128 0x3b
 2660 013b 0B       		.uleb128 0xb
 2661 013c 01       		.uleb128 0x1
 2662 013d 13       		.uleb128 0x13
 2663 013e 00       		.byte	0
 2664 013f 00       		.byte	0
 2665 0140 1B       		.uleb128 0x1b
 2666 0141 0D       		.uleb128 0xd
 2667 0142 00       		.byte	0
 2668 0143 03       		.uleb128 0x3
 2669 0144 0E       		.uleb128 0xe
 2670 0145 3A       		.uleb128 0x3a
 2671 0146 0B       		.uleb128 0xb
 2672 0147 3B       		.uleb128 0x3b
ARM GAS  /tmp/ccoMVsnu.s 			page 48


 2673 0148 05       		.uleb128 0x5
 2674 0149 49       		.uleb128 0x49
 2675 014a 13       		.uleb128 0x13
 2676 014b 00       		.byte	0
 2677 014c 00       		.byte	0
 2678 014d 1C       		.uleb128 0x1c
 2679 014e 34       		.uleb128 0x34
 2680 014f 00       		.byte	0
 2681 0150 03       		.uleb128 0x3
 2682 0151 08       		.uleb128 0x8
 2683 0152 3A       		.uleb128 0x3a
 2684 0153 0B       		.uleb128 0xb
 2685 0154 3B       		.uleb128 0x3b
 2686 0155 05       		.uleb128 0x5
 2687 0156 49       		.uleb128 0x49
 2688 0157 13       		.uleb128 0x13
 2689 0158 3F       		.uleb128 0x3f
 2690 0159 19       		.uleb128 0x19
 2691 015a 3C       		.uleb128 0x3c
 2692 015b 19       		.uleb128 0x19
 2693 015c 00       		.byte	0
 2694 015d 00       		.byte	0
 2695 015e 1D       		.uleb128 0x1d
 2696 015f 15       		.uleb128 0x15
 2697 0160 01       		.byte	0x1
 2698 0161 27       		.uleb128 0x27
 2699 0162 19       		.uleb128 0x19
 2700 0163 49       		.uleb128 0x49
 2701 0164 13       		.uleb128 0x13
 2702 0165 01       		.uleb128 0x1
 2703 0166 13       		.uleb128 0x13
 2704 0167 00       		.byte	0
 2705 0168 00       		.byte	0
 2706 0169 1E       		.uleb128 0x1e
 2707 016a 34       		.uleb128 0x34
 2708 016b 00       		.byte	0
 2709 016c 03       		.uleb128 0x3
 2710 016d 0E       		.uleb128 0xe
 2711 016e 3A       		.uleb128 0x3a
 2712 016f 0B       		.uleb128 0xb
 2713 0170 3B       		.uleb128 0x3b
 2714 0171 05       		.uleb128 0x5
 2715 0172 49       		.uleb128 0x49
 2716 0173 13       		.uleb128 0x13
 2717 0174 3F       		.uleb128 0x3f
 2718 0175 19       		.uleb128 0x19
 2719 0176 3C       		.uleb128 0x3c
 2720 0177 19       		.uleb128 0x19
 2721 0178 00       		.byte	0
 2722 0179 00       		.byte	0
 2723 017a 1F       		.uleb128 0x1f
 2724 017b 0D       		.uleb128 0xd
 2725 017c 00       		.byte	0
 2726 017d 03       		.uleb128 0x3
 2727 017e 08       		.uleb128 0x8
 2728 017f 3A       		.uleb128 0x3a
 2729 0180 0B       		.uleb128 0xb
ARM GAS  /tmp/ccoMVsnu.s 			page 49


 2730 0181 3B       		.uleb128 0x3b
 2731 0182 0B       		.uleb128 0xb
 2732 0183 49       		.uleb128 0x49
 2733 0184 13       		.uleb128 0x13
 2734 0185 00       		.byte	0
 2735 0186 00       		.byte	0
 2736 0187 20       		.uleb128 0x20
 2737 0188 04       		.uleb128 0x4
 2738 0189 01       		.byte	0x1
 2739 018a 0B       		.uleb128 0xb
 2740 018b 0B       		.uleb128 0xb
 2741 018c 49       		.uleb128 0x49
 2742 018d 13       		.uleb128 0x13
 2743 018e 3A       		.uleb128 0x3a
 2744 018f 0B       		.uleb128 0xb
 2745 0190 3B       		.uleb128 0x3b
 2746 0191 0B       		.uleb128 0xb
 2747 0192 01       		.uleb128 0x1
 2748 0193 13       		.uleb128 0x13
 2749 0194 00       		.byte	0
 2750 0195 00       		.byte	0
 2751 0196 21       		.uleb128 0x21
 2752 0197 28       		.uleb128 0x28
 2753 0198 00       		.byte	0
 2754 0199 03       		.uleb128 0x3
 2755 019a 0E       		.uleb128 0xe
 2756 019b 1C       		.uleb128 0x1c
 2757 019c 0B       		.uleb128 0xb
 2758 019d 00       		.byte	0
 2759 019e 00       		.byte	0
 2760 019f 22       		.uleb128 0x22
 2761 01a0 13       		.uleb128 0x13
 2762 01a1 01       		.byte	0x1
 2763 01a2 03       		.uleb128 0x3
 2764 01a3 0E       		.uleb128 0xe
 2765 01a4 0B       		.uleb128 0xb
 2766 01a5 05       		.uleb128 0x5
 2767 01a6 3A       		.uleb128 0x3a
 2768 01a7 0B       		.uleb128 0xb
 2769 01a8 3B       		.uleb128 0x3b
 2770 01a9 0B       		.uleb128 0xb
 2771 01aa 01       		.uleb128 0x1
 2772 01ab 13       		.uleb128 0x13
 2773 01ac 00       		.byte	0
 2774 01ad 00       		.byte	0
 2775 01ae 23       		.uleb128 0x23
 2776 01af 0D       		.uleb128 0xd
 2777 01b0 00       		.byte	0
 2778 01b1 03       		.uleb128 0x3
 2779 01b2 0E       		.uleb128 0xe
 2780 01b3 3A       		.uleb128 0x3a
 2781 01b4 0B       		.uleb128 0xb
 2782 01b5 3B       		.uleb128 0x3b
 2783 01b6 0B       		.uleb128 0xb
 2784 01b7 49       		.uleb128 0x49
 2785 01b8 13       		.uleb128 0x13
 2786 01b9 38       		.uleb128 0x38
ARM GAS  /tmp/ccoMVsnu.s 			page 50


 2787 01ba 05       		.uleb128 0x5
 2788 01bb 00       		.byte	0
 2789 01bc 00       		.byte	0
 2790 01bd 24       		.uleb128 0x24
 2791 01be 2E       		.uleb128 0x2e
 2792 01bf 01       		.byte	0x1
 2793 01c0 3F       		.uleb128 0x3f
 2794 01c1 19       		.uleb128 0x19
 2795 01c2 03       		.uleb128 0x3
 2796 01c3 0E       		.uleb128 0xe
 2797 01c4 3A       		.uleb128 0x3a
 2798 01c5 0B       		.uleb128 0xb
 2799 01c6 3B       		.uleb128 0x3b
 2800 01c7 0B       		.uleb128 0xb
 2801 01c8 27       		.uleb128 0x27
 2802 01c9 19       		.uleb128 0x19
 2803 01ca 11       		.uleb128 0x11
 2804 01cb 01       		.uleb128 0x1
 2805 01cc 12       		.uleb128 0x12
 2806 01cd 06       		.uleb128 0x6
 2807 01ce 40       		.uleb128 0x40
 2808 01cf 18       		.uleb128 0x18
 2809 01d0 9642     		.uleb128 0x2116
 2810 01d2 19       		.uleb128 0x19
 2811 01d3 01       		.uleb128 0x1
 2812 01d4 13       		.uleb128 0x13
 2813 01d5 00       		.byte	0
 2814 01d6 00       		.byte	0
 2815 01d7 25       		.uleb128 0x25
 2816 01d8 05       		.uleb128 0x5
 2817 01d9 00       		.byte	0
 2818 01da 03       		.uleb128 0x3
 2819 01db 08       		.uleb128 0x8
 2820 01dc 3A       		.uleb128 0x3a
 2821 01dd 0B       		.uleb128 0xb
 2822 01de 3B       		.uleb128 0x3b
 2823 01df 0B       		.uleb128 0xb
 2824 01e0 49       		.uleb128 0x49
 2825 01e1 13       		.uleb128 0x13
 2826 01e2 02       		.uleb128 0x2
 2827 01e3 18       		.uleb128 0x18
 2828 01e4 00       		.byte	0
 2829 01e5 00       		.byte	0
 2830 01e6 26       		.uleb128 0x26
 2831 01e7 05       		.uleb128 0x5
 2832 01e8 00       		.byte	0
 2833 01e9 03       		.uleb128 0x3
 2834 01ea 0E       		.uleb128 0xe
 2835 01eb 3A       		.uleb128 0x3a
 2836 01ec 0B       		.uleb128 0xb
 2837 01ed 3B       		.uleb128 0x3b
 2838 01ee 0B       		.uleb128 0xb
 2839 01ef 49       		.uleb128 0x49
 2840 01f0 13       		.uleb128 0x13
 2841 01f1 02       		.uleb128 0x2
 2842 01f2 18       		.uleb128 0x18
 2843 01f3 00       		.byte	0
ARM GAS  /tmp/ccoMVsnu.s 			page 51


 2844 01f4 00       		.byte	0
 2845 01f5 27       		.uleb128 0x27
 2846 01f6 34       		.uleb128 0x34
 2847 01f7 00       		.byte	0
 2848 01f8 03       		.uleb128 0x3
 2849 01f9 0E       		.uleb128 0xe
 2850 01fa 49       		.uleb128 0x49
 2851 01fb 13       		.uleb128 0x13
 2852 01fc 34       		.uleb128 0x34
 2853 01fd 19       		.uleb128 0x19
 2854 01fe 02       		.uleb128 0x2
 2855 01ff 18       		.uleb128 0x18
 2856 0200 00       		.byte	0
 2857 0201 00       		.byte	0
 2858 0202 28       		.uleb128 0x28
 2859 0203 2E       		.uleb128 0x2e
 2860 0204 01       		.byte	0x1
 2861 0205 3F       		.uleb128 0x3f
 2862 0206 19       		.uleb128 0x19
 2863 0207 03       		.uleb128 0x3
 2864 0208 0E       		.uleb128 0xe
 2865 0209 3A       		.uleb128 0x3a
 2866 020a 0B       		.uleb128 0xb
 2867 020b 3B       		.uleb128 0x3b
 2868 020c 0B       		.uleb128 0xb
 2869 020d 27       		.uleb128 0x27
 2870 020e 19       		.uleb128 0x19
 2871 020f 49       		.uleb128 0x49
 2872 0210 13       		.uleb128 0x13
 2873 0211 11       		.uleb128 0x11
 2874 0212 01       		.uleb128 0x1
 2875 0213 12       		.uleb128 0x12
 2876 0214 06       		.uleb128 0x6
 2877 0215 40       		.uleb128 0x40
 2878 0216 18       		.uleb128 0x18
 2879 0217 9642     		.uleb128 0x2116
 2880 0219 19       		.uleb128 0x19
 2881 021a 01       		.uleb128 0x1
 2882 021b 13       		.uleb128 0x13
 2883 021c 00       		.byte	0
 2884 021d 00       		.byte	0
 2885 021e 00       		.byte	0
 2886              		.section	.debug_aranges,"",%progbits
 2887 0000 2C000000 		.4byte	0x2c
 2888 0004 0200     		.2byte	0x2
 2889 0006 00000000 		.4byte	.Ldebug_info0
 2890 000a 04       		.byte	0x4
 2891 000b 00       		.byte	0
 2892 000c 0000     		.2byte	0
 2893 000e 0000     		.2byte	0
 2894 0010 00000000 		.4byte	.LFB182
 2895 0014 38000000 		.4byte	.LFE182-.LFB182
 2896 0018 00000000 		.4byte	.LFB183
 2897 001c 54000000 		.4byte	.LFE183-.LFB183
 2898 0020 00000000 		.4byte	.LFB184
 2899 0024 40000000 		.4byte	.LFE184-.LFB184
 2900 0028 00000000 		.4byte	0
ARM GAS  /tmp/ccoMVsnu.s 			page 52


 2901 002c 00000000 		.4byte	0
 2902              		.section	.debug_ranges,"",%progbits
 2903              	.Ldebug_ranges0:
 2904 0000 00000000 		.4byte	.LFB182
 2905 0004 38000000 		.4byte	.LFE182
 2906 0008 00000000 		.4byte	.LFB183
 2907 000c 54000000 		.4byte	.LFE183
 2908 0010 00000000 		.4byte	.LFB184
 2909 0014 40000000 		.4byte	.LFE184
 2910 0018 00000000 		.4byte	0
 2911 001c 00000000 		.4byte	0
 2912              		.section	.debug_line,"",%progbits
 2913              	.Ldebug_line0:
 2914 0000 0B040000 		.section	.debug_str,"MS",%progbits,1
 2914      0200A703 
 2914      00000201 
 2914      FB0E0D00 
 2914      01010101 
 2915              	.LASF53:
 2916 0000 63685F74 		.ascii	"ch_threads_list\000"
 2916      68726561 
 2916      64735F6C 
 2916      69737400 
 2917              	.LASF54:
 2918 0010 74687265 		.ascii	"threads_queue_t\000"
 2918      6164735F 
 2918      71756575 
 2918      655F7400 
 2919              	.LASF151:
 2920 0020 6576656E 		.ascii	"event_listener_t\000"
 2920      745F6C69 
 2920      7374656E 
 2920      65725F74 
 2920      00
 2921              	.LASF43:
 2922 0031 705F7761 		.ascii	"p_waiting\000"
 2922      6974696E 
 2922      6700
 2923              	.LASF222:
 2924 003b 53657269 		.ascii	"SerialDriver\000"
 2924      616C4472 
 2924      69766572 
 2924      00
 2925              	.LASF207:
 2926 0048 50434461 		.ascii	"PCData\000"
 2926      746100
 2927              	.LASF129:
 2928 004f 53797374 		.ascii	"SystemCoreClock\000"
 2928      656D436F 
 2928      7265436C 
 2928      6F636B00 
 2929              	.LASF119:
 2930 005f 77746D74 		.ascii	"wtmtxp\000"
 2930      787000
 2931              	.LASF193:
 2932 0066 42535252 		.ascii	"BSRR\000"
 2932      00
ARM GAS  /tmp/ccoMVsnu.s 			page 53


 2933              	.LASF128:
 2934 006b 63686172 		.ascii	"char\000"
 2934      00
 2935              	.LASF101:
 2936 0070 72656761 		.ascii	"regarm_t\000"
 2936      726D5F74 
 2936      00
 2937              	.LASF34:
 2938 0079 705F7072 		.ascii	"p_prio\000"
 2938      696F00
 2939              	.LASF158:
 2940 0080 6576656E 		.ascii	"event_source\000"
 2940      745F736F 
 2940      75726365 
 2940      00
 2941              	.LASF30:
 2942 008d 73797374 		.ascii	"systime_t\000"
 2942      696D655F 
 2942      7400
 2943              	.LASF217:
 2944 0097 494F4275 		.ascii	"IOBus\000"
 2944      7300
 2945              	.LASF140:
 2946 009d 63665F6F 		.ascii	"cf_off_older\000"
 2946      66665F6F 
 2946      6C646572 
 2946      00
 2947              	.LASF126:
 2948 00aa 6D5F6F77 		.ascii	"m_owner\000"
 2948      6E657200 
 2949              	.LASF122:
 2950 00b2 735F7175 		.ascii	"s_queue\000"
 2950      65756500 
 2951              	.LASF162:
 2952 00ba 696F5F71 		.ascii	"io_queue_t\000"
 2952      75657565 
 2952      5F7400
 2953              	.LASF44:
 2954 00c5 705F6D73 		.ascii	"p_msgqueue\000"
 2954      67717565 
 2954      756500
 2955              	.LASF0:
 2956 00d0 756E7369 		.ascii	"unsigned int\000"
 2956      676E6564 
 2956      20696E74 
 2956      00
 2957              	.LASF51:
 2958 00dd 74687265 		.ascii	"threads_list_t\000"
 2958      6164735F 
 2958      6C697374 
 2958      5F7400
 2959              	.LASF169:
 2960 00ec 715F7264 		.ascii	"q_rdptr\000"
 2960      70747200 
 2961              	.LASF10:
 2962 00f4 5F5F696E 		.ascii	"__int32_t\000"
 2962      7433325F 
ARM GAS  /tmp/ccoMVsnu.s 			page 54


 2962      7400
 2963              	.LASF108:
 2964 00fe 73655F73 		.ascii	"se_state\000"
 2964      74617465 
 2964      00
 2965              	.LASF141:
 2966 0107 63665F6F 		.ascii	"cf_off_name\000"
 2966      66665F6E 
 2966      616D6500 
 2967              	.LASF172:
 2968 0113 716E6F74 		.ascii	"qnotify_t\000"
 2968      6966795F 
 2968      7400
 2969              	.LASF90:
 2970 011d 434D4152 		.ascii	"CMAR\000"
 2970      00
 2971              	.LASF116:
 2972 0122 77746F62 		.ascii	"wtobjp\000"
 2972      6A7000
 2973              	.LASF84:
 2974 0129 76746C69 		.ascii	"vtlist\000"
 2974      737400
 2975              	.LASF171:
 2976 0130 715F6C69 		.ascii	"q_link\000"
 2976      6E6B00
 2977              	.LASF91:
 2978 0137 444D415F 		.ascii	"DMA_Channel_TypeDef\000"
 2978      4368616E 
 2978      6E656C5F 
 2978      54797065 
 2978      44656600 
 2979              	.LASF57:
 2980 014b 63685F72 		.ascii	"ch_ready_list\000"
 2980      65616479 
 2980      5F6C6973 
 2980      7400
 2981              	.LASF86:
 2982 0159 69646C65 		.ascii	"idle_thread_wa\000"
 2982      5F746872 
 2982      6561645F 
 2982      776100
 2983              	.LASF120:
 2984 0168 65776D61 		.ascii	"ewmask\000"
 2984      736B00
 2985              	.LASF236:
 2986 016f 6D6F6465 		.ascii	"mode\000"
 2986      00
 2987              	.LASF144:
 2988 0174 63665F6F 		.ascii	"cf_off_flags\000"
 2988      66665F66 
 2988      6C616773 
 2988      00
 2989              	.LASF55:
 2990 0181 63685F74 		.ascii	"ch_threads_queue\000"
 2990      68726561 
 2990      64735F71 
 2990      75657565 
ARM GAS  /tmp/ccoMVsnu.s 			page 55


 2990      00
 2991              	.LASF134:
 2992 0192 63685F70 		.ascii	"ch_ptrsize\000"
 2992      74727369 
 2992      7A6500
 2993              	.LASF64:
 2994 019d 76746675 		.ascii	"vtfunc_t\000"
 2994      6E635F74 
 2994      00
 2995              	.LASF234:
 2996 01a6 77726974 		.ascii	"writet\000"
 2996      657400
 2997              	.LASF88:
 2998 01ad 434E4454 		.ascii	"CNDTR\000"
 2998      5200
 2999              	.LASF123:
 3000 01b3 735F636E 		.ascii	"s_cnt\000"
 3000      7400
 3001              	.LASF76:
 3002 01b9 63685F73 		.ascii	"ch_system_debug\000"
 3002      79737465 
 3002      6D5F6465 
 3002      62756700 
 3003              	.LASF96:
 3004 01c9 47545052 		.ascii	"GTPR\000"
 3004      00
 3005              	.LASF225:
 3006 01ce 69717565 		.ascii	"iqueue\000"
 3006      756500
 3007              	.LASF19:
 3008 01d5 75696E74 		.ascii	"uint32_t\000"
 3008      33325F74 
 3008      00
 3009              	.LASF164:
 3010 01de 715F7761 		.ascii	"q_waiting\000"
 3010      6974696E 
 3010      6700
 3011              	.LASF135:
 3012 01e8 63685F74 		.ascii	"ch_timesize\000"
 3012      696D6573 
 3012      697A6500 
 3013              	.LASF27:
 3014 01f4 6576656E 		.ascii	"eventmask_t\000"
 3014      746D6173 
 3014      6B5F7400 
 3015              	.LASF59:
 3016 0200 725F7072 		.ascii	"r_prio\000"
 3016      696F00
 3017              	.LASF71:
 3018 0207 76745F70 		.ascii	"vt_par\000"
 3018      617200
 3019              	.LASF199:
 3020 020e 6F747970 		.ascii	"otyper\000"
 3020      657200
 3021              	.LASF178:
 3022 0215 73686966 		.ascii	"shift\000"
 3022      7400
ARM GAS  /tmp/ccoMVsnu.s 			page 56


 3023              	.LASF223:
 3024 021b 6576656E 		.ascii	"event\000"
 3024      7400
 3025              	.LASF121:
 3026 0221 63685F73 		.ascii	"ch_semaphore\000"
 3026      656D6170 
 3026      686F7265 
 3026      00
 3027              	.LASF177:
 3028 022e 6373656C 		.ascii	"cselr\000"
 3028      7200
 3029              	.LASF25:
 3030 0234 74707269 		.ascii	"tprio_t\000"
 3030      6F5F7400 
 3031              	.LASF66:
 3032 023c 63685F76 		.ascii	"ch_virtual_timer\000"
 3032      69727475 
 3032      616C5F74 
 3032      696D6572 
 3032      00
 3033              	.LASF15:
 3034 024d 6C6F6E67 		.ascii	"long long unsigned int\000"
 3034      206C6F6E 
 3034      6720756E 
 3034      7369676E 
 3034      65642069 
 3035              	.LASF107:
 3036 0264 73655F77 		.ascii	"se_wtobjp\000"
 3036      746F626A 
 3036      7000
 3037              	.LASF180:
 3038 026e 76656374 		.ascii	"vector\000"
 3038      6F7200
 3039              	.LASF160:
 3040 0275 6576656E 		.ascii	"event_source_t\000"
 3040      745F736F 
 3040      75726365 
 3040      5F7400
 3041              	.LASF8:
 3042 0284 5F5F7569 		.ascii	"__uint16_t\000"
 3042      6E743136 
 3042      5F7400
 3043              	.LASF29:
 3044 028f 636E745F 		.ascii	"cnt_t\000"
 3044      7400
 3045              	.LASF189:
 3046 0295 4D4F4445 		.ascii	"MODER\000"
 3046      5200
 3047              	.LASF78:
 3048 029b 6973725F 		.ascii	"isr_cnt\000"
 3048      636E7400 
 3049              	.LASF204:
 3050 02a3 73746D33 		.ascii	"stm32_gpio_setup_t\000"
 3050      325F6770 
 3050      696F5F73 
 3050      65747570 
 3050      5F7400
ARM GAS  /tmp/ccoMVsnu.s 			page 57


 3051              	.LASF197:
 3052 02b6 73746D33 		.ascii	"stm32_gpio_t\000"
 3052      325F6770 
 3052      696F5F74 
 3052      00
 3053              	.LASF195:
 3054 02c3 4146524C 		.ascii	"AFRL\000"
 3054      00
 3055              	.LASF36:
 3056 02c8 705F6E65 		.ascii	"p_newer\000"
 3056      77657200 
 3057              	.LASF188:
 3058 02d0 636C6561 		.ascii	"clear\000"
 3058      7200
 3059              	.LASF73:
 3060 02d6 63685F76 		.ascii	"ch_virtual_timers_list\000"
 3060      69727475 
 3060      616C5F74 
 3060      696D6572 
 3060      735F6C69 
 3061              	.LASF89:
 3062 02ed 43504152 		.ascii	"CPAR\000"
 3062      00
 3063              	.LASF105:
 3064 02f2 73655F74 		.ascii	"se_time\000"
 3064      696D6500 
 3065              	.LASF31:
 3066 02fa 74687265 		.ascii	"thread_t\000"
 3066      61645F74 
 3066      00
 3067              	.LASF157:
 3068 0303 656C5F77 		.ascii	"el_wflags\000"
 3068      666C6167 
 3068      7300
 3069              	.LASF232:
 3070 030d 70757474 		.ascii	"putt\000"
 3070      00
 3071              	.LASF4:
 3072 0312 73697A65 		.ascii	"size_t\000"
 3072      5F7400
 3073              	.LASF114:
 3074 0319 7264796D 		.ascii	"rdymsg\000"
 3074      736700
 3075              	.LASF136:
 3076 0320 63685F74 		.ascii	"ch_threadsize\000"
 3076      68726561 
 3076      6473697A 
 3076      6500
 3077              	.LASF216:
 3078 032e 6F666673 		.ascii	"offset\000"
 3078      657400
 3079              	.LASF146:
 3080 0335 63665F6F 		.ascii	"cf_off_preempt\000"
 3080      66665F70 
 3080      7265656D 
 3080      707400
 3081              	.LASF221:
ARM GAS  /tmp/ccoMVsnu.s 			page 58


 3082 0344 73647374 		.ascii	"sdstate_t\000"
 3082      6174655F 
 3082      7400
 3083              	.LASF161:
 3084 034e 5F426F6F 		.ascii	"_Bool\000"
 3084      6C00
 3085              	.LASF219:
 3086 0354 53445F53 		.ascii	"SD_STOP\000"
 3086      544F5000 
 3087              	.LASF241:
 3088 035c 474E5520 		.ascii	"GNU C11 6.3.1 20170215 (release) [ARM/embedded-6-br"
 3088      43313120 
 3088      362E332E 
 3088      31203230 
 3088      31373032 
 3089 038f 616E6368 		.ascii	"anch revision 245512] -mcpu=cortex-m0 -mno-thumb-in"
 3089      20726576 
 3089      6973696F 
 3089      6E203234 
 3089      35353132 
 3090 03c2 74657277 		.ascii	"terwork -mthumb -ggdb -O0 -fomit-frame-pointer -fal"
 3090      6F726B20 
 3090      2D6D7468 
 3090      756D6220 
 3090      2D676764 
 3091 03f5 69676E2D 		.ascii	"ign-functions=16 -ffunction-sections -fdata-section"
 3091      66756E63 
 3091      74696F6E 
 3091      733D3136 
 3091      202D6666 
 3092 0428 7300     		.ascii	"s\000"
 3093              	.LASF206:
 3094 042a 50424461 		.ascii	"PBData\000"
 3094      746100
 3095              	.LASF124:
 3096 0431 63685F6D 		.ascii	"ch_mutex\000"
 3096      75746578 
 3096      00
 3097              	.LASF14:
 3098 043a 5F5F7569 		.ascii	"__uint64_t\000"
 3098      6E743634 
 3098      5F7400
 3099              	.LASF213:
 3100 0445 70616C5F 		.ascii	"pal_default_config\000"
 3100      64656661 
 3100      756C745F 
 3100      636F6E66 
 3100      696700
 3101              	.LASF196:
 3102 0458 41465248 		.ascii	"AFRH\000"
 3102      00
 3103              	.LASF100:
 3104 045d 55534152 		.ascii	"USART_TypeDef\000"
 3104      545F5479 
 3104      70654465 
 3104      6600
 3105              	.LASF212:
ARM GAS  /tmp/ccoMVsnu.s 			page 59


 3106 046b 696F706F 		.ascii	"ioportid_t\000"
 3106      72746964 
 3106      5F7400
 3107              	.LASF170:
 3108 0476 715F6E6F 		.ascii	"q_notify\000"
 3108      74696679 
 3108      00
 3109              	.LASF228:
 3110 047f 636C6F63 		.ascii	"clock\000"
 3110      6B00
 3111              	.LASF192:
 3112 0485 50555044 		.ascii	"PUPDR\000"
 3112      5200
 3113              	.LASF138:
 3114 048b 63665F6F 		.ascii	"cf_off_ctx\000"
 3114      66665F63 
 3114      747800
 3115              	.LASF182:
 3116 0496 73746D33 		.ascii	"stm32_dmaisr_t\000"
 3116      325F646D 
 3116      61697372 
 3116      5F7400
 3117              	.LASF142:
 3118 04a5 63665F6F 		.ascii	"cf_off_stklimit\000"
 3118      66665F73 
 3118      746B6C69 
 3118      6D697400 
 3119              	.LASF38:
 3120 04b5 705F6E61 		.ascii	"p_name\000"
 3120      6D6500
 3121              	.LASF214:
 3122 04bc 706F7274 		.ascii	"portid\000"
 3122      696400
 3123              	.LASF198:
 3124 04c3 6D6F6465 		.ascii	"moder\000"
 3124      7200
 3125              	.LASF69:
 3126 04c9 76745F64 		.ascii	"vt_delta\000"
 3126      656C7461 
 3126      00
 3127              	.LASF243:
 3128 04d2 2F686F6D 		.ascii	"/home/felix/Desktop/workspace/esho/UltrasonicCortex"
 3128      652F6665 
 3128      6C69782F 
 3128      4465736B 
 3128      746F702F 
 3129 0505 2F00     		.ascii	"/\000"
 3130              	.LASF187:
 3131 0507 5F73746D 		.ascii	"_stm32_dma_isr_redir\000"
 3131      33325F64 
 3131      6D615F69 
 3131      73725F72 
 3131      65646972 
 3132              	.LASF50:
 3133 051c 74687265 		.ascii	"thread_reference_t\000"
 3133      61645F72 
 3133      65666572 
ARM GAS  /tmp/ccoMVsnu.s 			page 60


 3133      656E6365 
 3133      5F7400
 3134              	.LASF74:
 3135 052f 76745F6C 		.ascii	"vt_lasttime\000"
 3135      61737474 
 3135      696D6500 
 3136              	.LASF168:
 3137 053b 715F7772 		.ascii	"q_wrptr\000"
 3137      70747200 
 3138              	.LASF23:
 3139 0543 74737461 		.ascii	"tstate_t\000"
 3139      74655F74 
 3139      00
 3140              	.LASF106:
 3141 054c 73655F74 		.ascii	"se_tp\000"
 3141      7000
 3142              	.LASF181:
 3143 0552 73746D33 		.ascii	"stm32_dma_stream_t\000"
 3143      325F646D 
 3143      615F7374 
 3143      7265616D 
 3143      5F7400
 3144              	.LASF37:
 3145 0565 705F6F6C 		.ascii	"p_older\000"
 3145      64657200 
 3146              	.LASF40:
 3147 056d 705F7374 		.ascii	"p_state\000"
 3147      61746500 
 3148              	.LASF39:
 3149 0575 705F7374 		.ascii	"p_stklimit\000"
 3149      6B6C696D 
 3149      697400
 3150              	.LASF16:
 3151 0580 75696E74 		.ascii	"uint8_t\000"
 3151      385F7400 
 3152              	.LASF112:
 3153 0588 74625F62 		.ascii	"tb_buffer\000"
 3153      75666665 
 3153      7200
 3154              	.LASF97:
 3155 0592 52544F52 		.ascii	"RTOR\000"
 3155      00
 3156              	.LASF176:
 3157 0597 636D6173 		.ascii	"cmask\000"
 3157      6B00
 3158              	.LASF173:
 3159 059d 696E7075 		.ascii	"input_queue_t\000"
 3159      745F7175 
 3159      6575655F 
 3159      7400
 3160              	.LASF49:
 3161 05ab 705F6D70 		.ascii	"p_mpool\000"
 3161      6F6F6C00 
 3162              	.LASF47:
 3163 05b3 705F6D74 		.ascii	"p_mtxlist\000"
 3163      786C6973 
 3163      7400
ARM GAS  /tmp/ccoMVsnu.s 			page 61


 3164              	.LASF52:
 3165 05bd 63685F74 		.ascii	"ch_thread\000"
 3165      68726561 
 3165      6400
 3166              	.LASF110:
 3167 05c7 74625F73 		.ascii	"tb_size\000"
 3167      697A6500 
 3168              	.LASF237:
 3169 05cf 70616C53 		.ascii	"palSetBusMode\000"
 3169      65744275 
 3169      734D6F64 
 3169      6500
 3170              	.LASF227:
 3171 05dd 75736172 		.ascii	"usart\000"
 3171      7400
 3172              	.LASF75:
 3173 05e3 73797374 		.ascii	"system_debug_t\000"
 3173      656D5F64 
 3173      65627567 
 3173      5F7400
 3174              	.LASF1:
 3175 05f2 6C6F6E67 		.ascii	"long long int\000"
 3175      206C6F6E 
 3175      6720696E 
 3175      7400
 3176              	.LASF230:
 3177 0600 77726974 		.ascii	"write\000"
 3177      6500
 3178              	.LASF152:
 3179 0606 6576656E 		.ascii	"event_listener\000"
 3179      745F6C69 
 3179      7374656E 
 3179      657200
 3180              	.LASF58:
 3181 0615 725F7175 		.ascii	"r_queue\000"
 3181      65756500 
 3182              	.LASF61:
 3183 061d 725F6E65 		.ascii	"r_newer\000"
 3183      77657200 
 3184              	.LASF26:
 3185 0625 6D73675F 		.ascii	"msg_t\000"
 3185      7400
 3186              	.LASF201:
 3187 062b 70757064 		.ascii	"pupdr\000"
 3187      7200
 3188              	.LASF103:
 3189 0631 636F6E74 		.ascii	"context\000"
 3189      65787400 
 3190              	.LASF41:
 3191 0639 705F666C 		.ascii	"p_flags\000"
 3191      61677300 
 3192              	.LASF65:
 3193 0641 76697274 		.ascii	"virtual_timer_t\000"
 3193      75616C5F 
 3193      74696D65 
 3193      725F7400 
 3194              	.LASF210:
ARM GAS  /tmp/ccoMVsnu.s 			page 62


 3195 0651 696F706F 		.ascii	"ioportmask_t\000"
 3195      72746D61 
 3195      736B5F74 
 3195      00
 3196              	.LASF95:
 3197 065e 444D415F 		.ascii	"DMA_TypeDef\000"
 3197      54797065 
 3197      44656600 
 3198              	.LASF211:
 3199 066a 696F6D6F 		.ascii	"iomode_t\000"
 3199      64655F74 
 3199      00
 3200              	.LASF242:
 3201 0673 43686962 		.ascii	"ChibiOS/os/hal/src/pal.c\000"
 3201      694F532F 
 3201      6F732F68 
 3201      616C2F73 
 3201      72632F70 
 3202              	.LASF145:
 3203 068c 63665F6F 		.ascii	"cf_off_refs\000"
 3203      66665F72 
 3203      65667300 
 3204              	.LASF131:
 3205 0698 63685F7A 		.ascii	"ch_zero\000"
 3205      65726F00 
 3206              	.LASF174:
 3207 06a0 6F757470 		.ascii	"output_queue_t\000"
 3207      75745F71 
 3207      75657565 
 3207      5F7400
 3208              	.LASF184:
 3209 06af 646D615F 		.ascii	"dma_param\000"
 3209      70617261 
 3209      6D00
 3210              	.LASF111:
 3211 06b9 74625F70 		.ascii	"tb_ptr\000"
 3211      747200
 3212              	.LASF203:
 3213 06c0 61667268 		.ascii	"afrh\000"
 3213      00
 3214              	.LASF194:
 3215 06c5 4C434B52 		.ascii	"LCKR\000"
 3215      00
 3216              	.LASF202:
 3217 06ca 6166726C 		.ascii	"afrl\000"
 3217      00
 3218              	.LASF62:
 3219 06cf 725F6F6C 		.ascii	"r_older\000"
 3219      64657200 
 3220              	.LASF215:
 3221 06d7 6D61736B 		.ascii	"mask\000"
 3221      00
 3222              	.LASF28:
 3223 06dc 6576656E 		.ascii	"eventflags_t\000"
 3223      74666C61 
 3223      67735F74 
 3223      00
ARM GAS  /tmp/ccoMVsnu.s 			page 63


 3224              	.LASF244:
 3225 06e9 70616C52 		.ascii	"palReadBus\000"
 3225      65616442 
 3225      757300
 3226              	.LASF77:
 3227 06f4 70616E69 		.ascii	"panic_msg\000"
 3227      635F6D73 
 3227      6700
 3228              	.LASF239:
 3229 06fe 62697473 		.ascii	"bits\000"
 3229      00
 3230              	.LASF153:
 3231 0703 656C5F6E 		.ascii	"el_next\000"
 3231      65787400 
 3232              	.LASF45:
 3233 070b 705F6D73 		.ascii	"p_msg\000"
 3233      6700
 3234              	.LASF233:
 3235 0711 67657474 		.ascii	"gett\000"
 3235      00
 3236              	.LASF22:
 3237 0716 746D6F64 		.ascii	"tmode_t\000"
 3237      655F7400 
 3238              	.LASF132:
 3239 071e 63685F73 		.ascii	"ch_size\000"
 3239      697A6500 
 3240              	.LASF85:
 3241 0726 6D61696E 		.ascii	"mainthread\000"
 3241      74687265 
 3241      616400
 3242              	.LASF191:
 3243 0731 4F535045 		.ascii	"OSPEEDR\000"
 3243      45445200 
 3244              	.LASF2:
 3245 0739 6C6F6E67 		.ascii	"long double\000"
 3245      20646F75 
 3245      626C6500 
 3246              	.LASF226:
 3247 0745 6F717565 		.ascii	"oqueue\000"
 3247      756500
 3248              	.LASF17:
 3249 074c 75696E74 		.ascii	"uint16_t\000"
 3249      31365F74 
 3249      00
 3250              	.LASF148:
 3251 0755 63686465 		.ascii	"chdebug_t\000"
 3251      6275675F 
 3251      7400
 3252              	.LASF175:
 3253 075f 6368616E 		.ascii	"channel\000"
 3253      6E656C00 
 3254              	.LASF220:
 3255 0767 53445F52 		.ascii	"SD_READY\000"
 3255      45414459 
 3255      00
 3256              	.LASF79:
 3257 0770 6C6F636B 		.ascii	"lock_cnt\000"
ARM GAS  /tmp/ccoMVsnu.s 			page 64


 3257      5F636E74 
 3257      00
 3258              	.LASF229:
 3259 0779 53657269 		.ascii	"SerialDriverVMT\000"
 3259      616C4472 
 3259      69766572 
 3259      564D5400 
 3260              	.LASF48:
 3261 0789 705F7265 		.ascii	"p_realprio\000"
 3261      616C7072 
 3261      696F00
 3262              	.LASF98:
 3263 0794 52455345 		.ascii	"RESERVED1\000"
 3263      52564544 
 3263      3100
 3264              	.LASF99:
 3265 079e 52455345 		.ascii	"RESERVED2\000"
 3265      52564544 
 3265      3200
 3266              	.LASF7:
 3267 07a8 73686F72 		.ascii	"short int\000"
 3267      7420696E 
 3267      7400
 3268              	.LASF133:
 3269 07b2 63685F76 		.ascii	"ch_version\000"
 3269      65727369 
 3269      6F6E00
 3270              	.LASF63:
 3271 07bd 725F6375 		.ascii	"r_current\000"
 3271      7272656E 
 3271      7400
 3272              	.LASF46:
 3273 07c7 705F6570 		.ascii	"p_epending\000"
 3273      656E6469 
 3273      6E6700
 3274              	.LASF125:
 3275 07d2 6D5F7175 		.ascii	"m_queue\000"
 3275      65756500 
 3276              	.LASF11:
 3277 07da 6C6F6E67 		.ascii	"long int\000"
 3277      20696E74 
 3277      00
 3278              	.LASF104:
 3279 07e3 706F7274 		.ascii	"port_intctx\000"
 3279      5F696E74 
 3279      63747800 
 3280              	.LASF183:
 3281 07ef 646D615F 		.ascii	"dma_func\000"
 3281      66756E63 
 3281      00
 3282              	.LASF205:
 3283 07f8 50414461 		.ascii	"PAData\000"
 3283      746100
 3284              	.LASF82:
 3285 07ff 63685F73 		.ascii	"ch_system\000"
 3285      79737465 
 3285      6D00
ARM GAS  /tmp/ccoMVsnu.s 			page 65


 3286              	.LASF190:
 3287 0809 4F545950 		.ascii	"OTYPER\000"
 3287      455200
 3288              	.LASF32:
 3289 0810 705F6E65 		.ascii	"p_next\000"
 3289      787400
 3290              	.LASF20:
 3291 0817 75696E74 		.ascii	"uint64_t\000"
 3291      36345F74 
 3291      00
 3292              	.LASF35:
 3293 0820 705F6374 		.ascii	"p_ctx\000"
 3293      7800
 3294              	.LASF83:
 3295 0826 726C6973 		.ascii	"rlist\000"
 3295      7400
 3296              	.LASF147:
 3297 082c 63665F6F 		.ascii	"cf_off_time\000"
 3297      66665F74 
 3297      696D6500 
 3298              	.LASF137:
 3299 0838 63665F6F 		.ascii	"cf_off_prio\000"
 3299      66665F70 
 3299      72696F00 
 3300              	.LASF5:
 3301 0844 5F5F7569 		.ascii	"__uint8_t\000"
 3301      6E74385F 
 3301      7400
 3302              	.LASF231:
 3303 084e 72656164 		.ascii	"read\000"
 3303      00
 3304              	.LASF155:
 3305 0853 656C5F65 		.ascii	"el_events\000"
 3305      76656E74 
 3305      7300
 3306              	.LASF154:
 3307 085d 656C5F6C 		.ascii	"el_listener\000"
 3307      69737465 
 3307      6E657200 
 3308              	.LASF218:
 3309 0869 53445F55 		.ascii	"SD_UNINIT\000"
 3309      4E494E49 
 3309      5400
 3310              	.LASF185:
 3311 0873 646D615F 		.ascii	"dma_isr_redir_t\000"
 3311      6973725F 
 3311      72656469 
 3311      725F7400 
 3312              	.LASF130:
 3313 0883 63685F69 		.ascii	"ch_identifier\000"
 3313      64656E74 
 3313      69666965 
 3313      7200
 3314              	.LASF165:
 3315 0891 715F636F 		.ascii	"q_counter\000"
 3315      756E7465 
 3315      7200
ARM GAS  /tmp/ccoMVsnu.s 			page 66


 3316              	.LASF209:
 3317 089b 50414C43 		.ascii	"PALConfig\000"
 3317      6F6E6669 
 3317      6700
 3318              	.LASF167:
 3319 08a5 715F746F 		.ascii	"q_top\000"
 3319      7000
 3320              	.LASF33:
 3321 08ab 705F7072 		.ascii	"p_prev\000"
 3321      657600
 3322              	.LASF87:
 3323 08b2 73697A65 		.ascii	"sizetype\000"
 3323      74797065 
 3323      00
 3324              	.LASF24:
 3325 08bb 74726566 		.ascii	"trefs_t\000"
 3325      735F7400 
 3326              	.LASF13:
 3327 08c3 6C6F6E67 		.ascii	"long unsigned int\000"
 3327      20756E73 
 3327      69676E65 
 3327      6420696E 
 3327      7400
 3328              	.LASF143:
 3329 08d5 63665F6F 		.ascii	"cf_off_state\000"
 3329      66665F73 
 3329      74617465 
 3329      00
 3330              	.LASF56:
 3331 08e2 72656164 		.ascii	"ready_list_t\000"
 3331      795F6C69 
 3331      73745F74 
 3331      00
 3332              	.LASF18:
 3333 08ef 696E7433 		.ascii	"int32_t\000"
 3333      325F7400 
 3334              	.LASF80:
 3335 08f7 74726163 		.ascii	"trace_buffer\000"
 3335      655F6275 
 3335      66666572 
 3335      00
 3336              	.LASF109:
 3337 0904 63685F73 		.ascii	"ch_swc_event_t\000"
 3337      77635F65 
 3337      76656E74 
 3337      5F7400
 3338              	.LASF150:
 3339 0913 6D757465 		.ascii	"mutex_t\000"
 3339      785F7400 
 3340              	.LASF6:
 3341 091b 756E7369 		.ascii	"unsigned char\000"
 3341      676E6564 
 3341      20636861 
 3341      7200
 3342              	.LASF12:
 3343 0929 5F5F7569 		.ascii	"__uint32_t\000"
 3343      6E743332 
ARM GAS  /tmp/ccoMVsnu.s 			page 67


 3343      5F7400
 3344              	.LASF72:
 3345 0934 76697274 		.ascii	"virtual_timers_list_t\000"
 3345      75616C5F 
 3345      74696D65 
 3345      72735F6C 
 3345      6973745F 
 3346              	.LASF42:
 3347 094a 705F7265 		.ascii	"p_refs\000"
 3347      667300
 3348              	.LASF21:
 3349 0951 75696E74 		.ascii	"uint_fast8_t\000"
 3349      5F666173 
 3349      74385F74 
 3349      00
 3350              	.LASF159:
 3351 095e 65735F6E 		.ascii	"es_next\000"
 3351      65787400 
 3352              	.LASF224:
 3353 0966 73746174 		.ascii	"state\000"
 3353      6500
 3354              	.LASF67:
 3355 096c 76745F6E 		.ascii	"vt_next\000"
 3355      65787400 
 3356              	.LASF81:
 3357 0974 63685F73 		.ascii	"ch_system_t\000"
 3357      79737465 
 3357      6D5F7400 
 3358              	.LASF118:
 3359 0980 77747365 		.ascii	"wtsemp\000"
 3359      6D7000
 3360              	.LASF117:
 3361 0987 77747472 		.ascii	"wttrp\000"
 3361      7000
 3362              	.LASF113:
 3363 098d 63685F74 		.ascii	"ch_trace_buffer_t\000"
 3363      72616365 
 3363      5F627566 
 3363      6665725F 
 3363      7400
 3364              	.LASF127:
 3365 099f 6D5F6E65 		.ascii	"m_next\000"
 3365      787400
 3366              	.LASF3:
 3367 09a6 7369676E 		.ascii	"signed char\000"
 3367      65642063 
 3367      68617200 
 3368              	.LASF139:
 3369 09b2 63665F6F 		.ascii	"cf_off_newer\000"
 3369      66665F6E 
 3369      65776572 
 3369      00
 3370              	.LASF163:
 3371 09bf 696F5F71 		.ascii	"io_queue\000"
 3371      75657565 
 3371      00
 3372              	.LASF235:
ARM GAS  /tmp/ccoMVsnu.s 			page 68


 3373 09c8 72656164 		.ascii	"readt\000"
 3373      7400
 3374              	.LASF9:
 3375 09ce 73686F72 		.ascii	"short unsigned int\000"
 3375      7420756E 
 3375      7369676E 
 3375      65642069 
 3375      6E7400
 3376              	.LASF60:
 3377 09e1 725F6374 		.ascii	"r_ctx\000"
 3377      7800
 3378              	.LASF102:
 3379 09e7 73746B61 		.ascii	"stkalign_t\000"
 3379      6C69676E 
 3379      5F7400
 3380              	.LASF92:
 3381 09f2 49464352 		.ascii	"IFCR\000"
 3381      00
 3382              	.LASF94:
 3383 09f7 4353454C 		.ascii	"CSELR\000"
 3383      5200
 3384              	.LASF240:
 3385 09fd 5F5F6675 		.ascii	"__func__\000"
 3385      6E635F5F 
 3385      00
 3386              	.LASF149:
 3387 0a06 63685F64 		.ascii	"ch_debug\000"
 3387      65627567 
 3387      00
 3388              	.LASF70:
 3389 0a0f 76745F66 		.ascii	"vt_func\000"
 3389      756E6300 
 3390              	.LASF68:
 3391 0a17 76745F70 		.ascii	"vt_prev\000"
 3391      72657600 
 3392              	.LASF93:
 3393 0a1f 52455345 		.ascii	"RESERVED0\000"
 3393      52564544 
 3393      3000
 3394              	.LASF238:
 3395 0a29 70616C57 		.ascii	"palWriteBus\000"
 3395      72697465 
 3395      42757300 
 3396              	.LASF208:
 3397 0a35 50464461 		.ascii	"PFData\000"
 3397      746100
 3398              	.LASF186:
 3399 0a3c 5F73746D 		.ascii	"_stm32_dma_streams\000"
 3399      33325F64 
 3399      6D615F73 
 3399      74726561 
 3399      6D7300
 3400              	.LASF200:
 3401 0a4f 6F737065 		.ascii	"ospeedr\000"
 3401      65647200 
 3402              	.LASF156:
 3403 0a57 656C5F66 		.ascii	"el_flags\000"
ARM GAS  /tmp/ccoMVsnu.s 			page 69


 3403      6C616773 
 3403      00
 3404              	.LASF115:
 3405 0a60 65786974 		.ascii	"exitcode\000"
 3405      636F6465 
 3405      00
 3406              	.LASF179:
 3407 0a69 73656C66 		.ascii	"selfindex\000"
 3407      696E6465 
 3407      7800
 3408              	.LASF166:
 3409 0a73 715F6275 		.ascii	"q_buffer\000"
 3409      66666572 
 3409      00
 3410              		.ident	"GCC: (GNU Tools for ARM Embedded Processors 6-2017-q1-update) 6.3.1 20170215 (release) [AR
ARM GAS  /tmp/ccoMVsnu.s 			page 70


DEFINED SYMBOLS
                            *ABS*:0000000000000000 pal.c
     /tmp/ccoMVsnu.s:16     .text.palReadBus:0000000000000000 $t
     /tmp/ccoMVsnu.s:24     .text.palReadBus:0000000000000000 palReadBus
     /tmp/ccoMVsnu.s:70     .text.palReadBus:0000000000000034 $d
     /tmp/ccoMVsnu.s:210    .rodata.__func__.6209:0000000000000000 __func__.6209
     /tmp/ccoMVsnu.s:75     .text.palWriteBus:0000000000000000 $t
     /tmp/ccoMVsnu.s:83     .text.palWriteBus:0000000000000000 palWriteBus
     /tmp/ccoMVsnu.s:141    .text.palWriteBus:0000000000000050 $d
     /tmp/ccoMVsnu.s:216    .rodata.__func__.6214:0000000000000000 __func__.6214
     /tmp/ccoMVsnu.s:146    .text.palSetBusMode:0000000000000000 $t
     /tmp/ccoMVsnu.s:154    .text.palSetBusMode:0000000000000000 palSetBusMode
     /tmp/ccoMVsnu.s:202    .text.palSetBusMode:000000000000003c $d
     /tmp/ccoMVsnu.s:222    .rodata.__func__.6219:0000000000000000 __func__.6219
     /tmp/ccoMVsnu.s:207    .rodata.__func__.6209:0000000000000000 $d
     /tmp/ccoMVsnu.s:213    .rodata.__func__.6214:0000000000000000 $d
     /tmp/ccoMVsnu.s:219    .rodata.__func__.6219:0000000000000000 $d
                     .debug_frame:0000000000000010 $d

UNDEFINED SYMBOLS
chSysHalt
_pal_lld_setgroupmode
