ARM GAS  /tmp/ccwuhPG1.s 			page 1


   1              		.cpu cortex-m0
   2              		.eabi_attribute 20, 1
   3              		.eabi_attribute 21, 1
   4              		.eabi_attribute 23, 3
   5              		.eabi_attribute 24, 1
   6              		.eabi_attribute 25, 1
   7              		.eabi_attribute 26, 1
   8              		.eabi_attribute 30, 6
   9              		.eabi_attribute 34, 0
  10              		.eabi_attribute 18, 4
  11              		.file	"pal_lld.c"
  12              		.text
  13              	.Ltext0:
  14              		.cfi_sections	.debug_frame
  15              		.section	.text.initgpio,"ax",%progbits
  16              		.align	1
  17              		.p2align 4,,15
  18              		.syntax unified
  19              		.code	16
  20              		.thumb_func
  21              		.fpu softvfp
  22              		.type	initgpio, %function
  23              	initgpio:
  24              	.LFB182:
  25              		.file 1 "ChibiOS/os/hal/ports/STM32/LLD/GPIOv2/pal_lld.c"
  26              		.loc 1 61 0
  27              		.cfi_startproc
  28              		@ args = 0, pretend = 0, frame = 8
  29              		@ frame_needed = 0, uses_anonymous_args = 0
  30              		@ link register save eliminated.
  31 0000 82B0     		sub	sp, sp, #8
  32              		.cfi_def_cfa_offset 8
  33 0002 0190     		str	r0, [sp, #4]
  34 0004 0091     		str	r1, [sp]
  35              		.loc 1 63 0
  36 0006 009B     		ldr	r3, [sp]
  37 0008 5A68     		ldr	r2, [r3, #4]
  38 000a 019B     		ldr	r3, [sp, #4]
  39 000c 5A60     		str	r2, [r3, #4]
  40              		.loc 1 64 0
  41 000e 009B     		ldr	r3, [sp]
  42 0010 9A68     		ldr	r2, [r3, #8]
  43 0012 019B     		ldr	r3, [sp, #4]
  44 0014 9A60     		str	r2, [r3, #8]
  45              		.loc 1 65 0
  46 0016 009B     		ldr	r3, [sp]
  47 0018 DA68     		ldr	r2, [r3, #12]
  48 001a 019B     		ldr	r3, [sp, #4]
  49 001c DA60     		str	r2, [r3, #12]
  50              		.loc 1 66 0
  51 001e 009B     		ldr	r3, [sp]
  52 0020 1A69     		ldr	r2, [r3, #16]
  53 0022 019B     		ldr	r3, [sp, #4]
  54 0024 5A61     		str	r2, [r3, #20]
  55              		.loc 1 67 0
  56 0026 009B     		ldr	r3, [sp]
  57 0028 5A69     		ldr	r2, [r3, #20]
ARM GAS  /tmp/ccwuhPG1.s 			page 2


  58 002a 019B     		ldr	r3, [sp, #4]
  59 002c 1A62     		str	r2, [r3, #32]
  60              		.loc 1 68 0
  61 002e 009B     		ldr	r3, [sp]
  62 0030 9A69     		ldr	r2, [r3, #24]
  63 0032 019B     		ldr	r3, [sp, #4]
  64 0034 5A62     		str	r2, [r3, #36]
  65              		.loc 1 69 0
  66 0036 009B     		ldr	r3, [sp]
  67 0038 1A68     		ldr	r2, [r3]
  68 003a 019B     		ldr	r3, [sp, #4]
  69 003c 1A60     		str	r2, [r3]
  70              		.loc 1 70 0
  71 003e C046     		nop
  72 0040 02B0     		add	sp, sp, #8
  73              		@ sp needed
  74 0042 7047     		bx	lr
  75              		.cfi_endproc
  76              	.LFE182:
  77              		.size	initgpio, .-initgpio
  78              		.section	.text._pal_lld_init,"ax",%progbits
  79              		.align	1
  80              		.p2align 4,,15
  81              		.global	_pal_lld_init
  82              		.syntax unified
  83              		.code	16
  84              		.thumb_func
  85              		.fpu softvfp
  86              		.type	_pal_lld_init, %function
  87              	_pal_lld_init:
  88              	.LFB183:
  89              		.loc 1 88 0
  90              		.cfi_startproc
  91              		@ args = 0, pretend = 0, frame = 8
  92              		@ frame_needed = 0, uses_anonymous_args = 0
  93 0000 00B5     		push	{lr}
  94              		.cfi_def_cfa_offset 4
  95              		.cfi_offset 14, -4
  96 0002 83B0     		sub	sp, sp, #12
  97              		.cfi_def_cfa_offset 16
  98 0004 0190     		str	r0, [sp, #4]
  99              		.loc 1 100 0
 100 0006 134B     		ldr	r3, .L3
 101 0008 124A     		ldr	r2, .L3
 102 000a 5269     		ldr	r2, [r2, #20]
 103 000c 9C21     		movs	r1, #156
 104 000e C903     		lsls	r1, r1, #15
 105 0010 0A43     		orrs	r2, r1
 106 0012 5A61     		str	r2, [r3, #20]
 107              		.loc 1 112 0
 108 0014 019A     		ldr	r2, [sp, #4]
 109 0016 9023     		movs	r3, #144
 110 0018 DB05     		lsls	r3, r3, #23
 111 001a 1100     		movs	r1, r2
 112 001c 1800     		movs	r0, r3
 113 001e FFF7FEFF 		bl	initgpio
 114              		.loc 1 115 0
ARM GAS  /tmp/ccwuhPG1.s 			page 3


 115 0022 019B     		ldr	r3, [sp, #4]
 116 0024 1C33     		adds	r3, r3, #28
 117 0026 0C4A     		ldr	r2, .L3+4
 118 0028 1900     		movs	r1, r3
 119 002a 1000     		movs	r0, r2
 120 002c FFF7FEFF 		bl	initgpio
 121              		.loc 1 118 0
 122 0030 019B     		ldr	r3, [sp, #4]
 123 0032 3833     		adds	r3, r3, #56
 124 0034 094A     		ldr	r2, .L3+8
 125 0036 1900     		movs	r1, r3
 126 0038 1000     		movs	r0, r2
 127 003a FFF7FEFF 		bl	initgpio
 128              		.loc 1 127 0
 129 003e 019B     		ldr	r3, [sp, #4]
 130 0040 5433     		adds	r3, r3, #84
 131 0042 074A     		ldr	r2, .L3+12
 132 0044 1900     		movs	r1, r3
 133 0046 1000     		movs	r0, r2
 134 0048 FFF7FEFF 		bl	initgpio
 135              		.loc 1 144 0
 136 004c C046     		nop
 137 004e 03B0     		add	sp, sp, #12
 138              		@ sp needed
 139 0050 00BD     		pop	{pc}
 140              	.L4:
 141 0052 C046     		.align	2
 142              	.L3:
 143 0054 00100240 		.word	1073876992
 144 0058 00040048 		.word	1207960576
 145 005c 00080048 		.word	1207961600
 146 0060 00140048 		.word	1207964672
 147              		.cfi_endproc
 148              	.LFE183:
 149              		.size	_pal_lld_init, .-_pal_lld_init
 150              		.section	.text._pal_lld_setgroupmode,"ax",%progbits
 151              		.align	1
 152              		.p2align 4,,15
 153              		.global	_pal_lld_setgroupmode
 154              		.syntax unified
 155              		.code	16
 156              		.thumb_func
 157              		.fpu softvfp
 158              		.type	_pal_lld_setgroupmode, %function
 159              	_pal_lld_setgroupmode:
 160              	.LFB184:
 161              		.loc 1 161 0
 162              		.cfi_startproc
 163              		@ args = 0, pretend = 0, frame = 56
 164              		@ frame_needed = 0, uses_anonymous_args = 0
 165              		@ link register save eliminated.
 166 0000 8EB0     		sub	sp, sp, #56
 167              		.cfi_def_cfa_offset 56
 168 0002 0390     		str	r0, [sp, #12]
 169 0004 0291     		str	r1, [sp, #8]
 170 0006 0192     		str	r2, [sp, #4]
 171              		.loc 1 163 0
ARM GAS  /tmp/ccwuhPG1.s 			page 4


 172 0008 019B     		ldr	r3, [sp, #4]
 173 000a 0322     		movs	r2, #3
 174 000c 1340     		ands	r3, r2
 175 000e 0D93     		str	r3, [sp, #52]
 176              		.loc 1 164 0
 177 0010 019B     		ldr	r3, [sp, #4]
 178 0012 9B08     		lsrs	r3, r3, #2
 179 0014 0122     		movs	r2, #1
 180 0016 1340     		ands	r3, r2
 181 0018 0C93     		str	r3, [sp, #48]
 182              		.loc 1 165 0
 183 001a 019B     		ldr	r3, [sp, #4]
 184 001c DB08     		lsrs	r3, r3, #3
 185 001e 0322     		movs	r2, #3
 186 0020 1340     		ands	r3, r2
 187 0022 0B93     		str	r3, [sp, #44]
 188              		.loc 1 166 0
 189 0024 019B     		ldr	r3, [sp, #4]
 190 0026 5B09     		lsrs	r3, r3, #5
 191 0028 0322     		movs	r2, #3
 192 002a 1340     		ands	r3, r2
 193 002c 0A93     		str	r3, [sp, #40]
 194              		.loc 1 167 0
 195 002e 019B     		ldr	r3, [sp, #4]
 196 0030 DB09     		lsrs	r3, r3, #7
 197 0032 0F22     		movs	r2, #15
 198 0034 1340     		ands	r3, r2
 199 0036 0893     		str	r3, [sp, #32]
 200              		.loc 1 168 0
 201 0038 0023     		movs	r3, #0
 202 003a 0993     		str	r3, [sp, #36]
 203              	.L13:
 204              		.loc 1 170 0
 205 003c 029B     		ldr	r3, [sp, #8]
 206 003e 0122     		movs	r2, #1
 207 0040 1340     		ands	r3, r2
 208 0042 00D1     		bne	.LCB144
 209 0044 79E0     		b	.L6	@long jump
 210              	.LCB144:
 211              	.LBB2:
 212              		.loc 1 173 0
 213 0046 099B     		ldr	r3, [sp, #36]
 214 0048 0722     		movs	r2, #7
 215 004a 1340     		ands	r3, r2
 216 004c 9B00     		lsls	r3, r3, #2
 217 004e 089A     		ldr	r2, [sp, #32]
 218 0050 9A40     		lsls	r2, r2, r3
 219 0052 1300     		movs	r3, r2
 220 0054 0793     		str	r3, [sp, #28]
 221              		.loc 1 174 0
 222 0056 0122     		movs	r2, #1
 223 0058 099B     		ldr	r3, [sp, #36]
 224 005a 9A40     		lsls	r2, r2, r3
 225 005c 1300     		movs	r3, r2
 226 005e 0693     		str	r3, [sp, #24]
 227              		.loc 1 175 0
 228 0060 099B     		ldr	r3, [sp, #36]
ARM GAS  /tmp/ccwuhPG1.s 			page 5


 229 0062 5B00     		lsls	r3, r3, #1
 230 0064 0322     		movs	r2, #3
 231 0066 9A40     		lsls	r2, r2, r3
 232 0068 1300     		movs	r3, r2
 233 006a 0593     		str	r3, [sp, #20]
 234              		.loc 1 176 0
 235 006c 099B     		ldr	r3, [sp, #36]
 236 006e 0722     		movs	r2, #7
 237 0070 1340     		ands	r3, r2
 238 0072 9B00     		lsls	r3, r3, #2
 239 0074 0F22     		movs	r2, #15
 240 0076 9A40     		lsls	r2, r2, r3
 241 0078 1300     		movs	r3, r2
 242 007a 0493     		str	r3, [sp, #16]
 243              		.loc 1 177 0
 244 007c 039B     		ldr	r3, [sp, #12]
 245 007e 5B68     		ldr	r3, [r3, #4]
 246 0080 069A     		ldr	r2, [sp, #24]
 247 0082 D243     		mvns	r2, r2
 248 0084 1A40     		ands	r2, r3
 249 0086 0C9B     		ldr	r3, [sp, #48]
 250 0088 1A43     		orrs	r2, r3
 251 008a 039B     		ldr	r3, [sp, #12]
 252 008c 5A60     		str	r2, [r3, #4]
 253              		.loc 1 178 0
 254 008e 039B     		ldr	r3, [sp, #12]
 255 0090 9B68     		ldr	r3, [r3, #8]
 256 0092 059A     		ldr	r2, [sp, #20]
 257 0094 D243     		mvns	r2, r2
 258 0096 1A40     		ands	r2, r3
 259 0098 0B9B     		ldr	r3, [sp, #44]
 260 009a 1A43     		orrs	r2, r3
 261 009c 039B     		ldr	r3, [sp, #12]
 262 009e 9A60     		str	r2, [r3, #8]
 263              		.loc 1 179 0
 264 00a0 039B     		ldr	r3, [sp, #12]
 265 00a2 DB68     		ldr	r3, [r3, #12]
 266 00a4 059A     		ldr	r2, [sp, #20]
 267 00a6 D243     		mvns	r2, r2
 268 00a8 1A40     		ands	r2, r3
 269 00aa 0A9B     		ldr	r3, [sp, #40]
 270 00ac 1A43     		orrs	r2, r3
 271 00ae 039B     		ldr	r3, [sp, #12]
 272 00b0 DA60     		str	r2, [r3, #12]
 273              		.loc 1 180 0
 274 00b2 019B     		ldr	r3, [sp, #4]
 275 00b4 0322     		movs	r2, #3
 276 00b6 1340     		ands	r3, r2
 277 00b8 022B     		cmp	r3, #2
 278 00ba 1FD1     		bne	.L7
 279              		.loc 1 183 0
 280 00bc 099B     		ldr	r3, [sp, #36]
 281 00be 072B     		cmp	r3, #7
 282 00c0 09D8     		bhi	.L8
 283              		.loc 1 184 0
 284 00c2 039B     		ldr	r3, [sp, #12]
 285 00c4 1B6A     		ldr	r3, [r3, #32]
ARM GAS  /tmp/ccwuhPG1.s 			page 6


 286 00c6 049A     		ldr	r2, [sp, #16]
 287 00c8 D243     		mvns	r2, r2
 288 00ca 1A40     		ands	r2, r3
 289 00cc 079B     		ldr	r3, [sp, #28]
 290 00ce 1A43     		orrs	r2, r3
 291 00d0 039B     		ldr	r3, [sp, #12]
 292 00d2 1A62     		str	r2, [r3, #32]
 293 00d4 08E0     		b	.L9
 294              	.L8:
 295              		.loc 1 186 0
 296 00d6 039B     		ldr	r3, [sp, #12]
 297 00d8 5B6A     		ldr	r3, [r3, #36]
 298 00da 049A     		ldr	r2, [sp, #16]
 299 00dc D243     		mvns	r2, r2
 300 00de 1A40     		ands	r2, r3
 301 00e0 079B     		ldr	r3, [sp, #28]
 302 00e2 1A43     		orrs	r2, r3
 303 00e4 039B     		ldr	r3, [sp, #12]
 304 00e6 5A62     		str	r2, [r3, #36]
 305              	.L9:
 306              		.loc 1 187 0
 307 00e8 039B     		ldr	r3, [sp, #12]
 308 00ea 1B68     		ldr	r3, [r3]
 309 00ec 059A     		ldr	r2, [sp, #20]
 310 00ee D243     		mvns	r2, r2
 311 00f0 1A40     		ands	r2, r3
 312 00f2 0D9B     		ldr	r3, [sp, #52]
 313 00f4 1A43     		orrs	r2, r3
 314 00f6 039B     		ldr	r3, [sp, #12]
 315 00f8 1A60     		str	r2, [r3]
 316 00fa 1EE0     		b	.L6
 317              	.L7:
 318              		.loc 1 192 0
 319 00fc 039B     		ldr	r3, [sp, #12]
 320 00fe 1B68     		ldr	r3, [r3]
 321 0100 059A     		ldr	r2, [sp, #20]
 322 0102 D243     		mvns	r2, r2
 323 0104 1A40     		ands	r2, r3
 324 0106 0D9B     		ldr	r3, [sp, #52]
 325 0108 1A43     		orrs	r2, r3
 326 010a 039B     		ldr	r3, [sp, #12]
 327 010c 1A60     		str	r2, [r3]
 328              		.loc 1 193 0
 329 010e 099B     		ldr	r3, [sp, #36]
 330 0110 072B     		cmp	r3, #7
 331 0112 09D8     		bhi	.L10
 332              		.loc 1 194 0
 333 0114 039B     		ldr	r3, [sp, #12]
 334 0116 1B6A     		ldr	r3, [r3, #32]
 335 0118 049A     		ldr	r2, [sp, #16]
 336 011a D243     		mvns	r2, r2
 337 011c 1A40     		ands	r2, r3
 338 011e 079B     		ldr	r3, [sp, #28]
 339 0120 1A43     		orrs	r2, r3
 340 0122 039B     		ldr	r3, [sp, #12]
 341 0124 1A62     		str	r2, [r3, #32]
 342 0126 08E0     		b	.L6
ARM GAS  /tmp/ccwuhPG1.s 			page 7


 343              	.L10:
 344              		.loc 1 196 0
 345 0128 039B     		ldr	r3, [sp, #12]
 346 012a 5B6A     		ldr	r3, [r3, #36]
 347 012c 049A     		ldr	r2, [sp, #16]
 348 012e D243     		mvns	r2, r2
 349 0130 1A40     		ands	r2, r3
 350 0132 079B     		ldr	r3, [sp, #28]
 351 0134 1A43     		orrs	r2, r3
 352 0136 039B     		ldr	r3, [sp, #12]
 353 0138 5A62     		str	r2, [r3, #36]
 354              	.L6:
 355              	.LBE2:
 356              		.loc 1 199 0
 357 013a 029B     		ldr	r3, [sp, #8]
 358 013c 5B08     		lsrs	r3, r3, #1
 359 013e 0293     		str	r3, [sp, #8]
 360              		.loc 1 200 0
 361 0140 029B     		ldr	r3, [sp, #8]
 362 0142 002B     		cmp	r3, #0
 363 0144 0FD0     		beq	.L15
 364              		.loc 1 202 0
 365 0146 0C9B     		ldr	r3, [sp, #48]
 366 0148 5B00     		lsls	r3, r3, #1
 367 014a 0C93     		str	r3, [sp, #48]
 368              		.loc 1 203 0
 369 014c 0B9B     		ldr	r3, [sp, #44]
 370 014e 9B00     		lsls	r3, r3, #2
 371 0150 0B93     		str	r3, [sp, #44]
 372              		.loc 1 204 0
 373 0152 0A9B     		ldr	r3, [sp, #40]
 374 0154 9B00     		lsls	r3, r3, #2
 375 0156 0A93     		str	r3, [sp, #40]
 376              		.loc 1 205 0
 377 0158 0D9B     		ldr	r3, [sp, #52]
 378 015a 9B00     		lsls	r3, r3, #2
 379 015c 0D93     		str	r3, [sp, #52]
 380              		.loc 1 206 0
 381 015e 099B     		ldr	r3, [sp, #36]
 382 0160 0133     		adds	r3, r3, #1
 383 0162 0993     		str	r3, [sp, #36]
 384              		.loc 1 170 0
 385 0164 6AE7     		b	.L13
 386              	.L15:
 387              		.loc 1 201 0
 388 0166 C046     		nop
 389              		.loc 1 208 0
 390 0168 0EB0     		add	sp, sp, #56
 391              		@ sp needed
 392 016a 7047     		bx	lr
 393              		.cfi_endproc
 394              	.LFE184:
 395              		.size	_pal_lld_setgroupmode, .-_pal_lld_setgroupmode
 396              		.text
 397              	.Letext0:
 398              		.file 2 "/home/felix/opt/gcc-arm-none-eabi-6-2017-q1-update/lib/gcc/arm-none-eabi/6.3.1/include/st
 399              		.file 3 "/home/felix/opt/gcc-arm-none-eabi-6-2017-q1-update/arm-none-eabi/include/machine/_default
ARM GAS  /tmp/ccwuhPG1.s 			page 8


 400              		.file 4 "/home/felix/opt/gcc-arm-none-eabi-6-2017-q1-update/arm-none-eabi/include/sys/_stdint.h"
 401              		.file 5 "ChibiOS/os/rt/ports/ARMCMx/compilers/GCC/chtypes.h"
 402              		.file 6 "ChibiOS/os/rt/include/chsystypes.h"
 403              		.file 7 "ChibiOS/os/rt/include/chschd.h"
 404              		.file 8 "ChibiOS/os/ext/CMSIS/ST/STM32F0xx/stm32f030xc.h"
 405              		.file 9 "ChibiOS/os/rt/ports/ARMCMx/chcore.h"
 406              		.file 10 "ChibiOS/os/rt/ports/ARMCMx/chcore_v6m.h"
 407              		.file 11 "ChibiOS/os/rt/include/chdebug.h"
 408              		.file 12 "ChibiOS/os/rt/include/chsem.h"
 409              		.file 13 "ChibiOS/os/rt/include/chmtx.h"
 410              		.file 14 "ChibiOS/os/rt/include/chregistry.h"
 411              		.file 15 "ChibiOS/os/ext/CMSIS/ST/STM32F0xx/system_stm32f0xx.h"
 412              		.file 16 "ChibiOS/os/rt/include/chevents.h"
 413              		.file 17 "ChibiOS/os/rt/include/chqueues.h"
 414              		.file 18 "ChibiOS/os/hal/ports/STM32/LLD/DMAv1/stm32_dma.h"
 415              		.file 19 "ChibiOS/os/hal/ports/STM32/LLD/GPIOv2/pal_lld.h"
 416              		.file 20 "ChibiOS/os/hal/include/serial.h"
 417              		.file 21 "ChibiOS/os/hal/ports/STM32/LLD/USARTv2/serial_lld.h"