ARM GAS  /tmp/cc4imfPg.s 			page 1


   1              		.cpu cortex-m0
   2              		.eabi_attribute 20, 1
   3              		.eabi_attribute 21, 1
   4              		.eabi_attribute 23, 3
   5              		.eabi_attribute 24, 1
   6              		.eabi_attribute 25, 1
   7              		.eabi_attribute 26, 1
   8              		.eabi_attribute 30, 6
   9              		.eabi_attribute 34, 0
  10              		.eabi_attribute 18, 4
  11              		.file	"pal_lld.c"
  12              		.text
  13              	.Ltext0:
  14              		.cfi_sections	.debug_frame
  15              		.section	.text.initgpio,"ax",%progbits
  16              		.align	1
  17              		.p2align 4,,15
  18              		.syntax unified
  19              		.code	16
  20              		.thumb_func
  21              		.fpu softvfp
  22              		.type	initgpio, %function
  23              	initgpio:
  24              	.LFB182:
  25              		.file 1 "ChibiOS/os/hal/ports/STM32/LLD/GPIOv2/pal_lld.c"
  26              		.loc 1 61 0
  27              		.cfi_startproc
  28              		@ args = 0, pretend = 0, frame = 8
  29              		@ frame_needed = 0, uses_anonymous_args = 0
  30              		@ link register save eliminated.
  31 0000 82B0     		sub	sp, sp, #8
  32              		.cfi_def_cfa_offset 8
  33 0002 0190     		str	r0, [sp, #4]
  34 0004 0091     		str	r1, [sp]
  35              		.loc 1 63 0
  36 0006 009B     		ldr	r3, [sp]
  37 0008 5A68     		ldr	r2, [r3, #4]
  38 000a 019B     		ldr	r3, [sp, #4]
  39 000c 5A60     		str	r2, [r3, #4]
  40              		.loc 1 64 0
  41 000e 009B     		ldr	r3, [sp]
  42 0010 9A68     		ldr	r2, [r3, #8]
  43 0012 019B     		ldr	r3, [sp, #4]
  44 0014 9A60     		str	r2, [r3, #8]
  45              		.loc 1 65 0
  46 0016 009B     		ldr	r3, [sp]
  47 0018 DA68     		ldr	r2, [r3, #12]
  48 001a 019B     		ldr	r3, [sp, #4]
  49 001c DA60     		str	r2, [r3, #12]
  50              		.loc 1 66 0
  51 001e 009B     		ldr	r3, [sp]
  52 0020 1A69     		ldr	r2, [r3, #16]
  53 0022 019B     		ldr	r3, [sp, #4]
  54 0024 5A61     		str	r2, [r3, #20]
  55              		.loc 1 67 0
  56 0026 009B     		ldr	r3, [sp]
  57 0028 5A69     		ldr	r2, [r3, #20]
ARM GAS  /tmp/cc4imfPg.s 			page 2


  58 002a 019B     		ldr	r3, [sp, #4]
  59 002c 1A62     		str	r2, [r3, #32]
  60              		.loc 1 68 0
  61 002e 009B     		ldr	r3, [sp]
  62 0030 9A69     		ldr	r2, [r3, #24]
  63 0032 019B     		ldr	r3, [sp, #4]
  64 0034 5A62     		str	r2, [r3, #36]
  65              		.loc 1 69 0
  66 0036 009B     		ldr	r3, [sp]
  67 0038 1A68     		ldr	r2, [r3]
  68 003a 019B     		ldr	r3, [sp, #4]
  69 003c 1A60     		str	r2, [r3]
  70              		.loc 1 70 0
  71 003e C046     		nop
  72 0040 02B0     		add	sp, sp, #8
  73              		@ sp needed
  74 0042 7047     		bx	lr
  75              		.cfi_endproc
  76              	.LFE182:
  77              		.size	initgpio, .-initgpio
  78              		.section	.text._pal_lld_init,"ax",%progbits
  79              		.align	1
  80              		.p2align 4,,15
  81              		.global	_pal_lld_init
  82              		.syntax unified
  83              		.code	16
  84              		.thumb_func
  85              		.fpu softvfp
  86              		.type	_pal_lld_init, %function
  87              	_pal_lld_init:
  88              	.LFB183:
  89              		.loc 1 88 0
  90              		.cfi_startproc
  91              		@ args = 0, pretend = 0, frame = 8
  92              		@ frame_needed = 0, uses_anonymous_args = 0
  93 0000 00B5     		push	{lr}
  94              		.cfi_def_cfa_offset 4
  95              		.cfi_offset 14, -4
  96 0002 83B0     		sub	sp, sp, #12
  97              		.cfi_def_cfa_offset 16
  98 0004 0190     		str	r0, [sp, #4]
  99              		.loc 1 100 0
 100 0006 134B     		ldr	r3, .L3
 101 0008 124A     		ldr	r2, .L3
 102 000a 5269     		ldr	r2, [r2, #20]
 103 000c 9C21     		movs	r1, #156
 104 000e C903     		lsls	r1, r1, #15
 105 0010 0A43     		orrs	r2, r1
 106 0012 5A61     		str	r2, [r3, #20]
 107              		.loc 1 112 0
 108 0014 019A     		ldr	r2, [sp, #4]
 109 0016 9023     		movs	r3, #144
 110 0018 DB05     		lsls	r3, r3, #23
 111 001a 1100     		movs	r1, r2
 112 001c 1800     		movs	r0, r3
 113 001e FFF7FEFF 		bl	initgpio
 114              		.loc 1 115 0
ARM GAS  /tmp/cc4imfPg.s 			page 3


 115 0022 019B     		ldr	r3, [sp, #4]
 116 0024 1C33     		adds	r3, r3, #28
 117 0026 0C4A     		ldr	r2, .L3+4
 118 0028 1900     		movs	r1, r3
 119 002a 1000     		movs	r0, r2
 120 002c FFF7FEFF 		bl	initgpio
 121              		.loc 1 118 0
 122 0030 019B     		ldr	r3, [sp, #4]
 123 0032 3833     		adds	r3, r3, #56
 124 0034 094A     		ldr	r2, .L3+8
 125 0036 1900     		movs	r1, r3
 126 0038 1000     		movs	r0, r2
 127 003a FFF7FEFF 		bl	initgpio
 128              		.loc 1 127 0
 129 003e 019B     		ldr	r3, [sp, #4]
 130 0040 5433     		adds	r3, r3, #84
 131 0042 074A     		ldr	r2, .L3+12
 132 0044 1900     		movs	r1, r3
 133 0046 1000     		movs	r0, r2
 134 0048 FFF7FEFF 		bl	initgpio
 135              		.loc 1 144 0
 136 004c C046     		nop
 137 004e 03B0     		add	sp, sp, #12
 138              		@ sp needed
 139 0050 00BD     		pop	{pc}
 140              	.L4:
 141 0052 C046     		.align	2
 142              	.L3:
 143 0054 00100240 		.word	1073876992
 144 0058 00040048 		.word	1207960576
 145 005c 00080048 		.word	1207961600
 146 0060 00140048 		.word	1207964672
 147              		.cfi_endproc
 148              	.LFE183:
 149              		.size	_pal_lld_init, .-_pal_lld_init
 150              		.section	.text._pal_lld_setgroupmode,"ax",%progbits
 151              		.align	1
 152              		.p2align 4,,15
 153              		.global	_pal_lld_setgroupmode
 154              		.syntax unified
 155              		.code	16
 156              		.thumb_func
 157              		.fpu softvfp
 158              		.type	_pal_lld_setgroupmode, %function
 159              	_pal_lld_setgroupmode:
 160              	.LFB184:
 161              		.loc 1 161 0
 162              		.cfi_startproc
 163              		@ args = 0, pretend = 0, frame = 56
 164              		@ frame_needed = 0, uses_anonymous_args = 0
 165              		@ link register save eliminated.
 166 0000 8EB0     		sub	sp, sp, #56
 167              		.cfi_def_cfa_offset 56
 168 0002 0390     		str	r0, [sp, #12]
 169 0004 0291     		str	r1, [sp, #8]
 170 0006 0192     		str	r2, [sp, #4]
 171              		.loc 1 163 0
ARM GAS  /tmp/cc4imfPg.s 			page 4


 172 0008 019B     		ldr	r3, [sp, #4]
 173 000a 0322     		movs	r2, #3
 174 000c 1340     		ands	r3, r2
 175 000e 0D93     		str	r3, [sp, #52]
 176              		.loc 1 164 0
 177 0010 019B     		ldr	r3, [sp, #4]
 178 0012 9B08     		lsrs	r3, r3, #2
 179 0014 0122     		movs	r2, #1
 180 0016 1340     		ands	r3, r2
 181 0018 0C93     		str	r3, [sp, #48]
 182              		.loc 1 165 0
 183 001a 019B     		ldr	r3, [sp, #4]
 184 001c DB08     		lsrs	r3, r3, #3
 185 001e 0322     		movs	r2, #3
 186 0020 1340     		ands	r3, r2
 187 0022 0B93     		str	r3, [sp, #44]
 188              		.loc 1 166 0
 189 0024 019B     		ldr	r3, [sp, #4]
 190 0026 5B09     		lsrs	r3, r3, #5
 191 0028 0322     		movs	r2, #3
 192 002a 1340     		ands	r3, r2
 193 002c 0A93     		str	r3, [sp, #40]
 194              		.loc 1 167 0
 195 002e 019B     		ldr	r3, [sp, #4]
 196 0030 DB09     		lsrs	r3, r3, #7
 197 0032 0F22     		movs	r2, #15
 198 0034 1340     		ands	r3, r2
 199 0036 0893     		str	r3, [sp, #32]
 200              		.loc 1 168 0
 201 0038 0023     		movs	r3, #0
 202 003a 0993     		str	r3, [sp, #36]
 203              	.L13:
 204              		.loc 1 170 0
 205 003c 029B     		ldr	r3, [sp, #8]
 206 003e 0122     		movs	r2, #1
 207 0040 1340     		ands	r3, r2
 208 0042 00D1     		bne	.LCB144
 209 0044 79E0     		b	.L6	@long jump
 210              	.LCB144:
 211              	.LBB2:
 212              		.loc 1 173 0
 213 0046 099B     		ldr	r3, [sp, #36]
 214 0048 0722     		movs	r2, #7
 215 004a 1340     		ands	r3, r2
 216 004c 9B00     		lsls	r3, r3, #2
 217 004e 089A     		ldr	r2, [sp, #32]
 218 0050 9A40     		lsls	r2, r2, r3
 219 0052 1300     		movs	r3, r2
 220 0054 0793     		str	r3, [sp, #28]
 221              		.loc 1 174 0
 222 0056 0122     		movs	r2, #1
 223 0058 099B     		ldr	r3, [sp, #36]
 224 005a 9A40     		lsls	r2, r2, r3
 225 005c 1300     		movs	r3, r2
 226 005e 0693     		str	r3, [sp, #24]
 227              		.loc 1 175 0
 228 0060 099B     		ldr	r3, [sp, #36]
ARM GAS  /tmp/cc4imfPg.s 			page 5


 229 0062 5B00     		lsls	r3, r3, #1
 230 0064 0322     		movs	r2, #3
 231 0066 9A40     		lsls	r2, r2, r3
 232 0068 1300     		movs	r3, r2
 233 006a 0593     		str	r3, [sp, #20]
 234              		.loc 1 176 0
 235 006c 099B     		ldr	r3, [sp, #36]
 236 006e 0722     		movs	r2, #7
 237 0070 1340     		ands	r3, r2
 238 0072 9B00     		lsls	r3, r3, #2
 239 0074 0F22     		movs	r2, #15
 240 0076 9A40     		lsls	r2, r2, r3
 241 0078 1300     		movs	r3, r2
 242 007a 0493     		str	r3, [sp, #16]
 243              		.loc 1 177 0
 244 007c 039B     		ldr	r3, [sp, #12]
 245 007e 5B68     		ldr	r3, [r3, #4]
 246 0080 069A     		ldr	r2, [sp, #24]
 247 0082 D243     		mvns	r2, r2
 248 0084 1A40     		ands	r2, r3
 249 0086 0C9B     		ldr	r3, [sp, #48]
 250 0088 1A43     		orrs	r2, r3
 251 008a 039B     		ldr	r3, [sp, #12]
 252 008c 5A60     		str	r2, [r3, #4]
 253              		.loc 1 178 0
 254 008e 039B     		ldr	r3, [sp, #12]
 255 0090 9B68     		ldr	r3, [r3, #8]
 256 0092 059A     		ldr	r2, [sp, #20]
 257 0094 D243     		mvns	r2, r2
 258 0096 1A40     		ands	r2, r3
 259 0098 0B9B     		ldr	r3, [sp, #44]
 260 009a 1A43     		orrs	r2, r3
 261 009c 039B     		ldr	r3, [sp, #12]
 262 009e 9A60     		str	r2, [r3, #8]
 263              		.loc 1 179 0
 264 00a0 039B     		ldr	r3, [sp, #12]
 265 00a2 DB68     		ldr	r3, [r3, #12]
 266 00a4 059A     		ldr	r2, [sp, #20]
 267 00a6 D243     		mvns	r2, r2
 268 00a8 1A40     		ands	r2, r3
 269 00aa 0A9B     		ldr	r3, [sp, #40]
 270 00ac 1A43     		orrs	r2, r3
 271 00ae 039B     		ldr	r3, [sp, #12]
 272 00b0 DA60     		str	r2, [r3, #12]
 273              		.loc 1 180 0
 274 00b2 019B     		ldr	r3, [sp, #4]
 275 00b4 0322     		movs	r2, #3
 276 00b6 1340     		ands	r3, r2
 277 00b8 022B     		cmp	r3, #2
 278 00ba 1FD1     		bne	.L7
 279              		.loc 1 183 0
 280 00bc 099B     		ldr	r3, [sp, #36]
 281 00be 072B     		cmp	r3, #7
 282 00c0 09D8     		bhi	.L8
 283              		.loc 1 184 0
 284 00c2 039B     		ldr	r3, [sp, #12]
 285 00c4 1B6A     		ldr	r3, [r3, #32]
ARM GAS  /tmp/cc4imfPg.s 			page 6


 286 00c6 049A     		ldr	r2, [sp, #16]
 287 00c8 D243     		mvns	r2, r2
 288 00ca 1A40     		ands	r2, r3
 289 00cc 079B     		ldr	r3, [sp, #28]
 290 00ce 1A43     		orrs	r2, r3
 291 00d0 039B     		ldr	r3, [sp, #12]
 292 00d2 1A62     		str	r2, [r3, #32]
 293 00d4 08E0     		b	.L9
 294              	.L8:
 295              		.loc 1 186 0
 296 00d6 039B     		ldr	r3, [sp, #12]
 297 00d8 5B6A     		ldr	r3, [r3, #36]
 298 00da 049A     		ldr	r2, [sp, #16]
 299 00dc D243     		mvns	r2, r2
 300 00de 1A40     		ands	r2, r3
 301 00e0 079B     		ldr	r3, [sp, #28]
 302 00e2 1A43     		orrs	r2, r3
 303 00e4 039B     		ldr	r3, [sp, #12]
 304 00e6 5A62     		str	r2, [r3, #36]
 305              	.L9:
 306              		.loc 1 187 0
 307 00e8 039B     		ldr	r3, [sp, #12]
 308 00ea 1B68     		ldr	r3, [r3]
 309 00ec 059A     		ldr	r2, [sp, #20]
 310 00ee D243     		mvns	r2, r2
 311 00f0 1A40     		ands	r2, r3
 312 00f2 0D9B     		ldr	r3, [sp, #52]
 313 00f4 1A43     		orrs	r2, r3
 314 00f6 039B     		ldr	r3, [sp, #12]
 315 00f8 1A60     		str	r2, [r3]
 316 00fa 1EE0     		b	.L6
 317              	.L7:
 318              		.loc 1 192 0
 319 00fc 039B     		ldr	r3, [sp, #12]
 320 00fe 1B68     		ldr	r3, [r3]
 321 0100 059A     		ldr	r2, [sp, #20]
 322 0102 D243     		mvns	r2, r2
 323 0104 1A40     		ands	r2, r3
 324 0106 0D9B     		ldr	r3, [sp, #52]
 325 0108 1A43     		orrs	r2, r3
 326 010a 039B     		ldr	r3, [sp, #12]
 327 010c 1A60     		str	r2, [r3]
 328              		.loc 1 193 0
 329 010e 099B     		ldr	r3, [sp, #36]
 330 0110 072B     		cmp	r3, #7
 331 0112 09D8     		bhi	.L10
 332              		.loc 1 194 0
 333 0114 039B     		ldr	r3, [sp, #12]
 334 0116 1B6A     		ldr	r3, [r3, #32]
 335 0118 049A     		ldr	r2, [sp, #16]
 336 011a D243     		mvns	r2, r2
 337 011c 1A40     		ands	r2, r3
 338 011e 079B     		ldr	r3, [sp, #28]
 339 0120 1A43     		orrs	r2, r3
 340 0122 039B     		ldr	r3, [sp, #12]
 341 0124 1A62     		str	r2, [r3, #32]
 342 0126 08E0     		b	.L6
ARM GAS  /tmp/cc4imfPg.s 			page 7


 343              	.L10:
 344              		.loc 1 196 0
 345 0128 039B     		ldr	r3, [sp, #12]
 346 012a 5B6A     		ldr	r3, [r3, #36]
 347 012c 049A     		ldr	r2, [sp, #16]
 348 012e D243     		mvns	r2, r2
 349 0130 1A40     		ands	r2, r3
 350 0132 079B     		ldr	r3, [sp, #28]
 351 0134 1A43     		orrs	r2, r3
 352 0136 039B     		ldr	r3, [sp, #12]
 353 0138 5A62     		str	r2, [r3, #36]
 354              	.L6:
 355              	.LBE2:
 356              		.loc 1 199 0
 357 013a 029B     		ldr	r3, [sp, #8]
 358 013c 5B08     		lsrs	r3, r3, #1
 359 013e 0293     		str	r3, [sp, #8]
 360              		.loc 1 200 0
 361 0140 029B     		ldr	r3, [sp, #8]
 362 0142 002B     		cmp	r3, #0
 363 0144 0FD0     		beq	.L15
 364              		.loc 1 202 0
 365 0146 0C9B     		ldr	r3, [sp, #48]
 366 0148 5B00     		lsls	r3, r3, #1
 367 014a 0C93     		str	r3, [sp, #48]
 368              		.loc 1 203 0
 369 014c 0B9B     		ldr	r3, [sp, #44]
 370 014e 9B00     		lsls	r3, r3, #2
 371 0150 0B93     		str	r3, [sp, #44]
 372              		.loc 1 204 0
 373 0152 0A9B     		ldr	r3, [sp, #40]
 374 0154 9B00     		lsls	r3, r3, #2
 375 0156 0A93     		str	r3, [sp, #40]
 376              		.loc 1 205 0
 377 0158 0D9B     		ldr	r3, [sp, #52]
 378 015a 9B00     		lsls	r3, r3, #2
 379 015c 0D93     		str	r3, [sp, #52]
 380              		.loc 1 206 0
 381 015e 099B     		ldr	r3, [sp, #36]
 382 0160 0133     		adds	r3, r3, #1
 383 0162 0993     		str	r3, [sp, #36]
 384              		.loc 1 170 0
 385 0164 6AE7     		b	.L13
 386              	.L15:
 387              		.loc 1 201 0
 388 0166 C046     		nop
 389              		.loc 1 208 0
 390 0168 0EB0     		add	sp, sp, #56
 391              		@ sp needed
 392 016a 7047     		bx	lr
 393              		.cfi_endproc
 394              	.LFE184:
 395              		.size	_pal_lld_setgroupmode, .-_pal_lld_setgroupmode
 396              		.text
 397              	.Letext0:
 398              		.file 2 "/home/felix/opt/gcc-arm-none-eabi-6-2017-q1-update/lib/gcc/arm-none-eabi/6.3.1/include/st
 399              		.file 3 "/home/felix/opt/gcc-arm-none-eabi-6-2017-q1-update/arm-none-eabi/include/machine/_default
ARM GAS  /tmp/cc4imfPg.s 			page 8


 400              		.file 4 "/home/felix/opt/gcc-arm-none-eabi-6-2017-q1-update/arm-none-eabi/include/sys/_stdint.h"
 401              		.file 5 "ChibiOS/os/rt/ports/ARMCMx/compilers/GCC/chtypes.h"
 402              		.file 6 "ChibiOS/os/rt/include/chsystypes.h"
 403              		.file 7 "ChibiOS/os/rt/include/chschd.h"
 404              		.file 8 "ChibiOS/os/ext/CMSIS/ST/STM32F0xx/stm32f030xc.h"
 405              		.file 9 "ChibiOS/os/rt/ports/ARMCMx/chcore.h"
 406              		.file 10 "ChibiOS/os/rt/ports/ARMCMx/chcore_v6m.h"
 407              		.file 11 "ChibiOS/os/rt/include/chdebug.h"
 408              		.file 12 "ChibiOS/os/rt/include/chsem.h"
 409              		.file 13 "ChibiOS/os/rt/include/chmtx.h"
 410              		.file 14 "ChibiOS/os/rt/include/chregistry.h"
 411              		.file 15 "ChibiOS/os/ext/CMSIS/ST/STM32F0xx/system_stm32f0xx.h"
 412              		.file 16 "ChibiOS/os/rt/include/chevents.h"
 413              		.file 17 "ChibiOS/os/rt/include/chqueues.h"
 414              		.file 18 "ChibiOS/os/hal/ports/STM32/LLD/DMAv1/stm32_dma.h"
 415              		.file 19 "ChibiOS/os/hal/ports/STM32/LLD/GPIOv2/pal_lld.h"
 416              		.file 20 "ChibiOS/os/hal/include/serial.h"
 417              		.file 21 "ChibiOS/os/hal/ports/STM32/LLD/USARTv2/serial_lld.h"
 418              		.section	.debug_info,"",%progbits
 419              	.Ldebug_info0:
 420 0000 B1110000 		.4byte	0x11b1
 421 0004 0400     		.2byte	0x4
 422 0006 00000000 		.4byte	.Ldebug_abbrev0
 423 000a 04       		.byte	0x4
 424 000b 01       		.uleb128 0x1
 425 000c 85030000 		.4byte	.LASF251
 426 0010 0C       		.byte	0xc
 427 0011 4F0A0000 		.4byte	.LASF252
 428 0015 DB010000 		.4byte	.LASF253
 429 0019 00000000 		.4byte	.Ldebug_ranges0+0
 430 001d 00000000 		.4byte	0
 431 0021 00000000 		.4byte	.Ldebug_line0
 432 0025 02       		.uleb128 0x2
 433 0026 04       		.byte	0x4
 434 0027 05       		.byte	0x5
 435 0028 696E7400 		.ascii	"int\000"
 436 002c 03       		.uleb128 0x3
 437 002d 3C030000 		.4byte	.LASF4
 438 0031 02       		.byte	0x2
 439 0032 D8       		.byte	0xd8
 440 0033 3C000000 		.4byte	0x3c
 441 0037 04       		.uleb128 0x4
 442 0038 2C000000 		.4byte	0x2c
 443 003c 05       		.uleb128 0x5
 444 003d 04       		.byte	0x4
 445 003e 07       		.byte	0x7
 446 003f DB000000 		.4byte	.LASF0
 447 0043 05       		.uleb128 0x5
 448 0044 08       		.byte	0x8
 449 0045 05       		.byte	0x5
 450 0046 DE050000 		.4byte	.LASF1
 451 004a 05       		.uleb128 0x5
 452 004b 08       		.byte	0x8
 453 004c 04       		.byte	0x4
 454 004d 16070000 		.4byte	.LASF2
 455 0051 05       		.uleb128 0x5
 456 0052 01       		.byte	0x1
ARM GAS  /tmp/cc4imfPg.s 			page 9


 457 0053 06       		.byte	0x6
 458 0054 C2090000 		.4byte	.LASF3
 459 0058 03       		.uleb128 0x3
 460 0059 3B080000 		.4byte	.LASF5
 461 005d 03       		.byte	0x3
 462 005e 2B       		.byte	0x2b
 463 005f 63000000 		.4byte	0x63
 464 0063 05       		.uleb128 0x5
 465 0064 01       		.byte	0x1
 466 0065 08       		.byte	0x8
 467 0066 1D090000 		.4byte	.LASF6
 468 006a 05       		.uleb128 0x5
 469 006b 02       		.byte	0x2
 470 006c 05       		.byte	0x5
 471 006d 8C070000 		.4byte	.LASF7
 472 0071 03       		.uleb128 0x3
 473 0072 A7020000 		.4byte	.LASF8
 474 0076 03       		.byte	0x3
 475 0077 39       		.byte	0x39
 476 0078 7C000000 		.4byte	0x7c
 477 007c 05       		.uleb128 0x5
 478 007d 02       		.byte	0x2
 479 007e 07       		.byte	0x7
 480 007f EA090000 		.4byte	.LASF9
 481 0083 03       		.uleb128 0x3
 482 0084 01010000 		.4byte	.LASF10
 483 0088 03       		.byte	0x3
 484 0089 4D       		.byte	0x4d
 485 008a 8E000000 		.4byte	0x8e
 486 008e 05       		.uleb128 0x5
 487 008f 04       		.byte	0x4
 488 0090 05       		.byte	0x5
 489 0091 BE070000 		.4byte	.LASF11
 490 0095 03       		.uleb128 0x3
 491 0096 2B090000 		.4byte	.LASF12
 492 009a 03       		.byte	0x3
 493 009b 4F       		.byte	0x4f
 494 009c A0000000 		.4byte	0xa0
 495 00a0 05       		.uleb128 0x5
 496 00a1 04       		.byte	0x4
 497 00a2 07       		.byte	0x7
 498 00a3 C0080000 		.4byte	.LASF13
 499 00a7 03       		.uleb128 0x3
 500 00a8 63040000 		.4byte	.LASF14
 501 00ac 03       		.byte	0x3
 502 00ad 69       		.byte	0x69
 503 00ae B2000000 		.4byte	0xb2
 504 00b2 05       		.uleb128 0x5
 505 00b3 08       		.byte	0x8
 506 00b4 07       		.byte	0x7
 507 00b5 70020000 		.4byte	.LASF15
 508 00b9 03       		.uleb128 0x3
 509 00ba 7A050000 		.4byte	.LASF16
 510 00be 04       		.byte	0x4
 511 00bf 18       		.byte	0x18
 512 00c0 58000000 		.4byte	0x58
 513 00c4 06       		.uleb128 0x6
ARM GAS  /tmp/cc4imfPg.s 			page 10


 514 00c5 B9000000 		.4byte	0xb9
 515 00c9 03       		.uleb128 0x3
 516 00ca 29070000 		.4byte	.LASF17
 517 00ce 04       		.byte	0x4
 518 00cf 24       		.byte	0x24
 519 00d0 71000000 		.4byte	0x71
 520 00d4 04       		.uleb128 0x4
 521 00d5 C9000000 		.4byte	0xc9
 522 00d9 03       		.uleb128 0x3
 523 00da EC080000 		.4byte	.LASF18
 524 00de 04       		.byte	0x4
 525 00df 2C       		.byte	0x2c
 526 00e0 83000000 		.4byte	0x83
 527 00e4 03       		.uleb128 0x3
 528 00e5 F8010000 		.4byte	.LASF19
 529 00e9 04       		.byte	0x4
 530 00ea 30       		.byte	0x30
 531 00eb 95000000 		.4byte	0x95
 532 00ef 04       		.uleb128 0x4
 533 00f0 E4000000 		.4byte	0xe4
 534 00f4 03       		.uleb128 0x3
 535 00f5 FB070000 		.4byte	.LASF20
 536 00f9 04       		.byte	0x4
 537 00fa 3C       		.byte	0x3c
 538 00fb A7000000 		.4byte	0xa7
 539 00ff 03       		.uleb128 0x3
 540 0100 F3060000 		.4byte	.LASF21
 541 0104 05       		.byte	0x5
 542 0105 3C       		.byte	0x3c
 543 0106 B9000000 		.4byte	0xb9
 544 010a 03       		.uleb128 0x3
 545 010b 49050000 		.4byte	.LASF22
 546 010f 05       		.byte	0x5
 547 0110 3D       		.byte	0x3d
 548 0111 B9000000 		.4byte	0xb9
 549 0115 03       		.uleb128 0x3
 550 0116 B2080000 		.4byte	.LASF23
 551 011a 05       		.byte	0x5
 552 011b 3E       		.byte	0x3e
 553 011c B9000000 		.4byte	0xb9
 554 0120 03       		.uleb128 0x3
 555 0121 57020000 		.4byte	.LASF24
 556 0125 05       		.byte	0x5
 557 0126 40       		.byte	0x40
 558 0127 E4000000 		.4byte	0xe4
 559 012b 03       		.uleb128 0x3
 560 012c 11060000 		.4byte	.LASF25
 561 0130 05       		.byte	0x5
 562 0131 41       		.byte	0x41
 563 0132 D9000000 		.4byte	0xd9
 564 0136 03       		.uleb128 0x3
 565 0137 17020000 		.4byte	.LASF26
 566 013b 05       		.byte	0x5
 567 013c 43       		.byte	0x43
 568 013d E4000000 		.4byte	0xe4
 569 0141 03       		.uleb128 0x3
 570 0142 C3060000 		.4byte	.LASF27
ARM GAS  /tmp/cc4imfPg.s 			page 11


 571 0146 05       		.byte	0x5
 572 0147 44       		.byte	0x44
 573 0148 E4000000 		.4byte	0xe4
 574 014c 03       		.uleb128 0x3
 575 014d B2020000 		.4byte	.LASF28
 576 0151 05       		.byte	0x5
 577 0152 45       		.byte	0x45
 578 0153 D9000000 		.4byte	0xd9
 579 0157 03       		.uleb128 0x3
 580 0158 9E000000 		.4byte	.LASF29
 581 015c 06       		.byte	0x6
 582 015d 35       		.byte	0x35
 583 015e C9000000 		.4byte	0xc9
 584 0162 03       		.uleb128 0x3
 585 0163 1D030000 		.4byte	.LASF30
 586 0167 06       		.byte	0x6
 587 0168 3F       		.byte	0x3f
 588 0169 6D010000 		.4byte	0x16d
 589 016d 07       		.uleb128 0x7
 590 016e B7050000 		.4byte	.LASF51
 591 0172 48       		.byte	0x48
 592 0173 07       		.byte	0x7
 593 0174 C2       		.byte	0xc2
 594 0175 66020000 		.4byte	0x266
 595 0179 08       		.uleb128 0x8
 596 017a F4070000 		.4byte	.LASF31
 597 017e 07       		.byte	0x7
 598 017f C3       		.byte	0xc3
 599 0180 71020000 		.4byte	0x271
 600 0184 00       		.byte	0
 601 0185 08       		.uleb128 0x8
 602 0186 A2080000 		.4byte	.LASF32
 603 018a 07       		.byte	0x7
 604 018b C5       		.byte	0xc5
 605 018c 71020000 		.4byte	0x271
 606 0190 04       		.byte	0x4
 607 0191 08       		.uleb128 0x8
 608 0192 81000000 		.4byte	.LASF33
 609 0196 07       		.byte	0x7
 610 0197 C7       		.byte	0xc7
 611 0198 20010000 		.4byte	0x120
 612 019c 08       		.byte	0x8
 613 019d 08       		.uleb128 0x8
 614 019e 04080000 		.4byte	.LASF34
 615 01a2 07       		.byte	0x7
 616 01a3 C8       		.byte	0xc8
 617 01a4 EC060000 		.4byte	0x6ec
 618 01a8 0C       		.byte	0xc
 619 01a9 08       		.uleb128 0x8
 620 01aa EB020000 		.4byte	.LASF35
 621 01ae 07       		.byte	0x7
 622 01af CA       		.byte	0xca
 623 01b0 71020000 		.4byte	0x271
 624 01b4 10       		.byte	0x10
 625 01b5 08       		.uleb128 0x8
 626 01b6 5F050000 		.4byte	.LASF36
 627 01ba 07       		.byte	0x7
ARM GAS  /tmp/cc4imfPg.s 			page 12


 628 01bb CB       		.byte	0xcb
 629 01bc 71020000 		.4byte	0x271
 630 01c0 14       		.byte	0x14
 631 01c1 08       		.uleb128 0x8
 632 01c2 E5040000 		.4byte	.LASF37
 633 01c6 07       		.byte	0x7
 634 01c7 D2       		.byte	0xd2
 635 01c8 D5080000 		.4byte	0x8d5
 636 01cc 18       		.byte	0x18
 637 01cd 08       		.uleb128 0x8
 638 01ce 6F050000 		.4byte	.LASF38
 639 01d2 07       		.byte	0x7
 640 01d3 D8       		.byte	0xd8
 641 01d4 EC080000 		.4byte	0x8ec
 642 01d8 1C       		.byte	0x1c
 643 01d9 08       		.uleb128 0x8
 644 01da 67050000 		.4byte	.LASF39
 645 01de 07       		.byte	0x7
 646 01df DD       		.byte	0xdd
 647 01e0 0A010000 		.4byte	0x10a
 648 01e4 20       		.byte	0x20
 649 01e5 08       		.uleb128 0x8
 650 01e6 25060000 		.4byte	.LASF40
 651 01ea 07       		.byte	0x7
 652 01eb E1       		.byte	0xe1
 653 01ec FF000000 		.4byte	0xff
 654 01f0 21       		.byte	0x21
 655 01f1 08       		.uleb128 0x8
 656 01f2 4C090000 		.4byte	.LASF41
 657 01f6 07       		.byte	0x7
 658 01f7 E6       		.byte	0xe6
 659 01f8 15010000 		.4byte	0x115
 660 01fc 22       		.byte	0x22
 661 01fd 09       		.uleb128 0x9
 662 01fe 705F7500 		.ascii	"p_u\000"
 663 0202 07       		.byte	0x7
 664 0203 3101     		.2byte	0x131
 665 0205 10080000 		.4byte	0x810
 666 0209 24       		.byte	0x24
 667 020a 0A       		.uleb128 0xa
 668 020b 31000000 		.4byte	.LASF42
 669 020f 07       		.byte	0x7
 670 0210 3601     		.2byte	0x136
 671 0212 77020000 		.4byte	0x277
 672 0216 28       		.byte	0x28
 673 0217 0A       		.uleb128 0xa
 674 0218 D0000000 		.4byte	.LASF43
 675 021c 07       		.byte	0x7
 676 021d 3C01     		.2byte	0x13c
 677 021f 9B020000 		.4byte	0x29b
 678 0223 2C       		.byte	0x2c
 679 0224 0A       		.uleb128 0xa
 680 0225 E8060000 		.4byte	.LASF44
 681 0229 07       		.byte	0x7
 682 022a 4001     		.2byte	0x140
 683 022c 2B010000 		.4byte	0x12b
 684 0230 34       		.byte	0x34
ARM GAS  /tmp/cc4imfPg.s 			page 13


 685 0231 0A       		.uleb128 0xa
 686 0232 AB070000 		.4byte	.LASF45
 687 0236 07       		.byte	0x7
 688 0237 4601     		.2byte	0x146
 689 0239 36010000 		.4byte	0x136
 690 023d 38       		.byte	0x38
 691 023e 0A       		.uleb128 0xa
 692 023f AD050000 		.4byte	.LASF46
 693 0243 07       		.byte	0x7
 694 0244 4D01     		.2byte	0x14d
 695 0246 CF080000 		.4byte	0x8cf
 696 024a 3C       		.byte	0x3c
 697 024b 0A       		.uleb128 0xa
 698 024c 6D070000 		.4byte	.LASF47
 699 0250 07       		.byte	0x7
 700 0251 5101     		.2byte	0x151
 701 0253 20010000 		.4byte	0x120
 702 0257 40       		.byte	0x40
 703 0258 0A       		.uleb128 0xa
 704 0259 A5050000 		.4byte	.LASF48
 705 025d 07       		.byte	0x7
 706 025e 5801     		.2byte	0x158
 707 0260 4E030000 		.4byte	0x34e
 708 0264 44       		.byte	0x44
 709 0265 00       		.byte	0
 710 0266 03       		.uleb128 0x3
 711 0267 19050000 		.4byte	.LASF49
 712 026b 06       		.byte	0x6
 713 026c 44       		.byte	0x44
 714 026d 71020000 		.4byte	0x271
 715 0271 0B       		.uleb128 0xb
 716 0272 04       		.byte	0x4
 717 0273 62010000 		.4byte	0x162
 718 0277 03       		.uleb128 0x3
 719 0278 E8000000 		.4byte	.LASF50
 720 027c 06       		.byte	0x6
 721 027d 49       		.byte	0x49
 722 027e 82020000 		.4byte	0x282
 723 0282 07       		.uleb128 0x7
 724 0283 00000000 		.4byte	.LASF52
 725 0287 04       		.byte	0x4
 726 0288 07       		.byte	0x7
 727 0289 B0       		.byte	0xb0
 728 028a 9B020000 		.4byte	0x29b
 729 028e 08       		.uleb128 0x8
 730 028f F4070000 		.4byte	.LASF31
 731 0293 07       		.byte	0x7
 732 0294 B1       		.byte	0xb1
 733 0295 71020000 		.4byte	0x271
 734 0299 00       		.byte	0
 735 029a 00       		.byte	0
 736 029b 03       		.uleb128 0x3
 737 029c 10000000 		.4byte	.LASF53
 738 02a0 06       		.byte	0x6
 739 02a1 50       		.byte	0x50
 740 02a2 A6020000 		.4byte	0x2a6
 741 02a6 07       		.uleb128 0x7
ARM GAS  /tmp/cc4imfPg.s 			page 14


 742 02a7 8E010000 		.4byte	.LASF54
 743 02ab 08       		.byte	0x8
 744 02ac 07       		.byte	0x7
 745 02ad B7       		.byte	0xb7
 746 02ae CB020000 		.4byte	0x2cb
 747 02b2 08       		.uleb128 0x8
 748 02b3 F4070000 		.4byte	.LASF31
 749 02b7 07       		.byte	0x7
 750 02b8 B8       		.byte	0xb8
 751 02b9 71020000 		.4byte	0x271
 752 02bd 00       		.byte	0
 753 02be 08       		.uleb128 0x8
 754 02bf A2080000 		.4byte	.LASF32
 755 02c3 07       		.byte	0x7
 756 02c4 B9       		.byte	0xb9
 757 02c5 71020000 		.4byte	0x271
 758 02c9 04       		.byte	0x4
 759 02ca 00       		.byte	0
 760 02cb 03       		.uleb128 0x3
 761 02cc DF080000 		.4byte	.LASF55
 762 02d0 06       		.byte	0x6
 763 02d1 57       		.byte	0x57
 764 02d2 D6020000 		.4byte	0x2d6
 765 02d6 0C       		.uleb128 0xc
 766 02d7 58010000 		.4byte	.LASF56
 767 02db 1C       		.byte	0x1c
 768 02dc 07       		.byte	0x7
 769 02dd 9001     		.2byte	0x190
 770 02df 32030000 		.4byte	0x332
 771 02e3 0A       		.uleb128 0xa
 772 02e4 01060000 		.4byte	.LASF57
 773 02e8 07       		.byte	0x7
 774 02e9 9101     		.2byte	0x191
 775 02eb 9B020000 		.4byte	0x29b
 776 02ef 00       		.byte	0
 777 02f0 0A       		.uleb128 0xa
 778 02f1 23020000 		.4byte	.LASF58
 779 02f5 07       		.byte	0x7
 780 02f6 9201     		.2byte	0x192
 781 02f8 20010000 		.4byte	0x120
 782 02fc 08       		.byte	0x8
 783 02fd 0A       		.uleb128 0xa
 784 02fe FD090000 		.4byte	.LASF59
 785 0302 07       		.byte	0x7
 786 0303 9401     		.2byte	0x194
 787 0305 EC060000 		.4byte	0x6ec
 788 0309 0C       		.byte	0xc
 789 030a 0A       		.uleb128 0xa
 790 030b 09060000 		.4byte	.LASF60
 791 030f 07       		.byte	0x7
 792 0310 9701     		.2byte	0x197
 793 0312 71020000 		.4byte	0x271
 794 0316 10       		.byte	0x10
 795 0317 0A       		.uleb128 0xa
 796 0318 A2060000 		.4byte	.LASF61
 797 031c 07       		.byte	0x7
 798 031d 9801     		.2byte	0x198
ARM GAS  /tmp/cc4imfPg.s 			page 15


 799 031f 71020000 		.4byte	0x271
 800 0323 14       		.byte	0x14
 801 0324 0A       		.uleb128 0xa
 802 0325 A1070000 		.4byte	.LASF62
 803 0329 07       		.byte	0x7
 804 032a 9B01     		.2byte	0x19b
 805 032c 71020000 		.4byte	0x271
 806 0330 18       		.byte	0x18
 807 0331 00       		.byte	0
 808 0332 03       		.uleb128 0x3
 809 0333 AA010000 		.4byte	.LASF63
 810 0337 06       		.byte	0x6
 811 0338 5C       		.byte	0x5c
 812 0339 3D030000 		.4byte	0x33d
 813 033d 0B       		.uleb128 0xb
 814 033e 04       		.byte	0x4
 815 033f 43030000 		.4byte	0x343
 816 0343 0D       		.uleb128 0xd
 817 0344 4E030000 		.4byte	0x34e
 818 0348 0E       		.uleb128 0xe
 819 0349 4E030000 		.4byte	0x34e
 820 034d 00       		.byte	0
 821 034e 0F       		.uleb128 0xf
 822 034f 04       		.byte	0x4
 823 0350 03       		.uleb128 0x3
 824 0351 2D060000 		.4byte	.LASF64
 825 0355 06       		.byte	0x6
 826 0356 61       		.byte	0x61
 827 0357 5B030000 		.4byte	0x35b
 828 035b 0C       		.uleb128 0xc
 829 035c 5F020000 		.4byte	.LASF65
 830 0360 14       		.byte	0x14
 831 0361 07       		.byte	0x7
 832 0362 6B01     		.2byte	0x16b
 833 0364 AA030000 		.4byte	0x3aa
 834 0368 0A       		.uleb128 0xa
 835 0369 69090000 		.4byte	.LASF66
 836 036d 07       		.byte	0x7
 837 036e 6C01     		.2byte	0x16c
 838 0370 F2080000 		.4byte	0x8f2
 839 0374 00       		.byte	0
 840 0375 0A       		.uleb128 0xa
 841 0376 3D0A0000 		.4byte	.LASF67
 842 037a 07       		.byte	0x7
 843 037b 6D01     		.2byte	0x16d
 844 037d F2080000 		.4byte	0x8f2
 845 0381 04       		.byte	0x4
 846 0382 0A       		.uleb128 0xa
 847 0383 FB040000 		.4byte	.LASF68
 848 0387 07       		.byte	0x7
 849 0388 6E01     		.2byte	0x16e
 850 038a 57010000 		.4byte	0x157
 851 038e 08       		.byte	0x8
 852 038f 0A       		.uleb128 0xa
 853 0390 350A0000 		.4byte	.LASF69
 854 0394 07       		.byte	0x7
 855 0395 6F01     		.2byte	0x16f
ARM GAS  /tmp/cc4imfPg.s 			page 16


 856 0397 32030000 		.4byte	0x332
 857 039b 0C       		.byte	0xc
 858 039c 0A       		.uleb128 0xa
 859 039d 2A020000 		.4byte	.LASF70
 860 03a1 07       		.byte	0x7
 861 03a2 7101     		.2byte	0x171
 862 03a4 4E030000 		.4byte	0x34e
 863 03a8 10       		.byte	0x10
 864 03a9 00       		.byte	0
 865 03aa 03       		.uleb128 0x3
 866 03ab 36090000 		.4byte	.LASF71
 867 03af 06       		.byte	0x6
 868 03b0 66       		.byte	0x66
 869 03b1 B5030000 		.4byte	0x3b5
 870 03b5 0C       		.uleb128 0xc
 871 03b6 F9020000 		.4byte	.LASF72
 872 03ba 0C       		.byte	0xc
 873 03bb 07       		.byte	0x7
 874 03bc 7B01     		.2byte	0x17b
 875 03be F7030000 		.4byte	0x3f7
 876 03c2 0A       		.uleb128 0xa
 877 03c3 69090000 		.4byte	.LASF66
 878 03c7 07       		.byte	0x7
 879 03c8 7C01     		.2byte	0x17c
 880 03ca F2080000 		.4byte	0x8f2
 881 03ce 00       		.byte	0
 882 03cf 0A       		.uleb128 0xa
 883 03d0 3D0A0000 		.4byte	.LASF67
 884 03d4 07       		.byte	0x7
 885 03d5 7E01     		.2byte	0x17e
 886 03d7 F2080000 		.4byte	0x8f2
 887 03db 04       		.byte	0x4
 888 03dc 0A       		.uleb128 0xa
 889 03dd FB040000 		.4byte	.LASF68
 890 03e1 07       		.byte	0x7
 891 03e2 8001     		.2byte	0x180
 892 03e4 57010000 		.4byte	0x157
 893 03e8 08       		.byte	0x8
 894 03e9 0A       		.uleb128 0xa
 895 03ea 2C050000 		.4byte	.LASF73
 896 03ee 07       		.byte	0x7
 897 03ef 8801     		.2byte	0x188
 898 03f1 57010000 		.4byte	0x157
 899 03f5 0A       		.byte	0xa
 900 03f6 00       		.byte	0
 901 03f7 03       		.uleb128 0x3
 902 03f8 CF050000 		.4byte	.LASF74
 903 03fc 06       		.byte	0x6
 904 03fd 6B       		.byte	0x6b
 905 03fe 02040000 		.4byte	0x402
 906 0402 10       		.uleb128 0x10
 907 0403 C6010000 		.4byte	.LASF75
 908 0407 1404     		.2byte	0x414
 909 0409 07       		.byte	0x7
 910 040a A201     		.2byte	0x1a2
 911 040c 45040000 		.4byte	0x445
 912 0410 0A       		.uleb128 0xa
ARM GAS  /tmp/cc4imfPg.s 			page 17


 913 0411 D0060000 		.4byte	.LASF76
 914 0415 07       		.byte	0x7
 915 0416 AA01     		.2byte	0x1aa
 916 0418 DB080000 		.4byte	0x8db
 917 041c 00       		.byte	0
 918 041d 0A       		.uleb128 0xa
 919 041e BE020000 		.4byte	.LASF77
 920 0422 07       		.byte	0x7
 921 0423 AF01     		.2byte	0x1af
 922 0425 4C010000 		.4byte	0x14c
 923 0429 04       		.byte	0x4
 924 042a 0A       		.uleb128 0xa
 925 042b 4D070000 		.4byte	.LASF78
 926 042f 07       		.byte	0x7
 927 0430 B301     		.2byte	0x1b3
 928 0432 4C010000 		.4byte	0x14c
 929 0436 08       		.byte	0x8
 930 0437 0A       		.uleb128 0xa
 931 0438 F9080000 		.4byte	.LASF79
 932 043c 07       		.byte	0x7
 933 043d B901     		.2byte	0x1b9
 934 043f 05080000 		.4byte	0x805
 935 0443 0C       		.byte	0xc
 936 0444 00       		.byte	0
 937 0445 03       		.uleb128 0x3
 938 0446 90090000 		.4byte	.LASF80
 939 044a 06       		.byte	0x6
 940 044b 70       		.byte	0x70
 941 044c 50040000 		.4byte	0x450
 942 0450 10       		.uleb128 0x10
 943 0451 E3070000 		.4byte	.LASF81
 944 0455 6805     		.2byte	0x568
 945 0457 07       		.byte	0x7
 946 0458 C201     		.2byte	0x1c2
 947 045a A2040000 		.4byte	0x4a2
 948 045e 0A       		.uleb128 0xa
 949 045f 0F080000 		.4byte	.LASF82
 950 0463 07       		.byte	0x7
 951 0464 C601     		.2byte	0x1c6
 952 0466 CB020000 		.4byte	0x2cb
 953 046a 00       		.byte	0
 954 046b 0A       		.uleb128 0xa
 955 046c 36010000 		.4byte	.LASF83
 956 0470 07       		.byte	0x7
 957 0471 CA01     		.2byte	0x1ca
 958 0473 AA030000 		.4byte	0x3aa
 959 0477 1C       		.byte	0x1c
 960 0478 09       		.uleb128 0x9
 961 0479 64626700 		.ascii	"dbg\000"
 962 047d 07       		.byte	0x7
 963 047e CE01     		.2byte	0x1ce
 964 0480 F7030000 		.4byte	0x3f7
 965 0484 28       		.byte	0x28
 966 0485 11       		.uleb128 0x11
 967 0486 03070000 		.4byte	.LASF84
 968 048a 07       		.byte	0x7
 969 048b D201     		.2byte	0x1d2
ARM GAS  /tmp/cc4imfPg.s 			page 18


 970 048d 62010000 		.4byte	0x162
 971 0491 3C04     		.2byte	0x43c
 972 0493 11       		.uleb128 0x11
 973 0494 66010000 		.4byte	.LASF85
 974 0498 07       		.byte	0x7
 975 0499 E301     		.2byte	0x1e3
 976 049b F8080000 		.4byte	0x8f8
 977 049f 8804     		.2byte	0x488
 978 04a1 00       		.byte	0
 979 04a2 05       		.uleb128 0x5
 980 04a3 04       		.byte	0x4
 981 04a4 07       		.byte	0x7
 982 04a5 A9080000 		.4byte	.LASF86
 983 04a9 12       		.uleb128 0x12
 984 04aa 50000000 		.4byte	.LASF139
 985 04ae 0F       		.byte	0xf
 986 04af 4C       		.byte	0x4c
 987 04b0 E4000000 		.4byte	0xe4
 988 04b4 13       		.uleb128 0x13
 989 04b5 10       		.byte	0x10
 990 04b6 08       		.byte	0x8
 991 04b7 BE       		.byte	0xbe
 992 04b8 ED040000 		.4byte	0x4ed
 993 04bc 14       		.uleb128 0x14
 994 04bd 43435200 		.ascii	"CCR\000"
 995 04c1 08       		.byte	0x8
 996 04c2 C0       		.byte	0xc0
 997 04c3 EF000000 		.4byte	0xef
 998 04c7 00       		.byte	0
 999 04c8 08       		.uleb128 0x8
 1000 04c9 BA010000 		.4byte	.LASF87
 1001 04cd 08       		.byte	0x8
 1002 04ce C1       		.byte	0xc1
 1003 04cf EF000000 		.4byte	0xef
 1004 04d3 04       		.byte	0x4
 1005 04d4 08       		.uleb128 0x8
 1006 04d5 10030000 		.4byte	.LASF88
 1007 04d9 08       		.byte	0x8
 1008 04da C2       		.byte	0xc2
 1009 04db EF000000 		.4byte	0xef
 1010 04df 08       		.byte	0x8
 1011 04e0 08       		.uleb128 0x8
 1012 04e1 2A010000 		.4byte	.LASF89
 1013 04e5 08       		.byte	0x8
 1014 04e6 C3       		.byte	0xc3
 1015 04e7 EF000000 		.4byte	0xef
 1016 04eb 0C       		.byte	0xc
 1017 04ec 00       		.byte	0
 1018 04ed 03       		.uleb128 0x3
 1019 04ee 44010000 		.4byte	.LASF90
 1020 04f2 08       		.byte	0x8
 1021 04f3 C4       		.byte	0xc4
 1022 04f4 B4040000 		.4byte	0x4b4
 1023 04f8 13       		.uleb128 0x13
 1024 04f9 AC       		.byte	0xac
 1025 04fa 08       		.byte	0x8
 1026 04fb C6       		.byte	0xc6
ARM GAS  /tmp/cc4imfPg.s 			page 19


 1027 04fc 31050000 		.4byte	0x531
 1028 0500 14       		.uleb128 0x14
 1029 0501 49535200 		.ascii	"ISR\000"
 1030 0505 08       		.byte	0x8
 1031 0506 C8       		.byte	0xc8
 1032 0507 EF000000 		.4byte	0xef
 1033 050b 00       		.byte	0
 1034 050c 08       		.uleb128 0x8
 1035 050d 210A0000 		.4byte	.LASF91
 1036 0511 08       		.byte	0x8
 1037 0512 C9       		.byte	0xc9
 1038 0513 EF000000 		.4byte	0xef
 1039 0517 04       		.byte	0x4
 1040 0518 08       		.uleb128 0x8
 1041 0519 450A0000 		.4byte	.LASF92
 1042 051d 08       		.byte	0x8
 1043 051e CA       		.byte	0xca
 1044 051f 31050000 		.4byte	0x531
 1045 0523 08       		.byte	0x8
 1046 0524 08       		.uleb128 0x8
 1047 0525 260A0000 		.4byte	.LASF93
 1048 0529 08       		.byte	0x8
 1049 052a CB       		.byte	0xcb
 1050 052b EF000000 		.4byte	0xef
 1051 052f A8       		.byte	0xa8
 1052 0530 00       		.byte	0
 1053 0531 15       		.uleb128 0x15
 1054 0532 E4000000 		.4byte	0xe4
 1055 0536 41050000 		.4byte	0x541
 1056 053a 16       		.uleb128 0x16
 1057 053b A2040000 		.4byte	0x4a2
 1058 053f 27       		.byte	0x27
 1059 0540 00       		.byte	0
 1060 0541 03       		.uleb128 0x3
 1061 0542 4A060000 		.4byte	.LASF94
 1062 0546 08       		.byte	0x8
 1063 0547 CC       		.byte	0xcc
 1064 0548 F8040000 		.4byte	0x4f8
 1065 054c 17       		.uleb128 0x17
 1066 054d 38       		.byte	0x38
 1067 054e 08       		.byte	0x8
 1068 054f 4801     		.2byte	0x148
 1069 0551 0B060000 		.4byte	0x60b
 1070 0555 09       		.uleb128 0x9
 1071 0556 435200   		.ascii	"CR\000"
 1072 0559 08       		.byte	0x8
 1073 055a 4A01     		.2byte	0x14a
 1074 055c EF000000 		.4byte	0xef
 1075 0560 00       		.byte	0
 1076 0561 0A       		.uleb128 0xa
 1077 0562 0A080000 		.4byte	.LASF95
 1078 0566 08       		.byte	0x8
 1079 0567 4B01     		.2byte	0x14b
 1080 0569 EF000000 		.4byte	0xef
 1081 056d 04       		.byte	0x4
 1082 056e 09       		.uleb128 0x9
 1083 056f 43495200 		.ascii	"CIR\000"
ARM GAS  /tmp/cc4imfPg.s 			page 20


 1084 0573 08       		.byte	0x8
 1085 0574 4C01     		.2byte	0x14c
 1086 0576 EF000000 		.4byte	0xef
 1087 057a 08       		.byte	0x8
 1088 057b 0A       		.uleb128 0xa
 1089 057c 88000000 		.4byte	.LASF96
 1090 0580 08       		.byte	0x8
 1091 0581 4D01     		.2byte	0x14d
 1092 0583 EF000000 		.4byte	0xef
 1093 0587 0C       		.byte	0xc
 1094 0588 0A       		.uleb128 0xa
 1095 0589 EC040000 		.4byte	.LASF97
 1096 058d 08       		.byte	0x8
 1097 058e 4E01     		.2byte	0x14e
 1098 0590 EF000000 		.4byte	0xef
 1099 0594 10       		.byte	0x10
 1100 0595 0A       		.uleb128 0xa
 1101 0596 58050000 		.4byte	.LASF98
 1102 059a 08       		.byte	0x8
 1103 059b 4F01     		.2byte	0x14f
 1104 059d EF000000 		.4byte	0xef
 1105 05a1 14       		.byte	0x14
 1106 05a2 0A       		.uleb128 0xa
 1107 05a3 BB060000 		.4byte	.LASF99
 1108 05a7 08       		.byte	0x8
 1109 05a8 5001     		.2byte	0x150
 1110 05aa EF000000 		.4byte	0xef
 1111 05ae 18       		.byte	0x18
 1112 05af 0A       		.uleb128 0xa
 1113 05b0 48000000 		.4byte	.LASF100
 1114 05b4 08       		.byte	0x8
 1115 05b5 5101     		.2byte	0x151
 1116 05b7 EF000000 		.4byte	0xef
 1117 05bb 1C       		.byte	0x1c
 1118 05bc 0A       		.uleb128 0xa
 1119 05bd FC000000 		.4byte	.LASF101
 1120 05c1 08       		.byte	0x8
 1121 05c2 5201     		.2byte	0x152
 1122 05c4 EF000000 		.4byte	0xef
 1123 05c8 20       		.byte	0x20
 1124 05c9 09       		.uleb128 0x9
 1125 05ca 43535200 		.ascii	"CSR\000"
 1126 05ce 08       		.byte	0x8
 1127 05cf 5301     		.2byte	0x153
 1128 05d1 EF000000 		.4byte	0xef
 1129 05d5 24       		.byte	0x24
 1130 05d6 0A       		.uleb128 0xa
 1131 05d7 53090000 		.4byte	.LASF102
 1132 05db 08       		.byte	0x8
 1133 05dc 5401     		.2byte	0x154
 1134 05de EF000000 		.4byte	0xef
 1135 05e2 28       		.byte	0x28
 1136 05e3 0A       		.uleb128 0xa
 1137 05e4 AF060000 		.4byte	.LASF103
 1138 05e8 08       		.byte	0x8
 1139 05e9 5501     		.2byte	0x155
 1140 05eb EF000000 		.4byte	0xef
ARM GAS  /tmp/cc4imfPg.s 			page 21


 1141 05ef 2C       		.byte	0x2c
 1142 05f0 0A       		.uleb128 0xa
 1143 05f1 B5060000 		.4byte	.LASF104
 1144 05f5 08       		.byte	0x8
 1145 05f6 5601     		.2byte	0x156
 1146 05f8 EF000000 		.4byte	0xef
 1147 05fc 30       		.byte	0x30
 1148 05fd 09       		.uleb128 0x9
 1149 05fe 43523200 		.ascii	"CR2\000"
 1150 0602 08       		.byte	0x8
 1151 0603 5701     		.2byte	0x157
 1152 0605 EF000000 		.4byte	0xef
 1153 0609 34       		.byte	0x34
 1154 060a 00       		.byte	0
 1155 060b 18       		.uleb128 0x18
 1156 060c 71030000 		.4byte	.LASF105
 1157 0610 08       		.byte	0x8
 1158 0611 5801     		.2byte	0x158
 1159 0613 4C050000 		.4byte	0x54c
 1160 0617 17       		.uleb128 0x17
 1161 0618 2C       		.byte	0x2c
 1162 0619 08       		.byte	0x8
 1163 061a A501     		.2byte	0x1a5
 1164 061c CA060000 		.4byte	0x6ca
 1165 0620 09       		.uleb128 0x9
 1166 0621 43523100 		.ascii	"CR1\000"
 1167 0625 08       		.byte	0x8
 1168 0626 A701     		.2byte	0x1a7
 1169 0628 EF000000 		.4byte	0xef
 1170 062c 00       		.byte	0
 1171 062d 09       		.uleb128 0x9
 1172 062e 43523200 		.ascii	"CR2\000"
 1173 0632 08       		.byte	0x8
 1174 0633 A801     		.2byte	0x1a8
 1175 0635 EF000000 		.4byte	0xef
 1176 0639 04       		.byte	0x4
 1177 063a 09       		.uleb128 0x9
 1178 063b 43523300 		.ascii	"CR3\000"
 1179 063f 08       		.byte	0x8
 1180 0640 A901     		.2byte	0x1a9
 1181 0642 EF000000 		.4byte	0xef
 1182 0646 08       		.byte	0x8
 1183 0647 09       		.uleb128 0x9
 1184 0648 42525200 		.ascii	"BRR\000"
 1185 064c 08       		.byte	0x8
 1186 064d AA01     		.2byte	0x1aa
 1187 064f EF000000 		.4byte	0xef
 1188 0653 0C       		.byte	0xc
 1189 0654 0A       		.uleb128 0xa
 1190 0655 D6010000 		.4byte	.LASF106
 1191 0659 08       		.byte	0x8
 1192 065a AB01     		.2byte	0x1ab
 1193 065c EF000000 		.4byte	0xef
 1194 0660 10       		.byte	0x10
 1195 0661 0A       		.uleb128 0xa
 1196 0662 8C050000 		.4byte	.LASF107
 1197 0666 08       		.byte	0x8
ARM GAS  /tmp/cc4imfPg.s 			page 22


 1198 0667 AC01     		.2byte	0x1ac
 1199 0669 EF000000 		.4byte	0xef
 1200 066d 14       		.byte	0x14
 1201 066e 09       		.uleb128 0x9
 1202 066f 52515200 		.ascii	"RQR\000"
 1203 0673 08       		.byte	0x8
 1204 0674 AD01     		.2byte	0x1ad
 1205 0676 EF000000 		.4byte	0xef
 1206 067a 18       		.byte	0x18
 1207 067b 09       		.uleb128 0x9
 1208 067c 49535200 		.ascii	"ISR\000"
 1209 0680 08       		.byte	0x8
 1210 0681 AE01     		.2byte	0x1ae
 1211 0683 EF000000 		.4byte	0xef
 1212 0687 1C       		.byte	0x1c
 1213 0688 09       		.uleb128 0x9
 1214 0689 49435200 		.ascii	"ICR\000"
 1215 068d 08       		.byte	0x8
 1216 068e AF01     		.2byte	0x1af
 1217 0690 EF000000 		.4byte	0xef
 1218 0694 20       		.byte	0x20
 1219 0695 09       		.uleb128 0x9
 1220 0696 52445200 		.ascii	"RDR\000"
 1221 069a 08       		.byte	0x8
 1222 069b B001     		.2byte	0x1b0
 1223 069d D4000000 		.4byte	0xd4
 1224 06a1 24       		.byte	0x24
 1225 06a2 0A       		.uleb128 0xa
 1226 06a3 78070000 		.4byte	.LASF108
 1227 06a7 08       		.byte	0x8
 1228 06a8 B101     		.2byte	0x1b1
 1229 06aa C9000000 		.4byte	0xc9
 1230 06ae 26       		.byte	0x26
 1231 06af 09       		.uleb128 0x9
 1232 06b0 54445200 		.ascii	"TDR\000"
 1233 06b4 08       		.byte	0x8
 1234 06b5 B201     		.2byte	0x1b2
 1235 06b7 D4000000 		.4byte	0xd4
 1236 06bb 28       		.byte	0x28
 1237 06bc 0A       		.uleb128 0xa
 1238 06bd 82070000 		.4byte	.LASF109
 1239 06c1 08       		.byte	0x8
 1240 06c2 B301     		.2byte	0x1b3
 1241 06c4 C9000000 		.4byte	0xc9
 1242 06c8 2A       		.byte	0x2a
 1243 06c9 00       		.byte	0
 1244 06ca 18       		.uleb128 0x18
 1245 06cb 8D040000 		.4byte	.LASF110
 1246 06cf 08       		.byte	0x8
 1247 06d0 B401     		.2byte	0x1b4
 1248 06d2 17060000 		.4byte	0x617
 1249 06d6 03       		.uleb128 0x3
 1250 06d7 78000000 		.4byte	.LASF111
 1251 06db 09       		.byte	0x9
 1252 06dc 65       		.byte	0x65
 1253 06dd 4E030000 		.4byte	0x34e
 1254 06e1 03       		.uleb128 0x3
ARM GAS  /tmp/cc4imfPg.s 			page 23


 1255 06e2 030A0000 		.4byte	.LASF112
 1256 06e6 09       		.byte	0x9
 1257 06e7 6D       		.byte	0x6d
 1258 06e8 F4000000 		.4byte	0xf4
 1259 06ec 07       		.uleb128 0x7
 1260 06ed 1D060000 		.4byte	.LASF113
 1261 06f1 04       		.byte	0x4
 1262 06f2 09       		.byte	0x9
 1263 06f3 89       		.byte	0x89
 1264 06f4 05070000 		.4byte	0x705
 1265 06f8 14       		.uleb128 0x14
 1266 06f9 72313300 		.ascii	"r13\000"
 1267 06fd 09       		.byte	0x9
 1268 06fe 8A       		.byte	0x8a
 1269 06ff 77070000 		.4byte	0x777
 1270 0703 00       		.byte	0
 1271 0704 00       		.byte	0
 1272 0705 07       		.uleb128 0x7
 1273 0706 C7070000 		.4byte	.LASF114
 1274 070a 24       		.byte	0x24
 1275 070b 0A       		.byte	0xa
 1276 070c A4       		.byte	0xa4
 1277 070d 77070000 		.4byte	0x777
 1278 0711 14       		.uleb128 0x14
 1279 0712 723800   		.ascii	"r8\000"
 1280 0715 0A       		.byte	0xa
 1281 0716 A5       		.byte	0xa5
 1282 0717 D6060000 		.4byte	0x6d6
 1283 071b 00       		.byte	0
 1284 071c 14       		.uleb128 0x14
 1285 071d 723900   		.ascii	"r9\000"
 1286 0720 0A       		.byte	0xa
 1287 0721 A6       		.byte	0xa6
 1288 0722 D6060000 		.4byte	0x6d6
 1289 0726 04       		.byte	0x4
 1290 0727 14       		.uleb128 0x14
 1291 0728 72313000 		.ascii	"r10\000"
 1292 072c 0A       		.byte	0xa
 1293 072d A7       		.byte	0xa7
 1294 072e D6060000 		.4byte	0x6d6
 1295 0732 08       		.byte	0x8
 1296 0733 14       		.uleb128 0x14
 1297 0734 72313100 		.ascii	"r11\000"
 1298 0738 0A       		.byte	0xa
 1299 0739 A8       		.byte	0xa8
 1300 073a D6060000 		.4byte	0x6d6
 1301 073e 0C       		.byte	0xc
 1302 073f 14       		.uleb128 0x14
 1303 0740 723400   		.ascii	"r4\000"
 1304 0743 0A       		.byte	0xa
 1305 0744 A9       		.byte	0xa9
 1306 0745 D6060000 		.4byte	0x6d6
 1307 0749 10       		.byte	0x10
 1308 074a 14       		.uleb128 0x14
 1309 074b 723500   		.ascii	"r5\000"
 1310 074e 0A       		.byte	0xa
 1311 074f AA       		.byte	0xaa
ARM GAS  /tmp/cc4imfPg.s 			page 24


 1312 0750 D6060000 		.4byte	0x6d6
 1313 0754 14       		.byte	0x14
 1314 0755 14       		.uleb128 0x14
 1315 0756 723600   		.ascii	"r6\000"
 1316 0759 0A       		.byte	0xa
 1317 075a AB       		.byte	0xab
 1318 075b D6060000 		.4byte	0x6d6
 1319 075f 18       		.byte	0x18
 1320 0760 14       		.uleb128 0x14
 1321 0761 723700   		.ascii	"r7\000"
 1322 0764 0A       		.byte	0xa
 1323 0765 AC       		.byte	0xac
 1324 0766 D6060000 		.4byte	0x6d6
 1325 076a 1C       		.byte	0x1c
 1326 076b 14       		.uleb128 0x14
 1327 076c 6C7200   		.ascii	"lr\000"
 1328 076f 0A       		.byte	0xa
 1329 0770 AD       		.byte	0xad
 1330 0771 D6060000 		.4byte	0x6d6
 1331 0775 20       		.byte	0x20
 1332 0776 00       		.byte	0
 1333 0777 0B       		.uleb128 0xb
 1334 0778 04       		.byte	0x4
 1335 0779 05070000 		.4byte	0x705
 1336 077d 13       		.uleb128 0x13
 1337 077e 10       		.byte	0x10
 1338 077f 0B       		.byte	0xb
 1339 0780 51       		.byte	0x51
 1340 0781 B6070000 		.4byte	0x7b6
 1341 0785 08       		.uleb128 0x8
 1342 0786 15030000 		.4byte	.LASF115
 1343 078a 0B       		.byte	0xb
 1344 078b 55       		.byte	0x55
 1345 078c 57010000 		.4byte	0x157
 1346 0790 00       		.byte	0
 1347 0791 08       		.uleb128 0x8
 1348 0792 52050000 		.4byte	.LASF116
 1349 0796 0B       		.byte	0xb
 1350 0797 59       		.byte	0x59
 1351 0798 71020000 		.4byte	0x271
 1352 079c 04       		.byte	0x4
 1353 079d 08       		.uleb128 0x8
 1354 079e 87020000 		.4byte	.LASF117
 1355 07a2 0B       		.byte	0xb
 1356 07a3 5D       		.byte	0x5d
 1357 07a4 4E030000 		.4byte	0x34e
 1358 07a8 08       		.byte	0x8
 1359 07a9 08       		.uleb128 0x8
 1360 07aa 0B010000 		.4byte	.LASF118
 1361 07ae 0B       		.byte	0xb
 1362 07af 61       		.byte	0x61
 1363 07b0 B9000000 		.4byte	0xb9
 1364 07b4 0C       		.byte	0xc
 1365 07b5 00       		.byte	0
 1366 07b6 03       		.uleb128 0x3
 1367 07b7 06090000 		.4byte	.LASF119
 1368 07bb 0B       		.byte	0xb
ARM GAS  /tmp/cc4imfPg.s 			page 25


 1369 07bc 62       		.byte	0x62
 1370 07bd 7D070000 		.4byte	0x77d
 1371 07c1 19       		.uleb128 0x19
 1372 07c2 0804     		.2byte	0x408
 1373 07c4 0B       		.byte	0xb
 1374 07c5 67       		.byte	0x67
 1375 07c6 EF070000 		.4byte	0x7ef
 1376 07ca 08       		.uleb128 0x8
 1377 07cb C1050000 		.4byte	.LASF120
 1378 07cf 0B       		.byte	0xb
 1379 07d0 6B       		.byte	0x6b
 1380 07d1 3C000000 		.4byte	0x3c
 1381 07d5 00       		.byte	0
 1382 07d6 08       		.uleb128 0x8
 1383 07d7 8C060000 		.4byte	.LASF121
 1384 07db 0B       		.byte	0xb
 1385 07dc 6F       		.byte	0x6f
 1386 07dd EF070000 		.4byte	0x7ef
 1387 07e1 04       		.byte	0x4
 1388 07e2 08       		.uleb128 0x8
 1389 07e3 82050000 		.4byte	.LASF122
 1390 07e7 0B       		.byte	0xb
 1391 07e8 73       		.byte	0x73
 1392 07e9 F5070000 		.4byte	0x7f5
 1393 07ed 08       		.byte	0x8
 1394 07ee 00       		.byte	0
 1395 07ef 0B       		.uleb128 0xb
 1396 07f0 04       		.byte	0x4
 1397 07f1 B6070000 		.4byte	0x7b6
 1398 07f5 15       		.uleb128 0x15
 1399 07f6 B6070000 		.4byte	0x7b6
 1400 07fa 05080000 		.4byte	0x805
 1401 07fe 16       		.uleb128 0x16
 1402 07ff A2040000 		.4byte	0x4a2
 1403 0803 3F       		.byte	0x3f
 1404 0804 00       		.byte	0
 1405 0805 03       		.uleb128 0x3
 1406 0806 A9090000 		.4byte	.LASF123
 1407 080a 0B       		.byte	0xb
 1408 080b 74       		.byte	0x74
 1409 080c C1070000 		.4byte	0x7c1
 1410 0810 1A       		.uleb128 0x1a
 1411 0811 04       		.byte	0x4
 1412 0812 07       		.byte	0x7
 1413 0813 FA       		.byte	0xfa
 1414 0814 6D080000 		.4byte	0x86d
 1415 0818 1B       		.uleb128 0x1b
 1416 0819 43030000 		.4byte	.LASF124
 1417 081d 07       		.byte	0x7
 1418 081e 0101     		.2byte	0x101
 1419 0820 2B010000 		.4byte	0x12b
 1420 0824 1B       		.uleb128 0x1b
 1421 0825 AB0A0000 		.4byte	.LASF125
 1422 0829 07       		.byte	0x7
 1423 082a 0801     		.2byte	0x108
 1424 082c 2B010000 		.4byte	0x12b
 1425 0830 1B       		.uleb128 0x1b
ARM GAS  /tmp/cc4imfPg.s 			page 26


 1426 0831 2F010000 		.4byte	.LASF126
 1427 0835 07       		.byte	0x7
 1428 0836 0F01     		.2byte	0x10f
 1429 0838 4E030000 		.4byte	0x34e
 1430 083c 1B       		.uleb128 0x1b
 1431 083d A3090000 		.4byte	.LASF127
 1432 0841 07       		.byte	0x7
 1433 0842 1601     		.2byte	0x116
 1434 0844 6D080000 		.4byte	0x86d
 1435 0848 1B       		.uleb128 0x1b
 1436 0849 9C090000 		.4byte	.LASF128
 1437 084d 07       		.byte	0x7
 1438 084e 1E01     		.2byte	0x11e
 1439 0850 98080000 		.4byte	0x898
 1440 0854 1B       		.uleb128 0x1b
 1441 0855 60000000 		.4byte	.LASF129
 1442 0859 07       		.byte	0x7
 1443 085a 2701     		.2byte	0x127
 1444 085c CF080000 		.4byte	0x8cf
 1445 0860 1B       		.uleb128 0x1b
 1446 0861 75010000 		.4byte	.LASF130
 1447 0865 07       		.byte	0x7
 1448 0866 2F01     		.2byte	0x12f
 1449 0868 36010000 		.4byte	0x136
 1450 086c 00       		.byte	0
 1451 086d 0B       		.uleb128 0xb
 1452 086e 04       		.byte	0x4
 1453 086f 66020000 		.4byte	0x266
 1454 0873 07       		.uleb128 0x7
 1455 0874 44020000 		.4byte	.LASF131
 1456 0878 0C       		.byte	0xc
 1457 0879 0C       		.byte	0xc
 1458 087a 34       		.byte	0x34
 1459 087b 98080000 		.4byte	0x898
 1460 087f 08       		.uleb128 0x8
 1461 0880 BD000000 		.4byte	.LASF132
 1462 0884 0C       		.byte	0xc
 1463 0885 35       		.byte	0x35
 1464 0886 9B020000 		.4byte	0x29b
 1465 088a 00       		.byte	0
 1466 088b 08       		.uleb128 0x8
 1467 088c C0010000 		.4byte	.LASF133
 1468 0890 0C       		.byte	0xc
 1469 0891 37       		.byte	0x37
 1470 0892 4C010000 		.4byte	0x14c
 1471 0896 08       		.byte	0x8
 1472 0897 00       		.byte	0
 1473 0898 0B       		.uleb128 0xb
 1474 0899 04       		.byte	0x4
 1475 089a 73080000 		.4byte	0x873
 1476 089e 07       		.uleb128 0x7
 1477 089f 5A040000 		.4byte	.LASF134
 1478 08a3 10       		.byte	0x10
 1479 08a4 0D       		.byte	0xd
 1480 08a5 39       		.byte	0x39
 1481 08a6 CF080000 		.4byte	0x8cf
 1482 08aa 08       		.uleb128 0x8
ARM GAS  /tmp/cc4imfPg.s 			page 27


 1483 08ab B6070000 		.4byte	.LASF135
 1484 08af 0D       		.byte	0xd
 1485 08b0 3A       		.byte	0x3a
 1486 08b1 9B020000 		.4byte	0x29b
 1487 08b5 00       		.byte	0
 1488 08b6 08       		.uleb128 0x8
 1489 08b7 B5000000 		.4byte	.LASF136
 1490 08bb 0D       		.byte	0xd
 1491 08bc 3C       		.byte	0x3c
 1492 08bd 71020000 		.4byte	0x271
 1493 08c1 08       		.byte	0x8
 1494 08c2 08       		.uleb128 0x8
 1495 08c3 BB090000 		.4byte	.LASF137
 1496 08c7 0D       		.byte	0xd
 1497 08c8 3E       		.byte	0x3e
 1498 08c9 2A0A0000 		.4byte	0xa2a
 1499 08cd 0C       		.byte	0xc
 1500 08ce 00       		.byte	0
 1501 08cf 0B       		.uleb128 0xb
 1502 08d0 04       		.byte	0x4
 1503 08d1 9E080000 		.4byte	0x89e
 1504 08d5 0B       		.uleb128 0xb
 1505 08d6 04       		.byte	0x4
 1506 08d7 E7080000 		.4byte	0x8e7
 1507 08db 04       		.uleb128 0x4
 1508 08dc D5080000 		.4byte	0x8d5
 1509 08e0 05       		.uleb128 0x5
 1510 08e1 01       		.byte	0x1
 1511 08e2 08       		.byte	0x8
 1512 08e3 73000000 		.4byte	.LASF138
 1513 08e7 06       		.uleb128 0x6
 1514 08e8 E0080000 		.4byte	0x8e0
 1515 08ec 0B       		.uleb128 0xb
 1516 08ed 04       		.byte	0x4
 1517 08ee E1060000 		.4byte	0x6e1
 1518 08f2 0B       		.uleb128 0xb
 1519 08f3 04       		.byte	0x4
 1520 08f4 50030000 		.4byte	0x350
 1521 08f8 15       		.uleb128 0x15
 1522 08f9 E1060000 		.4byte	0x6e1
 1523 08fd 08090000 		.4byte	0x908
 1524 0901 16       		.uleb128 0x16
 1525 0902 A2040000 		.4byte	0x4a2
 1526 0906 1B       		.byte	0x1b
 1527 0907 00       		.byte	0
 1528 0908 1C       		.uleb128 0x1c
 1529 0909 636800   		.ascii	"ch\000"
 1530 090c 07       		.byte	0x7
 1531 090d 0902     		.2byte	0x209
 1532 090f 45040000 		.4byte	0x445
 1533 0913 13       		.uleb128 0x13
 1534 0914 16       		.byte	0x16
 1535 0915 0E       		.byte	0xe
 1536 0916 34       		.byte	0x34
 1537 0917 F4090000 		.4byte	0x9f4
 1538 091b 08       		.uleb128 0x8
 1539 091c 7A080000 		.4byte	.LASF140
ARM GAS  /tmp/cc4imfPg.s 			page 28


 1540 0920 0E       		.byte	0xe
 1541 0921 35       		.byte	0x35
 1542 0922 F4090000 		.4byte	0x9f4
 1543 0926 00       		.byte	0
 1544 0927 08       		.uleb128 0x8
 1545 0928 6B060000 		.4byte	.LASF141
 1546 092c 0E       		.byte	0xe
 1547 092d 36       		.byte	0x36
 1548 092e B9000000 		.4byte	0xb9
 1549 0932 04       		.byte	0x4
 1550 0933 08       		.uleb128 0x8
 1551 0934 FB060000 		.4byte	.LASF142
 1552 0938 0E       		.byte	0xe
 1553 0939 37       		.byte	0x37
 1554 093a B9000000 		.4byte	0xb9
 1555 093e 05       		.byte	0x5
 1556 093f 08       		.uleb128 0x8
 1557 0940 96070000 		.4byte	.LASF143
 1558 0944 0E       		.byte	0xe
 1559 0945 38       		.byte	0x38
 1560 0946 C9000000 		.4byte	0xc9
 1561 094a 06       		.byte	0x6
 1562 094b 08       		.uleb128 0x8
 1563 094c 9F010000 		.4byte	.LASF144
 1564 0950 0E       		.byte	0xe
 1565 0951 39       		.byte	0x39
 1566 0952 B9000000 		.4byte	0xb9
 1567 0956 08       		.byte	0x8
 1568 0957 08       		.uleb128 0x8
 1569 0958 0B020000 		.4byte	.LASF145
 1570 095c 0E       		.byte	0xe
 1571 095d 3A       		.byte	0x3a
 1572 095e B9000000 		.4byte	0xb9
 1573 0962 09       		.byte	0x9
 1574 0963 08       		.uleb128 0x8
 1575 0964 4A030000 		.4byte	.LASF146
 1576 0968 0E       		.byte	0xe
 1577 0969 3B       		.byte	0x3b
 1578 096a B9000000 		.4byte	0xb9
 1579 096e 0A       		.byte	0xa
 1580 096f 08       		.uleb128 0x8
 1581 0970 2F080000 		.4byte	.LASF147
 1582 0974 0E       		.byte	0xe
 1583 0975 3C       		.byte	0x3c
 1584 0976 B9000000 		.4byte	0xb9
 1585 097a 0B       		.byte	0xb
 1586 097b 08       		.uleb128 0x8
 1587 097c BB040000 		.4byte	.LASF148
 1588 0980 0E       		.byte	0xe
 1589 0981 3D       		.byte	0x3d
 1590 0982 B9000000 		.4byte	0xb9
 1591 0986 0C       		.byte	0xc
 1592 0987 08       		.uleb128 0x8
 1593 0988 CE090000 		.4byte	.LASF149
 1594 098c 0E       		.byte	0xe
 1595 098d 3E       		.byte	0x3e
 1596 098e B9000000 		.4byte	0xb9
ARM GAS  /tmp/cc4imfPg.s 			page 29


 1597 0992 0D       		.byte	0xd
 1598 0993 08       		.uleb128 0x8
 1599 0994 A8000000 		.4byte	.LASF150
 1600 0998 0E       		.byte	0xe
 1601 0999 3F       		.byte	0x3f
 1602 099a B9000000 		.4byte	0xb9
 1603 099e 0E       		.byte	0xe
 1604 099f 08       		.uleb128 0x8
 1605 09a0 14010000 		.4byte	.LASF151
 1606 09a4 0E       		.byte	0xe
 1607 09a5 40       		.byte	0x40
 1608 09a6 B9000000 		.4byte	0xb9
 1609 09aa 0F       		.byte	0xf
 1610 09ab 08       		.uleb128 0x8
 1611 09ac D5040000 		.4byte	.LASF152
 1612 09b0 0E       		.byte	0xe
 1613 09b1 41       		.byte	0x41
 1614 09b2 B9000000 		.4byte	0xb9
 1615 09b6 10       		.byte	0x10
 1616 09b7 08       		.uleb128 0x8
 1617 09b8 D2080000 		.4byte	.LASF153
 1618 09bc 0E       		.byte	0xe
 1619 09bd 43       		.byte	0x43
 1620 09be B9000000 		.4byte	0xb9
 1621 09c2 11       		.byte	0x11
 1622 09c3 08       		.uleb128 0x8
 1623 09c4 81010000 		.4byte	.LASF154
 1624 09c8 0E       		.byte	0xe
 1625 09c9 44       		.byte	0x44
 1626 09ca B9000000 		.4byte	0xb9
 1627 09ce 12       		.byte	0x12
 1628 09cf 08       		.uleb128 0x8
 1629 09d0 5F060000 		.4byte	.LASF155
 1630 09d4 0E       		.byte	0xe
 1631 09d5 45       		.byte	0x45
 1632 09d6 B9000000 		.4byte	0xb9
 1633 09da 13       		.byte	0x13
 1634 09db 08       		.uleb128 0x8
 1635 09dc 58030000 		.4byte	.LASF156
 1636 09e0 0E       		.byte	0xe
 1637 09e1 46       		.byte	0x46
 1638 09e2 B9000000 		.4byte	0xb9
 1639 09e6 14       		.byte	0x14
 1640 09e7 08       		.uleb128 0x8
 1641 09e8 23080000 		.4byte	.LASF157
 1642 09ec 0E       		.byte	0xe
 1643 09ed 48       		.byte	0x48
 1644 09ee B9000000 		.4byte	0xb9
 1645 09f2 15       		.byte	0x15
 1646 09f3 00       		.byte	0
 1647 09f4 15       		.uleb128 0x15
 1648 09f5 E0080000 		.4byte	0x8e0
 1649 09f9 040A0000 		.4byte	0xa04
 1650 09fd 16       		.uleb128 0x16
 1651 09fe A2040000 		.4byte	0x4a2
 1652 0a02 03       		.byte	0x3
 1653 0a03 00       		.byte	0
ARM GAS  /tmp/cc4imfPg.s 			page 30


 1654 0a04 03       		.uleb128 0x3
 1655 0a05 32070000 		.4byte	.LASF158
 1656 0a09 0E       		.byte	0xe
 1657 0a0a 49       		.byte	0x49
 1658 0a0b 13090000 		.4byte	0x913
 1659 0a0f 06       		.uleb128 0x6
 1660 0a10 040A0000 		.4byte	0xa04
 1661 0a14 12       		.uleb128 0x12
 1662 0a15 2C0A0000 		.4byte	.LASF159
 1663 0a19 0E       		.byte	0xe
 1664 0a1a 6E       		.byte	0x6e
 1665 0a1b 0F0A0000 		.4byte	0xa0f
 1666 0a1f 03       		.uleb128 0x3
 1667 0a20 15090000 		.4byte	.LASF160
 1668 0a24 0D       		.byte	0xd
 1669 0a25 34       		.byte	0x34
 1670 0a26 9E080000 		.4byte	0x89e
 1671 0a2a 0B       		.uleb128 0xb
 1672 0a2b 04       		.byte	0x4
 1673 0a2c 1F0A0000 		.4byte	0xa1f
 1674 0a30 03       		.uleb128 0x3
 1675 0a31 20000000 		.4byte	.LASF161
 1676 0a35 10       		.byte	0x10
 1677 0a36 34       		.byte	0x34
 1678 0a37 3B0A0000 		.4byte	0xa3b
 1679 0a3b 07       		.uleb128 0x7
 1680 0a3c F2050000 		.4byte	.LASF162
 1681 0a40 14       		.byte	0x14
 1682 0a41 10       		.byte	0x10
 1683 0a42 39       		.byte	0x39
 1684 0a43 840A0000 		.4byte	0xa84
 1685 0a47 08       		.uleb128 0x8
 1686 0a48 E0060000 		.4byte	.LASF163
 1687 0a4c 10       		.byte	0x10
 1688 0a4d 3A       		.byte	0x3a
 1689 0a4e 840A0000 		.4byte	0xa84
 1690 0a52 00       		.byte	0
 1691 0a53 08       		.uleb128 0x8
 1692 0a54 54080000 		.4byte	.LASF164
 1693 0a58 10       		.byte	0x10
 1694 0a59 3D       		.byte	0x3d
 1695 0a5a 71020000 		.4byte	0x271
 1696 0a5e 04       		.byte	0x4
 1697 0a5f 08       		.uleb128 0x8
 1698 0a60 4A080000 		.4byte	.LASF165
 1699 0a64 10       		.byte	0x10
 1700 0a65 3F       		.byte	0x3f
 1701 0a66 36010000 		.4byte	0x136
 1702 0a6a 08       		.byte	0x8
 1703 0a6b 08       		.uleb128 0x8
 1704 0a6c A20A0000 		.4byte	.LASF166
 1705 0a70 10       		.byte	0x10
 1706 0a71 41       		.byte	0x41
 1707 0a72 41010000 		.4byte	0x141
 1708 0a76 0C       		.byte	0xc
 1709 0a77 08       		.uleb128 0x8
 1710 0a78 26030000 		.4byte	.LASF167
ARM GAS  /tmp/cc4imfPg.s 			page 31


 1711 0a7c 10       		.byte	0x10
 1712 0a7d 43       		.byte	0x43
 1713 0a7e 41010000 		.4byte	0x141
 1714 0a82 10       		.byte	0x10
 1715 0a83 00       		.byte	0
 1716 0a84 0B       		.uleb128 0xb
 1717 0a85 04       		.byte	0x4
 1718 0a86 300A0000 		.4byte	0xa30
 1719 0a8a 07       		.uleb128 0x7
 1720 0a8b 91000000 		.4byte	.LASF168
 1721 0a8f 04       		.byte	0x4
 1722 0a90 10       		.byte	0x10
 1723 0a91 4A       		.byte	0x4a
 1724 0a92 A30A0000 		.4byte	0xaa3
 1725 0a96 08       		.uleb128 0x8
 1726 0a97 5B090000 		.4byte	.LASF169
 1727 0a9b 10       		.byte	0x10
 1728 0a9c 4B       		.byte	0x4b
 1729 0a9d 840A0000 		.4byte	0xa84
 1730 0aa1 00       		.byte	0
 1731 0aa2 00       		.byte	0
 1732 0aa3 03       		.uleb128 0x3
 1733 0aa4 98020000 		.4byte	.LASF170
 1734 0aa8 10       		.byte	0x10
 1735 0aa9 4E       		.byte	0x4e
 1736 0aaa 8A0A0000 		.4byte	0xa8a
 1737 0aae 05       		.uleb128 0x5
 1738 0aaf 01       		.byte	0x1
 1739 0ab0 02       		.byte	0x2
 1740 0ab1 DA060000 		.4byte	.LASF171
 1741 0ab5 03       		.uleb128 0x3
 1742 0ab6 C5000000 		.4byte	.LASF172
 1743 0aba 11       		.byte	0x11
 1744 0abb 3F       		.byte	0x3f
 1745 0abc C00A0000 		.4byte	0xac0
 1746 0ac0 07       		.uleb128 0x7
 1747 0ac1 DB090000 		.4byte	.LASF173
 1748 0ac5 24       		.byte	0x24
 1749 0ac6 11       		.byte	0x11
 1750 0ac7 4D       		.byte	0x4d
 1751 0ac8 2D0B0000 		.4byte	0xb2d
 1752 0acc 08       		.uleb128 0x8
 1753 0acd 01020000 		.4byte	.LASF174
 1754 0ad1 11       		.byte	0x11
 1755 0ad2 4E       		.byte	0x4e
 1756 0ad3 9B020000 		.4byte	0x29b
 1757 0ad7 00       		.byte	0
 1758 0ad8 08       		.uleb128 0x8
 1759 0ad9 88080000 		.4byte	.LASF175
 1760 0add 11       		.byte	0x11
 1761 0ade 4F       		.byte	0x4f
 1762 0adf 37000000 		.4byte	0x37
 1763 0ae3 08       		.byte	0x8
 1764 0ae4 08       		.uleb128 0x8
 1765 0ae5 BE0A0000 		.4byte	.LASF176
 1766 0ae9 11       		.byte	0x11
 1767 0aea 50       		.byte	0x50
ARM GAS  /tmp/cc4imfPg.s 			page 32


 1768 0aeb 4F0B0000 		.4byte	0xb4f
 1769 0aef 0C       		.byte	0xc
 1770 0af0 08       		.uleb128 0x8
 1771 0af1 9C080000 		.4byte	.LASF177
 1772 0af5 11       		.byte	0x11
 1773 0af6 51       		.byte	0x51
 1774 0af7 4F0B0000 		.4byte	0xb4f
 1775 0afb 10       		.byte	0x10
 1776 0afc 08       		.uleb128 0x8
 1777 0afd 38050000 		.4byte	.LASF178
 1778 0b01 11       		.byte	0x11
 1779 0b02 53       		.byte	0x53
 1780 0b03 4F0B0000 		.4byte	0xb4f
 1781 0b07 14       		.byte	0x14
 1782 0b08 08       		.uleb128 0x8
 1783 0b09 9A0A0000 		.4byte	.LASF179
 1784 0b0d 11       		.byte	0x11
 1785 0b0e 54       		.byte	0x54
 1786 0b0f 4F0B0000 		.4byte	0xb4f
 1787 0b13 18       		.byte	0x18
 1788 0b14 08       		.uleb128 0x8
 1789 0b15 A6040000 		.4byte	.LASF180
 1790 0b19 11       		.byte	0x11
 1791 0b1a 55       		.byte	0x55
 1792 0b1b 2D0B0000 		.4byte	0xb2d
 1793 0b1f 1C       		.byte	0x1c
 1794 0b20 08       		.uleb128 0x8
 1795 0b21 3D010000 		.4byte	.LASF181
 1796 0b25 11       		.byte	0x11
 1797 0b26 56       		.byte	0x56
 1798 0b27 4E030000 		.4byte	0x34e
 1799 0b2b 20       		.byte	0x20
 1800 0b2c 00       		.byte	0
 1801 0b2d 03       		.uleb128 0x3
 1802 0b2e 20010000 		.4byte	.LASF182
 1803 0b32 11       		.byte	0x11
 1804 0b33 42       		.byte	0x42
 1805 0b34 380B0000 		.4byte	0xb38
 1806 0b38 0B       		.uleb128 0xb
 1807 0b39 04       		.byte	0x4
 1808 0b3a 3E0B0000 		.4byte	0xb3e
 1809 0b3e 0D       		.uleb128 0xd
 1810 0b3f 490B0000 		.4byte	0xb49
 1811 0b43 0E       		.uleb128 0xe
 1812 0b44 490B0000 		.4byte	0xb49
 1813 0b48 00       		.byte	0
 1814 0b49 0B       		.uleb128 0xb
 1815 0b4a 04       		.byte	0x4
 1816 0b4b B50A0000 		.4byte	0xab5
 1817 0b4f 0B       		.uleb128 0xb
 1818 0b50 04       		.byte	0x4
 1819 0b51 B9000000 		.4byte	0xb9
 1820 0b55 03       		.uleb128 0x3
 1821 0b56 97050000 		.4byte	.LASF183
 1822 0b5a 11       		.byte	0x11
 1823 0b5b 64       		.byte	0x64
 1824 0b5c B50A0000 		.4byte	0xab5
ARM GAS  /tmp/cc4imfPg.s 			page 33


 1825 0b60 03       		.uleb128 0x3
 1826 0b61 73060000 		.4byte	.LASF184
 1827 0b65 11       		.byte	0x11
 1828 0b66 71       		.byte	0x71
 1829 0b67 B50A0000 		.4byte	0xab5
 1830 0b6b 1D       		.uleb128 0x1d
 1831 0b6c 2C000000 		.4byte	0x2c
 1832 0b70 840B0000 		.4byte	0xb84
 1833 0b74 0E       		.uleb128 0xe
 1834 0b75 4E030000 		.4byte	0x34e
 1835 0b79 0E       		.uleb128 0xe
 1836 0b7a 840B0000 		.4byte	0xb84
 1837 0b7e 0E       		.uleb128 0xe
 1838 0b7f 2C000000 		.4byte	0x2c
 1839 0b83 00       		.byte	0
 1840 0b84 0B       		.uleb128 0xb
 1841 0b85 04       		.byte	0x4
 1842 0b86 C4000000 		.4byte	0xc4
 1843 0b8a 0B       		.uleb128 0xb
 1844 0b8b 04       		.byte	0x4
 1845 0b8c 6B0B0000 		.4byte	0xb6b
 1846 0b90 1D       		.uleb128 0x1d
 1847 0b91 2C000000 		.4byte	0x2c
 1848 0b95 A90B0000 		.4byte	0xba9
 1849 0b99 0E       		.uleb128 0xe
 1850 0b9a 4E030000 		.4byte	0x34e
 1851 0b9e 0E       		.uleb128 0xe
 1852 0b9f 4F0B0000 		.4byte	0xb4f
 1853 0ba3 0E       		.uleb128 0xe
 1854 0ba4 2C000000 		.4byte	0x2c
 1855 0ba8 00       		.byte	0
 1856 0ba9 0B       		.uleb128 0xb
 1857 0baa 04       		.byte	0x4
 1858 0bab 900B0000 		.4byte	0xb90
 1859 0baf 1D       		.uleb128 0x1d
 1860 0bb0 2B010000 		.4byte	0x12b
 1861 0bb4 C30B0000 		.4byte	0xbc3
 1862 0bb8 0E       		.uleb128 0xe
 1863 0bb9 4E030000 		.4byte	0x34e
 1864 0bbd 0E       		.uleb128 0xe
 1865 0bbe B9000000 		.4byte	0xb9
 1866 0bc2 00       		.byte	0
 1867 0bc3 0B       		.uleb128 0xb
 1868 0bc4 04       		.byte	0x4
 1869 0bc5 AF0B0000 		.4byte	0xbaf
 1870 0bc9 1D       		.uleb128 0x1d
 1871 0bca 2B010000 		.4byte	0x12b
 1872 0bce D80B0000 		.4byte	0xbd8
 1873 0bd2 0E       		.uleb128 0xe
 1874 0bd3 4E030000 		.4byte	0x34e
 1875 0bd7 00       		.byte	0
 1876 0bd8 0B       		.uleb128 0xb
 1877 0bd9 04       		.byte	0x4
 1878 0bda C90B0000 		.4byte	0xbc9
 1879 0bde 13       		.uleb128 0x13
 1880 0bdf 14       		.byte	0x14
 1881 0be0 12       		.byte	0x12
ARM GAS  /tmp/cc4imfPg.s 			page 34


 1882 0be1 E4       		.byte	0xe4
 1883 0be2 3B0C0000 		.4byte	0xc3b
 1884 0be6 14       		.uleb128 0x14
 1885 0be7 646D6100 		.ascii	"dma\000"
 1886 0beb 12       		.byte	0x12
 1887 0bec E5       		.byte	0xe5
 1888 0bed 3B0C0000 		.4byte	0xc3b
 1889 0bf1 00       		.byte	0
 1890 0bf2 08       		.uleb128 0x8
 1891 0bf3 3C070000 		.4byte	.LASF185
 1892 0bf7 12       		.byte	0x12
 1893 0bf8 E6       		.byte	0xe6
 1894 0bf9 410C0000 		.4byte	0xc41
 1895 0bfd 04       		.byte	0x4
 1896 0bfe 08       		.uleb128 0x8
 1897 0bff 91050000 		.4byte	.LASF186
 1898 0c03 12       		.byte	0x12
 1899 0c04 E7       		.byte	0xe7
 1900 0c05 E4000000 		.4byte	0xe4
 1901 0c09 08       		.byte	0x8
 1902 0c0a 08       		.uleb128 0x8
 1903 0c0b 51020000 		.4byte	.LASF187
 1904 0c0f 12       		.byte	0x12
 1905 0c10 E9       		.byte	0xe9
 1906 0c11 470C0000 		.4byte	0xc47
 1907 0c15 0C       		.byte	0xc
 1908 0c16 08       		.uleb128 0x8
 1909 0c17 38020000 		.4byte	.LASF188
 1910 0c1b 12       		.byte	0x12
 1911 0c1c EA       		.byte	0xea
 1912 0c1d B9000000 		.4byte	0xb9
 1913 0c21 10       		.byte	0x10
 1914 0c22 08       		.uleb128 0x8
 1915 0c23 B40A0000 		.4byte	.LASF189
 1916 0c27 12       		.byte	0x12
 1917 0c28 EC       		.byte	0xec
 1918 0c29 B9000000 		.4byte	0xb9
 1919 0c2d 11       		.byte	0x11
 1920 0c2e 08       		.uleb128 0x8
 1921 0c2f 91020000 		.4byte	.LASF190
 1922 0c33 12       		.byte	0x12
 1923 0c34 ED       		.byte	0xed
 1924 0c35 B9000000 		.4byte	0xb9
 1925 0c39 12       		.byte	0x12
 1926 0c3a 00       		.byte	0
 1927 0c3b 0B       		.uleb128 0xb
 1928 0c3c 04       		.byte	0x4
 1929 0c3d 41050000 		.4byte	0x541
 1930 0c41 0B       		.uleb128 0xb
 1931 0c42 04       		.byte	0x4
 1932 0c43 ED040000 		.4byte	0x4ed
 1933 0c47 0B       		.uleb128 0xb
 1934 0c48 04       		.byte	0x4
 1935 0c49 EF000000 		.4byte	0xef
 1936 0c4d 03       		.uleb128 0x3
 1937 0c4e 0E0A0000 		.4byte	.LASF191
 1938 0c52 12       		.byte	0x12
ARM GAS  /tmp/cc4imfPg.s 			page 35


 1939 0c53 EE       		.byte	0xee
 1940 0c54 DE0B0000 		.4byte	0xbde
 1941 0c58 06       		.uleb128 0x6
 1942 0c59 4D0C0000 		.4byte	0xc4d
 1943 0c5d 03       		.uleb128 0x3
 1944 0c5e C6040000 		.4byte	.LASF192
 1945 0c62 12       		.byte	0x12
 1946 0c63 F7       		.byte	0xf7
 1947 0c64 680C0000 		.4byte	0xc68
 1948 0c68 0B       		.uleb128 0xb
 1949 0c69 04       		.byte	0x4
 1950 0c6a 6E0C0000 		.4byte	0xc6e
 1951 0c6e 0D       		.uleb128 0xd
 1952 0c6f 7E0C0000 		.4byte	0xc7e
 1953 0c73 0E       		.uleb128 0xe
 1954 0c74 4E030000 		.4byte	0x34e
 1955 0c78 0E       		.uleb128 0xe
 1956 0c79 E4000000 		.4byte	0xe4
 1957 0c7d 00       		.byte	0
 1958 0c7e 13       		.uleb128 0x13
 1959 0c7f 08       		.byte	0x8
 1960 0c80 12       		.byte	0x12
 1961 0c81 FC       		.byte	0xfc
 1962 0c82 9F0C0000 		.4byte	0xc9f
 1963 0c86 08       		.uleb128 0x8
 1964 0c87 D3070000 		.4byte	.LASF193
 1965 0c8b 12       		.byte	0x12
 1966 0c8c FD       		.byte	0xfd
 1967 0c8d 5D0C0000 		.4byte	0xc5d
 1968 0c91 00       		.byte	0
 1969 0c92 08       		.uleb128 0x8
 1970 0c93 82060000 		.4byte	.LASF194
 1971 0c97 12       		.byte	0x12
 1972 0c98 FE       		.byte	0xfe
 1973 0c99 4E030000 		.4byte	0x34e
 1974 0c9d 04       		.byte	0x4
 1975 0c9e 00       		.byte	0
 1976 0c9f 03       		.uleb128 0x3
 1977 0ca0 6A080000 		.4byte	.LASF195
 1978 0ca4 12       		.byte	0x12
 1979 0ca5 FF       		.byte	0xff
 1980 0ca6 7E0C0000 		.4byte	0xc7e
 1981 0caa 15       		.uleb128 0x15
 1982 0cab 580C0000 		.4byte	0xc58
 1983 0caf BA0C0000 		.4byte	0xcba
 1984 0cb3 16       		.uleb128 0x16
 1985 0cb4 A2040000 		.4byte	0x4a2
 1986 0cb8 04       		.byte	0x4
 1987 0cb9 00       		.byte	0
 1988 0cba 06       		.uleb128 0x6
 1989 0cbb AA0C0000 		.4byte	0xcaa
 1990 0cbf 1E       		.uleb128 0x1e
 1991 0cc0 7F0A0000 		.4byte	.LASF196
 1992 0cc4 12       		.byte	0x12
 1993 0cc5 CD01     		.2byte	0x1cd
 1994 0cc7 BA0C0000 		.4byte	0xcba
 1995 0ccb 15       		.uleb128 0x15
ARM GAS  /tmp/cc4imfPg.s 			page 36


 1996 0ccc 9F0C0000 		.4byte	0xc9f
 1997 0cd0 DB0C0000 		.4byte	0xcdb
 1998 0cd4 16       		.uleb128 0x16
 1999 0cd5 A2040000 		.4byte	0x4a2
 2000 0cd9 04       		.byte	0x4
 2001 0cda 00       		.byte	0
 2002 0cdb 1E       		.uleb128 0x1e
 2003 0cdc 04050000 		.4byte	.LASF197
 2004 0ce0 12       		.byte	0x12
 2005 0ce1 CE01     		.2byte	0x1ce
 2006 0ce3 CB0C0000 		.4byte	0xccb
 2007 0ce7 1D       		.uleb128 0x1d
 2008 0ce8 2B010000 		.4byte	0x12b
 2009 0cec 000D0000 		.4byte	0xd00
 2010 0cf0 0E       		.uleb128 0xe
 2011 0cf1 4E030000 		.4byte	0x34e
 2012 0cf5 0E       		.uleb128 0xe
 2013 0cf6 B9000000 		.4byte	0xb9
 2014 0cfa 0E       		.uleb128 0xe
 2015 0cfb 57010000 		.4byte	0x157
 2016 0cff 00       		.byte	0
 2017 0d00 0B       		.uleb128 0xb
 2018 0d01 04       		.byte	0x4
 2019 0d02 E70C0000 		.4byte	0xce7
 2020 0d06 1D       		.uleb128 0x1d
 2021 0d07 2B010000 		.4byte	0x12b
 2022 0d0b 1A0D0000 		.4byte	0xd1a
 2023 0d0f 0E       		.uleb128 0xe
 2024 0d10 4E030000 		.4byte	0x34e
 2025 0d14 0E       		.uleb128 0xe
 2026 0d15 57010000 		.4byte	0x157
 2027 0d19 00       		.byte	0
 2028 0d1a 0B       		.uleb128 0xb
 2029 0d1b 04       		.byte	0x4
 2030 0d1c 060D0000 		.4byte	0xd06
 2031 0d20 1D       		.uleb128 0x1d
 2032 0d21 2C000000 		.4byte	0x2c
 2033 0d25 3E0D0000 		.4byte	0xd3e
 2034 0d29 0E       		.uleb128 0xe
 2035 0d2a 4E030000 		.4byte	0x34e
 2036 0d2e 0E       		.uleb128 0xe
 2037 0d2f 840B0000 		.4byte	0xb84
 2038 0d33 0E       		.uleb128 0xe
 2039 0d34 2C000000 		.4byte	0x2c
 2040 0d38 0E       		.uleb128 0xe
 2041 0d39 57010000 		.4byte	0x157
 2042 0d3d 00       		.byte	0
 2043 0d3e 0B       		.uleb128 0xb
 2044 0d3f 04       		.byte	0x4
 2045 0d40 200D0000 		.4byte	0xd20
 2046 0d44 1D       		.uleb128 0x1d
 2047 0d45 2C000000 		.4byte	0x2c
 2048 0d49 620D0000 		.4byte	0xd62
 2049 0d4d 0E       		.uleb128 0xe
 2050 0d4e 4E030000 		.4byte	0x34e
 2051 0d52 0E       		.uleb128 0xe
 2052 0d53 4F0B0000 		.4byte	0xb4f
ARM GAS  /tmp/cc4imfPg.s 			page 37


 2053 0d57 0E       		.uleb128 0xe
 2054 0d58 2C000000 		.4byte	0x2c
 2055 0d5c 0E       		.uleb128 0xe
 2056 0d5d 57010000 		.4byte	0x157
 2057 0d61 00       		.byte	0
 2058 0d62 0B       		.uleb128 0xb
 2059 0d63 04       		.byte	0x4
 2060 0d64 440D0000 		.4byte	0xd44
 2061 0d68 13       		.uleb128 0x13
 2062 0d69 04       		.byte	0x4
 2063 0d6a 13       		.byte	0x13
 2064 0d6b E7       		.byte	0xe7
 2065 0d6c 890D0000 		.4byte	0xd89
 2066 0d70 14       		.uleb128 0x14
 2067 0d71 73657400 		.ascii	"set\000"
 2068 0d75 13       		.byte	0x13
 2069 0d76 E8       		.byte	0xe8
 2070 0d77 C9000000 		.4byte	0xc9
 2071 0d7b 00       		.byte	0
 2072 0d7c 08       		.uleb128 0x8
 2073 0d7d F3020000 		.4byte	.LASF198
 2074 0d81 13       		.byte	0x13
 2075 0d82 E9       		.byte	0xe9
 2076 0d83 C9000000 		.4byte	0xc9
 2077 0d87 02       		.byte	0x2
 2078 0d88 00       		.byte	0
 2079 0d89 1A       		.uleb128 0x1a
 2080 0d8a 04       		.byte	0x4
 2081 0d8b 13       		.byte	0x13
 2082 0d8c E5       		.byte	0xe5
 2083 0d8d A40D0000 		.4byte	0xda4
 2084 0d91 1F       		.uleb128 0x1f
 2085 0d92 5700     		.ascii	"W\000"
 2086 0d94 13       		.byte	0x13
 2087 0d95 E6       		.byte	0xe6
 2088 0d96 E4000000 		.4byte	0xe4
 2089 0d9a 1F       		.uleb128 0x1f
 2090 0d9b 4800     		.ascii	"H\000"
 2091 0d9d 13       		.byte	0x13
 2092 0d9e EA       		.byte	0xea
 2093 0d9f 680D0000 		.4byte	0xd68
 2094 0da3 00       		.byte	0
 2095 0da4 04       		.uleb128 0x4
 2096 0da5 890D0000 		.4byte	0xd89
 2097 0da9 13       		.uleb128 0x13
 2098 0daa 2C       		.byte	0x2c
 2099 0dab 13       		.byte	0x13
 2100 0dac DD       		.byte	0xdd
 2101 0dad 360E0000 		.4byte	0xe36
 2102 0db1 08       		.uleb128 0x8
 2103 0db2 B8020000 		.4byte	.LASF199
 2104 0db6 13       		.byte	0x13
 2105 0db7 DF       		.byte	0xdf
 2106 0db8 EF000000 		.4byte	0xef
 2107 0dbc 00       		.byte	0
 2108 0dbd 08       		.uleb128 0x8
 2109 0dbe ED070000 		.4byte	.LASF200
ARM GAS  /tmp/cc4imfPg.s 			page 38


 2110 0dc2 13       		.byte	0x13
 2111 0dc3 E0       		.byte	0xe0
 2112 0dc4 EF000000 		.4byte	0xef
 2113 0dc8 04       		.byte	0x4
 2114 0dc9 08       		.uleb128 0x8
 2115 0dca 0E070000 		.4byte	.LASF201
 2116 0dce 13       		.byte	0x13
 2117 0dcf E1       		.byte	0xe1
 2118 0dd0 EF000000 		.4byte	0xef
 2119 0dd4 08       		.byte	0x8
 2120 0dd5 08       		.uleb128 0x8
 2121 0dd6 B5040000 		.4byte	.LASF202
 2122 0dda 13       		.byte	0x13
 2123 0ddb E2       		.byte	0xe2
 2124 0ddc EF000000 		.4byte	0xef
 2125 0de0 0C       		.byte	0xc
 2126 0de1 14       		.uleb128 0x14
 2127 0de2 49445200 		.ascii	"IDR\000"
 2128 0de6 13       		.byte	0x13
 2129 0de7 E3       		.byte	0xe3
 2130 0de8 EF000000 		.4byte	0xef
 2131 0dec 10       		.byte	0x10
 2132 0ded 14       		.uleb128 0x14
 2133 0dee 4F445200 		.ascii	"ODR\000"
 2134 0df2 13       		.byte	0x13
 2135 0df3 E4       		.byte	0xe4
 2136 0df4 EF000000 		.4byte	0xef
 2137 0df8 14       		.byte	0x14
 2138 0df9 08       		.uleb128 0x8
 2139 0dfa 6E000000 		.4byte	.LASF203
 2140 0dfe 13       		.byte	0x13
 2141 0dff EB       		.byte	0xeb
 2142 0e00 A40D0000 		.4byte	0xda4
 2143 0e04 18       		.byte	0x18
 2144 0e05 08       		.uleb128 0x8
 2145 0e06 98060000 		.4byte	.LASF204
 2146 0e0a 13       		.byte	0x13
 2147 0e0b EC       		.byte	0xec
 2148 0e0c EF000000 		.4byte	0xef
 2149 0e10 1C       		.byte	0x1c
 2150 0e11 08       		.uleb128 0x8
 2151 0e12 E6020000 		.4byte	.LASF205
 2152 0e16 13       		.byte	0x13
 2153 0e17 ED       		.byte	0xed
 2154 0e18 EF000000 		.4byte	0xef
 2155 0e1c 20       		.byte	0x20
 2156 0e1d 08       		.uleb128 0x8
 2157 0e1e 81040000 		.4byte	.LASF206
 2158 0e22 13       		.byte	0x13
 2159 0e23 EE       		.byte	0xee
 2160 0e24 EF000000 		.4byte	0xef
 2161 0e28 24       		.byte	0x24
 2162 0e29 14       		.uleb128 0x14
 2163 0e2a 42525200 		.ascii	"BRR\000"
 2164 0e2e 13       		.byte	0x13
 2165 0e2f EF       		.byte	0xef
 2166 0e30 EF000000 		.4byte	0xef
ARM GAS  /tmp/cc4imfPg.s 			page 39


 2167 0e34 28       		.byte	0x28
 2168 0e35 00       		.byte	0
 2169 0e36 03       		.uleb128 0x3
 2170 0e37 D9020000 		.4byte	.LASF207
 2171 0e3b 13       		.byte	0x13
 2172 0e3c F0       		.byte	0xf0
 2173 0e3d A90D0000 		.4byte	0xda9
 2174 0e41 13       		.uleb128 0x13
 2175 0e42 1C       		.byte	0x1c
 2176 0e43 13       		.byte	0x13
 2177 0e44 F5       		.byte	0xf5
 2178 0e45 A00E0000 		.4byte	0xea0
 2179 0e49 08       		.uleb128 0x8
 2180 0e4a F5040000 		.4byte	.LASF208
 2181 0e4e 13       		.byte	0x13
 2182 0e4f F7       		.byte	0xf7
 2183 0e50 E4000000 		.4byte	0xe4
 2184 0e54 00       		.byte	0
 2185 0e55 08       		.uleb128 0x8
 2186 0e56 31020000 		.4byte	.LASF209
 2187 0e5a 13       		.byte	0x13
 2188 0e5b F9       		.byte	0xf9
 2189 0e5c E4000000 		.4byte	0xe4
 2190 0e60 04       		.byte	0x4
 2191 0e61 08       		.uleb128 0x8
 2192 0e62 920A0000 		.4byte	.LASF210
 2193 0e66 13       		.byte	0x13
 2194 0e67 FB       		.byte	0xfb
 2195 0e68 E4000000 		.4byte	0xe4
 2196 0e6c 08       		.byte	0x8
 2197 0e6d 08       		.uleb128 0x8
 2198 0e6e 17060000 		.4byte	.LASF211
 2199 0e72 13       		.byte	0x13
 2200 0e73 FD       		.byte	0xfd
 2201 0e74 E4000000 		.4byte	0xe4
 2202 0e78 0C       		.byte	0xc
 2203 0e79 14       		.uleb128 0x14
 2204 0e7a 6F647200 		.ascii	"odr\000"
 2205 0e7e 13       		.byte	0x13
 2206 0e7f FF       		.byte	0xff
 2207 0e80 E4000000 		.4byte	0xe4
 2208 0e84 10       		.byte	0x10
 2209 0e85 0A       		.uleb128 0xa
 2210 0e86 9D060000 		.4byte	.LASF212
 2211 0e8a 13       		.byte	0x13
 2212 0e8b 0101     		.2byte	0x101
 2213 0e8d E4000000 		.4byte	0xe4
 2214 0e91 14       		.byte	0x14
 2215 0e92 0A       		.uleb128 0xa
 2216 0e93 93060000 		.4byte	.LASF213
 2217 0e97 13       		.byte	0x13
 2218 0e98 0301     		.2byte	0x103
 2219 0e9a E4000000 		.4byte	0xe4
 2220 0e9e 18       		.byte	0x18
 2221 0e9f 00       		.byte	0
 2222 0ea0 18       		.uleb128 0x18
 2223 0ea1 C6020000 		.4byte	.LASF214
ARM GAS  /tmp/cc4imfPg.s 			page 40


 2224 0ea5 13       		.byte	0x13
 2225 0ea6 0401     		.2byte	0x104
 2226 0ea8 410E0000 		.4byte	0xe41
 2227 0eac 06       		.uleb128 0x6
 2228 0ead A00E0000 		.4byte	0xea0
 2229 0eb1 17       		.uleb128 0x17
 2230 0eb2 70       		.byte	0x70
 2231 0eb3 13       		.byte	0x13
 2232 0eb4 0D01     		.2byte	0x10d
 2233 0eb6 EF0E0000 		.4byte	0xeef
 2234 0eba 0A       		.uleb128 0xa
 2235 0ebb DC070000 		.4byte	.LASF215
 2236 0ebf 13       		.byte	0x13
 2237 0ec0 1001     		.2byte	0x110
 2238 0ec2 A00E0000 		.4byte	0xea0
 2239 0ec6 00       		.byte	0
 2240 0ec7 0A       		.uleb128 0xa
 2241 0ec8 53040000 		.4byte	.LASF216
 2242 0ecc 13       		.byte	0x13
 2243 0ecd 1401     		.2byte	0x114
 2244 0ecf A00E0000 		.4byte	0xea0
 2245 0ed3 1C       		.byte	0x1c
 2246 0ed4 0A       		.uleb128 0xa
 2247 0ed5 67000000 		.4byte	.LASF217
 2248 0ed9 13       		.byte	0x13
 2249 0eda 1801     		.2byte	0x118
 2250 0edc A00E0000 		.4byte	0xea0
 2251 0ee0 38       		.byte	0x38
 2252 0ee1 0A       		.uleb128 0xa
 2253 0ee2 30030000 		.4byte	.LASF218
 2254 0ee6 13       		.byte	0x13
 2255 0ee7 2401     		.2byte	0x124
 2256 0ee9 A00E0000 		.4byte	0xea0
 2257 0eed 54       		.byte	0x54
 2258 0eee 00       		.byte	0
 2259 0eef 18       		.uleb128 0x18
 2260 0ef0 92080000 		.4byte	.LASF219
 2261 0ef4 13       		.byte	0x13
 2262 0ef5 3A01     		.2byte	0x13a
 2263 0ef7 B10E0000 		.4byte	0xeb1
 2264 0efb 06       		.uleb128 0x6
 2265 0efc EF0E0000 		.4byte	0xeef
 2266 0f00 18       		.uleb128 0x18
 2267 0f01 3D060000 		.4byte	.LASF220
 2268 0f05 13       		.byte	0x13
 2269 0f06 3F01     		.2byte	0x13f
 2270 0f08 E4000000 		.4byte	0xe4
 2271 0f0c 18       		.uleb128 0x18
 2272 0f0d 56060000 		.4byte	.LASF221
 2273 0f11 13       		.byte	0x13
 2274 0f12 4401     		.2byte	0x144
 2275 0f14 E4000000 		.4byte	0xe4
 2276 0f18 18       		.uleb128 0x18
 2277 0f19 9B040000 		.4byte	.LASF222
 2278 0f1d 13       		.byte	0x13
 2279 0f1e 5101     		.2byte	0x151
 2280 0f20 240F0000 		.4byte	0xf24
ARM GAS  /tmp/cc4imfPg.s 			page 41


 2281 0f24 0B       		.uleb128 0xb
 2282 0f25 04       		.byte	0x4
 2283 0f26 360E0000 		.4byte	0xe36
 2284 0f2a 1E       		.uleb128 0x1e
 2285 0f2b 6E040000 		.4byte	.LASF223
 2286 0f2f 13       		.byte	0x13
 2287 0f30 1E02     		.2byte	0x21e
 2288 0f32 FB0E0000 		.4byte	0xefb
 2289 0f36 20       		.uleb128 0x20
 2290 0f37 01       		.byte	0x1
 2291 0f38 63000000 		.4byte	0x63
 2292 0f3c 14       		.byte	0x14
 2293 0f3d 55       		.byte	0x55
 2294 0f3e 550F0000 		.4byte	0xf55
 2295 0f42 21       		.uleb128 0x21
 2296 0f43 60080000 		.4byte	.LASF224
 2297 0f47 00       		.byte	0
 2298 0f48 21       		.uleb128 0x21
 2299 0f49 7D030000 		.4byte	.LASF225
 2300 0f4d 01       		.byte	0x1
 2301 0f4e 21       		.uleb128 0x21
 2302 0f4f 44070000 		.4byte	.LASF226
 2303 0f53 02       		.byte	0x2
 2304 0f54 00       		.byte	0
 2305 0f55 03       		.uleb128 0x3
 2306 0f56 67030000 		.4byte	.LASF227
 2307 0f5a 14       		.byte	0x14
 2308 0f5b 59       		.byte	0x59
 2309 0f5c 360F0000 		.4byte	0xf36
 2310 0f60 03       		.uleb128 0x3
 2311 0f61 3B000000 		.4byte	.LASF228
 2312 0f65 14       		.byte	0x14
 2313 0f66 5E       		.byte	0x5e
 2314 0f67 6B0F0000 		.4byte	0xf6b
 2315 0f6b 22       		.uleb128 0x22
 2316 0f6c 3B000000 		.4byte	.LASF228
 2317 0f70 5C01     		.2byte	0x15c
 2318 0f72 14       		.byte	0x14
 2319 0f73 78       		.byte	0x78
 2320 0f74 E50F0000 		.4byte	0xfe5
 2321 0f78 14       		.uleb128 0x14
 2322 0f79 766D7400 		.ascii	"vmt\000"
 2323 0f7d 14       		.byte	0x14
 2324 0f7e 7A       		.byte	0x7a
 2325 0f7f 63100000 		.4byte	0x1063
 2326 0f83 00       		.byte	0
 2327 0f84 08       		.uleb128 0x8
 2328 0f85 3E020000 		.4byte	.LASF229
 2329 0f89 14       		.byte	0x14
 2330 0f8a 7B       		.byte	0x7b
 2331 0f8b A30A0000 		.4byte	0xaa3
 2332 0f8f 04       		.byte	0x4
 2333 0f90 08       		.uleb128 0x8
 2334 0f91 63090000 		.4byte	.LASF230
 2335 0f95 14       		.byte	0x14
 2336 0f96 7B       		.byte	0x7b
 2337 0f97 550F0000 		.4byte	0xf55
ARM GAS  /tmp/cc4imfPg.s 			page 42


 2338 0f9b 08       		.byte	0x8
 2339 0f9c 08       		.uleb128 0x8
 2340 0f9d 86040000 		.4byte	.LASF231
 2341 0fa1 14       		.byte	0x14
 2342 0fa2 7B       		.byte	0x7b
 2343 0fa3 550B0000 		.4byte	0xb55
 2344 0fa7 0C       		.byte	0xc
 2345 0fa8 08       		.uleb128 0x8
 2346 0fa9 22070000 		.4byte	.LASF232
 2347 0fad 14       		.byte	0x14
 2348 0fae 7B       		.byte	0x7b
 2349 0faf 600B0000 		.4byte	0xb60
 2350 0fb3 30       		.byte	0x30
 2351 0fb4 14       		.uleb128 0x14
 2352 0fb5 696200   		.ascii	"ib\000"
 2353 0fb8 14       		.byte	0x14
 2354 0fb9 7B       		.byte	0x7b
 2355 0fba 69100000 		.4byte	0x1069
 2356 0fbe 54       		.byte	0x54
 2357 0fbf 14       		.uleb128 0x14
 2358 0fc0 6F6200   		.ascii	"ob\000"
 2359 0fc3 14       		.byte	0x14
 2360 0fc4 7B       		.byte	0x7b
 2361 0fc5 69100000 		.4byte	0x1069
 2362 0fc9 D4       		.byte	0xd4
 2363 0fca 23       		.uleb128 0x23
 2364 0fcb C9050000 		.4byte	.LASF233
 2365 0fcf 14       		.byte	0x14
 2366 0fd0 7B       		.byte	0x7b
 2367 0fd1 79100000 		.4byte	0x1079
 2368 0fd5 5401     		.2byte	0x154
 2369 0fd7 23       		.uleb128 0x23
 2370 0fd8 AF040000 		.4byte	.LASF234
 2371 0fdc 14       		.byte	0x14
 2372 0fdd 7B       		.byte	0x7b
 2373 0fde E4000000 		.4byte	0xe4
 2374 0fe2 5801     		.2byte	0x158
 2375 0fe4 00       		.byte	0
 2376 0fe5 1C       		.uleb128 0x1c
 2377 0fe6 53443500 		.ascii	"SD5\000"
 2378 0fea 15       		.byte	0x15
 2379 0feb 7201     		.2byte	0x172
 2380 0fed 600F0000 		.4byte	0xf60
 2381 0ff1 07       		.uleb128 0x7
 2382 0ff2 56070000 		.4byte	.LASF235
 2383 0ff6 20       		.byte	0x20
 2384 0ff7 14       		.byte	0x14
 2385 0ff8 6D       		.byte	0x6d
 2386 0ff9 5E100000 		.4byte	0x105e
 2387 0ffd 08       		.uleb128 0x8
 2388 0ffe EC050000 		.4byte	.LASF236
 2389 1002 14       		.byte	0x14
 2390 1003 6E       		.byte	0x6e
 2391 1004 8A0B0000 		.4byte	0xb8a
 2392 1008 00       		.byte	0
 2393 1009 08       		.uleb128 0x8
 2394 100a 45080000 		.4byte	.LASF237
ARM GAS  /tmp/cc4imfPg.s 			page 43


 2395 100e 14       		.byte	0x14
 2396 100f 6E       		.byte	0x6e
 2397 1010 A90B0000 		.4byte	0xba9
 2398 1014 04       		.byte	0x4
 2399 1015 14       		.uleb128 0x14
 2400 1016 70757400 		.ascii	"put\000"
 2401 101a 14       		.byte	0x14
 2402 101b 6E       		.byte	0x6e
 2403 101c C30B0000 		.4byte	0xbc3
 2404 1020 08       		.byte	0x8
 2405 1021 14       		.uleb128 0x14
 2406 1022 67657400 		.ascii	"get\000"
 2407 1026 14       		.byte	0x14
 2408 1027 6E       		.byte	0x6e
 2409 1028 D80B0000 		.4byte	0xbd8
 2410 102c 0C       		.byte	0xc
 2411 102d 08       		.uleb128 0x8
 2412 102e 37030000 		.4byte	.LASF238
 2413 1032 14       		.byte	0x14
 2414 1033 6E       		.byte	0x6e
 2415 1034 000D0000 		.4byte	0xd00
 2416 1038 10       		.byte	0x10
 2417 1039 08       		.uleb128 0x8
 2418 103a EE060000 		.4byte	.LASF239
 2419 103e 14       		.byte	0x14
 2420 103f 6E       		.byte	0x6e
 2421 1040 1A0D0000 		.4byte	0xd1a
 2422 1044 14       		.byte	0x14
 2423 1045 08       		.uleb128 0x8
 2424 1046 B3010000 		.4byte	.LASF240
 2425 104a 14       		.byte	0x14
 2426 104b 6E       		.byte	0x6e
 2427 104c 3E0D0000 		.4byte	0xd3e
 2428 1050 18       		.byte	0x18
 2429 1051 08       		.uleb128 0x8
 2430 1052 E4090000 		.4byte	.LASF241
 2431 1056 14       		.byte	0x14
 2432 1057 6E       		.byte	0x6e
 2433 1058 620D0000 		.4byte	0xd62
 2434 105c 1C       		.byte	0x1c
 2435 105d 00       		.byte	0
 2436 105e 06       		.uleb128 0x6
 2437 105f F10F0000 		.4byte	0xff1
 2438 1063 0B       		.uleb128 0xb
 2439 1064 04       		.byte	0x4
 2440 1065 5E100000 		.4byte	0x105e
 2441 1069 15       		.uleb128 0x15
 2442 106a B9000000 		.4byte	0xb9
 2443 106e 79100000 		.4byte	0x1079
 2444 1072 16       		.uleb128 0x16
 2445 1073 A2040000 		.4byte	0x4a2
 2446 1077 7F       		.byte	0x7f
 2447 1078 00       		.byte	0
 2448 1079 0B       		.uleb128 0xb
 2449 107a 04       		.byte	0x4
 2450 107b CA060000 		.4byte	0x6ca
 2451 107f 24       		.uleb128 0x24
ARM GAS  /tmp/cc4imfPg.s 			page 44


 2452 1080 7A090000 		.4byte	.LASF247
 2453 1084 01       		.byte	0x1
 2454 1085 9F       		.byte	0x9f
 2455 1086 00000000 		.4byte	.LFB184
 2456 108a 6C010000 		.4byte	.LFE184-.LFB184
 2457 108e 01       		.uleb128 0x1
 2458 108f 9C       		.byte	0x9c
 2459 1090 52110000 		.4byte	0x1152
 2460 1094 25       		.uleb128 0x25
 2461 1095 F4080000 		.4byte	.LASF242
 2462 1099 01       		.byte	0x1
 2463 109a 9F       		.byte	0x9f
 2464 109b 180F0000 		.4byte	0xf18
 2465 109f 02       		.uleb128 0x2
 2466 10a0 91       		.byte	0x91
 2467 10a1 54       		.sleb128 -44
 2468 10a2 25       		.uleb128 0x25
 2469 10a3 AA060000 		.4byte	.LASF243
 2470 10a7 01       		.byte	0x1
 2471 10a8 A0       		.byte	0xa0
 2472 10a9 000F0000 		.4byte	0xf00
 2473 10ad 02       		.uleb128 0x2
 2474 10ae 91       		.byte	0x91
 2475 10af 50       		.sleb128 -48
 2476 10b0 25       		.uleb128 0x25
 2477 10b1 7C010000 		.4byte	.LASF244
 2478 10b5 01       		.byte	0x1
 2479 10b6 A1       		.byte	0xa1
 2480 10b7 0C0F0000 		.4byte	0xf0c
 2481 10bb 02       		.uleb128 0x2
 2482 10bc 91       		.byte	0x91
 2483 10bd 4C       		.sleb128 -52
 2484 10be 26       		.uleb128 0x26
 2485 10bf F5040000 		.4byte	.LASF208
 2486 10c3 01       		.byte	0x1
 2487 10c4 A3       		.byte	0xa3
 2488 10c5 E4000000 		.4byte	0xe4
 2489 10c9 02       		.uleb128 0x2
 2490 10ca 91       		.byte	0x91
 2491 10cb 7C       		.sleb128 -4
 2492 10cc 26       		.uleb128 0x26
 2493 10cd 31020000 		.4byte	.LASF209
 2494 10d1 01       		.byte	0x1
 2495 10d2 A4       		.byte	0xa4
 2496 10d3 E4000000 		.4byte	0xe4
 2497 10d7 02       		.uleb128 0x2
 2498 10d8 91       		.byte	0x91
 2499 10d9 78       		.sleb128 -8
 2500 10da 26       		.uleb128 0x26
 2501 10db 920A0000 		.4byte	.LASF210
 2502 10df 01       		.byte	0x1
 2503 10e0 A5       		.byte	0xa5
 2504 10e1 E4000000 		.4byte	0xe4
 2505 10e5 02       		.uleb128 0x2
 2506 10e6 91       		.byte	0x91
 2507 10e7 74       		.sleb128 -12
 2508 10e8 26       		.uleb128 0x26
ARM GAS  /tmp/cc4imfPg.s 			page 45


 2509 10e9 17060000 		.4byte	.LASF211
 2510 10ed 01       		.byte	0x1
 2511 10ee A6       		.byte	0xa6
 2512 10ef E4000000 		.4byte	0xe4
 2513 10f3 02       		.uleb128 0x2
 2514 10f4 91       		.byte	0x91
 2515 10f5 70       		.sleb128 -16
 2516 10f6 26       		.uleb128 0x26
 2517 10f7 F7000000 		.4byte	.LASF245
 2518 10fb 01       		.byte	0x1
 2519 10fc A7       		.byte	0xa7
 2520 10fd E4000000 		.4byte	0xe4
 2521 1101 02       		.uleb128 0x2
 2522 1102 91       		.byte	0x91
 2523 1103 68       		.sleb128 -24
 2524 1104 27       		.uleb128 0x27
 2525 1105 62697400 		.ascii	"bit\000"
 2526 1109 01       		.byte	0x1
 2527 110a A8       		.byte	0xa8
 2528 110b E4000000 		.4byte	0xe4
 2529 110f 02       		.uleb128 0x2
 2530 1110 91       		.byte	0x91
 2531 1111 6C       		.sleb128 -20
 2532 1112 28       		.uleb128 0x28
 2533 1113 46000000 		.4byte	.LBB2
 2534 1117 F4000000 		.4byte	.LBE2-.LBB2
 2535 111b 26       		.uleb128 0x26
 2536 111c 40050000 		.4byte	.LASF246
 2537 1120 01       		.byte	0x1
 2538 1121 AB       		.byte	0xab
 2539 1122 E4000000 		.4byte	0xe4
 2540 1126 02       		.uleb128 0x2
 2541 1127 91       		.byte	0x91
 2542 1128 64       		.sleb128 -28
 2543 1129 27       		.uleb128 0x27
 2544 112a 6D3100   		.ascii	"m1\000"
 2545 112d 01       		.byte	0x1
 2546 112e AB       		.byte	0xab
 2547 112f E4000000 		.4byte	0xe4
 2548 1133 02       		.uleb128 0x2
 2549 1134 91       		.byte	0x91
 2550 1135 60       		.sleb128 -32
 2551 1136 27       		.uleb128 0x27
 2552 1137 6D3200   		.ascii	"m2\000"
 2553 113a 01       		.byte	0x1
 2554 113b AB       		.byte	0xab
 2555 113c E4000000 		.4byte	0xe4
 2556 1140 02       		.uleb128 0x2
 2557 1141 91       		.byte	0x91
 2558 1142 5C       		.sleb128 -36
 2559 1143 27       		.uleb128 0x27
 2560 1144 6D3400   		.ascii	"m4\000"
 2561 1147 01       		.byte	0x1
 2562 1148 AB       		.byte	0xab
 2563 1149 E4000000 		.4byte	0xe4
 2564 114d 02       		.uleb128 0x2
 2565 114e 91       		.byte	0x91
ARM GAS  /tmp/cc4imfPg.s 			page 46


 2566 114f 58       		.sleb128 -40
 2567 1150 00       		.byte	0
 2568 1151 00       		.byte	0
 2569 1152 29       		.uleb128 0x29
 2570 1153 15080000 		.4byte	.LASF248
 2571 1157 01       		.byte	0x1
 2572 1158 58       		.byte	0x58
 2573 1159 00000000 		.4byte	.LFB183
 2574 115d 64000000 		.4byte	.LFE183-.LFB183
 2575 1161 01       		.uleb128 0x1
 2576 1162 9C       		.byte	0x9c
 2577 1163 76110000 		.4byte	0x1176
 2578 1167 25       		.uleb128 0x25
 2579 1168 66070000 		.4byte	.LASF249
 2580 116c 01       		.byte	0x1
 2581 116d 58       		.byte	0x58
 2582 116e 76110000 		.4byte	0x1176
 2583 1172 02       		.uleb128 0x2
 2584 1173 91       		.byte	0x91
 2585 1174 74       		.sleb128 -12
 2586 1175 00       		.byte	0
 2587 1176 0B       		.uleb128 0xb
 2588 1177 04       		.byte	0x4
 2589 1178 FB0E0000 		.4byte	0xefb
 2590 117c 2A       		.uleb128 0x2a
 2591 117d 71090000 		.4byte	.LASF254
 2592 1181 01       		.byte	0x1
 2593 1182 3D       		.byte	0x3d
 2594 1183 00000000 		.4byte	.LFB182
 2595 1187 44000000 		.4byte	.LFE182-.LFB182
 2596 118b 01       		.uleb128 0x1
 2597 118c 9C       		.byte	0x9c
 2598 118d AE110000 		.4byte	0x11ae
 2599 1191 25       		.uleb128 0x25
 2600 1192 BA080000 		.4byte	.LASF250
 2601 1196 01       		.byte	0x1
 2602 1197 3D       		.byte	0x3d
 2603 1198 240F0000 		.4byte	0xf24
 2604 119c 02       		.uleb128 0x2
 2605 119d 91       		.byte	0x91
 2606 119e 7C       		.sleb128 -4
 2607 119f 25       		.uleb128 0x25
 2608 11a0 66070000 		.4byte	.LASF249
 2609 11a4 01       		.byte	0x1
 2610 11a5 3D       		.byte	0x3d
 2611 11a6 AE110000 		.4byte	0x11ae
 2612 11aa 02       		.uleb128 0x2
 2613 11ab 91       		.byte	0x91
 2614 11ac 78       		.sleb128 -8
 2615 11ad 00       		.byte	0
 2616 11ae 0B       		.uleb128 0xb
 2617 11af 04       		.byte	0x4
 2618 11b0 AC0E0000 		.4byte	0xeac
 2619 11b4 00       		.byte	0
 2620              		.section	.debug_abbrev,"",%progbits
 2621              	.Ldebug_abbrev0:
 2622 0000 01       		.uleb128 0x1
ARM GAS  /tmp/cc4imfPg.s 			page 47


 2623 0001 11       		.uleb128 0x11
 2624 0002 01       		.byte	0x1
 2625 0003 25       		.uleb128 0x25
 2626 0004 0E       		.uleb128 0xe
 2627 0005 13       		.uleb128 0x13
 2628 0006 0B       		.uleb128 0xb
 2629 0007 03       		.uleb128 0x3
 2630 0008 0E       		.uleb128 0xe
 2631 0009 1B       		.uleb128 0x1b
 2632 000a 0E       		.uleb128 0xe
 2633 000b 55       		.uleb128 0x55
 2634 000c 17       		.uleb128 0x17
 2635 000d 11       		.uleb128 0x11
 2636 000e 01       		.uleb128 0x1
 2637 000f 10       		.uleb128 0x10
 2638 0010 17       		.uleb128 0x17
 2639 0011 00       		.byte	0
 2640 0012 00       		.byte	0
 2641 0013 02       		.uleb128 0x2
 2642 0014 24       		.uleb128 0x24
 2643 0015 00       		.byte	0
 2644 0016 0B       		.uleb128 0xb
 2645 0017 0B       		.uleb128 0xb
 2646 0018 3E       		.uleb128 0x3e
 2647 0019 0B       		.uleb128 0xb
 2648 001a 03       		.uleb128 0x3
 2649 001b 08       		.uleb128 0x8
 2650 001c 00       		.byte	0
 2651 001d 00       		.byte	0
 2652 001e 03       		.uleb128 0x3
 2653 001f 16       		.uleb128 0x16
 2654 0020 00       		.byte	0
 2655 0021 03       		.uleb128 0x3
 2656 0022 0E       		.uleb128 0xe
 2657 0023 3A       		.uleb128 0x3a
 2658 0024 0B       		.uleb128 0xb
 2659 0025 3B       		.uleb128 0x3b
 2660 0026 0B       		.uleb128 0xb
 2661 0027 49       		.uleb128 0x49
 2662 0028 13       		.uleb128 0x13
 2663 0029 00       		.byte	0
 2664 002a 00       		.byte	0
 2665 002b 04       		.uleb128 0x4
 2666 002c 35       		.uleb128 0x35
 2667 002d 00       		.byte	0
 2668 002e 49       		.uleb128 0x49
 2669 002f 13       		.uleb128 0x13
 2670 0030 00       		.byte	0
 2671 0031 00       		.byte	0
 2672 0032 05       		.uleb128 0x5
 2673 0033 24       		.uleb128 0x24
 2674 0034 00       		.byte	0
 2675 0035 0B       		.uleb128 0xb
 2676 0036 0B       		.uleb128 0xb
 2677 0037 3E       		.uleb128 0x3e
 2678 0038 0B       		.uleb128 0xb
 2679 0039 03       		.uleb128 0x3
ARM GAS  /tmp/cc4imfPg.s 			page 48


 2680 003a 0E       		.uleb128 0xe
 2681 003b 00       		.byte	0
 2682 003c 00       		.byte	0
 2683 003d 06       		.uleb128 0x6
 2684 003e 26       		.uleb128 0x26
 2685 003f 00       		.byte	0
 2686 0040 49       		.uleb128 0x49
 2687 0041 13       		.uleb128 0x13
 2688 0042 00       		.byte	0
 2689 0043 00       		.byte	0
 2690 0044 07       		.uleb128 0x7
 2691 0045 13       		.uleb128 0x13
 2692 0046 01       		.byte	0x1
 2693 0047 03       		.uleb128 0x3
 2694 0048 0E       		.uleb128 0xe
 2695 0049 0B       		.uleb128 0xb
 2696 004a 0B       		.uleb128 0xb
 2697 004b 3A       		.uleb128 0x3a
 2698 004c 0B       		.uleb128 0xb
 2699 004d 3B       		.uleb128 0x3b
 2700 004e 0B       		.uleb128 0xb
 2701 004f 01       		.uleb128 0x1
 2702 0050 13       		.uleb128 0x13
 2703 0051 00       		.byte	0
 2704 0052 00       		.byte	0
 2705 0053 08       		.uleb128 0x8
 2706 0054 0D       		.uleb128 0xd
 2707 0055 00       		.byte	0
 2708 0056 03       		.uleb128 0x3
 2709 0057 0E       		.uleb128 0xe
 2710 0058 3A       		.uleb128 0x3a
 2711 0059 0B       		.uleb128 0xb
 2712 005a 3B       		.uleb128 0x3b
 2713 005b 0B       		.uleb128 0xb
 2714 005c 49       		.uleb128 0x49
 2715 005d 13       		.uleb128 0x13
 2716 005e 38       		.uleb128 0x38
 2717 005f 0B       		.uleb128 0xb
 2718 0060 00       		.byte	0
 2719 0061 00       		.byte	0
 2720 0062 09       		.uleb128 0x9
 2721 0063 0D       		.uleb128 0xd
 2722 0064 00       		.byte	0
 2723 0065 03       		.uleb128 0x3
 2724 0066 08       		.uleb128 0x8
 2725 0067 3A       		.uleb128 0x3a
 2726 0068 0B       		.uleb128 0xb
 2727 0069 3B       		.uleb128 0x3b
 2728 006a 05       		.uleb128 0x5
 2729 006b 49       		.uleb128 0x49
 2730 006c 13       		.uleb128 0x13
 2731 006d 38       		.uleb128 0x38
 2732 006e 0B       		.uleb128 0xb
 2733 006f 00       		.byte	0
 2734 0070 00       		.byte	0
 2735 0071 0A       		.uleb128 0xa
 2736 0072 0D       		.uleb128 0xd
ARM GAS  /tmp/cc4imfPg.s 			page 49


 2737 0073 00       		.byte	0
 2738 0074 03       		.uleb128 0x3
 2739 0075 0E       		.uleb128 0xe
 2740 0076 3A       		.uleb128 0x3a
 2741 0077 0B       		.uleb128 0xb
 2742 0078 3B       		.uleb128 0x3b
 2743 0079 05       		.uleb128 0x5
 2744 007a 49       		.uleb128 0x49
 2745 007b 13       		.uleb128 0x13
 2746 007c 38       		.uleb128 0x38
 2747 007d 0B       		.uleb128 0xb
 2748 007e 00       		.byte	0
 2749 007f 00       		.byte	0
 2750 0080 0B       		.uleb128 0xb
 2751 0081 0F       		.uleb128 0xf
 2752 0082 00       		.byte	0
 2753 0083 0B       		.uleb128 0xb
 2754 0084 0B       		.uleb128 0xb
 2755 0085 49       		.uleb128 0x49
 2756 0086 13       		.uleb128 0x13
 2757 0087 00       		.byte	0
 2758 0088 00       		.byte	0
 2759 0089 0C       		.uleb128 0xc
 2760 008a 13       		.uleb128 0x13
 2761 008b 01       		.byte	0x1
 2762 008c 03       		.uleb128 0x3
 2763 008d 0E       		.uleb128 0xe
 2764 008e 0B       		.uleb128 0xb
 2765 008f 0B       		.uleb128 0xb
 2766 0090 3A       		.uleb128 0x3a
 2767 0091 0B       		.uleb128 0xb
 2768 0092 3B       		.uleb128 0x3b
 2769 0093 05       		.uleb128 0x5
 2770 0094 01       		.uleb128 0x1
 2771 0095 13       		.uleb128 0x13
 2772 0096 00       		.byte	0
 2773 0097 00       		.byte	0
 2774 0098 0D       		.uleb128 0xd
 2775 0099 15       		.uleb128 0x15
 2776 009a 01       		.byte	0x1
 2777 009b 27       		.uleb128 0x27
 2778 009c 19       		.uleb128 0x19
 2779 009d 01       		.uleb128 0x1
 2780 009e 13       		.uleb128 0x13
 2781 009f 00       		.byte	0
 2782 00a0 00       		.byte	0
 2783 00a1 0E       		.uleb128 0xe
 2784 00a2 05       		.uleb128 0x5
 2785 00a3 00       		.byte	0
 2786 00a4 49       		.uleb128 0x49
 2787 00a5 13       		.uleb128 0x13
 2788 00a6 00       		.byte	0
 2789 00a7 00       		.byte	0
 2790 00a8 0F       		.uleb128 0xf
 2791 00a9 0F       		.uleb128 0xf
 2792 00aa 00       		.byte	0
 2793 00ab 0B       		.uleb128 0xb
ARM GAS  /tmp/cc4imfPg.s 			page 50


 2794 00ac 0B       		.uleb128 0xb
 2795 00ad 00       		.byte	0
 2796 00ae 00       		.byte	0
 2797 00af 10       		.uleb128 0x10
 2798 00b0 13       		.uleb128 0x13
 2799 00b1 01       		.byte	0x1
 2800 00b2 03       		.uleb128 0x3
 2801 00b3 0E       		.uleb128 0xe
 2802 00b4 0B       		.uleb128 0xb
 2803 00b5 05       		.uleb128 0x5
 2804 00b6 3A       		.uleb128 0x3a
 2805 00b7 0B       		.uleb128 0xb
 2806 00b8 3B       		.uleb128 0x3b
 2807 00b9 05       		.uleb128 0x5
 2808 00ba 01       		.uleb128 0x1
 2809 00bb 13       		.uleb128 0x13
 2810 00bc 00       		.byte	0
 2811 00bd 00       		.byte	0
 2812 00be 11       		.uleb128 0x11
 2813 00bf 0D       		.uleb128 0xd
 2814 00c0 00       		.byte	0
 2815 00c1 03       		.uleb128 0x3
 2816 00c2 0E       		.uleb128 0xe
 2817 00c3 3A       		.uleb128 0x3a
 2818 00c4 0B       		.uleb128 0xb
 2819 00c5 3B       		.uleb128 0x3b
 2820 00c6 05       		.uleb128 0x5
 2821 00c7 49       		.uleb128 0x49
 2822 00c8 13       		.uleb128 0x13
 2823 00c9 38       		.uleb128 0x38
 2824 00ca 05       		.uleb128 0x5
 2825 00cb 00       		.byte	0
 2826 00cc 00       		.byte	0
 2827 00cd 12       		.uleb128 0x12
 2828 00ce 34       		.uleb128 0x34
 2829 00cf 00       		.byte	0
 2830 00d0 03       		.uleb128 0x3
 2831 00d1 0E       		.uleb128 0xe
 2832 00d2 3A       		.uleb128 0x3a
 2833 00d3 0B       		.uleb128 0xb
 2834 00d4 3B       		.uleb128 0x3b
 2835 00d5 0B       		.uleb128 0xb
 2836 00d6 49       		.uleb128 0x49
 2837 00d7 13       		.uleb128 0x13
 2838 00d8 3F       		.uleb128 0x3f
 2839 00d9 19       		.uleb128 0x19
 2840 00da 3C       		.uleb128 0x3c
 2841 00db 19       		.uleb128 0x19
 2842 00dc 00       		.byte	0
 2843 00dd 00       		.byte	0
 2844 00de 13       		.uleb128 0x13
 2845 00df 13       		.uleb128 0x13
 2846 00e0 01       		.byte	0x1
 2847 00e1 0B       		.uleb128 0xb
 2848 00e2 0B       		.uleb128 0xb
 2849 00e3 3A       		.uleb128 0x3a
 2850 00e4 0B       		.uleb128 0xb
ARM GAS  /tmp/cc4imfPg.s 			page 51


 2851 00e5 3B       		.uleb128 0x3b
 2852 00e6 0B       		.uleb128 0xb
 2853 00e7 01       		.uleb128 0x1
 2854 00e8 13       		.uleb128 0x13
 2855 00e9 00       		.byte	0
 2856 00ea 00       		.byte	0
 2857 00eb 14       		.uleb128 0x14
 2858 00ec 0D       		.uleb128 0xd
 2859 00ed 00       		.byte	0
 2860 00ee 03       		.uleb128 0x3
 2861 00ef 08       		.uleb128 0x8
 2862 00f0 3A       		.uleb128 0x3a
 2863 00f1 0B       		.uleb128 0xb
 2864 00f2 3B       		.uleb128 0x3b
 2865 00f3 0B       		.uleb128 0xb
 2866 00f4 49       		.uleb128 0x49
 2867 00f5 13       		.uleb128 0x13
 2868 00f6 38       		.uleb128 0x38
 2869 00f7 0B       		.uleb128 0xb
 2870 00f8 00       		.byte	0
 2871 00f9 00       		.byte	0
 2872 00fa 15       		.uleb128 0x15
 2873 00fb 01       		.uleb128 0x1
 2874 00fc 01       		.byte	0x1
 2875 00fd 49       		.uleb128 0x49
 2876 00fe 13       		.uleb128 0x13
 2877 00ff 01       		.uleb128 0x1
 2878 0100 13       		.uleb128 0x13
 2879 0101 00       		.byte	0
 2880 0102 00       		.byte	0
 2881 0103 16       		.uleb128 0x16
 2882 0104 21       		.uleb128 0x21
 2883 0105 00       		.byte	0
 2884 0106 49       		.uleb128 0x49
 2885 0107 13       		.uleb128 0x13
 2886 0108 2F       		.uleb128 0x2f
 2887 0109 0B       		.uleb128 0xb
 2888 010a 00       		.byte	0
 2889 010b 00       		.byte	0
 2890 010c 17       		.uleb128 0x17
 2891 010d 13       		.uleb128 0x13
 2892 010e 01       		.byte	0x1
 2893 010f 0B       		.uleb128 0xb
 2894 0110 0B       		.uleb128 0xb
 2895 0111 3A       		.uleb128 0x3a
 2896 0112 0B       		.uleb128 0xb
 2897 0113 3B       		.uleb128 0x3b
 2898 0114 05       		.uleb128 0x5
 2899 0115 01       		.uleb128 0x1
 2900 0116 13       		.uleb128 0x13
 2901 0117 00       		.byte	0
 2902 0118 00       		.byte	0
 2903 0119 18       		.uleb128 0x18
 2904 011a 16       		.uleb128 0x16
 2905 011b 00       		.byte	0
 2906 011c 03       		.uleb128 0x3
 2907 011d 0E       		.uleb128 0xe
ARM GAS  /tmp/cc4imfPg.s 			page 52


 2908 011e 3A       		.uleb128 0x3a
 2909 011f 0B       		.uleb128 0xb
 2910 0120 3B       		.uleb128 0x3b
 2911 0121 05       		.uleb128 0x5
 2912 0122 49       		.uleb128 0x49
 2913 0123 13       		.uleb128 0x13
 2914 0124 00       		.byte	0
 2915 0125 00       		.byte	0
 2916 0126 19       		.uleb128 0x19
 2917 0127 13       		.uleb128 0x13
 2918 0128 01       		.byte	0x1
 2919 0129 0B       		.uleb128 0xb
 2920 012a 05       		.uleb128 0x5
 2921 012b 3A       		.uleb128 0x3a
 2922 012c 0B       		.uleb128 0xb
 2923 012d 3B       		.uleb128 0x3b
 2924 012e 0B       		.uleb128 0xb
 2925 012f 01       		.uleb128 0x1
 2926 0130 13       		.uleb128 0x13
 2927 0131 00       		.byte	0
 2928 0132 00       		.byte	0
 2929 0133 1A       		.uleb128 0x1a
 2930 0134 17       		.uleb128 0x17
 2931 0135 01       		.byte	0x1
 2932 0136 0B       		.uleb128 0xb
 2933 0137 0B       		.uleb128 0xb
 2934 0138 3A       		.uleb128 0x3a
 2935 0139 0B       		.uleb128 0xb
 2936 013a 3B       		.uleb128 0x3b
 2937 013b 0B       		.uleb128 0xb
 2938 013c 01       		.uleb128 0x1
 2939 013d 13       		.uleb128 0x13
 2940 013e 00       		.byte	0
 2941 013f 00       		.byte	0
 2942 0140 1B       		.uleb128 0x1b
 2943 0141 0D       		.uleb128 0xd
 2944 0142 00       		.byte	0
 2945 0143 03       		.uleb128 0x3
 2946 0144 0E       		.uleb128 0xe
 2947 0145 3A       		.uleb128 0x3a
 2948 0146 0B       		.uleb128 0xb
 2949 0147 3B       		.uleb128 0x3b
 2950 0148 05       		.uleb128 0x5
 2951 0149 49       		.uleb128 0x49
 2952 014a 13       		.uleb128 0x13
 2953 014b 00       		.byte	0
 2954 014c 00       		.byte	0
 2955 014d 1C       		.uleb128 0x1c
 2956 014e 34       		.uleb128 0x34
 2957 014f 00       		.byte	0
 2958 0150 03       		.uleb128 0x3
 2959 0151 08       		.uleb128 0x8
 2960 0152 3A       		.uleb128 0x3a
 2961 0153 0B       		.uleb128 0xb
 2962 0154 3B       		.uleb128 0x3b
 2963 0155 05       		.uleb128 0x5
 2964 0156 49       		.uleb128 0x49
ARM GAS  /tmp/cc4imfPg.s 			page 53


 2965 0157 13       		.uleb128 0x13
 2966 0158 3F       		.uleb128 0x3f
 2967 0159 19       		.uleb128 0x19
 2968 015a 3C       		.uleb128 0x3c
 2969 015b 19       		.uleb128 0x19
 2970 015c 00       		.byte	0
 2971 015d 00       		.byte	0
 2972 015e 1D       		.uleb128 0x1d
 2973 015f 15       		.uleb128 0x15
 2974 0160 01       		.byte	0x1
 2975 0161 27       		.uleb128 0x27
 2976 0162 19       		.uleb128 0x19
 2977 0163 49       		.uleb128 0x49
 2978 0164 13       		.uleb128 0x13
 2979 0165 01       		.uleb128 0x1
 2980 0166 13       		.uleb128 0x13
 2981 0167 00       		.byte	0
 2982 0168 00       		.byte	0
 2983 0169 1E       		.uleb128 0x1e
 2984 016a 34       		.uleb128 0x34
 2985 016b 00       		.byte	0
 2986 016c 03       		.uleb128 0x3
 2987 016d 0E       		.uleb128 0xe
 2988 016e 3A       		.uleb128 0x3a
 2989 016f 0B       		.uleb128 0xb
 2990 0170 3B       		.uleb128 0x3b
 2991 0171 05       		.uleb128 0x5
 2992 0172 49       		.uleb128 0x49
 2993 0173 13       		.uleb128 0x13
 2994 0174 3F       		.uleb128 0x3f
 2995 0175 19       		.uleb128 0x19
 2996 0176 3C       		.uleb128 0x3c
 2997 0177 19       		.uleb128 0x19
 2998 0178 00       		.byte	0
 2999 0179 00       		.byte	0
 3000 017a 1F       		.uleb128 0x1f
 3001 017b 0D       		.uleb128 0xd
 3002 017c 00       		.byte	0
 3003 017d 03       		.uleb128 0x3
 3004 017e 08       		.uleb128 0x8
 3005 017f 3A       		.uleb128 0x3a
 3006 0180 0B       		.uleb128 0xb
 3007 0181 3B       		.uleb128 0x3b
 3008 0182 0B       		.uleb128 0xb
 3009 0183 49       		.uleb128 0x49
 3010 0184 13       		.uleb128 0x13
 3011 0185 00       		.byte	0
 3012 0186 00       		.byte	0
 3013 0187 20       		.uleb128 0x20
 3014 0188 04       		.uleb128 0x4
 3015 0189 01       		.byte	0x1
 3016 018a 0B       		.uleb128 0xb
 3017 018b 0B       		.uleb128 0xb
 3018 018c 49       		.uleb128 0x49
 3019 018d 13       		.uleb128 0x13
 3020 018e 3A       		.uleb128 0x3a
 3021 018f 0B       		.uleb128 0xb
ARM GAS  /tmp/cc4imfPg.s 			page 54


 3022 0190 3B       		.uleb128 0x3b
 3023 0191 0B       		.uleb128 0xb
 3024 0192 01       		.uleb128 0x1
 3025 0193 13       		.uleb128 0x13
 3026 0194 00       		.byte	0
 3027 0195 00       		.byte	0
 3028 0196 21       		.uleb128 0x21
 3029 0197 28       		.uleb128 0x28
 3030 0198 00       		.byte	0
 3031 0199 03       		.uleb128 0x3
 3032 019a 0E       		.uleb128 0xe
 3033 019b 1C       		.uleb128 0x1c
 3034 019c 0B       		.uleb128 0xb
 3035 019d 00       		.byte	0
 3036 019e 00       		.byte	0
 3037 019f 22       		.uleb128 0x22
 3038 01a0 13       		.uleb128 0x13
 3039 01a1 01       		.byte	0x1
 3040 01a2 03       		.uleb128 0x3
 3041 01a3 0E       		.uleb128 0xe
 3042 01a4 0B       		.uleb128 0xb
 3043 01a5 05       		.uleb128 0x5
 3044 01a6 3A       		.uleb128 0x3a
 3045 01a7 0B       		.uleb128 0xb
 3046 01a8 3B       		.uleb128 0x3b
 3047 01a9 0B       		.uleb128 0xb
 3048 01aa 01       		.uleb128 0x1
 3049 01ab 13       		.uleb128 0x13
 3050 01ac 00       		.byte	0
 3051 01ad 00       		.byte	0
 3052 01ae 23       		.uleb128 0x23
 3053 01af 0D       		.uleb128 0xd
 3054 01b0 00       		.byte	0
 3055 01b1 03       		.uleb128 0x3
 3056 01b2 0E       		.uleb128 0xe
 3057 01b3 3A       		.uleb128 0x3a
 3058 01b4 0B       		.uleb128 0xb
 3059 01b5 3B       		.uleb128 0x3b
 3060 01b6 0B       		.uleb128 0xb
 3061 01b7 49       		.uleb128 0x49
 3062 01b8 13       		.uleb128 0x13
 3063 01b9 38       		.uleb128 0x38
 3064 01ba 05       		.uleb128 0x5
 3065 01bb 00       		.byte	0
 3066 01bc 00       		.byte	0
 3067 01bd 24       		.uleb128 0x24
 3068 01be 2E       		.uleb128 0x2e
 3069 01bf 01       		.byte	0x1
 3070 01c0 3F       		.uleb128 0x3f
 3071 01c1 19       		.uleb128 0x19
 3072 01c2 03       		.uleb128 0x3
 3073 01c3 0E       		.uleb128 0xe
 3074 01c4 3A       		.uleb128 0x3a
 3075 01c5 0B       		.uleb128 0xb
 3076 01c6 3B       		.uleb128 0x3b
 3077 01c7 0B       		.uleb128 0xb
 3078 01c8 27       		.uleb128 0x27
ARM GAS  /tmp/cc4imfPg.s 			page 55


 3079 01c9 19       		.uleb128 0x19
 3080 01ca 11       		.uleb128 0x11
 3081 01cb 01       		.uleb128 0x1
 3082 01cc 12       		.uleb128 0x12
 3083 01cd 06       		.uleb128 0x6
 3084 01ce 40       		.uleb128 0x40
 3085 01cf 18       		.uleb128 0x18
 3086 01d0 9742     		.uleb128 0x2117
 3087 01d2 19       		.uleb128 0x19
 3088 01d3 01       		.uleb128 0x1
 3089 01d4 13       		.uleb128 0x13
 3090 01d5 00       		.byte	0
 3091 01d6 00       		.byte	0
 3092 01d7 25       		.uleb128 0x25
 3093 01d8 05       		.uleb128 0x5
 3094 01d9 00       		.byte	0
 3095 01da 03       		.uleb128 0x3
 3096 01db 0E       		.uleb128 0xe
 3097 01dc 3A       		.uleb128 0x3a
 3098 01dd 0B       		.uleb128 0xb
 3099 01de 3B       		.uleb128 0x3b
 3100 01df 0B       		.uleb128 0xb
 3101 01e0 49       		.uleb128 0x49
 3102 01e1 13       		.uleb128 0x13
 3103 01e2 02       		.uleb128 0x2
 3104 01e3 18       		.uleb128 0x18
 3105 01e4 00       		.byte	0
 3106 01e5 00       		.byte	0
 3107 01e6 26       		.uleb128 0x26
 3108 01e7 34       		.uleb128 0x34
 3109 01e8 00       		.byte	0
 3110 01e9 03       		.uleb128 0x3
 3111 01ea 0E       		.uleb128 0xe
 3112 01eb 3A       		.uleb128 0x3a
 3113 01ec 0B       		.uleb128 0xb
 3114 01ed 3B       		.uleb128 0x3b
 3115 01ee 0B       		.uleb128 0xb
 3116 01ef 49       		.uleb128 0x49
 3117 01f0 13       		.uleb128 0x13
 3118 01f1 02       		.uleb128 0x2
 3119 01f2 18       		.uleb128 0x18
 3120 01f3 00       		.byte	0
 3121 01f4 00       		.byte	0
 3122 01f5 27       		.uleb128 0x27
 3123 01f6 34       		.uleb128 0x34
 3124 01f7 00       		.byte	0
 3125 01f8 03       		.uleb128 0x3
 3126 01f9 08       		.uleb128 0x8
 3127 01fa 3A       		.uleb128 0x3a
 3128 01fb 0B       		.uleb128 0xb
 3129 01fc 3B       		.uleb128 0x3b
 3130 01fd 0B       		.uleb128 0xb
 3131 01fe 49       		.uleb128 0x49
 3132 01ff 13       		.uleb128 0x13
 3133 0200 02       		.uleb128 0x2
 3134 0201 18       		.uleb128 0x18
 3135 0202 00       		.byte	0
ARM GAS  /tmp/cc4imfPg.s 			page 56


 3136 0203 00       		.byte	0
 3137 0204 28       		.uleb128 0x28
 3138 0205 0B       		.uleb128 0xb
 3139 0206 01       		.byte	0x1
 3140 0207 11       		.uleb128 0x11
 3141 0208 01       		.uleb128 0x1
 3142 0209 12       		.uleb128 0x12
 3143 020a 06       		.uleb128 0x6
 3144 020b 00       		.byte	0
 3145 020c 00       		.byte	0
 3146 020d 29       		.uleb128 0x29
 3147 020e 2E       		.uleb128 0x2e
 3148 020f 01       		.byte	0x1
 3149 0210 3F       		.uleb128 0x3f
 3150 0211 19       		.uleb128 0x19
 3151 0212 03       		.uleb128 0x3
 3152 0213 0E       		.uleb128 0xe
 3153 0214 3A       		.uleb128 0x3a
 3154 0215 0B       		.uleb128 0xb
 3155 0216 3B       		.uleb128 0x3b
 3156 0217 0B       		.uleb128 0xb
 3157 0218 27       		.uleb128 0x27
 3158 0219 19       		.uleb128 0x19
 3159 021a 11       		.uleb128 0x11
 3160 021b 01       		.uleb128 0x1
 3161 021c 12       		.uleb128 0x12
 3162 021d 06       		.uleb128 0x6
 3163 021e 40       		.uleb128 0x40
 3164 021f 18       		.uleb128 0x18
 3165 0220 9642     		.uleb128 0x2116
 3166 0222 19       		.uleb128 0x19
 3167 0223 01       		.uleb128 0x1
 3168 0224 13       		.uleb128 0x13
 3169 0225 00       		.byte	0
 3170 0226 00       		.byte	0
 3171 0227 2A       		.uleb128 0x2a
 3172 0228 2E       		.uleb128 0x2e
 3173 0229 01       		.byte	0x1
 3174 022a 03       		.uleb128 0x3
 3175 022b 0E       		.uleb128 0xe
 3176 022c 3A       		.uleb128 0x3a
 3177 022d 0B       		.uleb128 0xb
 3178 022e 3B       		.uleb128 0x3b
 3179 022f 0B       		.uleb128 0xb
 3180 0230 27       		.uleb128 0x27
 3181 0231 19       		.uleb128 0x19
 3182 0232 11       		.uleb128 0x11
 3183 0233 01       		.uleb128 0x1
 3184 0234 12       		.uleb128 0x12
 3185 0235 06       		.uleb128 0x6
 3186 0236 40       		.uleb128 0x40
 3187 0237 18       		.uleb128 0x18
 3188 0238 9742     		.uleb128 0x2117
 3189 023a 19       		.uleb128 0x19
 3190 023b 01       		.uleb128 0x1
 3191 023c 13       		.uleb128 0x13
 3192 023d 00       		.byte	0
ARM GAS  /tmp/cc4imfPg.s 			page 57


 3193 023e 00       		.byte	0
 3194 023f 00       		.byte	0
 3195              		.section	.debug_aranges,"",%progbits
 3196 0000 2C000000 		.4byte	0x2c
 3197 0004 0200     		.2byte	0x2
 3198 0006 00000000 		.4byte	.Ldebug_info0
 3199 000a 04       		.byte	0x4
 3200 000b 00       		.byte	0
 3201 000c 0000     		.2byte	0
 3202 000e 0000     		.2byte	0
 3203 0010 00000000 		.4byte	.LFB182
 3204 0014 44000000 		.4byte	.LFE182-.LFB182
 3205 0018 00000000 		.4byte	.LFB183
 3206 001c 64000000 		.4byte	.LFE183-.LFB183
 3207 0020 00000000 		.4byte	.LFB184
 3208 0024 6C010000 		.4byte	.LFE184-.LFB184
 3209 0028 00000000 		.4byte	0
 3210 002c 00000000 		.4byte	0
 3211              		.section	.debug_ranges,"",%progbits
 3212              	.Ldebug_ranges0:
 3213 0000 00000000 		.4byte	.LFB182
 3214 0004 44000000 		.4byte	.LFE182
 3215 0008 00000000 		.4byte	.LFB183
 3216 000c 64000000 		.4byte	.LFE183
 3217 0010 00000000 		.4byte	.LFB184
 3218 0014 6C010000 		.4byte	.LFE184
 3219 0018 00000000 		.4byte	0
 3220 001c 00000000 		.4byte	0
 3221              		.section	.debug_line,"",%progbits
 3222              	.Ldebug_line0:
 3223 0000 AA030000 		.section	.debug_str,"MS",%progbits,1
 3223      02003A03 
 3223      00000201 
 3223      FB0E0D00 
 3223      01010101 
 3224              	.LASF52:
 3225 0000 63685F74 		.ascii	"ch_threads_list\000"
 3225      68726561 
 3225      64735F6C 
 3225      69737400 
 3226              	.LASF53:
 3227 0010 74687265 		.ascii	"threads_queue_t\000"
 3227      6164735F 
 3227      71756575 
 3227      655F7400 
 3228              	.LASF161:
 3229 0020 6576656E 		.ascii	"event_listener_t\000"
 3229      745F6C69 
 3229      7374656E 
 3229      65725F74 
 3229      00
 3230              	.LASF42:
 3231 0031 705F7761 		.ascii	"p_waiting\000"
 3231      6974696E 
 3231      6700
 3232              	.LASF228:
 3233 003b 53657269 		.ascii	"SerialDriver\000"
ARM GAS  /tmp/cc4imfPg.s 			page 58


 3233      616C4472 
 3233      69766572 
 3233      00
 3234              	.LASF100:
 3235 0048 41504231 		.ascii	"APB1ENR\000"
 3235      454E5200 
 3236              	.LASF139:
 3237 0050 53797374 		.ascii	"SystemCoreClock\000"
 3237      656D436F 
 3237      7265436C 
 3237      6F636B00 
 3238              	.LASF129:
 3239 0060 77746D74 		.ascii	"wtmtxp\000"
 3239      787000
 3240              	.LASF217:
 3241 0067 50434461 		.ascii	"PCData\000"
 3241      746100
 3242              	.LASF203:
 3243 006e 42535252 		.ascii	"BSRR\000"
 3243      00
 3244              	.LASF138:
 3245 0073 63686172 		.ascii	"char\000"
 3245      00
 3246              	.LASF111:
 3247 0078 72656761 		.ascii	"regarm_t\000"
 3247      726D5F74 
 3247      00
 3248              	.LASF33:
 3249 0081 705F7072 		.ascii	"p_prio\000"
 3249      696F00
 3250              	.LASF96:
 3251 0088 41504232 		.ascii	"APB2RSTR\000"
 3251      52535452 
 3251      00
 3252              	.LASF168:
 3253 0091 6576656E 		.ascii	"event_source\000"
 3253      745F736F 
 3253      75726365 
 3253      00
 3254              	.LASF29:
 3255 009e 73797374 		.ascii	"systime_t\000"
 3255      696D655F 
 3255      7400
 3256              	.LASF150:
 3257 00a8 63665F6F 		.ascii	"cf_off_older\000"
 3257      66665F6F 
 3257      6C646572 
 3257      00
 3258              	.LASF136:
 3259 00b5 6D5F6F77 		.ascii	"m_owner\000"
 3259      6E657200 
 3260              	.LASF132:
 3261 00bd 735F7175 		.ascii	"s_queue\000"
 3261      65756500 
 3262              	.LASF172:
 3263 00c5 696F5F71 		.ascii	"io_queue_t\000"
 3263      75657565 
ARM GAS  /tmp/cc4imfPg.s 			page 59


 3263      5F7400
 3264              	.LASF43:
 3265 00d0 705F6D73 		.ascii	"p_msgqueue\000"
 3265      67717565 
 3265      756500
 3266              	.LASF0:
 3267 00db 756E7369 		.ascii	"unsigned int\000"
 3267      676E6564 
 3267      20696E74 
 3267      00
 3268              	.LASF50:
 3269 00e8 74687265 		.ascii	"threads_list_t\000"
 3269      6164735F 
 3269      6C697374 
 3269      5F7400
 3270              	.LASF245:
 3271 00f7 616C7472 		.ascii	"altr\000"
 3271      00
 3272              	.LASF101:
 3273 00fc 42444352 		.ascii	"BDCR\000"
 3273      00
 3274              	.LASF10:
 3275 0101 5F5F696E 		.ascii	"__int32_t\000"
 3275      7433325F 
 3275      7400
 3276              	.LASF118:
 3277 010b 73655F73 		.ascii	"se_state\000"
 3277      74617465 
 3277      00
 3278              	.LASF151:
 3279 0114 63665F6F 		.ascii	"cf_off_name\000"
 3279      66665F6E 
 3279      616D6500 
 3280              	.LASF182:
 3281 0120 716E6F74 		.ascii	"qnotify_t\000"
 3281      6966795F 
 3281      7400
 3282              	.LASF89:
 3283 012a 434D4152 		.ascii	"CMAR\000"
 3283      00
 3284              	.LASF126:
 3285 012f 77746F62 		.ascii	"wtobjp\000"
 3285      6A7000
 3286              	.LASF83:
 3287 0136 76746C69 		.ascii	"vtlist\000"
 3287      737400
 3288              	.LASF181:
 3289 013d 715F6C69 		.ascii	"q_link\000"
 3289      6E6B00
 3290              	.LASF90:
 3291 0144 444D415F 		.ascii	"DMA_Channel_TypeDef\000"
 3291      4368616E 
 3291      6E656C5F 
 3291      54797065 
 3291      44656600 
 3292              	.LASF56:
 3293 0158 63685F72 		.ascii	"ch_ready_list\000"
ARM GAS  /tmp/cc4imfPg.s 			page 60


 3293      65616479 
 3293      5F6C6973 
 3293      7400
 3294              	.LASF85:
 3295 0166 69646C65 		.ascii	"idle_thread_wa\000"
 3295      5F746872 
 3295      6561645F 
 3295      776100
 3296              	.LASF130:
 3297 0175 65776D61 		.ascii	"ewmask\000"
 3297      736B00
 3298              	.LASF244:
 3299 017c 6D6F6465 		.ascii	"mode\000"
 3299      00
 3300              	.LASF154:
 3301 0181 63665F6F 		.ascii	"cf_off_flags\000"
 3301      66665F66 
 3301      6C616773 
 3301      00
 3302              	.LASF54:
 3303 018e 63685F74 		.ascii	"ch_threads_queue\000"
 3303      68726561 
 3303      64735F71 
 3303      75657565 
 3303      00
 3304              	.LASF144:
 3305 019f 63685F70 		.ascii	"ch_ptrsize\000"
 3305      74727369 
 3305      7A6500
 3306              	.LASF63:
 3307 01aa 76746675 		.ascii	"vtfunc_t\000"
 3307      6E635F74 
 3307      00
 3308              	.LASF240:
 3309 01b3 77726974 		.ascii	"writet\000"
 3309      657400
 3310              	.LASF87:
 3311 01ba 434E4454 		.ascii	"CNDTR\000"
 3311      5200
 3312              	.LASF133:
 3313 01c0 735F636E 		.ascii	"s_cnt\000"
 3313      7400
 3314              	.LASF75:
 3315 01c6 63685F73 		.ascii	"ch_system_debug\000"
 3315      79737465 
 3315      6D5F6465 
 3315      62756700 
 3316              	.LASF106:
 3317 01d6 47545052 		.ascii	"GTPR\000"
 3317      00
 3318              	.LASF253:
 3319 01db 2F686F6D 		.ascii	"/home/felix/esho/Ultrasound/\000"
 3319      652F6665 
 3319      6C69782F 
 3319      6573686F 
 3319      2F556C74 
 3320              	.LASF19:
ARM GAS  /tmp/cc4imfPg.s 			page 61


 3321 01f8 75696E74 		.ascii	"uint32_t\000"
 3321      33325F74 
 3321      00
 3322              	.LASF174:
 3323 0201 715F7761 		.ascii	"q_waiting\000"
 3323      6974696E 
 3323      6700
 3324              	.LASF145:
 3325 020b 63685F74 		.ascii	"ch_timesize\000"
 3325      696D6573 
 3325      697A6500 
 3326              	.LASF26:
 3327 0217 6576656E 		.ascii	"eventmask_t\000"
 3327      746D6173 
 3327      6B5F7400 
 3328              	.LASF58:
 3329 0223 725F7072 		.ascii	"r_prio\000"
 3329      696F00
 3330              	.LASF70:
 3331 022a 76745F70 		.ascii	"vt_par\000"
 3331      617200
 3332              	.LASF209:
 3333 0231 6F747970 		.ascii	"otyper\000"
 3333      657200
 3334              	.LASF188:
 3335 0238 73686966 		.ascii	"shift\000"
 3335      7400
 3336              	.LASF229:
 3337 023e 6576656E 		.ascii	"event\000"
 3337      7400
 3338              	.LASF131:
 3339 0244 63685F73 		.ascii	"ch_semaphore\000"
 3339      656D6170 
 3339      686F7265 
 3339      00
 3340              	.LASF187:
 3341 0251 6373656C 		.ascii	"cselr\000"
 3341      7200
 3342              	.LASF24:
 3343 0257 74707269 		.ascii	"tprio_t\000"
 3343      6F5F7400 
 3344              	.LASF65:
 3345 025f 63685F76 		.ascii	"ch_virtual_timer\000"
 3345      69727475 
 3345      616C5F74 
 3345      696D6572 
 3345      00
 3346              	.LASF15:
 3347 0270 6C6F6E67 		.ascii	"long long unsigned int\000"
 3347      206C6F6E 
 3347      6720756E 
 3347      7369676E 
 3347      65642069 
 3348              	.LASF117:
 3349 0287 73655F77 		.ascii	"se_wtobjp\000"
 3349      746F626A 
 3349      7000
ARM GAS  /tmp/cc4imfPg.s 			page 62


 3350              	.LASF190:
 3351 0291 76656374 		.ascii	"vector\000"
 3351      6F7200
 3352              	.LASF170:
 3353 0298 6576656E 		.ascii	"event_source_t\000"
 3353      745F736F 
 3353      75726365 
 3353      5F7400
 3354              	.LASF8:
 3355 02a7 5F5F7569 		.ascii	"__uint16_t\000"
 3355      6E743136 
 3355      5F7400
 3356              	.LASF28:
 3357 02b2 636E745F 		.ascii	"cnt_t\000"
 3357      7400
 3358              	.LASF199:
 3359 02b8 4D4F4445 		.ascii	"MODER\000"
 3359      5200
 3360              	.LASF77:
 3361 02be 6973725F 		.ascii	"isr_cnt\000"
 3361      636E7400 
 3362              	.LASF214:
 3363 02c6 73746D33 		.ascii	"stm32_gpio_setup_t\000"
 3363      325F6770 
 3363      696F5F73 
 3363      65747570 
 3363      5F7400
 3364              	.LASF207:
 3365 02d9 73746D33 		.ascii	"stm32_gpio_t\000"
 3365      325F6770 
 3365      696F5F74 
 3365      00
 3366              	.LASF205:
 3367 02e6 4146524C 		.ascii	"AFRL\000"
 3367      00
 3368              	.LASF35:
 3369 02eb 705F6E65 		.ascii	"p_newer\000"
 3369      77657200 
 3370              	.LASF198:
 3371 02f3 636C6561 		.ascii	"clear\000"
 3371      7200
 3372              	.LASF72:
 3373 02f9 63685F76 		.ascii	"ch_virtual_timers_list\000"
 3373      69727475 
 3373      616C5F74 
 3373      696D6572 
 3373      735F6C69 
 3374              	.LASF88:
 3375 0310 43504152 		.ascii	"CPAR\000"
 3375      00
 3376              	.LASF115:
 3377 0315 73655F74 		.ascii	"se_time\000"
 3377      696D6500 
 3378              	.LASF30:
 3379 031d 74687265 		.ascii	"thread_t\000"
 3379      61645F74 
 3379      00
ARM GAS  /tmp/cc4imfPg.s 			page 63


 3380              	.LASF167:
 3381 0326 656C5F77 		.ascii	"el_wflags\000"
 3381      666C6167 
 3381      7300
 3382              	.LASF218:
 3383 0330 50464461 		.ascii	"PFData\000"
 3383      746100
 3384              	.LASF238:
 3385 0337 70757474 		.ascii	"putt\000"
 3385      00
 3386              	.LASF4:
 3387 033c 73697A65 		.ascii	"size_t\000"
 3387      5F7400
 3388              	.LASF124:
 3389 0343 7264796D 		.ascii	"rdymsg\000"
 3389      736700
 3390              	.LASF146:
 3391 034a 63685F74 		.ascii	"ch_threadsize\000"
 3391      68726561 
 3391      6473697A 
 3391      6500
 3392              	.LASF156:
 3393 0358 63665F6F 		.ascii	"cf_off_preempt\000"
 3393      66665F70 
 3393      7265656D 
 3393      707400
 3394              	.LASF227:
 3395 0367 73647374 		.ascii	"sdstate_t\000"
 3395      6174655F 
 3395      7400
 3396              	.LASF105:
 3397 0371 5243435F 		.ascii	"RCC_TypeDef\000"
 3397      54797065 
 3397      44656600 
 3398              	.LASF225:
 3399 037d 53445F53 		.ascii	"SD_STOP\000"
 3399      544F5000 
 3400              	.LASF251:
 3401 0385 474E5520 		.ascii	"GNU C11 6.3.1 20170215 (release) [ARM/embedded-6-br"
 3401      43313120 
 3401      362E332E 
 3401      31203230 
 3401      31373032 
 3402 03b8 616E6368 		.ascii	"anch revision 245512] -mcpu=cortex-m0 -mno-thumb-in"
 3402      20726576 
 3402      6973696F 
 3402      6E203234 
 3402      35353132 
 3403 03eb 74657277 		.ascii	"terwork -mthumb -ggdb -O0 -fomit-frame-pointer -fal"
 3403      6F726B20 
 3403      2D6D7468 
 3403      756D6220 
 3403      2D676764 
 3404 041e 69676E2D 		.ascii	"ign-functions=16 -ffunction-sections -fdata-section"
 3404      66756E63 
 3404      74696F6E 
 3404      733D3136 
ARM GAS  /tmp/cc4imfPg.s 			page 64


 3404      202D6666 
 3405 0451 7300     		.ascii	"s\000"
 3406              	.LASF216:
 3407 0453 50424461 		.ascii	"PBData\000"
 3407      746100
 3408              	.LASF134:
 3409 045a 63685F6D 		.ascii	"ch_mutex\000"
 3409      75746578 
 3409      00
 3410              	.LASF14:
 3411 0463 5F5F7569 		.ascii	"__uint64_t\000"
 3411      6E743634 
 3411      5F7400
 3412              	.LASF223:
 3413 046e 70616C5F 		.ascii	"pal_default_config\000"
 3413      64656661 
 3413      756C745F 
 3413      636F6E66 
 3413      696700
 3414              	.LASF206:
 3415 0481 41465248 		.ascii	"AFRH\000"
 3415      00
 3416              	.LASF231:
 3417 0486 69717565 		.ascii	"iqueue\000"
 3417      756500
 3418              	.LASF110:
 3419 048d 55534152 		.ascii	"USART_TypeDef\000"
 3419      545F5479 
 3419      70654465 
 3419      6600
 3420              	.LASF222:
 3421 049b 696F706F 		.ascii	"ioportid_t\000"
 3421      72746964 
 3421      5F7400
 3422              	.LASF180:
 3423 04a6 715F6E6F 		.ascii	"q_notify\000"
 3423      74696679 
 3423      00
 3424              	.LASF234:
 3425 04af 636C6F63 		.ascii	"clock\000"
 3425      6B00
 3426              	.LASF202:
 3427 04b5 50555044 		.ascii	"PUPDR\000"
 3427      5200
 3428              	.LASF148:
 3429 04bb 63665F6F 		.ascii	"cf_off_ctx\000"
 3429      66665F63 
 3429      747800
 3430              	.LASF192:
 3431 04c6 73746D33 		.ascii	"stm32_dmaisr_t\000"
 3431      325F646D 
 3431      61697372 
 3431      5F7400
 3432              	.LASF152:
 3433 04d5 63665F6F 		.ascii	"cf_off_stklimit\000"
 3433      66665F73 
 3433      746B6C69 
ARM GAS  /tmp/cc4imfPg.s 			page 65


 3433      6D697400 
 3434              	.LASF37:
 3435 04e5 705F6E61 		.ascii	"p_name\000"
 3435      6D6500
 3436              	.LASF97:
 3437 04ec 41504231 		.ascii	"APB1RSTR\000"
 3437      52535452 
 3437      00
 3438              	.LASF208:
 3439 04f5 6D6F6465 		.ascii	"moder\000"
 3439      7200
 3440              	.LASF68:
 3441 04fb 76745F64 		.ascii	"vt_delta\000"
 3441      656C7461 
 3441      00
 3442              	.LASF197:
 3443 0504 5F73746D 		.ascii	"_stm32_dma_isr_redir\000"
 3443      33325F64 
 3443      6D615F69 
 3443      73725F72 
 3443      65646972 
 3444              	.LASF49:
 3445 0519 74687265 		.ascii	"thread_reference_t\000"
 3445      61645F72 
 3445      65666572 
 3445      656E6365 
 3445      5F7400
 3446              	.LASF73:
 3447 052c 76745F6C 		.ascii	"vt_lasttime\000"
 3447      61737474 
 3447      696D6500 
 3448              	.LASF178:
 3449 0538 715F7772 		.ascii	"q_wrptr\000"
 3449      70747200 
 3450              	.LASF246:
 3451 0540 616C7472 		.ascii	"altrmask\000"
 3451      6D61736B 
 3451      00
 3452              	.LASF22:
 3453 0549 74737461 		.ascii	"tstate_t\000"
 3453      74655F74 
 3453      00
 3454              	.LASF116:
 3455 0552 73655F74 		.ascii	"se_tp\000"
 3455      7000
 3456              	.LASF98:
 3457 0558 41484245 		.ascii	"AHBENR\000"
 3457      4E5200
 3458              	.LASF36:
 3459 055f 705F6F6C 		.ascii	"p_older\000"
 3459      64657200 
 3460              	.LASF39:
 3461 0567 705F7374 		.ascii	"p_state\000"
 3461      61746500 
 3462              	.LASF38:
 3463 056f 705F7374 		.ascii	"p_stklimit\000"
 3463      6B6C696D 
ARM GAS  /tmp/cc4imfPg.s 			page 66


 3463      697400
 3464              	.LASF16:
 3465 057a 75696E74 		.ascii	"uint8_t\000"
 3465      385F7400 
 3466              	.LASF122:
 3467 0582 74625F62 		.ascii	"tb_buffer\000"
 3467      75666665 
 3467      7200
 3468              	.LASF107:
 3469 058c 52544F52 		.ascii	"RTOR\000"
 3469      00
 3470              	.LASF186:
 3471 0591 636D6173 		.ascii	"cmask\000"
 3471      6B00
 3472              	.LASF183:
 3473 0597 696E7075 		.ascii	"input_queue_t\000"
 3473      745F7175 
 3473      6575655F 
 3473      7400
 3474              	.LASF48:
 3475 05a5 705F6D70 		.ascii	"p_mpool\000"
 3475      6F6F6C00 
 3476              	.LASF46:
 3477 05ad 705F6D74 		.ascii	"p_mtxlist\000"
 3477      786C6973 
 3477      7400
 3478              	.LASF51:
 3479 05b7 63685F74 		.ascii	"ch_thread\000"
 3479      68726561 
 3479      6400
 3480              	.LASF120:
 3481 05c1 74625F73 		.ascii	"tb_size\000"
 3481      697A6500 
 3482              	.LASF233:
 3483 05c9 75736172 		.ascii	"usart\000"
 3483      7400
 3484              	.LASF74:
 3485 05cf 73797374 		.ascii	"system_debug_t\000"
 3485      656D5F64 
 3485      65627567 
 3485      5F7400
 3486              	.LASF1:
 3487 05de 6C6F6E67 		.ascii	"long long int\000"
 3487      206C6F6E 
 3487      6720696E 
 3487      7400
 3488              	.LASF236:
 3489 05ec 77726974 		.ascii	"write\000"
 3489      6500
 3490              	.LASF162:
 3491 05f2 6576656E 		.ascii	"event_listener\000"
 3491      745F6C69 
 3491      7374656E 
 3491      657200
 3492              	.LASF57:
 3493 0601 725F7175 		.ascii	"r_queue\000"
 3493      65756500 
ARM GAS  /tmp/cc4imfPg.s 			page 67


 3494              	.LASF60:
 3495 0609 725F6E65 		.ascii	"r_newer\000"
 3495      77657200 
 3496              	.LASF25:
 3497 0611 6D73675F 		.ascii	"msg_t\000"
 3497      7400
 3498              	.LASF211:
 3499 0617 70757064 		.ascii	"pupdr\000"
 3499      7200
 3500              	.LASF113:
 3501 061d 636F6E74 		.ascii	"context\000"
 3501      65787400 
 3502              	.LASF40:
 3503 0625 705F666C 		.ascii	"p_flags\000"
 3503      61677300 
 3504              	.LASF64:
 3505 062d 76697274 		.ascii	"virtual_timer_t\000"
 3505      75616C5F 
 3505      74696D65 
 3505      725F7400 
 3506              	.LASF220:
 3507 063d 696F706F 		.ascii	"ioportmask_t\000"
 3507      72746D61 
 3507      736B5F74 
 3507      00
 3508              	.LASF94:
 3509 064a 444D415F 		.ascii	"DMA_TypeDef\000"
 3509      54797065 
 3509      44656600 
 3510              	.LASF221:
 3511 0656 696F6D6F 		.ascii	"iomode_t\000"
 3511      64655F74 
 3511      00
 3512              	.LASF155:
 3513 065f 63665F6F 		.ascii	"cf_off_refs\000"
 3513      66665F72 
 3513      65667300 
 3514              	.LASF141:
 3515 066b 63685F7A 		.ascii	"ch_zero\000"
 3515      65726F00 
 3516              	.LASF184:
 3517 0673 6F757470 		.ascii	"output_queue_t\000"
 3517      75745F71 
 3517      75657565 
 3517      5F7400
 3518              	.LASF194:
 3519 0682 646D615F 		.ascii	"dma_param\000"
 3519      70617261 
 3519      6D00
 3520              	.LASF121:
 3521 068c 74625F70 		.ascii	"tb_ptr\000"
 3521      747200
 3522              	.LASF213:
 3523 0693 61667268 		.ascii	"afrh\000"
 3523      00
 3524              	.LASF204:
 3525 0698 4C434B52 		.ascii	"LCKR\000"
ARM GAS  /tmp/cc4imfPg.s 			page 68


 3525      00
 3526              	.LASF212:
 3527 069d 6166726C 		.ascii	"afrl\000"
 3527      00
 3528              	.LASF61:
 3529 06a2 725F6F6C 		.ascii	"r_older\000"
 3529      64657200 
 3530              	.LASF243:
 3531 06aa 6D61736B 		.ascii	"mask\000"
 3531      00
 3532              	.LASF103:
 3533 06af 43464752 		.ascii	"CFGR2\000"
 3533      3200
 3534              	.LASF104:
 3535 06b5 43464752 		.ascii	"CFGR3\000"
 3535      3300
 3536              	.LASF99:
 3537 06bb 41504232 		.ascii	"APB2ENR\000"
 3537      454E5200 
 3538              	.LASF27:
 3539 06c3 6576656E 		.ascii	"eventflags_t\000"
 3539      74666C61 
 3539      67735F74 
 3539      00
 3540              	.LASF76:
 3541 06d0 70616E69 		.ascii	"panic_msg\000"
 3541      635F6D73 
 3541      6700
 3542              	.LASF171:
 3543 06da 5F426F6F 		.ascii	"_Bool\000"
 3543      6C00
 3544              	.LASF163:
 3545 06e0 656C5F6E 		.ascii	"el_next\000"
 3545      65787400 
 3546              	.LASF44:
 3547 06e8 705F6D73 		.ascii	"p_msg\000"
 3547      6700
 3548              	.LASF239:
 3549 06ee 67657474 		.ascii	"gett\000"
 3549      00
 3550              	.LASF21:
 3551 06f3 746D6F64 		.ascii	"tmode_t\000"
 3551      655F7400 
 3552              	.LASF142:
 3553 06fb 63685F73 		.ascii	"ch_size\000"
 3553      697A6500 
 3554              	.LASF84:
 3555 0703 6D61696E 		.ascii	"mainthread\000"
 3555      74687265 
 3555      616400
 3556              	.LASF201:
 3557 070e 4F535045 		.ascii	"OSPEEDR\000"
 3557      45445200 
 3558              	.LASF2:
 3559 0716 6C6F6E67 		.ascii	"long double\000"
 3559      20646F75 
 3559      626C6500 
ARM GAS  /tmp/cc4imfPg.s 			page 69


 3560              	.LASF232:
 3561 0722 6F717565 		.ascii	"oqueue\000"
 3561      756500
 3562              	.LASF17:
 3563 0729 75696E74 		.ascii	"uint16_t\000"
 3563      31365F74 
 3563      00
 3564              	.LASF158:
 3565 0732 63686465 		.ascii	"chdebug_t\000"
 3565      6275675F 
 3565      7400
 3566              	.LASF185:
 3567 073c 6368616E 		.ascii	"channel\000"
 3567      6E656C00 
 3568              	.LASF226:
 3569 0744 53445F52 		.ascii	"SD_READY\000"
 3569      45414459 
 3569      00
 3570              	.LASF78:
 3571 074d 6C6F636B 		.ascii	"lock_cnt\000"
 3571      5F636E74 
 3571      00
 3572              	.LASF235:
 3573 0756 53657269 		.ascii	"SerialDriverVMT\000"
 3573      616C4472 
 3573      69766572 
 3573      564D5400 
 3574              	.LASF249:
 3575 0766 636F6E66 		.ascii	"config\000"
 3575      696700
 3576              	.LASF47:
 3577 076d 705F7265 		.ascii	"p_realprio\000"
 3577      616C7072 
 3577      696F00
 3578              	.LASF108:
 3579 0778 52455345 		.ascii	"RESERVED1\000"
 3579      52564544 
 3579      3100
 3580              	.LASF109:
 3581 0782 52455345 		.ascii	"RESERVED2\000"
 3581      52564544 
 3581      3200
 3582              	.LASF7:
 3583 078c 73686F72 		.ascii	"short int\000"
 3583      7420696E 
 3583      7400
 3584              	.LASF143:
 3585 0796 63685F76 		.ascii	"ch_version\000"
 3585      65727369 
 3585      6F6E00
 3586              	.LASF62:
 3587 07a1 725F6375 		.ascii	"r_current\000"
 3587      7272656E 
 3587      7400
 3588              	.LASF45:
 3589 07ab 705F6570 		.ascii	"p_epending\000"
 3589      656E6469 
ARM GAS  /tmp/cc4imfPg.s 			page 70


 3589      6E6700
 3590              	.LASF135:
 3591 07b6 6D5F7175 		.ascii	"m_queue\000"
 3591      65756500 
 3592              	.LASF11:
 3593 07be 6C6F6E67 		.ascii	"long int\000"
 3593      20696E74 
 3593      00
 3594              	.LASF114:
 3595 07c7 706F7274 		.ascii	"port_intctx\000"
 3595      5F696E74 
 3595      63747800 
 3596              	.LASF193:
 3597 07d3 646D615F 		.ascii	"dma_func\000"
 3597      66756E63 
 3597      00
 3598              	.LASF215:
 3599 07dc 50414461 		.ascii	"PAData\000"
 3599      746100
 3600              	.LASF81:
 3601 07e3 63685F73 		.ascii	"ch_system\000"
 3601      79737465 
 3601      6D00
 3602              	.LASF200:
 3603 07ed 4F545950 		.ascii	"OTYPER\000"
 3603      455200
 3604              	.LASF31:
 3605 07f4 705F6E65 		.ascii	"p_next\000"
 3605      787400
 3606              	.LASF20:
 3607 07fb 75696E74 		.ascii	"uint64_t\000"
 3607      36345F74 
 3607      00
 3608              	.LASF34:
 3609 0804 705F6374 		.ascii	"p_ctx\000"
 3609      7800
 3610              	.LASF95:
 3611 080a 43464752 		.ascii	"CFGR\000"
 3611      00
 3612              	.LASF82:
 3613 080f 726C6973 		.ascii	"rlist\000"
 3613      7400
 3614              	.LASF248:
 3615 0815 5F70616C 		.ascii	"_pal_lld_init\000"
 3615      5F6C6C64 
 3615      5F696E69 
 3615      7400
 3616              	.LASF157:
 3617 0823 63665F6F 		.ascii	"cf_off_time\000"
 3617      66665F74 
 3617      696D6500 
 3618              	.LASF147:
 3619 082f 63665F6F 		.ascii	"cf_off_prio\000"
 3619      66665F70 
 3619      72696F00 
 3620              	.LASF5:
 3621 083b 5F5F7569 		.ascii	"__uint8_t\000"
ARM GAS  /tmp/cc4imfPg.s 			page 71


 3621      6E74385F 
 3621      7400
 3622              	.LASF237:
 3623 0845 72656164 		.ascii	"read\000"
 3623      00
 3624              	.LASF165:
 3625 084a 656C5F65 		.ascii	"el_events\000"
 3625      76656E74 
 3625      7300
 3626              	.LASF164:
 3627 0854 656C5F6C 		.ascii	"el_listener\000"
 3627      69737465 
 3627      6E657200 
 3628              	.LASF224:
 3629 0860 53445F55 		.ascii	"SD_UNINIT\000"
 3629      4E494E49 
 3629      5400
 3630              	.LASF195:
 3631 086a 646D615F 		.ascii	"dma_isr_redir_t\000"
 3631      6973725F 
 3631      72656469 
 3631      725F7400 
 3632              	.LASF140:
 3633 087a 63685F69 		.ascii	"ch_identifier\000"
 3633      64656E74 
 3633      69666965 
 3633      7200
 3634              	.LASF175:
 3635 0888 715F636F 		.ascii	"q_counter\000"
 3635      756E7465 
 3635      7200
 3636              	.LASF219:
 3637 0892 50414C43 		.ascii	"PALConfig\000"
 3637      6F6E6669 
 3637      6700
 3638              	.LASF177:
 3639 089c 715F746F 		.ascii	"q_top\000"
 3639      7000
 3640              	.LASF32:
 3641 08a2 705F7072 		.ascii	"p_prev\000"
 3641      657600
 3642              	.LASF86:
 3643 08a9 73697A65 		.ascii	"sizetype\000"
 3643      74797065 
 3643      00
 3644              	.LASF23:
 3645 08b2 74726566 		.ascii	"trefs_t\000"
 3645      735F7400 
 3646              	.LASF250:
 3647 08ba 6770696F 		.ascii	"gpiop\000"
 3647      7000
 3648              	.LASF13:
 3649 08c0 6C6F6E67 		.ascii	"long unsigned int\000"
 3649      20756E73 
 3649      69676E65 
 3649      6420696E 
 3649      7400
ARM GAS  /tmp/cc4imfPg.s 			page 72


 3650              	.LASF153:
 3651 08d2 63665F6F 		.ascii	"cf_off_state\000"
 3651      66665F73 
 3651      74617465 
 3651      00
 3652              	.LASF55:
 3653 08df 72656164 		.ascii	"ready_list_t\000"
 3653      795F6C69 
 3653      73745F74 
 3653      00
 3654              	.LASF18:
 3655 08ec 696E7433 		.ascii	"int32_t\000"
 3655      325F7400 
 3656              	.LASF242:
 3657 08f4 706F7274 		.ascii	"port\000"
 3657      00
 3658              	.LASF79:
 3659 08f9 74726163 		.ascii	"trace_buffer\000"
 3659      655F6275 
 3659      66666572 
 3659      00
 3660              	.LASF119:
 3661 0906 63685F73 		.ascii	"ch_swc_event_t\000"
 3661      77635F65 
 3661      76656E74 
 3661      5F7400
 3662              	.LASF160:
 3663 0915 6D757465 		.ascii	"mutex_t\000"
 3663      785F7400 
 3664              	.LASF6:
 3665 091d 756E7369 		.ascii	"unsigned char\000"
 3665      676E6564 
 3665      20636861 
 3665      7200
 3666              	.LASF12:
 3667 092b 5F5F7569 		.ascii	"__uint32_t\000"
 3667      6E743332 
 3667      5F7400
 3668              	.LASF71:
 3669 0936 76697274 		.ascii	"virtual_timers_list_t\000"
 3669      75616C5F 
 3669      74696D65 
 3669      72735F6C 
 3669      6973745F 
 3670              	.LASF41:
 3671 094c 705F7265 		.ascii	"p_refs\000"
 3671      667300
 3672              	.LASF102:
 3673 0953 41484252 		.ascii	"AHBRSTR\000"
 3673      53545200 
 3674              	.LASF169:
 3675 095b 65735F6E 		.ascii	"es_next\000"
 3675      65787400 
 3676              	.LASF230:
 3677 0963 73746174 		.ascii	"state\000"
 3677      6500
 3678              	.LASF66:
ARM GAS  /tmp/cc4imfPg.s 			page 73


 3679 0969 76745F6E 		.ascii	"vt_next\000"
 3679      65787400 
 3680              	.LASF254:
 3681 0971 696E6974 		.ascii	"initgpio\000"
 3681      6770696F 
 3681      00
 3682              	.LASF247:
 3683 097a 5F70616C 		.ascii	"_pal_lld_setgroupmode\000"
 3683      5F6C6C64 
 3683      5F736574 
 3683      67726F75 
 3683      706D6F64 
 3684              	.LASF80:
 3685 0990 63685F73 		.ascii	"ch_system_t\000"
 3685      79737465 
 3685      6D5F7400 
 3686              	.LASF128:
 3687 099c 77747365 		.ascii	"wtsemp\000"
 3687      6D7000
 3688              	.LASF127:
 3689 09a3 77747472 		.ascii	"wttrp\000"
 3689      7000
 3690              	.LASF123:
 3691 09a9 63685F74 		.ascii	"ch_trace_buffer_t\000"
 3691      72616365 
 3691      5F627566 
 3691      6665725F 
 3691      7400
 3692              	.LASF137:
 3693 09bb 6D5F6E65 		.ascii	"m_next\000"
 3693      787400
 3694              	.LASF3:
 3695 09c2 7369676E 		.ascii	"signed char\000"
 3695      65642063 
 3695      68617200 
 3696              	.LASF149:
 3697 09ce 63665F6F 		.ascii	"cf_off_newer\000"
 3697      66665F6E 
 3697      65776572 
 3697      00
 3698              	.LASF173:
 3699 09db 696F5F71 		.ascii	"io_queue\000"
 3699      75657565 
 3699      00
 3700              	.LASF241:
 3701 09e4 72656164 		.ascii	"readt\000"
 3701      7400
 3702              	.LASF9:
 3703 09ea 73686F72 		.ascii	"short unsigned int\000"
 3703      7420756E 
 3703      7369676E 
 3703      65642069 
 3703      6E7400
 3704              	.LASF59:
 3705 09fd 725F6374 		.ascii	"r_ctx\000"
 3705      7800
 3706              	.LASF112:
ARM GAS  /tmp/cc4imfPg.s 			page 74


 3707 0a03 73746B61 		.ascii	"stkalign_t\000"
 3707      6C69676E 
 3707      5F7400
 3708              	.LASF191:
 3709 0a0e 73746D33 		.ascii	"stm32_dma_stream_t\000"
 3709      325F646D 
 3709      615F7374 
 3709      7265616D 
 3709      5F7400
 3710              	.LASF91:
 3711 0a21 49464352 		.ascii	"IFCR\000"
 3711      00
 3712              	.LASF93:
 3713 0a26 4353454C 		.ascii	"CSELR\000"
 3713      5200
 3714              	.LASF159:
 3715 0a2c 63685F64 		.ascii	"ch_debug\000"
 3715      65627567 
 3715      00
 3716              	.LASF69:
 3717 0a35 76745F66 		.ascii	"vt_func\000"
 3717      756E6300 
 3718              	.LASF67:
 3719 0a3d 76745F70 		.ascii	"vt_prev\000"
 3719      72657600 
 3720              	.LASF92:
 3721 0a45 52455345 		.ascii	"RESERVED0\000"
 3721      52564544 
 3721      3000
 3722              	.LASF252:
 3723 0a4f 43686962 		.ascii	"ChibiOS/os/hal/ports/STM32/LLD/GPIOv2/pal_lld.c\000"
 3723      694F532F 
 3723      6F732F68 
 3723      616C2F70 
 3723      6F727473 
 3724              	.LASF196:
 3725 0a7f 5F73746D 		.ascii	"_stm32_dma_streams\000"
 3725      33325F64 
 3725      6D615F73 
 3725      74726561 
 3725      6D7300
 3726              	.LASF210:
 3727 0a92 6F737065 		.ascii	"ospeedr\000"
 3727      65647200 
 3728              	.LASF179:
 3729 0a9a 715F7264 		.ascii	"q_rdptr\000"
 3729      70747200 
 3730              	.LASF166:
 3731 0aa2 656C5F66 		.ascii	"el_flags\000"
 3731      6C616773 
 3731      00
 3732              	.LASF125:
 3733 0aab 65786974 		.ascii	"exitcode\000"
 3733      636F6465 
 3733      00
 3734              	.LASF189:
 3735 0ab4 73656C66 		.ascii	"selfindex\000"
ARM GAS  /tmp/cc4imfPg.s 			page 75


 3735      696E6465 
 3735      7800
 3736              	.LASF176:
 3737 0abe 715F6275 		.ascii	"q_buffer\000"
 3737      66666572 
 3737      00
 3738              		.ident	"GCC: (GNU Tools for ARM Embedded Processors 6-2017-q1-update) 6.3.1 20170215 (release) [AR
ARM GAS  /tmp/cc4imfPg.s 			page 76


DEFINED SYMBOLS
                            *ABS*:0000000000000000 pal_lld.c
     /tmp/cc4imfPg.s:16     .text.initgpio:0000000000000000 $t
     /tmp/cc4imfPg.s:23     .text.initgpio:0000000000000000 initgpio
     /tmp/cc4imfPg.s:79     .text._pal_lld_init:0000000000000000 $t
     /tmp/cc4imfPg.s:87     .text._pal_lld_init:0000000000000000 _pal_lld_init
     /tmp/cc4imfPg.s:143    .text._pal_lld_init:0000000000000054 $d
     /tmp/cc4imfPg.s:151    .text._pal_lld_setgroupmode:0000000000000000 $t
     /tmp/cc4imfPg.s:159    .text._pal_lld_setgroupmode:0000000000000000 _pal_lld_setgroupmode
                     .debug_frame:0000000000000010 $d

NO UNDEFINED SYMBOLS
