ARM GAS  /tmp/ccjtumSl.s 			page 1


   1              		.cpu cortex-m0
   2              		.eabi_attribute 20, 1
   3              		.eabi_attribute 21, 1
   4              		.eabi_attribute 23, 3
   5              		.eabi_attribute 24, 1
   6              		.eabi_attribute 25, 1
   7              		.eabi_attribute 26, 1
   8              		.eabi_attribute 30, 6
   9              		.eabi_attribute 34, 0
  10              		.eabi_attribute 18, 4
  11              		.file	"serial_lld.c"
  12              		.text
  13              	.Ltext0:
  14              		.cfi_sections	.debug_frame
  15              		.section	.text.port_lock,"ax",%progbits
  16              		.align	1
  17              		.p2align 4,,15
  18              		.syntax unified
  19              		.code	16
  20              		.thumb_func
  21              		.fpu softvfp
  22              		.type	port_lock, %function
  23              	port_lock:
  24              	.LFB38:
  25              		.file 1 "ChibiOS/os/rt/ports/ARMCMx/chcore_v6m.h"
  26              		.loc 1 330 0
  27              		.cfi_startproc
  28              		@ args = 0, pretend = 0, frame = 0
  29              		@ frame_needed = 0, uses_anonymous_args = 0
  30              		@ link register save eliminated.
  31              	.LBB6:
  32              	.LBB7:
  33              		.file 2 "ChibiOS/os/ext/CMSIS/include/core_cmFunc.h"
  34              		.loc 2 344 0
  35              		.syntax divided
  36              	@ 344 "ChibiOS/os/ext/CMSIS/include/core_cmFunc.h" 1
  37 0000 72B6     		cpsid i
  38              	@ 0 "" 2
  39              		.thumb
  40              		.syntax unified
  41              	.LBE7:
  42              	.LBE6:
  43              		.loc 1 333 0
  44 0002 C046     		nop
  45              		@ sp needed
  46 0004 7047     		bx	lr
  47              		.cfi_endproc
  48              	.LFE38:
  49              		.size	port_lock, .-port_lock
  50 0006 C046     		.section	.text.port_unlock,"ax",%progbits
  51              		.align	1
  52              		.p2align 4,,15
  53              		.syntax unified
  54              		.code	16
  55              		.thumb_func
  56              		.fpu softvfp
  57              		.type	port_unlock, %function
ARM GAS  /tmp/ccjtumSl.s 			page 2


  58              	port_unlock:
  59              	.LFB39:
  60              		.loc 1 339 0
  61              		.cfi_startproc
  62              		@ args = 0, pretend = 0, frame = 0
  63              		@ frame_needed = 0, uses_anonymous_args = 0
  64              		@ link register save eliminated.
  65              	.LBB8:
  66              	.LBB9:
  67              		.loc 2 333 0
  68              		.syntax divided
  69              	@ 333 "ChibiOS/os/ext/CMSIS/include/core_cmFunc.h" 1
  70 0000 62B6     		cpsie i
  71              	@ 0 "" 2
  72              		.thumb
  73              		.syntax unified
  74              	.LBE9:
  75              	.LBE8:
  76              		.loc 1 342 0
  77 0002 C046     		nop
  78              		@ sp needed
  79 0004 7047     		bx	lr
  80              		.cfi_endproc
  81              	.LFE39:
  82              		.size	port_unlock, .-port_unlock
  83 0006 C046     		.section	.text.port_lock_from_isr,"ax",%progbits
  84              		.align	1
  85              		.p2align 4,,15
  86              		.syntax unified
  87              		.code	16
  88              		.thumb_func
  89              		.fpu softvfp
  90              		.type	port_lock_from_isr, %function
  91              	port_lock_from_isr:
  92              	.LFB40:
  93              		.loc 1 349 0
  94              		.cfi_startproc
  95              		@ args = 0, pretend = 0, frame = 0
  96              		@ frame_needed = 0, uses_anonymous_args = 0
  97 0000 10B5     		push	{r4, lr}
  98              		.cfi_def_cfa_offset 8
  99              		.cfi_offset 4, -8
 100              		.cfi_offset 14, -4
 101              		.loc 1 351 0
 102 0002 FFF7FEFF 		bl	port_lock
 103              		.loc 1 352 0
 104 0006 C046     		nop
 105              		@ sp needed
 106 0008 10BD     		pop	{r4, pc}
 107              		.cfi_endproc
 108              	.LFE40:
 109              		.size	port_lock_from_isr, .-port_lock_from_isr
 110 000a C046     		.section	.text.port_unlock_from_isr,"ax",%progbits
 111              		.align	1
 112              		.p2align 4,,15
 113              		.syntax unified
 114              		.code	16
ARM GAS  /tmp/ccjtumSl.s 			page 3


 115              		.thumb_func
 116              		.fpu softvfp
 117              		.type	port_unlock_from_isr, %function
 118              	port_unlock_from_isr:
 119              	.LFB41:
 120              		.loc 1 359 0
 121              		.cfi_startproc
 122              		@ args = 0, pretend = 0, frame = 0
 123              		@ frame_needed = 0, uses_anonymous_args = 0
 124 0000 10B5     		push	{r4, lr}
 125              		.cfi_def_cfa_offset 8
 126              		.cfi_offset 4, -8
 127              		.cfi_offset 14, -4
 128              		.loc 1 361 0
 129 0002 FFF7FEFF 		bl	port_unlock
 130              		.loc 1 362 0
 131 0006 C046     		nop
 132              		@ sp needed
 133 0008 10BD     		pop	{r4, pc}
 134              		.cfi_endproc
 135              	.LFE41:
 136              		.size	port_unlock_from_isr, .-port_unlock_from_isr
 137 000a C046     		.section	.text.chSysLockFromISR,"ax",%progbits
 138              		.align	1
 139              		.p2align 4,,15
 140              		.syntax unified
 141              		.code	16
 142              		.thumb_func
 143              		.fpu softvfp
 144              		.type	chSysLockFromISR, %function
 145              	chSysLockFromISR:
 146              	.LFB79:
 147              		.file 3 "ChibiOS/os/rt/include/chsys.h"
 148              		.loc 3 386 0
 149              		.cfi_startproc
 150              		@ args = 0, pretend = 0, frame = 0
 151              		@ frame_needed = 0, uses_anonymous_args = 0
 152 0000 10B5     		push	{r4, lr}
 153              		.cfi_def_cfa_offset 8
 154              		.cfi_offset 4, -8
 155              		.cfi_offset 14, -4
 156              		.loc 3 388 0
 157 0002 FFF7FEFF 		bl	port_lock_from_isr
 158              		.loc 3 390 0
 159 0006 FFF7FEFF 		bl	_dbg_check_lock_from_isr
 160              		.loc 3 391 0
 161 000a C046     		nop
 162              		@ sp needed
 163 000c 10BD     		pop	{r4, pc}
 164              		.cfi_endproc
 165              	.LFE79:
 166              		.size	chSysLockFromISR, .-chSysLockFromISR
 167 000e C046     		.section	.text.chSysUnlockFromISR,"ax",%progbits
 168              		.align	1
 169              		.p2align 4,,15
 170              		.syntax unified
 171              		.code	16
ARM GAS  /tmp/ccjtumSl.s 			page 4


 172              		.thumb_func
 173              		.fpu softvfp
 174              		.type	chSysUnlockFromISR, %function
 175              	chSysUnlockFromISR:
 176              	.LFB80:
 177              		.loc 3 406 0
 178              		.cfi_startproc
 179              		@ args = 0, pretend = 0, frame = 0
 180              		@ frame_needed = 0, uses_anonymous_args = 0
 181 0000 10B5     		push	{r4, lr}
 182              		.cfi_def_cfa_offset 8
 183              		.cfi_offset 4, -8
 184              		.cfi_offset 14, -4
 185              		.loc 3 408 0
 186 0002 FFF7FEFF 		bl	_dbg_check_unlock_from_isr
 187              		.loc 3 410 0
 188 0006 FFF7FEFF 		bl	port_unlock_from_isr
 189              		.loc 3 411 0
 190 000a C046     		nop
 191              		@ sp needed
 192 000c 10BD     		pop	{r4, pc}
 193              		.cfi_endproc
 194              	.LFE80:
 195              		.size	chSysUnlockFromISR, .-chSysUnlockFromISR
 196 000e C046     		.section	.text.chOQIsEmptyI,"ax",%progbits
 197              		.align	1
 198              		.p2align 4,,15
 199              		.syntax unified
 200              		.code	16
 201              		.thumb_func
 202              		.fpu softvfp
 203              		.type	chOQIsEmptyI, %function
 204              	chOQIsEmptyI:
 205              	.LFB149:
 206              		.file 4 "ChibiOS/os/rt/include/chqueues.h"
 207              		.loc 4 388 0
 208              		.cfi_startproc
 209              		@ args = 0, pretend = 0, frame = 8
 210              		@ frame_needed = 0, uses_anonymous_args = 0
 211 0000 00B5     		push	{lr}
 212              		.cfi_def_cfa_offset 4
 213              		.cfi_offset 14, -4
 214 0002 83B0     		sub	sp, sp, #12
 215              		.cfi_def_cfa_offset 16
 216 0004 0190     		str	r0, [sp, #4]
 217              		.loc 4 390 0
 218 0006 FFF7FEFF 		bl	chDbgCheckClassI
 219              		.loc 4 393 0
 220 000a 019B     		ldr	r3, [sp, #4]
 221 000c 5A69     		ldr	r2, [r3, #20]
 222 000e 019B     		ldr	r3, [sp, #4]
 223 0010 9B69     		ldr	r3, [r3, #24]
 224 0012 9A42     		cmp	r2, r3
 225 0014 05D1     		bne	.L8
 226              		.loc 4 393 0 is_stmt 0 discriminator 1
 227 0016 019B     		ldr	r3, [sp, #4]
 228 0018 9B68     		ldr	r3, [r3, #8]
ARM GAS  /tmp/ccjtumSl.s 			page 5


 229 001a 002B     		cmp	r3, #0
 230 001c 01D0     		beq	.L8
 231              		.loc 4 393 0 discriminator 3
 232 001e 0123     		movs	r3, #1
 233 0020 00E0     		b	.L9
 234              	.L8:
 235              		.loc 4 393 0 discriminator 4
 236 0022 0023     		movs	r3, #0
 237              	.L9:
 238              		.loc 4 393 0 discriminator 6
 239 0024 1A1C     		adds	r2, r3, #0
 240 0026 0123     		movs	r3, #1
 241 0028 1340     		ands	r3, r2
 242 002a DBB2     		uxtb	r3, r3
 243              		.loc 4 395 0 is_stmt 1 discriminator 6
 244 002c 1800     		movs	r0, r3
 245 002e 03B0     		add	sp, sp, #12
 246              		@ sp needed
 247 0030 00BD     		pop	{pc}
 248              		.cfi_endproc
 249              	.LFE149:
 250              		.size	chOQIsEmptyI, .-chOQIsEmptyI
 251 0032 C046     		.section	.text.osalSysLockFromISR,"ax",%progbits
 252              		.align	1
 253              		.p2align 4,,15
 254              		.syntax unified
 255              		.code	16
 256              		.thumb_func
 257              		.fpu softvfp
 258              		.type	osalSysLockFromISR, %function
 259              	osalSysLockFromISR:
 260              	.LFB158:
 261              		.file 5 "ChibiOS/os/hal/osal/rt/osal.h"
 262              		.loc 5 513 0
 263              		.cfi_startproc
 264              		@ args = 0, pretend = 0, frame = 0
 265              		@ frame_needed = 0, uses_anonymous_args = 0
 266 0000 10B5     		push	{r4, lr}
 267              		.cfi_def_cfa_offset 8
 268              		.cfi_offset 4, -8
 269              		.cfi_offset 14, -4
 270              		.loc 5 515 0
 271 0002 FFF7FEFF 		bl	chSysLockFromISR
 272              		.loc 5 516 0
 273 0006 C046     		nop
 274              		@ sp needed
 275 0008 10BD     		pop	{r4, pc}
 276              		.cfi_endproc
 277              	.LFE158:
 278              		.size	osalSysLockFromISR, .-osalSysLockFromISR
 279 000a C046     		.section	.text.osalSysUnlockFromISR,"ax",%progbits
 280              		.align	1
 281              		.p2align 4,,15
 282              		.syntax unified
 283              		.code	16
 284              		.thumb_func
 285              		.fpu softvfp
ARM GAS  /tmp/ccjtumSl.s 			page 6


 286              		.type	osalSysUnlockFromISR, %function
 287              	osalSysUnlockFromISR:
 288              	.LFB159:
 289              		.loc 5 524 0
 290              		.cfi_startproc
 291              		@ args = 0, pretend = 0, frame = 0
 292              		@ frame_needed = 0, uses_anonymous_args = 0
 293 0000 10B5     		push	{r4, lr}
 294              		.cfi_def_cfa_offset 8
 295              		.cfi_offset 4, -8
 296              		.cfi_offset 14, -4
 297              		.loc 5 526 0
 298 0002 FFF7FEFF 		bl	chSysUnlockFromISR
 299              		.loc 5 527 0
 300 0006 C046     		nop
 301              		@ sp needed
 302 0008 10BD     		pop	{r4, pc}
 303              		.cfi_endproc
 304              	.LFE159:
 305              		.size	osalSysUnlockFromISR, .-osalSysUnlockFromISR
 306 000a C046     		.section	.text.osalEventBroadcastFlagsI,"ax",%progbits
 307              		.align	1
 308              		.p2align 4,,15
 309              		.syntax unified
 310              		.code	16
 311              		.thumb_func
 312              		.fpu softvfp
 313              		.type	osalEventBroadcastFlagsI, %function
 314              	osalEventBroadcastFlagsI:
 315              	.LFB177:
 316              		.loc 5 842 0
 317              		.cfi_startproc
 318              		@ args = 0, pretend = 0, frame = 8
 319              		@ frame_needed = 0, uses_anonymous_args = 0
 320 0000 00B5     		push	{lr}
 321              		.cfi_def_cfa_offset 4
 322              		.cfi_offset 14, -4
 323 0002 83B0     		sub	sp, sp, #12
 324              		.cfi_def_cfa_offset 16
 325 0004 0190     		str	r0, [sp, #4]
 326 0006 0091     		str	r1, [sp]
 327              		.loc 5 844 0
 328 0008 009A     		ldr	r2, [sp]
 329 000a 019B     		ldr	r3, [sp, #4]
 330 000c 1100     		movs	r1, r2
 331 000e 1800     		movs	r0, r3
 332 0010 FFF7FEFF 		bl	chEvtBroadcastFlagsI
 333              		.loc 5 845 0
 334 0014 C046     		nop
 335 0016 03B0     		add	sp, sp, #12
 336              		@ sp needed
 337 0018 00BD     		pop	{pc}
 338              		.cfi_endproc
 339              	.LFE177:
 340              		.size	osalEventBroadcastFlagsI, .-osalEventBroadcastFlagsI
 341              		.comm	SD5,348,4
 342 001a C046     		.section	.rodata.default_config,"a",%progbits
ARM GAS  /tmp/ccjtumSl.s 			page 7


 343              		.align	2
 344              		.type	default_config, %object
 345              		.size	default_config, 16
 346              	default_config:
 347 0000 80250000 		.word	9600
 348 0004 00000000 		.word	0
 349 0008 00400000 		.word	16384
 350 000c 00000000 		.word	0
 351              		.global	__aeabi_uidiv
 352              		.section	.text.usart_init,"ax",%progbits
 353              		.align	1
 354              		.p2align 4,,15
 355              		.syntax unified
 356              		.code	16
 357              		.thumb_func
 358              		.fpu softvfp
 359              		.type	usart_init, %function
 360              	usart_init:
 361              	.LFB182:
 362              		.file 6 "ChibiOS/os/hal/ports/STM32/LLD/USARTv2/serial_lld.c"
 363              		.loc 6 139 0
 364              		.cfi_startproc
 365              		@ args = 0, pretend = 0, frame = 16
 366              		@ frame_needed = 0, uses_anonymous_args = 0
 367 0000 00B5     		push	{lr}
 368              		.cfi_def_cfa_offset 4
 369              		.cfi_offset 14, -4
 370 0002 85B0     		sub	sp, sp, #20
 371              		.cfi_def_cfa_offset 24
 372 0004 0190     		str	r0, [sp, #4]
 373 0006 0091     		str	r1, [sp]
 374              		.loc 6 140 0
 375 0008 019A     		ldr	r2, [sp, #4]
 376 000a AA23     		movs	r3, #170
 377 000c 5B00     		lsls	r3, r3, #1
 378 000e D358     		ldr	r3, [r2, r3]
 379 0010 0393     		str	r3, [sp, #12]
 380              		.loc 6 150 0
 381 0012 019A     		ldr	r2, [sp, #4]
 382 0014 AC23     		movs	r3, #172
 383 0016 5B00     		lsls	r3, r3, #1
 384 0018 D258     		ldr	r2, [r2, r3]
 385 001a 009B     		ldr	r3, [sp]
 386 001c 1B68     		ldr	r3, [r3]
 387 001e 1900     		movs	r1, r3
 388 0020 1000     		movs	r0, r2
 389 0022 FFF7FEFF 		bl	__aeabi_uidiv
 390              	.LVL0:
 391 0026 0300     		movs	r3, r0
 392 0028 1A00     		movs	r2, r3
 393 002a 039B     		ldr	r3, [sp, #12]
 394 002c DA60     		str	r2, [r3, #12]
 395              		.loc 6 153 0
 396 002e 009B     		ldr	r3, [sp]
 397 0030 9A68     		ldr	r2, [r3, #8]
 398 0032 039B     		ldr	r3, [sp, #12]
 399 0034 5A60     		str	r2, [r3, #4]
ARM GAS  /tmp/ccjtumSl.s 			page 8


 400              		.loc 6 154 0
 401 0036 009B     		ldr	r3, [sp]
 402 0038 DB68     		ldr	r3, [r3, #12]
 403 003a 0122     		movs	r2, #1
 404 003c 1A43     		orrs	r2, r3
 405 003e 039B     		ldr	r3, [sp, #12]
 406 0040 9A60     		str	r2, [r3, #8]
 407              		.loc 6 155 0
 408 0042 009B     		ldr	r3, [sp]
 409 0044 5B68     		ldr	r3, [r3, #4]
 410              		.loc 6 156 0
 411 0046 2E22     		movs	r2, #46
 412 0048 FF32     		adds	r2, r2, #255
 413 004a 1A43     		orrs	r2, r3
 414              		.loc 6 155 0
 415 004c 039B     		ldr	r3, [sp, #12]
 416 004e 1A60     		str	r2, [r3]
 417              		.loc 6 158 0
 418 0050 039B     		ldr	r3, [sp, #12]
 419 0052 0122     		movs	r2, #1
 420 0054 5242     		rsbs	r2, r2, #0
 421 0056 1A62     		str	r2, [r3, #32]
 422              		.loc 6 159 0
 423 0058 C046     		nop
 424 005a 05B0     		add	sp, sp, #20
 425              		@ sp needed
 426 005c 00BD     		pop	{pc}
 427              		.cfi_endproc
 428              	.LFE182:
 429              		.size	usart_init, .-usart_init
 430 005e C046     		.section	.text.usart_deinit,"ax",%progbits
 431              		.align	1
 432              		.p2align 4,,15
 433              		.syntax unified
 434              		.code	16
 435              		.thumb_func
 436              		.fpu softvfp
 437              		.type	usart_deinit, %function
 438              	usart_deinit:
 439              	.LFB183:
 440              		.loc 6 167 0
 441              		.cfi_startproc
 442              		@ args = 0, pretend = 0, frame = 8
 443              		@ frame_needed = 0, uses_anonymous_args = 0
 444              		@ link register save eliminated.
 445 0000 82B0     		sub	sp, sp, #8
 446              		.cfi_def_cfa_offset 8
 447 0002 0190     		str	r0, [sp, #4]
 448              		.loc 6 169 0
 449 0004 019B     		ldr	r3, [sp, #4]
 450 0006 0022     		movs	r2, #0
 451 0008 1A60     		str	r2, [r3]
 452              		.loc 6 170 0
 453 000a 019B     		ldr	r3, [sp, #4]
 454 000c 0022     		movs	r2, #0
 455 000e 5A60     		str	r2, [r3, #4]
 456              		.loc 6 171 0
ARM GAS  /tmp/ccjtumSl.s 			page 9


 457 0010 019B     		ldr	r3, [sp, #4]
 458 0012 0022     		movs	r2, #0
 459 0014 9A60     		str	r2, [r3, #8]
 460              		.loc 6 172 0
 461 0016 C046     		nop
 462 0018 02B0     		add	sp, sp, #8
 463              		@ sp needed
 464 001a 7047     		bx	lr
 465              		.cfi_endproc
 466              	.LFE183:
 467              		.size	usart_deinit, .-usart_deinit
 468              		.section	.text.set_error,"ax",%progbits
 469              		.align	1
 470              		.p2align 4,,15
 471              		.syntax unified
 472              		.code	16
 473              		.thumb_func
 474              		.fpu softvfp
 475              		.type	set_error, %function
 476              	set_error:
 477              	.LFB184:
 478              		.loc 6 180 0
 479              		.cfi_startproc
 480              		@ args = 0, pretend = 0, frame = 16
 481              		@ frame_needed = 0, uses_anonymous_args = 0
 482 0000 00B5     		push	{lr}
 483              		.cfi_def_cfa_offset 4
 484              		.cfi_offset 14, -4
 485 0002 85B0     		sub	sp, sp, #20
 486              		.cfi_def_cfa_offset 24
 487 0004 0190     		str	r0, [sp, #4]
 488 0006 0091     		str	r1, [sp]
 489              		.loc 6 181 0
 490 0008 0023     		movs	r3, #0
 491 000a 0393     		str	r3, [sp, #12]
 492              		.loc 6 183 0
 493 000c 009B     		ldr	r3, [sp]
 494 000e 0822     		movs	r2, #8
 495 0010 1340     		ands	r3, r2
 496 0012 03D0     		beq	.L17
 497              		.loc 6 184 0
 498 0014 039B     		ldr	r3, [sp, #12]
 499 0016 8022     		movs	r2, #128
 500 0018 1343     		orrs	r3, r2
 501 001a 0393     		str	r3, [sp, #12]
 502              	.L17:
 503              		.loc 6 185 0
 504 001c 009B     		ldr	r3, [sp]
 505 001e 0122     		movs	r2, #1
 506 0020 1340     		ands	r3, r2
 507 0022 03D0     		beq	.L18
 508              		.loc 6 186 0
 509 0024 039B     		ldr	r3, [sp, #12]
 510 0026 2022     		movs	r2, #32
 511 0028 1343     		orrs	r3, r2
 512 002a 0393     		str	r3, [sp, #12]
 513              	.L18:
ARM GAS  /tmp/ccjtumSl.s 			page 10


 514              		.loc 6 187 0
 515 002c 009B     		ldr	r3, [sp]
 516 002e 0222     		movs	r2, #2
 517 0030 1340     		ands	r3, r2
 518 0032 03D0     		beq	.L19
 519              		.loc 6 188 0
 520 0034 039B     		ldr	r3, [sp, #12]
 521 0036 4022     		movs	r2, #64
 522 0038 1343     		orrs	r3, r2
 523 003a 0393     		str	r3, [sp, #12]
 524              	.L19:
 525              		.loc 6 189 0
 526 003c 009B     		ldr	r3, [sp]
 527 003e 0422     		movs	r2, #4
 528 0040 1340     		ands	r3, r2
 529 0042 04D0     		beq	.L20
 530              		.loc 6 190 0
 531 0044 039B     		ldr	r3, [sp, #12]
 532 0046 8022     		movs	r2, #128
 533 0048 5200     		lsls	r2, r2, #1
 534 004a 1343     		orrs	r3, r2
 535 004c 0393     		str	r3, [sp, #12]
 536              	.L20:
 537              		.loc 6 191 0
 538 004e FFF7FEFF 		bl	osalSysLockFromISR
 539              		.loc 6 192 0
 540 0052 019B     		ldr	r3, [sp, #4]
 541 0054 0433     		adds	r3, r3, #4
 542 0056 039A     		ldr	r2, [sp, #12]
 543 0058 1100     		movs	r1, r2
 544 005a 1800     		movs	r0, r3
 545 005c FFF7FEFF 		bl	osalEventBroadcastFlagsI
 546              		.loc 6 193 0
 547 0060 FFF7FEFF 		bl	osalSysUnlockFromISR
 548              		.loc 6 194 0
 549 0064 C046     		nop
 550 0066 05B0     		add	sp, sp, #20
 551              		@ sp needed
 552 0068 00BD     		pop	{pc}
 553              		.cfi_endproc
 554              	.LFE184:
 555              		.size	set_error, .-set_error
 556 006a C046     		.section	.text.serve_interrupt,"ax",%progbits
 557              		.align	1
 558              		.p2align 4,,15
 559              		.syntax unified
 560              		.code	16
 561              		.thumb_func
 562              		.fpu softvfp
 563              		.type	serve_interrupt, %function
 564              	serve_interrupt:
 565              	.LFB185:
 566              		.loc 6 201 0
 567              		.cfi_startproc
 568              		@ args = 0, pretend = 0, frame = 24
 569              		@ frame_needed = 0, uses_anonymous_args = 0
 570 0000 00B5     		push	{lr}
ARM GAS  /tmp/ccjtumSl.s 			page 11


 571              		.cfi_def_cfa_offset 4
 572              		.cfi_offset 14, -4
 573 0002 87B0     		sub	sp, sp, #28
 574              		.cfi_def_cfa_offset 32
 575 0004 0190     		str	r0, [sp, #4]
 576              		.loc 6 202 0
 577 0006 019A     		ldr	r2, [sp, #4]
 578 0008 AA23     		movs	r3, #170
 579 000a 5B00     		lsls	r3, r3, #1
 580 000c D358     		ldr	r3, [r2, r3]
 581 000e 0593     		str	r3, [sp, #20]
 582              		.loc 6 203 0
 583 0010 059B     		ldr	r3, [sp, #20]
 584 0012 1B68     		ldr	r3, [r3]
 585 0014 0493     		str	r3, [sp, #16]
 586              		.loc 6 207 0
 587 0016 059B     		ldr	r3, [sp, #20]
 588 0018 DB69     		ldr	r3, [r3, #28]
 589 001a 0393     		str	r3, [sp, #12]
 590              		.loc 6 208 0
 591 001c 059B     		ldr	r3, [sp, #20]
 592 001e 039A     		ldr	r2, [sp, #12]
 593 0020 1A62     		str	r2, [r3, #32]
 594              		.loc 6 211 0
 595 0022 039B     		ldr	r3, [sp, #12]
 596 0024 0F22     		movs	r2, #15
 597 0026 1340     		ands	r3, r2
 598 0028 05D0     		beq	.L29
 599              		.loc 6 212 0
 600 002a 039A     		ldr	r2, [sp, #12]
 601 002c 019B     		ldr	r3, [sp, #4]
 602 002e 1100     		movs	r1, r2
 603 0030 1800     		movs	r0, r3
 604 0032 FFF7FEFF 		bl	set_error
 605              	.L29:
 606              		.loc 6 222 0
 607 0036 039B     		ldr	r3, [sp, #12]
 608 0038 2022     		movs	r2, #32
 609 003a 1340     		ands	r3, r2
 610 003c 0CD0     		beq	.L23
 611              		.loc 6 223 0
 612 003e FFF7FEFF 		bl	osalSysLockFromISR
 613              		.loc 6 224 0
 614 0042 059B     		ldr	r3, [sp, #20]
 615 0044 9B8C     		ldrh	r3, [r3, #36]
 616 0046 9BB2     		uxth	r3, r3
 617 0048 DAB2     		uxtb	r2, r3
 618 004a 019B     		ldr	r3, [sp, #4]
 619 004c 1100     		movs	r1, r2
 620 004e 1800     		movs	r0, r3
 621 0050 FFF7FEFF 		bl	sdIncomingDataI
 622              		.loc 6 225 0
 623 0054 FFF7FEFF 		bl	osalSysUnlockFromISR
 624              	.L23:
 625              		.loc 6 229 0
 626 0058 049B     		ldr	r3, [sp, #16]
 627 005a 8022     		movs	r2, #128
ARM GAS  /tmp/ccjtumSl.s 			page 12


 628 005c 1340     		ands	r3, r2
 629 005e 23D0     		beq	.L24
 630              		.loc 6 229 0 is_stmt 0 discriminator 1
 631 0060 039B     		ldr	r3, [sp, #12]
 632 0062 8022     		movs	r2, #128
 633 0064 1340     		ands	r3, r2
 634 0066 1FD0     		beq	.L24
 635              	.LBB10:
 636              		.loc 6 231 0 is_stmt 1
 637 0068 FFF7FEFF 		bl	osalSysLockFromISR
 638              		.loc 6 232 0
 639 006c 019B     		ldr	r3, [sp, #4]
 640 006e 3033     		adds	r3, r3, #48
 641 0070 1800     		movs	r0, r3
 642 0072 FFF7FEFF 		bl	chOQGetI
 643 0076 0300     		movs	r3, r0
 644 0078 0293     		str	r3, [sp, #8]
 645              		.loc 6 233 0
 646 007a 029B     		ldr	r3, [sp, #8]
 647 007c 002B     		cmp	r3, #0
 648 007e 0DDA     		bge	.L25
 649              		.loc 6 234 0
 650 0080 019B     		ldr	r3, [sp, #4]
 651 0082 0433     		adds	r3, r3, #4
 652 0084 0821     		movs	r1, #8
 653 0086 1800     		movs	r0, r3
 654 0088 FFF7FEFF 		bl	osalEventBroadcastFlagsI
 655              		.loc 6 235 0
 656 008c 049B     		ldr	r3, [sp, #16]
 657 008e C022     		movs	r2, #192
 658 0090 9343     		bics	r3, r2
 659 0092 4022     		movs	r2, #64
 660 0094 1A43     		orrs	r2, r3
 661 0096 059B     		ldr	r3, [sp, #20]
 662 0098 1A60     		str	r2, [r3]
 663 009a 03E0     		b	.L26
 664              	.L25:
 665              		.loc 6 238 0
 666 009c 029B     		ldr	r3, [sp, #8]
 667 009e 9AB2     		uxth	r2, r3
 668 00a0 059B     		ldr	r3, [sp, #20]
 669 00a2 1A85     		strh	r2, [r3, #40]
 670              	.L26:
 671              		.loc 6 239 0
 672 00a4 FFF7FEFF 		bl	osalSysUnlockFromISR
 673              	.L24:
 674              	.LBE10:
 675              		.loc 6 243 0
 676 00a8 039B     		ldr	r3, [sp, #12]
 677 00aa 4022     		movs	r2, #64
 678 00ac 1340     		ands	r3, r2
 679 00ae 16D0     		beq	.L30
 680              		.loc 6 244 0
 681 00b0 FFF7FEFF 		bl	osalSysLockFromISR
 682              		.loc 6 245 0
 683 00b4 019B     		ldr	r3, [sp, #4]
 684 00b6 3033     		adds	r3, r3, #48
ARM GAS  /tmp/ccjtumSl.s 			page 13


 685 00b8 1800     		movs	r0, r3
 686 00ba FFF7FEFF 		bl	chOQIsEmptyI
 687 00be 031E     		subs	r3, r0, #0
 688 00c0 05D0     		beq	.L28
 689              		.loc 6 246 0
 690 00c2 019B     		ldr	r3, [sp, #4]
 691 00c4 0433     		adds	r3, r3, #4
 692 00c6 1021     		movs	r1, #16
 693 00c8 1800     		movs	r0, r3
 694 00ca FFF7FEFF 		bl	osalEventBroadcastFlagsI
 695              	.L28:
 696              		.loc 6 247 0
 697 00ce 049B     		ldr	r3, [sp, #16]
 698 00d0 4022     		movs	r2, #64
 699 00d2 9343     		bics	r3, r2
 700 00d4 1A00     		movs	r2, r3
 701 00d6 059B     		ldr	r3, [sp, #20]
 702 00d8 1A60     		str	r2, [r3]
 703              		.loc 6 248 0
 704 00da FFF7FEFF 		bl	osalSysUnlockFromISR
 705              	.L30:
 706              		.loc 6 250 0
 707 00de C046     		nop
 708 00e0 07B0     		add	sp, sp, #28
 709              		@ sp needed
 710 00e2 00BD     		pop	{pc}
 711              		.cfi_endproc
 712              	.LFE185:
 713              		.size	serve_interrupt, .-serve_interrupt
 714              		.section	.text.notify5,"ax",%progbits
 715              		.align	1
 716              		.p2align 4,,15
 717              		.syntax unified
 718              		.code	16
 719              		.thumb_func
 720              		.fpu softvfp
 721              		.type	notify5, %function
 722              	notify5:
 723              	.LFB186:
 724              		.loc 6 285 0
 725              		.cfi_startproc
 726              		@ args = 0, pretend = 0, frame = 8
 727              		@ frame_needed = 0, uses_anonymous_args = 0
 728              		@ link register save eliminated.
 729 0000 82B0     		sub	sp, sp, #8
 730              		.cfi_def_cfa_offset 8
 731 0002 0190     		str	r0, [sp, #4]
 732              		.loc 6 288 0
 733 0004 044B     		ldr	r3, .L32
 734 0006 044A     		ldr	r2, .L32
 735 0008 1268     		ldr	r2, [r2]
 736 000a 8021     		movs	r1, #128
 737 000c 0A43     		orrs	r2, r1
 738 000e 1A60     		str	r2, [r3]
 739              		.loc 6 289 0
 740 0010 C046     		nop
 741 0012 02B0     		add	sp, sp, #8
ARM GAS  /tmp/ccjtumSl.s 			page 14


 742              		@ sp needed
 743 0014 7047     		bx	lr
 744              	.L33:
 745 0016 C046     		.align	2
 746              	.L32:
 747 0018 00500040 		.word	1073762304
 748              		.cfi_endproc
 749              	.LFE186:
 750              		.size	notify5, .-notify5
 751              		.section	.text.VectorB4,"ax",%progbits
 752              		.align	1
 753              		.p2align 4,,15
 754              		.global	VectorB4
 755              		.syntax unified
 756              		.code	16
 757              		.thumb_func
 758              		.fpu softvfp
 759              		.type	VectorB4, %function
 760              	VectorB4:
 761              	.LFB187:
 762              		.loc 6 375 0
 763              		.cfi_startproc
 764              		@ args = 0, pretend = 0, frame = 8
 765              		@ frame_needed = 0, uses_anonymous_args = 0
 766 0000 00B5     		push	{lr}
 767              		.cfi_def_cfa_offset 4
 768              		.cfi_offset 14, -4
 769 0002 83B0     		sub	sp, sp, #12
 770              		.cfi_def_cfa_offset 16
 771 0004 7346     		mov	r3, lr
 772              		.loc 6 377 0
 773 0006 0193     		str	r3, [sp, #4]
 774 0008 FFF7FEFF 		bl	_dbg_check_enter_isr
 775              		.loc 6 386 0
 776 000c 064B     		ldr	r3, .L35
 777 000e 1800     		movs	r0, r3
 778 0010 FFF7FEFF 		bl	serve_interrupt
 779              		.loc 6 392 0
 780 0014 FFF7FEFF 		bl	_dbg_check_leave_isr
 781 0018 019B     		ldr	r3, [sp, #4]
 782 001a 1800     		movs	r0, r3
 783 001c FFF7FEFF 		bl	_port_irq_epilogue
 784              		.loc 6 393 0
 785 0020 C046     		nop
 786 0022 03B0     		add	sp, sp, #12
 787              		@ sp needed
 788 0024 00BD     		pop	{pc}
 789              	.L36:
 790 0026 C046     		.align	2
 791              	.L35:
 792 0028 00000000 		.word	SD5
 793              		.cfi_endproc
 794              	.LFE187:
 795              		.size	VectorB4, .-VectorB4
 796              		.section	.text.sd_lld_init,"ax",%progbits
 797              		.align	1
 798              		.p2align 4,,15
ARM GAS  /tmp/ccjtumSl.s 			page 15


 799              		.global	sd_lld_init
 800              		.syntax unified
 801              		.code	16
 802              		.thumb_func
 803              		.fpu softvfp
 804              		.type	sd_lld_init, %function
 805              	sd_lld_init:
 806              	.LFB188:
 807              		.loc 6 542 0
 808              		.cfi_startproc
 809              		@ args = 0, pretend = 0, frame = 0
 810              		@ frame_needed = 0, uses_anonymous_args = 0
 811 0000 10B5     		push	{r4, lr}
 812              		.cfi_def_cfa_offset 8
 813              		.cfi_offset 4, -8
 814              		.cfi_offset 14, -4
 815              		.loc 6 581 0
 816 0002 0B4A     		ldr	r2, .L38
 817 0004 0B4B     		ldr	r3, .L38+4
 818 0006 0021     		movs	r1, #0
 819 0008 1800     		movs	r0, r3
 820 000a FFF7FEFF 		bl	sdObjectInit
 821              		.loc 6 582 0
 822 000e 094A     		ldr	r2, .L38+4
 823 0010 AA23     		movs	r3, #170
 824 0012 5B00     		lsls	r3, r3, #1
 825 0014 0849     		ldr	r1, .L38+8
 826 0016 D150     		str	r1, [r2, r3]
 827              		.loc 6 583 0
 828 0018 064A     		ldr	r2, .L38+4
 829 001a AC23     		movs	r3, #172
 830 001c 5B00     		lsls	r3, r3, #1
 831 001e 0749     		ldr	r1, .L38+12
 832 0020 D150     		str	r1, [r2, r3]
 833              		.loc 6 629 0
 834 0022 0C21     		movs	r1, #12
 835 0024 1D20     		movs	r0, #29
 836 0026 FFF7FEFF 		bl	nvicEnableVector
 837              		.loc 6 632 0
 838 002a C046     		nop
 839              		@ sp needed
 840 002c 10BD     		pop	{r4, pc}
 841              	.L39:
 842 002e C046     		.align	2
 843              	.L38:
 844 0030 00000000 		.word	notify5
 845 0034 00000000 		.word	SD5
 846 0038 00500040 		.word	1073762304
 847 003c 006CDC02 		.word	48000000
 848              		.cfi_endproc
 849              	.LFE188:
 850              		.size	sd_lld_init, .-sd_lld_init
 851              		.section	.text.sd_lld_start,"ax",%progbits
 852              		.align	1
 853              		.p2align 4,,15
 854              		.global	sd_lld_start
 855              		.syntax unified
ARM GAS  /tmp/ccjtumSl.s 			page 16


 856              		.code	16
 857              		.thumb_func
 858              		.fpu softvfp
 859              		.type	sd_lld_start, %function
 860              	sd_lld_start:
 861              	.LFB189:
 862              		.loc 6 644 0
 863              		.cfi_startproc
 864              		@ args = 0, pretend = 0, frame = 8
 865              		@ frame_needed = 0, uses_anonymous_args = 0
 866 0000 00B5     		push	{lr}
 867              		.cfi_def_cfa_offset 4
 868              		.cfi_offset 14, -4
 869 0002 83B0     		sub	sp, sp, #12
 870              		.cfi_def_cfa_offset 16
 871 0004 0190     		str	r0, [sp, #4]
 872 0006 0091     		str	r1, [sp]
 873              		.loc 6 646 0
 874 0008 009B     		ldr	r3, [sp]
 875 000a 002B     		cmp	r3, #0
 876 000c 01D1     		bne	.L41
 877              		.loc 6 647 0
 878 000e 0D4B     		ldr	r3, .L43
 879 0010 0093     		str	r3, [sp]
 880              	.L41:
 881              		.loc 6 649 0
 882 0012 019B     		ldr	r3, [sp, #4]
 883 0014 1B7A     		ldrb	r3, [r3, #8]
 884 0016 012B     		cmp	r3, #1
 885 0018 0AD1     		bne	.L42
 886              		.loc 6 671 0
 887 001a 019A     		ldr	r2, [sp, #4]
 888 001c 0A4B     		ldr	r3, .L43+4
 889 001e 9A42     		cmp	r2, r3
 890 0020 06D1     		bne	.L42
 891              		.loc 6 672 0
 892 0022 0A4B     		ldr	r3, .L43+8
 893 0024 094A     		ldr	r2, .L43+8
 894 0026 D269     		ldr	r2, [r2, #28]
 895 0028 8021     		movs	r1, #128
 896 002a 4903     		lsls	r1, r1, #13
 897 002c 0A43     		orrs	r2, r1
 898 002e DA61     		str	r2, [r3, #28]
 899              	.L42:
 900              		.loc 6 696 0
 901 0030 009A     		ldr	r2, [sp]
 902 0032 019B     		ldr	r3, [sp, #4]
 903 0034 1100     		movs	r1, r2
 904 0036 1800     		movs	r0, r3
 905 0038 FFF7FEFF 		bl	usart_init
 906              		.loc 6 697 0
 907 003c C046     		nop
 908 003e 03B0     		add	sp, sp, #12
 909              		@ sp needed
 910 0040 00BD     		pop	{pc}
 911              	.L44:
 912 0042 C046     		.align	2
ARM GAS  /tmp/ccjtumSl.s 			page 17


 913              	.L43:
 914 0044 00000000 		.word	default_config
 915 0048 00000000 		.word	SD5
 916 004c 00100240 		.word	1073876992
 917              		.cfi_endproc
 918              	.LFE189:
 919              		.size	sd_lld_start, .-sd_lld_start
 920              		.section	.text.sd_lld_stop,"ax",%progbits
 921              		.align	1
 922              		.p2align 4,,15
 923              		.global	sd_lld_stop
 924              		.syntax unified
 925              		.code	16
 926              		.thumb_func
 927              		.fpu softvfp
 928              		.type	sd_lld_stop, %function
 929              	sd_lld_stop:
 930              	.LFB190:
 931              		.loc 6 708 0
 932              		.cfi_startproc
 933              		@ args = 0, pretend = 0, frame = 8
 934              		@ frame_needed = 0, uses_anonymous_args = 0
 935 0000 00B5     		push	{lr}
 936              		.cfi_def_cfa_offset 4
 937              		.cfi_offset 14, -4
 938 0002 83B0     		sub	sp, sp, #12
 939              		.cfi_def_cfa_offset 16
 940 0004 0190     		str	r0, [sp, #4]
 941              		.loc 6 710 0
 942 0006 019B     		ldr	r3, [sp, #4]
 943 0008 1B7A     		ldrb	r3, [r3, #8]
 944 000a 022B     		cmp	r3, #2
 945 000c 11D1     		bne	.L45
 946              		.loc 6 712 0
 947 000e 019A     		ldr	r2, [sp, #4]
 948 0010 AA23     		movs	r3, #170
 949 0012 5B00     		lsls	r3, r3, #1
 950 0014 D358     		ldr	r3, [r2, r3]
 951 0016 1800     		movs	r0, r3
 952 0018 FFF7FEFF 		bl	usart_deinit
 953              		.loc 6 739 0
 954 001c 019A     		ldr	r2, [sp, #4]
 955 001e 064B     		ldr	r3, .L47
 956 0020 9A42     		cmp	r2, r3
 957 0022 06D1     		bne	.L45
 958              		.loc 6 740 0
 959 0024 054B     		ldr	r3, .L47+4
 960 0026 054A     		ldr	r2, .L47+4
 961 0028 D269     		ldr	r2, [r2, #28]
 962 002a 0549     		ldr	r1, .L47+8
 963 002c 0A40     		ands	r2, r1
 964 002e DA61     		str	r2, [r3, #28]
 965              		.loc 6 741 0
 966 0030 C046     		nop
 967              	.L45:
 968              		.loc 6 769 0
 969 0032 03B0     		add	sp, sp, #12
ARM GAS  /tmp/ccjtumSl.s 			page 18


 970              		@ sp needed
 971 0034 00BD     		pop	{pc}
 972              	.L48:
 973 0036 C046     		.align	2
 974              	.L47:
 975 0038 00000000 		.word	SD5
 976 003c 00100240 		.word	1073876992
 977 0040 FFFFEFFF 		.word	-1048577
 978              		.cfi_endproc
 979              	.LFE190:
 980              		.size	sd_lld_stop, .-sd_lld_stop
 981              		.text
 982              	.Letext0:
 983              		.file 7 "/home/felix/opt/gcc-arm-none-eabi-6-2017-q1-update/lib/gcc/arm-none-eabi/6.3.1/include/st
 984              		.file 8 "/home/felix/opt/gcc-arm-none-eabi-6-2017-q1-update/arm-none-eabi/include/machine/_default
 985              		.file 9 "/home/felix/opt/gcc-arm-none-eabi-6-2017-q1-update/arm-none-eabi/include/sys/_stdint.h"
 986              		.file 10 "ChibiOS/os/rt/ports/ARMCMx/compilers/GCC/chtypes.h"
 987              		.file 11 "ChibiOS/os/rt/include/chsystypes.h"
 988              		.file 12 "ChibiOS/os/rt/include/chschd.h"
 989              		.file 13 "ChibiOS/os/ext/CMSIS/ST/STM32F0xx/stm32f030xc.h"
 990              		.file 14 "ChibiOS/os/rt/ports/ARMCMx/chcore.h"
 991              		.file 15 "ChibiOS/os/rt/include/chdebug.h"
 992              		.file 16 "ChibiOS/os/rt/include/chsem.h"
 993              		.file 17 "ChibiOS/os/rt/include/chmtx.h"
 994              		.file 18 "ChibiOS/os/rt/include/chregistry.h"
 995              		.file 19 "ChibiOS/os/ext/CMSIS/ST/STM32F0xx/system_stm32f0xx.h"
 996              		.file 20 "ChibiOS/os/rt/include/chevents.h"
 997              		.file 21 "ChibiOS/os/hal/ports/STM32/LLD/DMAv1/stm32_dma.h"
 998              		.file 22 "ChibiOS/os/hal/ports/STM32/LLD/GPIOv2/pal_lld.h"
 999              		.file 23 "ChibiOS/os/hal/include/serial.h"
 1000              		.file 24 "ChibiOS/os/hal/ports/STM32/LLD/USARTv2/serial_lld.h"