ARM GAS  /tmp/ccC1Xiaz.s 			page 1


   1              		.cpu cortex-m0
   2              		.eabi_attribute 20, 1
   3              		.eabi_attribute 21, 1
   4              		.eabi_attribute 23, 3
   5              		.eabi_attribute 24, 1
   6              		.eabi_attribute 25, 1
   7              		.eabi_attribute 26, 1
   8              		.eabi_attribute 30, 6
   9              		.eabi_attribute 34, 0
  10              		.eabi_attribute 18, 4
  11              		.file	"serial.c"
  12              		.text
  13              	.Ltext0:
  14              		.cfi_sections	.debug_frame
  15              		.section	.text.port_lock,"ax",%progbits
  16              		.align	1
  17              		.p2align 4,,15
  18              		.syntax unified
  19              		.code	16
  20              		.thumb_func
  21              		.fpu softvfp
  22              		.type	port_lock, %function
  23              	port_lock:
  24              	.LFB38:
  25              		.file 1 "ChibiOS/os/rt/ports/ARMCMx/chcore_v6m.h"
  26              		.loc 1 330 0
  27              		.cfi_startproc
  28              		@ args = 0, pretend = 0, frame = 0
  29              		@ frame_needed = 0, uses_anonymous_args = 0
  30              		@ link register save eliminated.
  31              	.LBB6:
  32              	.LBB7:
  33              		.file 2 "ChibiOS/os/ext/CMSIS/include/core_cmFunc.h"
  34              		.loc 2 344 0
  35              		.syntax divided
  36              	@ 344 "ChibiOS/os/ext/CMSIS/include/core_cmFunc.h" 1
  37 0000 72B6     		cpsid i
  38              	@ 0 "" 2
  39              		.thumb
  40              		.syntax unified
  41              	.LBE7:
  42              	.LBE6:
  43              		.loc 1 333 0
  44 0002 C046     		nop
  45              		@ sp needed
  46 0004 7047     		bx	lr
  47              		.cfi_endproc
  48              	.LFE38:
  49              		.size	port_lock, .-port_lock
  50 0006 C046     		.section	.text.port_unlock,"ax",%progbits
  51              		.align	1
  52              		.p2align 4,,15
  53              		.syntax unified
  54              		.code	16
  55              		.thumb_func
  56              		.fpu softvfp
  57              		.type	port_unlock, %function
ARM GAS  /tmp/ccC1Xiaz.s 			page 2


  58              	port_unlock:
  59              	.LFB39:
  60              		.loc 1 339 0
  61              		.cfi_startproc
  62              		@ args = 0, pretend = 0, frame = 0
  63              		@ frame_needed = 0, uses_anonymous_args = 0
  64              		@ link register save eliminated.
  65              	.LBB8:
  66              	.LBB9:
  67              		.loc 2 333 0
  68              		.syntax divided
  69              	@ 333 "ChibiOS/os/ext/CMSIS/include/core_cmFunc.h" 1
  70 0000 62B6     		cpsie i
  71              	@ 0 "" 2
  72              		.thumb
  73              		.syntax unified
  74              	.LBE9:
  75              	.LBE8:
  76              		.loc 1 342 0
  77 0002 C046     		nop
  78              		@ sp needed
  79 0004 7047     		bx	lr
  80              		.cfi_endproc
  81              	.LFE39:
  82              		.size	port_unlock, .-port_unlock
  83 0006 C046     		.section	.text.chSysLock,"ax",%progbits
  84              		.align	1
  85              		.p2align 4,,15
  86              		.syntax unified
  87              		.code	16
  88              		.thumb_func
  89              		.fpu softvfp
  90              		.type	chSysLock, %function
  91              	chSysLock:
  92              	.LFB77:
  93              		.file 3 "ChibiOS/os/rt/include/chsys.h"
  94              		.loc 3 346 0
  95              		.cfi_startproc
  96              		@ args = 0, pretend = 0, frame = 0
  97              		@ frame_needed = 0, uses_anonymous_args = 0
  98 0000 10B5     		push	{r4, lr}
  99              		.cfi_def_cfa_offset 8
 100              		.cfi_offset 4, -8
 101              		.cfi_offset 14, -4
 102              		.loc 3 348 0
 103 0002 FFF7FEFF 		bl	port_lock
 104              		.loc 3 350 0
 105 0006 FFF7FEFF 		bl	_dbg_check_lock
 106              		.loc 3 351 0
 107 000a C046     		nop
 108              		@ sp needed
 109 000c 10BD     		pop	{r4, pc}
 110              		.cfi_endproc
 111              	.LFE77:
 112              		.size	chSysLock, .-chSysLock
 113 000e C046     		.section	.text.chSysUnlock,"ax",%progbits
 114              		.align	1
ARM GAS  /tmp/ccC1Xiaz.s 			page 3


 115              		.p2align 4,,15
 116              		.syntax unified
 117              		.code	16
 118              		.thumb_func
 119              		.fpu softvfp
 120              		.type	chSysUnlock, %function
 121              	chSysUnlock:
 122              	.LFB78:
 123              		.loc 3 358 0
 124              		.cfi_startproc
 125              		@ args = 0, pretend = 0, frame = 0
 126              		@ frame_needed = 0, uses_anonymous_args = 0
 127 0000 10B5     		push	{r4, lr}
 128              		.cfi_def_cfa_offset 8
 129              		.cfi_offset 4, -8
 130              		.cfi_offset 14, -4
 131              		.loc 3 360 0
 132 0002 FFF7FEFF 		bl	_dbg_check_unlock
 133              		.loc 3 367 0
 134 0006 0A4B     		ldr	r3, .L6
 135 0008 1A68     		ldr	r2, [r3]
 136 000a 094B     		ldr	r3, .L6
 137 000c 9A42     		cmp	r2, r3
 138 000e 0BD0     		beq	.L5
 139              		.loc 3 367 0 is_stmt 0 discriminator 2
 140 0010 074B     		ldr	r3, .L6
 141 0012 9B69     		ldr	r3, [r3, #24]
 142 0014 9A68     		ldr	r2, [r3, #8]
 143 0016 064B     		ldr	r3, .L6
 144 0018 1B68     		ldr	r3, [r3]
 145 001a 9B68     		ldr	r3, [r3, #8]
 146 001c 9A42     		cmp	r2, r3
 147 001e 03D2     		bcs	.L5
 148              		.loc 3 367 0 discriminator 3
 149 0020 044B     		ldr	r3, .L6+4
 150 0022 1800     		movs	r0, r3
 151 0024 FFF7FEFF 		bl	chSysHalt
 152              	.L5:
 153              		.loc 3 371 0 is_stmt 1
 154 0028 FFF7FEFF 		bl	port_unlock
 155              		.loc 3 372 0
 156 002c C046     		nop
 157              		@ sp needed
 158 002e 10BD     		pop	{r4, pc}
 159              	.L7:
 160              		.align	2
 161              	.L6:
 162 0030 00000000 		.word	ch
 163 0034 00000000 		.word	__func__.4993
 164              		.cfi_endproc
 165              	.LFE78:
 166              		.size	chSysUnlock, .-chSysUnlock
 167              		.section	.text.chEvtObjectInit,"ax",%progbits
 168              		.align	1
 169              		.p2align 4,,15
 170              		.syntax unified
 171              		.code	16
ARM GAS  /tmp/ccC1Xiaz.s 			page 4


 172              		.thumb_func
 173              		.fpu softvfp
 174              		.type	chEvtObjectInit, %function
 175              	chEvtObjectInit:
 176              	.LFB126:
 177              		.file 4 "ChibiOS/os/rt/include/chevents.h"
 178              		.loc 4 170 0
 179              		.cfi_startproc
 180              		@ args = 0, pretend = 0, frame = 8
 181              		@ frame_needed = 0, uses_anonymous_args = 0
 182              		@ link register save eliminated.
 183 0000 82B0     		sub	sp, sp, #8
 184              		.cfi_def_cfa_offset 8
 185 0002 0190     		str	r0, [sp, #4]
 186              		.loc 4 172 0
 187 0004 019B     		ldr	r3, [sp, #4]
 188 0006 019A     		ldr	r2, [sp, #4]
 189 0008 1A60     		str	r2, [r3]
 190              		.loc 4 173 0
 191 000a C046     		nop
 192 000c 02B0     		add	sp, sp, #8
 193              		@ sp needed
 194 000e 7047     		bx	lr
 195              		.cfi_endproc
 196              	.LFE126:
 197              		.size	chEvtObjectInit, .-chEvtObjectInit
 198              		.section	.text.chIQIsEmptyI,"ax",%progbits
 199              		.align	1
 200              		.p2align 4,,15
 201              		.syntax unified
 202              		.code	16
 203              		.thumb_func
 204              		.fpu softvfp
 205              		.type	chIQIsEmptyI, %function
 206              	chIQIsEmptyI:
 207              	.LFB144:
 208              		.file 5 "ChibiOS/os/rt/include/chqueues.h"
 209              		.loc 5 303 0
 210              		.cfi_startproc
 211              		@ args = 0, pretend = 0, frame = 8
 212              		@ frame_needed = 0, uses_anonymous_args = 0
 213 0000 00B5     		push	{lr}
 214              		.cfi_def_cfa_offset 4
 215              		.cfi_offset 14, -4
 216 0002 83B0     		sub	sp, sp, #12
 217              		.cfi_def_cfa_offset 16
 218 0004 0190     		str	r0, [sp, #4]
 219              		.loc 5 305 0
 220 0006 FFF7FEFF 		bl	chDbgCheckClassI
 221              		.loc 5 307 0
 222 000a 019B     		ldr	r3, [sp, #4]
 223 000c 9B68     		ldr	r3, [r3, #8]
 224 000e 5A42     		rsbs	r2, r3, #0
 225 0010 5341     		adcs	r3, r3, r2
 226 0012 DBB2     		uxtb	r3, r3
 227              		.loc 5 308 0
 228 0014 1800     		movs	r0, r3
ARM GAS  /tmp/ccC1Xiaz.s 			page 5


 229 0016 03B0     		add	sp, sp, #12
 230              		@ sp needed
 231 0018 00BD     		pop	{pc}
 232              		.cfi_endproc
 233              	.LFE144:
 234              		.size	chIQIsEmptyI, .-chIQIsEmptyI
 235 001a C046     		.section	.text.chOQIsFullI,"ax",%progbits
 236              		.align	1
 237              		.p2align 4,,15
 238              		.syntax unified
 239              		.code	16
 240              		.thumb_func
 241              		.fpu softvfp
 242              		.type	chOQIsFullI, %function
 243              	chOQIsFullI:
 244              	.LFB150:
 245              		.loc 5 407 0
 246              		.cfi_startproc
 247              		@ args = 0, pretend = 0, frame = 8
 248              		@ frame_needed = 0, uses_anonymous_args = 0
 249 0000 00B5     		push	{lr}
 250              		.cfi_def_cfa_offset 4
 251              		.cfi_offset 14, -4
 252 0002 83B0     		sub	sp, sp, #12
 253              		.cfi_def_cfa_offset 16
 254 0004 0190     		str	r0, [sp, #4]
 255              		.loc 5 409 0
 256 0006 FFF7FEFF 		bl	chDbgCheckClassI
 257              		.loc 5 411 0
 258 000a 019B     		ldr	r3, [sp, #4]
 259 000c 9B68     		ldr	r3, [r3, #8]
 260 000e 5A42     		rsbs	r2, r3, #0
 261 0010 5341     		adcs	r3, r3, r2
 262 0012 DBB2     		uxtb	r3, r3
 263              		.loc 5 412 0
 264 0014 1800     		movs	r0, r3
 265 0016 03B0     		add	sp, sp, #12
 266              		@ sp needed
 267 0018 00BD     		pop	{pc}
 268              		.cfi_endproc
 269              	.LFE150:
 270              		.size	chOQIsFullI, .-chOQIsFullI
 271 001a C046     		.section	.text.osalSysLock,"ax",%progbits
 272              		.align	1
 273              		.p2align 4,,15
 274              		.syntax unified
 275              		.code	16
 276              		.thumb_func
 277              		.fpu softvfp
 278              		.type	osalSysLock, %function
 279              	osalSysLock:
 280              	.LFB156:
 281              		.file 6 "ChibiOS/os/hal/osal/rt/osal.h"
 282              		.loc 6 491 0
 283              		.cfi_startproc
 284              		@ args = 0, pretend = 0, frame = 0
 285              		@ frame_needed = 0, uses_anonymous_args = 0
ARM GAS  /tmp/ccC1Xiaz.s 			page 6


 286 0000 10B5     		push	{r4, lr}
 287              		.cfi_def_cfa_offset 8
 288              		.cfi_offset 4, -8
 289              		.cfi_offset 14, -4
 290              		.loc 6 493 0
 291 0002 FFF7FEFF 		bl	chSysLock
 292              		.loc 6 494 0
 293 0006 C046     		nop
 294              		@ sp needed
 295 0008 10BD     		pop	{r4, pc}
 296              		.cfi_endproc
 297              	.LFE156:
 298              		.size	osalSysLock, .-osalSysLock
 299 000a C046     		.section	.text.osalSysUnlock,"ax",%progbits
 300              		.align	1
 301              		.p2align 4,,15
 302              		.syntax unified
 303              		.code	16
 304              		.thumb_func
 305              		.fpu softvfp
 306              		.type	osalSysUnlock, %function
 307              	osalSysUnlock:
 308              	.LFB157:
 309              		.loc 6 502 0
 310              		.cfi_startproc
 311              		@ args = 0, pretend = 0, frame = 0
 312              		@ frame_needed = 0, uses_anonymous_args = 0
 313 0000 10B5     		push	{r4, lr}
 314              		.cfi_def_cfa_offset 8
 315              		.cfi_offset 4, -8
 316              		.cfi_offset 14, -4
 317              		.loc 6 504 0
 318 0002 FFF7FEFF 		bl	chSysUnlock
 319              		.loc 6 505 0
 320 0006 C046     		nop
 321              		@ sp needed
 322 0008 10BD     		pop	{r4, pc}
 323              		.cfi_endproc
 324              	.LFE157:
 325              		.size	osalSysUnlock, .-osalSysUnlock
 326 000a C046     		.section	.text.osalOsRescheduleS,"ax",%progbits
 327              		.align	1
 328              		.p2align 4,,15
 329              		.syntax unified
 330              		.code	16
 331              		.thumb_func
 332              		.fpu softvfp
 333              		.type	osalOsRescheduleS, %function
 334              	osalOsRescheduleS:
 335              	.LFB163:
 336              		.loc 6 598 0
 337              		.cfi_startproc
 338              		@ args = 0, pretend = 0, frame = 0
 339              		@ frame_needed = 0, uses_anonymous_args = 0
 340 0000 10B5     		push	{r4, lr}
 341              		.cfi_def_cfa_offset 8
 342              		.cfi_offset 4, -8
ARM GAS  /tmp/ccC1Xiaz.s 			page 7


 343              		.cfi_offset 14, -4
 344              		.loc 6 600 0
 345 0002 FFF7FEFF 		bl	chSchRescheduleS
 346              		.loc 6 601 0
 347 0006 C046     		nop
 348              		@ sp needed
 349 0008 10BD     		pop	{r4, pc}
 350              		.cfi_endproc
 351              	.LFE163:
 352              		.size	osalOsRescheduleS, .-osalOsRescheduleS
 353 000a C046     		.section	.text.osalEventObjectInit,"ax",%progbits
 354              		.align	1
 355              		.p2align 4,,15
 356              		.syntax unified
 357              		.code	16
 358              		.thumb_func
 359              		.fpu softvfp
 360              		.type	osalEventObjectInit, %function
 361              	osalEventObjectInit:
 362              	.LFB176:
 363              		.loc 6 821 0
 364              		.cfi_startproc
 365              		@ args = 0, pretend = 0, frame = 8
 366              		@ frame_needed = 0, uses_anonymous_args = 0
 367 0000 00B5     		push	{lr}
 368              		.cfi_def_cfa_offset 4
 369              		.cfi_offset 14, -4
 370 0002 83B0     		sub	sp, sp, #12
 371              		.cfi_def_cfa_offset 16
 372 0004 0190     		str	r0, [sp, #4]
 373              		.loc 6 823 0
 374 0006 019B     		ldr	r3, [sp, #4]
 375 0008 1800     		movs	r0, r3
 376 000a FFF7FEFF 		bl	chEvtObjectInit
 377              		.loc 6 824 0
 378 000e C046     		nop
 379 0010 03B0     		add	sp, sp, #12
 380              		@ sp needed
 381 0012 00BD     		pop	{pc}
 382              		.cfi_endproc
 383              	.LFE176:
 384              		.size	osalEventObjectInit, .-osalEventObjectInit
 385              		.section	.text.osalEventBroadcastFlagsI,"ax",%progbits
 386              		.align	1
 387              		.p2align 4,,15
 388              		.syntax unified
 389              		.code	16
 390              		.thumb_func
 391              		.fpu softvfp
 392              		.type	osalEventBroadcastFlagsI, %function
 393              	osalEventBroadcastFlagsI:
 394              	.LFB177:
 395              		.loc 6 842 0
 396              		.cfi_startproc
 397              		@ args = 0, pretend = 0, frame = 8
 398              		@ frame_needed = 0, uses_anonymous_args = 0
 399 0000 00B5     		push	{lr}
ARM GAS  /tmp/ccC1Xiaz.s 			page 8


 400              		.cfi_def_cfa_offset 4
 401              		.cfi_offset 14, -4
 402 0002 83B0     		sub	sp, sp, #12
 403              		.cfi_def_cfa_offset 16
 404 0004 0190     		str	r0, [sp, #4]
 405 0006 0091     		str	r1, [sp]
 406              		.loc 6 844 0
 407 0008 009A     		ldr	r2, [sp]
 408 000a 019B     		ldr	r3, [sp, #4]
 409 000c 1100     		movs	r1, r2
 410 000e 1800     		movs	r0, r3
 411 0010 FFF7FEFF 		bl	chEvtBroadcastFlagsI
 412              		.loc 6 845 0
 413 0014 C046     		nop
 414 0016 03B0     		add	sp, sp, #12
 415              		@ sp needed
 416 0018 00BD     		pop	{pc}
 417              		.cfi_endproc
 418              	.LFE177:
 419              		.size	osalEventBroadcastFlagsI, .-osalEventBroadcastFlagsI
 420 001a C046     		.section	.text.write,"ax",%progbits
 421              		.align	1
 422              		.p2align 4,,15
 423              		.syntax unified
 424              		.code	16
 425              		.thumb_func
 426              		.fpu softvfp
 427              		.type	write, %function
 428              	write:
 429              	.LFB182:
 430              		.file 7 "ChibiOS/os/hal/src/serial.c"
 431              		.loc 7 50 0
 432              		.cfi_startproc
 433              		@ args = 0, pretend = 0, frame = 16
 434              		@ frame_needed = 0, uses_anonymous_args = 0
 435 0000 00B5     		push	{lr}
 436              		.cfi_def_cfa_offset 4
 437              		.cfi_offset 14, -4
 438 0002 85B0     		sub	sp, sp, #20
 439              		.cfi_def_cfa_offset 24
 440 0004 0390     		str	r0, [sp, #12]
 441 0006 0291     		str	r1, [sp, #8]
 442 0008 0192     		str	r2, [sp, #4]
 443              		.loc 7 52 0
 444 000a 039B     		ldr	r3, [sp, #12]
 445 000c 3033     		adds	r3, r3, #48
 446 000e 1800     		movs	r0, r3
 447 0010 044B     		ldr	r3, .L20
 448 0012 019A     		ldr	r2, [sp, #4]
 449 0014 0299     		ldr	r1, [sp, #8]
 450 0016 FFF7FEFF 		bl	chOQWriteTimeout
 451 001a 0300     		movs	r3, r0
 452              		.loc 7 54 0
 453 001c 1800     		movs	r0, r3
 454 001e 05B0     		add	sp, sp, #20
 455              		@ sp needed
 456 0020 00BD     		pop	{pc}
ARM GAS  /tmp/ccC1Xiaz.s 			page 9


 457              	.L21:
 458 0022 C046     		.align	2
 459              	.L20:
 460 0024 FFFF0000 		.word	65535
 461              		.cfi_endproc
 462              	.LFE182:
 463              		.size	write, .-write
 464              		.section	.text.read,"ax",%progbits
 465              		.align	1
 466              		.p2align 4,,15
 467              		.syntax unified
 468              		.code	16
 469              		.thumb_func
 470              		.fpu softvfp
 471              		.type	read, %function
 472              	read:
 473              	.LFB183:
 474              		.loc 7 56 0
 475              		.cfi_startproc
 476              		@ args = 0, pretend = 0, frame = 16
 477              		@ frame_needed = 0, uses_anonymous_args = 0
 478 0000 00B5     		push	{lr}
 479              		.cfi_def_cfa_offset 4
 480              		.cfi_offset 14, -4
 481 0002 85B0     		sub	sp, sp, #20
 482              		.cfi_def_cfa_offset 24
 483 0004 0390     		str	r0, [sp, #12]
 484 0006 0291     		str	r1, [sp, #8]
 485 0008 0192     		str	r2, [sp, #4]
 486              		.loc 7 58 0
 487 000a 039B     		ldr	r3, [sp, #12]
 488 000c 0C33     		adds	r3, r3, #12
 489 000e 1800     		movs	r0, r3
 490 0010 044B     		ldr	r3, .L24
 491 0012 019A     		ldr	r2, [sp, #4]
 492 0014 0299     		ldr	r1, [sp, #8]
 493 0016 FFF7FEFF 		bl	chIQReadTimeout
 494 001a 0300     		movs	r3, r0
 495              		.loc 7 60 0
 496 001c 1800     		movs	r0, r3
 497 001e 05B0     		add	sp, sp, #20
 498              		@ sp needed
 499 0020 00BD     		pop	{pc}
 500              	.L25:
 501 0022 C046     		.align	2
 502              	.L24:
 503 0024 FFFF0000 		.word	65535
 504              		.cfi_endproc
 505              	.LFE183:
 506              		.size	read, .-read
 507              		.section	.text.put,"ax",%progbits
 508              		.align	1
 509              		.p2align 4,,15
 510              		.syntax unified
 511              		.code	16
 512              		.thumb_func
 513              		.fpu softvfp
ARM GAS  /tmp/ccC1Xiaz.s 			page 10


 514              		.type	put, %function
 515              	put:
 516              	.LFB184:
 517              		.loc 7 62 0
 518              		.cfi_startproc
 519              		@ args = 0, pretend = 0, frame = 8
 520              		@ frame_needed = 0, uses_anonymous_args = 0
 521 0000 00B5     		push	{lr}
 522              		.cfi_def_cfa_offset 4
 523              		.cfi_offset 14, -4
 524 0002 83B0     		sub	sp, sp, #12
 525              		.cfi_def_cfa_offset 16
 526 0004 0190     		str	r0, [sp, #4]
 527 0006 0A00     		movs	r2, r1
 528 0008 6B46     		mov	r3, sp
 529 000a 0333     		adds	r3, r3, #3
 530 000c 1A70     		strb	r2, [r3]
 531              		.loc 7 64 0
 532 000e 019B     		ldr	r3, [sp, #4]
 533 0010 3033     		adds	r3, r3, #48
 534 0012 1800     		movs	r0, r3
 535 0014 054A     		ldr	r2, .L28
 536 0016 6B46     		mov	r3, sp
 537 0018 0333     		adds	r3, r3, #3
 538 001a 1B78     		ldrb	r3, [r3]
 539 001c 1900     		movs	r1, r3
 540 001e FFF7FEFF 		bl	chOQPutTimeout
 541 0022 0300     		movs	r3, r0
 542              		.loc 7 65 0
 543 0024 1800     		movs	r0, r3
 544 0026 03B0     		add	sp, sp, #12
 545              		@ sp needed
 546 0028 00BD     		pop	{pc}
 547              	.L29:
 548 002a C046     		.align	2
 549              	.L28:
 550 002c FFFF0000 		.word	65535
 551              		.cfi_endproc
 552              	.LFE184:
 553              		.size	put, .-put
 554              		.section	.text.get,"ax",%progbits
 555              		.align	1
 556              		.p2align 4,,15
 557              		.syntax unified
 558              		.code	16
 559              		.thumb_func
 560              		.fpu softvfp
 561              		.type	get, %function
 562              	get:
 563              	.LFB185:
 564              		.loc 7 67 0
 565              		.cfi_startproc
 566              		@ args = 0, pretend = 0, frame = 8
 567              		@ frame_needed = 0, uses_anonymous_args = 0
 568 0000 00B5     		push	{lr}
 569              		.cfi_def_cfa_offset 4
 570              		.cfi_offset 14, -4
ARM GAS  /tmp/ccC1Xiaz.s 			page 11


 571 0002 83B0     		sub	sp, sp, #12
 572              		.cfi_def_cfa_offset 16
 573 0004 0190     		str	r0, [sp, #4]
 574              		.loc 7 69 0
 575 0006 019B     		ldr	r3, [sp, #4]
 576 0008 0C33     		adds	r3, r3, #12
 577 000a 044A     		ldr	r2, .L32
 578 000c 1100     		movs	r1, r2
 579 000e 1800     		movs	r0, r3
 580 0010 FFF7FEFF 		bl	chIQGetTimeout
 581 0014 0300     		movs	r3, r0
 582              		.loc 7 70 0
 583 0016 1800     		movs	r0, r3
 584 0018 03B0     		add	sp, sp, #12
 585              		@ sp needed
 586 001a 00BD     		pop	{pc}
 587              	.L33:
 588              		.align	2
 589              	.L32:
 590 001c FFFF0000 		.word	65535
 591              		.cfi_endproc
 592              	.LFE185:
 593              		.size	get, .-get
 594              		.section	.text.putt,"ax",%progbits
 595              		.align	1
 596              		.p2align 4,,15
 597              		.syntax unified
 598              		.code	16
 599              		.thumb_func
 600              		.fpu softvfp
 601              		.type	putt, %function
 602              	putt:
 603              	.LFB186:
 604              		.loc 7 72 0
 605              		.cfi_startproc
 606              		@ args = 0, pretend = 0, frame = 8
 607              		@ frame_needed = 0, uses_anonymous_args = 0
 608 0000 00B5     		push	{lr}
 609              		.cfi_def_cfa_offset 4
 610              		.cfi_offset 14, -4
 611 0002 83B0     		sub	sp, sp, #12
 612              		.cfi_def_cfa_offset 16
 613 0004 0190     		str	r0, [sp, #4]
 614 0006 0800     		movs	r0, r1
 615 0008 1100     		movs	r1, r2
 616 000a 6B46     		mov	r3, sp
 617 000c 0333     		adds	r3, r3, #3
 618 000e 021C     		adds	r2, r0, #0
 619 0010 1A70     		strb	r2, [r3]
 620 0012 6B46     		mov	r3, sp
 621 0014 0A1C     		adds	r2, r1, #0
 622 0016 1A80     		strh	r2, [r3]
 623              		.loc 7 74 0
 624 0018 019B     		ldr	r3, [sp, #4]
 625 001a 3033     		adds	r3, r3, #48
 626 001c 1800     		movs	r0, r3
 627 001e 6B46     		mov	r3, sp
ARM GAS  /tmp/ccC1Xiaz.s 			page 12


 628 0020 1A88     		ldrh	r2, [r3]
 629 0022 6B46     		mov	r3, sp
 630 0024 0333     		adds	r3, r3, #3
 631 0026 1B78     		ldrb	r3, [r3]
 632 0028 1900     		movs	r1, r3
 633 002a FFF7FEFF 		bl	chOQPutTimeout
 634 002e 0300     		movs	r3, r0
 635              		.loc 7 75 0
 636 0030 1800     		movs	r0, r3
 637 0032 03B0     		add	sp, sp, #12
 638              		@ sp needed
 639 0034 00BD     		pop	{pc}
 640              		.cfi_endproc
 641              	.LFE186:
 642              		.size	putt, .-putt
 643 0036 C046     		.section	.text.gett,"ax",%progbits
 644              		.align	1
 645              		.p2align 4,,15
 646              		.syntax unified
 647              		.code	16
 648              		.thumb_func
 649              		.fpu softvfp
 650              		.type	gett, %function
 651              	gett:
 652              	.LFB187:
 653              		.loc 7 77 0
 654              		.cfi_startproc
 655              		@ args = 0, pretend = 0, frame = 8
 656              		@ frame_needed = 0, uses_anonymous_args = 0
 657 0000 00B5     		push	{lr}
 658              		.cfi_def_cfa_offset 4
 659              		.cfi_offset 14, -4
 660 0002 83B0     		sub	sp, sp, #12
 661              		.cfi_def_cfa_offset 16
 662 0004 0190     		str	r0, [sp, #4]
 663 0006 0A00     		movs	r2, r1
 664 0008 6B46     		mov	r3, sp
 665 000a 0233     		adds	r3, r3, #2
 666 000c 1A80     		strh	r2, [r3]
 667              		.loc 7 79 0
 668 000e 019B     		ldr	r3, [sp, #4]
 669 0010 0C33     		adds	r3, r3, #12
 670 0012 1A00     		movs	r2, r3
 671 0014 6B46     		mov	r3, sp
 672 0016 0233     		adds	r3, r3, #2
 673 0018 1B88     		ldrh	r3, [r3]
 674 001a 1900     		movs	r1, r3
 675 001c 1000     		movs	r0, r2
 676 001e FFF7FEFF 		bl	chIQGetTimeout
 677 0022 0300     		movs	r3, r0
 678              		.loc 7 80 0
 679 0024 1800     		movs	r0, r3
 680 0026 03B0     		add	sp, sp, #12
 681              		@ sp needed
 682 0028 00BD     		pop	{pc}
 683              		.cfi_endproc
 684              	.LFE187:
ARM GAS  /tmp/ccC1Xiaz.s 			page 13


 685              		.size	gett, .-gett
 686 002a C046     		.section	.text.writet,"ax",%progbits
 687              		.align	1
 688              		.p2align 4,,15
 689              		.syntax unified
 690              		.code	16
 691              		.thumb_func
 692              		.fpu softvfp
 693              		.type	writet, %function
 694              	writet:
 695              	.LFB188:
 696              		.loc 7 82 0
 697              		.cfi_startproc
 698              		@ args = 0, pretend = 0, frame = 16
 699              		@ frame_needed = 0, uses_anonymous_args = 0
 700 0000 00B5     		push	{lr}
 701              		.cfi_def_cfa_offset 4
 702              		.cfi_offset 14, -4
 703 0002 85B0     		sub	sp, sp, #20
 704              		.cfi_def_cfa_offset 24
 705 0004 0390     		str	r0, [sp, #12]
 706 0006 0291     		str	r1, [sp, #8]
 707 0008 0192     		str	r2, [sp, #4]
 708 000a 1A00     		movs	r2, r3
 709 000c 6B46     		mov	r3, sp
 710 000e 0233     		adds	r3, r3, #2
 711 0010 1A80     		strh	r2, [r3]
 712              		.loc 7 84 0
 713 0012 039B     		ldr	r3, [sp, #12]
 714 0014 3033     		adds	r3, r3, #48
 715 0016 1800     		movs	r0, r3
 716 0018 6B46     		mov	r3, sp
 717 001a 0233     		adds	r3, r3, #2
 718 001c 1B88     		ldrh	r3, [r3]
 719 001e 019A     		ldr	r2, [sp, #4]
 720 0020 0299     		ldr	r1, [sp, #8]
 721 0022 FFF7FEFF 		bl	chOQWriteTimeout
 722 0026 0300     		movs	r3, r0
 723              		.loc 7 85 0
 724 0028 1800     		movs	r0, r3
 725 002a 05B0     		add	sp, sp, #20
 726              		@ sp needed
 727 002c 00BD     		pop	{pc}
 728              		.cfi_endproc
 729              	.LFE188:
 730              		.size	writet, .-writet
 731 002e C046     		.section	.text.readt,"ax",%progbits
 732              		.align	1
 733              		.p2align 4,,15
 734              		.syntax unified
 735              		.code	16
 736              		.thumb_func
 737              		.fpu softvfp
 738              		.type	readt, %function
 739              	readt:
 740              	.LFB189:
 741              		.loc 7 87 0
ARM GAS  /tmp/ccC1Xiaz.s 			page 14


 742              		.cfi_startproc
 743              		@ args = 0, pretend = 0, frame = 16
 744              		@ frame_needed = 0, uses_anonymous_args = 0
 745 0000 00B5     		push	{lr}
 746              		.cfi_def_cfa_offset 4
 747              		.cfi_offset 14, -4
 748 0002 85B0     		sub	sp, sp, #20
 749              		.cfi_def_cfa_offset 24
 750 0004 0390     		str	r0, [sp, #12]
 751 0006 0291     		str	r1, [sp, #8]
 752 0008 0192     		str	r2, [sp, #4]
 753 000a 1A00     		movs	r2, r3
 754 000c 6B46     		mov	r3, sp
 755 000e 0233     		adds	r3, r3, #2
 756 0010 1A80     		strh	r2, [r3]
 757              		.loc 7 89 0
 758 0012 039B     		ldr	r3, [sp, #12]
 759 0014 0C33     		adds	r3, r3, #12
 760 0016 1800     		movs	r0, r3
 761 0018 6B46     		mov	r3, sp
 762 001a 0233     		adds	r3, r3, #2
 763 001c 1B88     		ldrh	r3, [r3]
 764 001e 019A     		ldr	r2, [sp, #4]
 765 0020 0299     		ldr	r1, [sp, #8]
 766 0022 FFF7FEFF 		bl	chIQReadTimeout
 767 0026 0300     		movs	r3, r0
 768              		.loc 7 90 0
 769 0028 1800     		movs	r0, r3
 770 002a 05B0     		add	sp, sp, #20
 771              		@ sp needed
 772 002c 00BD     		pop	{pc}
 773              		.cfi_endproc
 774              	.LFE189:
 775              		.size	readt, .-readt
 776 002e C046     		.section	.rodata.vmt,"a",%progbits
 777              		.align	2
 778              		.type	vmt, %object
 779              		.size	vmt, 32
 780              	vmt:
 781 0000 00000000 		.word	write
 782 0004 00000000 		.word	read
 783 0008 00000000 		.word	put
 784 000c 00000000 		.word	get
 785 0010 00000000 		.word	putt
 786 0014 00000000 		.word	gett
 787 0018 00000000 		.word	writet
 788 001c 00000000 		.word	readt
 789              		.section	.text.sdInit,"ax",%progbits
 790              		.align	1
 791              		.p2align 4,,15
 792              		.global	sdInit
 793              		.syntax unified
 794              		.code	16
 795              		.thumb_func
 796              		.fpu softvfp
 797              		.type	sdInit, %function
 798              	sdInit:
ARM GAS  /tmp/ccC1Xiaz.s 			page 15


 799              	.LFB190:
 800              		.loc 7 108 0
 801              		.cfi_startproc
 802              		@ args = 0, pretend = 0, frame = 0
 803              		@ frame_needed = 0, uses_anonymous_args = 0
 804 0000 10B5     		push	{r4, lr}
 805              		.cfi_def_cfa_offset 8
 806              		.cfi_offset 4, -8
 807              		.cfi_offset 14, -4
 808              		.loc 7 110 0
 809 0002 FFF7FEFF 		bl	sd_lld_init
 810              		.loc 7 111 0
 811 0006 C046     		nop
 812              		@ sp needed
 813 0008 10BD     		pop	{r4, pc}
 814              		.cfi_endproc
 815              	.LFE190:
 816              		.size	sdInit, .-sdInit
 817 000a C046     		.section	.text.sdObjectInit,"ax",%progbits
 818              		.align	1
 819              		.p2align 4,,15
 820              		.global	sdObjectInit
 821              		.syntax unified
 822              		.code	16
 823              		.thumb_func
 824              		.fpu softvfp
 825              		.type	sdObjectInit, %function
 826              	sdObjectInit:
 827              	.LFB191:
 828              		.loc 7 128 0
 829              		.cfi_startproc
 830              		@ args = 0, pretend = 0, frame = 16
 831              		@ frame_needed = 0, uses_anonymous_args = 0
 832 0000 00B5     		push	{lr}
 833              		.cfi_def_cfa_offset 4
 834              		.cfi_offset 14, -4
 835 0002 87B0     		sub	sp, sp, #28
 836              		.cfi_def_cfa_offset 32
 837 0004 0590     		str	r0, [sp, #20]
 838 0006 0491     		str	r1, [sp, #16]
 839 0008 0392     		str	r2, [sp, #12]
 840              		.loc 7 130 0
 841 000a 059B     		ldr	r3, [sp, #20]
 842 000c 134A     		ldr	r2, .L44
 843 000e 1A60     		str	r2, [r3]
 844              		.loc 7 131 0
 845 0010 059B     		ldr	r3, [sp, #20]
 846 0012 0433     		adds	r3, r3, #4
 847 0014 1800     		movs	r0, r3
 848 0016 FFF7FEFF 		bl	osalEventObjectInit
 849              		.loc 7 132 0
 850 001a 059B     		ldr	r3, [sp, #20]
 851 001c 0122     		movs	r2, #1
 852 001e 1A72     		strb	r2, [r3, #8]
 853              		.loc 7 133 0
 854 0020 059B     		ldr	r3, [sp, #20]
 855 0022 0C33     		adds	r3, r3, #12
ARM GAS  /tmp/ccC1Xiaz.s 			page 16


 856 0024 1800     		movs	r0, r3
 857 0026 059B     		ldr	r3, [sp, #20]
 858 0028 5433     		adds	r3, r3, #84
 859 002a 1900     		movs	r1, r3
 860 002c 049A     		ldr	r2, [sp, #16]
 861 002e 059B     		ldr	r3, [sp, #20]
 862 0030 0093     		str	r3, [sp]
 863 0032 1300     		movs	r3, r2
 864 0034 8022     		movs	r2, #128
 865 0036 FFF7FEFF 		bl	chIQObjectInit
 866              		.loc 7 134 0
 867 003a 059B     		ldr	r3, [sp, #20]
 868 003c 3033     		adds	r3, r3, #48
 869 003e 1800     		movs	r0, r3
 870 0040 059B     		ldr	r3, [sp, #20]
 871 0042 D433     		adds	r3, r3, #212
 872 0044 1900     		movs	r1, r3
 873 0046 039A     		ldr	r2, [sp, #12]
 874 0048 059B     		ldr	r3, [sp, #20]
 875 004a 0093     		str	r3, [sp]
 876 004c 1300     		movs	r3, r2
 877 004e 8022     		movs	r2, #128
 878 0050 FFF7FEFF 		bl	chOQObjectInit
 879              		.loc 7 135 0
 880 0054 C046     		nop
 881 0056 07B0     		add	sp, sp, #28
 882              		@ sp needed
 883 0058 00BD     		pop	{pc}
 884              	.L45:
 885 005a C046     		.align	2
 886              	.L44:
 887 005c 00000000 		.word	vmt
 888              		.cfi_endproc
 889              	.LFE191:
 890              		.size	sdObjectInit, .-sdObjectInit
 891              		.section	.text.sdStart,"ax",%progbits
 892              		.align	1
 893              		.p2align 4,,15
 894              		.global	sdStart
 895              		.syntax unified
 896              		.code	16
 897              		.thumb_func
 898              		.fpu softvfp
 899              		.type	sdStart, %function
 900              	sdStart:
 901              	.LFB192:
 902              		.loc 7 147 0
 903              		.cfi_startproc
 904              		@ args = 0, pretend = 0, frame = 8
 905              		@ frame_needed = 0, uses_anonymous_args = 0
 906 0000 00B5     		push	{lr}
 907              		.cfi_def_cfa_offset 4
 908              		.cfi_offset 14, -4
 909 0002 83B0     		sub	sp, sp, #12
 910              		.cfi_def_cfa_offset 16
 911 0004 0190     		str	r0, [sp, #4]
 912 0006 0091     		str	r1, [sp]
ARM GAS  /tmp/ccC1Xiaz.s 			page 17


 913              		.loc 7 149 0
 914 0008 019B     		ldr	r3, [sp, #4]
 915 000a 002B     		cmp	r3, #0
 916 000c 03D1     		bne	.L47
 917              		.loc 7 149 0 is_stmt 0 discriminator 2
 918 000e 104B     		ldr	r3, .L49
 919 0010 1800     		movs	r0, r3
 920 0012 FFF7FEFF 		bl	chSysHalt
 921              	.L47:
 922              		.loc 7 151 0 is_stmt 1
 923 0016 FFF7FEFF 		bl	osalSysLock
 924              		.loc 7 152 0
 925 001a 019B     		ldr	r3, [sp, #4]
 926 001c 1B7A     		ldrb	r3, [r3, #8]
 927 001e 012B     		cmp	r3, #1
 928 0020 07D0     		beq	.L48
 929              		.loc 7 152 0 is_stmt 0 discriminator 2
 930 0022 019B     		ldr	r3, [sp, #4]
 931 0024 1B7A     		ldrb	r3, [r3, #8]
 932 0026 022B     		cmp	r3, #2
 933 0028 03D0     		beq	.L48
 934              		.loc 7 152 0 discriminator 3
 935 002a 094B     		ldr	r3, .L49
 936 002c 1800     		movs	r0, r3
 937 002e FFF7FEFF 		bl	chSysHalt
 938              	.L48:
 939              		.loc 7 154 0 is_stmt 1
 940 0032 009A     		ldr	r2, [sp]
 941 0034 019B     		ldr	r3, [sp, #4]
 942 0036 1100     		movs	r1, r2
 943 0038 1800     		movs	r0, r3
 944 003a FFF7FEFF 		bl	sd_lld_start
 945              		.loc 7 155 0
 946 003e 019B     		ldr	r3, [sp, #4]
 947 0040 0222     		movs	r2, #2
 948 0042 1A72     		strb	r2, [r3, #8]
 949              		.loc 7 156 0
 950 0044 FFF7FEFF 		bl	osalSysUnlock
 951              		.loc 7 157 0
 952 0048 C046     		nop
 953 004a 03B0     		add	sp, sp, #12
 954              		@ sp needed
 955 004c 00BD     		pop	{pc}
 956              	.L50:
 957 004e C046     		.align	2
 958              	.L49:
 959 0050 00000000 		.word	__func__.6257
 960              		.cfi_endproc
 961              	.LFE192:
 962              		.size	sdStart, .-sdStart
 963              		.section	.text.sdStop,"ax",%progbits
 964              		.align	1
 965              		.p2align 4,,15
 966              		.global	sdStop
 967              		.syntax unified
 968              		.code	16
 969              		.thumb_func
ARM GAS  /tmp/ccC1Xiaz.s 			page 18


 970              		.fpu softvfp
 971              		.type	sdStop, %function
 972              	sdStop:
 973              	.LFB193:
 974              		.loc 7 168 0
 975              		.cfi_startproc
 976              		@ args = 0, pretend = 0, frame = 8
 977              		@ frame_needed = 0, uses_anonymous_args = 0
 978 0000 00B5     		push	{lr}
 979              		.cfi_def_cfa_offset 4
 980              		.cfi_offset 14, -4
 981 0002 83B0     		sub	sp, sp, #12
 982              		.cfi_def_cfa_offset 16
 983 0004 0190     		str	r0, [sp, #4]
 984              		.loc 7 170 0
 985 0006 019B     		ldr	r3, [sp, #4]
 986 0008 002B     		cmp	r3, #0
 987 000a 03D1     		bne	.L52
 988              		.loc 7 170 0 is_stmt 0 discriminator 2
 989 000c 144B     		ldr	r3, .L54
 990 000e 1800     		movs	r0, r3
 991 0010 FFF7FEFF 		bl	chSysHalt
 992              	.L52:
 993              		.loc 7 172 0 is_stmt 1
 994 0014 FFF7FEFF 		bl	osalSysLock
 995              		.loc 7 173 0
 996 0018 019B     		ldr	r3, [sp, #4]
 997 001a 1B7A     		ldrb	r3, [r3, #8]
 998 001c 012B     		cmp	r3, #1
 999 001e 07D0     		beq	.L53
 1000              		.loc 7 173 0 is_stmt 0 discriminator 2
 1001 0020 019B     		ldr	r3, [sp, #4]
 1002 0022 1B7A     		ldrb	r3, [r3, #8]
 1003 0024 022B     		cmp	r3, #2
 1004 0026 03D0     		beq	.L53
 1005              		.loc 7 173 0 discriminator 3
 1006 0028 0D4B     		ldr	r3, .L54
 1007 002a 1800     		movs	r0, r3
 1008 002c FFF7FEFF 		bl	chSysHalt
 1009              	.L53:
 1010              		.loc 7 175 0 is_stmt 1
 1011 0030 019B     		ldr	r3, [sp, #4]
 1012 0032 1800     		movs	r0, r3
 1013 0034 FFF7FEFF 		bl	sd_lld_stop
 1014              		.loc 7 176 0
 1015 0038 019B     		ldr	r3, [sp, #4]
 1016 003a 0122     		movs	r2, #1
 1017 003c 1A72     		strb	r2, [r3, #8]
 1018              		.loc 7 177 0
 1019 003e 019B     		ldr	r3, [sp, #4]
 1020 0040 3033     		adds	r3, r3, #48
 1021 0042 1800     		movs	r0, r3
 1022 0044 FFF7FEFF 		bl	chOQResetI
 1023              		.loc 7 178 0
 1024 0048 019B     		ldr	r3, [sp, #4]
 1025 004a 0C33     		adds	r3, r3, #12
 1026 004c 1800     		movs	r0, r3
ARM GAS  /tmp/ccC1Xiaz.s 			page 19


 1027 004e FFF7FEFF 		bl	chIQResetI
 1028              		.loc 7 179 0
 1029 0052 FFF7FEFF 		bl	osalOsRescheduleS
 1030              		.loc 7 180 0
 1031 0056 FFF7FEFF 		bl	osalSysUnlock
 1032              		.loc 7 181 0
 1033 005a C046     		nop
 1034 005c 03B0     		add	sp, sp, #12
 1035              		@ sp needed
 1036 005e 00BD     		pop	{pc}
 1037              	.L55:
 1038              		.align	2
 1039              	.L54:
 1040 0060 00000000 		.word	__func__.6261
 1041              		.cfi_endproc
 1042              	.LFE193:
 1043              		.size	sdStop, .-sdStop
 1044              		.section	.text.sdIncomingDataI,"ax",%progbits
 1045              		.align	1
 1046              		.p2align 4,,15
 1047              		.global	sdIncomingDataI
 1048              		.syntax unified
 1049              		.code	16
 1050              		.thumb_func
 1051              		.fpu softvfp
 1052              		.type	sdIncomingDataI, %function
 1053              	sdIncomingDataI:
 1054              	.LFB194:
 1055              		.loc 7 199 0
 1056              		.cfi_startproc
 1057              		@ args = 0, pretend = 0, frame = 8
 1058              		@ frame_needed = 0, uses_anonymous_args = 0
 1059 0000 00B5     		push	{lr}
 1060              		.cfi_def_cfa_offset 4
 1061              		.cfi_offset 14, -4
 1062 0002 83B0     		sub	sp, sp, #12
 1063              		.cfi_def_cfa_offset 16
 1064 0004 0190     		str	r0, [sp, #4]
 1065 0006 0A00     		movs	r2, r1
 1066 0008 6B46     		mov	r3, sp
 1067 000a 0333     		adds	r3, r3, #3
 1068 000c 1A70     		strb	r2, [r3]
 1069              		.loc 7 201 0
 1070 000e FFF7FEFF 		bl	chDbgCheckClassI
 1071              		.loc 7 202 0
 1072 0012 019B     		ldr	r3, [sp, #4]
 1073 0014 002B     		cmp	r3, #0
 1074 0016 03D1     		bne	.L57
 1075              		.loc 7 202 0 is_stmt 0 discriminator 2
 1076 0018 124B     		ldr	r3, .L61
 1077 001a 1800     		movs	r0, r3
 1078 001c FFF7FEFF 		bl	chSysHalt
 1079              	.L57:
 1080              		.loc 7 204 0 is_stmt 1
 1081 0020 019B     		ldr	r3, [sp, #4]
 1082 0022 0C33     		adds	r3, r3, #12
 1083 0024 1800     		movs	r0, r3
ARM GAS  /tmp/ccC1Xiaz.s 			page 20


 1084 0026 FFF7FEFF 		bl	chIQIsEmptyI
 1085 002a 031E     		subs	r3, r0, #0
 1086 002c 05D0     		beq	.L58
 1087              		.loc 7 205 0
 1088 002e 019B     		ldr	r3, [sp, #4]
 1089 0030 0433     		adds	r3, r3, #4
 1090 0032 0421     		movs	r1, #4
 1091 0034 1800     		movs	r0, r3
 1092 0036 FFF7FEFF 		bl	osalEventBroadcastFlagsI
 1093              	.L58:
 1094              		.loc 7 206 0
 1095 003a 019B     		ldr	r3, [sp, #4]
 1096 003c 0C33     		adds	r3, r3, #12
 1097 003e 1A00     		movs	r2, r3
 1098 0040 6B46     		mov	r3, sp
 1099 0042 0333     		adds	r3, r3, #3
 1100 0044 1B78     		ldrb	r3, [r3]
 1101 0046 1900     		movs	r1, r3
 1102 0048 1000     		movs	r0, r2
 1103 004a FFF7FEFF 		bl	chIQPutI
 1104 004e 031E     		subs	r3, r0, #0
 1105 0050 05DA     		bge	.L60
 1106              		.loc 7 207 0
 1107 0052 019B     		ldr	r3, [sp, #4]
 1108 0054 0433     		adds	r3, r3, #4
 1109 0056 8021     		movs	r1, #128
 1110 0058 1800     		movs	r0, r3
 1111 005a FFF7FEFF 		bl	osalEventBroadcastFlagsI
 1112              	.L60:
 1113              		.loc 7 208 0
 1114 005e C046     		nop
 1115 0060 03B0     		add	sp, sp, #12
 1116              		@ sp needed
 1117 0062 00BD     		pop	{pc}
 1118              	.L62:
 1119              		.align	2
 1120              	.L61:
 1121 0064 00000000 		.word	__func__.6266
 1122              		.cfi_endproc
 1123              	.LFE194:
 1124              		.size	sdIncomingDataI, .-sdIncomingDataI
 1125              		.section	.text.sdRequestDataI,"ax",%progbits
 1126              		.align	1
 1127              		.p2align 4,,15
 1128              		.global	sdRequestDataI
 1129              		.syntax unified
 1130              		.code	16
 1131              		.thumb_func
 1132              		.fpu softvfp
 1133              		.type	sdRequestDataI, %function
 1134              	sdRequestDataI:
 1135              	.LFB195:
 1136              		.loc 7 225 0
 1137              		.cfi_startproc
 1138              		@ args = 0, pretend = 0, frame = 16
 1139              		@ frame_needed = 0, uses_anonymous_args = 0
 1140 0000 00B5     		push	{lr}
ARM GAS  /tmp/ccC1Xiaz.s 			page 21


 1141              		.cfi_def_cfa_offset 4
 1142              		.cfi_offset 14, -4
 1143 0002 85B0     		sub	sp, sp, #20
 1144              		.cfi_def_cfa_offset 24
 1145 0004 0190     		str	r0, [sp, #4]
 1146              		.loc 7 228 0
 1147 0006 FFF7FEFF 		bl	chDbgCheckClassI
 1148              		.loc 7 229 0
 1149 000a 019B     		ldr	r3, [sp, #4]
 1150 000c 002B     		cmp	r3, #0
 1151 000e 03D1     		bne	.L64
 1152              		.loc 7 229 0 is_stmt 0 discriminator 2
 1153 0010 0B4B     		ldr	r3, .L67
 1154 0012 1800     		movs	r0, r3
 1155 0014 FFF7FEFF 		bl	chSysHalt
 1156              	.L64:
 1157              		.loc 7 231 0 is_stmt 1
 1158 0018 019B     		ldr	r3, [sp, #4]
 1159 001a 3033     		adds	r3, r3, #48
 1160 001c 1800     		movs	r0, r3
 1161 001e FFF7FEFF 		bl	chOQGetI
 1162 0022 0300     		movs	r3, r0
 1163 0024 0393     		str	r3, [sp, #12]
 1164              		.loc 7 232 0
 1165 0026 039B     		ldr	r3, [sp, #12]
 1166 0028 002B     		cmp	r3, #0
 1167 002a 05DA     		bge	.L65
 1168              		.loc 7 233 0
 1169 002c 019B     		ldr	r3, [sp, #4]
 1170 002e 0433     		adds	r3, r3, #4
 1171 0030 0821     		movs	r1, #8
 1172 0032 1800     		movs	r0, r3
 1173 0034 FFF7FEFF 		bl	osalEventBroadcastFlagsI
 1174              	.L65:
 1175              		.loc 7 234 0
 1176 0038 039B     		ldr	r3, [sp, #12]
 1177              		.loc 7 235 0
 1178 003a 1800     		movs	r0, r3
 1179 003c 05B0     		add	sp, sp, #20
 1180              		@ sp needed
 1181 003e 00BD     		pop	{pc}
 1182              	.L68:
 1183              		.align	2
 1184              	.L67:
 1185 0040 00000000 		.word	__func__.6271
 1186              		.cfi_endproc
 1187              	.LFE195:
 1188              		.size	sdRequestDataI, .-sdRequestDataI
 1189              		.section	.text.sdPutWouldBlock,"ax",%progbits
 1190              		.align	1
 1191              		.p2align 4,,15
 1192              		.global	sdPutWouldBlock
 1193              		.syntax unified
 1194              		.code	16
 1195              		.thumb_func
 1196              		.fpu softvfp
 1197              		.type	sdPutWouldBlock, %function
ARM GAS  /tmp/ccC1Xiaz.s 			page 22


 1198              	sdPutWouldBlock:
 1199              	.LFB196:
 1200              		.loc 7 252 0
 1201              		.cfi_startproc
 1202              		@ args = 0, pretend = 0, frame = 16
 1203              		@ frame_needed = 0, uses_anonymous_args = 0
 1204 0000 10B5     		push	{r4, lr}
 1205              		.cfi_def_cfa_offset 8
 1206              		.cfi_offset 4, -8
 1207              		.cfi_offset 14, -4
 1208 0002 84B0     		sub	sp, sp, #16
 1209              		.cfi_def_cfa_offset 24
 1210 0004 0190     		str	r0, [sp, #4]
 1211              		.loc 7 255 0
 1212 0006 FFF7FEFF 		bl	osalSysLock
 1213              		.loc 7 256 0
 1214 000a 019B     		ldr	r3, [sp, #4]
 1215 000c 3033     		adds	r3, r3, #48
 1216 000e 0F24     		movs	r4, #15
 1217 0010 6C44     		add	r4, r4, sp
 1218 0012 1800     		movs	r0, r3
 1219 0014 FFF7FEFF 		bl	chOQIsFullI
 1220 0018 0300     		movs	r3, r0
 1221 001a 2370     		strb	r3, [r4]
 1222              		.loc 7 257 0
 1223 001c FFF7FEFF 		bl	osalSysUnlock
 1224              		.loc 7 259 0
 1225 0020 0F23     		movs	r3, #15
 1226 0022 6B44     		add	r3, r3, sp
 1227 0024 1B78     		ldrb	r3, [r3]
 1228              		.loc 7 260 0
 1229 0026 1800     		movs	r0, r3
 1230 0028 04B0     		add	sp, sp, #16
 1231              		@ sp needed
 1232 002a 10BD     		pop	{r4, pc}
 1233              		.cfi_endproc
 1234              	.LFE196:
 1235              		.size	sdPutWouldBlock, .-sdPutWouldBlock
 1236              		.section	.text.sdGetWouldBlock,"ax",%progbits
 1237              		.align	1
 1238              		.p2align 4,,15
 1239              		.global	sdGetWouldBlock
 1240              		.syntax unified
 1241              		.code	16
 1242              		.thumb_func
 1243              		.fpu softvfp
 1244              		.type	sdGetWouldBlock, %function
 1245              	sdGetWouldBlock:
 1246              	.LFB197:
 1247              		.loc 7 277 0
 1248              		.cfi_startproc
 1249              		@ args = 0, pretend = 0, frame = 16
 1250              		@ frame_needed = 0, uses_anonymous_args = 0
 1251 0000 10B5     		push	{r4, lr}
 1252              		.cfi_def_cfa_offset 8
 1253              		.cfi_offset 4, -8
 1254              		.cfi_offset 14, -4
ARM GAS  /tmp/ccC1Xiaz.s 			page 23


 1255 0002 84B0     		sub	sp, sp, #16
 1256              		.cfi_def_cfa_offset 24
 1257 0004 0190     		str	r0, [sp, #4]
 1258              		.loc 7 280 0
 1259 0006 FFF7FEFF 		bl	osalSysLock
 1260              		.loc 7 281 0
 1261 000a 019B     		ldr	r3, [sp, #4]
 1262 000c 0C33     		adds	r3, r3, #12
 1263 000e 0F24     		movs	r4, #15
 1264 0010 6C44     		add	r4, r4, sp
 1265 0012 1800     		movs	r0, r3
 1266 0014 FFF7FEFF 		bl	chIQIsEmptyI
 1267 0018 0300     		movs	r3, r0
 1268 001a 2370     		strb	r3, [r4]
 1269              		.loc 7 282 0
 1270 001c FFF7FEFF 		bl	osalSysUnlock
 1271              		.loc 7 284 0
 1272 0020 0F23     		movs	r3, #15
 1273 0022 6B44     		add	r3, r3, sp
 1274 0024 1B78     		ldrb	r3, [r3]
 1275              		.loc 7 285 0
 1276 0026 1800     		movs	r0, r3
 1277 0028 04B0     		add	sp, sp, #16
 1278              		@ sp needed
 1279 002a 10BD     		pop	{r4, pc}
 1280              		.cfi_endproc
 1281              	.LFE197:
 1282              		.size	sdGetWouldBlock, .-sdGetWouldBlock
 1283              		.section	.rodata.__func__.6257,"a",%progbits
 1284              		.align	2
 1285              		.type	__func__.6257, %object
 1286              		.size	__func__.6257, 8
 1287              	__func__.6257:
 1288 0000 73645374 		.ascii	"sdStart\000"
 1288      61727400 
 1289              		.section	.rodata.__func__.4993,"a",%progbits
 1290              		.align	2
 1291              		.type	__func__.4993, %object
 1292              		.size	__func__.4993, 12
 1293              	__func__.4993:
 1294 0000 63685379 		.ascii	"chSysUnlock\000"
 1294      73556E6C 
 1294      6F636B00 
 1295              		.section	.rodata.__func__.6261,"a",%progbits
 1296              		.align	2
 1297              		.type	__func__.6261, %object
 1298              		.size	__func__.6261, 7
 1299              	__func__.6261:
 1300 0000 73645374 		.ascii	"sdStop\000"
 1300      6F7000
 1301              		.section	.rodata.__func__.6266,"a",%progbits
 1302              		.align	2
 1303              		.type	__func__.6266, %object
 1304              		.size	__func__.6266, 16
 1305              	__func__.6266:
 1306 0000 7364496E 		.ascii	"sdIncomingDataI\000"
 1306      636F6D69 
ARM GAS  /tmp/ccC1Xiaz.s 			page 24


 1306      6E674461 
 1306      74614900 
 1307              		.section	.rodata.__func__.6271,"a",%progbits
 1308              		.align	2
 1309              		.type	__func__.6271, %object
 1310              		.size	__func__.6271, 15
 1311              	__func__.6271:
 1312 0000 73645265 		.ascii	"sdRequestDataI\000"
 1312      71756573 
 1312      74446174 
 1312      614900
 1313              		.text
 1314              	.Letext0:
 1315              		.file 8 "/home/felix/opt/gcc-arm-none-eabi-6-2017-q1-update/lib/gcc/arm-none-eabi/6.3.1/include/st
 1316              		.file 9 "/home/felix/opt/gcc-arm-none-eabi-6-2017-q1-update/arm-none-eabi/include/machine/_default
 1317              		.file 10 "/home/felix/opt/gcc-arm-none-eabi-6-2017-q1-update/arm-none-eabi/include/sys/_stdint.h"
 1318              		.file 11 "ChibiOS/os/rt/ports/ARMCMx/compilers/GCC/chtypes.h"
 1319              		.file 12 "ChibiOS/os/rt/include/chsystypes.h"
 1320              		.file 13 "ChibiOS/os/rt/include/chschd.h"
 1321              		.file 14 "ChibiOS/os/ext/CMSIS/ST/STM32F0xx/stm32f030xc.h"
 1322              		.file 15 "ChibiOS/os/rt/ports/ARMCMx/chcore.h"
 1323              		.file 16 "ChibiOS/os/rt/include/chdebug.h"
 1324              		.file 17 "ChibiOS/os/rt/include/chsem.h"
 1325              		.file 18 "ChibiOS/os/rt/include/chmtx.h"
 1326              		.file 19 "ChibiOS/os/rt/include/chregistry.h"
 1327              		.file 20 "ChibiOS/os/ext/CMSIS/ST/STM32F0xx/system_stm32f0xx.h"
 1328              		.file 21 "ChibiOS/os/hal/ports/STM32/LLD/DMAv1/stm32_dma.h"
 1329              		.file 22 "ChibiOS/os/hal/ports/STM32/LLD/GPIOv2/pal_lld.h"
 1330              		.file 23 "ChibiOS/os/hal/include/serial.h"
 1331              		.file 24 "ChibiOS/os/hal/ports/STM32/LLD/USARTv2/serial_lld.h"