ARM GAS  /tmp/cc6eU8gD.s 			page 1


   1              		.cpu cortex-m0
   2              		.eabi_attribute 20, 1
   3              		.eabi_attribute 21, 1
   4              		.eabi_attribute 23, 3
   5              		.eabi_attribute 24, 1
   6              		.eabi_attribute 25, 1
   7              		.eabi_attribute 26, 1
   8              		.eabi_attribute 30, 6
   9              		.eabi_attribute 34, 0
  10              		.eabi_attribute 18, 4
  11              		.file	"st.c"
  12              		.text
  13              	.Ltext0:
  14              		.cfi_sections	.debug_frame
  15              		.section	.text.st_lld_start_alarm,"ax",%progbits
  16              		.align	1
  17              		.p2align 4,,15
  18              		.syntax unified
  19              		.code	16
  20              		.thumb_func
  21              		.fpu softvfp
  22              		.type	st_lld_start_alarm, %function
  23              	st_lld_start_alarm:
  24              	.LFB47:
  25              		.file 1 "ChibiOS/os/hal/ports/STM32/LLD/TIMv1/st_lld.h"
  26              		.loc 1 153 0
  27              		.cfi_startproc
  28              		@ args = 0, pretend = 0, frame = 8
  29              		@ frame_needed = 0, uses_anonymous_args = 0
  30              		@ link register save eliminated.
  31 0000 82B0     		sub	sp, sp, #8
  32              		.cfi_def_cfa_offset 8
  33 0002 0200     		movs	r2, r0
  34 0004 6B46     		mov	r3, sp
  35 0006 0633     		adds	r3, r3, #6
  36 0008 1A80     		strh	r2, [r3]
  37              		.loc 1 155 0
  38 000a 074B     		ldr	r3, .L2
  39 000c 6A46     		mov	r2, sp
  40 000e 0632     		adds	r2, r2, #6
  41 0010 1288     		ldrh	r2, [r2]
  42 0012 5A63     		str	r2, [r3, #52]
  43              		.loc 1 156 0
  44 0014 044B     		ldr	r3, .L2
  45 0016 0022     		movs	r2, #0
  46 0018 1A61     		str	r2, [r3, #16]
  47              		.loc 1 157 0
  48 001a 034B     		ldr	r3, .L2
  49 001c 0222     		movs	r2, #2
  50 001e DA60     		str	r2, [r3, #12]
  51              		.loc 1 158 0
  52 0020 C046     		nop
  53 0022 02B0     		add	sp, sp, #8
  54              		@ sp needed
  55 0024 7047     		bx	lr
  56              	.L3:
  57 0026 C046     		.align	2
ARM GAS  /tmp/cc6eU8gD.s 			page 2


  58              	.L2:
  59 0028 00040040 		.word	1073742848
  60              		.cfi_endproc
  61              	.LFE47:
  62              		.size	st_lld_start_alarm, .-st_lld_start_alarm
  63              		.section	.text.st_lld_stop_alarm,"ax",%progbits
  64              		.align	1
  65              		.p2align 4,,15
  66              		.syntax unified
  67              		.code	16
  68              		.thumb_func
  69              		.fpu softvfp
  70              		.type	st_lld_stop_alarm, %function
  71              	st_lld_stop_alarm:
  72              	.LFB48:
  73              		.loc 1 165 0
  74              		.cfi_startproc
  75              		@ args = 0, pretend = 0, frame = 0
  76              		@ frame_needed = 0, uses_anonymous_args = 0
  77              		@ link register save eliminated.
  78              		.loc 1 167 0
  79 0000 024B     		ldr	r3, .L5
  80 0002 0022     		movs	r2, #0
  81 0004 DA60     		str	r2, [r3, #12]
  82              		.loc 1 168 0
  83 0006 C046     		nop
  84              		@ sp needed
  85 0008 7047     		bx	lr
  86              	.L6:
  87 000a C046     		.align	2
  88              	.L5:
  89 000c 00040040 		.word	1073742848
  90              		.cfi_endproc
  91              	.LFE48:
  92              		.size	st_lld_stop_alarm, .-st_lld_stop_alarm
  93              		.section	.text.st_lld_set_alarm,"ax",%progbits
  94              		.align	1
  95              		.p2align 4,,15
  96              		.syntax unified
  97              		.code	16
  98              		.thumb_func
  99              		.fpu softvfp
 100              		.type	st_lld_set_alarm, %function
 101              	st_lld_set_alarm:
 102              	.LFB49:
 103              		.loc 1 177 0
 104              		.cfi_startproc
 105              		@ args = 0, pretend = 0, frame = 8
 106              		@ frame_needed = 0, uses_anonymous_args = 0
 107              		@ link register save eliminated.
 108 0000 82B0     		sub	sp, sp, #8
 109              		.cfi_def_cfa_offset 8
 110 0002 0200     		movs	r2, r0
 111 0004 6B46     		mov	r3, sp
 112 0006 0633     		adds	r3, r3, #6
 113 0008 1A80     		strh	r2, [r3]
 114              		.loc 1 179 0
ARM GAS  /tmp/cc6eU8gD.s 			page 3


 115 000a 044B     		ldr	r3, .L8
 116 000c 6A46     		mov	r2, sp
 117 000e 0632     		adds	r2, r2, #6
 118 0010 1288     		ldrh	r2, [r2]
 119 0012 5A63     		str	r2, [r3, #52]
 120              		.loc 1 180 0
 121 0014 C046     		nop
 122 0016 02B0     		add	sp, sp, #8
 123              		@ sp needed
 124 0018 7047     		bx	lr
 125              	.L9:
 126 001a C046     		.align	2
 127              	.L8:
 128 001c 00040040 		.word	1073742848
 129              		.cfi_endproc
 130              	.LFE49:
 131              		.size	st_lld_set_alarm, .-st_lld_set_alarm
 132              		.section	.text.st_lld_get_alarm,"ax",%progbits
 133              		.align	1
 134              		.p2align 4,,15
 135              		.syntax unified
 136              		.code	16
 137              		.thumb_func
 138              		.fpu softvfp
 139              		.type	st_lld_get_alarm, %function
 140              	st_lld_get_alarm:
 141              	.LFB50:
 142              		.loc 1 189 0
 143              		.cfi_startproc
 144              		@ args = 0, pretend = 0, frame = 0
 145              		@ frame_needed = 0, uses_anonymous_args = 0
 146              		@ link register save eliminated.
 147              		.loc 1 191 0
 148 0000 024B     		ldr	r3, .L12
 149 0002 5B6B     		ldr	r3, [r3, #52]
 150 0004 9BB2     		uxth	r3, r3
 151              		.loc 1 192 0
 152 0006 1800     		movs	r0, r3
 153              		@ sp needed
 154 0008 7047     		bx	lr
 155              	.L13:
 156 000a C046     		.align	2
 157              	.L12:
 158 000c 00040040 		.word	1073742848
 159              		.cfi_endproc
 160              	.LFE50:
 161              		.size	st_lld_get_alarm, .-st_lld_get_alarm
 162              		.section	.text.st_lld_is_alarm_active,"ax",%progbits
 163              		.align	1
 164              		.p2align 4,,15
 165              		.syntax unified
 166              		.code	16
 167              		.thumb_func
 168              		.fpu softvfp
 169              		.type	st_lld_is_alarm_active, %function
 170              	st_lld_is_alarm_active:
 171              	.LFB51:
ARM GAS  /tmp/cc6eU8gD.s 			page 4


 172              		.loc 1 203 0
 173              		.cfi_startproc
 174              		@ args = 0, pretend = 0, frame = 0
 175              		@ frame_needed = 0, uses_anonymous_args = 0
 176              		@ link register save eliminated.
 177              		.loc 1 205 0
 178 0000 044B     		ldr	r3, .L16
 179 0002 DB68     		ldr	r3, [r3, #12]
 180 0004 0222     		movs	r2, #2
 181 0006 1340     		ands	r3, r2
 182 0008 5A1E     		subs	r2, r3, #1
 183 000a 9341     		sbcs	r3, r3, r2
 184 000c DBB2     		uxtb	r3, r3
 185              		.loc 1 206 0
 186 000e 1800     		movs	r0, r3
 187              		@ sp needed
 188 0010 7047     		bx	lr
 189              	.L17:
 190 0012 C046     		.align	2
 191              	.L16:
 192 0014 00040040 		.word	1073742848
 193              		.cfi_endproc
 194              	.LFE51:
 195              		.size	st_lld_is_alarm_active, .-st_lld_is_alarm_active
 196              		.section	.text.stInit,"ax",%progbits
 197              		.align	1
 198              		.p2align 4,,15
 199              		.global	stInit
 200              		.syntax unified
 201              		.code	16
 202              		.thumb_func
 203              		.fpu softvfp
 204              		.type	stInit, %function
 205              	stInit:
 206              	.LFB182:
 207              		.file 2 "ChibiOS/os/hal/src/st.c"
 208              		.loc 2 60 0
 209              		.cfi_startproc
 210              		@ args = 0, pretend = 0, frame = 0
 211              		@ frame_needed = 0, uses_anonymous_args = 0
 212 0000 10B5     		push	{r4, lr}
 213              		.cfi_def_cfa_offset 8
 214              		.cfi_offset 4, -8
 215              		.cfi_offset 14, -4
 216              		.loc 2 62 0
 217 0002 FFF7FEFF 		bl	st_lld_init
 218              		.loc 2 63 0
 219 0006 C046     		nop
 220              		@ sp needed
 221 0008 10BD     		pop	{r4, pc}
 222              		.cfi_endproc
 223              	.LFE182:
 224              		.size	stInit, .-stInit
 225 000a C046     		.section	.text.stStartAlarm,"ax",%progbits
 226              		.align	1
 227              		.p2align 4,,15
 228              		.global	stStartAlarm
ARM GAS  /tmp/cc6eU8gD.s 			page 5


 229              		.syntax unified
 230              		.code	16
 231              		.thumb_func
 232              		.fpu softvfp
 233              		.type	stStartAlarm, %function
 234              	stStartAlarm:
 235              	.LFB183:
 236              		.loc 2 77 0
 237              		.cfi_startproc
 238              		@ args = 0, pretend = 0, frame = 8
 239              		@ frame_needed = 0, uses_anonymous_args = 0
 240 0000 00B5     		push	{lr}
 241              		.cfi_def_cfa_offset 4
 242              		.cfi_offset 14, -4
 243 0002 83B0     		sub	sp, sp, #12
 244              		.cfi_def_cfa_offset 16
 245 0004 0200     		movs	r2, r0
 246 0006 6B46     		mov	r3, sp
 247 0008 0633     		adds	r3, r3, #6
 248 000a 1A80     		strh	r2, [r3]
 249              		.loc 2 79 0
 250 000c FFF7FEFF 		bl	st_lld_is_alarm_active
 251 0010 031E     		subs	r3, r0, #0
 252 0012 03D0     		beq	.L20
 253              		.loc 2 79 0 is_stmt 0 discriminator 2
 254 0014 064B     		ldr	r3, .L21
 255 0016 1800     		movs	r0, r3
 256 0018 FFF7FEFF 		bl	chSysHalt
 257              	.L20:
 258              		.loc 2 81 0 is_stmt 1
 259 001c 6B46     		mov	r3, sp
 260 001e 0633     		adds	r3, r3, #6
 261 0020 1B88     		ldrh	r3, [r3]
 262 0022 1800     		movs	r0, r3
 263 0024 FFF7FEFF 		bl	st_lld_start_alarm
 264              		.loc 2 82 0
 265 0028 C046     		nop
 266 002a 03B0     		add	sp, sp, #12
 267              		@ sp needed
 268 002c 00BD     		pop	{pc}
 269              	.L22:
 270 002e C046     		.align	2
 271              	.L21:
 272 0030 00000000 		.word	__func__.6211
 273              		.cfi_endproc
 274              	.LFE183:
 275              		.size	stStartAlarm, .-stStartAlarm
 276              		.section	.text.stStopAlarm,"ax",%progbits
 277              		.align	1
 278              		.p2align 4,,15
 279              		.global	stStopAlarm
 280              		.syntax unified
 281              		.code	16
 282              		.thumb_func
 283              		.fpu softvfp
 284              		.type	stStopAlarm, %function
 285              	stStopAlarm:
ARM GAS  /tmp/cc6eU8gD.s 			page 6


 286              	.LFB184:
 287              		.loc 2 91 0
 288              		.cfi_startproc
 289              		@ args = 0, pretend = 0, frame = 0
 290              		@ frame_needed = 0, uses_anonymous_args = 0
 291 0000 10B5     		push	{r4, lr}
 292              		.cfi_def_cfa_offset 8
 293              		.cfi_offset 4, -8
 294              		.cfi_offset 14, -4
 295              		.loc 2 93 0
 296 0002 FFF7FEFF 		bl	st_lld_stop_alarm
 297              		.loc 2 94 0
 298 0006 C046     		nop
 299              		@ sp needed
 300 0008 10BD     		pop	{r4, pc}
 301              		.cfi_endproc
 302              	.LFE184:
 303              		.size	stStopAlarm, .-stStopAlarm
 304 000a C046     		.section	.text.stSetAlarm,"ax",%progbits
 305              		.align	1
 306              		.p2align 4,,15
 307              		.global	stSetAlarm
 308              		.syntax unified
 309              		.code	16
 310              		.thumb_func
 311              		.fpu softvfp
 312              		.type	stSetAlarm, %function
 313              	stSetAlarm:
 314              	.LFB185:
 315              		.loc 2 105 0
 316              		.cfi_startproc
 317              		@ args = 0, pretend = 0, frame = 8
 318              		@ frame_needed = 0, uses_anonymous_args = 0
 319 0000 00B5     		push	{lr}
 320              		.cfi_def_cfa_offset 4
 321              		.cfi_offset 14, -4
 322 0002 83B0     		sub	sp, sp, #12
 323              		.cfi_def_cfa_offset 16
 324 0004 0200     		movs	r2, r0
 325 0006 6B46     		mov	r3, sp
 326 0008 0633     		adds	r3, r3, #6
 327 000a 1A80     		strh	r2, [r3]
 328              		.loc 2 107 0
 329 000c FFF7FEFF 		bl	st_lld_is_alarm_active
 330 0010 0300     		movs	r3, r0
 331 0012 1A00     		movs	r2, r3
 332 0014 0123     		movs	r3, #1
 333 0016 5340     		eors	r3, r2
 334 0018 DBB2     		uxtb	r3, r3
 335 001a 002B     		cmp	r3, #0
 336 001c 03D0     		beq	.L25
 337              		.loc 2 107 0 is_stmt 0 discriminator 2
 338 001e 064B     		ldr	r3, .L26
 339 0020 1800     		movs	r0, r3
 340 0022 FFF7FEFF 		bl	chSysHalt
 341              	.L25:
 342              		.loc 2 109 0 is_stmt 1
ARM GAS  /tmp/cc6eU8gD.s 			page 7


 343 0026 6B46     		mov	r3, sp
 344 0028 0633     		adds	r3, r3, #6
 345 002a 1B88     		ldrh	r3, [r3]
 346 002c 1800     		movs	r0, r3
 347 002e FFF7FEFF 		bl	st_lld_set_alarm
 348              		.loc 2 110 0
 349 0032 C046     		nop
 350 0034 03B0     		add	sp, sp, #12
 351              		@ sp needed
 352 0036 00BD     		pop	{pc}
 353              	.L27:
 354              		.align	2
 355              	.L26:
 356 0038 00000000 		.word	__func__.6218
 357              		.cfi_endproc
 358              	.LFE185:
 359              		.size	stSetAlarm, .-stSetAlarm
 360              		.section	.text.stGetAlarm,"ax",%progbits
 361              		.align	1
 362              		.p2align 4,,15
 363              		.global	stGetAlarm
 364              		.syntax unified
 365              		.code	16
 366              		.thumb_func
 367              		.fpu softvfp
 368              		.type	stGetAlarm, %function
 369              	stGetAlarm:
 370              	.LFB186:
 371              		.loc 2 121 0
 372              		.cfi_startproc
 373              		@ args = 0, pretend = 0, frame = 0
 374              		@ frame_needed = 0, uses_anonymous_args = 0
 375 0000 10B5     		push	{r4, lr}
 376              		.cfi_def_cfa_offset 8
 377              		.cfi_offset 4, -8
 378              		.cfi_offset 14, -4
 379              		.loc 2 123 0
 380 0002 FFF7FEFF 		bl	st_lld_is_alarm_active
 381 0006 0300     		movs	r3, r0
 382 0008 1A00     		movs	r2, r3
 383 000a 0123     		movs	r3, #1
 384 000c 5340     		eors	r3, r2
 385 000e DBB2     		uxtb	r3, r3
 386 0010 002B     		cmp	r3, #0
 387 0012 03D0     		beq	.L29
 388              		.loc 2 123 0 is_stmt 0 discriminator 2
 389 0014 044B     		ldr	r3, .L31
 390 0016 1800     		movs	r0, r3
 391 0018 FFF7FEFF 		bl	chSysHalt
 392              	.L29:
 393              		.loc 2 125 0 is_stmt 1
 394 001c FFF7FEFF 		bl	st_lld_get_alarm
 395 0020 0300     		movs	r3, r0
 396              		.loc 2 126 0
 397 0022 1800     		movs	r0, r3
 398              		@ sp needed
 399 0024 10BD     		pop	{r4, pc}
ARM GAS  /tmp/cc6eU8gD.s 			page 8


 400              	.L32:
 401 0026 C046     		.align	2
 402              	.L31:
 403 0028 00000000 		.word	__func__.6222
 404              		.cfi_endproc
 405              	.LFE186:
 406              		.size	stGetAlarm, .-stGetAlarm
 407              		.section	.rodata.__func__.6211,"a",%progbits
 408              		.align	2
 409              		.type	__func__.6211, %object
 410              		.size	__func__.6211, 13
 411              	__func__.6211:
 412 0000 73745374 		.ascii	"stStartAlarm\000"
 412      61727441 
 412      6C61726D 
 412      00
 413              		.section	.rodata.__func__.6218,"a",%progbits
 414              		.align	2
 415              		.type	__func__.6218, %object
 416              		.size	__func__.6218, 11
 417              	__func__.6218:
 418 0000 73745365 		.ascii	"stSetAlarm\000"
 418      74416C61 
 418      726D00
 419              		.section	.rodata.__func__.6222,"a",%progbits
 420              		.align	2
 421              		.type	__func__.6222, %object
 422              		.size	__func__.6222, 11
 423              	__func__.6222:
 424 0000 73744765 		.ascii	"stGetAlarm\000"
 424      74416C61 
 424      726D00
 425              		.text
 426              	.Letext0:
 427              		.file 3 "/home/felix/opt/gcc-arm-none-eabi-6-2017-q1-update/lib/gcc/arm-none-eabi/6.3.1/include/st
 428              		.file 4 "/home/felix/opt/gcc-arm-none-eabi-6-2017-q1-update/arm-none-eabi/include/machine/_default
 429              		.file 5 "/home/felix/opt/gcc-arm-none-eabi-6-2017-q1-update/arm-none-eabi/include/sys/_stdint.h"
 430              		.file 6 "ChibiOS/os/rt/ports/ARMCMx/compilers/GCC/chtypes.h"
 431              		.file 7 "ChibiOS/os/rt/include/chsystypes.h"
 432              		.file 8 "ChibiOS/os/rt/include/chschd.h"
 433              		.file 9 "ChibiOS/os/ext/CMSIS/ST/STM32F0xx/stm32f030xc.h"
 434              		.file 10 "ChibiOS/os/rt/ports/ARMCMx/chcore.h"
 435              		.file 11 "ChibiOS/os/rt/ports/ARMCMx/chcore_v6m.h"
 436              		.file 12 "ChibiOS/os/hal/ports/STM32/LLD/TIMv1/stm32_tim.h"
 437              		.file 13 "ChibiOS/os/rt/include/chdebug.h"
 438              		.file 14 "ChibiOS/os/rt/include/chsem.h"
 439              		.file 15 "ChibiOS/os/rt/include/chmtx.h"
 440              		.file 16 "ChibiOS/os/rt/include/chregistry.h"
 441              		.file 17 "ChibiOS/os/ext/CMSIS/ST/STM32F0xx/system_stm32f0xx.h"
 442              		.file 18 "ChibiOS/os/rt/include/chevents.h"
 443              		.file 19 "ChibiOS/os/rt/include/chqueues.h"
 444              		.file 20 "ChibiOS/os/hal/ports/STM32/LLD/DMAv1/stm32_dma.h"
 445              		.file 21 "ChibiOS/os/hal/ports/STM32/LLD/GPIOv2/pal_lld.h"
 446              		.file 22 "ChibiOS/os/hal/include/serial.h"
 447              		.file 23 "ChibiOS/os/hal/ports/STM32/LLD/USARTv2/serial_lld.h"
 448              		.section	.debug_info,"",%progbits
 449              	.Ldebug_info0:
ARM GAS  /tmp/cc6eU8gD.s 			page 9


 450 0000 45110000 		.4byte	0x1145
 451 0004 0400     		.2byte	0x4
 452 0006 00000000 		.4byte	.Ldebug_abbrev0
 453 000a 04       		.byte	0x4
 454 000b 01       		.uleb128 0x1
 455 000c 9A030000 		.4byte	.LASF237
 456 0010 0C       		.byte	0xc
 457 0011 FE050000 		.4byte	.LASF238
 458 0015 CB010000 		.4byte	.LASF239
 459 0019 00000000 		.4byte	.Ldebug_ranges0+0
 460 001d 00000000 		.4byte	0
 461 0021 00000000 		.4byte	.Ldebug_line0
 462 0025 02       		.uleb128 0x2
 463 0026 04       		.byte	0x4
 464 0027 05       		.byte	0x5
 465 0028 696E7400 		.ascii	"int\000"
 466 002c 03       		.uleb128 0x3
 467 002d 4B030000 		.4byte	.LASF4
 468 0031 03       		.byte	0x3
 469 0032 D8       		.byte	0xd8
 470 0033 3C000000 		.4byte	0x3c
 471 0037 04       		.uleb128 0x4
 472 0038 2C000000 		.4byte	0x2c
 473 003c 05       		.uleb128 0x5
 474 003d 04       		.byte	0x4
 475 003e 07       		.byte	0x7
 476 003f D7000000 		.4byte	.LASF0
 477 0043 05       		.uleb128 0x5
 478 0044 08       		.byte	0x8
 479 0045 05       		.byte	0x5
 480 0046 16060000 		.4byte	.LASF1
 481 004a 05       		.uleb128 0x5
 482 004b 08       		.byte	0x8
 483 004c 04       		.byte	0x4
 484 004d 23070000 		.4byte	.LASF2
 485 0051 05       		.uleb128 0x5
 486 0052 01       		.byte	0x1
 487 0053 06       		.byte	0x6
 488 0054 BE090000 		.4byte	.LASF3
 489 0058 03       		.uleb128 0x3
 490 0059 53080000 		.4byte	.LASF5
 491 005d 04       		.byte	0x4
 492 005e 2B       		.byte	0x2b
 493 005f 63000000 		.4byte	0x63
 494 0063 05       		.uleb128 0x5
 495 0064 01       		.byte	0x1
 496 0065 08       		.byte	0x8
 497 0066 1A090000 		.4byte	.LASF6
 498 006a 05       		.uleb128 0x5
 499 006b 02       		.byte	0x2
 500 006c 05       		.byte	0x5
 501 006d A5070000 		.4byte	.LASF7
 502 0071 03       		.uleb128 0x3
 503 0072 C9020000 		.4byte	.LASF8
 504 0076 04       		.byte	0x4
 505 0077 39       		.byte	0x39
 506 0078 7C000000 		.4byte	0x7c
ARM GAS  /tmp/cc6eU8gD.s 			page 10


 507 007c 05       		.uleb128 0x5
 508 007d 02       		.byte	0x2
 509 007e 07       		.byte	0x7
 510 007f E6090000 		.4byte	.LASF9
 511 0083 03       		.uleb128 0x3
 512 0084 FB000000 		.4byte	.LASF10
 513 0088 04       		.byte	0x4
 514 0089 4D       		.byte	0x4d
 515 008a 8E000000 		.4byte	0x8e
 516 008e 05       		.uleb128 0x5
 517 008f 04       		.byte	0x4
 518 0090 05       		.byte	0x5
 519 0091 D7070000 		.4byte	.LASF11
 520 0095 03       		.uleb128 0x3
 521 0096 28090000 		.4byte	.LASF12
 522 009a 04       		.byte	0x4
 523 009b 4F       		.byte	0x4f
 524 009c A0000000 		.4byte	0xa0
 525 00a0 05       		.uleb128 0x5
 526 00a1 04       		.byte	0x4
 527 00a2 07       		.byte	0x7
 528 00a3 C2080000 		.4byte	.LASF13
 529 00a7 03       		.uleb128 0x3
 530 00a8 78040000 		.4byte	.LASF14
 531 00ac 04       		.byte	0x4
 532 00ad 69       		.byte	0x69
 533 00ae B2000000 		.4byte	0xb2
 534 00b2 05       		.uleb128 0x5
 535 00b3 08       		.byte	0x8
 536 00b4 07       		.byte	0x7
 537 00b5 92020000 		.4byte	.LASF15
 538 00b9 03       		.uleb128 0x3
 539 00ba 95050000 		.4byte	.LASF16
 540 00be 05       		.byte	0x5
 541 00bf 18       		.byte	0x18
 542 00c0 58000000 		.4byte	0x58
 543 00c4 06       		.uleb128 0x6
 544 00c5 B9000000 		.4byte	0xb9
 545 00c9 03       		.uleb128 0x3
 546 00ca 36070000 		.4byte	.LASF17
 547 00ce 05       		.byte	0x5
 548 00cf 24       		.byte	0x24
 549 00d0 71000000 		.4byte	0x71
 550 00d4 04       		.uleb128 0x4
 551 00d5 C9000000 		.4byte	0xc9
 552 00d9 03       		.uleb128 0x3
 553 00da EE080000 		.4byte	.LASF18
 554 00de 05       		.byte	0x5
 555 00df 2C       		.byte	0x2c
 556 00e0 83000000 		.4byte	0x83
 557 00e4 03       		.uleb128 0x3
 558 00e5 E8010000 		.4byte	.LASF19
 559 00e9 05       		.byte	0x5
 560 00ea 30       		.byte	0x30
 561 00eb 95000000 		.4byte	0x95
 562 00ef 04       		.uleb128 0x4
 563 00f0 E4000000 		.4byte	0xe4
ARM GAS  /tmp/cc6eU8gD.s 			page 11


 564 00f4 03       		.uleb128 0x3
 565 00f5 1D080000 		.4byte	.LASF20
 566 00f9 05       		.byte	0x5
 567 00fa 3C       		.byte	0x3c
 568 00fb A7000000 		.4byte	0xa7
 569 00ff 03       		.uleb128 0x3
 570 0100 00070000 		.4byte	.LASF21
 571 0104 06       		.byte	0x6
 572 0105 3C       		.byte	0x3c
 573 0106 B9000000 		.4byte	0xb9
 574 010a 03       		.uleb128 0x3
 575 010b 51050000 		.4byte	.LASF22
 576 010f 06       		.byte	0x6
 577 0110 3D       		.byte	0x3d
 578 0111 B9000000 		.4byte	0xb9
 579 0115 03       		.uleb128 0x3
 580 0116 BA080000 		.4byte	.LASF23
 581 011a 06       		.byte	0x6
 582 011b 3E       		.byte	0x3e
 583 011c B9000000 		.4byte	0xb9
 584 0120 03       		.uleb128 0x3
 585 0121 57020000 		.4byte	.LASF24
 586 0125 06       		.byte	0x6
 587 0126 40       		.byte	0x40
 588 0127 E4000000 		.4byte	0xe4
 589 012b 03       		.uleb128 0x3
 590 012c 49060000 		.4byte	.LASF25
 591 0130 06       		.byte	0x6
 592 0131 41       		.byte	0x41
 593 0132 D9000000 		.4byte	0xd9
 594 0136 03       		.uleb128 0x3
 595 0137 12020000 		.4byte	.LASF26
 596 013b 06       		.byte	0x6
 597 013c 43       		.byte	0x43
 598 013d E4000000 		.4byte	0xe4
 599 0141 03       		.uleb128 0x3
 600 0142 C7060000 		.4byte	.LASF27
 601 0146 06       		.byte	0x6
 602 0147 44       		.byte	0x44
 603 0148 E4000000 		.4byte	0xe4
 604 014c 03       		.uleb128 0x3
 605 014d D4020000 		.4byte	.LASF28
 606 0151 06       		.byte	0x6
 607 0152 45       		.byte	0x45
 608 0153 D9000000 		.4byte	0xd9
 609 0157 03       		.uleb128 0x3
 610 0158 9A000000 		.4byte	.LASF29
 611 015c 07       		.byte	0x7
 612 015d 35       		.byte	0x35
 613 015e C9000000 		.4byte	0xc9
 614 0162 03       		.uleb128 0x3
 615 0163 33030000 		.4byte	.LASF30
 616 0167 07       		.byte	0x7
 617 0168 3F       		.byte	0x3f
 618 0169 6D010000 		.4byte	0x16d
 619 016d 07       		.uleb128 0x7
 620 016e D7050000 		.4byte	.LASF51
ARM GAS  /tmp/cc6eU8gD.s 			page 12


 621 0172 48       		.byte	0x48
 622 0173 08       		.byte	0x8
 623 0174 C2       		.byte	0xc2
 624 0175 66020000 		.4byte	0x266
 625 0179 08       		.uleb128 0x8
 626 017a 0A080000 		.4byte	.LASF31
 627 017e 08       		.byte	0x8
 628 017f C3       		.byte	0xc3
 629 0180 71020000 		.4byte	0x271
 630 0184 00       		.byte	0
 631 0185 08       		.uleb128 0x8
 632 0186 AA080000 		.4byte	.LASF32
 633 018a 08       		.byte	0x8
 634 018b C5       		.byte	0xc5
 635 018c 71020000 		.4byte	0x271
 636 0190 04       		.byte	0x4
 637 0191 08       		.uleb128 0x8
 638 0192 86000000 		.4byte	.LASF33
 639 0196 08       		.byte	0x8
 640 0197 C7       		.byte	0xc7
 641 0198 20010000 		.4byte	0x120
 642 019c 08       		.byte	0x8
 643 019d 08       		.uleb128 0x8
 644 019e 26080000 		.4byte	.LASF34
 645 01a2 08       		.byte	0x8
 646 01a3 C8       		.byte	0xc8
 647 01a4 4B060000 		.4byte	0x64b
 648 01a8 0C       		.byte	0xc
 649 01a9 08       		.uleb128 0x8
 650 01aa FA020000 		.4byte	.LASF35
 651 01ae 08       		.byte	0x8
 652 01af CA       		.byte	0xca
 653 01b0 71020000 		.4byte	0x271
 654 01b4 10       		.byte	0x10
 655 01b5 08       		.uleb128 0x8
 656 01b6 7A050000 		.4byte	.LASF36
 657 01ba 08       		.byte	0x8
 658 01bb CB       		.byte	0xcb
 659 01bc 71020000 		.4byte	0x271
 660 01c0 14       		.byte	0x14
 661 01c1 08       		.uleb128 0x8
 662 01c2 E9040000 		.4byte	.LASF37
 663 01c6 08       		.byte	0x8
 664 01c7 D2       		.byte	0xd2
 665 01c8 4C090000 		.4byte	0x94c
 666 01cc 18       		.byte	0x18
 667 01cd 08       		.uleb128 0x8
 668 01ce 8A050000 		.4byte	.LASF38
 669 01d2 08       		.byte	0x8
 670 01d3 D8       		.byte	0xd8
 671 01d4 63090000 		.4byte	0x963
 672 01d8 1C       		.byte	0x1c
 673 01d9 08       		.uleb128 0x8
 674 01da 82050000 		.4byte	.LASF39
 675 01de 08       		.byte	0x8
 676 01df DD       		.byte	0xdd
 677 01e0 0A010000 		.4byte	0x10a
ARM GAS  /tmp/cc6eU8gD.s 			page 13


 678 01e4 20       		.byte	0x20
 679 01e5 08       		.uleb128 0x8
 680 01e6 5D060000 		.4byte	.LASF40
 681 01ea 08       		.byte	0x8
 682 01eb E1       		.byte	0xe1
 683 01ec FF000000 		.4byte	0xff
 684 01f0 21       		.byte	0x21
 685 01f1 08       		.uleb128 0x8
 686 01f2 49090000 		.4byte	.LASF41
 687 01f6 08       		.byte	0x8
 688 01f7 E6       		.byte	0xe6
 689 01f8 15010000 		.4byte	0x115
 690 01fc 22       		.byte	0x22
 691 01fd 09       		.uleb128 0x9
 692 01fe 705F7500 		.ascii	"p_u\000"
 693 0202 08       		.byte	0x8
 694 0203 3101     		.2byte	0x131
 695 0205 87080000 		.4byte	0x887
 696 0209 24       		.byte	0x24
 697 020a 0A       		.uleb128 0xa
 698 020b 31000000 		.4byte	.LASF42
 699 020f 08       		.byte	0x8
 700 0210 3601     		.2byte	0x136
 701 0212 77020000 		.4byte	0x277
 702 0216 28       		.byte	0x28
 703 0217 0A       		.uleb128 0xa
 704 0218 CC000000 		.4byte	.LASF43
 705 021c 08       		.byte	0x8
 706 021d 3C01     		.2byte	0x13c
 707 021f 9B020000 		.4byte	0x29b
 708 0223 2C       		.byte	0x2c
 709 0224 0A       		.uleb128 0xa
 710 0225 F5060000 		.4byte	.LASF44
 711 0229 08       		.byte	0x8
 712 022a 4001     		.2byte	0x140
 713 022c 2B010000 		.4byte	0x12b
 714 0230 34       		.byte	0x34
 715 0231 0A       		.uleb128 0xa
 716 0232 C4070000 		.4byte	.LASF45
 717 0236 08       		.byte	0x8
 718 0237 4601     		.2byte	0x146
 719 0239 36010000 		.4byte	0x136
 720 023d 38       		.byte	0x38
 721 023e 0A       		.uleb128 0xa
 722 023f C8050000 		.4byte	.LASF46
 723 0243 08       		.byte	0x8
 724 0244 4D01     		.2byte	0x14d
 725 0246 46090000 		.4byte	0x946
 726 024a 3C       		.byte	0x3c
 727 024b 0A       		.uleb128 0xa
 728 024c 86070000 		.4byte	.LASF47
 729 0250 08       		.byte	0x8
 730 0251 5101     		.2byte	0x151
 731 0253 20010000 		.4byte	0x120
 732 0257 40       		.byte	0x40
 733 0258 0A       		.uleb128 0xa
 734 0259 C0050000 		.4byte	.LASF48
ARM GAS  /tmp/cc6eU8gD.s 			page 14


 735 025d 08       		.byte	0x8
 736 025e 5801     		.2byte	0x158
 737 0260 4E030000 		.4byte	0x34e
 738 0264 44       		.byte	0x44
 739 0265 00       		.byte	0
 740 0266 03       		.uleb128 0x3
 741 0267 19050000 		.4byte	.LASF49
 742 026b 07       		.byte	0x7
 743 026c 44       		.byte	0x44
 744 026d 71020000 		.4byte	0x271
 745 0271 0B       		.uleb128 0xb
 746 0272 04       		.byte	0x4
 747 0273 62010000 		.4byte	0x162
 748 0277 03       		.uleb128 0x3
 749 0278 E4000000 		.4byte	.LASF50
 750 027c 07       		.byte	0x7
 751 027d 49       		.byte	0x49
 752 027e 82020000 		.4byte	0x282
 753 0282 07       		.uleb128 0x7
 754 0283 00000000 		.4byte	.LASF52
 755 0287 04       		.byte	0x4
 756 0288 08       		.byte	0x8
 757 0289 B0       		.byte	0xb0
 758 028a 9B020000 		.4byte	0x29b
 759 028e 08       		.uleb128 0x8
 760 028f 0A080000 		.4byte	.LASF31
 761 0293 08       		.byte	0x8
 762 0294 B1       		.byte	0xb1
 763 0295 71020000 		.4byte	0x271
 764 0299 00       		.byte	0
 765 029a 00       		.byte	0
 766 029b 03       		.uleb128 0x3
 767 029c 10000000 		.4byte	.LASF53
 768 02a0 07       		.byte	0x7
 769 02a1 50       		.byte	0x50
 770 02a2 A6020000 		.4byte	0x2a6
 771 02a6 07       		.uleb128 0x7
 772 02a7 79010000 		.4byte	.LASF54
 773 02ab 08       		.byte	0x8
 774 02ac 08       		.byte	0x8
 775 02ad B7       		.byte	0xb7
 776 02ae CB020000 		.4byte	0x2cb
 777 02b2 08       		.uleb128 0x8
 778 02b3 0A080000 		.4byte	.LASF31
 779 02b7 08       		.byte	0x8
 780 02b8 B8       		.byte	0xb8
 781 02b9 71020000 		.4byte	0x271
 782 02bd 00       		.byte	0
 783 02be 08       		.uleb128 0x8
 784 02bf AA080000 		.4byte	.LASF32
 785 02c3 08       		.byte	0x8
 786 02c4 B9       		.byte	0xb9
 787 02c5 71020000 		.4byte	0x271
 788 02c9 04       		.byte	0x4
 789 02ca 00       		.byte	0
 790 02cb 03       		.uleb128 0x3
 791 02cc E1080000 		.4byte	.LASF55
ARM GAS  /tmp/cc6eU8gD.s 			page 15


 792 02d0 07       		.byte	0x7
 793 02d1 57       		.byte	0x57
 794 02d2 D6020000 		.4byte	0x2d6
 795 02d6 0C       		.uleb128 0xc
 796 02d7 48010000 		.4byte	.LASF56
 797 02db 1C       		.byte	0x1c
 798 02dc 08       		.byte	0x8
 799 02dd 9001     		.2byte	0x190
 800 02df 32030000 		.4byte	0x332
 801 02e3 0A       		.uleb128 0xa
 802 02e4 39060000 		.4byte	.LASF57
 803 02e8 08       		.byte	0x8
 804 02e9 9101     		.2byte	0x191
 805 02eb 9B020000 		.4byte	0x29b
 806 02ef 00       		.byte	0
 807 02f0 0A       		.uleb128 0xa
 808 02f1 1E020000 		.4byte	.LASF58
 809 02f5 08       		.byte	0x8
 810 02f6 9201     		.2byte	0x192
 811 02f8 20010000 		.4byte	0x120
 812 02fc 08       		.byte	0x8
 813 02fd 0A       		.uleb128 0xa
 814 02fe F9090000 		.4byte	.LASF59
 815 0302 08       		.byte	0x8
 816 0303 9401     		.2byte	0x194
 817 0305 4B060000 		.4byte	0x64b
 818 0309 0C       		.byte	0xc
 819 030a 0A       		.uleb128 0xa
 820 030b 41060000 		.4byte	.LASF60
 821 030f 08       		.byte	0x8
 822 0310 9701     		.2byte	0x197
 823 0312 71020000 		.4byte	0x271
 824 0316 10       		.byte	0x10
 825 0317 0A       		.uleb128 0xa
 826 0318 BF060000 		.4byte	.LASF61
 827 031c 08       		.byte	0x8
 828 031d 9801     		.2byte	0x198
 829 031f 71020000 		.4byte	0x271
 830 0323 14       		.byte	0x14
 831 0324 0A       		.uleb128 0xa
 832 0325 BA070000 		.4byte	.LASF62
 833 0329 08       		.byte	0x8
 834 032a 9B01     		.2byte	0x19b
 835 032c 71020000 		.4byte	0x271
 836 0330 18       		.byte	0x18
 837 0331 00       		.byte	0
 838 0332 03       		.uleb128 0x3
 839 0333 9A010000 		.4byte	.LASF63
 840 0337 07       		.byte	0x7
 841 0338 5C       		.byte	0x5c
 842 0339 3D030000 		.4byte	0x33d
 843 033d 0B       		.uleb128 0xb
 844 033e 04       		.byte	0x4
 845 033f 43030000 		.4byte	0x343
 846 0343 0D       		.uleb128 0xd
 847 0344 4E030000 		.4byte	0x34e
 848 0348 0E       		.uleb128 0xe
ARM GAS  /tmp/cc6eU8gD.s 			page 16


 849 0349 4E030000 		.4byte	0x34e
 850 034d 00       		.byte	0
 851 034e 0F       		.uleb128 0xf
 852 034f 04       		.byte	0x4
 853 0350 03       		.uleb128 0x3
 854 0351 65060000 		.4byte	.LASF64
 855 0355 07       		.byte	0x7
 856 0356 61       		.byte	0x61
 857 0357 5B030000 		.4byte	0x35b
 858 035b 0C       		.uleb128 0xc
 859 035c 6F020000 		.4byte	.LASF65
 860 0360 14       		.byte	0x14
 861 0361 08       		.byte	0x8
 862 0362 6B01     		.2byte	0x16b
 863 0364 AA030000 		.4byte	0x3aa
 864 0368 0A       		.uleb128 0xa
 865 0369 6F090000 		.4byte	.LASF66
 866 036d 08       		.byte	0x8
 867 036e 6C01     		.2byte	0x16c
 868 0370 69090000 		.4byte	0x969
 869 0374 00       		.byte	0
 870 0375 0A       		.uleb128 0xa
 871 0376 2F0A0000 		.4byte	.LASF67
 872 037a 08       		.byte	0x8
 873 037b 6D01     		.2byte	0x16d
 874 037d 69090000 		.4byte	0x969
 875 0381 04       		.byte	0x4
 876 0382 0A       		.uleb128 0xa
 877 0383 FB040000 		.4byte	.LASF68
 878 0387 08       		.byte	0x8
 879 0388 6E01     		.2byte	0x16e
 880 038a 57010000 		.4byte	0x157
 881 038e 08       		.byte	0x8
 882 038f 0A       		.uleb128 0xa
 883 0390 270A0000 		.4byte	.LASF69
 884 0394 08       		.byte	0x8
 885 0395 6F01     		.2byte	0x16f
 886 0397 32030000 		.4byte	0x332
 887 039b 0C       		.byte	0xc
 888 039c 0A       		.uleb128 0xa
 889 039d 2A020000 		.4byte	.LASF70
 890 03a1 08       		.byte	0x8
 891 03a2 7101     		.2byte	0x171
 892 03a4 4E030000 		.4byte	0x34e
 893 03a8 10       		.byte	0x10
 894 03a9 00       		.byte	0
 895 03aa 03       		.uleb128 0x3
 896 03ab 33090000 		.4byte	.LASF71
 897 03af 07       		.byte	0x7
 898 03b0 66       		.byte	0x66
 899 03b1 B5030000 		.4byte	0x3b5
 900 03b5 0C       		.uleb128 0xc
 901 03b6 02030000 		.4byte	.LASF72
 902 03ba 0C       		.byte	0xc
 903 03bb 08       		.byte	0x8
 904 03bc 7B01     		.2byte	0x17b
 905 03be F7030000 		.4byte	0x3f7
ARM GAS  /tmp/cc6eU8gD.s 			page 17


 906 03c2 0A       		.uleb128 0xa
 907 03c3 6F090000 		.4byte	.LASF66
 908 03c7 08       		.byte	0x8
 909 03c8 7C01     		.2byte	0x17c
 910 03ca 69090000 		.4byte	0x969
 911 03ce 00       		.byte	0
 912 03cf 0A       		.uleb128 0xa
 913 03d0 2F0A0000 		.4byte	.LASF67
 914 03d4 08       		.byte	0x8
 915 03d5 7E01     		.2byte	0x17e
 916 03d7 69090000 		.4byte	0x969
 917 03db 04       		.byte	0x4
 918 03dc 0A       		.uleb128 0xa
 919 03dd FB040000 		.4byte	.LASF68
 920 03e1 08       		.byte	0x8
 921 03e2 8001     		.2byte	0x180
 922 03e4 57010000 		.4byte	0x157
 923 03e8 08       		.byte	0x8
 924 03e9 0A       		.uleb128 0xa
 925 03ea 2C050000 		.4byte	.LASF73
 926 03ee 08       		.byte	0x8
 927 03ef 8801     		.2byte	0x188
 928 03f1 57010000 		.4byte	0x157
 929 03f5 0A       		.byte	0xa
 930 03f6 00       		.byte	0
 931 03f7 03       		.uleb128 0x3
 932 03f8 EF050000 		.4byte	.LASF74
 933 03fc 07       		.byte	0x7
 934 03fd 6B       		.byte	0x6b
 935 03fe 02040000 		.4byte	0x402
 936 0402 10       		.uleb128 0x10
 937 0403 B6010000 		.4byte	.LASF75
 938 0407 1404     		.2byte	0x414
 939 0409 08       		.byte	0x8
 940 040a A201     		.2byte	0x1a2
 941 040c 45040000 		.4byte	0x445
 942 0410 0A       		.uleb128 0xa
 943 0411 EB060000 		.4byte	.LASF76
 944 0415 08       		.byte	0x8
 945 0416 AA01     		.2byte	0x1aa
 946 0418 52090000 		.4byte	0x952
 947 041c 00       		.byte	0
 948 041d 0A       		.uleb128 0xa
 949 041e DF020000 		.4byte	.LASF77
 950 0422 08       		.byte	0x8
 951 0423 AF01     		.2byte	0x1af
 952 0425 4C010000 		.4byte	0x14c
 953 0429 04       		.byte	0x4
 954 042a 0A       		.uleb128 0xa
 955 042b 6D070000 		.4byte	.LASF78
 956 042f 08       		.byte	0x8
 957 0430 B301     		.2byte	0x1b3
 958 0432 4C010000 		.4byte	0x14c
 959 0436 08       		.byte	0x8
 960 0437 0A       		.uleb128 0xa
 961 0438 F6080000 		.4byte	.LASF79
 962 043c 08       		.byte	0x8
ARM GAS  /tmp/cc6eU8gD.s 			page 18


 963 043d B901     		.2byte	0x1b9
 964 043f 7C080000 		.4byte	0x87c
 965 0443 0C       		.byte	0xc
 966 0444 00       		.byte	0
 967 0445 03       		.uleb128 0x3
 968 0446 77090000 		.4byte	.LASF80
 969 044a 07       		.byte	0x7
 970 044b 70       		.byte	0x70
 971 044c 50040000 		.4byte	0x450
 972 0450 10       		.uleb128 0x10
 973 0451 00080000 		.4byte	.LASF81
 974 0455 6805     		.2byte	0x568
 975 0457 08       		.byte	0x8
 976 0458 C201     		.2byte	0x1c2
 977 045a A2040000 		.4byte	0x4a2
 978 045e 0A       		.uleb128 0xa
 979 045f 2C080000 		.4byte	.LASF82
 980 0463 08       		.byte	0x8
 981 0464 C601     		.2byte	0x1c6
 982 0466 CB020000 		.4byte	0x2cb
 983 046a 00       		.byte	0
 984 046b 0A       		.uleb128 0xa
 985 046c 26010000 		.4byte	.LASF83
 986 0470 08       		.byte	0x8
 987 0471 CA01     		.2byte	0x1ca
 988 0473 AA030000 		.4byte	0x3aa
 989 0477 1C       		.byte	0x1c
 990 0478 09       		.uleb128 0x9
 991 0479 64626700 		.ascii	"dbg\000"
 992 047d 08       		.byte	0x8
 993 047e CE01     		.2byte	0x1ce
 994 0480 F7030000 		.4byte	0x3f7
 995 0484 28       		.byte	0x28
 996 0485 11       		.uleb128 0x11
 997 0486 10070000 		.4byte	.LASF84
 998 048a 08       		.byte	0x8
 999 048b D201     		.2byte	0x1d2
 1000 048d 62010000 		.4byte	0x162
 1001 0491 3C04     		.2byte	0x43c
 1002 0493 11       		.uleb128 0x11
 1003 0494 56010000 		.4byte	.LASF85
 1004 0498 08       		.byte	0x8
 1005 0499 E301     		.2byte	0x1e3
 1006 049b 6F090000 		.4byte	0x96f
 1007 049f 8804     		.2byte	0x488
 1008 04a1 00       		.byte	0
 1009 04a2 05       		.uleb128 0x5
 1010 04a3 04       		.byte	0x4
 1011 04a4 07       		.byte	0x7
 1012 04a5 B1080000 		.4byte	.LASF86
 1013 04a9 12       		.uleb128 0x12
 1014 04aa EF000000 		.4byte	0xef
 1015 04ae B9040000 		.4byte	0x4b9
 1016 04b2 13       		.uleb128 0x13
 1017 04b3 A2040000 		.4byte	0x4a2
 1018 04b7 01       		.byte	0x1
 1019 04b8 00       		.byte	0
ARM GAS  /tmp/cc6eU8gD.s 			page 19


 1020 04b9 04       		.uleb128 0x4
 1021 04ba A9040000 		.4byte	0x4a9
 1022 04be 14       		.uleb128 0x14
 1023 04bf 4F000000 		.4byte	.LASF138
 1024 04c3 11       		.byte	0x11
 1025 04c4 4C       		.byte	0x4c
 1026 04c5 E4000000 		.4byte	0xe4
 1027 04c9 15       		.uleb128 0x15
 1028 04ca 10       		.byte	0x10
 1029 04cb 09       		.byte	0x9
 1030 04cc BE       		.byte	0xbe
 1031 04cd 02050000 		.4byte	0x502
 1032 04d1 16       		.uleb128 0x16
 1033 04d2 43435200 		.ascii	"CCR\000"
 1034 04d6 09       		.byte	0x9
 1035 04d7 C0       		.byte	0xc0
 1036 04d8 EF000000 		.4byte	0xef
 1037 04dc 00       		.byte	0
 1038 04dd 08       		.uleb128 0x8
 1039 04de AA010000 		.4byte	.LASF87
 1040 04e2 09       		.byte	0x9
 1041 04e3 C1       		.byte	0xc1
 1042 04e4 EF000000 		.4byte	0xef
 1043 04e8 04       		.byte	0x4
 1044 04e9 08       		.uleb128 0x8
 1045 04ea 19030000 		.4byte	.LASF88
 1046 04ee 09       		.byte	0x9
 1047 04ef C2       		.byte	0xc2
 1048 04f0 EF000000 		.4byte	0xef
 1049 04f4 08       		.byte	0x8
 1050 04f5 08       		.uleb128 0x8
 1051 04f6 1A010000 		.4byte	.LASF89
 1052 04fa 09       		.byte	0x9
 1053 04fb C3       		.byte	0xc3
 1054 04fc EF000000 		.4byte	0xef
 1055 0500 0C       		.byte	0xc
 1056 0501 00       		.byte	0
 1057 0502 03       		.uleb128 0x3
 1058 0503 34010000 		.4byte	.LASF90
 1059 0507 09       		.byte	0x9
 1060 0508 C4       		.byte	0xc4
 1061 0509 C9040000 		.4byte	0x4c9
 1062 050d 15       		.uleb128 0x15
 1063 050e AC       		.byte	0xac
 1064 050f 09       		.byte	0x9
 1065 0510 C6       		.byte	0xc6
 1066 0511 46050000 		.4byte	0x546
 1067 0515 16       		.uleb128 0x16
 1068 0516 49535200 		.ascii	"ISR\000"
 1069 051a 09       		.byte	0x9
 1070 051b C8       		.byte	0xc8
 1071 051c EF000000 		.4byte	0xef
 1072 0520 00       		.byte	0
 1073 0521 08       		.uleb128 0x8
 1074 0522 0A0A0000 		.4byte	.LASF91
 1075 0526 09       		.byte	0x9
 1076 0527 C9       		.byte	0xc9
ARM GAS  /tmp/cc6eU8gD.s 			page 20


 1077 0528 EF000000 		.4byte	0xef
 1078 052c 04       		.byte	0x4
 1079 052d 08       		.uleb128 0x8
 1080 052e 370A0000 		.4byte	.LASF92
 1081 0532 09       		.byte	0x9
 1082 0533 CA       		.byte	0xca
 1083 0534 46050000 		.4byte	0x546
 1084 0538 08       		.byte	0x8
 1085 0539 08       		.uleb128 0x8
 1086 053a 0F0A0000 		.4byte	.LASF93
 1087 053e 09       		.byte	0x9
 1088 053f CB       		.byte	0xcb
 1089 0540 EF000000 		.4byte	0xef
 1090 0544 A8       		.byte	0xa8
 1091 0545 00       		.byte	0
 1092 0546 12       		.uleb128 0x12
 1093 0547 E4000000 		.4byte	0xe4
 1094 054b 56050000 		.4byte	0x556
 1095 054f 13       		.uleb128 0x13
 1096 0550 A2040000 		.4byte	0x4a2
 1097 0554 27       		.byte	0x27
 1098 0555 00       		.byte	0
 1099 0556 03       		.uleb128 0x3
 1100 0557 75060000 		.4byte	.LASF94
 1101 055b 09       		.byte	0x9
 1102 055c CC       		.byte	0xcc
 1103 055d 0D050000 		.4byte	0x50d
 1104 0561 12       		.uleb128 0x12
 1105 0562 EF000000 		.4byte	0xef
 1106 0566 71050000 		.4byte	0x571
 1107 056a 13       		.uleb128 0x13
 1108 056b A2040000 		.4byte	0x4a2
 1109 056f 03       		.byte	0x3
 1110 0570 00       		.byte	0
 1111 0571 04       		.uleb128 0x4
 1112 0572 61050000 		.4byte	0x561
 1113 0576 17       		.uleb128 0x17
 1114 0577 2C       		.byte	0x2c
 1115 0578 09       		.byte	0x9
 1116 0579 A501     		.2byte	0x1a5
 1117 057b 29060000 		.4byte	0x629
 1118 057f 09       		.uleb128 0x9
 1119 0580 43523100 		.ascii	"CR1\000"
 1120 0584 09       		.byte	0x9
 1121 0585 A701     		.2byte	0x1a7
 1122 0587 EF000000 		.4byte	0xef
 1123 058b 00       		.byte	0
 1124 058c 09       		.uleb128 0x9
 1125 058d 43523200 		.ascii	"CR2\000"
 1126 0591 09       		.byte	0x9
 1127 0592 A801     		.2byte	0x1a8
 1128 0594 EF000000 		.4byte	0xef
 1129 0598 04       		.byte	0x4
 1130 0599 09       		.uleb128 0x9
 1131 059a 43523300 		.ascii	"CR3\000"
 1132 059e 09       		.byte	0x9
 1133 059f A901     		.2byte	0x1a9
ARM GAS  /tmp/cc6eU8gD.s 			page 21


 1134 05a1 EF000000 		.4byte	0xef
 1135 05a5 08       		.byte	0x8
 1136 05a6 09       		.uleb128 0x9
 1137 05a7 42525200 		.ascii	"BRR\000"
 1138 05ab 09       		.byte	0x9
 1139 05ac AA01     		.2byte	0x1aa
 1140 05ae EF000000 		.4byte	0xef
 1141 05b2 0C       		.byte	0xc
 1142 05b3 0A       		.uleb128 0xa
 1143 05b4 C6010000 		.4byte	.LASF95
 1144 05b8 09       		.byte	0x9
 1145 05b9 AB01     		.2byte	0x1ab
 1146 05bb EF000000 		.4byte	0xef
 1147 05bf 10       		.byte	0x10
 1148 05c0 0A       		.uleb128 0xa
 1149 05c1 A7050000 		.4byte	.LASF96
 1150 05c5 09       		.byte	0x9
 1151 05c6 AC01     		.2byte	0x1ac
 1152 05c8 EF000000 		.4byte	0xef
 1153 05cc 14       		.byte	0x14
 1154 05cd 09       		.uleb128 0x9
 1155 05ce 52515200 		.ascii	"RQR\000"
 1156 05d2 09       		.byte	0x9
 1157 05d3 AD01     		.2byte	0x1ad
 1158 05d5 EF000000 		.4byte	0xef
 1159 05d9 18       		.byte	0x18
 1160 05da 09       		.uleb128 0x9
 1161 05db 49535200 		.ascii	"ISR\000"
 1162 05df 09       		.byte	0x9
 1163 05e0 AE01     		.2byte	0x1ae
 1164 05e2 EF000000 		.4byte	0xef
 1165 05e6 1C       		.byte	0x1c
 1166 05e7 09       		.uleb128 0x9
 1167 05e8 49435200 		.ascii	"ICR\000"
 1168 05ec 09       		.byte	0x9
 1169 05ed AF01     		.2byte	0x1af
 1170 05ef EF000000 		.4byte	0xef
 1171 05f3 20       		.byte	0x20
 1172 05f4 09       		.uleb128 0x9
 1173 05f5 52445200 		.ascii	"RDR\000"
 1174 05f9 09       		.byte	0x9
 1175 05fa B001     		.2byte	0x1b0
 1176 05fc D4000000 		.4byte	0xd4
 1177 0600 24       		.byte	0x24
 1178 0601 0A       		.uleb128 0xa
 1179 0602 91070000 		.4byte	.LASF97
 1180 0606 09       		.byte	0x9
 1181 0607 B101     		.2byte	0x1b1
 1182 0609 C9000000 		.4byte	0xc9
 1183 060d 26       		.byte	0x26
 1184 060e 09       		.uleb128 0x9
 1185 060f 54445200 		.ascii	"TDR\000"
 1186 0613 09       		.byte	0x9
 1187 0614 B201     		.2byte	0x1b2
 1188 0616 D4000000 		.4byte	0xd4
 1189 061a 28       		.byte	0x28
 1190 061b 0A       		.uleb128 0xa
ARM GAS  /tmp/cc6eU8gD.s 			page 22


 1191 061c 9B070000 		.4byte	.LASF98
 1192 0620 09       		.byte	0x9
 1193 0621 B301     		.2byte	0x1b3
 1194 0623 C9000000 		.4byte	0xc9
 1195 0627 2A       		.byte	0x2a
 1196 0628 00       		.byte	0
 1197 0629 18       		.uleb128 0x18
 1198 062a A2040000 		.4byte	.LASF99
 1199 062e 09       		.byte	0x9
 1200 062f B401     		.2byte	0x1b4
 1201 0631 76050000 		.4byte	0x576
 1202 0635 03       		.uleb128 0x3
 1203 0636 6B000000 		.4byte	.LASF100
 1204 063a 0A       		.byte	0xa
 1205 063b 65       		.byte	0x65
 1206 063c 4E030000 		.4byte	0x34e
 1207 0640 03       		.uleb128 0x3
 1208 0641 FF090000 		.4byte	.LASF101
 1209 0645 0A       		.byte	0xa
 1210 0646 6D       		.byte	0x6d
 1211 0647 F4000000 		.4byte	0xf4
 1212 064b 07       		.uleb128 0x7
 1213 064c 55060000 		.4byte	.LASF102
 1214 0650 04       		.byte	0x4
 1215 0651 0A       		.byte	0xa
 1216 0652 89       		.byte	0x89
 1217 0653 64060000 		.4byte	0x664
 1218 0657 16       		.uleb128 0x16
 1219 0658 72313300 		.ascii	"r13\000"
 1220 065c 0A       		.byte	0xa
 1221 065d 8A       		.byte	0x8a
 1222 065e D6060000 		.4byte	0x6d6
 1223 0662 00       		.byte	0
 1224 0663 00       		.byte	0
 1225 0664 07       		.uleb128 0x7
 1226 0665 E0070000 		.4byte	.LASF103
 1227 0669 24       		.byte	0x24
 1228 066a 0B       		.byte	0xb
 1229 066b A4       		.byte	0xa4
 1230 066c D6060000 		.4byte	0x6d6
 1231 0670 16       		.uleb128 0x16
 1232 0671 723800   		.ascii	"r8\000"
 1233 0674 0B       		.byte	0xb
 1234 0675 A5       		.byte	0xa5
 1235 0676 35060000 		.4byte	0x635
 1236 067a 00       		.byte	0
 1237 067b 16       		.uleb128 0x16
 1238 067c 723900   		.ascii	"r9\000"
 1239 067f 0B       		.byte	0xb
 1240 0680 A6       		.byte	0xa6
 1241 0681 35060000 		.4byte	0x635
 1242 0685 04       		.byte	0x4
 1243 0686 16       		.uleb128 0x16
 1244 0687 72313000 		.ascii	"r10\000"
 1245 068b 0B       		.byte	0xb
 1246 068c A7       		.byte	0xa7
 1247 068d 35060000 		.4byte	0x635
ARM GAS  /tmp/cc6eU8gD.s 			page 23


 1248 0691 08       		.byte	0x8
 1249 0692 16       		.uleb128 0x16
 1250 0693 72313100 		.ascii	"r11\000"
 1251 0697 0B       		.byte	0xb
 1252 0698 A8       		.byte	0xa8
 1253 0699 35060000 		.4byte	0x635
 1254 069d 0C       		.byte	0xc
 1255 069e 16       		.uleb128 0x16
 1256 069f 723400   		.ascii	"r4\000"
 1257 06a2 0B       		.byte	0xb
 1258 06a3 A9       		.byte	0xa9
 1259 06a4 35060000 		.4byte	0x635
 1260 06a8 10       		.byte	0x10
 1261 06a9 16       		.uleb128 0x16
 1262 06aa 723500   		.ascii	"r5\000"
 1263 06ad 0B       		.byte	0xb
 1264 06ae AA       		.byte	0xaa
 1265 06af 35060000 		.4byte	0x635
 1266 06b3 14       		.byte	0x14
 1267 06b4 16       		.uleb128 0x16
 1268 06b5 723600   		.ascii	"r6\000"
 1269 06b8 0B       		.byte	0xb
 1270 06b9 AB       		.byte	0xab
 1271 06ba 35060000 		.4byte	0x635
 1272 06be 18       		.byte	0x18
 1273 06bf 16       		.uleb128 0x16
 1274 06c0 723700   		.ascii	"r7\000"
 1275 06c3 0B       		.byte	0xb
 1276 06c4 AC       		.byte	0xac
 1277 06c5 35060000 		.4byte	0x635
 1278 06c9 1C       		.byte	0x1c
 1279 06ca 16       		.uleb128 0x16
 1280 06cb 6C7200   		.ascii	"lr\000"
 1281 06ce 0B       		.byte	0xb
 1282 06cf AD       		.byte	0xad
 1283 06d0 35060000 		.4byte	0x635
 1284 06d4 20       		.byte	0x20
 1285 06d5 00       		.byte	0
 1286 06d6 0B       		.uleb128 0xb
 1287 06d7 04       		.byte	0x4
 1288 06d8 64060000 		.4byte	0x664
 1289 06dc 17       		.uleb128 0x17
 1290 06dd 60       		.byte	0x60
 1291 06de 0C       		.byte	0xc
 1292 06df A101     		.2byte	0x1a1
 1293 06e1 E8070000 		.4byte	0x7e8
 1294 06e5 09       		.uleb128 0x9
 1295 06e6 43523100 		.ascii	"CR1\000"
 1296 06ea 0C       		.byte	0xc
 1297 06eb A201     		.2byte	0x1a2
 1298 06ed EF000000 		.4byte	0xef
 1299 06f1 00       		.byte	0
 1300 06f2 09       		.uleb128 0x9
 1301 06f3 43523200 		.ascii	"CR2\000"
 1302 06f7 0C       		.byte	0xc
 1303 06f8 A301     		.2byte	0x1a3
 1304 06fa EF000000 		.4byte	0xef
ARM GAS  /tmp/cc6eU8gD.s 			page 24


 1305 06fe 04       		.byte	0x4
 1306 06ff 0A       		.uleb128 0xa
 1307 0700 D2050000 		.4byte	.LASF104
 1308 0704 0C       		.byte	0xc
 1309 0705 A401     		.2byte	0x1a4
 1310 0707 EF000000 		.4byte	0xef
 1311 070b 08       		.byte	0x8
 1312 070c 0A       		.uleb128 0xa
 1313 070d 83040000 		.4byte	.LASF105
 1314 0711 0C       		.byte	0xc
 1315 0712 A501     		.2byte	0x1a5
 1316 0714 EF000000 		.4byte	0xef
 1317 0718 0C       		.byte	0xc
 1318 0719 09       		.uleb128 0x9
 1319 071a 535200   		.ascii	"SR\000"
 1320 071d 0C       		.byte	0xc
 1321 071e A601     		.2byte	0x1a6
 1322 0720 EF000000 		.4byte	0xef
 1323 0724 10       		.byte	0x10
 1324 0725 09       		.uleb128 0x9
 1325 0726 45475200 		.ascii	"EGR\000"
 1326 072a 0C       		.byte	0xc
 1327 072b A701     		.2byte	0x1a7
 1328 072d EF000000 		.4byte	0xef
 1329 0731 14       		.byte	0x14
 1330 0732 0A       		.uleb128 0xa
 1331 0733 80020000 		.4byte	.LASF106
 1332 0737 0C       		.byte	0xc
 1333 0738 A801     		.2byte	0x1a8
 1334 073a EF000000 		.4byte	0xef
 1335 073e 18       		.byte	0x18
 1336 073f 0A       		.uleb128 0xa
 1337 0740 86020000 		.4byte	.LASF107
 1338 0744 0C       		.byte	0xc
 1339 0745 A901     		.2byte	0x1a9
 1340 0747 EF000000 		.4byte	0xef
 1341 074b 1C       		.byte	0x1c
 1342 074c 0A       		.uleb128 0xa
 1343 074d F6040000 		.4byte	.LASF108
 1344 0751 0C       		.byte	0xc
 1345 0752 AA01     		.2byte	0x1aa
 1346 0754 EF000000 		.4byte	0xef
 1347 0758 20       		.byte	0x20
 1348 0759 09       		.uleb128 0x9
 1349 075a 434E5400 		.ascii	"CNT\000"
 1350 075e 0C       		.byte	0xc
 1351 075f AB01     		.2byte	0x1ab
 1352 0761 EF000000 		.4byte	0xef
 1353 0765 24       		.byte	0x24
 1354 0766 09       		.uleb128 0x9
 1355 0767 50534300 		.ascii	"PSC\000"
 1356 076b 0C       		.byte	0xc
 1357 076c AC01     		.2byte	0x1ac
 1358 076e EF000000 		.4byte	0xef
 1359 0772 28       		.byte	0x28
 1360 0773 09       		.uleb128 0x9
 1361 0774 41525200 		.ascii	"ARR\000"
ARM GAS  /tmp/cc6eU8gD.s 			page 25


 1362 0778 0C       		.byte	0xc
 1363 0779 AD01     		.2byte	0x1ad
 1364 077b EF000000 		.4byte	0xef
 1365 077f 2C       		.byte	0x2c
 1366 0780 09       		.uleb128 0x9
 1367 0781 52435200 		.ascii	"RCR\000"
 1368 0785 0C       		.byte	0xc
 1369 0786 AE01     		.2byte	0x1ae
 1370 0788 EF000000 		.4byte	0xef
 1371 078c 30       		.byte	0x30
 1372 078d 09       		.uleb128 0x9
 1373 078e 43435200 		.ascii	"CCR\000"
 1374 0792 0C       		.byte	0xc
 1375 0793 AF01     		.2byte	0x1af
 1376 0795 71050000 		.4byte	0x571
 1377 0799 34       		.byte	0x34
 1378 079a 0A       		.uleb128 0xa
 1379 079b 25020000 		.4byte	.LASF109
 1380 079f 0C       		.byte	0xc
 1381 07a0 B001     		.2byte	0x1b0
 1382 07a2 EF000000 		.4byte	0xef
 1383 07a6 44       		.byte	0x44
 1384 07a7 09       		.uleb128 0x9
 1385 07a8 44435200 		.ascii	"DCR\000"
 1386 07ac 0C       		.byte	0xc
 1387 07ad B101     		.2byte	0x1b1
 1388 07af EF000000 		.4byte	0xef
 1389 07b3 48       		.byte	0x48
 1390 07b4 0A       		.uleb128 0xa
 1391 07b5 95010000 		.4byte	.LASF110
 1392 07b9 0C       		.byte	0xc
 1393 07ba B201     		.2byte	0x1b2
 1394 07bc EF000000 		.4byte	0xef
 1395 07c0 4C       		.byte	0x4c
 1396 07c1 09       		.uleb128 0x9
 1397 07c2 4F5200   		.ascii	"OR\000"
 1398 07c5 0C       		.byte	0xc
 1399 07c6 B301     		.2byte	0x1b3
 1400 07c8 EF000000 		.4byte	0xef
 1401 07cc 50       		.byte	0x50
 1402 07cd 0A       		.uleb128 0xa
 1403 07ce 8C020000 		.4byte	.LASF111
 1404 07d2 0C       		.byte	0xc
 1405 07d3 B401     		.2byte	0x1b4
 1406 07d5 EF000000 		.4byte	0xef
 1407 07d9 54       		.byte	0x54
 1408 07da 0A       		.uleb128 0xa
 1409 07db EC070000 		.4byte	.LASF112
 1410 07df 0C       		.byte	0xc
 1411 07e0 B501     		.2byte	0x1b5
 1412 07e2 B9040000 		.4byte	0x4b9
 1413 07e6 58       		.byte	0x58
 1414 07e7 00       		.byte	0
 1415 07e8 18       		.uleb128 0x18
 1416 07e9 76030000 		.4byte	.LASF113
 1417 07ed 0C       		.byte	0xc
 1418 07ee B601     		.2byte	0x1b6
ARM GAS  /tmp/cc6eU8gD.s 			page 26


 1419 07f0 DC060000 		.4byte	0x6dc
 1420 07f4 15       		.uleb128 0x15
 1421 07f5 10       		.byte	0x10
 1422 07f6 0D       		.byte	0xd
 1423 07f7 51       		.byte	0x51
 1424 07f8 2D080000 		.4byte	0x82d
 1425 07fc 08       		.uleb128 0x8
 1426 07fd 2B030000 		.4byte	.LASF114
 1427 0801 0D       		.byte	0xd
 1428 0802 55       		.byte	0x55
 1429 0803 57010000 		.4byte	0x157
 1430 0807 00       		.byte	0
 1431 0808 08       		.uleb128 0x8
 1432 0809 5A050000 		.4byte	.LASF115
 1433 080d 0D       		.byte	0xd
 1434 080e 59       		.byte	0x59
 1435 080f 71020000 		.4byte	0x271
 1436 0813 04       		.byte	0x4
 1437 0814 08       		.uleb128 0x8
 1438 0815 A9020000 		.4byte	.LASF116
 1439 0819 0D       		.byte	0xd
 1440 081a 5D       		.byte	0x5d
 1441 081b 4E030000 		.4byte	0x34e
 1442 081f 08       		.byte	0x8
 1443 0820 08       		.uleb128 0x8
 1444 0821 05010000 		.4byte	.LASF117
 1445 0825 0D       		.byte	0xd
 1446 0826 61       		.byte	0x61
 1447 0827 B9000000 		.4byte	0xb9
 1448 082b 0C       		.byte	0xc
 1449 082c 00       		.byte	0
 1450 082d 03       		.uleb128 0x3
 1451 082e 03090000 		.4byte	.LASF118
 1452 0832 0D       		.byte	0xd
 1453 0833 62       		.byte	0x62
 1454 0834 F4070000 		.4byte	0x7f4
 1455 0838 19       		.uleb128 0x19
 1456 0839 0804     		.2byte	0x408
 1457 083b 0D       		.byte	0xd
 1458 083c 67       		.byte	0x67
 1459 083d 66080000 		.4byte	0x866
 1460 0841 08       		.uleb128 0x8
 1461 0842 E1050000 		.4byte	.LASF119
 1462 0846 0D       		.byte	0xd
 1463 0847 6B       		.byte	0x6b
 1464 0848 3C000000 		.4byte	0x3c
 1465 084c 00       		.byte	0
 1466 084d 08       		.uleb128 0x8
 1467 084e AE060000 		.4byte	.LASF120
 1468 0852 0D       		.byte	0xd
 1469 0853 6F       		.byte	0x6f
 1470 0854 66080000 		.4byte	0x866
 1471 0858 04       		.byte	0x4
 1472 0859 08       		.uleb128 0x8
 1473 085a 9D050000 		.4byte	.LASF121
 1474 085e 0D       		.byte	0xd
 1475 085f 73       		.byte	0x73
ARM GAS  /tmp/cc6eU8gD.s 			page 27


 1476 0860 6C080000 		.4byte	0x86c
 1477 0864 08       		.byte	0x8
 1478 0865 00       		.byte	0
 1479 0866 0B       		.uleb128 0xb
 1480 0867 04       		.byte	0x4
 1481 0868 2D080000 		.4byte	0x82d
 1482 086c 12       		.uleb128 0x12
 1483 086d 2D080000 		.4byte	0x82d
 1484 0871 7C080000 		.4byte	0x87c
 1485 0875 13       		.uleb128 0x13
 1486 0876 A2040000 		.4byte	0x4a2
 1487 087a 3F       		.byte	0x3f
 1488 087b 00       		.byte	0
 1489 087c 03       		.uleb128 0x3
 1490 087d 9A090000 		.4byte	.LASF122
 1491 0881 0D       		.byte	0xd
 1492 0882 74       		.byte	0x74
 1493 0883 38080000 		.4byte	0x838
 1494 0887 1A       		.uleb128 0x1a
 1495 0888 04       		.byte	0x4
 1496 0889 08       		.byte	0x8
 1497 088a FA       		.byte	0xfa
 1498 088b E4080000 		.4byte	0x8e4
 1499 088f 1B       		.uleb128 0x1b
 1500 0890 52030000 		.4byte	.LASF123
 1501 0894 08       		.byte	0x8
 1502 0895 0101     		.2byte	0x101
 1503 0897 2B010000 		.4byte	0x12b
 1504 089b 1B       		.uleb128 0x1b
 1505 089c 6C0A0000 		.4byte	.LASF124
 1506 08a0 08       		.byte	0x8
 1507 08a1 0801     		.2byte	0x108
 1508 08a3 2B010000 		.4byte	0x12b
 1509 08a7 1B       		.uleb128 0x1b
 1510 08a8 1F010000 		.4byte	.LASF125
 1511 08ac 08       		.byte	0x8
 1512 08ad 0F01     		.2byte	0x10f
 1513 08af 4E030000 		.4byte	0x34e
 1514 08b3 1B       		.uleb128 0x1b
 1515 08b4 8A090000 		.4byte	.LASF126
 1516 08b8 08       		.byte	0x8
 1517 08b9 1601     		.2byte	0x116
 1518 08bb E4080000 		.4byte	0x8e4
 1519 08bf 1B       		.uleb128 0x1b
 1520 08c0 83090000 		.4byte	.LASF127
 1521 08c4 08       		.byte	0x8
 1522 08c5 1E01     		.2byte	0x11e
 1523 08c7 0F090000 		.4byte	0x90f
 1524 08cb 1B       		.uleb128 0x1b
 1525 08cc 5F000000 		.4byte	.LASF128
 1526 08d0 08       		.byte	0x8
 1527 08d1 2701     		.2byte	0x127
 1528 08d3 46090000 		.4byte	0x946
 1529 08d7 1B       		.uleb128 0x1b
 1530 08d8 65010000 		.4byte	.LASF129
 1531 08dc 08       		.byte	0x8
 1532 08dd 2F01     		.2byte	0x12f
ARM GAS  /tmp/cc6eU8gD.s 			page 28


 1533 08df 36010000 		.4byte	0x136
 1534 08e3 00       		.byte	0
 1535 08e4 0B       		.uleb128 0xb
 1536 08e5 04       		.byte	0x4
 1537 08e6 66020000 		.4byte	0x266
 1538 08ea 07       		.uleb128 0x7
 1539 08eb 44020000 		.4byte	.LASF130
 1540 08ef 0C       		.byte	0xc
 1541 08f0 0E       		.byte	0xe
 1542 08f1 34       		.byte	0x34
 1543 08f2 0F090000 		.4byte	0x90f
 1544 08f6 08       		.uleb128 0x8
 1545 08f7 B9000000 		.4byte	.LASF131
 1546 08fb 0E       		.byte	0xe
 1547 08fc 35       		.byte	0x35
 1548 08fd 9B020000 		.4byte	0x29b
 1549 0901 00       		.byte	0
 1550 0902 08       		.uleb128 0x8
 1551 0903 B0010000 		.4byte	.LASF132
 1552 0907 0E       		.byte	0xe
 1553 0908 37       		.byte	0x37
 1554 0909 4C010000 		.4byte	0x14c
 1555 090d 08       		.byte	0x8
 1556 090e 00       		.byte	0
 1557 090f 0B       		.uleb128 0xb
 1558 0910 04       		.byte	0x4
 1559 0911 EA080000 		.4byte	0x8ea
 1560 0915 07       		.uleb128 0x7
 1561 0916 6F040000 		.4byte	.LASF133
 1562 091a 10       		.byte	0x10
 1563 091b 0F       		.byte	0xf
 1564 091c 39       		.byte	0x39
 1565 091d 46090000 		.4byte	0x946
 1566 0921 08       		.uleb128 0x8
 1567 0922 CF070000 		.4byte	.LASF134
 1568 0926 0F       		.byte	0xf
 1569 0927 3A       		.byte	0x3a
 1570 0928 9B020000 		.4byte	0x29b
 1571 092c 00       		.byte	0
 1572 092d 08       		.uleb128 0x8
 1573 092e B1000000 		.4byte	.LASF135
 1574 0932 0F       		.byte	0xf
 1575 0933 3C       		.byte	0x3c
 1576 0934 71020000 		.4byte	0x271
 1577 0938 08       		.byte	0x8
 1578 0939 08       		.uleb128 0x8
 1579 093a AC090000 		.4byte	.LASF136
 1580 093e 0F       		.byte	0xf
 1581 093f 3E       		.byte	0x3e
 1582 0940 A10A0000 		.4byte	0xaa1
 1583 0944 0C       		.byte	0xc
 1584 0945 00       		.byte	0
 1585 0946 0B       		.uleb128 0xb
 1586 0947 04       		.byte	0x4
 1587 0948 15090000 		.4byte	0x915
 1588 094c 0B       		.uleb128 0xb
 1589 094d 04       		.byte	0x4
ARM GAS  /tmp/cc6eU8gD.s 			page 29


 1590 094e 5E090000 		.4byte	0x95e
 1591 0952 04       		.uleb128 0x4
 1592 0953 4C090000 		.4byte	0x94c
 1593 0957 05       		.uleb128 0x5
 1594 0958 01       		.byte	0x1
 1595 0959 08       		.byte	0x8
 1596 095a 66000000 		.4byte	.LASF137
 1597 095e 06       		.uleb128 0x6
 1598 095f 57090000 		.4byte	0x957
 1599 0963 0B       		.uleb128 0xb
 1600 0964 04       		.byte	0x4
 1601 0965 40060000 		.4byte	0x640
 1602 0969 0B       		.uleb128 0xb
 1603 096a 04       		.byte	0x4
 1604 096b 50030000 		.4byte	0x350
 1605 096f 12       		.uleb128 0x12
 1606 0970 40060000 		.4byte	0x640
 1607 0974 7F090000 		.4byte	0x97f
 1608 0978 13       		.uleb128 0x13
 1609 0979 A2040000 		.4byte	0x4a2
 1610 097d 1B       		.byte	0x1b
 1611 097e 00       		.byte	0
 1612 097f 1C       		.uleb128 0x1c
 1613 0980 636800   		.ascii	"ch\000"
 1614 0983 08       		.byte	0x8
 1615 0984 0902     		.2byte	0x209
 1616 0986 45040000 		.4byte	0x445
 1617 098a 15       		.uleb128 0x15
 1618 098b 16       		.byte	0x16
 1619 098c 10       		.byte	0x10
 1620 098d 34       		.byte	0x34
 1621 098e 6B0A0000 		.4byte	0xa6b
 1622 0992 08       		.uleb128 0x8
 1623 0993 82080000 		.4byte	.LASF139
 1624 0997 10       		.byte	0x10
 1625 0998 35       		.byte	0x35
 1626 0999 6B0A0000 		.4byte	0xa6b
 1627 099d 00       		.byte	0
 1628 099e 08       		.uleb128 0x8
 1629 099f 8D060000 		.4byte	.LASF140
 1630 09a3 10       		.byte	0x10
 1631 09a4 36       		.byte	0x36
 1632 09a5 B9000000 		.4byte	0xb9
 1633 09a9 04       		.byte	0x4
 1634 09aa 08       		.uleb128 0x8
 1635 09ab 08070000 		.4byte	.LASF141
 1636 09af 10       		.byte	0x10
 1637 09b0 37       		.byte	0x37
 1638 09b1 B9000000 		.4byte	0xb9
 1639 09b5 05       		.byte	0x5
 1640 09b6 08       		.uleb128 0x8
 1641 09b7 AF070000 		.4byte	.LASF142
 1642 09bb 10       		.byte	0x10
 1643 09bc 38       		.byte	0x38
 1644 09bd C9000000 		.4byte	0xc9
 1645 09c1 06       		.byte	0x6
 1646 09c2 08       		.uleb128 0x8
ARM GAS  /tmp/cc6eU8gD.s 			page 30


 1647 09c3 8A010000 		.4byte	.LASF143
 1648 09c7 10       		.byte	0x10
 1649 09c8 39       		.byte	0x39
 1650 09c9 B9000000 		.4byte	0xb9
 1651 09cd 08       		.byte	0x8
 1652 09ce 08       		.uleb128 0x8
 1653 09cf 06020000 		.4byte	.LASF144
 1654 09d3 10       		.byte	0x10
 1655 09d4 3A       		.byte	0x3a
 1656 09d5 B9000000 		.4byte	0xb9
 1657 09d9 09       		.byte	0x9
 1658 09da 08       		.uleb128 0x8
 1659 09db 59030000 		.4byte	.LASF145
 1660 09df 10       		.byte	0x10
 1661 09e0 3B       		.byte	0x3b
 1662 09e1 B9000000 		.4byte	0xb9
 1663 09e5 0A       		.byte	0xa
 1664 09e6 08       		.uleb128 0x8
 1665 09e7 47080000 		.4byte	.LASF146
 1666 09eb 10       		.byte	0x10
 1667 09ec 3C       		.byte	0x3c
 1668 09ed B9000000 		.4byte	0xb9
 1669 09f1 0B       		.byte	0xb
 1670 09f2 08       		.uleb128 0x8
 1671 09f3 BF040000 		.4byte	.LASF147
 1672 09f7 10       		.byte	0x10
 1673 09f8 3D       		.byte	0x3d
 1674 09f9 B9000000 		.4byte	0xb9
 1675 09fd 0C       		.byte	0xc
 1676 09fe 08       		.uleb128 0x8
 1677 09ff CA090000 		.4byte	.LASF148
 1678 0a03 10       		.byte	0x10
 1679 0a04 3E       		.byte	0x3e
 1680 0a05 B9000000 		.4byte	0xb9
 1681 0a09 0D       		.byte	0xd
 1682 0a0a 08       		.uleb128 0x8
 1683 0a0b A4000000 		.4byte	.LASF149
 1684 0a0f 10       		.byte	0x10
 1685 0a10 3F       		.byte	0x3f
 1686 0a11 B9000000 		.4byte	0xb9
 1687 0a15 0E       		.byte	0xe
 1688 0a16 08       		.uleb128 0x8
 1689 0a17 0E010000 		.4byte	.LASF150
 1690 0a1b 10       		.byte	0x10
 1691 0a1c 40       		.byte	0x40
 1692 0a1d B9000000 		.4byte	0xb9
 1693 0a21 0F       		.byte	0xf
 1694 0a22 08       		.uleb128 0x8
 1695 0a23 D9040000 		.4byte	.LASF151
 1696 0a27 10       		.byte	0x10
 1697 0a28 41       		.byte	0x41
 1698 0a29 B9000000 		.4byte	0xb9
 1699 0a2d 10       		.byte	0x10
 1700 0a2e 08       		.uleb128 0x8
 1701 0a2f D4080000 		.4byte	.LASF152
 1702 0a33 10       		.byte	0x10
 1703 0a34 43       		.byte	0x43
ARM GAS  /tmp/cc6eU8gD.s 			page 31


 1704 0a35 B9000000 		.4byte	0xb9
 1705 0a39 11       		.byte	0x11
 1706 0a3a 08       		.uleb128 0x8
 1707 0a3b 6C010000 		.4byte	.LASF153
 1708 0a3f 10       		.byte	0x10
 1709 0a40 44       		.byte	0x44
 1710 0a41 B9000000 		.4byte	0xb9
 1711 0a45 12       		.byte	0x12
 1712 0a46 08       		.uleb128 0x8
 1713 0a47 81060000 		.4byte	.LASF154
 1714 0a4b 10       		.byte	0x10
 1715 0a4c 45       		.byte	0x45
 1716 0a4d B9000000 		.4byte	0xb9
 1717 0a51 13       		.byte	0x13
 1718 0a52 08       		.uleb128 0x8
 1719 0a53 67030000 		.4byte	.LASF155
 1720 0a57 10       		.byte	0x10
 1721 0a58 46       		.byte	0x46
 1722 0a59 B9000000 		.4byte	0xb9
 1723 0a5d 14       		.byte	0x14
 1724 0a5e 08       		.uleb128 0x8
 1725 0a5f 32080000 		.4byte	.LASF156
 1726 0a63 10       		.byte	0x10
 1727 0a64 48       		.byte	0x48
 1728 0a65 B9000000 		.4byte	0xb9
 1729 0a69 15       		.byte	0x15
 1730 0a6a 00       		.byte	0
 1731 0a6b 12       		.uleb128 0x12
 1732 0a6c 57090000 		.4byte	0x957
 1733 0a70 7B0A0000 		.4byte	0xa7b
 1734 0a74 13       		.uleb128 0x13
 1735 0a75 A2040000 		.4byte	0x4a2
 1736 0a79 03       		.byte	0x3
 1737 0a7a 00       		.byte	0
 1738 0a7b 03       		.uleb128 0x3
 1739 0a7c 52070000 		.4byte	.LASF157
 1740 0a80 10       		.byte	0x10
 1741 0a81 49       		.byte	0x49
 1742 0a82 8A090000 		.4byte	0x98a
 1743 0a86 06       		.uleb128 0x6
 1744 0a87 7B0A0000 		.4byte	0xa7b
 1745 0a8b 14       		.uleb128 0x14
 1746 0a8c 1E0A0000 		.4byte	.LASF158
 1747 0a90 10       		.byte	0x10
 1748 0a91 6E       		.byte	0x6e
 1749 0a92 860A0000 		.4byte	0xa86
 1750 0a96 03       		.uleb128 0x3
 1751 0a97 12090000 		.4byte	.LASF159
 1752 0a9b 0F       		.byte	0xf
 1753 0a9c 34       		.byte	0x34
 1754 0a9d 15090000 		.4byte	0x915
 1755 0aa1 0B       		.uleb128 0xb
 1756 0aa2 04       		.byte	0x4
 1757 0aa3 960A0000 		.4byte	0xa96
 1758 0aa7 03       		.uleb128 0x3
 1759 0aa8 20000000 		.4byte	.LASF160
 1760 0aac 12       		.byte	0x12
ARM GAS  /tmp/cc6eU8gD.s 			page 32


 1761 0aad 34       		.byte	0x34
 1762 0aae B20A0000 		.4byte	0xab2
 1763 0ab2 07       		.uleb128 0x7
 1764 0ab3 2A060000 		.4byte	.LASF161
 1765 0ab7 14       		.byte	0x14
 1766 0ab8 12       		.byte	0x12
 1767 0ab9 39       		.byte	0x39
 1768 0aba FB0A0000 		.4byte	0xafb
 1769 0abe 08       		.uleb128 0x8
 1770 0abf F1070000 		.4byte	.LASF162
 1771 0ac3 12       		.byte	0x12
 1772 0ac4 3A       		.byte	0x3a
 1773 0ac5 FB0A0000 		.4byte	0xafb
 1774 0ac9 00       		.byte	0
 1775 0aca 08       		.uleb128 0x8
 1776 0acb 6C080000 		.4byte	.LASF163
 1777 0acf 12       		.byte	0x12
 1778 0ad0 3D       		.byte	0x3d
 1779 0ad1 71020000 		.4byte	0x271
 1780 0ad5 04       		.byte	0x4
 1781 0ad6 08       		.uleb128 0x8
 1782 0ad7 62080000 		.4byte	.LASF164
 1783 0adb 12       		.byte	0x12
 1784 0adc 3F       		.byte	0x3f
 1785 0add 36010000 		.4byte	0x136
 1786 0ae1 08       		.byte	0x8
 1787 0ae2 08       		.uleb128 0x8
 1788 0ae3 630A0000 		.4byte	.LASF165
 1789 0ae7 12       		.byte	0x12
 1790 0ae8 41       		.byte	0x41
 1791 0ae9 41010000 		.4byte	0x141
 1792 0aed 0C       		.byte	0xc
 1793 0aee 08       		.uleb128 0x8
 1794 0aef 3C030000 		.4byte	.LASF166
 1795 0af3 12       		.byte	0x12
 1796 0af4 43       		.byte	0x43
 1797 0af5 41010000 		.4byte	0x141
 1798 0af9 10       		.byte	0x10
 1799 0afa 00       		.byte	0
 1800 0afb 0B       		.uleb128 0xb
 1801 0afc 04       		.byte	0x4
 1802 0afd A70A0000 		.4byte	0xaa7
 1803 0b01 07       		.uleb128 0x7
 1804 0b02 8D000000 		.4byte	.LASF167
 1805 0b06 04       		.byte	0x4
 1806 0b07 12       		.byte	0x12
 1807 0b08 4A       		.byte	0x4a
 1808 0b09 1A0B0000 		.4byte	0xb1a
 1809 0b0d 08       		.uleb128 0x8
 1810 0b0e 50090000 		.4byte	.LASF168
 1811 0b12 12       		.byte	0x12
 1812 0b13 4B       		.byte	0x4b
 1813 0b14 FB0A0000 		.4byte	0xafb
 1814 0b18 00       		.byte	0
 1815 0b19 00       		.byte	0
 1816 0b1a 03       		.uleb128 0x3
 1817 0b1b BA020000 		.4byte	.LASF169
ARM GAS  /tmp/cc6eU8gD.s 			page 33


 1818 0b1f 12       		.byte	0x12
 1819 0b20 4E       		.byte	0x4e
 1820 0b21 010B0000 		.4byte	0xb01
 1821 0b25 05       		.uleb128 0x5
 1822 0b26 01       		.byte	0x1
 1823 0b27 02       		.byte	0x2
 1824 0b28 8C030000 		.4byte	.LASF170
 1825 0b2c 03       		.uleb128 0x3
 1826 0b2d C1000000 		.4byte	.LASF171
 1827 0b31 13       		.byte	0x13
 1828 0b32 3F       		.byte	0x3f
 1829 0b33 370B0000 		.4byte	0xb37
 1830 0b37 07       		.uleb128 0x7
 1831 0b38 D7090000 		.4byte	.LASF172
 1832 0b3c 24       		.byte	0x24
 1833 0b3d 13       		.byte	0x13
 1834 0b3e 4D       		.byte	0x4d
 1835 0b3f A40B0000 		.4byte	0xba4
 1836 0b43 08       		.uleb128 0x8
 1837 0b44 FC010000 		.4byte	.LASF173
 1838 0b48 13       		.byte	0x13
 1839 0b49 4E       		.byte	0x4e
 1840 0b4a 9B020000 		.4byte	0x29b
 1841 0b4e 00       		.byte	0
 1842 0b4f 08       		.uleb128 0x8
 1843 0b50 90080000 		.4byte	.LASF174
 1844 0b54 13       		.byte	0x13
 1845 0b55 4F       		.byte	0x4f
 1846 0b56 37000000 		.4byte	0x37
 1847 0b5a 08       		.byte	0x8
 1848 0b5b 08       		.uleb128 0x8
 1849 0b5c 7F0A0000 		.4byte	.LASF175
 1850 0b60 13       		.byte	0x13
 1851 0b61 50       		.byte	0x50
 1852 0b62 C60B0000 		.4byte	0xbc6
 1853 0b66 0C       		.byte	0xc
 1854 0b67 08       		.uleb128 0x8
 1855 0b68 A4080000 		.4byte	.LASF176
 1856 0b6c 13       		.byte	0x13
 1857 0b6d 51       		.byte	0x51
 1858 0b6e C60B0000 		.4byte	0xbc6
 1859 0b72 10       		.byte	0x10
 1860 0b73 08       		.uleb128 0x8
 1861 0b74 38050000 		.4byte	.LASF177
 1862 0b78 13       		.byte	0x13
 1863 0b79 53       		.byte	0x53
 1864 0b7a C60B0000 		.4byte	0xbc6
 1865 0b7e 14       		.byte	0x14
 1866 0b7f 08       		.uleb128 0x8
 1867 0b80 F3000000 		.4byte	.LASF178
 1868 0b84 13       		.byte	0x13
 1869 0b85 54       		.byte	0x54
 1870 0b86 C60B0000 		.4byte	0xbc6
 1871 0b8a 18       		.byte	0x18
 1872 0b8b 08       		.uleb128 0x8
 1873 0b8c B0040000 		.4byte	.LASF179
 1874 0b90 13       		.byte	0x13
ARM GAS  /tmp/cc6eU8gD.s 			page 34


 1875 0b91 55       		.byte	0x55
 1876 0b92 A40B0000 		.4byte	0xba4
 1877 0b96 1C       		.byte	0x1c
 1878 0b97 08       		.uleb128 0x8
 1879 0b98 2D010000 		.4byte	.LASF180
 1880 0b9c 13       		.byte	0x13
 1881 0b9d 56       		.byte	0x56
 1882 0b9e 4E030000 		.4byte	0x34e
 1883 0ba2 20       		.byte	0x20
 1884 0ba3 00       		.byte	0
 1885 0ba4 03       		.uleb128 0x3
 1886 0ba5 90090000 		.4byte	.LASF181
 1887 0ba9 13       		.byte	0x13
 1888 0baa 42       		.byte	0x42
 1889 0bab AF0B0000 		.4byte	0xbaf
 1890 0baf 0B       		.uleb128 0xb
 1891 0bb0 04       		.byte	0x4
 1892 0bb1 B50B0000 		.4byte	0xbb5
 1893 0bb5 0D       		.uleb128 0xd
 1894 0bb6 C00B0000 		.4byte	0xbc0
 1895 0bba 0E       		.uleb128 0xe
 1896 0bbb C00B0000 		.4byte	0xbc0
 1897 0bbf 00       		.byte	0
 1898 0bc0 0B       		.uleb128 0xb
 1899 0bc1 04       		.byte	0x4
 1900 0bc2 2C0B0000 		.4byte	0xb2c
 1901 0bc6 0B       		.uleb128 0xb
 1902 0bc7 04       		.byte	0x4
 1903 0bc8 B9000000 		.4byte	0xb9
 1904 0bcc 03       		.uleb128 0x3
 1905 0bcd B2050000 		.4byte	.LASF182
 1906 0bd1 13       		.byte	0x13
 1907 0bd2 64       		.byte	0x64
 1908 0bd3 2C0B0000 		.4byte	0xb2c
 1909 0bd7 03       		.uleb128 0x3
 1910 0bd8 95060000 		.4byte	.LASF183
 1911 0bdc 13       		.byte	0x13
 1912 0bdd 71       		.byte	0x71
 1913 0bde 2C0B0000 		.4byte	0xb2c
 1914 0be2 1D       		.uleb128 0x1d
 1915 0be3 2C000000 		.4byte	0x2c
 1916 0be7 FB0B0000 		.4byte	0xbfb
 1917 0beb 0E       		.uleb128 0xe
 1918 0bec 4E030000 		.4byte	0x34e
 1919 0bf0 0E       		.uleb128 0xe
 1920 0bf1 FB0B0000 		.4byte	0xbfb
 1921 0bf5 0E       		.uleb128 0xe
 1922 0bf6 2C000000 		.4byte	0x2c
 1923 0bfa 00       		.byte	0
 1924 0bfb 0B       		.uleb128 0xb
 1925 0bfc 04       		.byte	0x4
 1926 0bfd C4000000 		.4byte	0xc4
 1927 0c01 0B       		.uleb128 0xb
 1928 0c02 04       		.byte	0x4
 1929 0c03 E20B0000 		.4byte	0xbe2
 1930 0c07 1D       		.uleb128 0x1d
 1931 0c08 2C000000 		.4byte	0x2c
ARM GAS  /tmp/cc6eU8gD.s 			page 35


 1932 0c0c 200C0000 		.4byte	0xc20
 1933 0c10 0E       		.uleb128 0xe
 1934 0c11 4E030000 		.4byte	0x34e
 1935 0c15 0E       		.uleb128 0xe
 1936 0c16 C60B0000 		.4byte	0xbc6
 1937 0c1a 0E       		.uleb128 0xe
 1938 0c1b 2C000000 		.4byte	0x2c
 1939 0c1f 00       		.byte	0
 1940 0c20 0B       		.uleb128 0xb
 1941 0c21 04       		.byte	0x4
 1942 0c22 070C0000 		.4byte	0xc07
 1943 0c26 1D       		.uleb128 0x1d
 1944 0c27 2B010000 		.4byte	0x12b
 1945 0c2b 3A0C0000 		.4byte	0xc3a
 1946 0c2f 0E       		.uleb128 0xe
 1947 0c30 4E030000 		.4byte	0x34e
 1948 0c34 0E       		.uleb128 0xe
 1949 0c35 B9000000 		.4byte	0xb9
 1950 0c39 00       		.byte	0
 1951 0c3a 0B       		.uleb128 0xb
 1952 0c3b 04       		.byte	0x4
 1953 0c3c 260C0000 		.4byte	0xc26
 1954 0c40 1D       		.uleb128 0x1d
 1955 0c41 2B010000 		.4byte	0x12b
 1956 0c45 4F0C0000 		.4byte	0xc4f
 1957 0c49 0E       		.uleb128 0xe
 1958 0c4a 4E030000 		.4byte	0x34e
 1959 0c4e 00       		.byte	0
 1960 0c4f 0B       		.uleb128 0xb
 1961 0c50 04       		.byte	0x4
 1962 0c51 400C0000 		.4byte	0xc40
 1963 0c55 15       		.uleb128 0x15
 1964 0c56 14       		.byte	0x14
 1965 0c57 14       		.byte	0x14
 1966 0c58 E4       		.byte	0xe4
 1967 0c59 B20C0000 		.4byte	0xcb2
 1968 0c5d 16       		.uleb128 0x16
 1969 0c5e 646D6100 		.ascii	"dma\000"
 1970 0c62 14       		.byte	0x14
 1971 0c63 E5       		.byte	0xe5
 1972 0c64 B20C0000 		.4byte	0xcb2
 1973 0c68 00       		.byte	0
 1974 0c69 08       		.uleb128 0x8
 1975 0c6a 5C070000 		.4byte	.LASF184
 1976 0c6e 14       		.byte	0x14
 1977 0c6f E6       		.byte	0xe6
 1978 0c70 B80C0000 		.4byte	0xcb8
 1979 0c74 04       		.byte	0x4
 1980 0c75 08       		.uleb128 0x8
 1981 0c76 AC050000 		.4byte	.LASF185
 1982 0c7a 14       		.byte	0x14
 1983 0c7b E7       		.byte	0xe7
 1984 0c7c E4000000 		.4byte	0xe4
 1985 0c80 08       		.byte	0x8
 1986 0c81 08       		.uleb128 0x8
 1987 0c82 51020000 		.4byte	.LASF186
 1988 0c86 14       		.byte	0x14
ARM GAS  /tmp/cc6eU8gD.s 			page 36


 1989 0c87 E9       		.byte	0xe9
 1990 0c88 BE0C0000 		.4byte	0xcbe
 1991 0c8c 0C       		.byte	0xc
 1992 0c8d 08       		.uleb128 0x8
 1993 0c8e 38020000 		.4byte	.LASF187
 1994 0c92 14       		.byte	0x14
 1995 0c93 EA       		.byte	0xea
 1996 0c94 B9000000 		.4byte	0xb9
 1997 0c98 10       		.byte	0x10
 1998 0c99 08       		.uleb128 0x8
 1999 0c9a 750A0000 		.4byte	.LASF188
 2000 0c9e 14       		.byte	0x14
 2001 0c9f EC       		.byte	0xec
 2002 0ca0 B9000000 		.4byte	0xb9
 2003 0ca4 11       		.byte	0x11
 2004 0ca5 08       		.uleb128 0x8
 2005 0ca6 B3020000 		.4byte	.LASF189
 2006 0caa 14       		.byte	0x14
 2007 0cab ED       		.byte	0xed
 2008 0cac B9000000 		.4byte	0xb9
 2009 0cb0 12       		.byte	0x12
 2010 0cb1 00       		.byte	0
 2011 0cb2 0B       		.uleb128 0xb
 2012 0cb3 04       		.byte	0x4
 2013 0cb4 56050000 		.4byte	0x556
 2014 0cb8 0B       		.uleb128 0xb
 2015 0cb9 04       		.byte	0x4
 2016 0cba 02050000 		.4byte	0x502
 2017 0cbe 0B       		.uleb128 0xb
 2018 0cbf 04       		.byte	0x4
 2019 0cc0 EF000000 		.4byte	0xef
 2020 0cc4 03       		.uleb128 0x3
 2021 0cc5 60050000 		.4byte	.LASF190
 2022 0cc9 14       		.byte	0x14
 2023 0cca EE       		.byte	0xee
 2024 0ccb 550C0000 		.4byte	0xc55
 2025 0ccf 06       		.uleb128 0x6
 2026 0cd0 C40C0000 		.4byte	0xcc4
 2027 0cd4 03       		.uleb128 0x3
 2028 0cd5 CA040000 		.4byte	.LASF191
 2029 0cd9 14       		.byte	0x14
 2030 0cda F7       		.byte	0xf7
 2031 0cdb DF0C0000 		.4byte	0xcdf
 2032 0cdf 0B       		.uleb128 0xb
 2033 0ce0 04       		.byte	0x4
 2034 0ce1 E50C0000 		.4byte	0xce5
 2035 0ce5 0D       		.uleb128 0xd
 2036 0ce6 F50C0000 		.4byte	0xcf5
 2037 0cea 0E       		.uleb128 0xe
 2038 0ceb 4E030000 		.4byte	0x34e
 2039 0cef 0E       		.uleb128 0xe
 2040 0cf0 E4000000 		.4byte	0xe4
 2041 0cf4 00       		.byte	0
 2042 0cf5 15       		.uleb128 0x15
 2043 0cf6 08       		.byte	0x8
 2044 0cf7 14       		.byte	0x14
 2045 0cf8 FC       		.byte	0xfc
ARM GAS  /tmp/cc6eU8gD.s 			page 37


 2046 0cf9 160D0000 		.4byte	0xd16
 2047 0cfd 08       		.uleb128 0x8
 2048 0cfe 3E080000 		.4byte	.LASF192
 2049 0d02 14       		.byte	0x14
 2050 0d03 FD       		.byte	0xfd
 2051 0d04 D40C0000 		.4byte	0xcd4
 2052 0d08 00       		.byte	0
 2053 0d09 08       		.uleb128 0x8
 2054 0d0a A4060000 		.4byte	.LASF193
 2055 0d0e 14       		.byte	0x14
 2056 0d0f FE       		.byte	0xfe
 2057 0d10 4E030000 		.4byte	0x34e
 2058 0d14 04       		.byte	0x4
 2059 0d15 00       		.byte	0
 2060 0d16 03       		.uleb128 0x3
 2061 0d17 5F020000 		.4byte	.LASF194
 2062 0d1b 14       		.byte	0x14
 2063 0d1c FF       		.byte	0xff
 2064 0d1d F50C0000 		.4byte	0xcf5
 2065 0d21 12       		.uleb128 0x12
 2066 0d22 CF0C0000 		.4byte	0xccf
 2067 0d26 310D0000 		.4byte	0xd31
 2068 0d2a 13       		.uleb128 0x13
 2069 0d2b A2040000 		.4byte	0x4a2
 2070 0d2f 04       		.byte	0x4
 2071 0d30 00       		.byte	0
 2072 0d31 06       		.uleb128 0x6
 2073 0d32 210D0000 		.4byte	0xd21
 2074 0d36 1E       		.uleb128 0x1e
 2075 0d37 480A0000 		.4byte	.LASF195
 2076 0d3b 14       		.byte	0x14
 2077 0d3c CD01     		.2byte	0x1cd
 2078 0d3e 310D0000 		.4byte	0xd31
 2079 0d42 12       		.uleb128 0x12
 2080 0d43 160D0000 		.4byte	0xd16
 2081 0d47 520D0000 		.4byte	0xd52
 2082 0d4b 13       		.uleb128 0x13
 2083 0d4c A2040000 		.4byte	0x4a2
 2084 0d50 04       		.byte	0x4
 2085 0d51 00       		.byte	0
 2086 0d52 1E       		.uleb128 0x1e
 2087 0d53 04050000 		.4byte	.LASF196
 2088 0d57 14       		.byte	0x14
 2089 0d58 CE01     		.2byte	0x1ce
 2090 0d5a 420D0000 		.4byte	0xd42
 2091 0d5e 1D       		.uleb128 0x1d
 2092 0d5f 2B010000 		.4byte	0x12b
 2093 0d63 770D0000 		.4byte	0xd77
 2094 0d67 0E       		.uleb128 0xe
 2095 0d68 4E030000 		.4byte	0x34e
 2096 0d6c 0E       		.uleb128 0xe
 2097 0d6d B9000000 		.4byte	0xb9
 2098 0d71 0E       		.uleb128 0xe
 2099 0d72 57010000 		.4byte	0x157
 2100 0d76 00       		.byte	0
 2101 0d77 0B       		.uleb128 0xb
 2102 0d78 04       		.byte	0x4
ARM GAS  /tmp/cc6eU8gD.s 			page 38


 2103 0d79 5E0D0000 		.4byte	0xd5e
 2104 0d7d 1D       		.uleb128 0x1d
 2105 0d7e 2B010000 		.4byte	0x12b
 2106 0d82 910D0000 		.4byte	0xd91
 2107 0d86 0E       		.uleb128 0xe
 2108 0d87 4E030000 		.4byte	0x34e
 2109 0d8b 0E       		.uleb128 0xe
 2110 0d8c 57010000 		.4byte	0x157
 2111 0d90 00       		.byte	0
 2112 0d91 0B       		.uleb128 0xb
 2113 0d92 04       		.byte	0x4
 2114 0d93 7D0D0000 		.4byte	0xd7d
 2115 0d97 1D       		.uleb128 0x1d
 2116 0d98 2C000000 		.4byte	0x2c
 2117 0d9c B50D0000 		.4byte	0xdb5
 2118 0da0 0E       		.uleb128 0xe
 2119 0da1 4E030000 		.4byte	0x34e
 2120 0da5 0E       		.uleb128 0xe
 2121 0da6 FB0B0000 		.4byte	0xbfb
 2122 0daa 0E       		.uleb128 0xe
 2123 0dab 2C000000 		.4byte	0x2c
 2124 0daf 0E       		.uleb128 0xe
 2125 0db0 57010000 		.4byte	0x157
 2126 0db4 00       		.byte	0
 2127 0db5 0B       		.uleb128 0xb
 2128 0db6 04       		.byte	0x4
 2129 0db7 970D0000 		.4byte	0xd97
 2130 0dbb 1D       		.uleb128 0x1d
 2131 0dbc 2C000000 		.4byte	0x2c
 2132 0dc0 D90D0000 		.4byte	0xdd9
 2133 0dc4 0E       		.uleb128 0xe
 2134 0dc5 4E030000 		.4byte	0x34e
 2135 0dc9 0E       		.uleb128 0xe
 2136 0dca C60B0000 		.4byte	0xbc6
 2137 0dce 0E       		.uleb128 0xe
 2138 0dcf 2C000000 		.4byte	0x2c
 2139 0dd3 0E       		.uleb128 0xe
 2140 0dd4 57010000 		.4byte	0x157
 2141 0dd8 00       		.byte	0
 2142 0dd9 0B       		.uleb128 0xb
 2143 0dda 04       		.byte	0x4
 2144 0ddb BB0D0000 		.4byte	0xdbb
 2145 0ddf 15       		.uleb128 0x15
 2146 0de0 1C       		.byte	0x1c
 2147 0de1 15       		.byte	0x15
 2148 0de2 F5       		.byte	0xf5
 2149 0de3 3E0E0000 		.4byte	0xe3e
 2150 0de7 08       		.uleb128 0x8
 2151 0de8 F0040000 		.4byte	.LASF197
 2152 0dec 15       		.byte	0x15
 2153 0ded F7       		.byte	0xf7
 2154 0dee E4000000 		.4byte	0xe4
 2155 0df2 00       		.byte	0
 2156 0df3 08       		.uleb128 0x8
 2157 0df4 31020000 		.4byte	.LASF198
 2158 0df8 15       		.byte	0x15
 2159 0df9 F9       		.byte	0xf9
ARM GAS  /tmp/cc6eU8gD.s 			page 39


 2160 0dfa E4000000 		.4byte	0xe4
 2161 0dfe 04       		.byte	0x4
 2162 0dff 08       		.uleb128 0x8
 2163 0e00 5B0A0000 		.4byte	.LASF199
 2164 0e04 15       		.byte	0x15
 2165 0e05 FB       		.byte	0xfb
 2166 0e06 E4000000 		.4byte	0xe4
 2167 0e0a 08       		.byte	0x8
 2168 0e0b 08       		.uleb128 0x8
 2169 0e0c 4F060000 		.4byte	.LASF200
 2170 0e10 15       		.byte	0x15
 2171 0e11 FD       		.byte	0xfd
 2172 0e12 E4000000 		.4byte	0xe4
 2173 0e16 0C       		.byte	0xc
 2174 0e17 16       		.uleb128 0x16
 2175 0e18 6F647200 		.ascii	"odr\000"
 2176 0e1c 15       		.byte	0x15
 2177 0e1d FF       		.byte	0xff
 2178 0e1e E4000000 		.4byte	0xe4
 2179 0e22 10       		.byte	0x10
 2180 0e23 0A       		.uleb128 0xa
 2181 0e24 BA060000 		.4byte	.LASF201
 2182 0e28 15       		.byte	0x15
 2183 0e29 0101     		.2byte	0x101
 2184 0e2b E4000000 		.4byte	0xe4
 2185 0e2f 14       		.byte	0x14
 2186 0e30 0A       		.uleb128 0xa
 2187 0e31 B5060000 		.4byte	.LASF202
 2188 0e35 15       		.byte	0x15
 2189 0e36 0301     		.2byte	0x103
 2190 0e38 E4000000 		.4byte	0xe4
 2191 0e3c 18       		.byte	0x18
 2192 0e3d 00       		.byte	0
 2193 0e3e 18       		.uleb128 0x18
 2194 0e3f E7020000 		.4byte	.LASF203
 2195 0e43 15       		.byte	0x15
 2196 0e44 0401     		.2byte	0x104
 2197 0e46 DF0D0000 		.4byte	0xddf
 2198 0e4a 17       		.uleb128 0x17
 2199 0e4b 70       		.byte	0x70
 2200 0e4c 15       		.byte	0x15
 2201 0e4d 0D01     		.2byte	0x10d
 2202 0e4f 880E0000 		.4byte	0xe88
 2203 0e53 0A       		.uleb128 0xa
 2204 0e54 F9070000 		.4byte	.LASF204
 2205 0e58 15       		.byte	0x15
 2206 0e59 1001     		.2byte	0x110
 2207 0e5b 3E0E0000 		.4byte	0xe3e
 2208 0e5f 00       		.byte	0
 2209 0e60 0A       		.uleb128 0xa
 2210 0e61 68040000 		.4byte	.LASF205
 2211 0e65 15       		.byte	0x15
 2212 0e66 1401     		.2byte	0x114
 2213 0e68 3E0E0000 		.4byte	0xe3e
 2214 0e6c 1C       		.byte	0x1c
 2215 0e6d 0A       		.uleb128 0xa
 2216 0e6e 48000000 		.4byte	.LASF206
ARM GAS  /tmp/cc6eU8gD.s 			page 40


 2217 0e72 15       		.byte	0x15
 2218 0e73 1801     		.2byte	0x118
 2219 0e75 3E0E0000 		.4byte	0xe3e
 2220 0e79 38       		.byte	0x38
 2221 0e7a 0A       		.uleb128 0xa
 2222 0e7b 410A0000 		.4byte	.LASF207
 2223 0e7f 15       		.byte	0x15
 2224 0e80 2401     		.2byte	0x124
 2225 0e82 3E0E0000 		.4byte	0xe3e
 2226 0e86 54       		.byte	0x54
 2227 0e87 00       		.byte	0
 2228 0e88 18       		.uleb128 0x18
 2229 0e89 9A080000 		.4byte	.LASF208
 2230 0e8d 15       		.byte	0x15
 2231 0e8e 3A01     		.2byte	0x13a
 2232 0e90 4A0E0000 		.4byte	0xe4a
 2233 0e94 06       		.uleb128 0x6
 2234 0e95 880E0000 		.4byte	0xe88
 2235 0e99 1E       		.uleb128 0x1e
 2236 0e9a 88040000 		.4byte	.LASF209
 2237 0e9e 15       		.byte	0x15
 2238 0e9f 1E02     		.2byte	0x21e
 2239 0ea1 940E0000 		.4byte	0xe94
 2240 0ea5 1F       		.uleb128 0x1f
 2241 0ea6 01       		.byte	0x1
 2242 0ea7 63000000 		.4byte	0x63
 2243 0eab 16       		.byte	0x16
 2244 0eac 55       		.byte	0x55
 2245 0ead C40E0000 		.4byte	0xec4
 2246 0eb1 20       		.uleb128 0x20
 2247 0eb2 78080000 		.4byte	.LASF210
 2248 0eb6 00       		.byte	0
 2249 0eb7 20       		.uleb128 0x20
 2250 0eb8 92030000 		.4byte	.LASF211
 2251 0ebc 01       		.byte	0x1
 2252 0ebd 20       		.uleb128 0x20
 2253 0ebe 64070000 		.4byte	.LASF212
 2254 0ec2 02       		.byte	0x2
 2255 0ec3 00       		.byte	0
 2256 0ec4 03       		.uleb128 0x3
 2257 0ec5 82030000 		.4byte	.LASF213
 2258 0ec9 16       		.byte	0x16
 2259 0eca 59       		.byte	0x59
 2260 0ecb A50E0000 		.4byte	0xea5
 2261 0ecf 03       		.uleb128 0x3
 2262 0ed0 3B000000 		.4byte	.LASF214
 2263 0ed4 16       		.byte	0x16
 2264 0ed5 5E       		.byte	0x5e
 2265 0ed6 DA0E0000 		.4byte	0xeda
 2266 0eda 21       		.uleb128 0x21
 2267 0edb 3B000000 		.4byte	.LASF214
 2268 0edf 5C01     		.2byte	0x15c
 2269 0ee1 16       		.byte	0x16
 2270 0ee2 78       		.byte	0x78
 2271 0ee3 540F0000 		.4byte	0xf54
 2272 0ee7 16       		.uleb128 0x16
 2273 0ee8 766D7400 		.ascii	"vmt\000"
ARM GAS  /tmp/cc6eU8gD.s 			page 41


 2274 0eec 16       		.byte	0x16
 2275 0eed 7A       		.byte	0x7a
 2276 0eee D20F0000 		.4byte	0xfd2
 2277 0ef2 00       		.byte	0
 2278 0ef3 08       		.uleb128 0x8
 2279 0ef4 3E020000 		.4byte	.LASF215
 2280 0ef8 16       		.byte	0x16
 2281 0ef9 7B       		.byte	0x7b
 2282 0efa 1A0B0000 		.4byte	0xb1a
 2283 0efe 04       		.byte	0x4
 2284 0eff 08       		.uleb128 0x8
 2285 0f00 69090000 		.4byte	.LASF216
 2286 0f04 16       		.byte	0x16
 2287 0f05 7B       		.byte	0x7b
 2288 0f06 C40E0000 		.4byte	0xec4
 2289 0f0a 08       		.byte	0x8
 2290 0f0b 08       		.uleb128 0x8
 2291 0f0c 9B040000 		.4byte	.LASF217
 2292 0f10 16       		.byte	0x16
 2293 0f11 7B       		.byte	0x7b
 2294 0f12 CC0B0000 		.4byte	0xbcc
 2295 0f16 0C       		.byte	0xc
 2296 0f17 08       		.uleb128 0x8
 2297 0f18 2F070000 		.4byte	.LASF218
 2298 0f1c 16       		.byte	0x16
 2299 0f1d 7B       		.byte	0x7b
 2300 0f1e D70B0000 		.4byte	0xbd7
 2301 0f22 30       		.byte	0x30
 2302 0f23 16       		.uleb128 0x16
 2303 0f24 696200   		.ascii	"ib\000"
 2304 0f27 16       		.byte	0x16
 2305 0f28 7B       		.byte	0x7b
 2306 0f29 D80F0000 		.4byte	0xfd8
 2307 0f2d 54       		.byte	0x54
 2308 0f2e 16       		.uleb128 0x16
 2309 0f2f 6F6200   		.ascii	"ob\000"
 2310 0f32 16       		.byte	0x16
 2311 0f33 7B       		.byte	0x7b
 2312 0f34 D80F0000 		.4byte	0xfd8
 2313 0f38 D4       		.byte	0xd4
 2314 0f39 22       		.uleb128 0x22
 2315 0f3a E9050000 		.4byte	.LASF219
 2316 0f3e 16       		.byte	0x16
 2317 0f3f 7B       		.byte	0x7b
 2318 0f40 E80F0000 		.4byte	0xfe8
 2319 0f44 5401     		.2byte	0x154
 2320 0f46 22       		.uleb128 0x22
 2321 0f47 B9040000 		.4byte	.LASF220
 2322 0f4b 16       		.byte	0x16
 2323 0f4c 7B       		.byte	0x7b
 2324 0f4d E4000000 		.4byte	0xe4
 2325 0f51 5801     		.2byte	0x158
 2326 0f53 00       		.byte	0
 2327 0f54 1C       		.uleb128 0x1c
 2328 0f55 53443500 		.ascii	"SD5\000"
 2329 0f59 17       		.byte	0x17
 2330 0f5a 7201     		.2byte	0x172
ARM GAS  /tmp/cc6eU8gD.s 			page 42


 2331 0f5c CF0E0000 		.4byte	0xecf
 2332 0f60 07       		.uleb128 0x7
 2333 0f61 76070000 		.4byte	.LASF221
 2334 0f65 20       		.byte	0x20
 2335 0f66 16       		.byte	0x16
 2336 0f67 6D       		.byte	0x6d
 2337 0f68 CD0F0000 		.4byte	0xfcd
 2338 0f6c 08       		.uleb128 0x8
 2339 0f6d 24060000 		.4byte	.LASF222
 2340 0f71 16       		.byte	0x16
 2341 0f72 6E       		.byte	0x6e
 2342 0f73 010C0000 		.4byte	0xc01
 2343 0f77 00       		.byte	0
 2344 0f78 08       		.uleb128 0x8
 2345 0f79 5D080000 		.4byte	.LASF223
 2346 0f7d 16       		.byte	0x16
 2347 0f7e 6E       		.byte	0x6e
 2348 0f7f 200C0000 		.4byte	0xc20
 2349 0f83 04       		.byte	0x4
 2350 0f84 16       		.uleb128 0x16
 2351 0f85 70757400 		.ascii	"put\000"
 2352 0f89 16       		.byte	0x16
 2353 0f8a 6E       		.byte	0x6e
 2354 0f8b 3A0C0000 		.4byte	0xc3a
 2355 0f8f 08       		.byte	0x8
 2356 0f90 16       		.uleb128 0x16
 2357 0f91 67657400 		.ascii	"get\000"
 2358 0f95 16       		.byte	0x16
 2359 0f96 6E       		.byte	0x6e
 2360 0f97 4F0C0000 		.4byte	0xc4f
 2361 0f9b 0C       		.byte	0xc
 2362 0f9c 08       		.uleb128 0x8
 2363 0f9d 46030000 		.4byte	.LASF224
 2364 0fa1 16       		.byte	0x16
 2365 0fa2 6E       		.byte	0x6e
 2366 0fa3 770D0000 		.4byte	0xd77
 2367 0fa7 10       		.byte	0x10
 2368 0fa8 08       		.uleb128 0x8
 2369 0fa9 FB060000 		.4byte	.LASF225
 2370 0fad 16       		.byte	0x16
 2371 0fae 6E       		.byte	0x6e
 2372 0faf 910D0000 		.4byte	0xd91
 2373 0fb3 14       		.byte	0x14
 2374 0fb4 08       		.uleb128 0x8
 2375 0fb5 A3010000 		.4byte	.LASF226
 2376 0fb9 16       		.byte	0x16
 2377 0fba 6E       		.byte	0x6e
 2378 0fbb B50D0000 		.4byte	0xdb5
 2379 0fbf 18       		.byte	0x18
 2380 0fc0 08       		.uleb128 0x8
 2381 0fc1 E0090000 		.4byte	.LASF227
 2382 0fc5 16       		.byte	0x16
 2383 0fc6 6E       		.byte	0x6e
 2384 0fc7 D90D0000 		.4byte	0xdd9
 2385 0fcb 1C       		.byte	0x1c
 2386 0fcc 00       		.byte	0
 2387 0fcd 06       		.uleb128 0x6
ARM GAS  /tmp/cc6eU8gD.s 			page 43


 2388 0fce 600F0000 		.4byte	0xf60
 2389 0fd2 0B       		.uleb128 0xb
 2390 0fd3 04       		.byte	0x4
 2391 0fd4 CD0F0000 		.4byte	0xfcd
 2392 0fd8 12       		.uleb128 0x12
 2393 0fd9 B9000000 		.4byte	0xb9
 2394 0fdd E80F0000 		.4byte	0xfe8
 2395 0fe1 13       		.uleb128 0x13
 2396 0fe2 A2040000 		.4byte	0x4a2
 2397 0fe6 7F       		.byte	0x7f
 2398 0fe7 00       		.byte	0
 2399 0fe8 0B       		.uleb128 0xb
 2400 0fe9 04       		.byte	0x4
 2401 0fea 29060000 		.4byte	0x629
 2402 0fee 23       		.uleb128 0x23
 2403 0fef B3090000 		.4byte	.LASF240
 2404 0ff3 02       		.byte	0x2
 2405 0ff4 79       		.byte	0x79
 2406 0ff5 57010000 		.4byte	0x157
 2407 0ff9 00000000 		.4byte	.LFB186
 2408 0ffd 2C000000 		.4byte	.LFE186-.LFB186
 2409 1001 01       		.uleb128 0x1
 2410 1002 9C       		.byte	0x9c
 2411 1003 17100000 		.4byte	0x1017
 2412 1007 24       		.uleb128 0x24
 2413 1008 150A0000 		.4byte	.LASF228
 2414 100c 27100000 		.4byte	0x1027
 2415 1010 05       		.uleb128 0x5
 2416 1011 03       		.byte	0x3
 2417 1012 00000000 		.4byte	__func__.6222
 2418 1016 00       		.byte	0
 2419 1017 12       		.uleb128 0x12
 2420 1018 5E090000 		.4byte	0x95e
 2421 101c 27100000 		.4byte	0x1027
 2422 1020 13       		.uleb128 0x13
 2423 1021 A2040000 		.4byte	0x4a2
 2424 1025 0A       		.byte	0xa
 2425 1026 00       		.byte	0
 2426 1027 06       		.uleb128 0x6
 2427 1028 17100000 		.4byte	0x1017
 2428 102c 25       		.uleb128 0x25
 2429 102d F1010000 		.4byte	.LASF229
 2430 1031 02       		.byte	0x2
 2431 1032 69       		.byte	0x69
 2432 1033 00000000 		.4byte	.LFB185
 2433 1037 3C000000 		.4byte	.LFE185-.LFB185
 2434 103b 01       		.uleb128 0x1
 2435 103c 9C       		.byte	0x9c
 2436 103d 5F100000 		.4byte	0x105f
 2437 1041 26       		.uleb128 0x26
 2438 1042 1B070000 		.4byte	.LASF231
 2439 1046 02       		.byte	0x2
 2440 1047 69       		.byte	0x69
 2441 1048 57010000 		.4byte	0x157
 2442 104c 02       		.uleb128 0x2
 2443 104d 91       		.byte	0x91
 2444 104e 76       		.sleb128 -10
ARM GAS  /tmp/cc6eU8gD.s 			page 44


 2445 104f 24       		.uleb128 0x24
 2446 1050 150A0000 		.4byte	.LASF228
 2447 1054 27100000 		.4byte	0x1027
 2448 1058 05       		.uleb128 0x5
 2449 1059 03       		.byte	0x3
 2450 105a 00000000 		.4byte	__func__.6218
 2451 105e 00       		.byte	0
 2452 105f 27       		.uleb128 0x27
 2453 1060 11080000 		.4byte	.LASF232
 2454 1064 02       		.byte	0x2
 2455 1065 5B       		.byte	0x5b
 2456 1066 00000000 		.4byte	.LFB184
 2457 106a 0A000000 		.4byte	.LFE184-.LFB184
 2458 106e 01       		.uleb128 0x1
 2459 106f 9C       		.byte	0x9c
 2460 1070 25       		.uleb128 0x25
 2461 1071 1E030000 		.4byte	.LASF230
 2462 1075 02       		.byte	0x2
 2463 1076 4D       		.byte	0x4d
 2464 1077 00000000 		.4byte	.LFB183
 2465 107b 34000000 		.4byte	.LFE183-.LFB183
 2466 107f 01       		.uleb128 0x1
 2467 1080 9C       		.byte	0x9c
 2468 1081 A3100000 		.4byte	0x10a3
 2469 1085 26       		.uleb128 0x26
 2470 1086 1B070000 		.4byte	.LASF231
 2471 108a 02       		.byte	0x2
 2472 108b 4D       		.byte	0x4d
 2473 108c 57010000 		.4byte	0x157
 2474 1090 02       		.uleb128 0x2
 2475 1091 91       		.byte	0x91
 2476 1092 76       		.sleb128 -10
 2477 1093 24       		.uleb128 0x24
 2478 1094 150A0000 		.4byte	.LASF228
 2479 1098 B3100000 		.4byte	0x10b3
 2480 109c 05       		.uleb128 0x5
 2481 109d 03       		.byte	0x3
 2482 109e 00000000 		.4byte	__func__.6211
 2483 10a2 00       		.byte	0
 2484 10a3 12       		.uleb128 0x12
 2485 10a4 5E090000 		.4byte	0x95e
 2486 10a8 B3100000 		.4byte	0x10b3
 2487 10ac 13       		.uleb128 0x13
 2488 10ad A2040000 		.4byte	0x4a2
 2489 10b1 0C       		.byte	0xc
 2490 10b2 00       		.byte	0
 2491 10b3 06       		.uleb128 0x6
 2492 10b4 A3100000 		.4byte	0x10a3
 2493 10b8 27       		.uleb128 0x27
 2494 10b9 73050000 		.4byte	.LASF233
 2495 10bd 02       		.byte	0x2
 2496 10be 3C       		.byte	0x3c
 2497 10bf 00000000 		.4byte	.LFB182
 2498 10c3 0A000000 		.4byte	.LFE182-.LFB182
 2499 10c7 01       		.uleb128 0x1
 2500 10c8 9C       		.byte	0x9c
 2501 10c9 28       		.uleb128 0x28
ARM GAS  /tmp/cc6eU8gD.s 			page 45


 2502 10ca D4060000 		.4byte	.LASF234
 2503 10ce 01       		.byte	0x1
 2504 10cf CB       		.byte	0xcb
 2505 10d0 250B0000 		.4byte	0xb25
 2506 10d4 00000000 		.4byte	.LFB51
 2507 10d8 18000000 		.4byte	.LFE51-.LFB51
 2508 10dc 01       		.uleb128 0x1
 2509 10dd 9C       		.byte	0x9c
 2510 10de 28       		.uleb128 0x28
 2511 10df 40050000 		.4byte	.LASF235
 2512 10e3 01       		.byte	0x1
 2513 10e4 BD       		.byte	0xbd
 2514 10e5 57010000 		.4byte	0x157
 2515 10e9 00000000 		.4byte	.LFB50
 2516 10ed 10000000 		.4byte	.LFE50-.LFB50
 2517 10f1 01       		.uleb128 0x1
 2518 10f2 9C       		.byte	0x9c
 2519 10f3 29       		.uleb128 0x29
 2520 10f4 58090000 		.4byte	.LASF241
 2521 10f8 01       		.byte	0x1
 2522 10f9 B1       		.byte	0xb1
 2523 10fa 00000000 		.4byte	.LFB49
 2524 10fe 20000000 		.4byte	.LFE49-.LFB49
 2525 1102 01       		.uleb128 0x1
 2526 1103 9C       		.byte	0x9c
 2527 1104 17110000 		.4byte	0x1117
 2528 1108 26       		.uleb128 0x26
 2529 1109 DA020000 		.4byte	.LASF236
 2530 110d 01       		.byte	0x1
 2531 110e B1       		.byte	0xb1
 2532 110f 57010000 		.4byte	0x157
 2533 1113 02       		.uleb128 0x2
 2534 1114 91       		.byte	0x91
 2535 1115 7E       		.sleb128 -2
 2536 1116 00       		.byte	0
 2537 1117 2A       		.uleb128 0x2a
 2538 1118 74000000 		.4byte	.LASF242
 2539 111c 01       		.byte	0x1
 2540 111d A5       		.byte	0xa5
 2541 111e 00000000 		.4byte	.LFB48
 2542 1122 10000000 		.4byte	.LFE48-.LFB48
 2543 1126 01       		.uleb128 0x1
 2544 1127 9C       		.byte	0x9c
 2545 1128 2B       		.uleb128 0x2b
 2546 1129 3F070000 		.4byte	.LASF243
 2547 112d 01       		.byte	0x1
 2548 112e 99       		.byte	0x99
 2549 112f 00000000 		.4byte	.LFB47
 2550 1133 2C000000 		.4byte	.LFE47-.LFB47
 2551 1137 01       		.uleb128 0x1
 2552 1138 9C       		.byte	0x9c
 2553 1139 26       		.uleb128 0x26
 2554 113a DA020000 		.4byte	.LASF236
 2555 113e 01       		.byte	0x1
 2556 113f 99       		.byte	0x99
 2557 1140 57010000 		.4byte	0x157
 2558 1144 02       		.uleb128 0x2
ARM GAS  /tmp/cc6eU8gD.s 			page 46


 2559 1145 91       		.byte	0x91
 2560 1146 7E       		.sleb128 -2
 2561 1147 00       		.byte	0
 2562 1148 00       		.byte	0
 2563              		.section	.debug_abbrev,"",%progbits
 2564              	.Ldebug_abbrev0:
 2565 0000 01       		.uleb128 0x1
 2566 0001 11       		.uleb128 0x11
 2567 0002 01       		.byte	0x1
 2568 0003 25       		.uleb128 0x25
 2569 0004 0E       		.uleb128 0xe
 2570 0005 13       		.uleb128 0x13
 2571 0006 0B       		.uleb128 0xb
 2572 0007 03       		.uleb128 0x3
 2573 0008 0E       		.uleb128 0xe
 2574 0009 1B       		.uleb128 0x1b
 2575 000a 0E       		.uleb128 0xe
 2576 000b 55       		.uleb128 0x55
 2577 000c 17       		.uleb128 0x17
 2578 000d 11       		.uleb128 0x11
 2579 000e 01       		.uleb128 0x1
 2580 000f 10       		.uleb128 0x10
 2581 0010 17       		.uleb128 0x17
 2582 0011 00       		.byte	0
 2583 0012 00       		.byte	0
 2584 0013 02       		.uleb128 0x2
 2585 0014 24       		.uleb128 0x24
 2586 0015 00       		.byte	0
 2587 0016 0B       		.uleb128 0xb
 2588 0017 0B       		.uleb128 0xb
 2589 0018 3E       		.uleb128 0x3e
 2590 0019 0B       		.uleb128 0xb
 2591 001a 03       		.uleb128 0x3
 2592 001b 08       		.uleb128 0x8
 2593 001c 00       		.byte	0
 2594 001d 00       		.byte	0
 2595 001e 03       		.uleb128 0x3
 2596 001f 16       		.uleb128 0x16
 2597 0020 00       		.byte	0
 2598 0021 03       		.uleb128 0x3
 2599 0022 0E       		.uleb128 0xe
 2600 0023 3A       		.uleb128 0x3a
 2601 0024 0B       		.uleb128 0xb
 2602 0025 3B       		.uleb128 0x3b
 2603 0026 0B       		.uleb128 0xb
 2604 0027 49       		.uleb128 0x49
 2605 0028 13       		.uleb128 0x13
 2606 0029 00       		.byte	0
 2607 002a 00       		.byte	0
 2608 002b 04       		.uleb128 0x4
 2609 002c 35       		.uleb128 0x35
 2610 002d 00       		.byte	0
 2611 002e 49       		.uleb128 0x49
 2612 002f 13       		.uleb128 0x13
 2613 0030 00       		.byte	0
 2614 0031 00       		.byte	0
 2615 0032 05       		.uleb128 0x5
ARM GAS  /tmp/cc6eU8gD.s 			page 47


 2616 0033 24       		.uleb128 0x24
 2617 0034 00       		.byte	0
 2618 0035 0B       		.uleb128 0xb
 2619 0036 0B       		.uleb128 0xb
 2620 0037 3E       		.uleb128 0x3e
 2621 0038 0B       		.uleb128 0xb
 2622 0039 03       		.uleb128 0x3
 2623 003a 0E       		.uleb128 0xe
 2624 003b 00       		.byte	0
 2625 003c 00       		.byte	0
 2626 003d 06       		.uleb128 0x6
 2627 003e 26       		.uleb128 0x26
 2628 003f 00       		.byte	0
 2629 0040 49       		.uleb128 0x49
 2630 0041 13       		.uleb128 0x13
 2631 0042 00       		.byte	0
 2632 0043 00       		.byte	0
 2633 0044 07       		.uleb128 0x7
 2634 0045 13       		.uleb128 0x13
 2635 0046 01       		.byte	0x1
 2636 0047 03       		.uleb128 0x3
 2637 0048 0E       		.uleb128 0xe
 2638 0049 0B       		.uleb128 0xb
 2639 004a 0B       		.uleb128 0xb
 2640 004b 3A       		.uleb128 0x3a
 2641 004c 0B       		.uleb128 0xb
 2642 004d 3B       		.uleb128 0x3b
 2643 004e 0B       		.uleb128 0xb
 2644 004f 01       		.uleb128 0x1
 2645 0050 13       		.uleb128 0x13
 2646 0051 00       		.byte	0
 2647 0052 00       		.byte	0
 2648 0053 08       		.uleb128 0x8
 2649 0054 0D       		.uleb128 0xd
 2650 0055 00       		.byte	0
 2651 0056 03       		.uleb128 0x3
 2652 0057 0E       		.uleb128 0xe
 2653 0058 3A       		.uleb128 0x3a
 2654 0059 0B       		.uleb128 0xb
 2655 005a 3B       		.uleb128 0x3b
 2656 005b 0B       		.uleb128 0xb
 2657 005c 49       		.uleb128 0x49
 2658 005d 13       		.uleb128 0x13
 2659 005e 38       		.uleb128 0x38
 2660 005f 0B       		.uleb128 0xb
 2661 0060 00       		.byte	0
 2662 0061 00       		.byte	0
 2663 0062 09       		.uleb128 0x9
 2664 0063 0D       		.uleb128 0xd
 2665 0064 00       		.byte	0
 2666 0065 03       		.uleb128 0x3
 2667 0066 08       		.uleb128 0x8
 2668 0067 3A       		.uleb128 0x3a
 2669 0068 0B       		.uleb128 0xb
 2670 0069 3B       		.uleb128 0x3b
 2671 006a 05       		.uleb128 0x5
 2672 006b 49       		.uleb128 0x49
ARM GAS  /tmp/cc6eU8gD.s 			page 48


 2673 006c 13       		.uleb128 0x13
 2674 006d 38       		.uleb128 0x38
 2675 006e 0B       		.uleb128 0xb
 2676 006f 00       		.byte	0
 2677 0070 00       		.byte	0
 2678 0071 0A       		.uleb128 0xa
 2679 0072 0D       		.uleb128 0xd
 2680 0073 00       		.byte	0
 2681 0074 03       		.uleb128 0x3
 2682 0075 0E       		.uleb128 0xe
 2683 0076 3A       		.uleb128 0x3a
 2684 0077 0B       		.uleb128 0xb
 2685 0078 3B       		.uleb128 0x3b
 2686 0079 05       		.uleb128 0x5
 2687 007a 49       		.uleb128 0x49
 2688 007b 13       		.uleb128 0x13
 2689 007c 38       		.uleb128 0x38
 2690 007d 0B       		.uleb128 0xb
 2691 007e 00       		.byte	0
 2692 007f 00       		.byte	0
 2693 0080 0B       		.uleb128 0xb
 2694 0081 0F       		.uleb128 0xf
 2695 0082 00       		.byte	0
 2696 0083 0B       		.uleb128 0xb
 2697 0084 0B       		.uleb128 0xb
 2698 0085 49       		.uleb128 0x49
 2699 0086 13       		.uleb128 0x13
 2700 0087 00       		.byte	0
 2701 0088 00       		.byte	0
 2702 0089 0C       		.uleb128 0xc
 2703 008a 13       		.uleb128 0x13
 2704 008b 01       		.byte	0x1
 2705 008c 03       		.uleb128 0x3
 2706 008d 0E       		.uleb128 0xe
 2707 008e 0B       		.uleb128 0xb
 2708 008f 0B       		.uleb128 0xb
 2709 0090 3A       		.uleb128 0x3a
 2710 0091 0B       		.uleb128 0xb
 2711 0092 3B       		.uleb128 0x3b
 2712 0093 05       		.uleb128 0x5
 2713 0094 01       		.uleb128 0x1
 2714 0095 13       		.uleb128 0x13
 2715 0096 00       		.byte	0
 2716 0097 00       		.byte	0
 2717 0098 0D       		.uleb128 0xd
 2718 0099 15       		.uleb128 0x15
 2719 009a 01       		.byte	0x1
 2720 009b 27       		.uleb128 0x27
 2721 009c 19       		.uleb128 0x19
 2722 009d 01       		.uleb128 0x1
 2723 009e 13       		.uleb128 0x13
 2724 009f 00       		.byte	0
 2725 00a0 00       		.byte	0
 2726 00a1 0E       		.uleb128 0xe
 2727 00a2 05       		.uleb128 0x5
 2728 00a3 00       		.byte	0
 2729 00a4 49       		.uleb128 0x49
ARM GAS  /tmp/cc6eU8gD.s 			page 49


 2730 00a5 13       		.uleb128 0x13
 2731 00a6 00       		.byte	0
 2732 00a7 00       		.byte	0
 2733 00a8 0F       		.uleb128 0xf
 2734 00a9 0F       		.uleb128 0xf
 2735 00aa 00       		.byte	0
 2736 00ab 0B       		.uleb128 0xb
 2737 00ac 0B       		.uleb128 0xb
 2738 00ad 00       		.byte	0
 2739 00ae 00       		.byte	0
 2740 00af 10       		.uleb128 0x10
 2741 00b0 13       		.uleb128 0x13
 2742 00b1 01       		.byte	0x1
 2743 00b2 03       		.uleb128 0x3
 2744 00b3 0E       		.uleb128 0xe
 2745 00b4 0B       		.uleb128 0xb
 2746 00b5 05       		.uleb128 0x5
 2747 00b6 3A       		.uleb128 0x3a
 2748 00b7 0B       		.uleb128 0xb
 2749 00b8 3B       		.uleb128 0x3b
 2750 00b9 05       		.uleb128 0x5
 2751 00ba 01       		.uleb128 0x1
 2752 00bb 13       		.uleb128 0x13
 2753 00bc 00       		.byte	0
 2754 00bd 00       		.byte	0
 2755 00be 11       		.uleb128 0x11
 2756 00bf 0D       		.uleb128 0xd
 2757 00c0 00       		.byte	0
 2758 00c1 03       		.uleb128 0x3
 2759 00c2 0E       		.uleb128 0xe
 2760 00c3 3A       		.uleb128 0x3a
 2761 00c4 0B       		.uleb128 0xb
 2762 00c5 3B       		.uleb128 0x3b
 2763 00c6 05       		.uleb128 0x5
 2764 00c7 49       		.uleb128 0x49
 2765 00c8 13       		.uleb128 0x13
 2766 00c9 38       		.uleb128 0x38
 2767 00ca 05       		.uleb128 0x5
 2768 00cb 00       		.byte	0
 2769 00cc 00       		.byte	0
 2770 00cd 12       		.uleb128 0x12
 2771 00ce 01       		.uleb128 0x1
 2772 00cf 01       		.byte	0x1
 2773 00d0 49       		.uleb128 0x49
 2774 00d1 13       		.uleb128 0x13
 2775 00d2 01       		.uleb128 0x1
 2776 00d3 13       		.uleb128 0x13
 2777 00d4 00       		.byte	0
 2778 00d5 00       		.byte	0
 2779 00d6 13       		.uleb128 0x13
 2780 00d7 21       		.uleb128 0x21
 2781 00d8 00       		.byte	0
 2782 00d9 49       		.uleb128 0x49
 2783 00da 13       		.uleb128 0x13
 2784 00db 2F       		.uleb128 0x2f
 2785 00dc 0B       		.uleb128 0xb
 2786 00dd 00       		.byte	0
ARM GAS  /tmp/cc6eU8gD.s 			page 50


 2787 00de 00       		.byte	0
 2788 00df 14       		.uleb128 0x14
 2789 00e0 34       		.uleb128 0x34
 2790 00e1 00       		.byte	0
 2791 00e2 03       		.uleb128 0x3
 2792 00e3 0E       		.uleb128 0xe
 2793 00e4 3A       		.uleb128 0x3a
 2794 00e5 0B       		.uleb128 0xb
 2795 00e6 3B       		.uleb128 0x3b
 2796 00e7 0B       		.uleb128 0xb
 2797 00e8 49       		.uleb128 0x49
 2798 00e9 13       		.uleb128 0x13
 2799 00ea 3F       		.uleb128 0x3f
 2800 00eb 19       		.uleb128 0x19
 2801 00ec 3C       		.uleb128 0x3c
 2802 00ed 19       		.uleb128 0x19
 2803 00ee 00       		.byte	0
 2804 00ef 00       		.byte	0
 2805 00f0 15       		.uleb128 0x15
 2806 00f1 13       		.uleb128 0x13
 2807 00f2 01       		.byte	0x1
 2808 00f3 0B       		.uleb128 0xb
 2809 00f4 0B       		.uleb128 0xb
 2810 00f5 3A       		.uleb128 0x3a
 2811 00f6 0B       		.uleb128 0xb
 2812 00f7 3B       		.uleb128 0x3b
 2813 00f8 0B       		.uleb128 0xb
 2814 00f9 01       		.uleb128 0x1
 2815 00fa 13       		.uleb128 0x13
 2816 00fb 00       		.byte	0
 2817 00fc 00       		.byte	0
 2818 00fd 16       		.uleb128 0x16
 2819 00fe 0D       		.uleb128 0xd
 2820 00ff 00       		.byte	0
 2821 0100 03       		.uleb128 0x3
 2822 0101 08       		.uleb128 0x8
 2823 0102 3A       		.uleb128 0x3a
 2824 0103 0B       		.uleb128 0xb
 2825 0104 3B       		.uleb128 0x3b
 2826 0105 0B       		.uleb128 0xb
 2827 0106 49       		.uleb128 0x49
 2828 0107 13       		.uleb128 0x13
 2829 0108 38       		.uleb128 0x38
 2830 0109 0B       		.uleb128 0xb
 2831 010a 00       		.byte	0
 2832 010b 00       		.byte	0
 2833 010c 17       		.uleb128 0x17
 2834 010d 13       		.uleb128 0x13
 2835 010e 01       		.byte	0x1
 2836 010f 0B       		.uleb128 0xb
 2837 0110 0B       		.uleb128 0xb
 2838 0111 3A       		.uleb128 0x3a
 2839 0112 0B       		.uleb128 0xb
 2840 0113 3B       		.uleb128 0x3b
 2841 0114 05       		.uleb128 0x5
 2842 0115 01       		.uleb128 0x1
 2843 0116 13       		.uleb128 0x13
ARM GAS  /tmp/cc6eU8gD.s 			page 51


 2844 0117 00       		.byte	0
 2845 0118 00       		.byte	0
 2846 0119 18       		.uleb128 0x18
 2847 011a 16       		.uleb128 0x16
 2848 011b 00       		.byte	0
 2849 011c 03       		.uleb128 0x3
 2850 011d 0E       		.uleb128 0xe
 2851 011e 3A       		.uleb128 0x3a
 2852 011f 0B       		.uleb128 0xb
 2853 0120 3B       		.uleb128 0x3b
 2854 0121 05       		.uleb128 0x5
 2855 0122 49       		.uleb128 0x49
 2856 0123 13       		.uleb128 0x13
 2857 0124 00       		.byte	0
 2858 0125 00       		.byte	0
 2859 0126 19       		.uleb128 0x19
 2860 0127 13       		.uleb128 0x13
 2861 0128 01       		.byte	0x1
 2862 0129 0B       		.uleb128 0xb
 2863 012a 05       		.uleb128 0x5
 2864 012b 3A       		.uleb128 0x3a
 2865 012c 0B       		.uleb128 0xb
 2866 012d 3B       		.uleb128 0x3b
 2867 012e 0B       		.uleb128 0xb
 2868 012f 01       		.uleb128 0x1
 2869 0130 13       		.uleb128 0x13
 2870 0131 00       		.byte	0
 2871 0132 00       		.byte	0
 2872 0133 1A       		.uleb128 0x1a
 2873 0134 17       		.uleb128 0x17
 2874 0135 01       		.byte	0x1
 2875 0136 0B       		.uleb128 0xb
 2876 0137 0B       		.uleb128 0xb
 2877 0138 3A       		.uleb128 0x3a
 2878 0139 0B       		.uleb128 0xb
 2879 013a 3B       		.uleb128 0x3b
 2880 013b 0B       		.uleb128 0xb
 2881 013c 01       		.uleb128 0x1
 2882 013d 13       		.uleb128 0x13
 2883 013e 00       		.byte	0
 2884 013f 00       		.byte	0
 2885 0140 1B       		.uleb128 0x1b
 2886 0141 0D       		.uleb128 0xd
 2887 0142 00       		.byte	0
 2888 0143 03       		.uleb128 0x3
 2889 0144 0E       		.uleb128 0xe
 2890 0145 3A       		.uleb128 0x3a
 2891 0146 0B       		.uleb128 0xb
 2892 0147 3B       		.uleb128 0x3b
 2893 0148 05       		.uleb128 0x5
 2894 0149 49       		.uleb128 0x49
 2895 014a 13       		.uleb128 0x13
 2896 014b 00       		.byte	0
 2897 014c 00       		.byte	0
 2898 014d 1C       		.uleb128 0x1c
 2899 014e 34       		.uleb128 0x34
 2900 014f 00       		.byte	0
ARM GAS  /tmp/cc6eU8gD.s 			page 52


 2901 0150 03       		.uleb128 0x3
 2902 0151 08       		.uleb128 0x8
 2903 0152 3A       		.uleb128 0x3a
 2904 0153 0B       		.uleb128 0xb
 2905 0154 3B       		.uleb128 0x3b
 2906 0155 05       		.uleb128 0x5
 2907 0156 49       		.uleb128 0x49
 2908 0157 13       		.uleb128 0x13
 2909 0158 3F       		.uleb128 0x3f
 2910 0159 19       		.uleb128 0x19
 2911 015a 3C       		.uleb128 0x3c
 2912 015b 19       		.uleb128 0x19
 2913 015c 00       		.byte	0
 2914 015d 00       		.byte	0
 2915 015e 1D       		.uleb128 0x1d
 2916 015f 15       		.uleb128 0x15
 2917 0160 01       		.byte	0x1
 2918 0161 27       		.uleb128 0x27
 2919 0162 19       		.uleb128 0x19
 2920 0163 49       		.uleb128 0x49
 2921 0164 13       		.uleb128 0x13
 2922 0165 01       		.uleb128 0x1
 2923 0166 13       		.uleb128 0x13
 2924 0167 00       		.byte	0
 2925 0168 00       		.byte	0
 2926 0169 1E       		.uleb128 0x1e
 2927 016a 34       		.uleb128 0x34
 2928 016b 00       		.byte	0
 2929 016c 03       		.uleb128 0x3
 2930 016d 0E       		.uleb128 0xe
 2931 016e 3A       		.uleb128 0x3a
 2932 016f 0B       		.uleb128 0xb
 2933 0170 3B       		.uleb128 0x3b
 2934 0171 05       		.uleb128 0x5
 2935 0172 49       		.uleb128 0x49
 2936 0173 13       		.uleb128 0x13
 2937 0174 3F       		.uleb128 0x3f
 2938 0175 19       		.uleb128 0x19
 2939 0176 3C       		.uleb128 0x3c
 2940 0177 19       		.uleb128 0x19
 2941 0178 00       		.byte	0
 2942 0179 00       		.byte	0
 2943 017a 1F       		.uleb128 0x1f
 2944 017b 04       		.uleb128 0x4
 2945 017c 01       		.byte	0x1
 2946 017d 0B       		.uleb128 0xb
 2947 017e 0B       		.uleb128 0xb
 2948 017f 49       		.uleb128 0x49
 2949 0180 13       		.uleb128 0x13
 2950 0181 3A       		.uleb128 0x3a
 2951 0182 0B       		.uleb128 0xb
 2952 0183 3B       		.uleb128 0x3b
 2953 0184 0B       		.uleb128 0xb
 2954 0185 01       		.uleb128 0x1
 2955 0186 13       		.uleb128 0x13
 2956 0187 00       		.byte	0
 2957 0188 00       		.byte	0
ARM GAS  /tmp/cc6eU8gD.s 			page 53


 2958 0189 20       		.uleb128 0x20
 2959 018a 28       		.uleb128 0x28
 2960 018b 00       		.byte	0
 2961 018c 03       		.uleb128 0x3
 2962 018d 0E       		.uleb128 0xe
 2963 018e 1C       		.uleb128 0x1c
 2964 018f 0B       		.uleb128 0xb
 2965 0190 00       		.byte	0
 2966 0191 00       		.byte	0
 2967 0192 21       		.uleb128 0x21
 2968 0193 13       		.uleb128 0x13
 2969 0194 01       		.byte	0x1
 2970 0195 03       		.uleb128 0x3
 2971 0196 0E       		.uleb128 0xe
 2972 0197 0B       		.uleb128 0xb
 2973 0198 05       		.uleb128 0x5
 2974 0199 3A       		.uleb128 0x3a
 2975 019a 0B       		.uleb128 0xb
 2976 019b 3B       		.uleb128 0x3b
 2977 019c 0B       		.uleb128 0xb
 2978 019d 01       		.uleb128 0x1
 2979 019e 13       		.uleb128 0x13
 2980 019f 00       		.byte	0
 2981 01a0 00       		.byte	0
 2982 01a1 22       		.uleb128 0x22
 2983 01a2 0D       		.uleb128 0xd
 2984 01a3 00       		.byte	0
 2985 01a4 03       		.uleb128 0x3
 2986 01a5 0E       		.uleb128 0xe
 2987 01a6 3A       		.uleb128 0x3a
 2988 01a7 0B       		.uleb128 0xb
 2989 01a8 3B       		.uleb128 0x3b
 2990 01a9 0B       		.uleb128 0xb
 2991 01aa 49       		.uleb128 0x49
 2992 01ab 13       		.uleb128 0x13
 2993 01ac 38       		.uleb128 0x38
 2994 01ad 05       		.uleb128 0x5
 2995 01ae 00       		.byte	0
 2996 01af 00       		.byte	0
 2997 01b0 23       		.uleb128 0x23
 2998 01b1 2E       		.uleb128 0x2e
 2999 01b2 01       		.byte	0x1
 3000 01b3 3F       		.uleb128 0x3f
 3001 01b4 19       		.uleb128 0x19
 3002 01b5 03       		.uleb128 0x3
 3003 01b6 0E       		.uleb128 0xe
 3004 01b7 3A       		.uleb128 0x3a
 3005 01b8 0B       		.uleb128 0xb
 3006 01b9 3B       		.uleb128 0x3b
 3007 01ba 0B       		.uleb128 0xb
 3008 01bb 27       		.uleb128 0x27
 3009 01bc 19       		.uleb128 0x19
 3010 01bd 49       		.uleb128 0x49
 3011 01be 13       		.uleb128 0x13
 3012 01bf 11       		.uleb128 0x11
 3013 01c0 01       		.uleb128 0x1
 3014 01c1 12       		.uleb128 0x12
ARM GAS  /tmp/cc6eU8gD.s 			page 54


 3015 01c2 06       		.uleb128 0x6
 3016 01c3 40       		.uleb128 0x40
 3017 01c4 18       		.uleb128 0x18
 3018 01c5 9642     		.uleb128 0x2116
 3019 01c7 19       		.uleb128 0x19
 3020 01c8 01       		.uleb128 0x1
 3021 01c9 13       		.uleb128 0x13
 3022 01ca 00       		.byte	0
 3023 01cb 00       		.byte	0
 3024 01cc 24       		.uleb128 0x24
 3025 01cd 34       		.uleb128 0x34
 3026 01ce 00       		.byte	0
 3027 01cf 03       		.uleb128 0x3
 3028 01d0 0E       		.uleb128 0xe
 3029 01d1 49       		.uleb128 0x49
 3030 01d2 13       		.uleb128 0x13
 3031 01d3 34       		.uleb128 0x34
 3032 01d4 19       		.uleb128 0x19
 3033 01d5 02       		.uleb128 0x2
 3034 01d6 18       		.uleb128 0x18
 3035 01d7 00       		.byte	0
 3036 01d8 00       		.byte	0
 3037 01d9 25       		.uleb128 0x25
 3038 01da 2E       		.uleb128 0x2e
 3039 01db 01       		.byte	0x1
 3040 01dc 3F       		.uleb128 0x3f
 3041 01dd 19       		.uleb128 0x19
 3042 01de 03       		.uleb128 0x3
 3043 01df 0E       		.uleb128 0xe
 3044 01e0 3A       		.uleb128 0x3a
 3045 01e1 0B       		.uleb128 0xb
 3046 01e2 3B       		.uleb128 0x3b
 3047 01e3 0B       		.uleb128 0xb
 3048 01e4 27       		.uleb128 0x27
 3049 01e5 19       		.uleb128 0x19
 3050 01e6 11       		.uleb128 0x11
 3051 01e7 01       		.uleb128 0x1
 3052 01e8 12       		.uleb128 0x12
 3053 01e9 06       		.uleb128 0x6
 3054 01ea 40       		.uleb128 0x40
 3055 01eb 18       		.uleb128 0x18
 3056 01ec 9642     		.uleb128 0x2116
 3057 01ee 19       		.uleb128 0x19
 3058 01ef 01       		.uleb128 0x1
 3059 01f0 13       		.uleb128 0x13
 3060 01f1 00       		.byte	0
 3061 01f2 00       		.byte	0
 3062 01f3 26       		.uleb128 0x26
 3063 01f4 05       		.uleb128 0x5
 3064 01f5 00       		.byte	0
 3065 01f6 03       		.uleb128 0x3
 3066 01f7 0E       		.uleb128 0xe
 3067 01f8 3A       		.uleb128 0x3a
 3068 01f9 0B       		.uleb128 0xb
 3069 01fa 3B       		.uleb128 0x3b
 3070 01fb 0B       		.uleb128 0xb
 3071 01fc 49       		.uleb128 0x49
ARM GAS  /tmp/cc6eU8gD.s 			page 55


 3072 01fd 13       		.uleb128 0x13
 3073 01fe 02       		.uleb128 0x2
 3074 01ff 18       		.uleb128 0x18
 3075 0200 00       		.byte	0
 3076 0201 00       		.byte	0
 3077 0202 27       		.uleb128 0x27
 3078 0203 2E       		.uleb128 0x2e
 3079 0204 00       		.byte	0
 3080 0205 3F       		.uleb128 0x3f
 3081 0206 19       		.uleb128 0x19
 3082 0207 03       		.uleb128 0x3
 3083 0208 0E       		.uleb128 0xe
 3084 0209 3A       		.uleb128 0x3a
 3085 020a 0B       		.uleb128 0xb
 3086 020b 3B       		.uleb128 0x3b
 3087 020c 0B       		.uleb128 0xb
 3088 020d 27       		.uleb128 0x27
 3089 020e 19       		.uleb128 0x19
 3090 020f 11       		.uleb128 0x11
 3091 0210 01       		.uleb128 0x1
 3092 0211 12       		.uleb128 0x12
 3093 0212 06       		.uleb128 0x6
 3094 0213 40       		.uleb128 0x40
 3095 0214 18       		.uleb128 0x18
 3096 0215 9642     		.uleb128 0x2116
 3097 0217 19       		.uleb128 0x19
 3098 0218 00       		.byte	0
 3099 0219 00       		.byte	0
 3100 021a 28       		.uleb128 0x28
 3101 021b 2E       		.uleb128 0x2e
 3102 021c 00       		.byte	0
 3103 021d 03       		.uleb128 0x3
 3104 021e 0E       		.uleb128 0xe
 3105 021f 3A       		.uleb128 0x3a
 3106 0220 0B       		.uleb128 0xb
 3107 0221 3B       		.uleb128 0x3b
 3108 0222 0B       		.uleb128 0xb
 3109 0223 27       		.uleb128 0x27
 3110 0224 19       		.uleb128 0x19
 3111 0225 49       		.uleb128 0x49
 3112 0226 13       		.uleb128 0x13
 3113 0227 11       		.uleb128 0x11
 3114 0228 01       		.uleb128 0x1
 3115 0229 12       		.uleb128 0x12
 3116 022a 06       		.uleb128 0x6
 3117 022b 40       		.uleb128 0x40
 3118 022c 18       		.uleb128 0x18
 3119 022d 9742     		.uleb128 0x2117
 3120 022f 19       		.uleb128 0x19
 3121 0230 00       		.byte	0
 3122 0231 00       		.byte	0
 3123 0232 29       		.uleb128 0x29
 3124 0233 2E       		.uleb128 0x2e
 3125 0234 01       		.byte	0x1
 3126 0235 03       		.uleb128 0x3
 3127 0236 0E       		.uleb128 0xe
 3128 0237 3A       		.uleb128 0x3a
ARM GAS  /tmp/cc6eU8gD.s 			page 56


 3129 0238 0B       		.uleb128 0xb
 3130 0239 3B       		.uleb128 0x3b
 3131 023a 0B       		.uleb128 0xb
 3132 023b 27       		.uleb128 0x27
 3133 023c 19       		.uleb128 0x19
 3134 023d 11       		.uleb128 0x11
 3135 023e 01       		.uleb128 0x1
 3136 023f 12       		.uleb128 0x12
 3137 0240 06       		.uleb128 0x6
 3138 0241 40       		.uleb128 0x40
 3139 0242 18       		.uleb128 0x18
 3140 0243 9742     		.uleb128 0x2117
 3141 0245 19       		.uleb128 0x19
 3142 0246 01       		.uleb128 0x1
 3143 0247 13       		.uleb128 0x13
 3144 0248 00       		.byte	0
 3145 0249 00       		.byte	0
 3146 024a 2A       		.uleb128 0x2a
 3147 024b 2E       		.uleb128 0x2e
 3148 024c 00       		.byte	0
 3149 024d 03       		.uleb128 0x3
 3150 024e 0E       		.uleb128 0xe
 3151 024f 3A       		.uleb128 0x3a
 3152 0250 0B       		.uleb128 0xb
 3153 0251 3B       		.uleb128 0x3b
 3154 0252 0B       		.uleb128 0xb
 3155 0253 27       		.uleb128 0x27
 3156 0254 19       		.uleb128 0x19
 3157 0255 11       		.uleb128 0x11
 3158 0256 01       		.uleb128 0x1
 3159 0257 12       		.uleb128 0x12
 3160 0258 06       		.uleb128 0x6
 3161 0259 40       		.uleb128 0x40
 3162 025a 18       		.uleb128 0x18
 3163 025b 9742     		.uleb128 0x2117
 3164 025d 19       		.uleb128 0x19
 3165 025e 00       		.byte	0
 3166 025f 00       		.byte	0
 3167 0260 2B       		.uleb128 0x2b
 3168 0261 2E       		.uleb128 0x2e
 3169 0262 01       		.byte	0x1
 3170 0263 03       		.uleb128 0x3
 3171 0264 0E       		.uleb128 0xe
 3172 0265 3A       		.uleb128 0x3a
 3173 0266 0B       		.uleb128 0xb
 3174 0267 3B       		.uleb128 0x3b
 3175 0268 0B       		.uleb128 0xb
 3176 0269 27       		.uleb128 0x27
 3177 026a 19       		.uleb128 0x19
 3178 026b 11       		.uleb128 0x11
 3179 026c 01       		.uleb128 0x1
 3180 026d 12       		.uleb128 0x12
 3181 026e 06       		.uleb128 0x6
 3182 026f 40       		.uleb128 0x40
 3183 0270 18       		.uleb128 0x18
 3184 0271 9742     		.uleb128 0x2117
 3185 0273 19       		.uleb128 0x19
ARM GAS  /tmp/cc6eU8gD.s 			page 57


 3186 0274 00       		.byte	0
 3187 0275 00       		.byte	0
 3188 0276 00       		.byte	0
 3189              		.section	.debug_aranges,"",%progbits
 3190 0000 64000000 		.4byte	0x64
 3191 0004 0200     		.2byte	0x2
 3192 0006 00000000 		.4byte	.Ldebug_info0
 3193 000a 04       		.byte	0x4
 3194 000b 00       		.byte	0
 3195 000c 0000     		.2byte	0
 3196 000e 0000     		.2byte	0
 3197 0010 00000000 		.4byte	.LFB47
 3198 0014 2C000000 		.4byte	.LFE47-.LFB47
 3199 0018 00000000 		.4byte	.LFB48
 3200 001c 10000000 		.4byte	.LFE48-.LFB48
 3201 0020 00000000 		.4byte	.LFB49
 3202 0024 20000000 		.4byte	.LFE49-.LFB49
 3203 0028 00000000 		.4byte	.LFB50
 3204 002c 10000000 		.4byte	.LFE50-.LFB50
 3205 0030 00000000 		.4byte	.LFB51
 3206 0034 18000000 		.4byte	.LFE51-.LFB51
 3207 0038 00000000 		.4byte	.LFB182
 3208 003c 0A000000 		.4byte	.LFE182-.LFB182
 3209 0040 00000000 		.4byte	.LFB183
 3210 0044 34000000 		.4byte	.LFE183-.LFB183
 3211 0048 00000000 		.4byte	.LFB184
 3212 004c 0A000000 		.4byte	.LFE184-.LFB184
 3213 0050 00000000 		.4byte	.LFB185
 3214 0054 3C000000 		.4byte	.LFE185-.LFB185
 3215 0058 00000000 		.4byte	.LFB186
 3216 005c 2C000000 		.4byte	.LFE186-.LFB186
 3217 0060 00000000 		.4byte	0
 3218 0064 00000000 		.4byte	0
 3219              		.section	.debug_ranges,"",%progbits
 3220              	.Ldebug_ranges0:
 3221 0000 00000000 		.4byte	.LFB47
 3222 0004 2C000000 		.4byte	.LFE47
 3223 0008 00000000 		.4byte	.LFB48
 3224 000c 10000000 		.4byte	.LFE48
 3225 0010 00000000 		.4byte	.LFB49
 3226 0014 20000000 		.4byte	.LFE49
 3227 0018 00000000 		.4byte	.LFB50
 3228 001c 10000000 		.4byte	.LFE50
 3229 0020 00000000 		.4byte	.LFB51
 3230 0024 18000000 		.4byte	.LFE51
 3231 0028 00000000 		.4byte	.LFB182
 3232 002c 0A000000 		.4byte	.LFE182
 3233 0030 00000000 		.4byte	.LFB183
 3234 0034 34000000 		.4byte	.LFE183
 3235 0038 00000000 		.4byte	.LFB184
 3236 003c 0A000000 		.4byte	.LFE184
 3237 0040 00000000 		.4byte	.LFB185
 3238 0044 3C000000 		.4byte	.LFE185
 3239 0048 00000000 		.4byte	.LFB186
 3240 004c 2C000000 		.4byte	.LFE186
 3241 0050 00000000 		.4byte	0
 3242 0054 00000000 		.4byte	0
ARM GAS  /tmp/cc6eU8gD.s 			page 58


 3243              		.section	.debug_line,"",%progbits
 3244              	.Ldebug_line0:
 3245 0000 65040000 		.section	.debug_str,"MS",%progbits,1
 3245      02008803 
 3245      00000201 
 3245      FB0E0D00 
 3245      01010101 
 3246              	.LASF52:
 3247 0000 63685F74 		.ascii	"ch_threads_list\000"
 3247      68726561 
 3247      64735F6C 
 3247      69737400 
 3248              	.LASF53:
 3249 0010 74687265 		.ascii	"threads_queue_t\000"
 3249      6164735F 
 3249      71756575 
 3249      655F7400 
 3250              	.LASF160:
 3251 0020 6576656E 		.ascii	"event_listener_t\000"
 3251      745F6C69 
 3251      7374656E 
 3251      65725F74 
 3251      00
 3252              	.LASF42:
 3253 0031 705F7761 		.ascii	"p_waiting\000"
 3253      6974696E 
 3253      6700
 3254              	.LASF214:
 3255 003b 53657269 		.ascii	"SerialDriver\000"
 3255      616C4472 
 3255      69766572 
 3255      00
 3256              	.LASF206:
 3257 0048 50434461 		.ascii	"PCData\000"
 3257      746100
 3258              	.LASF138:
 3259 004f 53797374 		.ascii	"SystemCoreClock\000"
 3259      656D436F 
 3259      7265436C 
 3259      6F636B00 
 3260              	.LASF128:
 3261 005f 77746D74 		.ascii	"wtmtxp\000"
 3261      787000
 3262              	.LASF137:
 3263 0066 63686172 		.ascii	"char\000"
 3263      00
 3264              	.LASF100:
 3265 006b 72656761 		.ascii	"regarm_t\000"
 3265      726D5F74 
 3265      00
 3266              	.LASF242:
 3267 0074 73745F6C 		.ascii	"st_lld_stop_alarm\000"
 3267      6C645F73 
 3267      746F705F 
 3267      616C6172 
 3267      6D00
 3268              	.LASF33:
ARM GAS  /tmp/cc6eU8gD.s 			page 59


 3269 0086 705F7072 		.ascii	"p_prio\000"
 3269      696F00
 3270              	.LASF167:
 3271 008d 6576656E 		.ascii	"event_source\000"
 3271      745F736F 
 3271      75726365 
 3271      00
 3272              	.LASF29:
 3273 009a 73797374 		.ascii	"systime_t\000"
 3273      696D655F 
 3273      7400
 3274              	.LASF149:
 3275 00a4 63665F6F 		.ascii	"cf_off_older\000"
 3275      66665F6F 
 3275      6C646572 
 3275      00
 3276              	.LASF135:
 3277 00b1 6D5F6F77 		.ascii	"m_owner\000"
 3277      6E657200 
 3278              	.LASF131:
 3279 00b9 735F7175 		.ascii	"s_queue\000"
 3279      65756500 
 3280              	.LASF171:
 3281 00c1 696F5F71 		.ascii	"io_queue_t\000"
 3281      75657565 
 3281      5F7400
 3282              	.LASF43:
 3283 00cc 705F6D73 		.ascii	"p_msgqueue\000"
 3283      67717565 
 3283      756500
 3284              	.LASF0:
 3285 00d7 756E7369 		.ascii	"unsigned int\000"
 3285      676E6564 
 3285      20696E74 
 3285      00
 3286              	.LASF50:
 3287 00e4 74687265 		.ascii	"threads_list_t\000"
 3287      6164735F 
 3287      6C697374 
 3287      5F7400
 3288              	.LASF178:
 3289 00f3 715F7264 		.ascii	"q_rdptr\000"
 3289      70747200 
 3290              	.LASF10:
 3291 00fb 5F5F696E 		.ascii	"__int32_t\000"
 3291      7433325F 
 3291      7400
 3292              	.LASF117:
 3293 0105 73655F73 		.ascii	"se_state\000"
 3293      74617465 
 3293      00
 3294              	.LASF150:
 3295 010e 63665F6F 		.ascii	"cf_off_name\000"
 3295      66665F6E 
 3295      616D6500 
 3296              	.LASF89:
 3297 011a 434D4152 		.ascii	"CMAR\000"
ARM GAS  /tmp/cc6eU8gD.s 			page 60


 3297      00
 3298              	.LASF125:
 3299 011f 77746F62 		.ascii	"wtobjp\000"
 3299      6A7000
 3300              	.LASF83:
 3301 0126 76746C69 		.ascii	"vtlist\000"
 3301      737400
 3302              	.LASF180:
 3303 012d 715F6C69 		.ascii	"q_link\000"
 3303      6E6B00
 3304              	.LASF90:
 3305 0134 444D415F 		.ascii	"DMA_Channel_TypeDef\000"
 3305      4368616E 
 3305      6E656C5F 
 3305      54797065 
 3305      44656600 
 3306              	.LASF56:
 3307 0148 63685F72 		.ascii	"ch_ready_list\000"
 3307      65616479 
 3307      5F6C6973 
 3307      7400
 3308              	.LASF85:
 3309 0156 69646C65 		.ascii	"idle_thread_wa\000"
 3309      5F746872 
 3309      6561645F 
 3309      776100
 3310              	.LASF129:
 3311 0165 65776D61 		.ascii	"ewmask\000"
 3311      736B00
 3312              	.LASF153:
 3313 016c 63665F6F 		.ascii	"cf_off_flags\000"
 3313      66665F66 
 3313      6C616773 
 3313      00
 3314              	.LASF54:
 3315 0179 63685F74 		.ascii	"ch_threads_queue\000"
 3315      68726561 
 3315      64735F71 
 3315      75657565 
 3315      00
 3316              	.LASF143:
 3317 018a 63685F70 		.ascii	"ch_ptrsize\000"
 3317      74727369 
 3317      7A6500
 3318              	.LASF110:
 3319 0195 444D4152 		.ascii	"DMAR\000"
 3319      00
 3320              	.LASF63:
 3321 019a 76746675 		.ascii	"vtfunc_t\000"
 3321      6E635F74 
 3321      00
 3322              	.LASF226:
 3323 01a3 77726974 		.ascii	"writet\000"
 3323      657400
 3324              	.LASF87:
 3325 01aa 434E4454 		.ascii	"CNDTR\000"
 3325      5200
ARM GAS  /tmp/cc6eU8gD.s 			page 61


 3326              	.LASF132:
 3327 01b0 735F636E 		.ascii	"s_cnt\000"
 3327      7400
 3328              	.LASF75:
 3329 01b6 63685F73 		.ascii	"ch_system_debug\000"
 3329      79737465 
 3329      6D5F6465 
 3329      62756700 
 3330              	.LASF95:
 3331 01c6 47545052 		.ascii	"GTPR\000"
 3331      00
 3332              	.LASF239:
 3333 01cb 2F686F6D 		.ascii	"/home/felix/esho/Ultrasound/\000"
 3333      652F6665 
 3333      6C69782F 
 3333      6573686F 
 3333      2F556C74 
 3334              	.LASF19:
 3335 01e8 75696E74 		.ascii	"uint32_t\000"
 3335      33325F74 
 3335      00
 3336              	.LASF229:
 3337 01f1 73745365 		.ascii	"stSetAlarm\000"
 3337      74416C61 
 3337      726D00
 3338              	.LASF173:
 3339 01fc 715F7761 		.ascii	"q_waiting\000"
 3339      6974696E 
 3339      6700
 3340              	.LASF144:
 3341 0206 63685F74 		.ascii	"ch_timesize\000"
 3341      696D6573 
 3341      697A6500 
 3342              	.LASF26:
 3343 0212 6576656E 		.ascii	"eventmask_t\000"
 3343      746D6173 
 3343      6B5F7400 
 3344              	.LASF58:
 3345 021e 725F7072 		.ascii	"r_prio\000"
 3345      696F00
 3346              	.LASF109:
 3347 0225 42445452 		.ascii	"BDTR\000"
 3347      00
 3348              	.LASF70:
 3349 022a 76745F70 		.ascii	"vt_par\000"
 3349      617200
 3350              	.LASF198:
 3351 0231 6F747970 		.ascii	"otyper\000"
 3351      657200
 3352              	.LASF187:
 3353 0238 73686966 		.ascii	"shift\000"
 3353      7400
 3354              	.LASF215:
 3355 023e 6576656E 		.ascii	"event\000"
 3355      7400
 3356              	.LASF130:
 3357 0244 63685F73 		.ascii	"ch_semaphore\000"
ARM GAS  /tmp/cc6eU8gD.s 			page 62


 3357      656D6170 
 3357      686F7265 
 3357      00
 3358              	.LASF186:
 3359 0251 6373656C 		.ascii	"cselr\000"
 3359      7200
 3360              	.LASF24:
 3361 0257 74707269 		.ascii	"tprio_t\000"
 3361      6F5F7400 
 3362              	.LASF194:
 3363 025f 646D615F 		.ascii	"dma_isr_redir_t\000"
 3363      6973725F 
 3363      72656469 
 3363      725F7400 
 3364              	.LASF65:
 3365 026f 63685F76 		.ascii	"ch_virtual_timer\000"
 3365      69727475 
 3365      616C5F74 
 3365      696D6572 
 3365      00
 3366              	.LASF106:
 3367 0280 43434D52 		.ascii	"CCMR1\000"
 3367      3100
 3368              	.LASF107:
 3369 0286 43434D52 		.ascii	"CCMR2\000"
 3369      3200
 3370              	.LASF111:
 3371 028c 43434D52 		.ascii	"CCMR3\000"
 3371      3300
 3372              	.LASF15:
 3373 0292 6C6F6E67 		.ascii	"long long unsigned int\000"
 3373      206C6F6E 
 3373      6720756E 
 3373      7369676E 
 3373      65642069 
 3374              	.LASF116:
 3375 02a9 73655F77 		.ascii	"se_wtobjp\000"
 3375      746F626A 
 3375      7000
 3376              	.LASF189:
 3377 02b3 76656374 		.ascii	"vector\000"
 3377      6F7200
 3378              	.LASF169:
 3379 02ba 6576656E 		.ascii	"event_source_t\000"
 3379      745F736F 
 3379      75726365 
 3379      5F7400
 3380              	.LASF8:
 3381 02c9 5F5F7569 		.ascii	"__uint16_t\000"
 3381      6E743136 
 3381      5F7400
 3382              	.LASF28:
 3383 02d4 636E745F 		.ascii	"cnt_t\000"
 3383      7400
 3384              	.LASF236:
 3385 02da 74696D65 		.ascii	"time\000"
 3385      00
ARM GAS  /tmp/cc6eU8gD.s 			page 63


 3386              	.LASF77:
 3387 02df 6973725F 		.ascii	"isr_cnt\000"
 3387      636E7400 
 3388              	.LASF203:
 3389 02e7 73746D33 		.ascii	"stm32_gpio_setup_t\000"
 3389      325F6770 
 3389      696F5F73 
 3389      65747570 
 3389      5F7400
 3390              	.LASF35:
 3391 02fa 705F6E65 		.ascii	"p_newer\000"
 3391      77657200 
 3392              	.LASF72:
 3393 0302 63685F76 		.ascii	"ch_virtual_timers_list\000"
 3393      69727475 
 3393      616C5F74 
 3393      696D6572 
 3393      735F6C69 
 3394              	.LASF88:
 3395 0319 43504152 		.ascii	"CPAR\000"
 3395      00
 3396              	.LASF230:
 3397 031e 73745374 		.ascii	"stStartAlarm\000"
 3397      61727441 
 3397      6C61726D 
 3397      00
 3398              	.LASF114:
 3399 032b 73655F74 		.ascii	"se_time\000"
 3399      696D6500 
 3400              	.LASF30:
 3401 0333 74687265 		.ascii	"thread_t\000"
 3401      61645F74 
 3401      00
 3402              	.LASF166:
 3403 033c 656C5F77 		.ascii	"el_wflags\000"
 3403      666C6167 
 3403      7300
 3404              	.LASF224:
 3405 0346 70757474 		.ascii	"putt\000"
 3405      00
 3406              	.LASF4:
 3407 034b 73697A65 		.ascii	"size_t\000"
 3407      5F7400
 3408              	.LASF123:
 3409 0352 7264796D 		.ascii	"rdymsg\000"
 3409      736700
 3410              	.LASF145:
 3411 0359 63685F74 		.ascii	"ch_threadsize\000"
 3411      68726561 
 3411      6473697A 
 3411      6500
 3412              	.LASF155:
 3413 0367 63665F6F 		.ascii	"cf_off_preempt\000"
 3413      66665F70 
 3413      7265656D 
 3413      707400
 3414              	.LASF113:
ARM GAS  /tmp/cc6eU8gD.s 			page 64


 3415 0376 73746D33 		.ascii	"stm32_tim_t\000"
 3415      325F7469 
 3415      6D5F7400 
 3416              	.LASF213:
 3417 0382 73647374 		.ascii	"sdstate_t\000"
 3417      6174655F 
 3417      7400
 3418              	.LASF170:
 3419 038c 5F426F6F 		.ascii	"_Bool\000"
 3419      6C00
 3420              	.LASF211:
 3421 0392 53445F53 		.ascii	"SD_STOP\000"
 3421      544F5000 
 3422              	.LASF237:
 3423 039a 474E5520 		.ascii	"GNU C11 6.3.1 20170215 (release) [ARM/embedded-6-br"
 3423      43313120 
 3423      362E332E 
 3423      31203230 
 3423      31373032 
 3424 03cd 616E6368 		.ascii	"anch revision 245512] -mcpu=cortex-m0 -mno-thumb-in"
 3424      20726576 
 3424      6973696F 
 3424      6E203234 
 3424      35353132 
 3425 0400 74657277 		.ascii	"terwork -mthumb -ggdb -O0 -fomit-frame-pointer -fal"
 3425      6F726B20 
 3425      2D6D7468 
 3425      756D6220 
 3425      2D676764 
 3426 0433 69676E2D 		.ascii	"ign-functions=16 -ffunction-sections -fdata-section"
 3426      66756E63 
 3426      74696F6E 
 3426      733D3136 
 3426      202D6666 
 3427 0466 7300     		.ascii	"s\000"
 3428              	.LASF205:
 3429 0468 50424461 		.ascii	"PBData\000"
 3429      746100
 3430              	.LASF133:
 3431 046f 63685F6D 		.ascii	"ch_mutex\000"
 3431      75746578 
 3431      00
 3432              	.LASF14:
 3433 0478 5F5F7569 		.ascii	"__uint64_t\000"
 3433      6E743634 
 3433      5F7400
 3434              	.LASF105:
 3435 0483 44494552 		.ascii	"DIER\000"
 3435      00
 3436              	.LASF209:
 3437 0488 70616C5F 		.ascii	"pal_default_config\000"
 3437      64656661 
 3437      756C745F 
 3437      636F6E66 
 3437      696700
 3438              	.LASF217:
 3439 049b 69717565 		.ascii	"iqueue\000"
ARM GAS  /tmp/cc6eU8gD.s 			page 65


 3439      756500
 3440              	.LASF99:
 3441 04a2 55534152 		.ascii	"USART_TypeDef\000"
 3441      545F5479 
 3441      70654465 
 3441      6600
 3442              	.LASF179:
 3443 04b0 715F6E6F 		.ascii	"q_notify\000"
 3443      74696679 
 3443      00
 3444              	.LASF220:
 3445 04b9 636C6F63 		.ascii	"clock\000"
 3445      6B00
 3446              	.LASF147:
 3447 04bf 63665F6F 		.ascii	"cf_off_ctx\000"
 3447      66665F63 
 3447      747800
 3448              	.LASF191:
 3449 04ca 73746D33 		.ascii	"stm32_dmaisr_t\000"
 3449      325F646D 
 3449      61697372 
 3449      5F7400
 3450              	.LASF151:
 3451 04d9 63665F6F 		.ascii	"cf_off_stklimit\000"
 3451      66665F73 
 3451      746B6C69 
 3451      6D697400 
 3452              	.LASF37:
 3453 04e9 705F6E61 		.ascii	"p_name\000"
 3453      6D6500
 3454              	.LASF197:
 3455 04f0 6D6F6465 		.ascii	"moder\000"
 3455      7200
 3456              	.LASF108:
 3457 04f6 43434552 		.ascii	"CCER\000"
 3457      00
 3458              	.LASF68:
 3459 04fb 76745F64 		.ascii	"vt_delta\000"
 3459      656C7461 
 3459      00
 3460              	.LASF196:
 3461 0504 5F73746D 		.ascii	"_stm32_dma_isr_redir\000"
 3461      33325F64 
 3461      6D615F69 
 3461      73725F72 
 3461      65646972 
 3462              	.LASF49:
 3463 0519 74687265 		.ascii	"thread_reference_t\000"
 3463      61645F72 
 3463      65666572 
 3463      656E6365 
 3463      5F7400
 3464              	.LASF73:
 3465 052c 76745F6C 		.ascii	"vt_lasttime\000"
 3465      61737474 
 3465      696D6500 
 3466              	.LASF177:
ARM GAS  /tmp/cc6eU8gD.s 			page 66


 3467 0538 715F7772 		.ascii	"q_wrptr\000"
 3467      70747200 
 3468              	.LASF235:
 3469 0540 73745F6C 		.ascii	"st_lld_get_alarm\000"
 3469      6C645F67 
 3469      65745F61 
 3469      6C61726D 
 3469      00
 3470              	.LASF22:
 3471 0551 74737461 		.ascii	"tstate_t\000"
 3471      74655F74 
 3471      00
 3472              	.LASF115:
 3473 055a 73655F74 		.ascii	"se_tp\000"
 3473      7000
 3474              	.LASF190:
 3475 0560 73746D33 		.ascii	"stm32_dma_stream_t\000"
 3475      325F646D 
 3475      615F7374 
 3475      7265616D 
 3475      5F7400
 3476              	.LASF233:
 3477 0573 7374496E 		.ascii	"stInit\000"
 3477      697400
 3478              	.LASF36:
 3479 057a 705F6F6C 		.ascii	"p_older\000"
 3479      64657200 
 3480              	.LASF39:
 3481 0582 705F7374 		.ascii	"p_state\000"
 3481      61746500 
 3482              	.LASF38:
 3483 058a 705F7374 		.ascii	"p_stklimit\000"
 3483      6B6C696D 
 3483      697400
 3484              	.LASF16:
 3485 0595 75696E74 		.ascii	"uint8_t\000"
 3485      385F7400 
 3486              	.LASF121:
 3487 059d 74625F62 		.ascii	"tb_buffer\000"
 3487      75666665 
 3487      7200
 3488              	.LASF96:
 3489 05a7 52544F52 		.ascii	"RTOR\000"
 3489      00
 3490              	.LASF185:
 3491 05ac 636D6173 		.ascii	"cmask\000"
 3491      6B00
 3492              	.LASF182:
 3493 05b2 696E7075 		.ascii	"input_queue_t\000"
 3493      745F7175 
 3493      6575655F 
 3493      7400
 3494              	.LASF48:
 3495 05c0 705F6D70 		.ascii	"p_mpool\000"
 3495      6F6F6C00 
 3496              	.LASF46:
 3497 05c8 705F6D74 		.ascii	"p_mtxlist\000"
ARM GAS  /tmp/cc6eU8gD.s 			page 67


 3497      786C6973 
 3497      7400
 3498              	.LASF104:
 3499 05d2 534D4352 		.ascii	"SMCR\000"
 3499      00
 3500              	.LASF51:
 3501 05d7 63685F74 		.ascii	"ch_thread\000"
 3501      68726561 
 3501      6400
 3502              	.LASF119:
 3503 05e1 74625F73 		.ascii	"tb_size\000"
 3503      697A6500 
 3504              	.LASF219:
 3505 05e9 75736172 		.ascii	"usart\000"
 3505      7400
 3506              	.LASF74:
 3507 05ef 73797374 		.ascii	"system_debug_t\000"
 3507      656D5F64 
 3507      65627567 
 3507      5F7400
 3508              	.LASF238:
 3509 05fe 43686962 		.ascii	"ChibiOS/os/hal/src/st.c\000"
 3509      694F532F 
 3509      6F732F68 
 3509      616C2F73 
 3509      72632F73 
 3510              	.LASF1:
 3511 0616 6C6F6E67 		.ascii	"long long int\000"
 3511      206C6F6E 
 3511      6720696E 
 3511      7400
 3512              	.LASF222:
 3513 0624 77726974 		.ascii	"write\000"
 3513      6500
 3514              	.LASF161:
 3515 062a 6576656E 		.ascii	"event_listener\000"
 3515      745F6C69 
 3515      7374656E 
 3515      657200
 3516              	.LASF57:
 3517 0639 725F7175 		.ascii	"r_queue\000"
 3517      65756500 
 3518              	.LASF60:
 3519 0641 725F6E65 		.ascii	"r_newer\000"
 3519      77657200 
 3520              	.LASF25:
 3521 0649 6D73675F 		.ascii	"msg_t\000"
 3521      7400
 3522              	.LASF200:
 3523 064f 70757064 		.ascii	"pupdr\000"
 3523      7200
 3524              	.LASF102:
 3525 0655 636F6E74 		.ascii	"context\000"
 3525      65787400 
 3526              	.LASF40:
 3527 065d 705F666C 		.ascii	"p_flags\000"
 3527      61677300 
ARM GAS  /tmp/cc6eU8gD.s 			page 68


 3528              	.LASF64:
 3529 0665 76697274 		.ascii	"virtual_timer_t\000"
 3529      75616C5F 
 3529      74696D65 
 3529      725F7400 
 3530              	.LASF94:
 3531 0675 444D415F 		.ascii	"DMA_TypeDef\000"
 3531      54797065 
 3531      44656600 
 3532              	.LASF154:
 3533 0681 63665F6F 		.ascii	"cf_off_refs\000"
 3533      66665F72 
 3533      65667300 
 3534              	.LASF140:
 3535 068d 63685F7A 		.ascii	"ch_zero\000"
 3535      65726F00 
 3536              	.LASF183:
 3537 0695 6F757470 		.ascii	"output_queue_t\000"
 3537      75745F71 
 3537      75657565 
 3537      5F7400
 3538              	.LASF193:
 3539 06a4 646D615F 		.ascii	"dma_param\000"
 3539      70617261 
 3539      6D00
 3540              	.LASF120:
 3541 06ae 74625F70 		.ascii	"tb_ptr\000"
 3541      747200
 3542              	.LASF202:
 3543 06b5 61667268 		.ascii	"afrh\000"
 3543      00
 3544              	.LASF201:
 3545 06ba 6166726C 		.ascii	"afrl\000"
 3545      00
 3546              	.LASF61:
 3547 06bf 725F6F6C 		.ascii	"r_older\000"
 3547      64657200 
 3548              	.LASF27:
 3549 06c7 6576656E 		.ascii	"eventflags_t\000"
 3549      74666C61 
 3549      67735F74 
 3549      00
 3550              	.LASF234:
 3551 06d4 73745F6C 		.ascii	"st_lld_is_alarm_active\000"
 3551      6C645F69 
 3551      735F616C 
 3551      61726D5F 
 3551      61637469 
 3552              	.LASF76:
 3553 06eb 70616E69 		.ascii	"panic_msg\000"
 3553      635F6D73 
 3553      6700
 3554              	.LASF44:
 3555 06f5 705F6D73 		.ascii	"p_msg\000"
 3555      6700
 3556              	.LASF225:
 3557 06fb 67657474 		.ascii	"gett\000"
ARM GAS  /tmp/cc6eU8gD.s 			page 69


 3557      00
 3558              	.LASF21:
 3559 0700 746D6F64 		.ascii	"tmode_t\000"
 3559      655F7400 
 3560              	.LASF141:
 3561 0708 63685F73 		.ascii	"ch_size\000"
 3561      697A6500 
 3562              	.LASF84:
 3563 0710 6D61696E 		.ascii	"mainthread\000"
 3563      74687265 
 3563      616400
 3564              	.LASF231:
 3565 071b 61627374 		.ascii	"abstime\000"
 3565      696D6500 
 3566              	.LASF2:
 3567 0723 6C6F6E67 		.ascii	"long double\000"
 3567      20646F75 
 3567      626C6500 
 3568              	.LASF218:
 3569 072f 6F717565 		.ascii	"oqueue\000"
 3569      756500
 3570              	.LASF17:
 3571 0736 75696E74 		.ascii	"uint16_t\000"
 3571      31365F74 
 3571      00
 3572              	.LASF243:
 3573 073f 73745F6C 		.ascii	"st_lld_start_alarm\000"
 3573      6C645F73 
 3573      74617274 
 3573      5F616C61 
 3573      726D00
 3574              	.LASF157:
 3575 0752 63686465 		.ascii	"chdebug_t\000"
 3575      6275675F 
 3575      7400
 3576              	.LASF184:
 3577 075c 6368616E 		.ascii	"channel\000"
 3577      6E656C00 
 3578              	.LASF212:
 3579 0764 53445F52 		.ascii	"SD_READY\000"
 3579      45414459 
 3579      00
 3580              	.LASF78:
 3581 076d 6C6F636B 		.ascii	"lock_cnt\000"
 3581      5F636E74 
 3581      00
 3582              	.LASF221:
 3583 0776 53657269 		.ascii	"SerialDriverVMT\000"
 3583      616C4472 
 3583      69766572 
 3583      564D5400 
 3584              	.LASF47:
 3585 0786 705F7265 		.ascii	"p_realprio\000"
 3585      616C7072 
 3585      696F00
 3586              	.LASF97:
 3587 0791 52455345 		.ascii	"RESERVED1\000"
ARM GAS  /tmp/cc6eU8gD.s 			page 70


 3587      52564544 
 3587      3100
 3588              	.LASF98:
 3589 079b 52455345 		.ascii	"RESERVED2\000"
 3589      52564544 
 3589      3200
 3590              	.LASF7:
 3591 07a5 73686F72 		.ascii	"short int\000"
 3591      7420696E 
 3591      7400
 3592              	.LASF142:
 3593 07af 63685F76 		.ascii	"ch_version\000"
 3593      65727369 
 3593      6F6E00
 3594              	.LASF62:
 3595 07ba 725F6375 		.ascii	"r_current\000"
 3595      7272656E 
 3595      7400
 3596              	.LASF45:
 3597 07c4 705F6570 		.ascii	"p_epending\000"
 3597      656E6469 
 3597      6E6700
 3598              	.LASF134:
 3599 07cf 6D5F7175 		.ascii	"m_queue\000"
 3599      65756500 
 3600              	.LASF11:
 3601 07d7 6C6F6E67 		.ascii	"long int\000"
 3601      20696E74 
 3601      00
 3602              	.LASF103:
 3603 07e0 706F7274 		.ascii	"port_intctx\000"
 3603      5F696E74 
 3603      63747800 
 3604              	.LASF112:
 3605 07ec 43435852 		.ascii	"CCXR\000"
 3605      00
 3606              	.LASF162:
 3607 07f1 656C5F6E 		.ascii	"el_next\000"
 3607      65787400 
 3608              	.LASF204:
 3609 07f9 50414461 		.ascii	"PAData\000"
 3609      746100
 3610              	.LASF81:
 3611 0800 63685F73 		.ascii	"ch_system\000"
 3611      79737465 
 3611      6D00
 3612              	.LASF31:
 3613 080a 705F6E65 		.ascii	"p_next\000"
 3613      787400
 3614              	.LASF232:
 3615 0811 73745374 		.ascii	"stStopAlarm\000"
 3615      6F70416C 
 3615      61726D00 
 3616              	.LASF20:
 3617 081d 75696E74 		.ascii	"uint64_t\000"
 3617      36345F74 
 3617      00
ARM GAS  /tmp/cc6eU8gD.s 			page 71


 3618              	.LASF34:
 3619 0826 705F6374 		.ascii	"p_ctx\000"
 3619      7800
 3620              	.LASF82:
 3621 082c 726C6973 		.ascii	"rlist\000"
 3621      7400
 3622              	.LASF156:
 3623 0832 63665F6F 		.ascii	"cf_off_time\000"
 3623      66665F74 
 3623      696D6500 
 3624              	.LASF192:
 3625 083e 646D615F 		.ascii	"dma_func\000"
 3625      66756E63 
 3625      00
 3626              	.LASF146:
 3627 0847 63665F6F 		.ascii	"cf_off_prio\000"
 3627      66665F70 
 3627      72696F00 
 3628              	.LASF5:
 3629 0853 5F5F7569 		.ascii	"__uint8_t\000"
 3629      6E74385F 
 3629      7400
 3630              	.LASF223:
 3631 085d 72656164 		.ascii	"read\000"
 3631      00
 3632              	.LASF164:
 3633 0862 656C5F65 		.ascii	"el_events\000"
 3633      76656E74 
 3633      7300
 3634              	.LASF163:
 3635 086c 656C5F6C 		.ascii	"el_listener\000"
 3635      69737465 
 3635      6E657200 
 3636              	.LASF210:
 3637 0878 53445F55 		.ascii	"SD_UNINIT\000"
 3637      4E494E49 
 3637      5400
 3638              	.LASF139:
 3639 0882 63685F69 		.ascii	"ch_identifier\000"
 3639      64656E74 
 3639      69666965 
 3639      7200
 3640              	.LASF174:
 3641 0890 715F636F 		.ascii	"q_counter\000"
 3641      756E7465 
 3641      7200
 3642              	.LASF208:
 3643 089a 50414C43 		.ascii	"PALConfig\000"
 3643      6F6E6669 
 3643      6700
 3644              	.LASF176:
 3645 08a4 715F746F 		.ascii	"q_top\000"
 3645      7000
 3646              	.LASF32:
 3647 08aa 705F7072 		.ascii	"p_prev\000"
 3647      657600
 3648              	.LASF86:
ARM GAS  /tmp/cc6eU8gD.s 			page 72


 3649 08b1 73697A65 		.ascii	"sizetype\000"
 3649      74797065 
 3649      00
 3650              	.LASF23:
 3651 08ba 74726566 		.ascii	"trefs_t\000"
 3651      735F7400 
 3652              	.LASF13:
 3653 08c2 6C6F6E67 		.ascii	"long unsigned int\000"
 3653      20756E73 
 3653      69676E65 
 3653      6420696E 
 3653      7400
 3654              	.LASF152:
 3655 08d4 63665F6F 		.ascii	"cf_off_state\000"
 3655      66665F73 
 3655      74617465 
 3655      00
 3656              	.LASF55:
 3657 08e1 72656164 		.ascii	"ready_list_t\000"
 3657      795F6C69 
 3657      73745F74 
 3657      00
 3658              	.LASF18:
 3659 08ee 696E7433 		.ascii	"int32_t\000"
 3659      325F7400 
 3660              	.LASF79:
 3661 08f6 74726163 		.ascii	"trace_buffer\000"
 3661      655F6275 
 3661      66666572 
 3661      00
 3662              	.LASF118:
 3663 0903 63685F73 		.ascii	"ch_swc_event_t\000"
 3663      77635F65 
 3663      76656E74 
 3663      5F7400
 3664              	.LASF159:
 3665 0912 6D757465 		.ascii	"mutex_t\000"
 3665      785F7400 
 3666              	.LASF6:
 3667 091a 756E7369 		.ascii	"unsigned char\000"
 3667      676E6564 
 3667      20636861 
 3667      7200
 3668              	.LASF12:
 3669 0928 5F5F7569 		.ascii	"__uint32_t\000"
 3669      6E743332 
 3669      5F7400
 3670              	.LASF71:
 3671 0933 76697274 		.ascii	"virtual_timers_list_t\000"
 3671      75616C5F 
 3671      74696D65 
 3671      72735F6C 
 3671      6973745F 
 3672              	.LASF41:
 3673 0949 705F7265 		.ascii	"p_refs\000"
 3673      667300
 3674              	.LASF168:
ARM GAS  /tmp/cc6eU8gD.s 			page 73


 3675 0950 65735F6E 		.ascii	"es_next\000"
 3675      65787400 
 3676              	.LASF241:
 3677 0958 73745F6C 		.ascii	"st_lld_set_alarm\000"
 3677      6C645F73 
 3677      65745F61 
 3677      6C61726D 
 3677      00
 3678              	.LASF216:
 3679 0969 73746174 		.ascii	"state\000"
 3679      6500
 3680              	.LASF66:
 3681 096f 76745F6E 		.ascii	"vt_next\000"
 3681      65787400 
 3682              	.LASF80:
 3683 0977 63685F73 		.ascii	"ch_system_t\000"
 3683      79737465 
 3683      6D5F7400 
 3684              	.LASF127:
 3685 0983 77747365 		.ascii	"wtsemp\000"
 3685      6D7000
 3686              	.LASF126:
 3687 098a 77747472 		.ascii	"wttrp\000"
 3687      7000
 3688              	.LASF181:
 3689 0990 716E6F74 		.ascii	"qnotify_t\000"
 3689      6966795F 
 3689      7400
 3690              	.LASF122:
 3691 099a 63685F74 		.ascii	"ch_trace_buffer_t\000"
 3691      72616365 
 3691      5F627566 
 3691      6665725F 
 3691      7400
 3692              	.LASF136:
 3693 09ac 6D5F6E65 		.ascii	"m_next\000"
 3693      787400
 3694              	.LASF240:
 3695 09b3 73744765 		.ascii	"stGetAlarm\000"
 3695      74416C61 
 3695      726D00
 3696              	.LASF3:
 3697 09be 7369676E 		.ascii	"signed char\000"
 3697      65642063 
 3697      68617200 
 3698              	.LASF148:
 3699 09ca 63665F6F 		.ascii	"cf_off_newer\000"
 3699      66665F6E 
 3699      65776572 
 3699      00
 3700              	.LASF172:
 3701 09d7 696F5F71 		.ascii	"io_queue\000"
 3701      75657565 
 3701      00
 3702              	.LASF227:
 3703 09e0 72656164 		.ascii	"readt\000"
 3703      7400
ARM GAS  /tmp/cc6eU8gD.s 			page 74


 3704              	.LASF9:
 3705 09e6 73686F72 		.ascii	"short unsigned int\000"
 3705      7420756E 
 3705      7369676E 
 3705      65642069 
 3705      6E7400
 3706              	.LASF59:
 3707 09f9 725F6374 		.ascii	"r_ctx\000"
 3707      7800
 3708              	.LASF101:
 3709 09ff 73746B61 		.ascii	"stkalign_t\000"
 3709      6C69676E 
 3709      5F7400
 3710              	.LASF91:
 3711 0a0a 49464352 		.ascii	"IFCR\000"
 3711      00
 3712              	.LASF93:
 3713 0a0f 4353454C 		.ascii	"CSELR\000"
 3713      5200
 3714              	.LASF228:
 3715 0a15 5F5F6675 		.ascii	"__func__\000"
 3715      6E635F5F 
 3715      00
 3716              	.LASF158:
 3717 0a1e 63685F64 		.ascii	"ch_debug\000"
 3717      65627567 
 3717      00
 3718              	.LASF69:
 3719 0a27 76745F66 		.ascii	"vt_func\000"
 3719      756E6300 
 3720              	.LASF67:
 3721 0a2f 76745F70 		.ascii	"vt_prev\000"
 3721      72657600 
 3722              	.LASF92:
 3723 0a37 52455345 		.ascii	"RESERVED0\000"
 3723      52564544 
 3723      3000
 3724              	.LASF207:
 3725 0a41 50464461 		.ascii	"PFData\000"
 3725      746100
 3726              	.LASF195:
 3727 0a48 5F73746D 		.ascii	"_stm32_dma_streams\000"
 3727      33325F64 
 3727      6D615F73 
 3727      74726561 
 3727      6D7300
 3728              	.LASF199:
 3729 0a5b 6F737065 		.ascii	"ospeedr\000"
 3729      65647200 
 3730              	.LASF165:
 3731 0a63 656C5F66 		.ascii	"el_flags\000"
 3731      6C616773 
 3731      00
 3732              	.LASF124:
 3733 0a6c 65786974 		.ascii	"exitcode\000"
 3733      636F6465 
 3733      00
ARM GAS  /tmp/cc6eU8gD.s 			page 75


 3734              	.LASF188:
 3735 0a75 73656C66 		.ascii	"selfindex\000"
 3735      696E6465 
 3735      7800
 3736              	.LASF175:
 3737 0a7f 715F6275 		.ascii	"q_buffer\000"
 3737      66666572 
 3737      00
 3738              		.ident	"GCC: (GNU Tools for ARM Embedded Processors 6-2017-q1-update) 6.3.1 20170215 (release) [AR
ARM GAS  /tmp/cc6eU8gD.s 			page 76


DEFINED SYMBOLS
                            *ABS*:0000000000000000 st.c
     /tmp/cc6eU8gD.s:16     .text.st_lld_start_alarm:0000000000000000 $t
     /tmp/cc6eU8gD.s:23     .text.st_lld_start_alarm:0000000000000000 st_lld_start_alarm
     /tmp/cc6eU8gD.s:59     .text.st_lld_start_alarm:0000000000000028 $d
     /tmp/cc6eU8gD.s:64     .text.st_lld_stop_alarm:0000000000000000 $t
     /tmp/cc6eU8gD.s:71     .text.st_lld_stop_alarm:0000000000000000 st_lld_stop_alarm
     /tmp/cc6eU8gD.s:89     .text.st_lld_stop_alarm:000000000000000c $d
     /tmp/cc6eU8gD.s:94     .text.st_lld_set_alarm:0000000000000000 $t
     /tmp/cc6eU8gD.s:101    .text.st_lld_set_alarm:0000000000000000 st_lld_set_alarm
     /tmp/cc6eU8gD.s:128    .text.st_lld_set_alarm:000000000000001c $d
     /tmp/cc6eU8gD.s:133    .text.st_lld_get_alarm:0000000000000000 $t
     /tmp/cc6eU8gD.s:140    .text.st_lld_get_alarm:0000000000000000 st_lld_get_alarm
     /tmp/cc6eU8gD.s:158    .text.st_lld_get_alarm:000000000000000c $d
     /tmp/cc6eU8gD.s:163    .text.st_lld_is_alarm_active:0000000000000000 $t
     /tmp/cc6eU8gD.s:170    .text.st_lld_is_alarm_active:0000000000000000 st_lld_is_alarm_active
     /tmp/cc6eU8gD.s:192    .text.st_lld_is_alarm_active:0000000000000014 $d
     /tmp/cc6eU8gD.s:197    .text.stInit:0000000000000000 $t
     /tmp/cc6eU8gD.s:205    .text.stInit:0000000000000000 stInit
     /tmp/cc6eU8gD.s:226    .text.stStartAlarm:0000000000000000 $t
     /tmp/cc6eU8gD.s:234    .text.stStartAlarm:0000000000000000 stStartAlarm
     /tmp/cc6eU8gD.s:272    .text.stStartAlarm:0000000000000030 $d
     /tmp/cc6eU8gD.s:411    .rodata.__func__.6211:0000000000000000 __func__.6211
     /tmp/cc6eU8gD.s:277    .text.stStopAlarm:0000000000000000 $t
     /tmp/cc6eU8gD.s:285    .text.stStopAlarm:0000000000000000 stStopAlarm
     /tmp/cc6eU8gD.s:305    .text.stSetAlarm:0000000000000000 $t
     /tmp/cc6eU8gD.s:313    .text.stSetAlarm:0000000000000000 stSetAlarm
     /tmp/cc6eU8gD.s:356    .text.stSetAlarm:0000000000000038 $d
     /tmp/cc6eU8gD.s:417    .rodata.__func__.6218:0000000000000000 __func__.6218
     /tmp/cc6eU8gD.s:361    .text.stGetAlarm:0000000000000000 $t
     /tmp/cc6eU8gD.s:369    .text.stGetAlarm:0000000000000000 stGetAlarm
     /tmp/cc6eU8gD.s:403    .text.stGetAlarm:0000000000000028 $d
     /tmp/cc6eU8gD.s:423    .rodata.__func__.6222:0000000000000000 __func__.6222
     /tmp/cc6eU8gD.s:408    .rodata.__func__.6211:0000000000000000 $d
     /tmp/cc6eU8gD.s:414    .rodata.__func__.6218:0000000000000000 $d
     /tmp/cc6eU8gD.s:420    .rodata.__func__.6222:0000000000000000 $d
                     .debug_frame:0000000000000010 $d

UNDEFINED SYMBOLS
st_lld_init
chSysHalt
