ARM GAS  /tmp/ccnyvrP4.s 			page 1


   1              		.cpu cortex-m0
   2              		.eabi_attribute 20, 1
   3              		.eabi_attribute 21, 1
   4              		.eabi_attribute 23, 3
   5              		.eabi_attribute 24, 1
   6              		.eabi_attribute 25, 1
   7              		.eabi_attribute 26, 1
   8              		.eabi_attribute 30, 6
   9              		.eabi_attribute 34, 0
  10              		.eabi_attribute 18, 4
  11              		.file	"st.c"
  12              		.text
  13              	.Ltext0:
  14              		.cfi_sections	.debug_frame
  15              		.section	.text.st_lld_start_alarm,"ax",%progbits
  16              		.align	1
  17              		.p2align 4,,15
  18              		.syntax unified
  19              		.code	16
  20              		.thumb_func
  21              		.fpu softvfp
  22              		.type	st_lld_start_alarm, %function
  23              	st_lld_start_alarm:
  24              	.LFB47:
  25              		.file 1 "ChibiOS/os/hal/ports/STM32/LLD/TIMv1/st_lld.h"
  26              		.loc 1 153 0
  27              		.cfi_startproc
  28              		@ args = 0, pretend = 0, frame = 8
  29              		@ frame_needed = 0, uses_anonymous_args = 0
  30              		@ link register save eliminated.
  31 0000 82B0     		sub	sp, sp, #8
  32              		.cfi_def_cfa_offset 8
  33 0002 0200     		movs	r2, r0
  34 0004 6B46     		mov	r3, sp
  35 0006 0633     		adds	r3, r3, #6
  36 0008 1A80     		strh	r2, [r3]
  37              		.loc 1 155 0
  38 000a 074B     		ldr	r3, .L2
  39 000c 6A46     		mov	r2, sp
  40 000e 0632     		adds	r2, r2, #6
  41 0010 1288     		ldrh	r2, [r2]
  42 0012 5A63     		str	r2, [r3, #52]
  43              		.loc 1 156 0
  44 0014 044B     		ldr	r3, .L2
  45 0016 0022     		movs	r2, #0
  46 0018 1A61     		str	r2, [r3, #16]
  47              		.loc 1 157 0
  48 001a 034B     		ldr	r3, .L2
  49 001c 0222     		movs	r2, #2
  50 001e DA60     		str	r2, [r3, #12]
  51              		.loc 1 158 0
  52 0020 C046     		nop
  53 0022 02B0     		add	sp, sp, #8
  54              		@ sp needed
  55 0024 7047     		bx	lr
  56              	.L3:
  57 0026 C046     		.align	2
ARM GAS  /tmp/ccnyvrP4.s 			page 2


  58              	.L2:
  59 0028 00040040 		.word	1073742848
  60              		.cfi_endproc
  61              	.LFE47:
  62              		.size	st_lld_start_alarm, .-st_lld_start_alarm
  63              		.section	.text.st_lld_stop_alarm,"ax",%progbits
  64              		.align	1
  65              		.p2align 4,,15
  66              		.syntax unified
  67              		.code	16
  68              		.thumb_func
  69              		.fpu softvfp
  70              		.type	st_lld_stop_alarm, %function
  71              	st_lld_stop_alarm:
  72              	.LFB48:
  73              		.loc 1 165 0
  74              		.cfi_startproc
  75              		@ args = 0, pretend = 0, frame = 0
  76              		@ frame_needed = 0, uses_anonymous_args = 0
  77              		@ link register save eliminated.
  78              		.loc 1 167 0
  79 0000 024B     		ldr	r3, .L5
  80 0002 0022     		movs	r2, #0
  81 0004 DA60     		str	r2, [r3, #12]
  82              		.loc 1 168 0
  83 0006 C046     		nop
  84              		@ sp needed
  85 0008 7047     		bx	lr
  86              	.L6:
  87 000a C046     		.align	2
  88              	.L5:
  89 000c 00040040 		.word	1073742848
  90              		.cfi_endproc
  91              	.LFE48:
  92              		.size	st_lld_stop_alarm, .-st_lld_stop_alarm
  93              		.section	.text.st_lld_set_alarm,"ax",%progbits
  94              		.align	1
  95              		.p2align 4,,15
  96              		.syntax unified
  97              		.code	16
  98              		.thumb_func
  99              		.fpu softvfp
 100              		.type	st_lld_set_alarm, %function
 101              	st_lld_set_alarm:
 102              	.LFB49:
 103              		.loc 1 177 0
 104              		.cfi_startproc
 105              		@ args = 0, pretend = 0, frame = 8
 106              		@ frame_needed = 0, uses_anonymous_args = 0
 107              		@ link register save eliminated.
 108 0000 82B0     		sub	sp, sp, #8
 109              		.cfi_def_cfa_offset 8
 110 0002 0200     		movs	r2, r0
 111 0004 6B46     		mov	r3, sp
 112 0006 0633     		adds	r3, r3, #6
 113 0008 1A80     		strh	r2, [r3]
 114              		.loc 1 179 0
ARM GAS  /tmp/ccnyvrP4.s 			page 3


 115 000a 044B     		ldr	r3, .L8
 116 000c 6A46     		mov	r2, sp
 117 000e 0632     		adds	r2, r2, #6
 118 0010 1288     		ldrh	r2, [r2]
 119 0012 5A63     		str	r2, [r3, #52]
 120              		.loc 1 180 0
 121 0014 C046     		nop
 122 0016 02B0     		add	sp, sp, #8
 123              		@ sp needed
 124 0018 7047     		bx	lr
 125              	.L9:
 126 001a C046     		.align	2
 127              	.L8:
 128 001c 00040040 		.word	1073742848
 129              		.cfi_endproc
 130              	.LFE49:
 131              		.size	st_lld_set_alarm, .-st_lld_set_alarm
 132              		.section	.text.st_lld_get_alarm,"ax",%progbits
 133              		.align	1
 134              		.p2align 4,,15
 135              		.syntax unified
 136              		.code	16
 137              		.thumb_func
 138              		.fpu softvfp
 139              		.type	st_lld_get_alarm, %function
 140              	st_lld_get_alarm:
 141              	.LFB50:
 142              		.loc 1 189 0
 143              		.cfi_startproc
 144              		@ args = 0, pretend = 0, frame = 0
 145              		@ frame_needed = 0, uses_anonymous_args = 0
 146              		@ link register save eliminated.
 147              		.loc 1 191 0
 148 0000 024B     		ldr	r3, .L12
 149 0002 5B6B     		ldr	r3, [r3, #52]
 150 0004 9BB2     		uxth	r3, r3
 151              		.loc 1 192 0
 152 0006 1800     		movs	r0, r3
 153              		@ sp needed
 154 0008 7047     		bx	lr
 155              	.L13:
 156 000a C046     		.align	2
 157              	.L12:
 158 000c 00040040 		.word	1073742848
 159              		.cfi_endproc
 160              	.LFE50:
 161              		.size	st_lld_get_alarm, .-st_lld_get_alarm
 162              		.section	.text.st_lld_is_alarm_active,"ax",%progbits
 163              		.align	1
 164              		.p2align 4,,15
 165              		.syntax unified
 166              		.code	16
 167              		.thumb_func
 168              		.fpu softvfp
 169              		.type	st_lld_is_alarm_active, %function
 170              	st_lld_is_alarm_active:
 171              	.LFB51:
ARM GAS  /tmp/ccnyvrP4.s 			page 4


 172              		.loc 1 203 0
 173              		.cfi_startproc
 174              		@ args = 0, pretend = 0, frame = 0
 175              		@ frame_needed = 0, uses_anonymous_args = 0
 176              		@ link register save eliminated.
 177              		.loc 1 205 0
 178 0000 044B     		ldr	r3, .L16
 179 0002 DB68     		ldr	r3, [r3, #12]
 180 0004 0222     		movs	r2, #2
 181 0006 1340     		ands	r3, r2
 182 0008 5A1E     		subs	r2, r3, #1
 183 000a 9341     		sbcs	r3, r3, r2
 184 000c DBB2     		uxtb	r3, r3
 185              		.loc 1 206 0
 186 000e 1800     		movs	r0, r3
 187              		@ sp needed
 188 0010 7047     		bx	lr
 189              	.L17:
 190 0012 C046     		.align	2
 191              	.L16:
 192 0014 00040040 		.word	1073742848
 193              		.cfi_endproc
 194              	.LFE51:
 195              		.size	st_lld_is_alarm_active, .-st_lld_is_alarm_active
 196              		.section	.text.stInit,"ax",%progbits
 197              		.align	1
 198              		.p2align 4,,15
 199              		.global	stInit
 200              		.syntax unified
 201              		.code	16
 202              		.thumb_func
 203              		.fpu softvfp
 204              		.type	stInit, %function
 205              	stInit:
 206              	.LFB182:
 207              		.file 2 "ChibiOS/os/hal/src/st.c"
 208              		.loc 2 60 0
 209              		.cfi_startproc
 210              		@ args = 0, pretend = 0, frame = 0
 211              		@ frame_needed = 0, uses_anonymous_args = 0
 212 0000 10B5     		push	{r4, lr}
 213              		.cfi_def_cfa_offset 8
 214              		.cfi_offset 4, -8
 215              		.cfi_offset 14, -4
 216              		.loc 2 62 0
 217 0002 FFF7FEFF 		bl	st_lld_init
 218              		.loc 2 63 0
 219 0006 C046     		nop
 220              		@ sp needed
 221 0008 10BD     		pop	{r4, pc}
 222              		.cfi_endproc
 223              	.LFE182:
 224              		.size	stInit, .-stInit
 225 000a C046     		.section	.text.stStartAlarm,"ax",%progbits
 226              		.align	1
 227              		.p2align 4,,15
 228              		.global	stStartAlarm
ARM GAS  /tmp/ccnyvrP4.s 			page 5


 229              		.syntax unified
 230              		.code	16
 231              		.thumb_func
 232              		.fpu softvfp
 233              		.type	stStartAlarm, %function
 234              	stStartAlarm:
 235              	.LFB183:
 236              		.loc 2 77 0
 237              		.cfi_startproc
 238              		@ args = 0, pretend = 0, frame = 8
 239              		@ frame_needed = 0, uses_anonymous_args = 0
 240 0000 00B5     		push	{lr}
 241              		.cfi_def_cfa_offset 4
 242              		.cfi_offset 14, -4
 243 0002 83B0     		sub	sp, sp, #12
 244              		.cfi_def_cfa_offset 16
 245 0004 0200     		movs	r2, r0
 246 0006 6B46     		mov	r3, sp
 247 0008 0633     		adds	r3, r3, #6
 248 000a 1A80     		strh	r2, [r3]
 249              		.loc 2 79 0
 250 000c FFF7FEFF 		bl	st_lld_is_alarm_active
 251 0010 031E     		subs	r3, r0, #0
 252 0012 03D0     		beq	.L20
 253              		.loc 2 79 0 is_stmt 0 discriminator 2
 254 0014 064B     		ldr	r3, .L21
 255 0016 1800     		movs	r0, r3
 256 0018 FFF7FEFF 		bl	chSysHalt
 257              	.L20:
 258              		.loc 2 81 0 is_stmt 1
 259 001c 6B46     		mov	r3, sp
 260 001e 0633     		adds	r3, r3, #6
 261 0020 1B88     		ldrh	r3, [r3]
 262 0022 1800     		movs	r0, r3
 263 0024 FFF7FEFF 		bl	st_lld_start_alarm
 264              		.loc 2 82 0
 265 0028 C046     		nop
 266 002a 03B0     		add	sp, sp, #12
 267              		@ sp needed
 268 002c 00BD     		pop	{pc}
 269              	.L22:
 270 002e C046     		.align	2
 271              	.L21:
 272 0030 00000000 		.word	__func__.6212
 273              		.cfi_endproc
 274              	.LFE183:
 275              		.size	stStartAlarm, .-stStartAlarm
 276              		.section	.text.stStopAlarm,"ax",%progbits
 277              		.align	1
 278              		.p2align 4,,15
 279              		.global	stStopAlarm
 280              		.syntax unified
 281              		.code	16
 282              		.thumb_func
 283              		.fpu softvfp
 284              		.type	stStopAlarm, %function
 285              	stStopAlarm:
ARM GAS  /tmp/ccnyvrP4.s 			page 6


 286              	.LFB184:
 287              		.loc 2 91 0
 288              		.cfi_startproc
 289              		@ args = 0, pretend = 0, frame = 0
 290              		@ frame_needed = 0, uses_anonymous_args = 0
 291 0000 10B5     		push	{r4, lr}
 292              		.cfi_def_cfa_offset 8
 293              		.cfi_offset 4, -8
 294              		.cfi_offset 14, -4
 295              		.loc 2 93 0
 296 0002 FFF7FEFF 		bl	st_lld_stop_alarm
 297              		.loc 2 94 0
 298 0006 C046     		nop
 299              		@ sp needed
 300 0008 10BD     		pop	{r4, pc}
 301              		.cfi_endproc
 302              	.LFE184:
 303              		.size	stStopAlarm, .-stStopAlarm
 304 000a C046     		.section	.text.stSetAlarm,"ax",%progbits
 305              		.align	1
 306              		.p2align 4,,15
 307              		.global	stSetAlarm
 308              		.syntax unified
 309              		.code	16
 310              		.thumb_func
 311              		.fpu softvfp
 312              		.type	stSetAlarm, %function
 313              	stSetAlarm:
 314              	.LFB185:
 315              		.loc 2 105 0
 316              		.cfi_startproc
 317              		@ args = 0, pretend = 0, frame = 8
 318              		@ frame_needed = 0, uses_anonymous_args = 0
 319 0000 00B5     		push	{lr}
 320              		.cfi_def_cfa_offset 4
 321              		.cfi_offset 14, -4
 322 0002 83B0     		sub	sp, sp, #12
 323              		.cfi_def_cfa_offset 16
 324 0004 0200     		movs	r2, r0
 325 0006 6B46     		mov	r3, sp
 326 0008 0633     		adds	r3, r3, #6
 327 000a 1A80     		strh	r2, [r3]
 328              		.loc 2 107 0
 329 000c FFF7FEFF 		bl	st_lld_is_alarm_active
 330 0010 0300     		movs	r3, r0
 331 0012 1A00     		movs	r2, r3
 332 0014 0123     		movs	r3, #1
 333 0016 5340     		eors	r3, r2
 334 0018 DBB2     		uxtb	r3, r3
 335 001a 002B     		cmp	r3, #0
 336 001c 03D0     		beq	.L25
 337              		.loc 2 107 0 is_stmt 0 discriminator 2
 338 001e 064B     		ldr	r3, .L26
 339 0020 1800     		movs	r0, r3
 340 0022 FFF7FEFF 		bl	chSysHalt
 341              	.L25:
 342              		.loc 2 109 0 is_stmt 1
ARM GAS  /tmp/ccnyvrP4.s 			page 7


 343 0026 6B46     		mov	r3, sp
 344 0028 0633     		adds	r3, r3, #6
 345 002a 1B88     		ldrh	r3, [r3]
 346 002c 1800     		movs	r0, r3
 347 002e FFF7FEFF 		bl	st_lld_set_alarm
 348              		.loc 2 110 0
 349 0032 C046     		nop
 350 0034 03B0     		add	sp, sp, #12
 351              		@ sp needed
 352 0036 00BD     		pop	{pc}
 353              	.L27:
 354              		.align	2
 355              	.L26:
 356 0038 00000000 		.word	__func__.6219
 357              		.cfi_endproc
 358              	.LFE185:
 359              		.size	stSetAlarm, .-stSetAlarm
 360              		.section	.text.stGetAlarm,"ax",%progbits
 361              		.align	1
 362              		.p2align 4,,15
 363              		.global	stGetAlarm
 364              		.syntax unified
 365              		.code	16
 366              		.thumb_func
 367              		.fpu softvfp
 368              		.type	stGetAlarm, %function
 369              	stGetAlarm:
 370              	.LFB186:
 371              		.loc 2 121 0
 372              		.cfi_startproc
 373              		@ args = 0, pretend = 0, frame = 0
 374              		@ frame_needed = 0, uses_anonymous_args = 0
 375 0000 10B5     		push	{r4, lr}
 376              		.cfi_def_cfa_offset 8
 377              		.cfi_offset 4, -8
 378              		.cfi_offset 14, -4
 379              		.loc 2 123 0
 380 0002 FFF7FEFF 		bl	st_lld_is_alarm_active
 381 0006 0300     		movs	r3, r0
 382 0008 1A00     		movs	r2, r3
 383 000a 0123     		movs	r3, #1
 384 000c 5340     		eors	r3, r2
 385 000e DBB2     		uxtb	r3, r3
 386 0010 002B     		cmp	r3, #0
 387 0012 03D0     		beq	.L29
 388              		.loc 2 123 0 is_stmt 0 discriminator 2
 389 0014 044B     		ldr	r3, .L31
 390 0016 1800     		movs	r0, r3
 391 0018 FFF7FEFF 		bl	chSysHalt
 392              	.L29:
 393              		.loc 2 125 0 is_stmt 1
 394 001c FFF7FEFF 		bl	st_lld_get_alarm
 395 0020 0300     		movs	r3, r0
 396              		.loc 2 126 0
 397 0022 1800     		movs	r0, r3
 398              		@ sp needed
 399 0024 10BD     		pop	{r4, pc}
ARM GAS  /tmp/ccnyvrP4.s 			page 8


 400              	.L32:
 401 0026 C046     		.align	2
 402              	.L31:
 403 0028 00000000 		.word	__func__.6223
 404              		.cfi_endproc
 405              	.LFE186:
 406              		.size	stGetAlarm, .-stGetAlarm
 407              		.section	.rodata.__func__.6212,"a",%progbits
 408              		.align	2
 409              		.type	__func__.6212, %object
 410              		.size	__func__.6212, 13
 411              	__func__.6212:
 412 0000 73745374 		.ascii	"stStartAlarm\000"
 412      61727441 
 412      6C61726D 
 412      00
 413              		.section	.rodata.__func__.6219,"a",%progbits
 414              		.align	2
 415              		.type	__func__.6219, %object
 416              		.size	__func__.6219, 11
 417              	__func__.6219:
 418 0000 73745365 		.ascii	"stSetAlarm\000"
 418      74416C61 
 418      726D00
 419              		.section	.rodata.__func__.6223,"a",%progbits
 420              		.align	2
 421              		.type	__func__.6223, %object
 422              		.size	__func__.6223, 11
 423              	__func__.6223:
 424 0000 73744765 		.ascii	"stGetAlarm\000"
 424      74416C61 
 424      726D00
 425              		.text
 426              	.Letext0:
 427              		.file 3 "/home/felix/opt/gcc-arm-none-eabi-6-2017-q1-update/lib/gcc/arm-none-eabi/6.3.1/include/st
 428              		.file 4 "/home/felix/opt/gcc-arm-none-eabi-6-2017-q1-update/arm-none-eabi/include/machine/_default
 429              		.file 5 "/home/felix/opt/gcc-arm-none-eabi-6-2017-q1-update/arm-none-eabi/include/sys/_stdint.h"
 430              		.file 6 "ChibiOS/os/rt/ports/ARMCMx/compilers/GCC/chtypes.h"
 431              		.file 7 "ChibiOS/os/rt/include/chsystypes.h"
 432              		.file 8 "ChibiOS/os/rt/include/chschd.h"
 433              		.file 9 "ChibiOS/os/ext/CMSIS/ST/STM32F0xx/stm32f030xc.h"
 434              		.file 10 "ChibiOS/os/rt/ports/ARMCMx/chcore.h"
 435              		.file 11 "ChibiOS/os/rt/ports/ARMCMx/chcore_v6m.h"
 436              		.file 12 "ChibiOS/os/hal/ports/STM32/LLD/TIMv1/stm32_tim.h"
 437              		.file 13 "ChibiOS/os/rt/include/chdebug.h"
 438              		.file 14 "ChibiOS/os/rt/include/chsem.h"
 439              		.file 15 "ChibiOS/os/rt/include/chmtx.h"
 440              		.file 16 "ChibiOS/os/rt/include/chregistry.h"
 441              		.file 17 "ChibiOS/os/ext/CMSIS/ST/STM32F0xx/system_stm32f0xx.h"
 442              		.file 18 "ChibiOS/os/rt/include/chevents.h"
 443              		.file 19 "ChibiOS/os/rt/include/chqueues.h"
 444              		.file 20 "ChibiOS/os/hal/ports/STM32/LLD/DMAv1/stm32_dma.h"
 445              		.file 21 "ChibiOS/os/hal/ports/STM32/LLD/GPIOv2/pal_lld.h"
 446              		.file 22 "ChibiOS/os/hal/include/serial.h"
 447              		.file 23 "ChibiOS/os/hal/ports/STM32/LLD/USARTv2/serial_lld.h"