ARM GAS  /tmp/ccDUvqkW.s 			page 1


   1              		.cpu cortex-m0
   2              		.eabi_attribute 20, 1
   3              		.eabi_attribute 21, 1
   4              		.eabi_attribute 23, 3
   5              		.eabi_attribute 24, 1
   6              		.eabi_attribute 25, 1
   7              		.eabi_attribute 26, 1
   8              		.eabi_attribute 30, 6
   9              		.eabi_attribute 34, 0
  10              		.eabi_attribute 18, 4
  11              		.file	"st_lld.c"
  12              		.text
  13              	.Ltext0:
  14              		.cfi_sections	.debug_frame
  15              		.section	.text.port_lock,"ax",%progbits
  16              		.align	1
  17              		.p2align 4,,15
  18              		.syntax unified
  19              		.code	16
  20              		.thumb_func
  21              		.fpu softvfp
  22              		.type	port_lock, %function
  23              	port_lock:
  24              	.LFB38:
  25              		.file 1 "ChibiOS/os/rt/ports/ARMCMx/chcore_v6m.h"
  26              		.loc 1 330 0
  27              		.cfi_startproc
  28              		@ args = 0, pretend = 0, frame = 0
  29              		@ frame_needed = 0, uses_anonymous_args = 0
  30              		@ link register save eliminated.
  31              	.LBB6:
  32              	.LBB7:
  33              		.file 2 "ChibiOS/os/ext/CMSIS/include/core_cmFunc.h"
  34              		.loc 2 344 0
  35              		.syntax divided
  36              	@ 344 "ChibiOS/os/ext/CMSIS/include/core_cmFunc.h" 1
  37 0000 72B6     		cpsid i
  38              	@ 0 "" 2
  39              		.thumb
  40              		.syntax unified
  41              	.LBE7:
  42              	.LBE6:
  43              		.loc 1 333 0
  44 0002 C046     		nop
  45              		@ sp needed
  46 0004 7047     		bx	lr
  47              		.cfi_endproc
  48              	.LFE38:
  49              		.size	port_lock, .-port_lock
  50 0006 C046     		.section	.text.port_unlock,"ax",%progbits
  51              		.align	1
  52              		.p2align 4,,15
  53              		.syntax unified
  54              		.code	16
  55              		.thumb_func
  56              		.fpu softvfp
  57              		.type	port_unlock, %function
ARM GAS  /tmp/ccDUvqkW.s 			page 2


  58              	port_unlock:
  59              	.LFB39:
  60              		.loc 1 339 0
  61              		.cfi_startproc
  62              		@ args = 0, pretend = 0, frame = 0
  63              		@ frame_needed = 0, uses_anonymous_args = 0
  64              		@ link register save eliminated.
  65              	.LBB8:
  66              	.LBB9:
  67              		.loc 2 333 0
  68              		.syntax divided
  69              	@ 333 "ChibiOS/os/ext/CMSIS/include/core_cmFunc.h" 1
  70 0000 62B6     		cpsie i
  71              	@ 0 "" 2
  72              		.thumb
  73              		.syntax unified
  74              	.LBE9:
  75              	.LBE8:
  76              		.loc 1 342 0
  77 0002 C046     		nop
  78              		@ sp needed
  79 0004 7047     		bx	lr
  80              		.cfi_endproc
  81              	.LFE39:
  82              		.size	port_unlock, .-port_unlock
  83 0006 C046     		.section	.text.port_lock_from_isr,"ax",%progbits
  84              		.align	1
  85              		.p2align 4,,15
  86              		.syntax unified
  87              		.code	16
  88              		.thumb_func
  89              		.fpu softvfp
  90              		.type	port_lock_from_isr, %function
  91              	port_lock_from_isr:
  92              	.LFB40:
  93              		.loc 1 349 0
  94              		.cfi_startproc
  95              		@ args = 0, pretend = 0, frame = 0
  96              		@ frame_needed = 0, uses_anonymous_args = 0
  97 0000 10B5     		push	{r4, lr}
  98              		.cfi_def_cfa_offset 8
  99              		.cfi_offset 4, -8
 100              		.cfi_offset 14, -4
 101              		.loc 1 351 0
 102 0002 FFF7FEFF 		bl	port_lock
 103              		.loc 1 352 0
 104 0006 C046     		nop
 105              		@ sp needed
 106 0008 10BD     		pop	{r4, pc}
 107              		.cfi_endproc
 108              	.LFE40:
 109              		.size	port_lock_from_isr, .-port_lock_from_isr
 110 000a C046     		.section	.text.port_unlock_from_isr,"ax",%progbits
 111              		.align	1
 112              		.p2align 4,,15
 113              		.syntax unified
 114              		.code	16
ARM GAS  /tmp/ccDUvqkW.s 			page 3


 115              		.thumb_func
 116              		.fpu softvfp
 117              		.type	port_unlock_from_isr, %function
 118              	port_unlock_from_isr:
 119              	.LFB41:
 120              		.loc 1 359 0
 121              		.cfi_startproc
 122              		@ args = 0, pretend = 0, frame = 0
 123              		@ frame_needed = 0, uses_anonymous_args = 0
 124 0000 10B5     		push	{r4, lr}
 125              		.cfi_def_cfa_offset 8
 126              		.cfi_offset 4, -8
 127              		.cfi_offset 14, -4
 128              		.loc 1 361 0
 129 0002 FFF7FEFF 		bl	port_unlock
 130              		.loc 1 362 0
 131 0006 C046     		nop
 132              		@ sp needed
 133 0008 10BD     		pop	{r4, pc}
 134              		.cfi_endproc
 135              	.LFE41:
 136              		.size	port_unlock_from_isr, .-port_unlock_from_isr
 137 000a C046     		.section	.text.chSysLockFromISR,"ax",%progbits
 138              		.align	1
 139              		.p2align 4,,15
 140              		.syntax unified
 141              		.code	16
 142              		.thumb_func
 143              		.fpu softvfp
 144              		.type	chSysLockFromISR, %function
 145              	chSysLockFromISR:
 146              	.LFB79:
 147              		.file 3 "ChibiOS/os/rt/include/chsys.h"
 148              		.loc 3 386 0
 149              		.cfi_startproc
 150              		@ args = 0, pretend = 0, frame = 0
 151              		@ frame_needed = 0, uses_anonymous_args = 0
 152 0000 10B5     		push	{r4, lr}
 153              		.cfi_def_cfa_offset 8
 154              		.cfi_offset 4, -8
 155              		.cfi_offset 14, -4
 156              		.loc 3 388 0
 157 0002 FFF7FEFF 		bl	port_lock_from_isr
 158              		.loc 3 390 0
 159 0006 FFF7FEFF 		bl	_dbg_check_lock_from_isr
 160              		.loc 3 391 0
 161 000a C046     		nop
 162              		@ sp needed
 163 000c 10BD     		pop	{r4, pc}
 164              		.cfi_endproc
 165              	.LFE79:
 166              		.size	chSysLockFromISR, .-chSysLockFromISR
 167 000e C046     		.section	.text.chSysUnlockFromISR,"ax",%progbits
 168              		.align	1
 169              		.p2align 4,,15
 170              		.syntax unified
 171              		.code	16
ARM GAS  /tmp/ccDUvqkW.s 			page 4


 172              		.thumb_func
 173              		.fpu softvfp
 174              		.type	chSysUnlockFromISR, %function
 175              	chSysUnlockFromISR:
 176              	.LFB80:
 177              		.loc 3 406 0
 178              		.cfi_startproc
 179              		@ args = 0, pretend = 0, frame = 0
 180              		@ frame_needed = 0, uses_anonymous_args = 0
 181 0000 10B5     		push	{r4, lr}
 182              		.cfi_def_cfa_offset 8
 183              		.cfi_offset 4, -8
 184              		.cfi_offset 14, -4
 185              		.loc 3 408 0
 186 0002 FFF7FEFF 		bl	_dbg_check_unlock_from_isr
 187              		.loc 3 410 0
 188 0006 FFF7FEFF 		bl	port_unlock_from_isr
 189              		.loc 3 411 0
 190 000a C046     		nop
 191              		@ sp needed
 192 000c 10BD     		pop	{r4, pc}
 193              		.cfi_endproc
 194              	.LFE80:
 195              		.size	chSysUnlockFromISR, .-chSysUnlockFromISR
 196 000e C046     		.section	.text.osalSysLockFromISR,"ax",%progbits
 197              		.align	1
 198              		.p2align 4,,15
 199              		.syntax unified
 200              		.code	16
 201              		.thumb_func
 202              		.fpu softvfp
 203              		.type	osalSysLockFromISR, %function
 204              	osalSysLockFromISR:
 205              	.LFB158:
 206              		.file 4 "ChibiOS/os/hal/osal/rt/osal.h"
 207              		.loc 4 513 0
 208              		.cfi_startproc
 209              		@ args = 0, pretend = 0, frame = 0
 210              		@ frame_needed = 0, uses_anonymous_args = 0
 211 0000 10B5     		push	{r4, lr}
 212              		.cfi_def_cfa_offset 8
 213              		.cfi_offset 4, -8
 214              		.cfi_offset 14, -4
 215              		.loc 4 515 0
 216 0002 FFF7FEFF 		bl	chSysLockFromISR
 217              		.loc 4 516 0
 218 0006 C046     		nop
 219              		@ sp needed
 220 0008 10BD     		pop	{r4, pc}
 221              		.cfi_endproc
 222              	.LFE158:
 223              		.size	osalSysLockFromISR, .-osalSysLockFromISR
 224 000a C046     		.section	.text.osalSysUnlockFromISR,"ax",%progbits
 225              		.align	1
 226              		.p2align 4,,15
 227              		.syntax unified
 228              		.code	16
ARM GAS  /tmp/ccDUvqkW.s 			page 5


 229              		.thumb_func
 230              		.fpu softvfp
 231              		.type	osalSysUnlockFromISR, %function
 232              	osalSysUnlockFromISR:
 233              	.LFB159:
 234              		.loc 4 524 0
 235              		.cfi_startproc
 236              		@ args = 0, pretend = 0, frame = 0
 237              		@ frame_needed = 0, uses_anonymous_args = 0
 238 0000 10B5     		push	{r4, lr}
 239              		.cfi_def_cfa_offset 8
 240              		.cfi_offset 4, -8
 241              		.cfi_offset 14, -4
 242              		.loc 4 526 0
 243 0002 FFF7FEFF 		bl	chSysUnlockFromISR
 244              		.loc 4 527 0
 245 0006 C046     		nop
 246              		@ sp needed
 247 0008 10BD     		pop	{r4, pc}
 248              		.cfi_endproc
 249              	.LFE159:
 250              		.size	osalSysUnlockFromISR, .-osalSysUnlockFromISR
 251 000a C046     		.section	.text.osalOsTimerHandlerI,"ax",%progbits
 252              		.align	1
 253              		.p2align 4,,15
 254              		.syntax unified
 255              		.code	16
 256              		.thumb_func
 257              		.fpu softvfp
 258              		.type	osalOsTimerHandlerI, %function
 259              	osalOsTimerHandlerI:
 260              	.LFB162:
 261              		.loc 4 583 0
 262              		.cfi_startproc
 263              		@ args = 0, pretend = 0, frame = 0
 264              		@ frame_needed = 0, uses_anonymous_args = 0
 265 0000 10B5     		push	{r4, lr}
 266              		.cfi_def_cfa_offset 8
 267              		.cfi_offset 4, -8
 268              		.cfi_offset 14, -4
 269              		.loc 4 585 0
 270 0002 FFF7FEFF 		bl	chSysTimerHandlerI
 271              		.loc 4 586 0
 272 0006 C046     		nop
 273              		@ sp needed
 274 0008 10BD     		pop	{r4, pc}
 275              		.cfi_endproc
 276              	.LFE162:
 277              		.size	osalOsTimerHandlerI, .-osalOsTimerHandlerI
 278 000a C046     		.section	.text.Vector80,"ax",%progbits
 279              		.align	1
 280              		.p2align 4,,15
 281              		.global	Vector80
 282              		.syntax unified
 283              		.code	16
 284              		.thumb_func
 285              		.fpu softvfp
ARM GAS  /tmp/ccDUvqkW.s 			page 6


 286              		.type	Vector80, %function
 287              	Vector80:
 288              	.LFB182:
 289              		.file 5 "ChibiOS/os/hal/ports/STM32/LLD/TIMv1/st_lld.c"
 290              		.loc 5 239 0
 291              		.cfi_startproc
 292              		@ args = 0, pretend = 0, frame = 8
 293              		@ frame_needed = 0, uses_anonymous_args = 0
 294 0000 00B5     		push	{lr}
 295              		.cfi_def_cfa_offset 4
 296              		.cfi_offset 14, -4
 297 0002 83B0     		sub	sp, sp, #12
 298              		.cfi_def_cfa_offset 16
 299 0004 7346     		mov	r3, lr
 300              		.loc 5 241 0
 301 0006 0193     		str	r3, [sp, #4]
 302 0008 FFF7FEFF 		bl	_dbg_check_enter_isr
 303              		.loc 5 246 0
 304 000c 0B4B     		ldr	r3, .L12
 305 000e 1B69     		ldr	r3, [r3, #16]
 306 0010 0222     		movs	r2, #2
 307 0012 1340     		ands	r3, r2
 308 0014 08D0     		beq	.L11
 309              		.loc 5 247 0
 310 0016 094B     		ldr	r3, .L12
 311 0018 0022     		movs	r2, #0
 312 001a 1A61     		str	r2, [r3, #16]
 313              		.loc 5 249 0
 314 001c FFF7FEFF 		bl	osalSysLockFromISR
 315              		.loc 5 250 0
 316 0020 FFF7FEFF 		bl	osalOsTimerHandlerI
 317              		.loc 5 251 0
 318 0024 FFF7FEFF 		bl	osalSysUnlockFromISR
 319              	.L11:
 320              		.loc 5 254 0
 321 0028 FFF7FEFF 		bl	_dbg_check_leave_isr
 322 002c 019B     		ldr	r3, [sp, #4]
 323 002e 1800     		movs	r0, r3
 324 0030 FFF7FEFF 		bl	_port_irq_epilogue
 325              		.loc 5 255 0
 326 0034 C046     		nop
 327 0036 03B0     		add	sp, sp, #12
 328              		@ sp needed
 329 0038 00BD     		pop	{pc}
 330              	.L13:
 331 003a C046     		.align	2
 332              	.L12:
 333 003c 00040040 		.word	1073742848
 334              		.cfi_endproc
 335              	.LFE182:
 336              		.size	Vector80, .-Vector80
 337              		.section	.text.st_lld_init,"ax",%progbits
 338              		.align	1
 339              		.p2align 4,,15
 340              		.global	st_lld_init
 341              		.syntax unified
 342              		.code	16
ARM GAS  /tmp/ccDUvqkW.s 			page 7


 343              		.thumb_func
 344              		.fpu softvfp
 345              		.type	st_lld_init, %function
 346              	st_lld_init:
 347              	.LFB183:
 348              		.loc 5 267 0
 349              		.cfi_startproc
 350              		@ args = 0, pretend = 0, frame = 0
 351              		@ frame_needed = 0, uses_anonymous_args = 0
 352 0000 10B5     		push	{r4, lr}
 353              		.cfi_def_cfa_offset 8
 354              		.cfi_offset 4, -8
 355              		.cfi_offset 14, -4
 356              		.loc 5 273 0
 357 0002 154B     		ldr	r3, .L15
 358 0004 144A     		ldr	r2, .L15
 359 0006 D269     		ldr	r2, [r2, #28]
 360 0008 0221     		movs	r1, #2
 361 000a 0A43     		orrs	r2, r1
 362 000c DA61     		str	r2, [r3, #28]
 363              		.loc 5 276 0
 364 000e 134B     		ldr	r3, .L15+4
 365 0010 124A     		ldr	r2, .L15+4
 366 0012 9268     		ldr	r2, [r2, #8]
 367 0014 0221     		movs	r1, #2
 368 0016 0A43     		orrs	r2, r1
 369 0018 9A60     		str	r2, [r3, #8]
 370              		.loc 5 279 0
 371 001a 114B     		ldr	r3, .L15+8
 372 001c 114A     		ldr	r2, .L15+12
 373 001e 9A62     		str	r2, [r3, #40]
 374              		.loc 5 280 0
 375 0020 0F4B     		ldr	r3, .L15+8
 376 0022 114A     		ldr	r2, .L15+16
 377 0024 DA62     		str	r2, [r3, #44]
 378              		.loc 5 281 0
 379 0026 0E4B     		ldr	r3, .L15+8
 380 0028 0022     		movs	r2, #0
 381 002a 9A61     		str	r2, [r3, #24]
 382              		.loc 5 282 0
 383 002c 0C4B     		ldr	r3, .L15+8
 384 002e 0022     		movs	r2, #0
 385 0030 5A63     		str	r2, [r3, #52]
 386              		.loc 5 283 0
 387 0032 0B4B     		ldr	r3, .L15+8
 388 0034 0022     		movs	r2, #0
 389 0036 DA60     		str	r2, [r3, #12]
 390              		.loc 5 284 0
 391 0038 094B     		ldr	r3, .L15+8
 392 003a 0022     		movs	r2, #0
 393 003c 5A60     		str	r2, [r3, #4]
 394              		.loc 5 285 0
 395 003e 084B     		ldr	r3, .L15+8
 396 0040 0122     		movs	r2, #1
 397 0042 5A61     		str	r2, [r3, #20]
 398              		.loc 5 286 0
 399 0044 064B     		ldr	r3, .L15+8
ARM GAS  /tmp/ccDUvqkW.s 			page 8


 400 0046 0122     		movs	r2, #1
 401 0048 1A60     		str	r2, [r3]
 402              		.loc 5 289 0
 403 004a 0821     		movs	r1, #8
 404 004c 1020     		movs	r0, #16
 405 004e FFF7FEFF 		bl	nvicEnableVector
 406              		.loc 5 304 0
 407 0052 C046     		nop
 408              		@ sp needed
 409 0054 10BD     		pop	{r4, pc}
 410              	.L16:
 411 0056 C046     		.align	2
 412              	.L15:
 413 0058 00100240 		.word	1073876992
 414 005c 00580140 		.word	1073829888
 415 0060 00040040 		.word	1073742848
 416 0064 BF120000 		.word	4799
 417 0068 FFFF0000 		.word	65535
 418              		.cfi_endproc
 419              	.LFE183:
 420              		.size	st_lld_init, .-st_lld_init
 421              		.text
 422              	.Letext0:
 423              		.file 6 "/home/felix/opt/gcc-arm-none-eabi-6-2017-q1-update/lib/gcc/arm-none-eabi/6.3.1/include/st
 424              		.file 7 "/home/felix/opt/gcc-arm-none-eabi-6-2017-q1-update/arm-none-eabi/include/machine/_default
 425              		.file 8 "/home/felix/opt/gcc-arm-none-eabi-6-2017-q1-update/arm-none-eabi/include/sys/_stdint.h"
 426              		.file 9 "ChibiOS/os/rt/ports/ARMCMx/compilers/GCC/chtypes.h"
 427              		.file 10 "ChibiOS/os/rt/include/chsystypes.h"
 428              		.file 11 "ChibiOS/os/rt/include/chschd.h"
 429              		.file 12 "ChibiOS/os/ext/CMSIS/ST/STM32F0xx/stm32f030xc.h"
 430              		.file 13 "ChibiOS/os/rt/ports/ARMCMx/chcore.h"
 431              		.file 14 "ChibiOS/os/hal/ports/STM32/LLD/TIMv1/stm32_tim.h"
 432              		.file 15 "ChibiOS/os/rt/include/chdebug.h"
 433              		.file 16 "ChibiOS/os/rt/include/chsem.h"
 434              		.file 17 "ChibiOS/os/rt/include/chmtx.h"
 435              		.file 18 "ChibiOS/os/rt/include/chregistry.h"
 436              		.file 19 "ChibiOS/os/ext/CMSIS/ST/STM32F0xx/system_stm32f0xx.h"
 437              		.file 20 "ChibiOS/os/rt/include/chevents.h"
 438              		.file 21 "ChibiOS/os/rt/include/chqueues.h"
 439              		.file 22 "ChibiOS/os/hal/ports/STM32/LLD/DMAv1/stm32_dma.h"
 440              		.file 23 "ChibiOS/os/hal/ports/STM32/LLD/GPIOv2/pal_lld.h"
 441              		.file 24 "ChibiOS/os/hal/include/serial.h"
 442              		.file 25 "ChibiOS/os/hal/ports/STM32/LLD/USARTv2/serial_lld.h"