ARM GAS  /tmp/ccDUvqkW.s 			page 1


   1              		.cpu cortex-m0
   2              		.eabi_attribute 20, 1
   3              		.eabi_attribute 21, 1
   4              		.eabi_attribute 23, 3
   5              		.eabi_attribute 24, 1
   6              		.eabi_attribute 25, 1
   7              		.eabi_attribute 26, 1
   8              		.eabi_attribute 30, 6
   9              		.eabi_attribute 34, 0
  10              		.eabi_attribute 18, 4
  11              		.file	"st_lld.c"
  12              		.text
  13              	.Ltext0:
  14              		.cfi_sections	.debug_frame
  15              		.section	.text.port_lock,"ax",%progbits
  16              		.align	1
  17              		.p2align 4,,15
  18              		.syntax unified
  19              		.code	16
  20              		.thumb_func
  21              		.fpu softvfp
  22              		.type	port_lock, %function
  23              	port_lock:
  24              	.LFB38:
  25              		.file 1 "ChibiOS/os/rt/ports/ARMCMx/chcore_v6m.h"
  26              		.loc 1 330 0
  27              		.cfi_startproc
  28              		@ args = 0, pretend = 0, frame = 0
  29              		@ frame_needed = 0, uses_anonymous_args = 0
  30              		@ link register save eliminated.
  31              	.LBB6:
  32              	.LBB7:
  33              		.file 2 "ChibiOS/os/ext/CMSIS/include/core_cmFunc.h"
  34              		.loc 2 344 0
  35              		.syntax divided
  36              	@ 344 "ChibiOS/os/ext/CMSIS/include/core_cmFunc.h" 1
  37 0000 72B6     		cpsid i
  38              	@ 0 "" 2
  39              		.thumb
  40              		.syntax unified
  41              	.LBE7:
  42              	.LBE6:
  43              		.loc 1 333 0
  44 0002 C046     		nop
  45              		@ sp needed
  46 0004 7047     		bx	lr
  47              		.cfi_endproc
  48              	.LFE38:
  49              		.size	port_lock, .-port_lock
  50 0006 C046     		.section	.text.port_unlock,"ax",%progbits
  51              		.align	1
  52              		.p2align 4,,15
  53              		.syntax unified
  54              		.code	16
  55              		.thumb_func
  56              		.fpu softvfp
  57              		.type	port_unlock, %function
ARM GAS  /tmp/ccDUvqkW.s 			page 2


  58              	port_unlock:
  59              	.LFB39:
  60              		.loc 1 339 0
  61              		.cfi_startproc
  62              		@ args = 0, pretend = 0, frame = 0
  63              		@ frame_needed = 0, uses_anonymous_args = 0
  64              		@ link register save eliminated.
  65              	.LBB8:
  66              	.LBB9:
  67              		.loc 2 333 0
  68              		.syntax divided
  69              	@ 333 "ChibiOS/os/ext/CMSIS/include/core_cmFunc.h" 1
  70 0000 62B6     		cpsie i
  71              	@ 0 "" 2
  72              		.thumb
  73              		.syntax unified
  74              	.LBE9:
  75              	.LBE8:
  76              		.loc 1 342 0
  77 0002 C046     		nop
  78              		@ sp needed
  79 0004 7047     		bx	lr
  80              		.cfi_endproc
  81              	.LFE39:
  82              		.size	port_unlock, .-port_unlock
  83 0006 C046     		.section	.text.port_lock_from_isr,"ax",%progbits
  84              		.align	1
  85              		.p2align 4,,15
  86              		.syntax unified
  87              		.code	16
  88              		.thumb_func
  89              		.fpu softvfp
  90              		.type	port_lock_from_isr, %function
  91              	port_lock_from_isr:
  92              	.LFB40:
  93              		.loc 1 349 0
  94              		.cfi_startproc
  95              		@ args = 0, pretend = 0, frame = 0
  96              		@ frame_needed = 0, uses_anonymous_args = 0
  97 0000 10B5     		push	{r4, lr}
  98              		.cfi_def_cfa_offset 8
  99              		.cfi_offset 4, -8
 100              		.cfi_offset 14, -4
 101              		.loc 1 351 0
 102 0002 FFF7FEFF 		bl	port_lock
 103              		.loc 1 352 0
 104 0006 C046     		nop
 105              		@ sp needed
 106 0008 10BD     		pop	{r4, pc}
 107              		.cfi_endproc
 108              	.LFE40:
 109              		.size	port_lock_from_isr, .-port_lock_from_isr
 110 000a C046     		.section	.text.port_unlock_from_isr,"ax",%progbits
 111              		.align	1
 112              		.p2align 4,,15
 113              		.syntax unified
 114              		.code	16
ARM GAS  /tmp/ccDUvqkW.s 			page 3


 115              		.thumb_func
 116              		.fpu softvfp
 117              		.type	port_unlock_from_isr, %function
 118              	port_unlock_from_isr:
 119              	.LFB41:
 120              		.loc 1 359 0
 121              		.cfi_startproc
 122              		@ args = 0, pretend = 0, frame = 0
 123              		@ frame_needed = 0, uses_anonymous_args = 0
 124 0000 10B5     		push	{r4, lr}
 125              		.cfi_def_cfa_offset 8
 126              		.cfi_offset 4, -8
 127              		.cfi_offset 14, -4
 128              		.loc 1 361 0
 129 0002 FFF7FEFF 		bl	port_unlock
 130              		.loc 1 362 0
 131 0006 C046     		nop
 132              		@ sp needed
 133 0008 10BD     		pop	{r4, pc}
 134              		.cfi_endproc
 135              	.LFE41:
 136              		.size	port_unlock_from_isr, .-port_unlock_from_isr
 137 000a C046     		.section	.text.chSysLockFromISR,"ax",%progbits
 138              		.align	1
 139              		.p2align 4,,15
 140              		.syntax unified
 141              		.code	16
 142              		.thumb_func
 143              		.fpu softvfp
 144              		.type	chSysLockFromISR, %function
 145              	chSysLockFromISR:
 146              	.LFB79:
 147              		.file 3 "ChibiOS/os/rt/include/chsys.h"
 148              		.loc 3 386 0
 149              		.cfi_startproc
 150              		@ args = 0, pretend = 0, frame = 0
 151              		@ frame_needed = 0, uses_anonymous_args = 0
 152 0000 10B5     		push	{r4, lr}
 153              		.cfi_def_cfa_offset 8
 154              		.cfi_offset 4, -8
 155              		.cfi_offset 14, -4
 156              		.loc 3 388 0
 157 0002 FFF7FEFF 		bl	port_lock_from_isr
 158              		.loc 3 390 0
 159 0006 FFF7FEFF 		bl	_dbg_check_lock_from_isr
 160              		.loc 3 391 0
 161 000a C046     		nop
 162              		@ sp needed
 163 000c 10BD     		pop	{r4, pc}
 164              		.cfi_endproc
 165              	.LFE79:
 166              		.size	chSysLockFromISR, .-chSysLockFromISR
 167 000e C046     		.section	.text.chSysUnlockFromISR,"ax",%progbits
 168              		.align	1
 169              		.p2align 4,,15
 170              		.syntax unified
 171              		.code	16
ARM GAS  /tmp/ccDUvqkW.s 			page 4


 172              		.thumb_func
 173              		.fpu softvfp
 174              		.type	chSysUnlockFromISR, %function
 175              	chSysUnlockFromISR:
 176              	.LFB80:
 177              		.loc 3 406 0
 178              		.cfi_startproc
 179              		@ args = 0, pretend = 0, frame = 0
 180              		@ frame_needed = 0, uses_anonymous_args = 0
 181 0000 10B5     		push	{r4, lr}
 182              		.cfi_def_cfa_offset 8
 183              		.cfi_offset 4, -8
 184              		.cfi_offset 14, -4
 185              		.loc 3 408 0
 186 0002 FFF7FEFF 		bl	_dbg_check_unlock_from_isr
 187              		.loc 3 410 0
 188 0006 FFF7FEFF 		bl	port_unlock_from_isr
 189              		.loc 3 411 0
 190 000a C046     		nop
 191              		@ sp needed
 192 000c 10BD     		pop	{r4, pc}
 193              		.cfi_endproc
 194              	.LFE80:
 195              		.size	chSysUnlockFromISR, .-chSysUnlockFromISR
 196 000e C046     		.section	.text.osalSysLockFromISR,"ax",%progbits
 197              		.align	1
 198              		.p2align 4,,15
 199              		.syntax unified
 200              		.code	16
 201              		.thumb_func
 202              		.fpu softvfp
 203              		.type	osalSysLockFromISR, %function
 204              	osalSysLockFromISR:
 205              	.LFB158:
 206              		.file 4 "ChibiOS/os/hal/osal/rt/osal.h"
 207              		.loc 4 513 0
 208              		.cfi_startproc
 209              		@ args = 0, pretend = 0, frame = 0
 210              		@ frame_needed = 0, uses_anonymous_args = 0
 211 0000 10B5     		push	{r4, lr}
 212              		.cfi_def_cfa_offset 8
 213              		.cfi_offset 4, -8
 214              		.cfi_offset 14, -4
 215              		.loc 4 515 0
 216 0002 FFF7FEFF 		bl	chSysLockFromISR
 217              		.loc 4 516 0
 218 0006 C046     		nop
 219              		@ sp needed
 220 0008 10BD     		pop	{r4, pc}
 221              		.cfi_endproc
 222              	.LFE158:
 223              		.size	osalSysLockFromISR, .-osalSysLockFromISR
 224 000a C046     		.section	.text.osalSysUnlockFromISR,"ax",%progbits
 225              		.align	1
 226              		.p2align 4,,15
 227              		.syntax unified
 228              		.code	16
ARM GAS  /tmp/ccDUvqkW.s 			page 5


 229              		.thumb_func
 230              		.fpu softvfp
 231              		.type	osalSysUnlockFromISR, %function
 232              	osalSysUnlockFromISR:
 233              	.LFB159:
 234              		.loc 4 524 0
 235              		.cfi_startproc
 236              		@ args = 0, pretend = 0, frame = 0
 237              		@ frame_needed = 0, uses_anonymous_args = 0
 238 0000 10B5     		push	{r4, lr}
 239              		.cfi_def_cfa_offset 8
 240              		.cfi_offset 4, -8
 241              		.cfi_offset 14, -4
 242              		.loc 4 526 0
 243 0002 FFF7FEFF 		bl	chSysUnlockFromISR
 244              		.loc 4 527 0
 245 0006 C046     		nop
 246              		@ sp needed
 247 0008 10BD     		pop	{r4, pc}
 248              		.cfi_endproc
 249              	.LFE159:
 250              		.size	osalSysUnlockFromISR, .-osalSysUnlockFromISR
 251 000a C046     		.section	.text.osalOsTimerHandlerI,"ax",%progbits
 252              		.align	1
 253              		.p2align 4,,15
 254              		.syntax unified
 255              		.code	16
 256              		.thumb_func
 257              		.fpu softvfp
 258              		.type	osalOsTimerHandlerI, %function
 259              	osalOsTimerHandlerI:
 260              	.LFB162:
 261              		.loc 4 583 0
 262              		.cfi_startproc
 263              		@ args = 0, pretend = 0, frame = 0
 264              		@ frame_needed = 0, uses_anonymous_args = 0
 265 0000 10B5     		push	{r4, lr}
 266              		.cfi_def_cfa_offset 8
 267              		.cfi_offset 4, -8
 268              		.cfi_offset 14, -4
 269              		.loc 4 585 0
 270 0002 FFF7FEFF 		bl	chSysTimerHandlerI
 271              		.loc 4 586 0
 272 0006 C046     		nop
 273              		@ sp needed
 274 0008 10BD     		pop	{r4, pc}
 275              		.cfi_endproc
 276              	.LFE162:
 277              		.size	osalOsTimerHandlerI, .-osalOsTimerHandlerI
 278 000a C046     		.section	.text.Vector80,"ax",%progbits
 279              		.align	1
 280              		.p2align 4,,15
 281              		.global	Vector80
 282              		.syntax unified
 283              		.code	16
 284              		.thumb_func
 285              		.fpu softvfp
ARM GAS  /tmp/ccDUvqkW.s 			page 6


 286              		.type	Vector80, %function
 287              	Vector80:
 288              	.LFB182:
 289              		.file 5 "ChibiOS/os/hal/ports/STM32/LLD/TIMv1/st_lld.c"
 290              		.loc 5 239 0
 291              		.cfi_startproc
 292              		@ args = 0, pretend = 0, frame = 8
 293              		@ frame_needed = 0, uses_anonymous_args = 0
 294 0000 00B5     		push	{lr}
 295              		.cfi_def_cfa_offset 4
 296              		.cfi_offset 14, -4
 297 0002 83B0     		sub	sp, sp, #12
 298              		.cfi_def_cfa_offset 16
 299 0004 7346     		mov	r3, lr
 300              		.loc 5 241 0
 301 0006 0193     		str	r3, [sp, #4]
 302 0008 FFF7FEFF 		bl	_dbg_check_enter_isr
 303              		.loc 5 246 0
 304 000c 0B4B     		ldr	r3, .L12
 305 000e 1B69     		ldr	r3, [r3, #16]
 306 0010 0222     		movs	r2, #2
 307 0012 1340     		ands	r3, r2
 308 0014 08D0     		beq	.L11
 309              		.loc 5 247 0
 310 0016 094B     		ldr	r3, .L12
 311 0018 0022     		movs	r2, #0
 312 001a 1A61     		str	r2, [r3, #16]
 313              		.loc 5 249 0
 314 001c FFF7FEFF 		bl	osalSysLockFromISR
 315              		.loc 5 250 0
 316 0020 FFF7FEFF 		bl	osalOsTimerHandlerI
 317              		.loc 5 251 0
 318 0024 FFF7FEFF 		bl	osalSysUnlockFromISR
 319              	.L11:
 320              		.loc 5 254 0
 321 0028 FFF7FEFF 		bl	_dbg_check_leave_isr
 322 002c 019B     		ldr	r3, [sp, #4]
 323 002e 1800     		movs	r0, r3
 324 0030 FFF7FEFF 		bl	_port_irq_epilogue
 325              		.loc 5 255 0
 326 0034 C046     		nop
 327 0036 03B0     		add	sp, sp, #12
 328              		@ sp needed
 329 0038 00BD     		pop	{pc}
 330              	.L13:
 331 003a C046     		.align	2
 332              	.L12:
 333 003c 00040040 		.word	1073742848
 334              		.cfi_endproc
 335              	.LFE182:
 336              		.size	Vector80, .-Vector80
 337              		.section	.text.st_lld_init,"ax",%progbits
 338              		.align	1
 339              		.p2align 4,,15
 340              		.global	st_lld_init
 341              		.syntax unified
 342              		.code	16
ARM GAS  /tmp/ccDUvqkW.s 			page 7


 343              		.thumb_func
 344              		.fpu softvfp
 345              		.type	st_lld_init, %function
 346              	st_lld_init:
 347              	.LFB183:
 348              		.loc 5 267 0
 349              		.cfi_startproc
 350              		@ args = 0, pretend = 0, frame = 0
 351              		@ frame_needed = 0, uses_anonymous_args = 0
 352 0000 10B5     		push	{r4, lr}
 353              		.cfi_def_cfa_offset 8
 354              		.cfi_offset 4, -8
 355              		.cfi_offset 14, -4
 356              		.loc 5 273 0
 357 0002 154B     		ldr	r3, .L15
 358 0004 144A     		ldr	r2, .L15
 359 0006 D269     		ldr	r2, [r2, #28]
 360 0008 0221     		movs	r1, #2
 361 000a 0A43     		orrs	r2, r1
 362 000c DA61     		str	r2, [r3, #28]
 363              		.loc 5 276 0
 364 000e 134B     		ldr	r3, .L15+4
 365 0010 124A     		ldr	r2, .L15+4
 366 0012 9268     		ldr	r2, [r2, #8]
 367 0014 0221     		movs	r1, #2
 368 0016 0A43     		orrs	r2, r1
 369 0018 9A60     		str	r2, [r3, #8]
 370              		.loc 5 279 0
 371 001a 114B     		ldr	r3, .L15+8
 372 001c 114A     		ldr	r2, .L15+12
 373 001e 9A62     		str	r2, [r3, #40]
 374              		.loc 5 280 0
 375 0020 0F4B     		ldr	r3, .L15+8
 376 0022 114A     		ldr	r2, .L15+16
 377 0024 DA62     		str	r2, [r3, #44]
 378              		.loc 5 281 0
 379 0026 0E4B     		ldr	r3, .L15+8
 380 0028 0022     		movs	r2, #0
 381 002a 9A61     		str	r2, [r3, #24]
 382              		.loc 5 282 0
 383 002c 0C4B     		ldr	r3, .L15+8
 384 002e 0022     		movs	r2, #0
 385 0030 5A63     		str	r2, [r3, #52]
 386              		.loc 5 283 0
 387 0032 0B4B     		ldr	r3, .L15+8
 388 0034 0022     		movs	r2, #0
 389 0036 DA60     		str	r2, [r3, #12]
 390              		.loc 5 284 0
 391 0038 094B     		ldr	r3, .L15+8
 392 003a 0022     		movs	r2, #0
 393 003c 5A60     		str	r2, [r3, #4]
 394              		.loc 5 285 0
 395 003e 084B     		ldr	r3, .L15+8
 396 0040 0122     		movs	r2, #1
 397 0042 5A61     		str	r2, [r3, #20]
 398              		.loc 5 286 0
 399 0044 064B     		ldr	r3, .L15+8
ARM GAS  /tmp/ccDUvqkW.s 			page 8


 400 0046 0122     		movs	r2, #1
 401 0048 1A60     		str	r2, [r3]
 402              		.loc 5 289 0
 403 004a 0821     		movs	r1, #8
 404 004c 1020     		movs	r0, #16
 405 004e FFF7FEFF 		bl	nvicEnableVector
 406              		.loc 5 304 0
 407 0052 C046     		nop
 408              		@ sp needed
 409 0054 10BD     		pop	{r4, pc}
 410              	.L16:
 411 0056 C046     		.align	2
 412              	.L15:
 413 0058 00100240 		.word	1073876992
 414 005c 00580140 		.word	1073829888
 415 0060 00040040 		.word	1073742848
 416 0064 BF120000 		.word	4799
 417 0068 FFFF0000 		.word	65535
 418              		.cfi_endproc
 419              	.LFE183:
 420              		.size	st_lld_init, .-st_lld_init
 421              		.text
 422              	.Letext0:
 423              		.file 6 "/home/felix/opt/gcc-arm-none-eabi-6-2017-q1-update/lib/gcc/arm-none-eabi/6.3.1/include/st
 424              		.file 7 "/home/felix/opt/gcc-arm-none-eabi-6-2017-q1-update/arm-none-eabi/include/machine/_default
 425              		.file 8 "/home/felix/opt/gcc-arm-none-eabi-6-2017-q1-update/arm-none-eabi/include/sys/_stdint.h"
 426              		.file 9 "ChibiOS/os/rt/ports/ARMCMx/compilers/GCC/chtypes.h"
 427              		.file 10 "ChibiOS/os/rt/include/chsystypes.h"
 428              		.file 11 "ChibiOS/os/rt/include/chschd.h"
 429              		.file 12 "ChibiOS/os/ext/CMSIS/ST/STM32F0xx/stm32f030xc.h"
 430              		.file 13 "ChibiOS/os/rt/ports/ARMCMx/chcore.h"
 431              		.file 14 "ChibiOS/os/hal/ports/STM32/LLD/TIMv1/stm32_tim.h"
 432              		.file 15 "ChibiOS/os/rt/include/chdebug.h"
 433              		.file 16 "ChibiOS/os/rt/include/chsem.h"
 434              		.file 17 "ChibiOS/os/rt/include/chmtx.h"
 435              		.file 18 "ChibiOS/os/rt/include/chregistry.h"
 436              		.file 19 "ChibiOS/os/ext/CMSIS/ST/STM32F0xx/system_stm32f0xx.h"
 437              		.file 20 "ChibiOS/os/rt/include/chevents.h"
 438              		.file 21 "ChibiOS/os/rt/include/chqueues.h"
 439              		.file 22 "ChibiOS/os/hal/ports/STM32/LLD/DMAv1/stm32_dma.h"
 440              		.file 23 "ChibiOS/os/hal/ports/STM32/LLD/GPIOv2/pal_lld.h"
 441              		.file 24 "ChibiOS/os/hal/include/serial.h"
 442              		.file 25 "ChibiOS/os/hal/ports/STM32/LLD/USARTv2/serial_lld.h"
 443              		.section	.debug_info,"",%progbits
 444              	.Ldebug_info0:
 445 0000 19120000 		.4byte	0x1219
 446 0004 0400     		.2byte	0x4
 447 0006 00000000 		.4byte	.Ldebug_abbrev0
 448 000a 04       		.byte	0x4
 449 000b 01       		.uleb128 0x1
 450 000c 10040000 		.4byte	.LASF254
 451 0010 0C       		.byte	0xc
 452 0011 0D020000 		.4byte	.LASF255
 453 0015 7C050000 		.4byte	.LASF256
 454 0019 00000000 		.4byte	.Ldebug_ranges0+0
 455 001d 00000000 		.4byte	0
 456 0021 00000000 		.4byte	.Ldebug_line0
ARM GAS  /tmp/ccDUvqkW.s 			page 9


 457 0025 02       		.uleb128 0x2
 458 0026 04       		.byte	0x4
 459 0027 05       		.byte	0x5
 460 0028 696E7400 		.ascii	"int\000"
 461 002c 03       		.uleb128 0x3
 462 002d AD030000 		.4byte	.LASF4
 463 0031 06       		.byte	0x6
 464 0032 D8       		.byte	0xd8
 465 0033 3C000000 		.4byte	0x3c
 466 0037 04       		.uleb128 0x4
 467 0038 2C000000 		.4byte	0x2c
 468 003c 05       		.uleb128 0x5
 469 003d 04       		.byte	0x4
 470 003e 07       		.byte	0x7
 471 003f DF000000 		.4byte	.LASF0
 472 0043 05       		.uleb128 0x5
 473 0044 08       		.byte	0x8
 474 0045 05       		.byte	0x5
 475 0046 87060000 		.4byte	.LASF1
 476 004a 05       		.uleb128 0x5
 477 004b 08       		.byte	0x8
 478 004c 04       		.byte	0x4
 479 004d 9F070000 		.4byte	.LASF2
 480 0051 05       		.uleb128 0x5
 481 0052 01       		.byte	0x1
 482 0053 06       		.byte	0x6
 483 0054 620A0000 		.4byte	.LASF3
 484 0058 03       		.uleb128 0x3
 485 0059 E3080000 		.4byte	.LASF5
 486 005d 07       		.byte	0x7
 487 005e 2B       		.byte	0x2b
 488 005f 63000000 		.4byte	0x63
 489 0063 05       		.uleb128 0x5
 490 0064 01       		.byte	0x1
 491 0065 08       		.byte	0x8
 492 0066 BF090000 		.4byte	.LASF6
 493 006a 05       		.uleb128 0x5
 494 006b 02       		.byte	0x2
 495 006c 05       		.byte	0x5
 496 006d 0E080000 		.4byte	.LASF7
 497 0071 03       		.uleb128 0x3
 498 0072 1F030000 		.4byte	.LASF8
 499 0076 07       		.byte	0x7
 500 0077 39       		.byte	0x39
 501 0078 7C000000 		.4byte	0x7c
 502 007c 05       		.uleb128 0x5
 503 007d 02       		.byte	0x2
 504 007e 07       		.byte	0x7
 505 007f 8A0A0000 		.4byte	.LASF9
 506 0083 03       		.uleb128 0x3
 507 0084 00010000 		.4byte	.LASF10
 508 0088 07       		.byte	0x7
 509 0089 4D       		.byte	0x4d
 510 008a 8E000000 		.4byte	0x8e
 511 008e 05       		.uleb128 0x5
 512 008f 04       		.byte	0x4
 513 0090 05       		.byte	0x5
ARM GAS  /tmp/ccDUvqkW.s 			page 10


 514 0091 40080000 		.4byte	.LASF11
 515 0095 03       		.uleb128 0x3
 516 0096 CD090000 		.4byte	.LASF12
 517 009a 07       		.byte	0x7
 518 009b 4F       		.byte	0x4f
 519 009c A0000000 		.4byte	0xa0
 520 00a0 05       		.uleb128 0x5
 521 00a1 04       		.byte	0x4
 522 00a2 07       		.byte	0x7
 523 00a3 52090000 		.4byte	.LASF13
 524 00a7 03       		.uleb128 0x3
 525 00a8 EE040000 		.4byte	.LASF14
 526 00ac 07       		.byte	0x7
 527 00ad 69       		.byte	0x69
 528 00ae B2000000 		.4byte	0xb2
 529 00b2 05       		.uleb128 0x5
 530 00b3 08       		.byte	0x8
 531 00b4 07       		.byte	0x7
 532 00b5 E8020000 		.4byte	.LASF15
 533 00b9 03       		.uleb128 0x3
 534 00ba 1E060000 		.4byte	.LASF16
 535 00be 08       		.byte	0x8
 536 00bf 18       		.byte	0x18
 537 00c0 58000000 		.4byte	0x58
 538 00c4 06       		.uleb128 0x6
 539 00c5 B9000000 		.4byte	0xb9
 540 00c9 03       		.uleb128 0x3
 541 00ca B2070000 		.4byte	.LASF17
 542 00ce 08       		.byte	0x8
 543 00cf 24       		.byte	0x24
 544 00d0 71000000 		.4byte	0x71
 545 00d4 04       		.uleb128 0x4
 546 00d5 C9000000 		.4byte	0xc9
 547 00d9 03       		.uleb128 0x3
 548 00da 7E090000 		.4byte	.LASF18
 549 00de 08       		.byte	0x8
 550 00df 2C       		.byte	0x2c
 551 00e0 83000000 		.4byte	0x83
 552 00e4 03       		.uleb128 0x3
 553 00e5 42020000 		.4byte	.LASF19
 554 00e9 08       		.byte	0x8
 555 00ea 30       		.byte	0x30
 556 00eb 95000000 		.4byte	0x95
 557 00ef 04       		.uleb128 0x4
 558 00f0 E4000000 		.4byte	0xe4
 559 00f4 03       		.uleb128 0x3
 560 00f5 93080000 		.4byte	.LASF20
 561 00f9 08       		.byte	0x8
 562 00fa 3C       		.byte	0x3c
 563 00fb A7000000 		.4byte	0xa7
 564 00ff 03       		.uleb128 0x3
 565 0100 84070000 		.4byte	.LASF21
 566 0104 09       		.byte	0x9
 567 0105 3C       		.byte	0x3c
 568 0106 B9000000 		.4byte	0xb9
 569 010a 03       		.uleb128 0x3
 570 010b ED050000 		.4byte	.LASF22
ARM GAS  /tmp/ccDUvqkW.s 			page 11


 571 010f 09       		.byte	0x9
 572 0110 3D       		.byte	0x3d
 573 0111 B9000000 		.4byte	0xb9
 574 0115 03       		.uleb128 0x3
 575 0116 4A090000 		.4byte	.LASF23
 576 011a 09       		.byte	0x9
 577 011b 3E       		.byte	0x3e
 578 011c B9000000 		.4byte	0xb9
 579 0120 03       		.uleb128 0x3
 580 0121 AD020000 		.4byte	.LASF24
 581 0125 09       		.byte	0x9
 582 0126 40       		.byte	0x40
 583 0127 E4000000 		.4byte	0xe4
 584 012b 03       		.uleb128 0x3
 585 012c BA060000 		.4byte	.LASF25
 586 0130 09       		.byte	0x9
 587 0131 41       		.byte	0x41
 588 0132 D9000000 		.4byte	0xd9
 589 0136 03       		.uleb128 0x3
 590 0137 68020000 		.4byte	.LASF26
 591 013b 09       		.byte	0x9
 592 013c 43       		.byte	0x43
 593 013d E4000000 		.4byte	0xe4
 594 0141 03       		.uleb128 0x3
 595 0142 55070000 		.4byte	.LASF27
 596 0146 09       		.byte	0x9
 597 0147 44       		.byte	0x44
 598 0148 E4000000 		.4byte	0xe4
 599 014c 03       		.uleb128 0x3
 600 014d 2A030000 		.4byte	.LASF28
 601 0151 09       		.byte	0x9
 602 0152 45       		.byte	0x45
 603 0153 D9000000 		.4byte	0xd9
 604 0157 03       		.uleb128 0x3
 605 0158 AD000000 		.4byte	.LASF29
 606 015c 0A       		.byte	0xa
 607 015d 35       		.byte	0x35
 608 015e C9000000 		.4byte	0xc9
 609 0162 03       		.uleb128 0x3
 610 0163 82030000 		.4byte	.LASF30
 611 0167 0A       		.byte	0xa
 612 0168 3F       		.byte	0x3f
 613 0169 6D010000 		.4byte	0x16d
 614 016d 07       		.uleb128 0x7
 615 016e 60060000 		.4byte	.LASF51
 616 0172 48       		.byte	0x48
 617 0173 0B       		.byte	0xb
 618 0174 C2       		.byte	0xc2
 619 0175 66020000 		.4byte	0x266
 620 0179 08       		.uleb128 0x8
 621 017a 8C080000 		.4byte	.LASF31
 622 017e 0B       		.byte	0xb
 623 017f C3       		.byte	0xc3
 624 0180 71020000 		.4byte	0x271
 625 0184 00       		.byte	0
 626 0185 08       		.uleb128 0x8
 627 0186 3A090000 		.4byte	.LASF32
ARM GAS  /tmp/ccDUvqkW.s 			page 12


 628 018a 0B       		.byte	0xb
 629 018b C5       		.byte	0xc5
 630 018c 71020000 		.4byte	0x271
 631 0190 04       		.byte	0x4
 632 0191 08       		.uleb128 0x8
 633 0192 90000000 		.4byte	.LASF33
 634 0196 0B       		.byte	0xb
 635 0197 C7       		.byte	0xc7
 636 0198 20010000 		.4byte	0x120
 637 019c 08       		.byte	0x8
 638 019d 08       		.uleb128 0x8
 639 019e 9C080000 		.4byte	.LASF34
 640 01a2 0B       		.byte	0xb
 641 01a3 C8       		.byte	0xc8
 642 01a4 59070000 		.4byte	0x759
 643 01a8 0C       		.byte	0xc
 644 01a9 08       		.uleb128 0x8
 645 01aa 56030000 		.4byte	.LASF35
 646 01ae 0B       		.byte	0xb
 647 01af CA       		.byte	0xca
 648 01b0 71020000 		.4byte	0x271
 649 01b4 10       		.byte	0x10
 650 01b5 08       		.uleb128 0x8
 651 01b6 03060000 		.4byte	.LASF36
 652 01ba 0B       		.byte	0xb
 653 01bb CB       		.byte	0xcb
 654 01bc 71020000 		.4byte	0x271
 655 01c0 14       		.byte	0x14
 656 01c1 08       		.uleb128 0x8
 657 01c2 58050000 		.4byte	.LASF37
 658 01c6 0B       		.byte	0xb
 659 01c7 D2       		.byte	0xd2
 660 01c8 5A0A0000 		.4byte	0xa5a
 661 01cc 18       		.byte	0x18
 662 01cd 08       		.uleb128 0x8
 663 01ce 13060000 		.4byte	.LASF38
 664 01d2 0B       		.byte	0xb
 665 01d3 D8       		.byte	0xd8
 666 01d4 710A0000 		.4byte	0xa71
 667 01d8 1C       		.byte	0x1c
 668 01d9 08       		.uleb128 0x8
 669 01da 0B060000 		.4byte	.LASF39
 670 01de 0B       		.byte	0xb
 671 01df DD       		.byte	0xdd
 672 01e0 0A010000 		.4byte	0x10a
 673 01e4 20       		.byte	0x20
 674 01e5 08       		.uleb128 0x8
 675 01e6 D7060000 		.4byte	.LASF40
 676 01ea 0B       		.byte	0xb
 677 01eb E1       		.byte	0xe1
 678 01ec FF000000 		.4byte	0xff
 679 01f0 21       		.byte	0x21
 680 01f1 08       		.uleb128 0x8
 681 01f2 EE090000 		.4byte	.LASF41
 682 01f6 0B       		.byte	0xb
 683 01f7 E6       		.byte	0xe6
 684 01f8 15010000 		.4byte	0x115
ARM GAS  /tmp/ccDUvqkW.s 			page 13


 685 01fc 22       		.byte	0x22
 686 01fd 09       		.uleb128 0x9
 687 01fe 705F7500 		.ascii	"p_u\000"
 688 0202 0B       		.byte	0xb
 689 0203 3101     		.2byte	0x131
 690 0205 95090000 		.4byte	0x995
 691 0209 24       		.byte	0x24
 692 020a 0A       		.uleb128 0xa
 693 020b 31000000 		.4byte	.LASF42
 694 020f 0B       		.byte	0xb
 695 0210 3601     		.2byte	0x136
 696 0212 77020000 		.4byte	0x277
 697 0216 28       		.byte	0x28
 698 0217 0A       		.uleb128 0xa
 699 0218 D4000000 		.4byte	.LASF43
 700 021c 0B       		.byte	0xb
 701 021d 3C01     		.2byte	0x13c
 702 021f 9B020000 		.4byte	0x29b
 703 0223 2C       		.byte	0x2c
 704 0224 0A       		.uleb128 0xa
 705 0225 79070000 		.4byte	.LASF44
 706 0229 0B       		.byte	0xb
 707 022a 4001     		.2byte	0x140
 708 022c 2B010000 		.4byte	0x12b
 709 0230 34       		.byte	0x34
 710 0231 0A       		.uleb128 0xa
 711 0232 2D080000 		.4byte	.LASF45
 712 0236 0B       		.byte	0xb
 713 0237 4601     		.2byte	0x146
 714 0239 36010000 		.4byte	0x136
 715 023d 38       		.byte	0x38
 716 023e 0A       		.uleb128 0xa
 717 023f 51060000 		.4byte	.LASF46
 718 0243 0B       		.byte	0xb
 719 0244 4D01     		.2byte	0x14d
 720 0246 540A0000 		.4byte	0xa54
 721 024a 3C       		.byte	0x3c
 722 024b 0A       		.uleb128 0xa
 723 024c EF070000 		.4byte	.LASF47
 724 0250 0B       		.byte	0xb
 725 0251 5101     		.2byte	0x151
 726 0253 20010000 		.4byte	0x120
 727 0257 40       		.byte	0x40
 728 0258 0A       		.uleb128 0xa
 729 0259 49060000 		.4byte	.LASF48
 730 025d 0B       		.byte	0xb
 731 025e 5801     		.2byte	0x158
 732 0260 4E030000 		.4byte	0x34e
 733 0264 44       		.byte	0x44
 734 0265 00       		.byte	0
 735 0266 03       		.uleb128 0x3
 736 0267 C6050000 		.4byte	.LASF49
 737 026b 0A       		.byte	0xa
 738 026c 44       		.byte	0x44
 739 026d 71020000 		.4byte	0x271
 740 0271 0B       		.uleb128 0xb
 741 0272 04       		.byte	0x4
ARM GAS  /tmp/ccDUvqkW.s 			page 14


 742 0273 62010000 		.4byte	0x162
 743 0277 03       		.uleb128 0x3
 744 0278 EC000000 		.4byte	.LASF50
 745 027c 0A       		.byte	0xa
 746 027d 49       		.byte	0x49
 747 027e 82020000 		.4byte	0x282
 748 0282 07       		.uleb128 0x7
 749 0283 00000000 		.4byte	.LASF52
 750 0287 04       		.byte	0x4
 751 0288 0B       		.byte	0xb
 752 0289 B0       		.byte	0xb0
 753 028a 9B020000 		.4byte	0x29b
 754 028e 08       		.uleb128 0x8
 755 028f 8C080000 		.4byte	.LASF31
 756 0293 0B       		.byte	0xb
 757 0294 B1       		.byte	0xb1
 758 0295 71020000 		.4byte	0x271
 759 0299 00       		.byte	0
 760 029a 00       		.byte	0
 761 029b 03       		.uleb128 0x3
 762 029c 10000000 		.4byte	.LASF53
 763 02a0 0A       		.byte	0xa
 764 02a1 50       		.byte	0x50
 765 02a2 A6020000 		.4byte	0x2a6
 766 02a6 07       		.uleb128 0x7
 767 02a7 9B010000 		.4byte	.LASF54
 768 02ab 08       		.byte	0x8
 769 02ac 0B       		.byte	0xb
 770 02ad B7       		.byte	0xb7
 771 02ae CB020000 		.4byte	0x2cb
 772 02b2 08       		.uleb128 0x8
 773 02b3 8C080000 		.4byte	.LASF31
 774 02b7 0B       		.byte	0xb
 775 02b8 B8       		.byte	0xb8
 776 02b9 71020000 		.4byte	0x271
 777 02bd 00       		.byte	0
 778 02be 08       		.uleb128 0x8
 779 02bf 3A090000 		.4byte	.LASF32
 780 02c3 0B       		.byte	0xb
 781 02c4 B9       		.byte	0xb9
 782 02c5 71020000 		.4byte	0x271
 783 02c9 04       		.byte	0x4
 784 02ca 00       		.byte	0
 785 02cb 03       		.uleb128 0x3
 786 02cc 71090000 		.4byte	.LASF55
 787 02d0 0A       		.byte	0xa
 788 02d1 57       		.byte	0x57
 789 02d2 D6020000 		.4byte	0x2d6
 790 02d6 0C       		.uleb128 0xc
 791 02d7 6A010000 		.4byte	.LASF56
 792 02db 1C       		.byte	0x1c
 793 02dc 0B       		.byte	0xb
 794 02dd 9001     		.2byte	0x190
 795 02df 32030000 		.4byte	0x332
 796 02e3 0A       		.uleb128 0xa
 797 02e4 AA060000 		.4byte	.LASF57
 798 02e8 0B       		.byte	0xb
ARM GAS  /tmp/ccDUvqkW.s 			page 15


 799 02e9 9101     		.2byte	0x191
 800 02eb 9B020000 		.4byte	0x29b
 801 02ef 00       		.byte	0
 802 02f0 0A       		.uleb128 0xa
 803 02f1 74020000 		.4byte	.LASF58
 804 02f5 0B       		.byte	0xb
 805 02f6 9201     		.2byte	0x192
 806 02f8 20010000 		.4byte	0x120
 807 02fc 08       		.byte	0x8
 808 02fd 0A       		.uleb128 0xa
 809 02fe 9D0A0000 		.4byte	.LASF59
 810 0302 0B       		.byte	0xb
 811 0303 9401     		.2byte	0x194
 812 0305 59070000 		.4byte	0x759
 813 0309 0C       		.byte	0xc
 814 030a 0A       		.uleb128 0xa
 815 030b B2060000 		.4byte	.LASF60
 816 030f 0B       		.byte	0xb
 817 0310 9701     		.2byte	0x197
 818 0312 71020000 		.4byte	0x271
 819 0316 10       		.byte	0x10
 820 0317 0A       		.uleb128 0xa
 821 0318 39070000 		.4byte	.LASF61
 822 031c 0B       		.byte	0xb
 823 031d 9801     		.2byte	0x198
 824 031f 71020000 		.4byte	0x271
 825 0323 14       		.byte	0x14
 826 0324 0A       		.uleb128 0xa
 827 0325 23080000 		.4byte	.LASF62
 828 0329 0B       		.byte	0xb
 829 032a 9B01     		.2byte	0x19b
 830 032c 71020000 		.4byte	0x271
 831 0330 18       		.byte	0x18
 832 0331 00       		.byte	0
 833 0332 03       		.uleb128 0x3
 834 0333 DC010000 		.4byte	.LASF63
 835 0337 0A       		.byte	0xa
 836 0338 5C       		.byte	0x5c
 837 0339 3D030000 		.4byte	0x33d
 838 033d 0B       		.uleb128 0xb
 839 033e 04       		.byte	0x4
 840 033f 43030000 		.4byte	0x343
 841 0343 0D       		.uleb128 0xd
 842 0344 4E030000 		.4byte	0x34e
 843 0348 0E       		.uleb128 0xe
 844 0349 4E030000 		.4byte	0x34e
 845 034d 00       		.byte	0
 846 034e 0F       		.uleb128 0xf
 847 034f 04       		.byte	0x4
 848 0350 03       		.uleb128 0x3
 849 0351 DF060000 		.4byte	.LASF64
 850 0355 0A       		.byte	0xa
 851 0356 61       		.byte	0x61
 852 0357 5B030000 		.4byte	0x35b
 853 035b 0C       		.uleb128 0xc
 854 035c C5020000 		.4byte	.LASF65
 855 0360 14       		.byte	0x14
ARM GAS  /tmp/ccDUvqkW.s 			page 16


 856 0361 0B       		.byte	0xb
 857 0362 6B01     		.2byte	0x16b
 858 0364 AA030000 		.4byte	0x3aa
 859 0368 0A       		.uleb128 0xa
 860 0369 1E0A0000 		.4byte	.LASF66
 861 036d 0B       		.byte	0xb
 862 036e 6C01     		.2byte	0x16c
 863 0370 770A0000 		.4byte	0xa77
 864 0374 00       		.byte	0
 865 0375 0A       		.uleb128 0xa
 866 0376 E90A0000 		.4byte	.LASF67
 867 037a 0B       		.byte	0xb
 868 037b 6D01     		.2byte	0x16d
 869 037d 770A0000 		.4byte	0xa77
 870 0381 04       		.byte	0x4
 871 0382 0A       		.uleb128 0xa
 872 0383 73050000 		.4byte	.LASF68
 873 0387 0B       		.byte	0xb
 874 0388 6E01     		.2byte	0x16e
 875 038a 57010000 		.4byte	0x157
 876 038e 08       		.byte	0x8
 877 038f 0A       		.uleb128 0xa
 878 0390 D50A0000 		.4byte	.LASF69
 879 0394 0B       		.byte	0xb
 880 0395 6F01     		.2byte	0x16f
 881 0397 32030000 		.4byte	0x332
 882 039b 0C       		.byte	0xc
 883 039c 0A       		.uleb128 0xa
 884 039d 80020000 		.4byte	.LASF70
 885 03a1 0B       		.byte	0xb
 886 03a2 7101     		.2byte	0x171
 887 03a4 4E030000 		.4byte	0x34e
 888 03a8 10       		.byte	0x10
 889 03a9 00       		.byte	0
 890 03aa 03       		.uleb128 0x3
 891 03ab D8090000 		.4byte	.LASF71
 892 03af 0A       		.byte	0xa
 893 03b0 66       		.byte	0x66
 894 03b1 B5030000 		.4byte	0x3b5
 895 03b5 0C       		.uleb128 0xc
 896 03b6 5E030000 		.4byte	.LASF72
 897 03ba 0C       		.byte	0xc
 898 03bb 0B       		.byte	0xb
 899 03bc 7B01     		.2byte	0x17b
 900 03be F7030000 		.4byte	0x3f7
 901 03c2 0A       		.uleb128 0xa
 902 03c3 1E0A0000 		.4byte	.LASF66
 903 03c7 0B       		.byte	0xb
 904 03c8 7C01     		.2byte	0x17c
 905 03ca 770A0000 		.4byte	0xa77
 906 03ce 00       		.byte	0
 907 03cf 0A       		.uleb128 0xa
 908 03d0 E90A0000 		.4byte	.LASF67
 909 03d4 0B       		.byte	0xb
 910 03d5 7E01     		.2byte	0x17e
 911 03d7 770A0000 		.4byte	0xa77
 912 03db 04       		.byte	0x4
ARM GAS  /tmp/ccDUvqkW.s 			page 17


 913 03dc 0A       		.uleb128 0xa
 914 03dd 73050000 		.4byte	.LASF68
 915 03e1 0B       		.byte	0xb
 916 03e2 8001     		.2byte	0x180
 917 03e4 57010000 		.4byte	0x157
 918 03e8 08       		.byte	0x8
 919 03e9 0A       		.uleb128 0xa
 920 03ea D9050000 		.4byte	.LASF73
 921 03ee 0B       		.byte	0xb
 922 03ef 8801     		.2byte	0x188
 923 03f1 57010000 		.4byte	0x157
 924 03f5 0A       		.byte	0xa
 925 03f6 00       		.byte	0
 926 03f7 03       		.uleb128 0x3
 927 03f8 78060000 		.4byte	.LASF74
 928 03fc 0A       		.byte	0xa
 929 03fd 6B       		.byte	0x6b
 930 03fe 02040000 		.4byte	0x402
 931 0402 10       		.uleb128 0x10
 932 0403 F8010000 		.4byte	.LASF75
 933 0407 1404     		.2byte	0x414
 934 0409 0B       		.byte	0xb
 935 040a A201     		.2byte	0x1a2
 936 040c 45040000 		.4byte	0x445
 937 0410 0A       		.uleb128 0xa
 938 0411 62070000 		.4byte	.LASF76
 939 0415 0B       		.byte	0xb
 940 0416 AA01     		.2byte	0x1aa
 941 0418 600A0000 		.4byte	0xa60
 942 041c 00       		.byte	0
 943 041d 0A       		.uleb128 0xa
 944 041e 30030000 		.4byte	.LASF77
 945 0422 0B       		.byte	0xb
 946 0423 AF01     		.2byte	0x1af
 947 0425 4C010000 		.4byte	0x14c
 948 0429 04       		.byte	0x4
 949 042a 0A       		.uleb128 0xa
 950 042b D6070000 		.4byte	.LASF78
 951 042f 0B       		.byte	0xb
 952 0430 B301     		.2byte	0x1b3
 953 0432 4C010000 		.4byte	0x14c
 954 0436 08       		.byte	0x8
 955 0437 0A       		.uleb128 0xa
 956 0438 86090000 		.4byte	.LASF79
 957 043c 0B       		.byte	0xb
 958 043d B901     		.2byte	0x1b9
 959 043f 8A090000 		.4byte	0x98a
 960 0443 0C       		.byte	0xc
 961 0444 00       		.byte	0
 962 0445 03       		.uleb128 0x3
 963 0446 260A0000 		.4byte	.LASF80
 964 044a 0A       		.byte	0xa
 965 044b 70       		.byte	0x70
 966 044c 50040000 		.4byte	0x450
 967 0450 10       		.uleb128 0x10
 968 0451 76080000 		.4byte	.LASF81
 969 0455 6805     		.2byte	0x568
ARM GAS  /tmp/ccDUvqkW.s 			page 18


 970 0457 0B       		.byte	0xb
 971 0458 C201     		.2byte	0x1c2
 972 045a A2040000 		.4byte	0x4a2
 973 045e 0A       		.uleb128 0xa
 974 045f A7080000 		.4byte	.LASF82
 975 0463 0B       		.byte	0xb
 976 0464 C601     		.2byte	0x1c6
 977 0466 CB020000 		.4byte	0x2cb
 978 046a 00       		.byte	0
 979 046b 0A       		.uleb128 0xa
 980 046c 35010000 		.4byte	.LASF83
 981 0470 0B       		.byte	0xb
 982 0471 CA01     		.2byte	0x1ca
 983 0473 AA030000 		.4byte	0x3aa
 984 0477 1C       		.byte	0x1c
 985 0478 09       		.uleb128 0x9
 986 0479 64626700 		.ascii	"dbg\000"
 987 047d 0B       		.byte	0xb
 988 047e CE01     		.2byte	0x1ce
 989 0480 F7030000 		.4byte	0x3f7
 990 0484 28       		.byte	0x28
 991 0485 11       		.uleb128 0x11
 992 0486 94070000 		.4byte	.LASF84
 993 048a 0B       		.byte	0xb
 994 048b D201     		.2byte	0x1d2
 995 048d 62010000 		.4byte	0x162
 996 0491 3C04     		.2byte	0x43c
 997 0493 11       		.uleb128 0x11
 998 0494 78010000 		.4byte	.LASF85
 999 0498 0B       		.byte	0xb
 1000 0499 E301     		.2byte	0x1e3
 1001 049b 7D0A0000 		.4byte	0xa7d
 1002 049f 8804     		.2byte	0x488
 1003 04a1 00       		.byte	0
 1004 04a2 05       		.uleb128 0x5
 1005 04a3 04       		.byte	0x4
 1006 04a4 07       		.byte	0x7
 1007 04a5 41090000 		.4byte	.LASF86
 1008 04a9 12       		.uleb128 0x12
 1009 04aa EF000000 		.4byte	0xef
 1010 04ae B9040000 		.4byte	0x4b9
 1011 04b2 13       		.uleb128 0x13
 1012 04b3 A2040000 		.4byte	0x4a2
 1013 04b7 01       		.byte	0x1
 1014 04b8 00       		.byte	0
 1015 04b9 04       		.uleb128 0x4
 1016 04ba A9040000 		.4byte	0x4a9
 1017 04be 14       		.uleb128 0x14
 1018 04bf 50000000 		.4byte	.LASF153
 1019 04c3 13       		.byte	0x13
 1020 04c4 4C       		.byte	0x4c
 1021 04c5 E4000000 		.4byte	0xe4
 1022 04c9 15       		.uleb128 0x15
 1023 04ca 10       		.byte	0x10
 1024 04cb 0C       		.byte	0xc
 1025 04cc B2       		.byte	0xb2
 1026 04cd 01050000 		.4byte	0x501
ARM GAS  /tmp/ccDUvqkW.s 			page 19


 1027 04d1 08       		.uleb128 0x8
 1028 04d2 4B0B0000 		.4byte	.LASF87
 1029 04d6 0C       		.byte	0xc
 1030 04d7 B4       		.byte	0xb4
 1031 04d8 EF000000 		.4byte	0xef
 1032 04dc 00       		.byte	0
 1033 04dd 16       		.uleb128 0x16
 1034 04de 435200   		.ascii	"CR\000"
 1035 04e1 0C       		.byte	0xc
 1036 04e2 B5       		.byte	0xb5
 1037 04e3 EF000000 		.4byte	0xef
 1038 04e7 04       		.byte	0x4
 1039 04e8 08       		.uleb128 0x8
 1040 04e9 61020000 		.4byte	.LASF88
 1041 04ed 0C       		.byte	0xc
 1042 04ee B6       		.byte	0xb6
 1043 04ef EF000000 		.4byte	0xef
 1044 04f3 08       		.byte	0x8
 1045 04f4 08       		.uleb128 0x8
 1046 04f5 6C070000 		.4byte	.LASF89
 1047 04f9 0C       		.byte	0xc
 1048 04fa B7       		.byte	0xb7
 1049 04fb EF000000 		.4byte	0xef
 1050 04ff 0C       		.byte	0xc
 1051 0500 00       		.byte	0
 1052 0501 03       		.uleb128 0x3
 1053 0502 CD010000 		.4byte	.LASF90
 1054 0506 0C       		.byte	0xc
 1055 0507 B8       		.byte	0xb8
 1056 0508 C9040000 		.4byte	0x4c9
 1057 050c 15       		.uleb128 0x15
 1058 050d 10       		.byte	0x10
 1059 050e 0C       		.byte	0xc
 1060 050f BE       		.byte	0xbe
 1061 0510 45050000 		.4byte	0x545
 1062 0514 16       		.uleb128 0x16
 1063 0515 43435200 		.ascii	"CCR\000"
 1064 0519 0C       		.byte	0xc
 1065 051a C0       		.byte	0xc0
 1066 051b EF000000 		.4byte	0xef
 1067 051f 00       		.byte	0
 1068 0520 08       		.uleb128 0x8
 1069 0521 EC010000 		.4byte	.LASF91
 1070 0525 0C       		.byte	0xc
 1071 0526 C1       		.byte	0xc1
 1072 0527 EF000000 		.4byte	0xef
 1073 052b 04       		.byte	0x4
 1074 052c 08       		.uleb128 0x8
 1075 052d 75030000 		.4byte	.LASF92
 1076 0531 0C       		.byte	0xc
 1077 0532 C2       		.byte	0xc2
 1078 0533 EF000000 		.4byte	0xef
 1079 0537 08       		.byte	0x8
 1080 0538 08       		.uleb128 0x8
 1081 0539 1F010000 		.4byte	.LASF93
 1082 053d 0C       		.byte	0xc
 1083 053e C3       		.byte	0xc3
ARM GAS  /tmp/ccDUvqkW.s 			page 20


 1084 053f EF000000 		.4byte	0xef
 1085 0543 0C       		.byte	0xc
 1086 0544 00       		.byte	0
 1087 0545 03       		.uleb128 0x3
 1088 0546 56010000 		.4byte	.LASF94
 1089 054a 0C       		.byte	0xc
 1090 054b C4       		.byte	0xc4
 1091 054c 0C050000 		.4byte	0x50c
 1092 0550 15       		.uleb128 0x15
 1093 0551 AC       		.byte	0xac
 1094 0552 0C       		.byte	0xc
 1095 0553 C6       		.byte	0xc6
 1096 0554 89050000 		.4byte	0x589
 1097 0558 16       		.uleb128 0x16
 1098 0559 49535200 		.ascii	"ISR\000"
 1099 055d 0C       		.byte	0xc
 1100 055e C8       		.byte	0xc8
 1101 055f EF000000 		.4byte	0xef
 1102 0563 00       		.byte	0
 1103 0564 08       		.uleb128 0x8
 1104 0565 C10A0000 		.4byte	.LASF95
 1105 0569 0C       		.byte	0xc
 1106 056a C9       		.byte	0xc9
 1107 056b EF000000 		.4byte	0xef
 1108 056f 04       		.byte	0x4
 1109 0570 08       		.uleb128 0x8
 1110 0571 F10A0000 		.4byte	.LASF96
 1111 0575 0C       		.byte	0xc
 1112 0576 CA       		.byte	0xca
 1113 0577 89050000 		.4byte	0x589
 1114 057b 08       		.byte	0x8
 1115 057c 08       		.uleb128 0x8
 1116 057d C60A0000 		.4byte	.LASF97
 1117 0581 0C       		.byte	0xc
 1118 0582 CB       		.byte	0xcb
 1119 0583 EF000000 		.4byte	0xef
 1120 0587 A8       		.byte	0xa8
 1121 0588 00       		.byte	0
 1122 0589 12       		.uleb128 0x12
 1123 058a E4000000 		.4byte	0xe4
 1124 058e 99050000 		.4byte	0x599
 1125 0592 13       		.uleb128 0x13
 1126 0593 A2040000 		.4byte	0x4a2
 1127 0597 27       		.byte	0x27
 1128 0598 00       		.byte	0
 1129 0599 03       		.uleb128 0x3
 1130 059a EF060000 		.4byte	.LASF98
 1131 059e 0C       		.byte	0xc
 1132 059f CC       		.byte	0xcc
 1133 05a0 50050000 		.4byte	0x550
 1134 05a4 12       		.uleb128 0x12
 1135 05a5 EF000000 		.4byte	0xef
 1136 05a9 B4050000 		.4byte	0x5b4
 1137 05ad 13       		.uleb128 0x13
 1138 05ae A2040000 		.4byte	0x4a2
 1139 05b2 03       		.byte	0x3
 1140 05b3 00       		.byte	0
ARM GAS  /tmp/ccDUvqkW.s 			page 21


 1141 05b4 04       		.uleb128 0x4
 1142 05b5 A4050000 		.4byte	0x5a4
 1143 05b9 17       		.uleb128 0x17
 1144 05ba 38       		.byte	0x38
 1145 05bb 0C       		.byte	0xc
 1146 05bc 4801     		.2byte	0x148
 1147 05be 78060000 		.4byte	0x678
 1148 05c2 09       		.uleb128 0x9
 1149 05c3 435200   		.ascii	"CR\000"
 1150 05c6 0C       		.byte	0xc
 1151 05c7 4A01     		.2byte	0x14a
 1152 05c9 EF000000 		.4byte	0xef
 1153 05cd 00       		.byte	0
 1154 05ce 0A       		.uleb128 0xa
 1155 05cf A2080000 		.4byte	.LASF99
 1156 05d3 0C       		.byte	0xc
 1157 05d4 4B01     		.2byte	0x14b
 1158 05d6 EF000000 		.4byte	0xef
 1159 05da 04       		.byte	0x4
 1160 05db 09       		.uleb128 0x9
 1161 05dc 43495200 		.ascii	"CIR\000"
 1162 05e0 0C       		.byte	0xc
 1163 05e1 4C01     		.2byte	0x14c
 1164 05e3 EF000000 		.4byte	0xef
 1165 05e7 08       		.byte	0x8
 1166 05e8 0A       		.uleb128 0xa
 1167 05e9 97000000 		.4byte	.LASF100
 1168 05ed 0C       		.byte	0xc
 1169 05ee 4D01     		.2byte	0x14d
 1170 05f0 EF000000 		.4byte	0xef
 1171 05f4 0C       		.byte	0xc
 1172 05f5 0A       		.uleb128 0xa
 1173 05f6 5F050000 		.4byte	.LASF101
 1174 05fa 0C       		.byte	0xc
 1175 05fb 4E01     		.2byte	0x14e
 1176 05fd EF000000 		.4byte	0xef
 1177 0601 10       		.byte	0x10
 1178 0602 0A       		.uleb128 0xa
 1179 0603 FC050000 		.4byte	.LASF102
 1180 0607 0C       		.byte	0xc
 1181 0608 4F01     		.2byte	0x14f
 1182 060a EF000000 		.4byte	0xef
 1183 060e 14       		.byte	0x14
 1184 060f 0A       		.uleb128 0xa
 1185 0610 4D070000 		.4byte	.LASF103
 1186 0614 0C       		.byte	0xc
 1187 0615 5001     		.2byte	0x150
 1188 0617 EF000000 		.4byte	0xef
 1189 061b 18       		.byte	0x18
 1190 061c 0A       		.uleb128 0xa
 1191 061d 48000000 		.4byte	.LASF104
 1192 0621 0C       		.byte	0xc
 1193 0622 5101     		.2byte	0x151
 1194 0624 EF000000 		.4byte	0xef
 1195 0628 1C       		.byte	0x1c
 1196 0629 0A       		.uleb128 0xa
 1197 062a FB000000 		.4byte	.LASF105
ARM GAS  /tmp/ccDUvqkW.s 			page 22


 1198 062e 0C       		.byte	0xc
 1199 062f 5201     		.2byte	0x152
 1200 0631 EF000000 		.4byte	0xef
 1201 0635 20       		.byte	0x20
 1202 0636 09       		.uleb128 0x9
 1203 0637 43535200 		.ascii	"CSR\000"
 1204 063b 0C       		.byte	0xc
 1205 063c 5301     		.2byte	0x153
 1206 063e EF000000 		.4byte	0xef
 1207 0642 24       		.byte	0x24
 1208 0643 0A       		.uleb128 0xa
 1209 0644 080A0000 		.4byte	.LASF106
 1210 0648 0C       		.byte	0xc
 1211 0649 5401     		.2byte	0x154
 1212 064b EF000000 		.4byte	0xef
 1213 064f 28       		.byte	0x28
 1214 0650 0A       		.uleb128 0xa
 1215 0651 41070000 		.4byte	.LASF107
 1216 0655 0C       		.byte	0xc
 1217 0656 5501     		.2byte	0x155
 1218 0658 EF000000 		.4byte	0xef
 1219 065c 2C       		.byte	0x2c
 1220 065d 0A       		.uleb128 0xa
 1221 065e 47070000 		.4byte	.LASF108
 1222 0662 0C       		.byte	0xc
 1223 0663 5601     		.2byte	0x156
 1224 0665 EF000000 		.4byte	0xef
 1225 0669 30       		.byte	0x30
 1226 066a 09       		.uleb128 0x9
 1227 066b 43523200 		.ascii	"CR2\000"
 1228 066f 0C       		.byte	0xc
 1229 0670 5701     		.2byte	0x157
 1230 0672 EF000000 		.4byte	0xef
 1231 0676 34       		.byte	0x34
 1232 0677 00       		.byte	0
 1233 0678 18       		.uleb128 0x18
 1234 0679 FC030000 		.4byte	.LASF109
 1235 067d 0C       		.byte	0xc
 1236 067e 5801     		.2byte	0x158
 1237 0680 B9050000 		.4byte	0x5b9
 1238 0684 17       		.uleb128 0x17
 1239 0685 2C       		.byte	0x2c
 1240 0686 0C       		.byte	0xc
 1241 0687 A501     		.2byte	0x1a5
 1242 0689 37070000 		.4byte	0x737
 1243 068d 09       		.uleb128 0x9
 1244 068e 43523100 		.ascii	"CR1\000"
 1245 0692 0C       		.byte	0xc
 1246 0693 A701     		.2byte	0x1a7
 1247 0695 EF000000 		.4byte	0xef
 1248 0699 00       		.byte	0
 1249 069a 09       		.uleb128 0x9
 1250 069b 43523200 		.ascii	"CR2\000"
 1251 069f 0C       		.byte	0xc
 1252 06a0 A801     		.2byte	0x1a8
 1253 06a2 EF000000 		.4byte	0xef
 1254 06a6 04       		.byte	0x4
ARM GAS  /tmp/ccDUvqkW.s 			page 23


 1255 06a7 09       		.uleb128 0x9
 1256 06a8 43523300 		.ascii	"CR3\000"
 1257 06ac 0C       		.byte	0xc
 1258 06ad A901     		.2byte	0x1a9
 1259 06af EF000000 		.4byte	0xef
 1260 06b3 08       		.byte	0x8
 1261 06b4 09       		.uleb128 0x9
 1262 06b5 42525200 		.ascii	"BRR\000"
 1263 06b9 0C       		.byte	0xc
 1264 06ba AA01     		.2byte	0x1aa
 1265 06bc EF000000 		.4byte	0xef
 1266 06c0 0C       		.byte	0xc
 1267 06c1 0A       		.uleb128 0xa
 1268 06c2 08020000 		.4byte	.LASF110
 1269 06c6 0C       		.byte	0xc
 1270 06c7 AB01     		.2byte	0x1ab
 1271 06c9 EF000000 		.4byte	0xef
 1272 06cd 10       		.byte	0x10
 1273 06ce 0A       		.uleb128 0xa
 1274 06cf 30060000 		.4byte	.LASF111
 1275 06d3 0C       		.byte	0xc
 1276 06d4 AC01     		.2byte	0x1ac
 1277 06d6 EF000000 		.4byte	0xef
 1278 06da 14       		.byte	0x14
 1279 06db 09       		.uleb128 0x9
 1280 06dc 52515200 		.ascii	"RQR\000"
 1281 06e0 0C       		.byte	0xc
 1282 06e1 AD01     		.2byte	0x1ad
 1283 06e3 EF000000 		.4byte	0xef
 1284 06e7 18       		.byte	0x18
 1285 06e8 09       		.uleb128 0x9
 1286 06e9 49535200 		.ascii	"ISR\000"
 1287 06ed 0C       		.byte	0xc
 1288 06ee AE01     		.2byte	0x1ae
 1289 06f0 EF000000 		.4byte	0xef
 1290 06f4 1C       		.byte	0x1c
 1291 06f5 09       		.uleb128 0x9
 1292 06f6 49435200 		.ascii	"ICR\000"
 1293 06fa 0C       		.byte	0xc
 1294 06fb AF01     		.2byte	0x1af
 1295 06fd EF000000 		.4byte	0xef
 1296 0701 20       		.byte	0x20
 1297 0702 09       		.uleb128 0x9
 1298 0703 52445200 		.ascii	"RDR\000"
 1299 0707 0C       		.byte	0xc
 1300 0708 B001     		.2byte	0x1b0
 1301 070a D4000000 		.4byte	0xd4
 1302 070e 24       		.byte	0x24
 1303 070f 0A       		.uleb128 0xa
 1304 0710 FA070000 		.4byte	.LASF112
 1305 0714 0C       		.byte	0xc
 1306 0715 B101     		.2byte	0x1b1
 1307 0717 C9000000 		.4byte	0xc9
 1308 071b 26       		.byte	0x26
 1309 071c 09       		.uleb128 0x9
 1310 071d 54445200 		.ascii	"TDR\000"
 1311 0721 0C       		.byte	0xc
ARM GAS  /tmp/ccDUvqkW.s 			page 24


 1312 0722 B201     		.2byte	0x1b2
 1313 0724 D4000000 		.4byte	0xd4
 1314 0728 28       		.byte	0x28
 1315 0729 0A       		.uleb128 0xa
 1316 072a 04080000 		.4byte	.LASF113
 1317 072e 0C       		.byte	0xc
 1318 072f B301     		.2byte	0x1b3
 1319 0731 C9000000 		.4byte	0xc9
 1320 0735 2A       		.byte	0x2a
 1321 0736 00       		.byte	0
 1322 0737 18       		.uleb128 0x18
 1323 0738 11050000 		.4byte	.LASF114
 1324 073c 0C       		.byte	0xc
 1325 073d B401     		.2byte	0x1b4
 1326 073f 84060000 		.4byte	0x684
 1327 0743 03       		.uleb128 0x3
 1328 0744 87000000 		.4byte	.LASF115
 1329 0748 0D       		.byte	0xd
 1330 0749 65       		.byte	0x65
 1331 074a 4E030000 		.4byte	0x34e
 1332 074e 03       		.uleb128 0x3
 1333 074f A30A0000 		.4byte	.LASF116
 1334 0753 0D       		.byte	0xd
 1335 0754 6D       		.byte	0x6d
 1336 0755 F4000000 		.4byte	0xf4
 1337 0759 07       		.uleb128 0x7
 1338 075a CF060000 		.4byte	.LASF117
 1339 075e 04       		.byte	0x4
 1340 075f 0D       		.byte	0xd
 1341 0760 89       		.byte	0x89
 1342 0761 72070000 		.4byte	0x772
 1343 0765 16       		.uleb128 0x16
 1344 0766 72313300 		.ascii	"r13\000"
 1345 076a 0D       		.byte	0xd
 1346 076b 8A       		.byte	0x8a
 1347 076c E4070000 		.4byte	0x7e4
 1348 0770 00       		.byte	0
 1349 0771 00       		.byte	0
 1350 0772 07       		.uleb128 0x7
 1351 0773 49080000 		.4byte	.LASF118
 1352 0777 24       		.byte	0x24
 1353 0778 01       		.byte	0x1
 1354 0779 A4       		.byte	0xa4
 1355 077a E4070000 		.4byte	0x7e4
 1356 077e 16       		.uleb128 0x16
 1357 077f 723800   		.ascii	"r8\000"
 1358 0782 01       		.byte	0x1
 1359 0783 A5       		.byte	0xa5
 1360 0784 43070000 		.4byte	0x743
 1361 0788 00       		.byte	0
 1362 0789 16       		.uleb128 0x16
 1363 078a 723900   		.ascii	"r9\000"
 1364 078d 01       		.byte	0x1
 1365 078e A6       		.byte	0xa6
 1366 078f 43070000 		.4byte	0x743
 1367 0793 04       		.byte	0x4
 1368 0794 16       		.uleb128 0x16
ARM GAS  /tmp/ccDUvqkW.s 			page 25


 1369 0795 72313000 		.ascii	"r10\000"
 1370 0799 01       		.byte	0x1
 1371 079a A7       		.byte	0xa7
 1372 079b 43070000 		.4byte	0x743
 1373 079f 08       		.byte	0x8
 1374 07a0 16       		.uleb128 0x16
 1375 07a1 72313100 		.ascii	"r11\000"
 1376 07a5 01       		.byte	0x1
 1377 07a6 A8       		.byte	0xa8
 1378 07a7 43070000 		.4byte	0x743
 1379 07ab 0C       		.byte	0xc
 1380 07ac 16       		.uleb128 0x16
 1381 07ad 723400   		.ascii	"r4\000"
 1382 07b0 01       		.byte	0x1
 1383 07b1 A9       		.byte	0xa9
 1384 07b2 43070000 		.4byte	0x743
 1385 07b6 10       		.byte	0x10
 1386 07b7 16       		.uleb128 0x16
 1387 07b8 723500   		.ascii	"r5\000"
 1388 07bb 01       		.byte	0x1
 1389 07bc AA       		.byte	0xaa
 1390 07bd 43070000 		.4byte	0x743
 1391 07c1 14       		.byte	0x14
 1392 07c2 16       		.uleb128 0x16
 1393 07c3 723600   		.ascii	"r6\000"
 1394 07c6 01       		.byte	0x1
 1395 07c7 AB       		.byte	0xab
 1396 07c8 43070000 		.4byte	0x743
 1397 07cc 18       		.byte	0x18
 1398 07cd 16       		.uleb128 0x16
 1399 07ce 723700   		.ascii	"r7\000"
 1400 07d1 01       		.byte	0x1
 1401 07d2 AC       		.byte	0xac
 1402 07d3 43070000 		.4byte	0x743
 1403 07d7 1C       		.byte	0x1c
 1404 07d8 16       		.uleb128 0x16
 1405 07d9 6C7200   		.ascii	"lr\000"
 1406 07dc 01       		.byte	0x1
 1407 07dd AD       		.byte	0xad
 1408 07de 43070000 		.4byte	0x743
 1409 07e2 20       		.byte	0x20
 1410 07e3 00       		.byte	0
 1411 07e4 0B       		.uleb128 0xb
 1412 07e5 04       		.byte	0x4
 1413 07e6 72070000 		.4byte	0x772
 1414 07ea 17       		.uleb128 0x17
 1415 07eb 60       		.byte	0x60
 1416 07ec 0E       		.byte	0xe
 1417 07ed A101     		.2byte	0x1a1
 1418 07ef F6080000 		.4byte	0x8f6
 1419 07f3 09       		.uleb128 0x9
 1420 07f4 43523100 		.ascii	"CR1\000"
 1421 07f8 0E       		.byte	0xe
 1422 07f9 A201     		.2byte	0x1a2
 1423 07fb EF000000 		.4byte	0xef
 1424 07ff 00       		.byte	0
 1425 0800 09       		.uleb128 0x9
ARM GAS  /tmp/ccDUvqkW.s 			page 26


 1426 0801 43523200 		.ascii	"CR2\000"
 1427 0805 0E       		.byte	0xe
 1428 0806 A301     		.2byte	0x1a3
 1429 0808 EF000000 		.4byte	0xef
 1430 080c 04       		.byte	0x4
 1431 080d 0A       		.uleb128 0xa
 1432 080e 5B060000 		.4byte	.LASF119
 1433 0812 0E       		.byte	0xe
 1434 0813 A401     		.2byte	0x1a4
 1435 0815 EF000000 		.4byte	0xef
 1436 0819 08       		.byte	0x8
 1437 081a 0A       		.uleb128 0xa
 1438 081b F9040000 		.4byte	.LASF120
 1439 081f 0E       		.byte	0xe
 1440 0820 A501     		.2byte	0x1a5
 1441 0822 EF000000 		.4byte	0xef
 1442 0826 0C       		.byte	0xc
 1443 0827 09       		.uleb128 0x9
 1444 0828 535200   		.ascii	"SR\000"
 1445 082b 0E       		.byte	0xe
 1446 082c A601     		.2byte	0x1a6
 1447 082e EF000000 		.4byte	0xef
 1448 0832 10       		.byte	0x10
 1449 0833 09       		.uleb128 0x9
 1450 0834 45475200 		.ascii	"EGR\000"
 1451 0838 0E       		.byte	0xe
 1452 0839 A701     		.2byte	0x1a7
 1453 083b EF000000 		.4byte	0xef
 1454 083f 14       		.byte	0x14
 1455 0840 0A       		.uleb128 0xa
 1456 0841 D6020000 		.4byte	.LASF121
 1457 0845 0E       		.byte	0xe
 1458 0846 A801     		.2byte	0x1a8
 1459 0848 EF000000 		.4byte	0xef
 1460 084c 18       		.byte	0x18
 1461 084d 0A       		.uleb128 0xa
 1462 084e DC020000 		.4byte	.LASF122
 1463 0852 0E       		.byte	0xe
 1464 0853 A901     		.2byte	0x1a9
 1465 0855 EF000000 		.4byte	0xef
 1466 0859 1C       		.byte	0x1c
 1467 085a 0A       		.uleb128 0xa
 1468 085b 6E050000 		.4byte	.LASF123
 1469 085f 0E       		.byte	0xe
 1470 0860 AA01     		.2byte	0x1aa
 1471 0862 EF000000 		.4byte	0xef
 1472 0866 20       		.byte	0x20
 1473 0867 09       		.uleb128 0x9
 1474 0868 434E5400 		.ascii	"CNT\000"
 1475 086c 0E       		.byte	0xe
 1476 086d AB01     		.2byte	0x1ab
 1477 086f EF000000 		.4byte	0xef
 1478 0873 24       		.byte	0x24
 1479 0874 09       		.uleb128 0x9
 1480 0875 50534300 		.ascii	"PSC\000"
 1481 0879 0E       		.byte	0xe
 1482 087a AC01     		.2byte	0x1ac
ARM GAS  /tmp/ccDUvqkW.s 			page 27


 1483 087c EF000000 		.4byte	0xef
 1484 0880 28       		.byte	0x28
 1485 0881 09       		.uleb128 0x9
 1486 0882 41525200 		.ascii	"ARR\000"
 1487 0886 0E       		.byte	0xe
 1488 0887 AD01     		.2byte	0x1ad
 1489 0889 EF000000 		.4byte	0xef
 1490 088d 2C       		.byte	0x2c
 1491 088e 09       		.uleb128 0x9
 1492 088f 52435200 		.ascii	"RCR\000"
 1493 0893 0E       		.byte	0xe
 1494 0894 AE01     		.2byte	0x1ae
 1495 0896 EF000000 		.4byte	0xef
 1496 089a 30       		.byte	0x30
 1497 089b 09       		.uleb128 0x9
 1498 089c 43435200 		.ascii	"CCR\000"
 1499 08a0 0E       		.byte	0xe
 1500 08a1 AF01     		.2byte	0x1af
 1501 08a3 B4050000 		.4byte	0x5b4
 1502 08a7 34       		.byte	0x34
 1503 08a8 0A       		.uleb128 0xa
 1504 08a9 7B020000 		.4byte	.LASF124
 1505 08ad 0E       		.byte	0xe
 1506 08ae B001     		.2byte	0x1b0
 1507 08b0 EF000000 		.4byte	0xef
 1508 08b4 44       		.byte	0x44
 1509 08b5 09       		.uleb128 0x9
 1510 08b6 44435200 		.ascii	"DCR\000"
 1511 08ba 0E       		.byte	0xe
 1512 08bb B101     		.2byte	0x1b1
 1513 08bd EF000000 		.4byte	0xef
 1514 08c1 48       		.byte	0x48
 1515 08c2 0A       		.uleb128 0xa
 1516 08c3 C8010000 		.4byte	.LASF125
 1517 08c7 0E       		.byte	0xe
 1518 08c8 B201     		.2byte	0x1b2
 1519 08ca EF000000 		.4byte	0xef
 1520 08ce 4C       		.byte	0x4c
 1521 08cf 09       		.uleb128 0x9
 1522 08d0 4F5200   		.ascii	"OR\000"
 1523 08d3 0E       		.byte	0xe
 1524 08d4 B301     		.2byte	0x1b3
 1525 08d6 EF000000 		.4byte	0xef
 1526 08da 50       		.byte	0x50
 1527 08db 0A       		.uleb128 0xa
 1528 08dc E2020000 		.4byte	.LASF126
 1529 08e0 0E       		.byte	0xe
 1530 08e1 B401     		.2byte	0x1b4
 1531 08e3 EF000000 		.4byte	0xef
 1532 08e7 54       		.byte	0x54
 1533 08e8 0A       		.uleb128 0xa
 1534 08e9 55080000 		.4byte	.LASF127
 1535 08ed 0E       		.byte	0xe
 1536 08ee B501     		.2byte	0x1b5
 1537 08f0 B9040000 		.4byte	0x4b9
 1538 08f4 58       		.byte	0x58
 1539 08f5 00       		.byte	0
ARM GAS  /tmp/ccDUvqkW.s 			page 28


 1540 08f6 18       		.uleb128 0x18
 1541 08f7 E6030000 		.4byte	.LASF128
 1542 08fb 0E       		.byte	0xe
 1543 08fc B601     		.2byte	0x1b6
 1544 08fe EA070000 		.4byte	0x7ea
 1545 0902 15       		.uleb128 0x15
 1546 0903 10       		.byte	0x10
 1547 0904 0F       		.byte	0xf
 1548 0905 51       		.byte	0x51
 1549 0906 3B090000 		.4byte	0x93b
 1550 090a 08       		.uleb128 0x8
 1551 090b 7A030000 		.4byte	.LASF129
 1552 090f 0F       		.byte	0xf
 1553 0910 55       		.byte	0x55
 1554 0911 57010000 		.4byte	0x157
 1555 0915 00       		.byte	0
 1556 0916 08       		.uleb128 0x8
 1557 0917 F6050000 		.4byte	.LASF130
 1558 091b 0F       		.byte	0xf
 1559 091c 59       		.byte	0x59
 1560 091d 71020000 		.4byte	0x271
 1561 0921 04       		.byte	0x4
 1562 0922 08       		.uleb128 0x8
 1563 0923 FF020000 		.4byte	.LASF131
 1564 0927 0F       		.byte	0xf
 1565 0928 5D       		.byte	0x5d
 1566 0929 4E030000 		.4byte	0x34e
 1567 092d 08       		.byte	0x8
 1568 092e 08       		.uleb128 0x8
 1569 092f 0A010000 		.4byte	.LASF132
 1570 0933 0F       		.byte	0xf
 1571 0934 61       		.byte	0x61
 1572 0935 B9000000 		.4byte	0xb9
 1573 0939 0C       		.byte	0xc
 1574 093a 00       		.byte	0
 1575 093b 03       		.uleb128 0x3
 1576 093c 93090000 		.4byte	.LASF133
 1577 0940 0F       		.byte	0xf
 1578 0941 62       		.byte	0x62
 1579 0942 02090000 		.4byte	0x902
 1580 0946 19       		.uleb128 0x19
 1581 0947 0804     		.2byte	0x408
 1582 0949 0F       		.byte	0xf
 1583 094a 67       		.byte	0x67
 1584 094b 74090000 		.4byte	0x974
 1585 094f 08       		.uleb128 0x8
 1586 0950 6A060000 		.4byte	.LASF134
 1587 0954 0F       		.byte	0xf
 1588 0955 6B       		.byte	0x6b
 1589 0956 3C000000 		.4byte	0x3c
 1590 095a 00       		.byte	0
 1591 095b 08       		.uleb128 0x8
 1592 095c 28070000 		.4byte	.LASF135
 1593 0960 0F       		.byte	0xf
 1594 0961 6F       		.byte	0x6f
 1595 0962 74090000 		.4byte	0x974
 1596 0966 04       		.byte	0x4
ARM GAS  /tmp/ccDUvqkW.s 			page 29


 1597 0967 08       		.uleb128 0x8
 1598 0968 26060000 		.4byte	.LASF136
 1599 096c 0F       		.byte	0xf
 1600 096d 73       		.byte	0x73
 1601 096e 7A090000 		.4byte	0x97a
 1602 0972 08       		.byte	0x8
 1603 0973 00       		.byte	0
 1604 0974 0B       		.uleb128 0xb
 1605 0975 04       		.byte	0x4
 1606 0976 3B090000 		.4byte	0x93b
 1607 097a 12       		.uleb128 0x12
 1608 097b 3B090000 		.4byte	0x93b
 1609 097f 8A090000 		.4byte	0x98a
 1610 0983 13       		.uleb128 0x13
 1611 0984 A2040000 		.4byte	0x4a2
 1612 0988 3F       		.byte	0x3f
 1613 0989 00       		.byte	0
 1614 098a 03       		.uleb128 0x3
 1615 098b 490A0000 		.4byte	.LASF137
 1616 098f 0F       		.byte	0xf
 1617 0990 74       		.byte	0x74
 1618 0991 46090000 		.4byte	0x946
 1619 0995 1A       		.uleb128 0x1a
 1620 0996 04       		.byte	0x4
 1621 0997 0B       		.byte	0xb
 1622 0998 FA       		.byte	0xfa
 1623 0999 F2090000 		.4byte	0x9f2
 1624 099d 1B       		.uleb128 0x1b
 1625 099e B4030000 		.4byte	.LASF138
 1626 09a2 0B       		.byte	0xb
 1627 09a3 0101     		.2byte	0x101
 1628 09a5 2B010000 		.4byte	0x12b
 1629 09a9 1B       		.uleb128 0x1b
 1630 09aa 380B0000 		.4byte	.LASF139
 1631 09ae 0B       		.byte	0xb
 1632 09af 0801     		.2byte	0x108
 1633 09b1 2B010000 		.4byte	0x12b
 1634 09b5 1B       		.uleb128 0x1b
 1635 09b6 24010000 		.4byte	.LASF140
 1636 09ba 0B       		.byte	0xb
 1637 09bb 0F01     		.2byte	0x10f
 1638 09bd 4E030000 		.4byte	0x34e
 1639 09c1 1B       		.uleb128 0x1b
 1640 09c2 390A0000 		.4byte	.LASF141
 1641 09c6 0B       		.byte	0xb
 1642 09c7 1601     		.2byte	0x116
 1643 09c9 F2090000 		.4byte	0x9f2
 1644 09cd 1B       		.uleb128 0x1b
 1645 09ce 320A0000 		.4byte	.LASF142
 1646 09d2 0B       		.byte	0xb
 1647 09d3 1E01     		.2byte	0x11e
 1648 09d5 1D0A0000 		.4byte	0xa1d
 1649 09d9 1B       		.uleb128 0x1b
 1650 09da 60000000 		.4byte	.LASF143
 1651 09de 0B       		.byte	0xb
 1652 09df 2701     		.2byte	0x127
 1653 09e1 540A0000 		.4byte	0xa54
ARM GAS  /tmp/ccDUvqkW.s 			page 30


 1654 09e5 1B       		.uleb128 0x1b
 1655 09e6 87010000 		.4byte	.LASF144
 1656 09ea 0B       		.byte	0xb
 1657 09eb 2F01     		.2byte	0x12f
 1658 09ed 36010000 		.4byte	0x136
 1659 09f1 00       		.byte	0
 1660 09f2 0B       		.uleb128 0xb
 1661 09f3 04       		.byte	0x4
 1662 09f4 66020000 		.4byte	0x266
 1663 09f8 07       		.uleb128 0x7
 1664 09f9 9A020000 		.4byte	.LASF145
 1665 09fd 0C       		.byte	0xc
 1666 09fe 10       		.byte	0x10
 1667 09ff 34       		.byte	0x34
 1668 0a00 1D0A0000 		.4byte	0xa1d
 1669 0a04 08       		.uleb128 0x8
 1670 0a05 CC000000 		.4byte	.LASF146
 1671 0a09 10       		.byte	0x10
 1672 0a0a 35       		.byte	0x35
 1673 0a0b 9B020000 		.4byte	0x29b
 1674 0a0f 00       		.byte	0
 1675 0a10 08       		.uleb128 0x8
 1676 0a11 F2010000 		.4byte	.LASF147
 1677 0a15 10       		.byte	0x10
 1678 0a16 37       		.byte	0x37
 1679 0a17 4C010000 		.4byte	0x14c
 1680 0a1b 08       		.byte	0x8
 1681 0a1c 00       		.byte	0
 1682 0a1d 0B       		.uleb128 0xb
 1683 0a1e 04       		.byte	0x4
 1684 0a1f F8090000 		.4byte	0x9f8
 1685 0a23 07       		.uleb128 0x7
 1686 0a24 E5040000 		.4byte	.LASF148
 1687 0a28 10       		.byte	0x10
 1688 0a29 11       		.byte	0x11
 1689 0a2a 39       		.byte	0x39
 1690 0a2b 540A0000 		.4byte	0xa54
 1691 0a2f 08       		.uleb128 0x8
 1692 0a30 38080000 		.4byte	.LASF149
 1693 0a34 11       		.byte	0x11
 1694 0a35 3A       		.byte	0x3a
 1695 0a36 9B020000 		.4byte	0x29b
 1696 0a3a 00       		.byte	0
 1697 0a3b 08       		.uleb128 0x8
 1698 0a3c C4000000 		.4byte	.LASF150
 1699 0a40 11       		.byte	0x11
 1700 0a41 3C       		.byte	0x3c
 1701 0a42 71020000 		.4byte	0x271
 1702 0a46 08       		.byte	0x8
 1703 0a47 08       		.uleb128 0x8
 1704 0a48 5B0A0000 		.4byte	.LASF151
 1705 0a4c 11       		.byte	0x11
 1706 0a4d 3E       		.byte	0x3e
 1707 0a4e AF0B0000 		.4byte	0xbaf
 1708 0a52 0C       		.byte	0xc
 1709 0a53 00       		.byte	0
 1710 0a54 0B       		.uleb128 0xb
ARM GAS  /tmp/ccDUvqkW.s 			page 31


 1711 0a55 04       		.byte	0x4
 1712 0a56 230A0000 		.4byte	0xa23
 1713 0a5a 0B       		.uleb128 0xb
 1714 0a5b 04       		.byte	0x4
 1715 0a5c 6C0A0000 		.4byte	0xa6c
 1716 0a60 04       		.uleb128 0x4
 1717 0a61 5A0A0000 		.4byte	0xa5a
 1718 0a65 05       		.uleb128 0x5
 1719 0a66 01       		.byte	0x1
 1720 0a67 08       		.byte	0x8
 1721 0a68 82000000 		.4byte	.LASF152
 1722 0a6c 06       		.uleb128 0x6
 1723 0a6d 650A0000 		.4byte	0xa65
 1724 0a71 0B       		.uleb128 0xb
 1725 0a72 04       		.byte	0x4
 1726 0a73 4E070000 		.4byte	0x74e
 1727 0a77 0B       		.uleb128 0xb
 1728 0a78 04       		.byte	0x4
 1729 0a79 50030000 		.4byte	0x350
 1730 0a7d 12       		.uleb128 0x12
 1731 0a7e 4E070000 		.4byte	0x74e
 1732 0a82 8D0A0000 		.4byte	0xa8d
 1733 0a86 13       		.uleb128 0x13
 1734 0a87 A2040000 		.4byte	0x4a2
 1735 0a8b 1B       		.byte	0x1b
 1736 0a8c 00       		.byte	0
 1737 0a8d 1C       		.uleb128 0x1c
 1738 0a8e 636800   		.ascii	"ch\000"
 1739 0a91 0B       		.byte	0xb
 1740 0a92 0902     		.2byte	0x209
 1741 0a94 45040000 		.4byte	0x445
 1742 0a98 15       		.uleb128 0x15
 1743 0a99 16       		.byte	0x16
 1744 0a9a 12       		.byte	0x12
 1745 0a9b 34       		.byte	0x34
 1746 0a9c 790B0000 		.4byte	0xb79
 1747 0aa0 08       		.uleb128 0x8
 1748 0aa1 12090000 		.4byte	.LASF154
 1749 0aa5 12       		.byte	0x12
 1750 0aa6 35       		.byte	0x35
 1751 0aa7 790B0000 		.4byte	0xb79
 1752 0aab 00       		.byte	0
 1753 0aac 08       		.uleb128 0x8
 1754 0aad 07070000 		.4byte	.LASF155
 1755 0ab1 12       		.byte	0x12
 1756 0ab2 36       		.byte	0x36
 1757 0ab3 B9000000 		.4byte	0xb9
 1758 0ab7 04       		.byte	0x4
 1759 0ab8 08       		.uleb128 0x8
 1760 0ab9 8C070000 		.4byte	.LASF156
 1761 0abd 12       		.byte	0x12
 1762 0abe 37       		.byte	0x37
 1763 0abf B9000000 		.4byte	0xb9
 1764 0ac3 05       		.byte	0x5
 1765 0ac4 08       		.uleb128 0x8
 1766 0ac5 18080000 		.4byte	.LASF157
 1767 0ac9 12       		.byte	0x12
ARM GAS  /tmp/ccDUvqkW.s 			page 32


 1768 0aca 38       		.byte	0x38
 1769 0acb C9000000 		.4byte	0xc9
 1770 0acf 06       		.byte	0x6
 1771 0ad0 08       		.uleb128 0x8
 1772 0ad1 BD010000 		.4byte	.LASF158
 1773 0ad5 12       		.byte	0x12
 1774 0ad6 39       		.byte	0x39
 1775 0ad7 B9000000 		.4byte	0xb9
 1776 0adb 08       		.byte	0x8
 1777 0adc 08       		.uleb128 0x8
 1778 0add 55020000 		.4byte	.LASF159
 1779 0ae1 12       		.byte	0x12
 1780 0ae2 3A       		.byte	0x3a
 1781 0ae3 B9000000 		.4byte	0xb9
 1782 0ae7 09       		.byte	0x9
 1783 0ae8 08       		.uleb128 0x8
 1784 0ae9 BB030000 		.4byte	.LASF160
 1785 0aed 12       		.byte	0x12
 1786 0aee 3B       		.byte	0x3b
 1787 0aef B9000000 		.4byte	0xb9
 1788 0af3 0A       		.byte	0xa
 1789 0af4 08       		.uleb128 0x8
 1790 0af5 D7080000 		.4byte	.LASF161
 1791 0af9 12       		.byte	0x12
 1792 0afa 3C       		.byte	0x3c
 1793 0afb B9000000 		.4byte	0xb9
 1794 0aff 0B       		.byte	0xb
 1795 0b00 08       		.uleb128 0x8
 1796 0b01 2E050000 		.4byte	.LASF162
 1797 0b05 12       		.byte	0x12
 1798 0b06 3D       		.byte	0x3d
 1799 0b07 B9000000 		.4byte	0xb9
 1800 0b0b 0C       		.byte	0xc
 1801 0b0c 08       		.uleb128 0x8
 1802 0b0d 6E0A0000 		.4byte	.LASF163
 1803 0b11 12       		.byte	0x12
 1804 0b12 3E       		.byte	0x3e
 1805 0b13 B9000000 		.4byte	0xb9
 1806 0b17 0D       		.byte	0xd
 1807 0b18 08       		.uleb128 0x8
 1808 0b19 B7000000 		.4byte	.LASF164
 1809 0b1d 12       		.byte	0x12
 1810 0b1e 3F       		.byte	0x3f
 1811 0b1f B9000000 		.4byte	0xb9
 1812 0b23 0E       		.byte	0xe
 1813 0b24 08       		.uleb128 0x8
 1814 0b25 13010000 		.4byte	.LASF165
 1815 0b29 12       		.byte	0x12
 1816 0b2a 40       		.byte	0x40
 1817 0b2b B9000000 		.4byte	0xb9
 1818 0b2f 0F       		.byte	0xf
 1819 0b30 08       		.uleb128 0x8
 1820 0b31 48050000 		.4byte	.LASF166
 1821 0b35 12       		.byte	0x12
 1822 0b36 41       		.byte	0x41
 1823 0b37 B9000000 		.4byte	0xb9
 1824 0b3b 10       		.byte	0x10
ARM GAS  /tmp/ccDUvqkW.s 			page 33


 1825 0b3c 08       		.uleb128 0x8
 1826 0b3d 64090000 		.4byte	.LASF167
 1827 0b41 12       		.byte	0x12
 1828 0b42 43       		.byte	0x43
 1829 0b43 B9000000 		.4byte	0xb9
 1830 0b47 11       		.byte	0x11
 1831 0b48 08       		.uleb128 0x8
 1832 0b49 8E010000 		.4byte	.LASF168
 1833 0b4d 12       		.byte	0x12
 1834 0b4e 44       		.byte	0x44
 1835 0b4f B9000000 		.4byte	0xb9
 1836 0b53 12       		.byte	0x12
 1837 0b54 08       		.uleb128 0x8
 1838 0b55 FB060000 		.4byte	.LASF169
 1839 0b59 12       		.byte	0x12
 1840 0b5a 45       		.byte	0x45
 1841 0b5b B9000000 		.4byte	0xb9
 1842 0b5f 13       		.byte	0x13
 1843 0b60 08       		.uleb128 0x8
 1844 0b61 D7030000 		.4byte	.LASF170
 1845 0b65 12       		.byte	0x12
 1846 0b66 46       		.byte	0x46
 1847 0b67 B9000000 		.4byte	0xb9
 1848 0b6b 14       		.byte	0x14
 1849 0b6c 08       		.uleb128 0x8
 1850 0b6d C2080000 		.4byte	.LASF171
 1851 0b71 12       		.byte	0x12
 1852 0b72 48       		.byte	0x48
 1853 0b73 B9000000 		.4byte	0xb9
 1854 0b77 15       		.byte	0x15
 1855 0b78 00       		.byte	0
 1856 0b79 12       		.uleb128 0x12
 1857 0b7a 650A0000 		.4byte	0xa65
 1858 0b7e 890B0000 		.4byte	0xb89
 1859 0b82 13       		.uleb128 0x13
 1860 0b83 A2040000 		.4byte	0x4a2
 1861 0b87 03       		.byte	0x3
 1862 0b88 00       		.byte	0
 1863 0b89 03       		.uleb128 0x3
 1864 0b8a BB070000 		.4byte	.LASF172
 1865 0b8e 12       		.byte	0x12
 1866 0b8f 49       		.byte	0x49
 1867 0b90 980A0000 		.4byte	0xa98
 1868 0b94 06       		.uleb128 0x6
 1869 0b95 890B0000 		.4byte	0xb89
 1870 0b99 14       		.uleb128 0x14
 1871 0b9a CC0A0000 		.4byte	.LASF173
 1872 0b9e 12       		.byte	0x12
 1873 0b9f 6E       		.byte	0x6e
 1874 0ba0 940B0000 		.4byte	0xb94
 1875 0ba4 03       		.uleb128 0x3
 1876 0ba5 A2090000 		.4byte	.LASF174
 1877 0ba9 11       		.byte	0x11
 1878 0baa 34       		.byte	0x34
 1879 0bab 230A0000 		.4byte	0xa23
 1880 0baf 0B       		.uleb128 0xb
 1881 0bb0 04       		.byte	0x4
ARM GAS  /tmp/ccDUvqkW.s 			page 34


 1882 0bb1 A40B0000 		.4byte	0xba4
 1883 0bb5 03       		.uleb128 0x3
 1884 0bb6 20000000 		.4byte	.LASF175
 1885 0bba 14       		.byte	0x14
 1886 0bbb 34       		.byte	0x34
 1887 0bbc C00B0000 		.4byte	0xbc0
 1888 0bc0 07       		.uleb128 0x7
 1889 0bc1 9B060000 		.4byte	.LASF176
 1890 0bc5 14       		.byte	0x14
 1891 0bc6 14       		.byte	0x14
 1892 0bc7 39       		.byte	0x39
 1893 0bc8 090C0000 		.4byte	0xc09
 1894 0bcc 08       		.uleb128 0x8
 1895 0bcd 5A080000 		.4byte	.LASF177
 1896 0bd1 14       		.byte	0x14
 1897 0bd2 3A       		.byte	0x3a
 1898 0bd3 090C0000 		.4byte	0xc09
 1899 0bd7 00       		.byte	0
 1900 0bd8 08       		.uleb128 0x8
 1901 0bd9 FC080000 		.4byte	.LASF178
 1902 0bdd 14       		.byte	0x14
 1903 0bde 3D       		.byte	0x3d
 1904 0bdf 71020000 		.4byte	0x271
 1905 0be3 04       		.byte	0x4
 1906 0be4 08       		.uleb128 0x8
 1907 0be5 F2080000 		.4byte	.LASF179
 1908 0be9 14       		.byte	0x14
 1909 0bea 3F       		.byte	0x3f
 1910 0beb 36010000 		.4byte	0x136
 1911 0bef 08       		.byte	0x8
 1912 0bf0 08       		.uleb128 0x8
 1913 0bf1 2F0B0000 		.4byte	.LASF180
 1914 0bf5 14       		.byte	0x14
 1915 0bf6 41       		.byte	0x41
 1916 0bf7 41010000 		.4byte	0x141
 1917 0bfb 0C       		.byte	0xc
 1918 0bfc 08       		.uleb128 0x8
 1919 0bfd 9E030000 		.4byte	.LASF181
 1920 0c01 14       		.byte	0x14
 1921 0c02 43       		.byte	0x43
 1922 0c03 41010000 		.4byte	0x141
 1923 0c07 10       		.byte	0x10
 1924 0c08 00       		.byte	0
 1925 0c09 0B       		.uleb128 0xb
 1926 0c0a 04       		.byte	0x4
 1927 0c0b B50B0000 		.4byte	0xbb5
 1928 0c0f 07       		.uleb128 0x7
 1929 0c10 A0000000 		.4byte	.LASF182
 1930 0c14 04       		.byte	0x4
 1931 0c15 14       		.byte	0x14
 1932 0c16 4A       		.byte	0x4a
 1933 0c17 280C0000 		.4byte	0xc28
 1934 0c1b 08       		.uleb128 0x8
 1935 0c1c 100A0000 		.4byte	.LASF183
 1936 0c20 14       		.byte	0x14
 1937 0c21 4B       		.byte	0x4b
 1938 0c22 090C0000 		.4byte	0xc09
ARM GAS  /tmp/ccDUvqkW.s 			page 35


 1939 0c26 00       		.byte	0
 1940 0c27 00       		.byte	0
 1941 0c28 03       		.uleb128 0x3
 1942 0c29 10030000 		.4byte	.LASF184
 1943 0c2d 14       		.byte	0x14
 1944 0c2e 4E       		.byte	0x4e
 1945 0c2f 0F0C0000 		.4byte	0xc0f
 1946 0c33 05       		.uleb128 0x5
 1947 0c34 01       		.byte	0x1
 1948 0c35 02       		.byte	0x2
 1949 0c36 73070000 		.4byte	.LASF185
 1950 0c3a 03       		.uleb128 0x3
 1951 0c3b 4B030000 		.4byte	.LASF186
 1952 0c3f 15       		.byte	0x15
 1953 0c40 3F       		.byte	0x3f
 1954 0c41 450C0000 		.4byte	0xc45
 1955 0c45 07       		.uleb128 0x7
 1956 0c46 7B0A0000 		.4byte	.LASF187
 1957 0c4a 24       		.byte	0x24
 1958 0c4b 15       		.byte	0x15
 1959 0c4c 4D       		.byte	0x4d
 1960 0c4d B20C0000 		.4byte	0xcb2
 1961 0c51 08       		.uleb128 0x8
 1962 0c52 4B020000 		.4byte	.LASF188
 1963 0c56 15       		.byte	0x15
 1964 0c57 4E       		.byte	0x4e
 1965 0c58 9B020000 		.4byte	0x29b
 1966 0c5c 00       		.byte	0
 1967 0c5d 08       		.uleb128 0x8
 1968 0c5e 20090000 		.4byte	.LASF189
 1969 0c62 15       		.byte	0x15
 1970 0c63 4F       		.byte	0x4f
 1971 0c64 37000000 		.4byte	0x37
 1972 0c68 08       		.byte	0x8
 1973 0c69 08       		.uleb128 0x8
 1974 0c6a 520B0000 		.4byte	.LASF190
 1975 0c6e 15       		.byte	0x15
 1976 0c6f 50       		.byte	0x50
 1977 0c70 D40C0000 		.4byte	0xcd4
 1978 0c74 0C       		.byte	0xc
 1979 0c75 08       		.uleb128 0x8
 1980 0c76 34090000 		.4byte	.LASF191
 1981 0c7a 15       		.byte	0x15
 1982 0c7b 51       		.byte	0x51
 1983 0c7c D40C0000 		.4byte	0xcd4
 1984 0c80 10       		.byte	0x10
 1985 0c81 08       		.uleb128 0x8
 1986 0c82 E5050000 		.4byte	.LASF192
 1987 0c86 15       		.byte	0x15
 1988 0c87 53       		.byte	0x53
 1989 0c88 D40C0000 		.4byte	0xcd4
 1990 0c8c 14       		.byte	0x14
 1991 0c8d 08       		.uleb128 0x8
 1992 0c8e 270B0000 		.4byte	.LASF193
 1993 0c92 15       		.byte	0x15
 1994 0c93 54       		.byte	0x54
 1995 0c94 D40C0000 		.4byte	0xcd4
ARM GAS  /tmp/ccDUvqkW.s 			page 36


 1996 0c98 18       		.byte	0x18
 1997 0c99 08       		.uleb128 0x8
 1998 0c9a 1F050000 		.4byte	.LASF194
 1999 0c9e 15       		.byte	0x15
 2000 0c9f 55       		.byte	0x55
 2001 0ca0 B20C0000 		.4byte	0xcb2
 2002 0ca4 1C       		.byte	0x1c
 2003 0ca5 08       		.uleb128 0x8
 2004 0ca6 3C010000 		.4byte	.LASF195
 2005 0caa 15       		.byte	0x15
 2006 0cab 56       		.byte	0x56
 2007 0cac 4E030000 		.4byte	0x34e
 2008 0cb0 20       		.byte	0x20
 2009 0cb1 00       		.byte	0
 2010 0cb2 03       		.uleb128 0x3
 2011 0cb3 3F0A0000 		.4byte	.LASF196
 2012 0cb7 15       		.byte	0x15
 2013 0cb8 42       		.byte	0x42
 2014 0cb9 BD0C0000 		.4byte	0xcbd
 2015 0cbd 0B       		.uleb128 0xb
 2016 0cbe 04       		.byte	0x4
 2017 0cbf C30C0000 		.4byte	0xcc3
 2018 0cc3 0D       		.uleb128 0xd
 2019 0cc4 CE0C0000 		.4byte	0xcce
 2020 0cc8 0E       		.uleb128 0xe
 2021 0cc9 CE0C0000 		.4byte	0xcce
 2022 0ccd 00       		.byte	0
 2023 0cce 0B       		.uleb128 0xb
 2024 0ccf 04       		.byte	0x4
 2025 0cd0 3A0C0000 		.4byte	0xc3a
 2026 0cd4 0B       		.uleb128 0xb
 2027 0cd5 04       		.byte	0x4
 2028 0cd6 B9000000 		.4byte	0xb9
 2029 0cda 03       		.uleb128 0x3
 2030 0cdb 3B060000 		.4byte	.LASF197
 2031 0cdf 15       		.byte	0x15
 2032 0ce0 64       		.byte	0x64
 2033 0ce1 3A0C0000 		.4byte	0xc3a
 2034 0ce5 03       		.uleb128 0x3
 2035 0ce6 0F070000 		.4byte	.LASF198
 2036 0cea 15       		.byte	0x15
 2037 0ceb 71       		.byte	0x71
 2038 0cec 3A0C0000 		.4byte	0xc3a
 2039 0cf0 1D       		.uleb128 0x1d
 2040 0cf1 2C000000 		.4byte	0x2c
 2041 0cf5 090D0000 		.4byte	0xd09
 2042 0cf9 0E       		.uleb128 0xe
 2043 0cfa 4E030000 		.4byte	0x34e
 2044 0cfe 0E       		.uleb128 0xe
 2045 0cff 090D0000 		.4byte	0xd09
 2046 0d03 0E       		.uleb128 0xe
 2047 0d04 2C000000 		.4byte	0x2c
 2048 0d08 00       		.byte	0
 2049 0d09 0B       		.uleb128 0xb
 2050 0d0a 04       		.byte	0x4
 2051 0d0b C4000000 		.4byte	0xc4
 2052 0d0f 0B       		.uleb128 0xb
ARM GAS  /tmp/ccDUvqkW.s 			page 37


 2053 0d10 04       		.byte	0x4
 2054 0d11 F00C0000 		.4byte	0xcf0
 2055 0d15 1D       		.uleb128 0x1d
 2056 0d16 2C000000 		.4byte	0x2c
 2057 0d1a 2E0D0000 		.4byte	0xd2e
 2058 0d1e 0E       		.uleb128 0xe
 2059 0d1f 4E030000 		.4byte	0x34e
 2060 0d23 0E       		.uleb128 0xe
 2061 0d24 D40C0000 		.4byte	0xcd4
 2062 0d28 0E       		.uleb128 0xe
 2063 0d29 2C000000 		.4byte	0x2c
 2064 0d2d 00       		.byte	0
 2065 0d2e 0B       		.uleb128 0xb
 2066 0d2f 04       		.byte	0x4
 2067 0d30 150D0000 		.4byte	0xd15
 2068 0d34 1D       		.uleb128 0x1d
 2069 0d35 2B010000 		.4byte	0x12b
 2070 0d39 480D0000 		.4byte	0xd48
 2071 0d3d 0E       		.uleb128 0xe
 2072 0d3e 4E030000 		.4byte	0x34e
 2073 0d42 0E       		.uleb128 0xe
 2074 0d43 B9000000 		.4byte	0xb9
 2075 0d47 00       		.byte	0
 2076 0d48 0B       		.uleb128 0xb
 2077 0d49 04       		.byte	0x4
 2078 0d4a 340D0000 		.4byte	0xd34
 2079 0d4e 1D       		.uleb128 0x1d
 2080 0d4f 2B010000 		.4byte	0x12b
 2081 0d53 5D0D0000 		.4byte	0xd5d
 2082 0d57 0E       		.uleb128 0xe
 2083 0d58 4E030000 		.4byte	0x34e
 2084 0d5c 00       		.byte	0
 2085 0d5d 0B       		.uleb128 0xb
 2086 0d5e 04       		.byte	0x4
 2087 0d5f 4E0D0000 		.4byte	0xd4e
 2088 0d63 15       		.uleb128 0x15
 2089 0d64 14       		.byte	0x14
 2090 0d65 16       		.byte	0x16
 2091 0d66 E4       		.byte	0xe4
 2092 0d67 C00D0000 		.4byte	0xdc0
 2093 0d6b 16       		.uleb128 0x16
 2094 0d6c 646D6100 		.ascii	"dma\000"
 2095 0d70 16       		.byte	0x16
 2096 0d71 E5       		.byte	0xe5
 2097 0d72 C00D0000 		.4byte	0xdc0
 2098 0d76 00       		.byte	0
 2099 0d77 08       		.uleb128 0x8
 2100 0d78 C5070000 		.4byte	.LASF199
 2101 0d7c 16       		.byte	0x16
 2102 0d7d E6       		.byte	0xe6
 2103 0d7e C60D0000 		.4byte	0xdc6
 2104 0d82 04       		.byte	0x4
 2105 0d83 08       		.uleb128 0x8
 2106 0d84 35060000 		.4byte	.LASF200
 2107 0d88 16       		.byte	0x16
 2108 0d89 E7       		.byte	0xe7
 2109 0d8a E4000000 		.4byte	0xe4
ARM GAS  /tmp/ccDUvqkW.s 			page 38


 2110 0d8e 08       		.byte	0x8
 2111 0d8f 08       		.uleb128 0x8
 2112 0d90 A7020000 		.4byte	.LASF201
 2113 0d94 16       		.byte	0x16
 2114 0d95 E9       		.byte	0xe9
 2115 0d96 CC0D0000 		.4byte	0xdcc
 2116 0d9a 0C       		.byte	0xc
 2117 0d9b 08       		.uleb128 0x8
 2118 0d9c 8E020000 		.4byte	.LASF202
 2119 0da0 16       		.byte	0x16
 2120 0da1 EA       		.byte	0xea
 2121 0da2 B9000000 		.4byte	0xb9
 2122 0da6 10       		.byte	0x10
 2123 0da7 08       		.uleb128 0x8
 2124 0da8 410B0000 		.4byte	.LASF203
 2125 0dac 16       		.byte	0x16
 2126 0dad EC       		.byte	0xec
 2127 0dae B9000000 		.4byte	0xb9
 2128 0db2 11       		.byte	0x11
 2129 0db3 08       		.uleb128 0x8
 2130 0db4 09030000 		.4byte	.LASF204
 2131 0db8 16       		.byte	0x16
 2132 0db9 ED       		.byte	0xed
 2133 0dba B9000000 		.4byte	0xb9
 2134 0dbe 12       		.byte	0x12
 2135 0dbf 00       		.byte	0
 2136 0dc0 0B       		.uleb128 0xb
 2137 0dc1 04       		.byte	0x4
 2138 0dc2 99050000 		.4byte	0x599
 2139 0dc6 0B       		.uleb128 0xb
 2140 0dc7 04       		.byte	0x4
 2141 0dc8 45050000 		.4byte	0x545
 2142 0dcc 0B       		.uleb128 0xb
 2143 0dcd 04       		.byte	0x4
 2144 0dce EF000000 		.4byte	0xef
 2145 0dd2 03       		.uleb128 0x3
 2146 0dd3 AE0A0000 		.4byte	.LASF205
 2147 0dd7 16       		.byte	0x16
 2148 0dd8 EE       		.byte	0xee
 2149 0dd9 630D0000 		.4byte	0xd63
 2150 0ddd 06       		.uleb128 0x6
 2151 0dde D20D0000 		.4byte	0xdd2
 2152 0de2 03       		.uleb128 0x3
 2153 0de3 39050000 		.4byte	.LASF206
 2154 0de7 16       		.byte	0x16
 2155 0de8 F7       		.byte	0xf7
 2156 0de9 ED0D0000 		.4byte	0xded
 2157 0ded 0B       		.uleb128 0xb
 2158 0dee 04       		.byte	0x4
 2159 0def F30D0000 		.4byte	0xdf3
 2160 0df3 0D       		.uleb128 0xd
 2161 0df4 030E0000 		.4byte	0xe03
 2162 0df8 0E       		.uleb128 0xe
 2163 0df9 4E030000 		.4byte	0x34e
 2164 0dfd 0E       		.uleb128 0xe
 2165 0dfe E4000000 		.4byte	0xe4
 2166 0e02 00       		.byte	0
ARM GAS  /tmp/ccDUvqkW.s 			page 39


 2167 0e03 15       		.uleb128 0x15
 2168 0e04 08       		.byte	0x8
 2169 0e05 16       		.byte	0x16
 2170 0e06 FC       		.byte	0xfc
 2171 0e07 240E0000 		.4byte	0xe24
 2172 0e0b 08       		.uleb128 0x8
 2173 0e0c CE080000 		.4byte	.LASF207
 2174 0e10 16       		.byte	0x16
 2175 0e11 FD       		.byte	0xfd
 2176 0e12 E20D0000 		.4byte	0xde2
 2177 0e16 00       		.byte	0
 2178 0e17 08       		.uleb128 0x8
 2179 0e18 1E070000 		.4byte	.LASF208
 2180 0e1c 16       		.byte	0x16
 2181 0e1d FE       		.byte	0xfe
 2182 0e1e 4E030000 		.4byte	0x34e
 2183 0e22 04       		.byte	0x4
 2184 0e23 00       		.byte	0
 2185 0e24 03       		.uleb128 0x3
 2186 0e25 B5020000 		.4byte	.LASF209
 2187 0e29 16       		.byte	0x16
 2188 0e2a FF       		.byte	0xff
 2189 0e2b 030E0000 		.4byte	0xe03
 2190 0e2f 12       		.uleb128 0x12
 2191 0e30 DD0D0000 		.4byte	0xddd
 2192 0e34 3F0E0000 		.4byte	0xe3f
 2193 0e38 13       		.uleb128 0x13
 2194 0e39 A2040000 		.4byte	0x4a2
 2195 0e3d 04       		.byte	0x4
 2196 0e3e 00       		.byte	0
 2197 0e3f 06       		.uleb128 0x6
 2198 0e40 2F0E0000 		.4byte	0xe2f
 2199 0e44 1E       		.uleb128 0x1e
 2200 0e45 020B0000 		.4byte	.LASF210
 2201 0e49 16       		.byte	0x16
 2202 0e4a CD01     		.2byte	0x1cd
 2203 0e4c 3F0E0000 		.4byte	0xe3f
 2204 0e50 12       		.uleb128 0x12
 2205 0e51 240E0000 		.4byte	0xe24
 2206 0e55 600E0000 		.4byte	0xe60
 2207 0e59 13       		.uleb128 0x13
 2208 0e5a A2040000 		.4byte	0x4a2
 2209 0e5e 04       		.byte	0x4
 2210 0e5f 00       		.byte	0
 2211 0e60 1E       		.uleb128 0x1e
 2212 0e61 B1050000 		.4byte	.LASF211
 2213 0e65 16       		.byte	0x16
 2214 0e66 CE01     		.2byte	0x1ce
 2215 0e68 500E0000 		.4byte	0xe50
 2216 0e6c 1D       		.uleb128 0x1d
 2217 0e6d 2B010000 		.4byte	0x12b
 2218 0e71 850E0000 		.4byte	0xe85
 2219 0e75 0E       		.uleb128 0xe
 2220 0e76 4E030000 		.4byte	0x34e
 2221 0e7a 0E       		.uleb128 0xe
 2222 0e7b B9000000 		.4byte	0xb9
 2223 0e7f 0E       		.uleb128 0xe
ARM GAS  /tmp/ccDUvqkW.s 			page 40


 2224 0e80 57010000 		.4byte	0x157
 2225 0e84 00       		.byte	0
 2226 0e85 0B       		.uleb128 0xb
 2227 0e86 04       		.byte	0x4
 2228 0e87 6C0E0000 		.4byte	0xe6c
 2229 0e8b 1D       		.uleb128 0x1d
 2230 0e8c 2B010000 		.4byte	0x12b
 2231 0e90 9F0E0000 		.4byte	0xe9f
 2232 0e94 0E       		.uleb128 0xe
 2233 0e95 4E030000 		.4byte	0x34e
 2234 0e99 0E       		.uleb128 0xe
 2235 0e9a 57010000 		.4byte	0x157
 2236 0e9e 00       		.byte	0
 2237 0e9f 0B       		.uleb128 0xb
 2238 0ea0 04       		.byte	0x4
 2239 0ea1 8B0E0000 		.4byte	0xe8b
 2240 0ea5 1D       		.uleb128 0x1d
 2241 0ea6 2C000000 		.4byte	0x2c
 2242 0eaa C30E0000 		.4byte	0xec3
 2243 0eae 0E       		.uleb128 0xe
 2244 0eaf 4E030000 		.4byte	0x34e
 2245 0eb3 0E       		.uleb128 0xe
 2246 0eb4 090D0000 		.4byte	0xd09
 2247 0eb8 0E       		.uleb128 0xe
 2248 0eb9 2C000000 		.4byte	0x2c
 2249 0ebd 0E       		.uleb128 0xe
 2250 0ebe 57010000 		.4byte	0x157
 2251 0ec2 00       		.byte	0
 2252 0ec3 0B       		.uleb128 0xb
 2253 0ec4 04       		.byte	0x4
 2254 0ec5 A50E0000 		.4byte	0xea5
 2255 0ec9 1D       		.uleb128 0x1d
 2256 0eca 2C000000 		.4byte	0x2c
 2257 0ece E70E0000 		.4byte	0xee7
 2258 0ed2 0E       		.uleb128 0xe
 2259 0ed3 4E030000 		.4byte	0x34e
 2260 0ed7 0E       		.uleb128 0xe
 2261 0ed8 D40C0000 		.4byte	0xcd4
 2262 0edc 0E       		.uleb128 0xe
 2263 0edd 2C000000 		.4byte	0x2c
 2264 0ee1 0E       		.uleb128 0xe
 2265 0ee2 57010000 		.4byte	0x157
 2266 0ee6 00       		.byte	0
 2267 0ee7 0B       		.uleb128 0xb
 2268 0ee8 04       		.byte	0x4
 2269 0ee9 C90E0000 		.4byte	0xec9
 2270 0eed 15       		.uleb128 0x15
 2271 0eee 1C       		.byte	0x1c
 2272 0eef 17       		.byte	0x17
 2273 0ef0 F5       		.byte	0xf5
 2274 0ef1 4C0F0000 		.4byte	0xf4c
 2275 0ef5 08       		.uleb128 0x8
 2276 0ef6 68050000 		.4byte	.LASF212
 2277 0efa 17       		.byte	0x17
 2278 0efb F7       		.byte	0xf7
 2279 0efc E4000000 		.4byte	0xe4
 2280 0f00 00       		.byte	0
ARM GAS  /tmp/ccDUvqkW.s 			page 41


 2281 0f01 08       		.uleb128 0x8
 2282 0f02 87020000 		.4byte	.LASF213
 2283 0f06 17       		.byte	0x17
 2284 0f07 F9       		.byte	0xf9
 2285 0f08 E4000000 		.4byte	0xe4
 2286 0f0c 04       		.byte	0x4
 2287 0f0d 08       		.uleb128 0x8
 2288 0f0e 150B0000 		.4byte	.LASF214
 2289 0f12 17       		.byte	0x17
 2290 0f13 FB       		.byte	0xfb
 2291 0f14 E4000000 		.4byte	0xe4
 2292 0f18 08       		.byte	0x8
 2293 0f19 08       		.uleb128 0x8
 2294 0f1a C9060000 		.4byte	.LASF215
 2295 0f1e 17       		.byte	0x17
 2296 0f1f FD       		.byte	0xfd
 2297 0f20 E4000000 		.4byte	0xe4
 2298 0f24 0C       		.byte	0xc
 2299 0f25 16       		.uleb128 0x16
 2300 0f26 6F647200 		.ascii	"odr\000"
 2301 0f2a 17       		.byte	0x17
 2302 0f2b FF       		.byte	0xff
 2303 0f2c E4000000 		.4byte	0xe4
 2304 0f30 10       		.byte	0x10
 2305 0f31 0A       		.uleb128 0xa
 2306 0f32 34070000 		.4byte	.LASF216
 2307 0f36 17       		.byte	0x17
 2308 0f37 0101     		.2byte	0x101
 2309 0f39 E4000000 		.4byte	0xe4
 2310 0f3d 14       		.byte	0x14
 2311 0f3e 0A       		.uleb128 0xa
 2312 0f3f 2F070000 		.4byte	.LASF217
 2313 0f43 17       		.byte	0x17
 2314 0f44 0301     		.2byte	0x103
 2315 0f46 E4000000 		.4byte	0xe4
 2316 0f4a 18       		.byte	0x18
 2317 0f4b 00       		.byte	0
 2318 0f4c 18       		.uleb128 0x18
 2319 0f4d 38030000 		.4byte	.LASF218
 2320 0f51 17       		.byte	0x17
 2321 0f52 0401     		.2byte	0x104
 2322 0f54 ED0E0000 		.4byte	0xeed
 2323 0f58 17       		.uleb128 0x17
 2324 0f59 70       		.byte	0x70
 2325 0f5a 17       		.byte	0x17
 2326 0f5b 0D01     		.2byte	0x10d
 2327 0f5d 960F0000 		.4byte	0xf96
 2328 0f61 0A       		.uleb128 0xa
 2329 0f62 6F080000 		.4byte	.LASF219
 2330 0f66 17       		.byte	0x17
 2331 0f67 1001     		.2byte	0x110
 2332 0f69 4C0F0000 		.4byte	0xf4c
 2333 0f6d 00       		.byte	0
 2334 0f6e 0A       		.uleb128 0xa
 2335 0f6f DE040000 		.4byte	.LASF220
 2336 0f73 17       		.byte	0x17
 2337 0f74 1401     		.2byte	0x114
ARM GAS  /tmp/ccDUvqkW.s 			page 42


 2338 0f76 4C0F0000 		.4byte	0xf4c
 2339 0f7a 1C       		.byte	0x1c
 2340 0f7b 0A       		.uleb128 0xa
 2341 0f7c 7B000000 		.4byte	.LASF221
 2342 0f80 17       		.byte	0x17
 2343 0f81 1801     		.2byte	0x118
 2344 0f83 4C0F0000 		.4byte	0xf4c
 2345 0f87 38       		.byte	0x38
 2346 0f88 0A       		.uleb128 0xa
 2347 0f89 FB0A0000 		.4byte	.LASF222
 2348 0f8d 17       		.byte	0x17
 2349 0f8e 2401     		.2byte	0x124
 2350 0f90 4C0F0000 		.4byte	0xf4c
 2351 0f94 54       		.byte	0x54
 2352 0f95 00       		.byte	0
 2353 0f96 18       		.uleb128 0x18
 2354 0f97 2A090000 		.4byte	.LASF223
 2355 0f9b 17       		.byte	0x17
 2356 0f9c 3A01     		.2byte	0x13a
 2357 0f9e 580F0000 		.4byte	0xf58
 2358 0fa2 06       		.uleb128 0x6
 2359 0fa3 960F0000 		.4byte	0xf96
 2360 0fa7 1E       		.uleb128 0x1e
 2361 0fa8 FE040000 		.4byte	.LASF224
 2362 0fac 17       		.byte	0x17
 2363 0fad 1E02     		.2byte	0x21e
 2364 0faf A20F0000 		.4byte	0xfa2
 2365 0fb3 1F       		.uleb128 0x1f
 2366 0fb4 01       		.byte	0x1
 2367 0fb5 63000000 		.4byte	0x63
 2368 0fb9 18       		.byte	0x18
 2369 0fba 55       		.byte	0x55
 2370 0fbb D20F0000 		.4byte	0xfd2
 2371 0fbf 20       		.uleb128 0x20
 2372 0fc0 08090000 		.4byte	.LASF225
 2373 0fc4 00       		.byte	0
 2374 0fc5 20       		.uleb128 0x20
 2375 0fc6 08040000 		.4byte	.LASF226
 2376 0fca 01       		.byte	0x1
 2377 0fcb 20       		.uleb128 0x20
 2378 0fcc CD070000 		.4byte	.LASF227
 2379 0fd0 02       		.byte	0x2
 2380 0fd1 00       		.byte	0
 2381 0fd2 03       		.uleb128 0x3
 2382 0fd3 F2030000 		.4byte	.LASF228
 2383 0fd7 18       		.byte	0x18
 2384 0fd8 59       		.byte	0x59
 2385 0fd9 B30F0000 		.4byte	0xfb3
 2386 0fdd 03       		.uleb128 0x3
 2387 0fde 3B000000 		.4byte	.LASF229
 2388 0fe2 18       		.byte	0x18
 2389 0fe3 5E       		.byte	0x5e
 2390 0fe4 E80F0000 		.4byte	0xfe8
 2391 0fe8 21       		.uleb128 0x21
 2392 0fe9 3B000000 		.4byte	.LASF229
 2393 0fed 5C01     		.2byte	0x15c
 2394 0fef 18       		.byte	0x18
ARM GAS  /tmp/ccDUvqkW.s 			page 43


 2395 0ff0 78       		.byte	0x78
 2396 0ff1 62100000 		.4byte	0x1062
 2397 0ff5 16       		.uleb128 0x16
 2398 0ff6 766D7400 		.ascii	"vmt\000"
 2399 0ffa 18       		.byte	0x18
 2400 0ffb 7A       		.byte	0x7a
 2401 0ffc EC100000 		.4byte	0x10ec
 2402 1000 00       		.byte	0
 2403 1001 08       		.uleb128 0x8
 2404 1002 94020000 		.4byte	.LASF230
 2405 1006 18       		.byte	0x18
 2406 1007 7B       		.byte	0x7b
 2407 1008 280C0000 		.4byte	0xc28
 2408 100c 04       		.byte	0x4
 2409 100d 08       		.uleb128 0x8
 2410 100e 180A0000 		.4byte	.LASF231
 2411 1012 18       		.byte	0x18
 2412 1013 7B       		.byte	0x7b
 2413 1014 D20F0000 		.4byte	0xfd2
 2414 1018 08       		.byte	0x8
 2415 1019 08       		.uleb128 0x8
 2416 101a 3B020000 		.4byte	.LASF232
 2417 101e 18       		.byte	0x18
 2418 101f 7B       		.byte	0x7b
 2419 1020 DA0C0000 		.4byte	0xcda
 2420 1024 0C       		.byte	0xc
 2421 1025 08       		.uleb128 0x8
 2422 1026 AB070000 		.4byte	.LASF233
 2423 102a 18       		.byte	0x18
 2424 102b 7B       		.byte	0x7b
 2425 102c E50C0000 		.4byte	0xce5
 2426 1030 30       		.byte	0x30
 2427 1031 16       		.uleb128 0x16
 2428 1032 696200   		.ascii	"ib\000"
 2429 1035 18       		.byte	0x18
 2430 1036 7B       		.byte	0x7b
 2431 1037 F2100000 		.4byte	0x10f2
 2432 103b 54       		.byte	0x54
 2433 103c 16       		.uleb128 0x16
 2434 103d 6F6200   		.ascii	"ob\000"
 2435 1040 18       		.byte	0x18
 2436 1041 7B       		.byte	0x7b
 2437 1042 F2100000 		.4byte	0x10f2
 2438 1046 D4       		.byte	0xd4
 2439 1047 22       		.uleb128 0x22
 2440 1048 72060000 		.4byte	.LASF234
 2441 104c 18       		.byte	0x18
 2442 104d 7B       		.byte	0x7b
 2443 104e 02110000 		.4byte	0x1102
 2444 1052 5401     		.2byte	0x154
 2445 1054 22       		.uleb128 0x22
 2446 1055 28050000 		.4byte	.LASF235
 2447 1059 18       		.byte	0x18
 2448 105a 7B       		.byte	0x7b
 2449 105b E4000000 		.4byte	0xe4
 2450 105f 5801     		.2byte	0x158
 2451 1061 00       		.byte	0
ARM GAS  /tmp/ccDUvqkW.s 			page 44


 2452 1062 1C       		.uleb128 0x1c
 2453 1063 53443200 		.ascii	"SD2\000"
 2454 1067 19       		.byte	0x19
 2455 1068 6901     		.2byte	0x169
 2456 106a DD0F0000 		.4byte	0xfdd
 2457 106e 1C       		.uleb128 0x1c
 2458 106f 53443500 		.ascii	"SD5\000"
 2459 1073 19       		.byte	0x19
 2460 1074 7201     		.2byte	0x172
 2461 1076 DD0F0000 		.4byte	0xfdd
 2462 107a 07       		.uleb128 0x7
 2463 107b DF070000 		.4byte	.LASF236
 2464 107f 20       		.byte	0x20
 2465 1080 18       		.byte	0x18
 2466 1081 6D       		.byte	0x6d
 2467 1082 E7100000 		.4byte	0x10e7
 2468 1086 08       		.uleb128 0x8
 2469 1087 95060000 		.4byte	.LASF237
 2470 108b 18       		.byte	0x18
 2471 108c 6E       		.byte	0x6e
 2472 108d 0F0D0000 		.4byte	0xd0f
 2473 1091 00       		.byte	0
 2474 1092 08       		.uleb128 0x8
 2475 1093 ED080000 		.4byte	.LASF238
 2476 1097 18       		.byte	0x18
 2477 1098 6E       		.byte	0x6e
 2478 1099 2E0D0000 		.4byte	0xd2e
 2479 109d 04       		.byte	0x4
 2480 109e 16       		.uleb128 0x16
 2481 109f 70757400 		.ascii	"put\000"
 2482 10a3 18       		.byte	0x18
 2483 10a4 6E       		.byte	0x6e
 2484 10a5 480D0000 		.4byte	0xd48
 2485 10a9 08       		.byte	0x8
 2486 10aa 16       		.uleb128 0x16
 2487 10ab 67657400 		.ascii	"get\000"
 2488 10af 18       		.byte	0x18
 2489 10b0 6E       		.byte	0x6e
 2490 10b1 5D0D0000 		.4byte	0xd5d
 2491 10b5 0C       		.byte	0xc
 2492 10b6 08       		.uleb128 0x8
 2493 10b7 A8030000 		.4byte	.LASF239
 2494 10bb 18       		.byte	0x18
 2495 10bc 6E       		.byte	0x6e
 2496 10bd 850E0000 		.4byte	0xe85
 2497 10c1 10       		.byte	0x10
 2498 10c2 08       		.uleb128 0x8
 2499 10c3 7F070000 		.4byte	.LASF240
 2500 10c7 18       		.byte	0x18
 2501 10c8 6E       		.byte	0x6e
 2502 10c9 9F0E0000 		.4byte	0xe9f
 2503 10cd 14       		.byte	0x14
 2504 10ce 08       		.uleb128 0x8
 2505 10cf E5010000 		.4byte	.LASF241
 2506 10d3 18       		.byte	0x18
 2507 10d4 6E       		.byte	0x6e
 2508 10d5 C30E0000 		.4byte	0xec3
ARM GAS  /tmp/ccDUvqkW.s 			page 45


 2509 10d9 18       		.byte	0x18
 2510 10da 08       		.uleb128 0x8
 2511 10db 840A0000 		.4byte	.LASF242
 2512 10df 18       		.byte	0x18
 2513 10e0 6E       		.byte	0x6e
 2514 10e1 E70E0000 		.4byte	0xee7
 2515 10e5 1C       		.byte	0x1c
 2516 10e6 00       		.byte	0
 2517 10e7 06       		.uleb128 0x6
 2518 10e8 7A100000 		.4byte	0x107a
 2519 10ec 0B       		.uleb128 0xb
 2520 10ed 04       		.byte	0x4
 2521 10ee E7100000 		.4byte	0x10e7
 2522 10f2 12       		.uleb128 0x12
 2523 10f3 B9000000 		.4byte	0xb9
 2524 10f7 02110000 		.4byte	0x1102
 2525 10fb 13       		.uleb128 0x13
 2526 10fc A2040000 		.4byte	0x4a2
 2527 1100 7F       		.byte	0x7f
 2528 1101 00       		.byte	0
 2529 1102 0B       		.uleb128 0xb
 2530 1103 04       		.byte	0x4
 2531 1104 37070000 		.4byte	0x737
 2532 1108 23       		.uleb128 0x23
 2533 1109 80080000 		.4byte	.LASF257
 2534 110d 05       		.byte	0x5
 2535 110e 0B01     		.2byte	0x10b
 2536 1110 00000000 		.4byte	.LFB183
 2537 1114 6C000000 		.4byte	.LFE183-.LFB183
 2538 1118 01       		.uleb128 0x1
 2539 1119 9C       		.byte	0x9c
 2540 111a 24       		.uleb128 0x24
 2541 111b C0060000 		.4byte	.LASF258
 2542 111f 05       		.byte	0x5
 2543 1120 EF       		.byte	0xef
 2544 1121 00000000 		.4byte	.LFB182
 2545 1125 40000000 		.4byte	.LFE182-.LFB182
 2546 1129 01       		.uleb128 0x1
 2547 112a 9C       		.byte	0x9c
 2548 112b 3E110000 		.4byte	0x113e
 2549 112f 25       		.uleb128 0x25
 2550 1130 1D0B0000 		.4byte	.LASF259
 2551 1134 05       		.byte	0x5
 2552 1135 F1       		.byte	0xf1
 2553 1136 43070000 		.4byte	0x743
 2554 113a 02       		.uleb128 0x2
 2555 113b 91       		.byte	0x91
 2556 113c 74       		.sleb128 -12
 2557 113d 00       		.byte	0
 2558 113e 26       		.uleb128 0x26
 2559 113f 67000000 		.4byte	.LASF243
 2560 1143 04       		.byte	0x4
 2561 1144 4702     		.2byte	0x247
 2562 1146 00000000 		.4byte	.LFB162
 2563 114a 0A000000 		.4byte	.LFE162-.LFB162
 2564 114e 01       		.uleb128 0x1
 2565 114f 9C       		.byte	0x9c
ARM GAS  /tmp/ccDUvqkW.s 			page 46


 2566 1150 26       		.uleb128 0x26
 2567 1151 AD080000 		.4byte	.LASF244
 2568 1155 04       		.byte	0x4
 2569 1156 0C02     		.2byte	0x20c
 2570 1158 00000000 		.4byte	.LFB159
 2571 115c 0A000000 		.4byte	.LFE159-.LFB159
 2572 1160 01       		.uleb128 0x1
 2573 1161 9C       		.byte	0x9c
 2574 1162 26       		.uleb128 0x26
 2575 1163 F5090000 		.4byte	.LASF245
 2576 1167 04       		.byte	0x4
 2577 1168 0102     		.2byte	0x201
 2578 116a 00000000 		.4byte	.LFB158
 2579 116e 0A000000 		.4byte	.LFE158-.LFB158
 2580 1172 01       		.uleb128 0x1
 2581 1173 9C       		.byte	0x9c
 2582 1174 26       		.uleb128 0x26
 2583 1175 8B030000 		.4byte	.LASF246
 2584 1179 03       		.byte	0x3
 2585 117a 9601     		.2byte	0x196
 2586 117c 00000000 		.4byte	.LFB80
 2587 1180 0E000000 		.4byte	.LFE80-.LFB80
 2588 1184 01       		.uleb128 0x1
 2589 1185 9C       		.byte	0x9c
 2590 1186 26       		.uleb128 0x26
 2591 1187 AC010000 		.4byte	.LASF247
 2592 118b 03       		.byte	0x3
 2593 118c 8201     		.2byte	0x182
 2594 118e 00000000 		.4byte	.LFB79
 2595 1192 0E000000 		.4byte	.LFE79-.LFB79
 2596 1196 01       		.uleb128 0x1
 2597 1197 9C       		.byte	0x9c
 2598 1198 26       		.uleb128 0x26
 2599 1199 AA090000 		.4byte	.LASF248
 2600 119d 01       		.byte	0x1
 2601 119e 6701     		.2byte	0x167
 2602 11a0 00000000 		.4byte	.LFB41
 2603 11a4 0A000000 		.4byte	.LFE41-.LFB41
 2604 11a8 01       		.uleb128 0x1
 2605 11a9 9C       		.byte	0x9c
 2606 11aa 26       		.uleb128 0x26
 2607 11ab 43010000 		.4byte	.LASF249
 2608 11af 01       		.byte	0x1
 2609 11b0 5D01     		.2byte	0x15d
 2610 11b2 00000000 		.4byte	.LFB40
 2611 11b6 0A000000 		.4byte	.LFE40-.LFB40
 2612 11ba 01       		.uleb128 0x1
 2613 11bb 9C       		.byte	0x9c
 2614 11bc 27       		.uleb128 0x27
 2615 11bd DD0A0000 		.4byte	.LASF250
 2616 11c1 01       		.byte	0x1
 2617 11c2 5301     		.2byte	0x153
 2618 11c4 00000000 		.4byte	.LFB39
 2619 11c8 06000000 		.4byte	.LFE39-.LFB39
 2620 11cc 01       		.uleb128 0x1
 2621 11cd 9C       		.byte	0x9c
 2622 11ce E3110000 		.4byte	0x11e3
ARM GAS  /tmp/ccDUvqkW.s 			page 47


 2623 11d2 28       		.uleb128 0x28
 2624 11d3 13120000 		.4byte	0x1213
 2625 11d7 00000000 		.4byte	.LBB8
 2626 11db 02000000 		.4byte	.LBE8-.LBB8
 2627 11df 01       		.byte	0x1
 2628 11e0 5501     		.2byte	0x155
 2629 11e2 00       		.byte	0
 2630 11e3 27       		.uleb128 0x27
 2631 11e4 2B010000 		.4byte	.LASF251
 2632 11e8 01       		.byte	0x1
 2633 11e9 4A01     		.2byte	0x14a
 2634 11eb 00000000 		.4byte	.LFB38
 2635 11ef 06000000 		.4byte	.LFE38-.LFB38
 2636 11f3 01       		.uleb128 0x1
 2637 11f4 9C       		.byte	0x9c
 2638 11f5 0A120000 		.4byte	0x120a
 2639 11f9 28       		.uleb128 0x28
 2640 11fa 0A120000 		.4byte	0x120a
 2641 11fe 00000000 		.4byte	.LBB6
 2642 1202 02000000 		.4byte	.LBE6-.LBB6
 2643 1206 01       		.byte	0x1
 2644 1207 4C01     		.2byte	0x14c
 2645 1209 00       		.byte	0
 2646 120a 29       		.uleb128 0x29
 2647 120b C9030000 		.4byte	.LASF252
 2648 120f 02       		.byte	0x2
 2649 1210 5601     		.2byte	0x156
 2650 1212 03       		.byte	0x3
 2651 1213 29       		.uleb128 0x29
 2652 1214 62080000 		.4byte	.LASF253
 2653 1218 02       		.byte	0x2
 2654 1219 4B01     		.2byte	0x14b
 2655 121b 03       		.byte	0x3
 2656 121c 00       		.byte	0
 2657              		.section	.debug_abbrev,"",%progbits
 2658              	.Ldebug_abbrev0:
 2659 0000 01       		.uleb128 0x1
 2660 0001 11       		.uleb128 0x11
 2661 0002 01       		.byte	0x1
 2662 0003 25       		.uleb128 0x25
 2663 0004 0E       		.uleb128 0xe
 2664 0005 13       		.uleb128 0x13
 2665 0006 0B       		.uleb128 0xb
 2666 0007 03       		.uleb128 0x3
 2667 0008 0E       		.uleb128 0xe
 2668 0009 1B       		.uleb128 0x1b
 2669 000a 0E       		.uleb128 0xe
 2670 000b 55       		.uleb128 0x55
 2671 000c 17       		.uleb128 0x17
 2672 000d 11       		.uleb128 0x11
 2673 000e 01       		.uleb128 0x1
 2674 000f 10       		.uleb128 0x10
 2675 0010 17       		.uleb128 0x17
 2676 0011 00       		.byte	0
 2677 0012 00       		.byte	0
 2678 0013 02       		.uleb128 0x2
 2679 0014 24       		.uleb128 0x24
ARM GAS  /tmp/ccDUvqkW.s 			page 48


 2680 0015 00       		.byte	0
 2681 0016 0B       		.uleb128 0xb
 2682 0017 0B       		.uleb128 0xb
 2683 0018 3E       		.uleb128 0x3e
 2684 0019 0B       		.uleb128 0xb
 2685 001a 03       		.uleb128 0x3
 2686 001b 08       		.uleb128 0x8
 2687 001c 00       		.byte	0
 2688 001d 00       		.byte	0
 2689 001e 03       		.uleb128 0x3
 2690 001f 16       		.uleb128 0x16
 2691 0020 00       		.byte	0
 2692 0021 03       		.uleb128 0x3
 2693 0022 0E       		.uleb128 0xe
 2694 0023 3A       		.uleb128 0x3a
 2695 0024 0B       		.uleb128 0xb
 2696 0025 3B       		.uleb128 0x3b
 2697 0026 0B       		.uleb128 0xb
 2698 0027 49       		.uleb128 0x49
 2699 0028 13       		.uleb128 0x13
 2700 0029 00       		.byte	0
 2701 002a 00       		.byte	0
 2702 002b 04       		.uleb128 0x4
 2703 002c 35       		.uleb128 0x35
 2704 002d 00       		.byte	0
 2705 002e 49       		.uleb128 0x49
 2706 002f 13       		.uleb128 0x13
 2707 0030 00       		.byte	0
 2708 0031 00       		.byte	0
 2709 0032 05       		.uleb128 0x5
 2710 0033 24       		.uleb128 0x24
 2711 0034 00       		.byte	0
 2712 0035 0B       		.uleb128 0xb
 2713 0036 0B       		.uleb128 0xb
 2714 0037 3E       		.uleb128 0x3e
 2715 0038 0B       		.uleb128 0xb
 2716 0039 03       		.uleb128 0x3
 2717 003a 0E       		.uleb128 0xe
 2718 003b 00       		.byte	0
 2719 003c 00       		.byte	0
 2720 003d 06       		.uleb128 0x6
 2721 003e 26       		.uleb128 0x26
 2722 003f 00       		.byte	0
 2723 0040 49       		.uleb128 0x49
 2724 0041 13       		.uleb128 0x13
 2725 0042 00       		.byte	0
 2726 0043 00       		.byte	0
 2727 0044 07       		.uleb128 0x7
 2728 0045 13       		.uleb128 0x13
 2729 0046 01       		.byte	0x1
 2730 0047 03       		.uleb128 0x3
 2731 0048 0E       		.uleb128 0xe
 2732 0049 0B       		.uleb128 0xb
 2733 004a 0B       		.uleb128 0xb
 2734 004b 3A       		.uleb128 0x3a
 2735 004c 0B       		.uleb128 0xb
 2736 004d 3B       		.uleb128 0x3b
ARM GAS  /tmp/ccDUvqkW.s 			page 49


 2737 004e 0B       		.uleb128 0xb
 2738 004f 01       		.uleb128 0x1
 2739 0050 13       		.uleb128 0x13
 2740 0051 00       		.byte	0
 2741 0052 00       		.byte	0
 2742 0053 08       		.uleb128 0x8
 2743 0054 0D       		.uleb128 0xd
 2744 0055 00       		.byte	0
 2745 0056 03       		.uleb128 0x3
 2746 0057 0E       		.uleb128 0xe
 2747 0058 3A       		.uleb128 0x3a
 2748 0059 0B       		.uleb128 0xb
 2749 005a 3B       		.uleb128 0x3b
 2750 005b 0B       		.uleb128 0xb
 2751 005c 49       		.uleb128 0x49
 2752 005d 13       		.uleb128 0x13
 2753 005e 38       		.uleb128 0x38
 2754 005f 0B       		.uleb128 0xb
 2755 0060 00       		.byte	0
 2756 0061 00       		.byte	0
 2757 0062 09       		.uleb128 0x9
 2758 0063 0D       		.uleb128 0xd
 2759 0064 00       		.byte	0
 2760 0065 03       		.uleb128 0x3
 2761 0066 08       		.uleb128 0x8
 2762 0067 3A       		.uleb128 0x3a
 2763 0068 0B       		.uleb128 0xb
 2764 0069 3B       		.uleb128 0x3b
 2765 006a 05       		.uleb128 0x5
 2766 006b 49       		.uleb128 0x49
 2767 006c 13       		.uleb128 0x13
 2768 006d 38       		.uleb128 0x38
 2769 006e 0B       		.uleb128 0xb
 2770 006f 00       		.byte	0
 2771 0070 00       		.byte	0
 2772 0071 0A       		.uleb128 0xa
 2773 0072 0D       		.uleb128 0xd
 2774 0073 00       		.byte	0
 2775 0074 03       		.uleb128 0x3
 2776 0075 0E       		.uleb128 0xe
 2777 0076 3A       		.uleb128 0x3a
 2778 0077 0B       		.uleb128 0xb
 2779 0078 3B       		.uleb128 0x3b
 2780 0079 05       		.uleb128 0x5
 2781 007a 49       		.uleb128 0x49
 2782 007b 13       		.uleb128 0x13
 2783 007c 38       		.uleb128 0x38
 2784 007d 0B       		.uleb128 0xb
 2785 007e 00       		.byte	0
 2786 007f 00       		.byte	0
 2787 0080 0B       		.uleb128 0xb
 2788 0081 0F       		.uleb128 0xf
 2789 0082 00       		.byte	0
 2790 0083 0B       		.uleb128 0xb
 2791 0084 0B       		.uleb128 0xb
 2792 0085 49       		.uleb128 0x49
 2793 0086 13       		.uleb128 0x13
ARM GAS  /tmp/ccDUvqkW.s 			page 50


 2794 0087 00       		.byte	0
 2795 0088 00       		.byte	0
 2796 0089 0C       		.uleb128 0xc
 2797 008a 13       		.uleb128 0x13
 2798 008b 01       		.byte	0x1
 2799 008c 03       		.uleb128 0x3
 2800 008d 0E       		.uleb128 0xe
 2801 008e 0B       		.uleb128 0xb
 2802 008f 0B       		.uleb128 0xb
 2803 0090 3A       		.uleb128 0x3a
 2804 0091 0B       		.uleb128 0xb
 2805 0092 3B       		.uleb128 0x3b
 2806 0093 05       		.uleb128 0x5
 2807 0094 01       		.uleb128 0x1
 2808 0095 13       		.uleb128 0x13
 2809 0096 00       		.byte	0
 2810 0097 00       		.byte	0
 2811 0098 0D       		.uleb128 0xd
 2812 0099 15       		.uleb128 0x15
 2813 009a 01       		.byte	0x1
 2814 009b 27       		.uleb128 0x27
 2815 009c 19       		.uleb128 0x19
 2816 009d 01       		.uleb128 0x1
 2817 009e 13       		.uleb128 0x13
 2818 009f 00       		.byte	0
 2819 00a0 00       		.byte	0
 2820 00a1 0E       		.uleb128 0xe
 2821 00a2 05       		.uleb128 0x5
 2822 00a3 00       		.byte	0
 2823 00a4 49       		.uleb128 0x49
 2824 00a5 13       		.uleb128 0x13
 2825 00a6 00       		.byte	0
 2826 00a7 00       		.byte	0
 2827 00a8 0F       		.uleb128 0xf
 2828 00a9 0F       		.uleb128 0xf
 2829 00aa 00       		.byte	0
 2830 00ab 0B       		.uleb128 0xb
 2831 00ac 0B       		.uleb128 0xb
 2832 00ad 00       		.byte	0
 2833 00ae 00       		.byte	0
 2834 00af 10       		.uleb128 0x10
 2835 00b0 13       		.uleb128 0x13
 2836 00b1 01       		.byte	0x1
 2837 00b2 03       		.uleb128 0x3
 2838 00b3 0E       		.uleb128 0xe
 2839 00b4 0B       		.uleb128 0xb
 2840 00b5 05       		.uleb128 0x5
 2841 00b6 3A       		.uleb128 0x3a
 2842 00b7 0B       		.uleb128 0xb
 2843 00b8 3B       		.uleb128 0x3b
 2844 00b9 05       		.uleb128 0x5
 2845 00ba 01       		.uleb128 0x1
 2846 00bb 13       		.uleb128 0x13
 2847 00bc 00       		.byte	0
 2848 00bd 00       		.byte	0
 2849 00be 11       		.uleb128 0x11
 2850 00bf 0D       		.uleb128 0xd
ARM GAS  /tmp/ccDUvqkW.s 			page 51


 2851 00c0 00       		.byte	0
 2852 00c1 03       		.uleb128 0x3
 2853 00c2 0E       		.uleb128 0xe
 2854 00c3 3A       		.uleb128 0x3a
 2855 00c4 0B       		.uleb128 0xb
 2856 00c5 3B       		.uleb128 0x3b
 2857 00c6 05       		.uleb128 0x5
 2858 00c7 49       		.uleb128 0x49
 2859 00c8 13       		.uleb128 0x13
 2860 00c9 38       		.uleb128 0x38
 2861 00ca 05       		.uleb128 0x5
 2862 00cb 00       		.byte	0
 2863 00cc 00       		.byte	0
 2864 00cd 12       		.uleb128 0x12
 2865 00ce 01       		.uleb128 0x1
 2866 00cf 01       		.byte	0x1
 2867 00d0 49       		.uleb128 0x49
 2868 00d1 13       		.uleb128 0x13
 2869 00d2 01       		.uleb128 0x1
 2870 00d3 13       		.uleb128 0x13
 2871 00d4 00       		.byte	0
 2872 00d5 00       		.byte	0
 2873 00d6 13       		.uleb128 0x13
 2874 00d7 21       		.uleb128 0x21
 2875 00d8 00       		.byte	0
 2876 00d9 49       		.uleb128 0x49
 2877 00da 13       		.uleb128 0x13
 2878 00db 2F       		.uleb128 0x2f
 2879 00dc 0B       		.uleb128 0xb
 2880 00dd 00       		.byte	0
 2881 00de 00       		.byte	0
 2882 00df 14       		.uleb128 0x14
 2883 00e0 34       		.uleb128 0x34
 2884 00e1 00       		.byte	0
 2885 00e2 03       		.uleb128 0x3
 2886 00e3 0E       		.uleb128 0xe
 2887 00e4 3A       		.uleb128 0x3a
 2888 00e5 0B       		.uleb128 0xb
 2889 00e6 3B       		.uleb128 0x3b
 2890 00e7 0B       		.uleb128 0xb
 2891 00e8 49       		.uleb128 0x49
 2892 00e9 13       		.uleb128 0x13
 2893 00ea 3F       		.uleb128 0x3f
 2894 00eb 19       		.uleb128 0x19
 2895 00ec 3C       		.uleb128 0x3c
 2896 00ed 19       		.uleb128 0x19
 2897 00ee 00       		.byte	0
 2898 00ef 00       		.byte	0
 2899 00f0 15       		.uleb128 0x15
 2900 00f1 13       		.uleb128 0x13
 2901 00f2 01       		.byte	0x1
 2902 00f3 0B       		.uleb128 0xb
 2903 00f4 0B       		.uleb128 0xb
 2904 00f5 3A       		.uleb128 0x3a
 2905 00f6 0B       		.uleb128 0xb
 2906 00f7 3B       		.uleb128 0x3b
 2907 00f8 0B       		.uleb128 0xb
ARM GAS  /tmp/ccDUvqkW.s 			page 52


 2908 00f9 01       		.uleb128 0x1
 2909 00fa 13       		.uleb128 0x13
 2910 00fb 00       		.byte	0
 2911 00fc 00       		.byte	0
 2912 00fd 16       		.uleb128 0x16
 2913 00fe 0D       		.uleb128 0xd
 2914 00ff 00       		.byte	0
 2915 0100 03       		.uleb128 0x3
 2916 0101 08       		.uleb128 0x8
 2917 0102 3A       		.uleb128 0x3a
 2918 0103 0B       		.uleb128 0xb
 2919 0104 3B       		.uleb128 0x3b
 2920 0105 0B       		.uleb128 0xb
 2921 0106 49       		.uleb128 0x49
 2922 0107 13       		.uleb128 0x13
 2923 0108 38       		.uleb128 0x38
 2924 0109 0B       		.uleb128 0xb
 2925 010a 00       		.byte	0
 2926 010b 00       		.byte	0
 2927 010c 17       		.uleb128 0x17
 2928 010d 13       		.uleb128 0x13
 2929 010e 01       		.byte	0x1
 2930 010f 0B       		.uleb128 0xb
 2931 0110 0B       		.uleb128 0xb
 2932 0111 3A       		.uleb128 0x3a
 2933 0112 0B       		.uleb128 0xb
 2934 0113 3B       		.uleb128 0x3b
 2935 0114 05       		.uleb128 0x5
 2936 0115 01       		.uleb128 0x1
 2937 0116 13       		.uleb128 0x13
 2938 0117 00       		.byte	0
 2939 0118 00       		.byte	0
 2940 0119 18       		.uleb128 0x18
 2941 011a 16       		.uleb128 0x16
 2942 011b 00       		.byte	0
 2943 011c 03       		.uleb128 0x3
 2944 011d 0E       		.uleb128 0xe
 2945 011e 3A       		.uleb128 0x3a
 2946 011f 0B       		.uleb128 0xb
 2947 0120 3B       		.uleb128 0x3b
 2948 0121 05       		.uleb128 0x5
 2949 0122 49       		.uleb128 0x49
 2950 0123 13       		.uleb128 0x13
 2951 0124 00       		.byte	0
 2952 0125 00       		.byte	0
 2953 0126 19       		.uleb128 0x19
 2954 0127 13       		.uleb128 0x13
 2955 0128 01       		.byte	0x1
 2956 0129 0B       		.uleb128 0xb
 2957 012a 05       		.uleb128 0x5
 2958 012b 3A       		.uleb128 0x3a
 2959 012c 0B       		.uleb128 0xb
 2960 012d 3B       		.uleb128 0x3b
 2961 012e 0B       		.uleb128 0xb
 2962 012f 01       		.uleb128 0x1
 2963 0130 13       		.uleb128 0x13
 2964 0131 00       		.byte	0
ARM GAS  /tmp/ccDUvqkW.s 			page 53


 2965 0132 00       		.byte	0
 2966 0133 1A       		.uleb128 0x1a
 2967 0134 17       		.uleb128 0x17
 2968 0135 01       		.byte	0x1
 2969 0136 0B       		.uleb128 0xb
 2970 0137 0B       		.uleb128 0xb
 2971 0138 3A       		.uleb128 0x3a
 2972 0139 0B       		.uleb128 0xb
 2973 013a 3B       		.uleb128 0x3b
 2974 013b 0B       		.uleb128 0xb
 2975 013c 01       		.uleb128 0x1
 2976 013d 13       		.uleb128 0x13
 2977 013e 00       		.byte	0
 2978 013f 00       		.byte	0
 2979 0140 1B       		.uleb128 0x1b
 2980 0141 0D       		.uleb128 0xd
 2981 0142 00       		.byte	0
 2982 0143 03       		.uleb128 0x3
 2983 0144 0E       		.uleb128 0xe
 2984 0145 3A       		.uleb128 0x3a
 2985 0146 0B       		.uleb128 0xb
 2986 0147 3B       		.uleb128 0x3b
 2987 0148 05       		.uleb128 0x5
 2988 0149 49       		.uleb128 0x49
 2989 014a 13       		.uleb128 0x13
 2990 014b 00       		.byte	0
 2991 014c 00       		.byte	0
 2992 014d 1C       		.uleb128 0x1c
 2993 014e 34       		.uleb128 0x34
 2994 014f 00       		.byte	0
 2995 0150 03       		.uleb128 0x3
 2996 0151 08       		.uleb128 0x8
 2997 0152 3A       		.uleb128 0x3a
 2998 0153 0B       		.uleb128 0xb
 2999 0154 3B       		.uleb128 0x3b
 3000 0155 05       		.uleb128 0x5
 3001 0156 49       		.uleb128 0x49
 3002 0157 13       		.uleb128 0x13
 3003 0158 3F       		.uleb128 0x3f
 3004 0159 19       		.uleb128 0x19
 3005 015a 3C       		.uleb128 0x3c
 3006 015b 19       		.uleb128 0x19
 3007 015c 00       		.byte	0
 3008 015d 00       		.byte	0
 3009 015e 1D       		.uleb128 0x1d
 3010 015f 15       		.uleb128 0x15
 3011 0160 01       		.byte	0x1
 3012 0161 27       		.uleb128 0x27
 3013 0162 19       		.uleb128 0x19
 3014 0163 49       		.uleb128 0x49
 3015 0164 13       		.uleb128 0x13
 3016 0165 01       		.uleb128 0x1
 3017 0166 13       		.uleb128 0x13
 3018 0167 00       		.byte	0
 3019 0168 00       		.byte	0
 3020 0169 1E       		.uleb128 0x1e
 3021 016a 34       		.uleb128 0x34
ARM GAS  /tmp/ccDUvqkW.s 			page 54


 3022 016b 00       		.byte	0
 3023 016c 03       		.uleb128 0x3
 3024 016d 0E       		.uleb128 0xe
 3025 016e 3A       		.uleb128 0x3a
 3026 016f 0B       		.uleb128 0xb
 3027 0170 3B       		.uleb128 0x3b
 3028 0171 05       		.uleb128 0x5
 3029 0172 49       		.uleb128 0x49
 3030 0173 13       		.uleb128 0x13
 3031 0174 3F       		.uleb128 0x3f
 3032 0175 19       		.uleb128 0x19
 3033 0176 3C       		.uleb128 0x3c
 3034 0177 19       		.uleb128 0x19
 3035 0178 00       		.byte	0
 3036 0179 00       		.byte	0
 3037 017a 1F       		.uleb128 0x1f
 3038 017b 04       		.uleb128 0x4
 3039 017c 01       		.byte	0x1
 3040 017d 0B       		.uleb128 0xb
 3041 017e 0B       		.uleb128 0xb
 3042 017f 49       		.uleb128 0x49
 3043 0180 13       		.uleb128 0x13
 3044 0181 3A       		.uleb128 0x3a
 3045 0182 0B       		.uleb128 0xb
 3046 0183 3B       		.uleb128 0x3b
 3047 0184 0B       		.uleb128 0xb
 3048 0185 01       		.uleb128 0x1
 3049 0186 13       		.uleb128 0x13
 3050 0187 00       		.byte	0
 3051 0188 00       		.byte	0
 3052 0189 20       		.uleb128 0x20
 3053 018a 28       		.uleb128 0x28
 3054 018b 00       		.byte	0
 3055 018c 03       		.uleb128 0x3
 3056 018d 0E       		.uleb128 0xe
 3057 018e 1C       		.uleb128 0x1c
 3058 018f 0B       		.uleb128 0xb
 3059 0190 00       		.byte	0
 3060 0191 00       		.byte	0
 3061 0192 21       		.uleb128 0x21
 3062 0193 13       		.uleb128 0x13
 3063 0194 01       		.byte	0x1
 3064 0195 03       		.uleb128 0x3
 3065 0196 0E       		.uleb128 0xe
 3066 0197 0B       		.uleb128 0xb
 3067 0198 05       		.uleb128 0x5
 3068 0199 3A       		.uleb128 0x3a
 3069 019a 0B       		.uleb128 0xb
 3070 019b 3B       		.uleb128 0x3b
 3071 019c 0B       		.uleb128 0xb
 3072 019d 01       		.uleb128 0x1
 3073 019e 13       		.uleb128 0x13
 3074 019f 00       		.byte	0
 3075 01a0 00       		.byte	0
 3076 01a1 22       		.uleb128 0x22
 3077 01a2 0D       		.uleb128 0xd
 3078 01a3 00       		.byte	0
ARM GAS  /tmp/ccDUvqkW.s 			page 55


 3079 01a4 03       		.uleb128 0x3
 3080 01a5 0E       		.uleb128 0xe
 3081 01a6 3A       		.uleb128 0x3a
 3082 01a7 0B       		.uleb128 0xb
 3083 01a8 3B       		.uleb128 0x3b
 3084 01a9 0B       		.uleb128 0xb
 3085 01aa 49       		.uleb128 0x49
 3086 01ab 13       		.uleb128 0x13
 3087 01ac 38       		.uleb128 0x38
 3088 01ad 05       		.uleb128 0x5
 3089 01ae 00       		.byte	0
 3090 01af 00       		.byte	0
 3091 01b0 23       		.uleb128 0x23
 3092 01b1 2E       		.uleb128 0x2e
 3093 01b2 00       		.byte	0
 3094 01b3 3F       		.uleb128 0x3f
 3095 01b4 19       		.uleb128 0x19
 3096 01b5 03       		.uleb128 0x3
 3097 01b6 0E       		.uleb128 0xe
 3098 01b7 3A       		.uleb128 0x3a
 3099 01b8 0B       		.uleb128 0xb
 3100 01b9 3B       		.uleb128 0x3b
 3101 01ba 05       		.uleb128 0x5
 3102 01bb 27       		.uleb128 0x27
 3103 01bc 19       		.uleb128 0x19
 3104 01bd 11       		.uleb128 0x11
 3105 01be 01       		.uleb128 0x1
 3106 01bf 12       		.uleb128 0x12
 3107 01c0 06       		.uleb128 0x6
 3108 01c1 40       		.uleb128 0x40
 3109 01c2 18       		.uleb128 0x18
 3110 01c3 9642     		.uleb128 0x2116
 3111 01c5 19       		.uleb128 0x19
 3112 01c6 00       		.byte	0
 3113 01c7 00       		.byte	0
 3114 01c8 24       		.uleb128 0x24
 3115 01c9 2E       		.uleb128 0x2e
 3116 01ca 01       		.byte	0x1
 3117 01cb 3F       		.uleb128 0x3f
 3118 01cc 19       		.uleb128 0x19
 3119 01cd 03       		.uleb128 0x3
 3120 01ce 0E       		.uleb128 0xe
 3121 01cf 3A       		.uleb128 0x3a
 3122 01d0 0B       		.uleb128 0xb
 3123 01d1 3B       		.uleb128 0x3b
 3124 01d2 0B       		.uleb128 0xb
 3125 01d3 27       		.uleb128 0x27
 3126 01d4 19       		.uleb128 0x19
 3127 01d5 11       		.uleb128 0x11
 3128 01d6 01       		.uleb128 0x1
 3129 01d7 12       		.uleb128 0x12
 3130 01d8 06       		.uleb128 0x6
 3131 01d9 40       		.uleb128 0x40
 3132 01da 18       		.uleb128 0x18
 3133 01db 9642     		.uleb128 0x2116
 3134 01dd 19       		.uleb128 0x19
 3135 01de 01       		.uleb128 0x1
ARM GAS  /tmp/ccDUvqkW.s 			page 56


 3136 01df 13       		.uleb128 0x13
 3137 01e0 00       		.byte	0
 3138 01e1 00       		.byte	0
 3139 01e2 25       		.uleb128 0x25
 3140 01e3 34       		.uleb128 0x34
 3141 01e4 00       		.byte	0
 3142 01e5 03       		.uleb128 0x3
 3143 01e6 0E       		.uleb128 0xe
 3144 01e7 3A       		.uleb128 0x3a
 3145 01e8 0B       		.uleb128 0xb
 3146 01e9 3B       		.uleb128 0x3b
 3147 01ea 0B       		.uleb128 0xb
 3148 01eb 49       		.uleb128 0x49
 3149 01ec 13       		.uleb128 0x13
 3150 01ed 02       		.uleb128 0x2
 3151 01ee 18       		.uleb128 0x18
 3152 01ef 00       		.byte	0
 3153 01f0 00       		.byte	0
 3154 01f1 26       		.uleb128 0x26
 3155 01f2 2E       		.uleb128 0x2e
 3156 01f3 00       		.byte	0
 3157 01f4 03       		.uleb128 0x3
 3158 01f5 0E       		.uleb128 0xe
 3159 01f6 3A       		.uleb128 0x3a
 3160 01f7 0B       		.uleb128 0xb
 3161 01f8 3B       		.uleb128 0x3b
 3162 01f9 05       		.uleb128 0x5
 3163 01fa 27       		.uleb128 0x27
 3164 01fb 19       		.uleb128 0x19
 3165 01fc 11       		.uleb128 0x11
 3166 01fd 01       		.uleb128 0x1
 3167 01fe 12       		.uleb128 0x12
 3168 01ff 06       		.uleb128 0x6
 3169 0200 40       		.uleb128 0x40
 3170 0201 18       		.uleb128 0x18
 3171 0202 9642     		.uleb128 0x2116
 3172 0204 19       		.uleb128 0x19
 3173 0205 00       		.byte	0
 3174 0206 00       		.byte	0
 3175 0207 27       		.uleb128 0x27
 3176 0208 2E       		.uleb128 0x2e
 3177 0209 01       		.byte	0x1
 3178 020a 03       		.uleb128 0x3
 3179 020b 0E       		.uleb128 0xe
 3180 020c 3A       		.uleb128 0x3a
 3181 020d 0B       		.uleb128 0xb
 3182 020e 3B       		.uleb128 0x3b
 3183 020f 05       		.uleb128 0x5
 3184 0210 27       		.uleb128 0x27
 3185 0211 19       		.uleb128 0x19
 3186 0212 11       		.uleb128 0x11
 3187 0213 01       		.uleb128 0x1
 3188 0214 12       		.uleb128 0x12
 3189 0215 06       		.uleb128 0x6
 3190 0216 40       		.uleb128 0x40
 3191 0217 18       		.uleb128 0x18
 3192 0218 9742     		.uleb128 0x2117
ARM GAS  /tmp/ccDUvqkW.s 			page 57


 3193 021a 19       		.uleb128 0x19
 3194 021b 01       		.uleb128 0x1
 3195 021c 13       		.uleb128 0x13
 3196 021d 00       		.byte	0
 3197 021e 00       		.byte	0
 3198 021f 28       		.uleb128 0x28
 3199 0220 1D       		.uleb128 0x1d
 3200 0221 00       		.byte	0
 3201 0222 31       		.uleb128 0x31
 3202 0223 13       		.uleb128 0x13
 3203 0224 11       		.uleb128 0x11
 3204 0225 01       		.uleb128 0x1
 3205 0226 12       		.uleb128 0x12
 3206 0227 06       		.uleb128 0x6
 3207 0228 58       		.uleb128 0x58
 3208 0229 0B       		.uleb128 0xb
 3209 022a 59       		.uleb128 0x59
 3210 022b 05       		.uleb128 0x5
 3211 022c 00       		.byte	0
 3212 022d 00       		.byte	0
 3213 022e 29       		.uleb128 0x29
 3214 022f 2E       		.uleb128 0x2e
 3215 0230 00       		.byte	0
 3216 0231 03       		.uleb128 0x3
 3217 0232 0E       		.uleb128 0xe
 3218 0233 3A       		.uleb128 0x3a
 3219 0234 0B       		.uleb128 0xb
 3220 0235 3B       		.uleb128 0x3b
 3221 0236 05       		.uleb128 0x5
 3222 0237 27       		.uleb128 0x27
 3223 0238 19       		.uleb128 0x19
 3224 0239 20       		.uleb128 0x20
 3225 023a 0B       		.uleb128 0xb
 3226 023b 00       		.byte	0
 3227 023c 00       		.byte	0
 3228 023d 00       		.byte	0
 3229              		.section	.debug_aranges,"",%progbits
 3230 0000 6C000000 		.4byte	0x6c
 3231 0004 0200     		.2byte	0x2
 3232 0006 00000000 		.4byte	.Ldebug_info0
 3233 000a 04       		.byte	0x4
 3234 000b 00       		.byte	0
 3235 000c 0000     		.2byte	0
 3236 000e 0000     		.2byte	0
 3237 0010 00000000 		.4byte	.LFB38
 3238 0014 06000000 		.4byte	.LFE38-.LFB38
 3239 0018 00000000 		.4byte	.LFB39
 3240 001c 06000000 		.4byte	.LFE39-.LFB39
 3241 0020 00000000 		.4byte	.LFB40
 3242 0024 0A000000 		.4byte	.LFE40-.LFB40
 3243 0028 00000000 		.4byte	.LFB41
 3244 002c 0A000000 		.4byte	.LFE41-.LFB41
 3245 0030 00000000 		.4byte	.LFB79
 3246 0034 0E000000 		.4byte	.LFE79-.LFB79
 3247 0038 00000000 		.4byte	.LFB80
 3248 003c 0E000000 		.4byte	.LFE80-.LFB80
 3249 0040 00000000 		.4byte	.LFB158
ARM GAS  /tmp/ccDUvqkW.s 			page 58


 3250 0044 0A000000 		.4byte	.LFE158-.LFB158
 3251 0048 00000000 		.4byte	.LFB159
 3252 004c 0A000000 		.4byte	.LFE159-.LFB159
 3253 0050 00000000 		.4byte	.LFB162
 3254 0054 0A000000 		.4byte	.LFE162-.LFB162
 3255 0058 00000000 		.4byte	.LFB182
 3256 005c 40000000 		.4byte	.LFE182-.LFB182
 3257 0060 00000000 		.4byte	.LFB183
 3258 0064 6C000000 		.4byte	.LFE183-.LFB183
 3259 0068 00000000 		.4byte	0
 3260 006c 00000000 		.4byte	0
 3261              		.section	.debug_ranges,"",%progbits
 3262              	.Ldebug_ranges0:
 3263 0000 00000000 		.4byte	.LFB38
 3264 0004 06000000 		.4byte	.LFE38
 3265 0008 00000000 		.4byte	.LFB39
 3266 000c 06000000 		.4byte	.LFE39
 3267 0010 00000000 		.4byte	.LFB40
 3268 0014 0A000000 		.4byte	.LFE40
 3269 0018 00000000 		.4byte	.LFB41
 3270 001c 0A000000 		.4byte	.LFE41
 3271 0020 00000000 		.4byte	.LFB79
 3272 0024 0E000000 		.4byte	.LFE79
 3273 0028 00000000 		.4byte	.LFB80
 3274 002c 0E000000 		.4byte	.LFE80
 3275 0030 00000000 		.4byte	.LFB158
 3276 0034 0A000000 		.4byte	.LFE158
 3277 0038 00000000 		.4byte	.LFB159
 3278 003c 0A000000 		.4byte	.LFE159
 3279 0040 00000000 		.4byte	.LFB162
 3280 0044 0A000000 		.4byte	.LFE162
 3281 0048 00000000 		.4byte	.LFB182
 3282 004c 40000000 		.4byte	.LFE182
 3283 0050 00000000 		.4byte	.LFB183
 3284 0054 6C000000 		.4byte	.LFE183
 3285 0058 00000000 		.4byte	0
 3286 005c 00000000 		.4byte	0
 3287              		.section	.debug_line,"",%progbits
 3288              	.Ldebug_line0:
 3289 0000 C5040000 		.section	.debug_str,"MS",%progbits,1
 3289      0200C703 
 3289      00000201 
 3289      FB0E0D00 
 3289      01010101 
 3290              	.LASF52:
 3291 0000 63685F74 		.ascii	"ch_threads_list\000"
 3291      68726561 
 3291      64735F6C 
 3291      69737400 
 3292              	.LASF53:
 3293 0010 74687265 		.ascii	"threads_queue_t\000"
 3293      6164735F 
 3293      71756575 
 3293      655F7400 
 3294              	.LASF175:
 3295 0020 6576656E 		.ascii	"event_listener_t\000"
 3295      745F6C69 
ARM GAS  /tmp/ccDUvqkW.s 			page 59


 3295      7374656E 
 3295      65725F74 
 3295      00
 3296              	.LASF42:
 3297 0031 705F7761 		.ascii	"p_waiting\000"
 3297      6974696E 
 3297      6700
 3298              	.LASF229:
 3299 003b 53657269 		.ascii	"SerialDriver\000"
 3299      616C4472 
 3299      69766572 
 3299      00
 3300              	.LASF104:
 3301 0048 41504231 		.ascii	"APB1ENR\000"
 3301      454E5200 
 3302              	.LASF153:
 3303 0050 53797374 		.ascii	"SystemCoreClock\000"
 3303      656D436F 
 3303      7265436C 
 3303      6F636B00 
 3304              	.LASF143:
 3305 0060 77746D74 		.ascii	"wtmtxp\000"
 3305      787000
 3306              	.LASF243:
 3307 0067 6F73616C 		.ascii	"osalOsTimerHandlerI\000"
 3307      4F735469 
 3307      6D657248 
 3307      616E646C 
 3307      65724900 
 3308              	.LASF221:
 3309 007b 50434461 		.ascii	"PCData\000"
 3309      746100
 3310              	.LASF152:
 3311 0082 63686172 		.ascii	"char\000"
 3311      00
 3312              	.LASF115:
 3313 0087 72656761 		.ascii	"regarm_t\000"
 3313      726D5F74 
 3313      00
 3314              	.LASF33:
 3315 0090 705F7072 		.ascii	"p_prio\000"
 3315      696F00
 3316              	.LASF100:
 3317 0097 41504232 		.ascii	"APB2RSTR\000"
 3317      52535452 
 3317      00
 3318              	.LASF182:
 3319 00a0 6576656E 		.ascii	"event_source\000"
 3319      745F736F 
 3319      75726365 
 3319      00
 3320              	.LASF29:
 3321 00ad 73797374 		.ascii	"systime_t\000"
 3321      696D655F 
 3321      7400
 3322              	.LASF164:
 3323 00b7 63665F6F 		.ascii	"cf_off_older\000"
ARM GAS  /tmp/ccDUvqkW.s 			page 60


 3323      66665F6F 
 3323      6C646572 
 3323      00
 3324              	.LASF150:
 3325 00c4 6D5F6F77 		.ascii	"m_owner\000"
 3325      6E657200 
 3326              	.LASF146:
 3327 00cc 735F7175 		.ascii	"s_queue\000"
 3327      65756500 
 3328              	.LASF43:
 3329 00d4 705F6D73 		.ascii	"p_msgqueue\000"
 3329      67717565 
 3329      756500
 3330              	.LASF0:
 3331 00df 756E7369 		.ascii	"unsigned int\000"
 3331      676E6564 
 3331      20696E74 
 3331      00
 3332              	.LASF50:
 3333 00ec 74687265 		.ascii	"threads_list_t\000"
 3333      6164735F 
 3333      6C697374 
 3333      5F7400
 3334              	.LASF105:
 3335 00fb 42444352 		.ascii	"BDCR\000"
 3335      00
 3336              	.LASF10:
 3337 0100 5F5F696E 		.ascii	"__int32_t\000"
 3337      7433325F 
 3337      7400
 3338              	.LASF132:
 3339 010a 73655F73 		.ascii	"se_state\000"
 3339      74617465 
 3339      00
 3340              	.LASF165:
 3341 0113 63665F6F 		.ascii	"cf_off_name\000"
 3341      66665F6E 
 3341      616D6500 
 3342              	.LASF93:
 3343 011f 434D4152 		.ascii	"CMAR\000"
 3343      00
 3344              	.LASF140:
 3345 0124 77746F62 		.ascii	"wtobjp\000"
 3345      6A7000
 3346              	.LASF251:
 3347 012b 706F7274 		.ascii	"port_lock\000"
 3347      5F6C6F63 
 3347      6B00
 3348              	.LASF83:
 3349 0135 76746C69 		.ascii	"vtlist\000"
 3349      737400
 3350              	.LASF195:
 3351 013c 715F6C69 		.ascii	"q_link\000"
 3351      6E6B00
 3352              	.LASF249:
 3353 0143 706F7274 		.ascii	"port_lock_from_isr\000"
 3353      5F6C6F63 
ARM GAS  /tmp/ccDUvqkW.s 			page 61


 3353      6B5F6672 
 3353      6F6D5F69 
 3353      737200
 3354              	.LASF94:
 3355 0156 444D415F 		.ascii	"DMA_Channel_TypeDef\000"
 3355      4368616E 
 3355      6E656C5F 
 3355      54797065 
 3355      44656600 
 3356              	.LASF56:
 3357 016a 63685F72 		.ascii	"ch_ready_list\000"
 3357      65616479 
 3357      5F6C6973 
 3357      7400
 3358              	.LASF85:
 3359 0178 69646C65 		.ascii	"idle_thread_wa\000"
 3359      5F746872 
 3359      6561645F 
 3359      776100
 3360              	.LASF144:
 3361 0187 65776D61 		.ascii	"ewmask\000"
 3361      736B00
 3362              	.LASF168:
 3363 018e 63665F6F 		.ascii	"cf_off_flags\000"
 3363      66665F66 
 3363      6C616773 
 3363      00
 3364              	.LASF54:
 3365 019b 63685F74 		.ascii	"ch_threads_queue\000"
 3365      68726561 
 3365      64735F71 
 3365      75657565 
 3365      00
 3366              	.LASF247:
 3367 01ac 63685379 		.ascii	"chSysLockFromISR\000"
 3367      734C6F63 
 3367      6B46726F 
 3367      6D495352 
 3367      00
 3368              	.LASF158:
 3369 01bd 63685F70 		.ascii	"ch_ptrsize\000"
 3369      74727369 
 3369      7A6500
 3370              	.LASF125:
 3371 01c8 444D4152 		.ascii	"DMAR\000"
 3371      00
 3372              	.LASF90:
 3373 01cd 4442474D 		.ascii	"DBGMCU_TypeDef\000"
 3373      43555F54 
 3373      79706544 
 3373      656600
 3374              	.LASF63:
 3375 01dc 76746675 		.ascii	"vtfunc_t\000"
 3375      6E635F74 
 3375      00
 3376              	.LASF241:
 3377 01e5 77726974 		.ascii	"writet\000"
ARM GAS  /tmp/ccDUvqkW.s 			page 62


 3377      657400
 3378              	.LASF91:
 3379 01ec 434E4454 		.ascii	"CNDTR\000"
 3379      5200
 3380              	.LASF147:
 3381 01f2 735F636E 		.ascii	"s_cnt\000"
 3381      7400
 3382              	.LASF75:
 3383 01f8 63685F73 		.ascii	"ch_system_debug\000"
 3383      79737465 
 3383      6D5F6465 
 3383      62756700 
 3384              	.LASF110:
 3385 0208 47545052 		.ascii	"GTPR\000"
 3385      00
 3386              	.LASF255:
 3387 020d 43686962 		.ascii	"ChibiOS/os/hal/ports/STM32/LLD/TIMv1/st_lld.c\000"
 3387      694F532F 
 3387      6F732F68 
 3387      616C2F70 
 3387      6F727473 
 3388              	.LASF232:
 3389 023b 69717565 		.ascii	"iqueue\000"
 3389      756500
 3390              	.LASF19:
 3391 0242 75696E74 		.ascii	"uint32_t\000"
 3391      33325F74 
 3391      00
 3392              	.LASF188:
 3393 024b 715F7761 		.ascii	"q_waiting\000"
 3393      6974696E 
 3393      6700
 3394              	.LASF159:
 3395 0255 63685F74 		.ascii	"ch_timesize\000"
 3395      696D6573 
 3395      697A6500 
 3396              	.LASF88:
 3397 0261 41504231 		.ascii	"APB1FZ\000"
 3397      465A00
 3398              	.LASF26:
 3399 0268 6576656E 		.ascii	"eventmask_t\000"
 3399      746D6173 
 3399      6B5F7400 
 3400              	.LASF58:
 3401 0274 725F7072 		.ascii	"r_prio\000"
 3401      696F00
 3402              	.LASF124:
 3403 027b 42445452 		.ascii	"BDTR\000"
 3403      00
 3404              	.LASF70:
 3405 0280 76745F70 		.ascii	"vt_par\000"
 3405      617200
 3406              	.LASF213:
 3407 0287 6F747970 		.ascii	"otyper\000"
 3407      657200
 3408              	.LASF202:
 3409 028e 73686966 		.ascii	"shift\000"
ARM GAS  /tmp/ccDUvqkW.s 			page 63


 3409      7400
 3410              	.LASF230:
 3411 0294 6576656E 		.ascii	"event\000"
 3411      7400
 3412              	.LASF145:
 3413 029a 63685F73 		.ascii	"ch_semaphore\000"
 3413      656D6170 
 3413      686F7265 
 3413      00
 3414              	.LASF201:
 3415 02a7 6373656C 		.ascii	"cselr\000"
 3415      7200
 3416              	.LASF24:
 3417 02ad 74707269 		.ascii	"tprio_t\000"
 3417      6F5F7400 
 3418              	.LASF209:
 3419 02b5 646D615F 		.ascii	"dma_isr_redir_t\000"
 3419      6973725F 
 3419      72656469 
 3419      725F7400 
 3420              	.LASF65:
 3421 02c5 63685F76 		.ascii	"ch_virtual_timer\000"
 3421      69727475 
 3421      616C5F74 
 3421      696D6572 
 3421      00
 3422              	.LASF121:
 3423 02d6 43434D52 		.ascii	"CCMR1\000"
 3423      3100
 3424              	.LASF122:
 3425 02dc 43434D52 		.ascii	"CCMR2\000"
 3425      3200
 3426              	.LASF126:
 3427 02e2 43434D52 		.ascii	"CCMR3\000"
 3427      3300
 3428              	.LASF15:
 3429 02e8 6C6F6E67 		.ascii	"long long unsigned int\000"
 3429      206C6F6E 
 3429      6720756E 
 3429      7369676E 
 3429      65642069 
 3430              	.LASF131:
 3431 02ff 73655F77 		.ascii	"se_wtobjp\000"
 3431      746F626A 
 3431      7000
 3432              	.LASF204:
 3433 0309 76656374 		.ascii	"vector\000"
 3433      6F7200
 3434              	.LASF184:
 3435 0310 6576656E 		.ascii	"event_source_t\000"
 3435      745F736F 
 3435      75726365 
 3435      5F7400
 3436              	.LASF8:
 3437 031f 5F5F7569 		.ascii	"__uint16_t\000"
 3437      6E743136 
 3437      5F7400
ARM GAS  /tmp/ccDUvqkW.s 			page 64


 3438              	.LASF28:
 3439 032a 636E745F 		.ascii	"cnt_t\000"
 3439      7400
 3440              	.LASF77:
 3441 0330 6973725F 		.ascii	"isr_cnt\000"
 3441      636E7400 
 3442              	.LASF218:
 3443 0338 73746D33 		.ascii	"stm32_gpio_setup_t\000"
 3443      325F6770 
 3443      696F5F73 
 3443      65747570 
 3443      5F7400
 3444              	.LASF186:
 3445 034b 696F5F71 		.ascii	"io_queue_t\000"
 3445      75657565 
 3445      5F7400
 3446              	.LASF35:
 3447 0356 705F6E65 		.ascii	"p_newer\000"
 3447      77657200 
 3448              	.LASF72:
 3449 035e 63685F76 		.ascii	"ch_virtual_timers_list\000"
 3449      69727475 
 3449      616C5F74 
 3449      696D6572 
 3449      735F6C69 
 3450              	.LASF92:
 3451 0375 43504152 		.ascii	"CPAR\000"
 3451      00
 3452              	.LASF129:
 3453 037a 73655F74 		.ascii	"se_time\000"
 3453      696D6500 
 3454              	.LASF30:
 3455 0382 74687265 		.ascii	"thread_t\000"
 3455      61645F74 
 3455      00
 3456              	.LASF246:
 3457 038b 63685379 		.ascii	"chSysUnlockFromISR\000"
 3457      73556E6C 
 3457      6F636B46 
 3457      726F6D49 
 3457      535200
 3458              	.LASF181:
 3459 039e 656C5F77 		.ascii	"el_wflags\000"
 3459      666C6167 
 3459      7300
 3460              	.LASF239:
 3461 03a8 70757474 		.ascii	"putt\000"
 3461      00
 3462              	.LASF4:
 3463 03ad 73697A65 		.ascii	"size_t\000"
 3463      5F7400
 3464              	.LASF138:
 3465 03b4 7264796D 		.ascii	"rdymsg\000"
 3465      736700
 3466              	.LASF160:
 3467 03bb 63685F74 		.ascii	"ch_threadsize\000"
 3467      68726561 
ARM GAS  /tmp/ccDUvqkW.s 			page 65


 3467      6473697A 
 3467      6500
 3468              	.LASF252:
 3469 03c9 5F5F6469 		.ascii	"__disable_irq\000"
 3469      7361626C 
 3469      655F6972 
 3469      7100
 3470              	.LASF170:
 3471 03d7 63665F6F 		.ascii	"cf_off_preempt\000"
 3471      66665F70 
 3471      7265656D 
 3471      707400
 3472              	.LASF128:
 3473 03e6 73746D33 		.ascii	"stm32_tim_t\000"
 3473      325F7469 
 3473      6D5F7400 
 3474              	.LASF228:
 3475 03f2 73647374 		.ascii	"sdstate_t\000"
 3475      6174655F 
 3475      7400
 3476              	.LASF109:
 3477 03fc 5243435F 		.ascii	"RCC_TypeDef\000"
 3477      54797065 
 3477      44656600 
 3478              	.LASF226:
 3479 0408 53445F53 		.ascii	"SD_STOP\000"
 3479      544F5000 
 3480              	.LASF254:
 3481 0410 474E5520 		.ascii	"GNU C11 6.3.1 20170215 (release) [ARM/embedded-6-br"
 3481      43313120 
 3481      362E332E 
 3481      31203230 
 3481      31373032 
 3482 0443 616E6368 		.ascii	"anch revision 245512] -mcpu=cortex-m0 -mno-thumb-in"
 3482      20726576 
 3482      6973696F 
 3482      6E203234 
 3482      35353132 
 3483 0476 74657277 		.ascii	"terwork -mthumb -ggdb -O0 -fomit-frame-pointer -fal"
 3483      6F726B20 
 3483      2D6D7468 
 3483      756D6220 
 3483      2D676764 
 3484 04a9 69676E2D 		.ascii	"ign-functions=16 -ffunction-sections -fdata-section"
 3484      66756E63 
 3484      74696F6E 
 3484      733D3136 
 3484      202D6666 
 3485 04dc 7300     		.ascii	"s\000"
 3486              	.LASF220:
 3487 04de 50424461 		.ascii	"PBData\000"
 3487      746100
 3488              	.LASF148:
 3489 04e5 63685F6D 		.ascii	"ch_mutex\000"
 3489      75746578 
 3489      00
 3490              	.LASF14:
ARM GAS  /tmp/ccDUvqkW.s 			page 66


 3491 04ee 5F5F7569 		.ascii	"__uint64_t\000"
 3491      6E743634 
 3491      5F7400
 3492              	.LASF120:
 3493 04f9 44494552 		.ascii	"DIER\000"
 3493      00
 3494              	.LASF224:
 3495 04fe 70616C5F 		.ascii	"pal_default_config\000"
 3495      64656661 
 3495      756C745F 
 3495      636F6E66 
 3495      696700
 3496              	.LASF114:
 3497 0511 55534152 		.ascii	"USART_TypeDef\000"
 3497      545F5479 
 3497      70654465 
 3497      6600
 3498              	.LASF194:
 3499 051f 715F6E6F 		.ascii	"q_notify\000"
 3499      74696679 
 3499      00
 3500              	.LASF235:
 3501 0528 636C6F63 		.ascii	"clock\000"
 3501      6B00
 3502              	.LASF162:
 3503 052e 63665F6F 		.ascii	"cf_off_ctx\000"
 3503      66665F63 
 3503      747800
 3504              	.LASF206:
 3505 0539 73746D33 		.ascii	"stm32_dmaisr_t\000"
 3505      325F646D 
 3505      61697372 
 3505      5F7400
 3506              	.LASF166:
 3507 0548 63665F6F 		.ascii	"cf_off_stklimit\000"
 3507      66665F73 
 3507      746B6C69 
 3507      6D697400 
 3508              	.LASF37:
 3509 0558 705F6E61 		.ascii	"p_name\000"
 3509      6D6500
 3510              	.LASF101:
 3511 055f 41504231 		.ascii	"APB1RSTR\000"
 3511      52535452 
 3511      00
 3512              	.LASF212:
 3513 0568 6D6F6465 		.ascii	"moder\000"
 3513      7200
 3514              	.LASF123:
 3515 056e 43434552 		.ascii	"CCER\000"
 3515      00
 3516              	.LASF68:
 3517 0573 76745F64 		.ascii	"vt_delta\000"
 3517      656C7461 
 3517      00
 3518              	.LASF256:
 3519 057c 2F686F6D 		.ascii	"/home/felix/Desktop/workspace/esho/UltrasonicCortex"
ARM GAS  /tmp/ccDUvqkW.s 			page 67


 3519      652F6665 
 3519      6C69782F 
 3519      4465736B 
 3519      746F702F 
 3520 05af 2F00     		.ascii	"/\000"
 3521              	.LASF211:
 3522 05b1 5F73746D 		.ascii	"_stm32_dma_isr_redir\000"
 3522      33325F64 
 3522      6D615F69 
 3522      73725F72 
 3522      65646972 
 3523              	.LASF49:
 3524 05c6 74687265 		.ascii	"thread_reference_t\000"
 3524      61645F72 
 3524      65666572 
 3524      656E6365 
 3524      5F7400
 3525              	.LASF73:
 3526 05d9 76745F6C 		.ascii	"vt_lasttime\000"
 3526      61737474 
 3526      696D6500 
 3527              	.LASF192:
 3528 05e5 715F7772 		.ascii	"q_wrptr\000"
 3528      70747200 
 3529              	.LASF22:
 3530 05ed 74737461 		.ascii	"tstate_t\000"
 3530      74655F74 
 3530      00
 3531              	.LASF130:
 3532 05f6 73655F74 		.ascii	"se_tp\000"
 3532      7000
 3533              	.LASF102:
 3534 05fc 41484245 		.ascii	"AHBENR\000"
 3534      4E5200
 3535              	.LASF36:
 3536 0603 705F6F6C 		.ascii	"p_older\000"
 3536      64657200 
 3537              	.LASF39:
 3538 060b 705F7374 		.ascii	"p_state\000"
 3538      61746500 
 3539              	.LASF38:
 3540 0613 705F7374 		.ascii	"p_stklimit\000"
 3540      6B6C696D 
 3540      697400
 3541              	.LASF16:
 3542 061e 75696E74 		.ascii	"uint8_t\000"
 3542      385F7400 
 3543              	.LASF136:
 3544 0626 74625F62 		.ascii	"tb_buffer\000"
 3544      75666665 
 3544      7200
 3545              	.LASF111:
 3546 0630 52544F52 		.ascii	"RTOR\000"
 3546      00
 3547              	.LASF200:
 3548 0635 636D6173 		.ascii	"cmask\000"
 3548      6B00
ARM GAS  /tmp/ccDUvqkW.s 			page 68


 3549              	.LASF197:
 3550 063b 696E7075 		.ascii	"input_queue_t\000"
 3550      745F7175 
 3550      6575655F 
 3550      7400
 3551              	.LASF48:
 3552 0649 705F6D70 		.ascii	"p_mpool\000"
 3552      6F6F6C00 
 3553              	.LASF46:
 3554 0651 705F6D74 		.ascii	"p_mtxlist\000"
 3554      786C6973 
 3554      7400
 3555              	.LASF119:
 3556 065b 534D4352 		.ascii	"SMCR\000"
 3556      00
 3557              	.LASF51:
 3558 0660 63685F74 		.ascii	"ch_thread\000"
 3558      68726561 
 3558      6400
 3559              	.LASF134:
 3560 066a 74625F73 		.ascii	"tb_size\000"
 3560      697A6500 
 3561              	.LASF234:
 3562 0672 75736172 		.ascii	"usart\000"
 3562      7400
 3563              	.LASF74:
 3564 0678 73797374 		.ascii	"system_debug_t\000"
 3564      656D5F64 
 3564      65627567 
 3564      5F7400
 3565              	.LASF1:
 3566 0687 6C6F6E67 		.ascii	"long long int\000"
 3566      206C6F6E 
 3566      6720696E 
 3566      7400
 3567              	.LASF237:
 3568 0695 77726974 		.ascii	"write\000"
 3568      6500
 3569              	.LASF176:
 3570 069b 6576656E 		.ascii	"event_listener\000"
 3570      745F6C69 
 3570      7374656E 
 3570      657200
 3571              	.LASF57:
 3572 06aa 725F7175 		.ascii	"r_queue\000"
 3572      65756500 
 3573              	.LASF60:
 3574 06b2 725F6E65 		.ascii	"r_newer\000"
 3574      77657200 
 3575              	.LASF25:
 3576 06ba 6D73675F 		.ascii	"msg_t\000"
 3576      7400
 3577              	.LASF258:
 3578 06c0 56656374 		.ascii	"Vector80\000"
 3578      6F723830 
 3578      00
 3579              	.LASF215:
ARM GAS  /tmp/ccDUvqkW.s 			page 69


 3580 06c9 70757064 		.ascii	"pupdr\000"
 3580      7200
 3581              	.LASF117:
 3582 06cf 636F6E74 		.ascii	"context\000"
 3582      65787400 
 3583              	.LASF40:
 3584 06d7 705F666C 		.ascii	"p_flags\000"
 3584      61677300 
 3585              	.LASF64:
 3586 06df 76697274 		.ascii	"virtual_timer_t\000"
 3586      75616C5F 
 3586      74696D65 
 3586      725F7400 
 3587              	.LASF98:
 3588 06ef 444D415F 		.ascii	"DMA_TypeDef\000"
 3588      54797065 
 3588      44656600 
 3589              	.LASF169:
 3590 06fb 63665F6F 		.ascii	"cf_off_refs\000"
 3590      66665F72 
 3590      65667300 
 3591              	.LASF155:
 3592 0707 63685F7A 		.ascii	"ch_zero\000"
 3592      65726F00 
 3593              	.LASF198:
 3594 070f 6F757470 		.ascii	"output_queue_t\000"
 3594      75745F71 
 3594      75657565 
 3594      5F7400
 3595              	.LASF208:
 3596 071e 646D615F 		.ascii	"dma_param\000"
 3596      70617261 
 3596      6D00
 3597              	.LASF135:
 3598 0728 74625F70 		.ascii	"tb_ptr\000"
 3598      747200
 3599              	.LASF217:
 3600 072f 61667268 		.ascii	"afrh\000"
 3600      00
 3601              	.LASF216:
 3602 0734 6166726C 		.ascii	"afrl\000"
 3602      00
 3603              	.LASF61:
 3604 0739 725F6F6C 		.ascii	"r_older\000"
 3604      64657200 
 3605              	.LASF107:
 3606 0741 43464752 		.ascii	"CFGR2\000"
 3606      3200
 3607              	.LASF108:
 3608 0747 43464752 		.ascii	"CFGR3\000"
 3608      3300
 3609              	.LASF103:
 3610 074d 41504232 		.ascii	"APB2ENR\000"
 3610      454E5200 
 3611              	.LASF27:
 3612 0755 6576656E 		.ascii	"eventflags_t\000"
 3612      74666C61 
ARM GAS  /tmp/ccDUvqkW.s 			page 70


 3612      67735F74 
 3612      00
 3613              	.LASF76:
 3614 0762 70616E69 		.ascii	"panic_msg\000"
 3614      635F6D73 
 3614      6700
 3615              	.LASF89:
 3616 076c 41504232 		.ascii	"APB2FZ\000"
 3616      465A00
 3617              	.LASF185:
 3618 0773 5F426F6F 		.ascii	"_Bool\000"
 3618      6C00
 3619              	.LASF44:
 3620 0779 705F6D73 		.ascii	"p_msg\000"
 3620      6700
 3621              	.LASF240:
 3622 077f 67657474 		.ascii	"gett\000"
 3622      00
 3623              	.LASF21:
 3624 0784 746D6F64 		.ascii	"tmode_t\000"
 3624      655F7400 
 3625              	.LASF156:
 3626 078c 63685F73 		.ascii	"ch_size\000"
 3626      697A6500 
 3627              	.LASF84:
 3628 0794 6D61696E 		.ascii	"mainthread\000"
 3628      74687265 
 3628      616400
 3629              	.LASF2:
 3630 079f 6C6F6E67 		.ascii	"long double\000"
 3630      20646F75 
 3630      626C6500 
 3631              	.LASF233:
 3632 07ab 6F717565 		.ascii	"oqueue\000"
 3632      756500
 3633              	.LASF17:
 3634 07b2 75696E74 		.ascii	"uint16_t\000"
 3634      31365F74 
 3634      00
 3635              	.LASF172:
 3636 07bb 63686465 		.ascii	"chdebug_t\000"
 3636      6275675F 
 3636      7400
 3637              	.LASF199:
 3638 07c5 6368616E 		.ascii	"channel\000"
 3638      6E656C00 
 3639              	.LASF227:
 3640 07cd 53445F52 		.ascii	"SD_READY\000"
 3640      45414459 
 3640      00
 3641              	.LASF78:
 3642 07d6 6C6F636B 		.ascii	"lock_cnt\000"
 3642      5F636E74 
 3642      00
 3643              	.LASF236:
 3644 07df 53657269 		.ascii	"SerialDriverVMT\000"
 3644      616C4472 
ARM GAS  /tmp/ccDUvqkW.s 			page 71


 3644      69766572 
 3644      564D5400 
 3645              	.LASF47:
 3646 07ef 705F7265 		.ascii	"p_realprio\000"
 3646      616C7072 
 3646      696F00
 3647              	.LASF112:
 3648 07fa 52455345 		.ascii	"RESERVED1\000"
 3648      52564544 
 3648      3100
 3649              	.LASF113:
 3650 0804 52455345 		.ascii	"RESERVED2\000"
 3650      52564544 
 3650      3200
 3651              	.LASF7:
 3652 080e 73686F72 		.ascii	"short int\000"
 3652      7420696E 
 3652      7400
 3653              	.LASF157:
 3654 0818 63685F76 		.ascii	"ch_version\000"
 3654      65727369 
 3654      6F6E00
 3655              	.LASF62:
 3656 0823 725F6375 		.ascii	"r_current\000"
 3656      7272656E 
 3656      7400
 3657              	.LASF45:
 3658 082d 705F6570 		.ascii	"p_epending\000"
 3658      656E6469 
 3658      6E6700
 3659              	.LASF149:
 3660 0838 6D5F7175 		.ascii	"m_queue\000"
 3660      65756500 
 3661              	.LASF11:
 3662 0840 6C6F6E67 		.ascii	"long int\000"
 3662      20696E74 
 3662      00
 3663              	.LASF118:
 3664 0849 706F7274 		.ascii	"port_intctx\000"
 3664      5F696E74 
 3664      63747800 
 3665              	.LASF127:
 3666 0855 43435852 		.ascii	"CCXR\000"
 3666      00
 3667              	.LASF177:
 3668 085a 656C5F6E 		.ascii	"el_next\000"
 3668      65787400 
 3669              	.LASF253:
 3670 0862 5F5F656E 		.ascii	"__enable_irq\000"
 3670      61626C65 
 3670      5F697271 
 3670      00
 3671              	.LASF219:
 3672 086f 50414461 		.ascii	"PAData\000"
 3672      746100
 3673              	.LASF81:
 3674 0876 63685F73 		.ascii	"ch_system\000"
ARM GAS  /tmp/ccDUvqkW.s 			page 72


 3674      79737465 
 3674      6D00
 3675              	.LASF257:
 3676 0880 73745F6C 		.ascii	"st_lld_init\000"
 3676      6C645F69 
 3676      6E697400 
 3677              	.LASF31:
 3678 088c 705F6E65 		.ascii	"p_next\000"
 3678      787400
 3679              	.LASF20:
 3680 0893 75696E74 		.ascii	"uint64_t\000"
 3680      36345F74 
 3680      00
 3681              	.LASF34:
 3682 089c 705F6374 		.ascii	"p_ctx\000"
 3682      7800
 3683              	.LASF99:
 3684 08a2 43464752 		.ascii	"CFGR\000"
 3684      00
 3685              	.LASF82:
 3686 08a7 726C6973 		.ascii	"rlist\000"
 3686      7400
 3687              	.LASF244:
 3688 08ad 6F73616C 		.ascii	"osalSysUnlockFromISR\000"
 3688      53797355 
 3688      6E6C6F63 
 3688      6B46726F 
 3688      6D495352 
 3689              	.LASF171:
 3690 08c2 63665F6F 		.ascii	"cf_off_time\000"
 3690      66665F74 
 3690      696D6500 
 3691              	.LASF207:
 3692 08ce 646D615F 		.ascii	"dma_func\000"
 3692      66756E63 
 3692      00
 3693              	.LASF161:
 3694 08d7 63665F6F 		.ascii	"cf_off_prio\000"
 3694      66665F70 
 3694      72696F00 
 3695              	.LASF5:
 3696 08e3 5F5F7569 		.ascii	"__uint8_t\000"
 3696      6E74385F 
 3696      7400
 3697              	.LASF238:
 3698 08ed 72656164 		.ascii	"read\000"
 3698      00
 3699              	.LASF179:
 3700 08f2 656C5F65 		.ascii	"el_events\000"
 3700      76656E74 
 3700      7300
 3701              	.LASF178:
 3702 08fc 656C5F6C 		.ascii	"el_listener\000"
 3702      69737465 
 3702      6E657200 
 3703              	.LASF225:
 3704 0908 53445F55 		.ascii	"SD_UNINIT\000"
ARM GAS  /tmp/ccDUvqkW.s 			page 73


 3704      4E494E49 
 3704      5400
 3705              	.LASF154:
 3706 0912 63685F69 		.ascii	"ch_identifier\000"
 3706      64656E74 
 3706      69666965 
 3706      7200
 3707              	.LASF189:
 3708 0920 715F636F 		.ascii	"q_counter\000"
 3708      756E7465 
 3708      7200
 3709              	.LASF223:
 3710 092a 50414C43 		.ascii	"PALConfig\000"
 3710      6F6E6669 
 3710      6700
 3711              	.LASF191:
 3712 0934 715F746F 		.ascii	"q_top\000"
 3712      7000
 3713              	.LASF32:
 3714 093a 705F7072 		.ascii	"p_prev\000"
 3714      657600
 3715              	.LASF86:
 3716 0941 73697A65 		.ascii	"sizetype\000"
 3716      74797065 
 3716      00
 3717              	.LASF23:
 3718 094a 74726566 		.ascii	"trefs_t\000"
 3718      735F7400 
 3719              	.LASF13:
 3720 0952 6C6F6E67 		.ascii	"long unsigned int\000"
 3720      20756E73 
 3720      69676E65 
 3720      6420696E 
 3720      7400
 3721              	.LASF167:
 3722 0964 63665F6F 		.ascii	"cf_off_state\000"
 3722      66665F73 
 3722      74617465 
 3722      00
 3723              	.LASF55:
 3724 0971 72656164 		.ascii	"ready_list_t\000"
 3724      795F6C69 
 3724      73745F74 
 3724      00
 3725              	.LASF18:
 3726 097e 696E7433 		.ascii	"int32_t\000"
 3726      325F7400 
 3727              	.LASF79:
 3728 0986 74726163 		.ascii	"trace_buffer\000"
 3728      655F6275 
 3728      66666572 
 3728      00
 3729              	.LASF133:
 3730 0993 63685F73 		.ascii	"ch_swc_event_t\000"
 3730      77635F65 
 3730      76656E74 
 3730      5F7400
ARM GAS  /tmp/ccDUvqkW.s 			page 74


 3731              	.LASF174:
 3732 09a2 6D757465 		.ascii	"mutex_t\000"
 3732      785F7400 
 3733              	.LASF248:
 3734 09aa 706F7274 		.ascii	"port_unlock_from_isr\000"
 3734      5F756E6C 
 3734      6F636B5F 
 3734      66726F6D 
 3734      5F697372 
 3735              	.LASF6:
 3736 09bf 756E7369 		.ascii	"unsigned char\000"
 3736      676E6564 
 3736      20636861 
 3736      7200
 3737              	.LASF12:
 3738 09cd 5F5F7569 		.ascii	"__uint32_t\000"
 3738      6E743332 
 3738      5F7400
 3739              	.LASF71:
 3740 09d8 76697274 		.ascii	"virtual_timers_list_t\000"
 3740      75616C5F 
 3740      74696D65 
 3740      72735F6C 
 3740      6973745F 
 3741              	.LASF41:
 3742 09ee 705F7265 		.ascii	"p_refs\000"
 3742      667300
 3743              	.LASF245:
 3744 09f5 6F73616C 		.ascii	"osalSysLockFromISR\000"
 3744      5379734C 
 3744      6F636B46 
 3744      726F6D49 
 3744      535200
 3745              	.LASF106:
 3746 0a08 41484252 		.ascii	"AHBRSTR\000"
 3746      53545200 
 3747              	.LASF183:
 3748 0a10 65735F6E 		.ascii	"es_next\000"
 3748      65787400 
 3749              	.LASF231:
 3750 0a18 73746174 		.ascii	"state\000"
 3750      6500
 3751              	.LASF66:
 3752 0a1e 76745F6E 		.ascii	"vt_next\000"
 3752      65787400 
 3753              	.LASF80:
 3754 0a26 63685F73 		.ascii	"ch_system_t\000"
 3754      79737465 
 3754      6D5F7400 
 3755              	.LASF142:
 3756 0a32 77747365 		.ascii	"wtsemp\000"
 3756      6D7000
 3757              	.LASF141:
 3758 0a39 77747472 		.ascii	"wttrp\000"
 3758      7000
 3759              	.LASF196:
 3760 0a3f 716E6F74 		.ascii	"qnotify_t\000"
ARM GAS  /tmp/ccDUvqkW.s 			page 75


 3760      6966795F 
 3760      7400
 3761              	.LASF137:
 3762 0a49 63685F74 		.ascii	"ch_trace_buffer_t\000"
 3762      72616365 
 3762      5F627566 
 3762      6665725F 
 3762      7400
 3763              	.LASF151:
 3764 0a5b 6D5F6E65 		.ascii	"m_next\000"
 3764      787400
 3765              	.LASF3:
 3766 0a62 7369676E 		.ascii	"signed char\000"
 3766      65642063 
 3766      68617200 
 3767              	.LASF163:
 3768 0a6e 63665F6F 		.ascii	"cf_off_newer\000"
 3768      66665F6E 
 3768      65776572 
 3768      00
 3769              	.LASF187:
 3770 0a7b 696F5F71 		.ascii	"io_queue\000"
 3770      75657565 
 3770      00
 3771              	.LASF242:
 3772 0a84 72656164 		.ascii	"readt\000"
 3772      7400
 3773              	.LASF9:
 3774 0a8a 73686F72 		.ascii	"short unsigned int\000"
 3774      7420756E 
 3774      7369676E 
 3774      65642069 
 3774      6E7400
 3775              	.LASF59:
 3776 0a9d 725F6374 		.ascii	"r_ctx\000"
 3776      7800
 3777              	.LASF116:
 3778 0aa3 73746B61 		.ascii	"stkalign_t\000"
 3778      6C69676E 
 3778      5F7400
 3779              	.LASF205:
 3780 0aae 73746D33 		.ascii	"stm32_dma_stream_t\000"
 3780      325F646D 
 3780      615F7374 
 3780      7265616D 
 3780      5F7400
 3781              	.LASF95:
 3782 0ac1 49464352 		.ascii	"IFCR\000"
 3782      00
 3783              	.LASF97:
 3784 0ac6 4353454C 		.ascii	"CSELR\000"
 3784      5200
 3785              	.LASF173:
 3786 0acc 63685F64 		.ascii	"ch_debug\000"
 3786      65627567 
 3786      00
 3787              	.LASF69:
ARM GAS  /tmp/ccDUvqkW.s 			page 76


 3788 0ad5 76745F66 		.ascii	"vt_func\000"
 3788      756E6300 
 3789              	.LASF250:
 3790 0add 706F7274 		.ascii	"port_unlock\000"
 3790      5F756E6C 
 3790      6F636B00 
 3791              	.LASF67:
 3792 0ae9 76745F70 		.ascii	"vt_prev\000"
 3792      72657600 
 3793              	.LASF96:
 3794 0af1 52455345 		.ascii	"RESERVED0\000"
 3794      52564544 
 3794      3000
 3795              	.LASF222:
 3796 0afb 50464461 		.ascii	"PFData\000"
 3796      746100
 3797              	.LASF210:
 3798 0b02 5F73746D 		.ascii	"_stm32_dma_streams\000"
 3798      33325F64 
 3798      6D615F73 
 3798      74726561 
 3798      6D7300
 3799              	.LASF214:
 3800 0b15 6F737065 		.ascii	"ospeedr\000"
 3800      65647200 
 3801              	.LASF259:
 3802 0b1d 5F736176 		.ascii	"_saved_lr\000"
 3802      65645F6C 
 3802      7200
 3803              	.LASF193:
 3804 0b27 715F7264 		.ascii	"q_rdptr\000"
 3804      70747200 
 3805              	.LASF180:
 3806 0b2f 656C5F66 		.ascii	"el_flags\000"
 3806      6C616773 
 3806      00
 3807              	.LASF139:
 3808 0b38 65786974 		.ascii	"exitcode\000"
 3808      636F6465 
 3808      00
 3809              	.LASF203:
 3810 0b41 73656C66 		.ascii	"selfindex\000"
 3810      696E6465 
 3810      7800
 3811              	.LASF87:
 3812 0b4b 4944434F 		.ascii	"IDCODE\000"
 3812      444500
 3813              	.LASF190:
 3814 0b52 715F6275 		.ascii	"q_buffer\000"
 3814      66666572 
 3814      00
 3815              		.ident	"GCC: (GNU Tools for ARM Embedded Processors 6-2017-q1-update) 6.3.1 20170215 (release) [AR
ARM GAS  /tmp/ccDUvqkW.s 			page 77


DEFINED SYMBOLS
                            *ABS*:0000000000000000 st_lld.c
     /tmp/ccDUvqkW.s:16     .text.port_lock:0000000000000000 $t
     /tmp/ccDUvqkW.s:23     .text.port_lock:0000000000000000 port_lock
     /tmp/ccDUvqkW.s:51     .text.port_unlock:0000000000000000 $t
     /tmp/ccDUvqkW.s:58     .text.port_unlock:0000000000000000 port_unlock
     /tmp/ccDUvqkW.s:84     .text.port_lock_from_isr:0000000000000000 $t
     /tmp/ccDUvqkW.s:91     .text.port_lock_from_isr:0000000000000000 port_lock_from_isr
     /tmp/ccDUvqkW.s:111    .text.port_unlock_from_isr:0000000000000000 $t
     /tmp/ccDUvqkW.s:118    .text.port_unlock_from_isr:0000000000000000 port_unlock_from_isr
     /tmp/ccDUvqkW.s:138    .text.chSysLockFromISR:0000000000000000 $t
     /tmp/ccDUvqkW.s:145    .text.chSysLockFromISR:0000000000000000 chSysLockFromISR
     /tmp/ccDUvqkW.s:168    .text.chSysUnlockFromISR:0000000000000000 $t
     /tmp/ccDUvqkW.s:175    .text.chSysUnlockFromISR:0000000000000000 chSysUnlockFromISR
     /tmp/ccDUvqkW.s:197    .text.osalSysLockFromISR:0000000000000000 $t
     /tmp/ccDUvqkW.s:204    .text.osalSysLockFromISR:0000000000000000 osalSysLockFromISR
     /tmp/ccDUvqkW.s:225    .text.osalSysUnlockFromISR:0000000000000000 $t
     /tmp/ccDUvqkW.s:232    .text.osalSysUnlockFromISR:0000000000000000 osalSysUnlockFromISR
     /tmp/ccDUvqkW.s:252    .text.osalOsTimerHandlerI:0000000000000000 $t
     /tmp/ccDUvqkW.s:259    .text.osalOsTimerHandlerI:0000000000000000 osalOsTimerHandlerI
     /tmp/ccDUvqkW.s:279    .text.Vector80:0000000000000000 $t
     /tmp/ccDUvqkW.s:287    .text.Vector80:0000000000000000 Vector80
     /tmp/ccDUvqkW.s:333    .text.Vector80:000000000000003c $d
     /tmp/ccDUvqkW.s:338    .text.st_lld_init:0000000000000000 $t
     /tmp/ccDUvqkW.s:346    .text.st_lld_init:0000000000000000 st_lld_init
     /tmp/ccDUvqkW.s:413    .text.st_lld_init:0000000000000058 $d
                     .debug_frame:0000000000000010 $d

UNDEFINED SYMBOLS
_dbg_check_lock_from_isr
_dbg_check_unlock_from_isr
chSysTimerHandlerI
_dbg_check_enter_isr
_dbg_check_leave_isr
_port_irq_epilogue
nvicEnableVector
