ARM GAS  /tmp/cc1cNmY3.s 			page 1


   1              		.cpu cortex-m0
   2              		.eabi_attribute 20, 1
   3              		.eabi_attribute 21, 1
   4              		.eabi_attribute 23, 3
   5              		.eabi_attribute 24, 1
   6              		.eabi_attribute 25, 1
   7              		.eabi_attribute 26, 1
   8              		.eabi_attribute 30, 6
   9              		.eabi_attribute 34, 0
  10              		.eabi_attribute 18, 4
  11              		.file	"syscalls_cpp.cpp"
  12              		.text
  13              	.Ltext0:
  14              		.cfi_sections	.debug_frame
  15              		.section	.text._ZL11osalSysHaltPKc,"ax",%progbits
  16              		.align	1
  17              		.p2align 4,,15
  18              		.syntax unified
  19              		.code	16
  20              		.thumb_func
  21              		.fpu softvfp
  22              		.type	_ZL11osalSysHaltPKc, %function
  23              	_ZL11osalSysHaltPKc:
  24              	.LFB154:
  25              		.file 1 "ChibiOS/os/hal/osal/rt/osal.h"
  26              		.loc 1 460 0
  27              		.cfi_startproc
  28              		@ args = 0, pretend = 0, frame = 8
  29              		@ frame_needed = 0, uses_anonymous_args = 0
  30 0000 00B5     		push	{lr}
  31              		.cfi_def_cfa_offset 4
  32              		.cfi_offset 14, -4
  33 0002 83B0     		sub	sp, sp, #12
  34              		.cfi_def_cfa_offset 16
  35 0004 0190     		str	r0, [sp, #4]
  36              		.loc 1 462 0
  37 0006 019B     		ldr	r3, [sp, #4]
  38 0008 1800     		movs	r0, r3
  39 000a FFF7FEFF 		bl	chSysHalt
  40              		.loc 1 463 0
  41 000e C046     		nop
  42 0010 03B0     		add	sp, sp, #12
  43              		@ sp needed
  44 0012 00BD     		pop	{pc}
  45              		.cfi_endproc
  46              	.LFE154:
  47              		.size	_ZL11osalSysHaltPKc, .-_ZL11osalSysHaltPKc
  48              		.global	__dso_handle
  49              		.section	.bss.__dso_handle,"aw",%nobits
  50              		.align	2
  51              		.type	__dso_handle, %object
  52              		.size	__dso_handle, 4
  53              	__dso_handle:
  54 0000 00000000 		.space	4
  55              		.section	.rodata
  56              		.align	2
  57              	.LC0:
ARM GAS  /tmp/cc1cNmY3.s 			page 2


  58 0000 556E7265 		.ascii	"Unrealized\000"
  58      616C697A 
  58      656400
  59              		.section	.text._exit,"ax",%progbits
  60              		.align	1
  61              		.p2align 4,,15
  62              		.global	_exit
  63              		.syntax unified
  64              		.code	16
  65              		.thumb_func
  66              		.fpu softvfp
  67              		.type	_exit, %function
  68              	_exit:
  69              	.LFB183:
  70              		.file 2 "ChibiOS/os/various/cpp_wrappers/syscalls_cpp.cpp"
  71              		.loc 2 12 0
  72              		.cfi_startproc
  73              		@ args = 0, pretend = 0, frame = 8
  74              		@ frame_needed = 0, uses_anonymous_args = 0
  75 0000 00B5     		push	{lr}
  76              		.cfi_def_cfa_offset 4
  77              		.cfi_offset 14, -4
  78 0002 83B0     		sub	sp, sp, #12
  79              		.cfi_def_cfa_offset 16
  80 0004 0190     		str	r0, [sp, #4]
  81              		.loc 2 14 0
  82 0006 024B     		ldr	r3, .L4
  83 0008 1800     		movs	r0, r3
  84 000a FFF7FEFF 		bl	_ZL11osalSysHaltPKc
  85              	.L3:
  86              		.loc 2 15 0 discriminator 1
  87 000e FEE7     		b	.L3
  88              	.L5:
  89              		.align	2
  90              	.L4:
  91 0010 00000000 		.word	.LC0
  92              		.cfi_endproc
  93              	.LFE183:
  94              		.size	_exit, .-_exit
  95              		.section	.text._getpid,"ax",%progbits
  96              		.align	1
  97              		.p2align 4,,15
  98              		.global	_getpid
  99              		.syntax unified
 100              		.code	16
 101              		.thumb_func
 102              		.fpu softvfp
 103              		.type	_getpid, %function
 104              	_getpid:
 105              	.LFB184:
 106              		.loc 2 18 0
 107              		.cfi_startproc
 108              		@ args = 0, pretend = 0, frame = 0
 109              		@ frame_needed = 0, uses_anonymous_args = 0
 110              		@ link register save eliminated.
 111              		.loc 2 19 0
 112 0000 0123     		movs	r3, #1
ARM GAS  /tmp/cc1cNmY3.s 			page 3


 113              		.loc 2 20 0
 114 0002 1800     		movs	r0, r3
 115              		@ sp needed
 116 0004 7047     		bx	lr
 117              		.cfi_endproc
 118              	.LFE184:
 119              		.size	_getpid, .-_getpid
 120 0006 C046     		.section	.text._kill,"ax",%progbits
 121              		.align	1
 122              		.p2align 4,,15
 123              		.global	_kill
 124              		.syntax unified
 125              		.code	16
 126              		.thumb_func
 127              		.fpu softvfp
 128              		.type	_kill, %function
 129              	_kill:
 130              	.LFB185:
 131              		.loc 2 24 0
 132              		.cfi_startproc
 133              		@ args = 0, pretend = 0, frame = 8
 134              		@ frame_needed = 0, uses_anonymous_args = 0
 135              		@ link register save eliminated.
 136 0000 82B0     		sub	sp, sp, #8
 137              		.cfi_def_cfa_offset 8
 138 0002 0190     		str	r0, [sp, #4]
 139 0004 0091     		str	r1, [sp]
 140              		.loc 2 27 0
 141 0006 044B     		ldr	r3, .L10
 142 0008 1622     		movs	r2, #22
 143 000a 1A60     		str	r2, [r3]
 144              		.loc 2 28 0
 145 000c 0123     		movs	r3, #1
 146 000e 5B42     		rsbs	r3, r3, #0
 147              		.loc 2 29 0
 148 0010 1800     		movs	r0, r3
 149 0012 02B0     		add	sp, sp, #8
 150              		@ sp needed
 151 0014 7047     		bx	lr
 152              	.L11:
 153 0016 C046     		.align	2
 154              	.L10:
 155 0018 00000000 		.word	errno
 156              		.cfi_endproc
 157              	.LFE185:
 158              		.size	_kill, .-_kill
 159              		.section	.text._open_r,"ax",%progbits
 160              		.align	1
 161              		.p2align 4,,15
 162              		.global	_open_r
 163              		.syntax unified
 164              		.code	16
 165              		.thumb_func
 166              		.fpu softvfp
 167              		.type	_open_r, %function
 168              	_open_r:
 169              	.LFB186:
ARM GAS  /tmp/cc1cNmY3.s 			page 4


 170              		.loc 2 31 0
 171              		.cfi_startproc
 172              		@ args = 0, pretend = 0, frame = 0
 173              		@ frame_needed = 0, uses_anonymous_args = 0
 174              		@ link register save eliminated.
 175              		.loc 2 32 0
 176 0000 C046     		nop
 177              		.loc 2 33 0
 178              		@ sp needed
 179 0002 7047     		bx	lr
 180              		.cfi_endproc
 181              	.LFE186:
 182              		.size	_open_r, .-_open_r
 183              		.section	.rodata
 184 000b 00       		.align	2
 185              	.LC3:
 186 000c 50757265 		.ascii	"Pure virtual function call.\000"
 186      20766972 
 186      7475616C 
 186      2066756E 
 186      6374696F 
 187              		.section	.text.__cxa_pure_virtual,"ax",%progbits
 188              		.align	1
 189              		.p2align 4,,15
 190              		.global	__cxa_pure_virtual
 191              		.syntax unified
 192              		.code	16
 193              		.thumb_func
 194              		.fpu softvfp
 195              		.type	__cxa_pure_virtual, %function
 196              	__cxa_pure_virtual:
 197              	.LFB187:
 198              		.loc 2 35 0
 199              		.cfi_startproc
 200              		@ args = 0, pretend = 0, frame = 0
 201              		@ frame_needed = 0, uses_anonymous_args = 0
 202 0000 10B5     		push	{r4, lr}
 203              		.cfi_def_cfa_offset 8
 204              		.cfi_offset 4, -8
 205              		.cfi_offset 14, -4
 206              		.loc 2 36 0
 207 0002 034B     		ldr	r3, .L15
 208 0004 1800     		movs	r0, r3
 209 0006 FFF7FEFF 		bl	_ZL11osalSysHaltPKc
 210              		.loc 2 37 0
 211 000a C046     		nop
 212              		@ sp needed
 213 000c 10BD     		pop	{r4, pc}
 214              	.L16:
 215 000e C046     		.align	2
 216              	.L15:
 217 0010 0C000000 		.word	.LC3
 218              		.cfi_endproc
 219              	.LFE187:
 220              		.size	__cxa_pure_virtual, .-__cxa_pure_virtual
 221              		.text
 222              	.Letext0:
ARM GAS  /tmp/cc1cNmY3.s 			page 5


 223              		.file 3 "/home/felix/opt/gcc-arm-none-eabi-6-2017-q1-update/arm-none-eabi/include/machine/_default
 224              		.file 4 "/home/felix/opt/gcc-arm-none-eabi-6-2017-q1-update/lib/gcc/arm-none-eabi/6.3.1/include/st
 225              		.file 5 "/home/felix/opt/gcc-arm-none-eabi-6-2017-q1-update/arm-none-eabi/include/sys/lock.h"
 226              		.file 6 "/home/felix/opt/gcc-arm-none-eabi-6-2017-q1-update/arm-none-eabi/include/sys/_types.h"
 227              		.file 7 "/home/felix/opt/gcc-arm-none-eabi-6-2017-q1-update/arm-none-eabi/include/sys/reent.h"
 228              		.file 8 "/home/felix/opt/gcc-arm-none-eabi-6-2017-q1-update/arm-none-eabi/include/sys/_stdint.h"
 229              		.file 9 "/home/felix/opt/gcc-arm-none-eabi-6-2017-q1-update/arm-none-eabi/include/sys/types.h"
 230              		.file 10 "/home/felix/opt/gcc-arm-none-eabi-6-2017-q1-update/arm-none-eabi/include/sys/errno.h"
 231              		.file 11 "ChibiOS/os/rt/ports/ARMCMx/compilers/GCC/chtypes.h"
 232              		.file 12 "ChibiOS/os/rt/include/chsystypes.h"
 233              		.file 13 "ChibiOS/os/rt/include/chschd.h"
 234              		.file 14 "ChibiOS/os/ext/CMSIS/ST/STM32F0xx/system_stm32f0xx.h"
 235              		.file 15 "ChibiOS/os/ext/CMSIS/ST/STM32F0xx/stm32f0xx.h"
 236              		.file 16 "ChibiOS/os/rt/ports/ARMCMx/chcore.h"
 237              		.file 17 "ChibiOS/os/rt/ports/ARMCMx/chcore_v6m.h"
 238              		.file 18 "ChibiOS/os/rt/include/chdebug.h"
 239              		.file 19 "ChibiOS/os/rt/include/chsem.h"
 240              		.file 20 "ChibiOS/os/rt/include/chmtx.h"
 241              		.file 21 "ChibiOS/os/rt/include/chregistry.h"
 242              		.file 22 "ChibiOS/os/various/cpp_wrappers/syscalls_cpp.hpp"
 243              		.section	.debug_info,"",%progbits
 244              	.Ldebug_info0:
 245 0000 99110000 		.4byte	0x1199
 246 0004 0400     		.2byte	0x4
 247 0006 00000000 		.4byte	.Ldebug_abbrev0
 248 000a 04       		.byte	0x4
 249 000b 01       		.uleb128 0x1
 250 000c 7B020000 		.4byte	.LASF273
 251 0010 04       		.byte	0x4
 252 0011 FB010000 		.4byte	.LASF274
 253 0015 84050000 		.4byte	.LASF275
 254 0019 00000000 		.4byte	.Ldebug_ranges0+0
 255 001d 00000000 		.4byte	0
 256 0021 00000000 		.4byte	.Ldebug_line0
 257 0025 02       		.uleb128 0x2
 258 0026 01       		.byte	0x1
 259 0027 06       		.byte	0x6
 260 0028 ED0A0000 		.4byte	.LASF0
 261 002c 03       		.uleb128 0x3
 262 002d FB080000 		.4byte	.LASF3
 263 0031 03       		.byte	0x3
 264 0032 2B       		.byte	0x2b
 265 0033 37000000 		.4byte	0x37
 266 0037 02       		.uleb128 0x2
 267 0038 01       		.byte	0x1
 268 0039 08       		.byte	0x8
 269 003a 190A0000 		.4byte	.LASF1
 270 003e 02       		.uleb128 0x2
 271 003f 02       		.byte	0x2
 272 0040 05       		.byte	0x5
 273 0041 26080000 		.4byte	.LASF2
 274 0045 03       		.uleb128 0x3
 275 0046 29040000 		.4byte	.LASF4
 276 004a 03       		.byte	0x3
 277 004b 39       		.byte	0x39
 278 004c 50000000 		.4byte	0x50
 279 0050 02       		.uleb128 0x2
ARM GAS  /tmp/cc1cNmY3.s 			page 6


 280 0051 02       		.byte	0x2
 281 0052 07       		.byte	0x7
 282 0053 0D0B0000 		.4byte	.LASF5
 283 0057 03       		.uleb128 0x3
 284 0058 21010000 		.4byte	.LASF6
 285 005c 03       		.byte	0x3
 286 005d 4D       		.byte	0x4d
 287 005e 62000000 		.4byte	0x62
 288 0062 02       		.uleb128 0x2
 289 0063 04       		.byte	0x4
 290 0064 05       		.byte	0x5
 291 0065 4D080000 		.4byte	.LASF7
 292 0069 03       		.uleb128 0x3
 293 006a 270A0000 		.4byte	.LASF8
 294 006e 03       		.byte	0x3
 295 006f 4F       		.byte	0x4f
 296 0070 74000000 		.4byte	0x74
 297 0074 02       		.uleb128 0x2
 298 0075 04       		.byte	0x4
 299 0076 07       		.byte	0x7
 300 0077 73090000 		.4byte	.LASF9
 301 007b 02       		.uleb128 0x2
 302 007c 08       		.byte	0x8
 303 007d 05       		.byte	0x5
 304 007e A8060000 		.4byte	.LASF10
 305 0082 03       		.uleb128 0x3
 306 0083 E6040000 		.4byte	.LASF11
 307 0087 03       		.byte	0x3
 308 0088 69       		.byte	0x69
 309 0089 8D000000 		.4byte	0x8d
 310 008d 02       		.uleb128 0x2
 311 008e 08       		.byte	0x8
 312 008f 07       		.byte	0x7
 313 0090 CE030000 		.4byte	.LASF12
 314 0094 04       		.uleb128 0x4
 315 0095 04       		.byte	0x4
 316 0096 05       		.byte	0x5
 317 0097 696E7400 		.ascii	"int\000"
 318 009b 02       		.uleb128 0x2
 319 009c 04       		.byte	0x4
 320 009d 07       		.byte	0x7
 321 009e CF000000 		.4byte	.LASF13
 322 00a2 03       		.uleb128 0x3
 323 00a3 95040000 		.4byte	.LASF14
 324 00a7 04       		.byte	0x4
 325 00a8 D8       		.byte	0xd8
 326 00a9 9B000000 		.4byte	0x9b
 327 00ad 02       		.uleb128 0x2
 328 00ae 08       		.byte	0x8
 329 00af 04       		.byte	0x4
 330 00b0 CC070000 		.4byte	.LASF15
 331 00b4 05       		.uleb128 0x5
 332 00b5 6C0A0000 		.4byte	.LASF276
 333 00b9 06       		.uleb128 0x6
 334 00ba 04       		.byte	0x4
 335 00bb 03       		.uleb128 0x3
 336 00bc D8070000 		.4byte	.LASF16
ARM GAS  /tmp/cc1cNmY3.s 			page 7


 337 00c0 05       		.byte	0x5
 338 00c1 22       		.byte	0x22
 339 00c2 C6000000 		.4byte	0xc6
 340 00c6 07       		.uleb128 0x7
 341 00c7 04       		.byte	0x4
 342 00c8 CC000000 		.4byte	0xcc
 343 00cc 08       		.uleb128 0x8
 344 00cd EC090000 		.4byte	.LASF125
 345 00d1 03       		.uleb128 0x3
 346 00d2 660B0000 		.4byte	.LASF17
 347 00d6 06       		.byte	0x6
 348 00d7 2C       		.byte	0x2c
 349 00d8 62000000 		.4byte	0x62
 350 00dc 03       		.uleb128 0x3
 351 00dd A0060000 		.4byte	.LASF18
 352 00e1 06       		.byte	0x6
 353 00e2 32       		.byte	0x32
 354 00e3 94000000 		.4byte	0x94
 355 00e7 03       		.uleb128 0x3
 356 00e8 E6010000 		.4byte	.LASF19
 357 00ec 06       		.byte	0x6
 358 00ed 72       		.byte	0x72
 359 00ee 62000000 		.4byte	0x62
 360 00f2 09       		.uleb128 0x9
 361 00f3 B7090000 		.4byte	.LASF20
 362 00f7 04       		.byte	0x4
 363 00f8 6501     		.2byte	0x165
 364 00fa 9B000000 		.4byte	0x9b
 365 00fe 0A       		.uleb128 0xa
 366 00ff 08       		.byte	0x8
 367 0100 06       		.byte	0x6
 368 0101 A4       		.byte	0xa4
 369 0102 1B050000 		.4byte	.LASF224
 370 0106 42010000 		.4byte	0x142
 371 010a 0B       		.uleb128 0xb
 372 010b 04       		.byte	0x4
 373 010c 06       		.byte	0x6
 374 010d A7       		.byte	0xa7
 375 010e 29010000 		.4byte	0x129
 376 0112 0C       		.uleb128 0xc
 377 0113 0B060000 		.4byte	.LASF21
 378 0117 06       		.byte	0x6
 379 0118 A8       		.byte	0xa8
 380 0119 F2000000 		.4byte	0xf2
 381 011d 0C       		.uleb128 0xc
 382 011e 96080000 		.4byte	.LASF22
 383 0122 06       		.byte	0x6
 384 0123 A9       		.byte	0xa9
 385 0124 42010000 		.4byte	0x142
 386 0128 00       		.byte	0
 387 0129 0D       		.uleb128 0xd
 388 012a 78030000 		.4byte	.LASF23
 389 012e 06       		.byte	0x6
 390 012f A5       		.byte	0xa5
 391 0130 94000000 		.4byte	0x94
 392 0134 00       		.byte	0
 393 0135 0D       		.uleb128 0xd
ARM GAS  /tmp/cc1cNmY3.s 			page 8


 394 0136 FC040000 		.4byte	.LASF24
 395 013a 06       		.byte	0x6
 396 013b AA       		.byte	0xaa
 397 013c 0A010000 		.4byte	0x10a
 398 0140 04       		.byte	0x4
 399 0141 00       		.byte	0
 400 0142 0E       		.uleb128 0xe
 401 0143 37000000 		.4byte	0x37
 402 0147 52010000 		.4byte	0x152
 403 014b 0F       		.uleb128 0xf
 404 014c 52010000 		.4byte	0x152
 405 0150 03       		.byte	0x3
 406 0151 00       		.byte	0
 407 0152 02       		.uleb128 0x2
 408 0153 04       		.byte	0x4
 409 0154 07       		.byte	0x7
 410 0155 62090000 		.4byte	.LASF25
 411 0159 03       		.uleb128 0x3
 412 015a 49070000 		.4byte	.LASF26
 413 015e 06       		.byte	0x6
 414 015f AB       		.byte	0xab
 415 0160 FE000000 		.4byte	0xfe
 416 0164 03       		.uleb128 0x3
 417 0165 E7050000 		.4byte	.LASF27
 418 0169 06       		.byte	0x6
 419 016a AF       		.byte	0xaf
 420 016b BB000000 		.4byte	0xbb
 421 016f 03       		.uleb128 0x3
 422 0170 DC060000 		.4byte	.LASF28
 423 0174 07       		.byte	0x7
 424 0175 16       		.byte	0x16
 425 0176 74000000 		.4byte	0x74
 426 017a 10       		.uleb128 0x10
 427 017b 42020000 		.4byte	.LASF33
 428 017f 18       		.byte	0x18
 429 0180 07       		.byte	0x7
 430 0181 2F       		.byte	0x2f
 431 0182 CD010000 		.4byte	0x1cd
 432 0186 0D       		.uleb128 0xd
 433 0187 D7040000 		.4byte	.LASF29
 434 018b 07       		.byte	0x7
 435 018c 31       		.byte	0x31
 436 018d CD010000 		.4byte	0x1cd
 437 0191 00       		.byte	0
 438 0192 11       		.uleb128 0x11
 439 0193 5F6B00   		.ascii	"_k\000"
 440 0196 07       		.byte	0x7
 441 0197 32       		.byte	0x32
 442 0198 94000000 		.4byte	0x94
 443 019c 04       		.byte	0x4
 444 019d 0D       		.uleb128 0xd
 445 019e 12090000 		.4byte	.LASF30
 446 01a2 07       		.byte	0x7
 447 01a3 32       		.byte	0x32
 448 01a4 94000000 		.4byte	0x94
 449 01a8 08       		.byte	0x8
 450 01a9 0D       		.uleb128 0xd
ARM GAS  /tmp/cc1cNmY3.s 			page 9


 451 01aa 67080000 		.4byte	.LASF31
 452 01ae 07       		.byte	0x7
 453 01af 32       		.byte	0x32
 454 01b0 94000000 		.4byte	0x94
 455 01b4 0C       		.byte	0xc
 456 01b5 0D       		.uleb128 0xd
 457 01b6 0C040000 		.4byte	.LASF32
 458 01ba 07       		.byte	0x7
 459 01bb 32       		.byte	0x32
 460 01bc 94000000 		.4byte	0x94
 461 01c0 10       		.byte	0x10
 462 01c1 11       		.uleb128 0x11
 463 01c2 5F7800   		.ascii	"_x\000"
 464 01c5 07       		.byte	0x7
 465 01c6 33       		.byte	0x33
 466 01c7 D3010000 		.4byte	0x1d3
 467 01cb 14       		.byte	0x14
 468 01cc 00       		.byte	0
 469 01cd 07       		.uleb128 0x7
 470 01ce 04       		.byte	0x4
 471 01cf 7A010000 		.4byte	0x17a
 472 01d3 0E       		.uleb128 0xe
 473 01d4 6F010000 		.4byte	0x16f
 474 01d8 E3010000 		.4byte	0x1e3
 475 01dc 0F       		.uleb128 0xf
 476 01dd 52010000 		.4byte	0x152
 477 01e1 00       		.byte	0
 478 01e2 00       		.byte	0
 479 01e3 10       		.uleb128 0x10
 480 01e4 49090000 		.4byte	.LASF34
 481 01e8 24       		.byte	0x24
 482 01e9 07       		.byte	0x7
 483 01ea 37       		.byte	0x37
 484 01eb 5C020000 		.4byte	0x25c
 485 01ef 0D       		.uleb128 0xd
 486 01f0 BA040000 		.4byte	.LASF35
 487 01f4 07       		.byte	0x7
 488 01f5 39       		.byte	0x39
 489 01f6 94000000 		.4byte	0x94
 490 01fa 00       		.byte	0
 491 01fb 0D       		.uleb128 0xd
 492 01fc 80030000 		.4byte	.LASF36
 493 0200 07       		.byte	0x7
 494 0201 3A       		.byte	0x3a
 495 0202 94000000 		.4byte	0x94
 496 0206 04       		.byte	0x4
 497 0207 0D       		.uleb128 0xd
 498 0208 65020000 		.4byte	.LASF37
 499 020c 07       		.byte	0x7
 500 020d 3B       		.byte	0x3b
 501 020e 94000000 		.4byte	0x94
 502 0212 08       		.byte	0x8
 503 0213 0D       		.uleb128 0xd
 504 0214 5B050000 		.4byte	.LASF38
 505 0218 07       		.byte	0x7
 506 0219 3C       		.byte	0x3c
 507 021a 94000000 		.4byte	0x94
ARM GAS  /tmp/cc1cNmY3.s 			page 10


 508 021e 0C       		.byte	0xc
 509 021f 0D       		.uleb128 0xd
 510 0220 C3070000 		.4byte	.LASF39
 511 0224 07       		.byte	0x7
 512 0225 3D       		.byte	0x3d
 513 0226 94000000 		.4byte	0x94
 514 022a 10       		.byte	0x10
 515 022b 0D       		.uleb128 0xd
 516 022c B6080000 		.4byte	.LASF40
 517 0230 07       		.byte	0x7
 518 0231 3E       		.byte	0x3e
 519 0232 94000000 		.4byte	0x94
 520 0236 14       		.byte	0x14
 521 0237 0D       		.uleb128 0xd
 522 0238 4A020000 		.4byte	.LASF41
 523 023c 07       		.byte	0x7
 524 023d 3F       		.byte	0x3f
 525 023e 94000000 		.4byte	0x94
 526 0242 18       		.byte	0x18
 527 0243 0D       		.uleb128 0xd
 528 0244 C3040000 		.4byte	.LASF42
 529 0248 07       		.byte	0x7
 530 0249 40       		.byte	0x40
 531 024a 94000000 		.4byte	0x94
 532 024e 1C       		.byte	0x1c
 533 024f 0D       		.uleb128 0xd
 534 0250 5B070000 		.4byte	.LASF43
 535 0254 07       		.byte	0x7
 536 0255 41       		.byte	0x41
 537 0256 94000000 		.4byte	0x94
 538 025a 20       		.byte	0x20
 539 025b 00       		.byte	0
 540 025c 12       		.uleb128 0x12
 541 025d 6A000000 		.4byte	.LASF44
 542 0261 0801     		.2byte	0x108
 543 0263 07       		.byte	0x7
 544 0264 4A       		.byte	0x4a
 545 0265 9C020000 		.4byte	0x29c
 546 0269 0D       		.uleb128 0xd
 547 026a E50A0000 		.4byte	.LASF45
 548 026e 07       		.byte	0x7
 549 026f 4B       		.byte	0x4b
 550 0270 9C020000 		.4byte	0x29c
 551 0274 00       		.byte	0
 552 0275 0D       		.uleb128 0xd
 553 0276 D3090000 		.4byte	.LASF46
 554 027a 07       		.byte	0x7
 555 027b 4C       		.byte	0x4c
 556 027c 9C020000 		.4byte	0x29c
 557 0280 80       		.byte	0x80
 558 0281 13       		.uleb128 0x13
 559 0282 470B0000 		.4byte	.LASF47
 560 0286 07       		.byte	0x7
 561 0287 4E       		.byte	0x4e
 562 0288 6F010000 		.4byte	0x16f
 563 028c 0001     		.2byte	0x100
 564 028e 13       		.uleb128 0x13
ARM GAS  /tmp/cc1cNmY3.s 			page 11


 565 028f A60B0000 		.4byte	.LASF48
 566 0293 07       		.byte	0x7
 567 0294 51       		.byte	0x51
 568 0295 6F010000 		.4byte	0x16f
 569 0299 0401     		.2byte	0x104
 570 029b 00       		.byte	0
 571 029c 0E       		.uleb128 0xe
 572 029d B9000000 		.4byte	0xb9
 573 02a1 AC020000 		.4byte	0x2ac
 574 02a5 0F       		.uleb128 0xf
 575 02a6 52010000 		.4byte	0x152
 576 02aa 1F       		.byte	0x1f
 577 02ab 00       		.byte	0
 578 02ac 12       		.uleb128 0x12
 579 02ad 08080000 		.4byte	.LASF49
 580 02b1 9001     		.2byte	0x190
 581 02b3 07       		.byte	0x7
 582 02b4 5D       		.byte	0x5d
 583 02b5 EA020000 		.4byte	0x2ea
 584 02b9 0D       		.uleb128 0xd
 585 02ba D7040000 		.4byte	.LASF29
 586 02be 07       		.byte	0x7
 587 02bf 5E       		.byte	0x5e
 588 02c0 EA020000 		.4byte	0x2ea
 589 02c4 00       		.byte	0
 590 02c5 0D       		.uleb128 0xd
 591 02c6 D2040000 		.4byte	.LASF50
 592 02ca 07       		.byte	0x7
 593 02cb 5F       		.byte	0x5f
 594 02cc 94000000 		.4byte	0x94
 595 02d0 04       		.byte	0x4
 596 02d1 0D       		.uleb128 0xd
 597 02d2 EE010000 		.4byte	.LASF51
 598 02d6 07       		.byte	0x7
 599 02d7 61       		.byte	0x61
 600 02d8 F0020000 		.4byte	0x2f0
 601 02dc 08       		.byte	0x8
 602 02dd 0D       		.uleb128 0xd
 603 02de 6A000000 		.4byte	.LASF44
 604 02e2 07       		.byte	0x7
 605 02e3 62       		.byte	0x62
 606 02e4 5C020000 		.4byte	0x25c
 607 02e8 88       		.byte	0x88
 608 02e9 00       		.byte	0
 609 02ea 07       		.uleb128 0x7
 610 02eb 04       		.byte	0x4
 611 02ec AC020000 		.4byte	0x2ac
 612 02f0 0E       		.uleb128 0xe
 613 02f1 00030000 		.4byte	0x300
 614 02f5 00030000 		.4byte	0x300
 615 02f9 0F       		.uleb128 0xf
 616 02fa 52010000 		.4byte	0x152
 617 02fe 1F       		.byte	0x1f
 618 02ff 00       		.byte	0
 619 0300 07       		.uleb128 0x7
 620 0301 04       		.byte	0x4
 621 0302 06030000 		.4byte	0x306
ARM GAS  /tmp/cc1cNmY3.s 			page 12


 622 0306 14       		.uleb128 0x14
 623 0307 10       		.uleb128 0x10
 624 0308 830A0000 		.4byte	.LASF52
 625 030c 08       		.byte	0x8
 626 030d 07       		.byte	0x7
 627 030e 75       		.byte	0x75
 628 030f 2C030000 		.4byte	0x32c
 629 0313 0D       		.uleb128 0xd
 630 0314 B6060000 		.4byte	.LASF53
 631 0318 07       		.byte	0x7
 632 0319 76       		.byte	0x76
 633 031a 2C030000 		.4byte	0x32c
 634 031e 00       		.byte	0
 635 031f 0D       		.uleb128 0xd
 636 0320 580B0000 		.4byte	.LASF54
 637 0324 07       		.byte	0x7
 638 0325 77       		.byte	0x77
 639 0326 94000000 		.4byte	0x94
 640 032a 04       		.byte	0x4
 641 032b 00       		.byte	0
 642 032c 07       		.uleb128 0x7
 643 032d 04       		.byte	0x4
 644 032e 37000000 		.4byte	0x37
 645 0332 10       		.uleb128 0x10
 646 0333 04040000 		.4byte	.LASF55
 647 0337 68       		.byte	0x68
 648 0338 07       		.byte	0x7
 649 0339 B5       		.byte	0xb5
 650 033a 5C040000 		.4byte	0x45c
 651 033e 11       		.uleb128 0x11
 652 033f 5F7000   		.ascii	"_p\000"
 653 0342 07       		.byte	0x7
 654 0343 B6       		.byte	0xb6
 655 0344 2C030000 		.4byte	0x32c
 656 0348 00       		.byte	0
 657 0349 11       		.uleb128 0x11
 658 034a 5F7200   		.ascii	"_r\000"
 659 034d 07       		.byte	0x7
 660 034e B7       		.byte	0xb7
 661 034f 94000000 		.4byte	0x94
 662 0353 04       		.byte	0x4
 663 0354 11       		.uleb128 0x11
 664 0355 5F7700   		.ascii	"_w\000"
 665 0358 07       		.byte	0x7
 666 0359 B8       		.byte	0xb8
 667 035a 94000000 		.4byte	0x94
 668 035e 08       		.byte	0x8
 669 035f 0D       		.uleb128 0xd
 670 0360 0E010000 		.4byte	.LASF56
 671 0364 07       		.byte	0x7
 672 0365 B9       		.byte	0xb9
 673 0366 3E000000 		.4byte	0x3e
 674 036a 0C       		.byte	0xc
 675 036b 0D       		.uleb128 0xd
 676 036c FB060000 		.4byte	.LASF57
 677 0370 07       		.byte	0x7
 678 0371 BA       		.byte	0xba
ARM GAS  /tmp/cc1cNmY3.s 			page 13


 679 0372 3E000000 		.4byte	0x3e
 680 0376 0E       		.byte	0xe
 681 0377 11       		.uleb128 0x11
 682 0378 5F626600 		.ascii	"_bf\000"
 683 037c 07       		.byte	0x7
 684 037d BB       		.byte	0xbb
 685 037e 07030000 		.4byte	0x307
 686 0382 10       		.byte	0x10
 687 0383 0D       		.uleb128 0xd
 688 0384 05010000 		.4byte	.LASF58
 689 0388 07       		.byte	0x7
 690 0389 BC       		.byte	0xbc
 691 038a 94000000 		.4byte	0x94
 692 038e 18       		.byte	0x18
 693 038f 0D       		.uleb128 0xd
 694 0390 F3010000 		.4byte	.LASF59
 695 0394 07       		.byte	0x7
 696 0395 C3       		.byte	0xc3
 697 0396 B9000000 		.4byte	0xb9
 698 039a 1C       		.byte	0x1c
 699 039b 0D       		.uleb128 0xd
 700 039c 90010000 		.4byte	.LASF60
 701 03a0 07       		.byte	0x7
 702 03a1 C5       		.byte	0xc5
 703 03a2 10070000 		.4byte	0x710
 704 03a6 20       		.byte	0x20
 705 03a7 0D       		.uleb128 0xd
 706 03a8 E9070000 		.4byte	.LASF61
 707 03ac 07       		.byte	0x7
 708 03ad C7       		.byte	0xc7
 709 03ae 44070000 		.4byte	0x744
 710 03b2 24       		.byte	0x24
 711 03b3 0D       		.uleb128 0xd
 712 03b4 F00B0000 		.4byte	.LASF62
 713 03b8 07       		.byte	0x7
 714 03b9 CA       		.byte	0xca
 715 03ba 68070000 		.4byte	0x768
 716 03be 28       		.byte	0x28
 717 03bf 0D       		.uleb128 0xd
 718 03c0 30060000 		.4byte	.LASF63
 719 03c4 07       		.byte	0x7
 720 03c5 CB       		.byte	0xcb
 721 03c6 82070000 		.4byte	0x782
 722 03ca 2C       		.byte	0x2c
 723 03cb 11       		.uleb128 0x11
 724 03cc 5F756200 		.ascii	"_ub\000"
 725 03d0 07       		.byte	0x7
 726 03d1 CE       		.byte	0xce
 727 03d2 07030000 		.4byte	0x307
 728 03d6 30       		.byte	0x30
 729 03d7 11       		.uleb128 0x11
 730 03d8 5F757000 		.ascii	"_up\000"
 731 03dc 07       		.byte	0x7
 732 03dd CF       		.byte	0xcf
 733 03de 2C030000 		.4byte	0x32c
 734 03e2 38       		.byte	0x38
 735 03e3 11       		.uleb128 0x11
ARM GAS  /tmp/cc1cNmY3.s 			page 14


 736 03e4 5F757200 		.ascii	"_ur\000"
 737 03e8 07       		.byte	0x7
 738 03e9 D0       		.byte	0xd0
 739 03ea 94000000 		.4byte	0x94
 740 03ee 3C       		.byte	0x3c
 741 03ef 0D       		.uleb128 0xd
 742 03f0 070C0000 		.4byte	.LASF64
 743 03f4 07       		.byte	0x7
 744 03f5 D3       		.byte	0xd3
 745 03f6 88070000 		.4byte	0x788
 746 03fa 40       		.byte	0x40
 747 03fb 0D       		.uleb128 0xd
 748 03fc 6D0B0000 		.4byte	.LASF65
 749 0400 07       		.byte	0x7
 750 0401 D4       		.byte	0xd4
 751 0402 98070000 		.4byte	0x798
 752 0406 43       		.byte	0x43
 753 0407 11       		.uleb128 0x11
 754 0408 5F6C6200 		.ascii	"_lb\000"
 755 040c 07       		.byte	0x7
 756 040d D7       		.byte	0xd7
 757 040e 07030000 		.4byte	0x307
 758 0412 44       		.byte	0x44
 759 0413 0D       		.uleb128 0xd
 760 0414 40090000 		.4byte	.LASF66
 761 0418 07       		.byte	0x7
 762 0419 DA       		.byte	0xda
 763 041a 94000000 		.4byte	0x94
 764 041e 4C       		.byte	0x4c
 765 041f 0D       		.uleb128 0xd
 766 0420 41040000 		.4byte	.LASF67
 767 0424 07       		.byte	0x7
 768 0425 DB       		.byte	0xdb
 769 0426 D1000000 		.4byte	0xd1
 770 042a 50       		.byte	0x50
 771 042b 0D       		.uleb128 0xd
 772 042c 90080000 		.4byte	.LASF68
 773 0430 07       		.byte	0x7
 774 0431 DE       		.byte	0xde
 775 0432 7A040000 		.4byte	0x47a
 776 0436 54       		.byte	0x54
 777 0437 0D       		.uleb128 0xd
 778 0438 4E090000 		.4byte	.LASF69
 779 043c 07       		.byte	0x7
 780 043d E2       		.byte	0xe2
 781 043e 64010000 		.4byte	0x164
 782 0442 58       		.byte	0x58
 783 0443 0D       		.uleb128 0xd
 784 0444 87010000 		.4byte	.LASF70
 785 0448 07       		.byte	0x7
 786 0449 E4       		.byte	0xe4
 787 044a 59010000 		.4byte	0x159
 788 044e 5C       		.byte	0x5c
 789 044f 0D       		.uleb128 0xd
 790 0450 9E0B0000 		.4byte	.LASF71
 791 0454 07       		.byte	0x7
 792 0455 E5       		.byte	0xe5
ARM GAS  /tmp/cc1cNmY3.s 			page 15


 793 0456 94000000 		.4byte	0x94
 794 045a 64       		.byte	0x64
 795 045b 00       		.byte	0
 796 045c 15       		.uleb128 0x15
 797 045d 94000000 		.4byte	0x94
 798 0461 7A040000 		.4byte	0x47a
 799 0465 16       		.uleb128 0x16
 800 0466 7A040000 		.4byte	0x47a
 801 046a 16       		.uleb128 0x16
 802 046b B9000000 		.4byte	0xb9
 803 046f 16       		.uleb128 0x16
 804 0470 FE060000 		.4byte	0x6fe
 805 0474 16       		.uleb128 0x16
 806 0475 94000000 		.4byte	0x94
 807 0479 00       		.byte	0
 808 047a 07       		.uleb128 0x7
 809 047b 04       		.byte	0x4
 810 047c 85040000 		.4byte	0x485
 811 0480 17       		.uleb128 0x17
 812 0481 7A040000 		.4byte	0x47a
 813 0485 18       		.uleb128 0x18
 814 0486 060B0000 		.4byte	.LASF72
 815 048a 2804     		.2byte	0x428
 816 048c 07       		.byte	0x7
 817 048d 3902     		.2byte	0x239
 818 048f FE060000 		.4byte	0x6fe
 819 0493 19       		.uleb128 0x19
 820 0494 F0       		.byte	0xf0
 821 0495 07       		.byte	0x7
 822 0496 5802     		.2byte	0x258
 823 0498 DA050000 		.4byte	0x5da
 824 049c 1A       		.uleb128 0x1a
 825 049d D0       		.byte	0xd0
 826 049e 07       		.byte	0x7
 827 049f 5A02     		.2byte	0x25a
 828 04a1 9D050000 		.4byte	0x59d
 829 04a5 1B       		.uleb128 0x1b
 830 04a6 730B0000 		.4byte	.LASF73
 831 04aa 07       		.byte	0x7
 832 04ab 5B02     		.2byte	0x25b
 833 04ad 9B000000 		.4byte	0x9b
 834 04b1 00       		.byte	0
 835 04b2 1B       		.uleb128 0x1b
 836 04b3 BB0A0000 		.4byte	.LASF74
 837 04b7 07       		.byte	0x7
 838 04b8 5C02     		.2byte	0x25c
 839 04ba FE060000 		.4byte	0x6fe
 840 04be 04       		.byte	0x4
 841 04bf 1B       		.uleb128 0x1b
 842 04c0 EF030000 		.4byte	.LASF75
 843 04c4 07       		.byte	0x7
 844 04c5 5D02     		.2byte	0x25d
 845 04c7 3A080000 		.4byte	0x83a
 846 04cb 08       		.byte	0x8
 847 04cc 1B       		.uleb128 0x1b
 848 04cd D8080000 		.4byte	.LASF76
 849 04d1 07       		.byte	0x7
ARM GAS  /tmp/cc1cNmY3.s 			page 16


 850 04d2 5E02     		.2byte	0x25e
 851 04d4 E3010000 		.4byte	0x1e3
 852 04d8 24       		.byte	0x24
 853 04d9 1B       		.uleb128 0x1b
 854 04da F0070000 		.4byte	.LASF77
 855 04de 07       		.byte	0x7
 856 04df 5F02     		.2byte	0x25f
 857 04e1 94000000 		.4byte	0x94
 858 04e5 48       		.byte	0x48
 859 04e6 1B       		.uleb128 0x1b
 860 04e7 C80B0000 		.4byte	.LASF78
 861 04eb 07       		.byte	0x7
 862 04ec 6002     		.2byte	0x260
 863 04ee 8D000000 		.4byte	0x8d
 864 04f2 50       		.byte	0x50
 865 04f3 1B       		.uleb128 0x1b
 866 04f4 90000000 		.4byte	.LASF79
 867 04f8 07       		.byte	0x7
 868 04f9 6102     		.2byte	0x261
 869 04fb F5070000 		.4byte	0x7f5
 870 04ff 58       		.byte	0x58
 871 0500 1B       		.uleb128 0x1b
 872 0501 39050000 		.4byte	.LASF80
 873 0505 07       		.byte	0x7
 874 0506 6202     		.2byte	0x262
 875 0508 59010000 		.4byte	0x159
 876 050c 68       		.byte	0x68
 877 050d 1B       		.uleb128 0x1b
 878 050e C80A0000 		.4byte	.LASF81
 879 0512 07       		.byte	0x7
 880 0513 6302     		.2byte	0x263
 881 0515 59010000 		.4byte	0x159
 882 0519 70       		.byte	0x70
 883 051a 1B       		.uleb128 0x1b
 884 051b 78000000 		.4byte	.LASF82
 885 051f 07       		.byte	0x7
 886 0520 6402     		.2byte	0x264
 887 0522 59010000 		.4byte	0x159
 888 0526 78       		.byte	0x78
 889 0527 1B       		.uleb128 0x1b
 890 0528 1A090000 		.4byte	.LASF83
 891 052c 07       		.byte	0x7
 892 052d 6502     		.2byte	0x265
 893 052f 4A080000 		.4byte	0x84a
 894 0533 80       		.byte	0x80
 895 0534 1B       		.uleb128 0x1b
 896 0535 C3000000 		.4byte	.LASF84
 897 0539 07       		.byte	0x7
 898 053a 6602     		.2byte	0x266
 899 053c 5A080000 		.4byte	0x85a
 900 0540 88       		.byte	0x88
 901 0541 1B       		.uleb128 0x1b
 902 0542 570A0000 		.4byte	.LASF85
 903 0546 07       		.byte	0x7
 904 0547 6702     		.2byte	0x267
 905 0549 94000000 		.4byte	0x94
 906 054d A0       		.byte	0xa0
ARM GAS  /tmp/cc1cNmY3.s 			page 17


 907 054e 1B       		.uleb128 0x1b
 908 054f 9D010000 		.4byte	.LASF86
 909 0553 07       		.byte	0x7
 910 0554 6802     		.2byte	0x268
 911 0556 59010000 		.4byte	0x159
 912 055a A4       		.byte	0xa4
 913 055b 1B       		.uleb128 0x1b
 914 055c 75050000 		.4byte	.LASF87
 915 0560 07       		.byte	0x7
 916 0561 6902     		.2byte	0x269
 917 0563 59010000 		.4byte	0x159
 918 0567 AC       		.byte	0xac
 919 0568 1B       		.uleb128 0x1b
 920 0569 B3030000 		.4byte	.LASF88
 921 056d 07       		.byte	0x7
 922 056e 6A02     		.2byte	0x26a
 923 0570 59010000 		.4byte	0x159
 924 0574 B4       		.byte	0xb4
 925 0575 1B       		.uleb128 0x1b
 926 0576 EC060000 		.4byte	.LASF89
 927 057a 07       		.byte	0x7
 928 057b 6B02     		.2byte	0x26b
 929 057d 59010000 		.4byte	0x159
 930 0581 BC       		.byte	0xbc
 931 0582 1B       		.uleb128 0x1b
 932 0583 28050000 		.4byte	.LASF90
 933 0587 07       		.byte	0x7
 934 0588 6C02     		.2byte	0x26c
 935 058a 59010000 		.4byte	0x159
 936 058e C4       		.byte	0xc4
 937 058f 1B       		.uleb128 0x1b
 938 0590 7B070000 		.4byte	.LASF91
 939 0594 07       		.byte	0x7
 940 0595 6D02     		.2byte	0x26d
 941 0597 94000000 		.4byte	0x94
 942 059b CC       		.byte	0xcc
 943 059c 00       		.byte	0
 944 059d 1A       		.uleb128 0x1a
 945 059e F0       		.byte	0xf0
 946 059f 07       		.byte	0x7
 947 05a0 7302     		.2byte	0x273
 948 05a2 C1050000 		.4byte	0x5c1
 949 05a6 1B       		.uleb128 0x1b
 950 05a7 9D030000 		.4byte	.LASF92
 951 05ab 07       		.byte	0x7
 952 05ac 7502     		.2byte	0x275
 953 05ae 6A080000 		.4byte	0x86a
 954 05b2 00       		.byte	0
 955 05b3 1B       		.uleb128 0x1b
 956 05b4 FE0B0000 		.4byte	.LASF93
 957 05b8 07       		.byte	0x7
 958 05b9 7602     		.2byte	0x276
 959 05bb 7A080000 		.4byte	0x87a
 960 05bf 78       		.byte	0x78
 961 05c0 00       		.byte	0
 962 05c1 1C       		.uleb128 0x1c
 963 05c2 060B0000 		.4byte	.LASF72
ARM GAS  /tmp/cc1cNmY3.s 			page 18


 964 05c6 07       		.byte	0x7
 965 05c7 6E02     		.2byte	0x26e
 966 05c9 9C040000 		.4byte	0x49c
 967 05cd 1C       		.uleb128 0x1c
 968 05ce F3080000 		.4byte	.LASF94
 969 05d2 07       		.byte	0x7
 970 05d3 7702     		.2byte	0x277
 971 05d5 9D050000 		.4byte	0x59d
 972 05d9 00       		.byte	0
 973 05da 1B       		.uleb128 0x1b
 974 05db 34010000 		.4byte	.LASF95
 975 05df 07       		.byte	0x7
 976 05e0 3B02     		.2byte	0x23b
 977 05e2 94000000 		.4byte	0x94
 978 05e6 00       		.byte	0
 979 05e7 1B       		.uleb128 0x1b
 980 05e8 99060000 		.4byte	.LASF96
 981 05ec 07       		.byte	0x7
 982 05ed 4002     		.2byte	0x240
 983 05ef EF070000 		.4byte	0x7ef
 984 05f3 04       		.byte	0x4
 985 05f4 1B       		.uleb128 0x1b
 986 05f5 DE010000 		.4byte	.LASF97
 987 05f9 07       		.byte	0x7
 988 05fa 4002     		.2byte	0x240
 989 05fc EF070000 		.4byte	0x7ef
 990 0600 08       		.byte	0x8
 991 0601 1B       		.uleb128 0x1b
 992 0602 F60B0000 		.4byte	.LASF98
 993 0606 07       		.byte	0x7
 994 0607 4002     		.2byte	0x240
 995 0609 EF070000 		.4byte	0x7ef
 996 060d 0C       		.byte	0xc
 997 060e 1B       		.uleb128 0x1b
 998 060f CD040000 		.4byte	.LASF99
 999 0613 07       		.byte	0x7
 1000 0614 4202     		.2byte	0x242
 1001 0616 94000000 		.4byte	0x94
 1002 061a 10       		.byte	0x10
 1003 061b 1B       		.uleb128 0x1b
 1004 061c 79040000 		.4byte	.LASF100
 1005 0620 07       		.byte	0x7
 1006 0621 4302     		.2byte	0x243
 1007 0623 8A080000 		.4byte	0x88a
 1008 0627 14       		.byte	0x14
 1009 0628 1B       		.uleb128 0x1b
 1010 0629 850B0000 		.4byte	.LASF101
 1011 062d 07       		.byte	0x7
 1012 062e 4602     		.2byte	0x246
 1013 0630 94000000 		.4byte	0x94
 1014 0634 30       		.byte	0x30
 1015 0635 1B       		.uleb128 0x1b
 1016 0636 D60A0000 		.4byte	.LASF102
 1017 063a 07       		.byte	0x7
 1018 063b 4702     		.2byte	0x247
 1019 063d 9F080000 		.4byte	0x89f
 1020 0641 34       		.byte	0x34
ARM GAS  /tmp/cc1cNmY3.s 			page 19


 1021 0642 1B       		.uleb128 0x1b
 1022 0643 5B060000 		.4byte	.LASF103
 1023 0647 07       		.byte	0x7
 1024 0648 4902     		.2byte	0x249
 1025 064a 94000000 		.4byte	0x94
 1026 064e 38       		.byte	0x38
 1027 064f 1B       		.uleb128 0x1b
 1028 0650 2B070000 		.4byte	.LASF104
 1029 0654 07       		.byte	0x7
 1030 0655 4B02     		.2byte	0x24b
 1031 0657 B0080000 		.4byte	0x8b0
 1032 065b 3C       		.byte	0x3c
 1033 065c 1B       		.uleb128 0x1b
 1034 065d 54020000 		.4byte	.LASF105
 1035 0661 07       		.byte	0x7
 1036 0662 4E02     		.2byte	0x24e
 1037 0664 CD010000 		.4byte	0x1cd
 1038 0668 40       		.byte	0x40
 1039 0669 1B       		.uleb128 0x1b
 1040 066a C4030000 		.4byte	.LASF106
 1041 066e 07       		.byte	0x7
 1042 066f 4F02     		.2byte	0x24f
 1043 0671 94000000 		.4byte	0x94
 1044 0675 44       		.byte	0x44
 1045 0676 1B       		.uleb128 0x1b
 1046 0677 0F050000 		.4byte	.LASF107
 1047 067b 07       		.byte	0x7
 1048 067c 5002     		.2byte	0x250
 1049 067e CD010000 		.4byte	0x1cd
 1050 0682 48       		.byte	0x48
 1051 0683 1B       		.uleb128 0x1b
 1052 0684 C4060000 		.4byte	.LASF108
 1053 0688 07       		.byte	0x7
 1054 0689 5102     		.2byte	0x251
 1055 068b B6080000 		.4byte	0x8b6
 1056 068f 4C       		.byte	0x4c
 1057 0690 1B       		.uleb128 0x1b
 1058 0691 0A090000 		.4byte	.LASF109
 1059 0695 07       		.byte	0x7
 1060 0696 5402     		.2byte	0x254
 1061 0698 94000000 		.4byte	0x94
 1062 069c 50       		.byte	0x50
 1063 069d 1B       		.uleb128 0x1b
 1064 069e 110A0000 		.4byte	.LASF110
 1065 06a2 07       		.byte	0x7
 1066 06a3 5502     		.2byte	0x255
 1067 06a5 FE060000 		.4byte	0x6fe
 1068 06a9 54       		.byte	0x54
 1069 06aa 1B       		.uleb128 0x1b
 1070 06ab 05090000 		.4byte	.LASF111
 1071 06af 07       		.byte	0x7
 1072 06b0 7802     		.2byte	0x278
 1073 06b2 93040000 		.4byte	0x493
 1074 06b6 58       		.byte	0x58
 1075 06b7 1D       		.uleb128 0x1d
 1076 06b8 08080000 		.4byte	.LASF49
 1077 06bc 07       		.byte	0x7
ARM GAS  /tmp/cc1cNmY3.s 			page 20


 1078 06bd 7C02     		.2byte	0x27c
 1079 06bf EA020000 		.4byte	0x2ea
 1080 06c3 4801     		.2byte	0x148
 1081 06c5 1D       		.uleb128 0x1d
 1082 06c6 D30B0000 		.4byte	.LASF112
 1083 06ca 07       		.byte	0x7
 1084 06cb 7D02     		.2byte	0x27d
 1085 06cd AC020000 		.4byte	0x2ac
 1086 06d1 4C01     		.2byte	0x14c
 1087 06d3 1D       		.uleb128 0x1d
 1088 06d4 6B050000 		.4byte	.LASF113
 1089 06d8 07       		.byte	0x7
 1090 06d9 8102     		.2byte	0x281
 1091 06db C7080000 		.4byte	0x8c7
 1092 06df DC02     		.2byte	0x2dc
 1093 06e1 1D       		.uleb128 0x1d
 1094 06e2 AD0A0000 		.4byte	.LASF114
 1095 06e6 07       		.byte	0x7
 1096 06e7 8602     		.2byte	0x286
 1097 06e9 B4070000 		.4byte	0x7b4
 1098 06ed E002     		.2byte	0x2e0
 1099 06ef 1D       		.uleb128 0x1d
 1100 06f0 62080000 		.4byte	.LASF115
 1101 06f4 07       		.byte	0x7
 1102 06f5 8702     		.2byte	0x287
 1103 06f7 D3080000 		.4byte	0x8d3
 1104 06fb EC02     		.2byte	0x2ec
 1105 06fd 00       		.byte	0
 1106 06fe 07       		.uleb128 0x7
 1107 06ff 04       		.byte	0x4
 1108 0700 04070000 		.4byte	0x704
 1109 0704 02       		.uleb128 0x2
 1110 0705 01       		.byte	0x1
 1111 0706 08       		.byte	0x8
 1112 0707 56050000 		.4byte	.LASF116
 1113 070b 17       		.uleb128 0x17
 1114 070c 04070000 		.4byte	0x704
 1115 0710 07       		.uleb128 0x7
 1116 0711 04       		.byte	0x4
 1117 0712 5C040000 		.4byte	0x45c
 1118 0716 15       		.uleb128 0x15
 1119 0717 94000000 		.4byte	0x94
 1120 071b 34070000 		.4byte	0x734
 1121 071f 16       		.uleb128 0x16
 1122 0720 7A040000 		.4byte	0x47a
 1123 0724 16       		.uleb128 0x16
 1124 0725 B9000000 		.4byte	0xb9
 1125 0729 16       		.uleb128 0x16
 1126 072a 34070000 		.4byte	0x734
 1127 072e 16       		.uleb128 0x16
 1128 072f 94000000 		.4byte	0x94
 1129 0733 00       		.byte	0
 1130 0734 07       		.uleb128 0x7
 1131 0735 04       		.byte	0x4
 1132 0736 0B070000 		.4byte	0x70b
 1133 073a 17       		.uleb128 0x17
 1134 073b 34070000 		.4byte	0x734
ARM GAS  /tmp/cc1cNmY3.s 			page 21


 1135 073f 1E       		.uleb128 0x1e
 1136 0740 34070000 		.4byte	0x734
 1137 0744 07       		.uleb128 0x7
 1138 0745 04       		.byte	0x4
 1139 0746 16070000 		.4byte	0x716
 1140 074a 15       		.uleb128 0x15
 1141 074b E7000000 		.4byte	0xe7
 1142 074f 68070000 		.4byte	0x768
 1143 0753 16       		.uleb128 0x16
 1144 0754 7A040000 		.4byte	0x47a
 1145 0758 16       		.uleb128 0x16
 1146 0759 B9000000 		.4byte	0xb9
 1147 075d 16       		.uleb128 0x16
 1148 075e E7000000 		.4byte	0xe7
 1149 0762 16       		.uleb128 0x16
 1150 0763 94000000 		.4byte	0x94
 1151 0767 00       		.byte	0
 1152 0768 07       		.uleb128 0x7
 1153 0769 04       		.byte	0x4
 1154 076a 4A070000 		.4byte	0x74a
 1155 076e 15       		.uleb128 0x15
 1156 076f 94000000 		.4byte	0x94
 1157 0773 82070000 		.4byte	0x782
 1158 0777 16       		.uleb128 0x16
 1159 0778 7A040000 		.4byte	0x47a
 1160 077c 16       		.uleb128 0x16
 1161 077d B9000000 		.4byte	0xb9
 1162 0781 00       		.byte	0
 1163 0782 07       		.uleb128 0x7
 1164 0783 04       		.byte	0x4
 1165 0784 6E070000 		.4byte	0x76e
 1166 0788 0E       		.uleb128 0xe
 1167 0789 37000000 		.4byte	0x37
 1168 078d 98070000 		.4byte	0x798
 1169 0791 0F       		.uleb128 0xf
 1170 0792 52010000 		.4byte	0x152
 1171 0796 02       		.byte	0x2
 1172 0797 00       		.byte	0
 1173 0798 0E       		.uleb128 0xe
 1174 0799 37000000 		.4byte	0x37
 1175 079d A8070000 		.4byte	0x7a8
 1176 07a1 0F       		.uleb128 0xf
 1177 07a2 52010000 		.4byte	0x152
 1178 07a6 00       		.byte	0
 1179 07a7 00       		.byte	0
 1180 07a8 09       		.uleb128 0x9
 1181 07a9 3A040000 		.4byte	.LASF117
 1182 07ad 07       		.byte	0x7
 1183 07ae 1F01     		.2byte	0x11f
 1184 07b0 32030000 		.4byte	0x332
 1185 07b4 1F       		.uleb128 0x1f
 1186 07b5 920A0000 		.4byte	.LASF118
 1187 07b9 0C       		.byte	0xc
 1188 07ba 07       		.byte	0x7
 1189 07bb 2301     		.2byte	0x123
 1190 07bd E9070000 		.4byte	0x7e9
 1191 07c1 1B       		.uleb128 0x1b
ARM GAS  /tmp/cc1cNmY3.s 			page 22


 1192 07c2 D7040000 		.4byte	.LASF29
 1193 07c6 07       		.byte	0x7
 1194 07c7 2501     		.2byte	0x125
 1195 07c9 E9070000 		.4byte	0x7e9
 1196 07cd 00       		.byte	0
 1197 07ce 1B       		.uleb128 0x1b
 1198 07cf B0090000 		.4byte	.LASF119
 1199 07d3 07       		.byte	0x7
 1200 07d4 2601     		.2byte	0x126
 1201 07d6 94000000 		.4byte	0x94
 1202 07da 04       		.byte	0x4
 1203 07db 1B       		.uleb128 0x1b
 1204 07dc 11060000 		.4byte	.LASF120
 1205 07e0 07       		.byte	0x7
 1206 07e1 2701     		.2byte	0x127
 1207 07e3 EF070000 		.4byte	0x7ef
 1208 07e7 08       		.byte	0x8
 1209 07e8 00       		.byte	0
 1210 07e9 07       		.uleb128 0x7
 1211 07ea 04       		.byte	0x4
 1212 07eb B4070000 		.4byte	0x7b4
 1213 07ef 07       		.uleb128 0x7
 1214 07f0 04       		.byte	0x4
 1215 07f1 A8070000 		.4byte	0x7a8
 1216 07f5 1F       		.uleb128 0x1f
 1217 07f6 FC030000 		.4byte	.LASF121
 1218 07fa 0E       		.byte	0xe
 1219 07fb 07       		.byte	0x7
 1220 07fc 3F01     		.2byte	0x13f
 1221 07fe 2A080000 		.4byte	0x82a
 1222 0802 1B       		.uleb128 0x1b
 1223 0803 C20B0000 		.4byte	.LASF122
 1224 0807 07       		.byte	0x7
 1225 0808 4001     		.2byte	0x140
 1226 080a 2A080000 		.4byte	0x82a
 1227 080e 00       		.byte	0
 1228 080f 1B       		.uleb128 0x1b
 1229 0810 D6060000 		.4byte	.LASF123
 1230 0814 07       		.byte	0x7
 1231 0815 4101     		.2byte	0x141
 1232 0817 2A080000 		.4byte	0x82a
 1233 081b 06       		.byte	0x6
 1234 081c 1B       		.uleb128 0x1b
 1235 081d 7E0A0000 		.4byte	.LASF124
 1236 0821 07       		.byte	0x7
 1237 0822 4201     		.2byte	0x142
 1238 0824 50000000 		.4byte	0x50
 1239 0828 0C       		.byte	0xc
 1240 0829 00       		.byte	0
 1241 082a 0E       		.uleb128 0xe
 1242 082b 50000000 		.4byte	0x50
 1243 082f 3A080000 		.4byte	0x83a
 1244 0833 0F       		.uleb128 0xf
 1245 0834 52010000 		.4byte	0x152
 1246 0838 02       		.byte	0x2
 1247 0839 00       		.byte	0
 1248 083a 0E       		.uleb128 0xe
ARM GAS  /tmp/cc1cNmY3.s 			page 23


 1249 083b 04070000 		.4byte	0x704
 1250 083f 4A080000 		.4byte	0x84a
 1251 0843 0F       		.uleb128 0xf
 1252 0844 52010000 		.4byte	0x152
 1253 0848 19       		.byte	0x19
 1254 0849 00       		.byte	0
 1255 084a 0E       		.uleb128 0xe
 1256 084b 04070000 		.4byte	0x704
 1257 084f 5A080000 		.4byte	0x85a
 1258 0853 0F       		.uleb128 0xf
 1259 0854 52010000 		.4byte	0x152
 1260 0858 07       		.byte	0x7
 1261 0859 00       		.byte	0
 1262 085a 0E       		.uleb128 0xe
 1263 085b 04070000 		.4byte	0x704
 1264 085f 6A080000 		.4byte	0x86a
 1265 0863 0F       		.uleb128 0xf
 1266 0864 52010000 		.4byte	0x152
 1267 0868 17       		.byte	0x17
 1268 0869 00       		.byte	0
 1269 086a 0E       		.uleb128 0xe
 1270 086b 2C030000 		.4byte	0x32c
 1271 086f 7A080000 		.4byte	0x87a
 1272 0873 0F       		.uleb128 0xf
 1273 0874 52010000 		.4byte	0x152
 1274 0878 1D       		.byte	0x1d
 1275 0879 00       		.byte	0
 1276 087a 0E       		.uleb128 0xe
 1277 087b 9B000000 		.4byte	0x9b
 1278 087f 8A080000 		.4byte	0x88a
 1279 0883 0F       		.uleb128 0xf
 1280 0884 52010000 		.4byte	0x152
 1281 0888 1D       		.byte	0x1d
 1282 0889 00       		.byte	0
 1283 088a 0E       		.uleb128 0xe
 1284 088b 04070000 		.4byte	0x704
 1285 088f 9A080000 		.4byte	0x89a
 1286 0893 0F       		.uleb128 0xf
 1287 0894 52010000 		.4byte	0x152
 1288 0898 18       		.byte	0x18
 1289 0899 00       		.byte	0
 1290 089a 08       		.uleb128 0x8
 1291 089b DC0B0000 		.4byte	.LASF126
 1292 089f 07       		.uleb128 0x7
 1293 08a0 04       		.byte	0x4
 1294 08a1 9A080000 		.4byte	0x89a
 1295 08a5 20       		.uleb128 0x20
 1296 08a6 B0080000 		.4byte	0x8b0
 1297 08aa 16       		.uleb128 0x16
 1298 08ab 7A040000 		.4byte	0x47a
 1299 08af 00       		.byte	0
 1300 08b0 07       		.uleb128 0x7
 1301 08b1 04       		.byte	0x4
 1302 08b2 A5080000 		.4byte	0x8a5
 1303 08b6 07       		.uleb128 0x7
 1304 08b7 04       		.byte	0x4
 1305 08b8 CD010000 		.4byte	0x1cd
ARM GAS  /tmp/cc1cNmY3.s 			page 24


 1306 08bc 20       		.uleb128 0x20
 1307 08bd C7080000 		.4byte	0x8c7
 1308 08c1 16       		.uleb128 0x16
 1309 08c2 94000000 		.4byte	0x94
 1310 08c6 00       		.byte	0
 1311 08c7 07       		.uleb128 0x7
 1312 08c8 04       		.byte	0x4
 1313 08c9 CD080000 		.4byte	0x8cd
 1314 08cd 07       		.uleb128 0x7
 1315 08ce 04       		.byte	0x4
 1316 08cf BC080000 		.4byte	0x8bc
 1317 08d3 0E       		.uleb128 0xe
 1318 08d4 A8070000 		.4byte	0x7a8
 1319 08d8 E3080000 		.4byte	0x8e3
 1320 08dc 0F       		.uleb128 0xf
 1321 08dd 52010000 		.4byte	0x152
 1322 08e1 02       		.byte	0x2
 1323 08e2 00       		.byte	0
 1324 08e3 21       		.uleb128 0x21
 1325 08e4 89030000 		.4byte	.LASF127
 1326 08e8 07       		.byte	0x7
 1327 08e9 FE02     		.2byte	0x2fe
 1328 08eb 7A040000 		.4byte	0x47a
 1329 08ef 21       		.uleb128 0x21
 1330 08f0 9D080000 		.4byte	.LASF128
 1331 08f4 07       		.byte	0x7
 1332 08f5 FF02     		.2byte	0x2ff
 1333 08f7 80040000 		.4byte	0x480
 1334 08fb 03       		.uleb128 0x3
 1335 08fc 17060000 		.4byte	.LASF129
 1336 0900 08       		.byte	0x8
 1337 0901 18       		.byte	0x18
 1338 0902 2C000000 		.4byte	0x2c
 1339 0906 03       		.uleb128 0x3
 1340 0907 E0070000 		.4byte	.LASF130
 1341 090b 08       		.byte	0x8
 1342 090c 24       		.byte	0x24
 1343 090d 45000000 		.4byte	0x45
 1344 0911 03       		.uleb128 0x3
 1345 0912 BE090000 		.4byte	.LASF131
 1346 0916 08       		.byte	0x8
 1347 0917 2C       		.byte	0x2c
 1348 0918 57000000 		.4byte	0x57
 1349 091c 03       		.uleb128 0x3
 1350 091d 5C020000 		.4byte	.LASF132
 1351 0921 08       		.byte	0x8
 1352 0922 30       		.byte	0x30
 1353 0923 69000000 		.4byte	0x69
 1354 0927 03       		.uleb128 0x3
 1355 0928 980A0000 		.4byte	.LASF133
 1356 092c 08       		.byte	0x8
 1357 092d 3C       		.byte	0x3c
 1358 092e 82000000 		.4byte	0x82
 1359 0932 03       		.uleb128 0x3
 1360 0933 D2080000 		.4byte	.LASF134
 1361 0937 09       		.byte	0x9
 1362 0938 BE       		.byte	0xbe
ARM GAS  /tmp/cc1cNmY3.s 			page 25


 1363 0939 DC000000 		.4byte	0xdc
 1364 093d 0E       		.uleb128 0xe
 1365 093e 3A070000 		.4byte	0x73a
 1366 0942 48090000 		.4byte	0x948
 1367 0946 22       		.uleb128 0x22
 1368 0947 00       		.byte	0
 1369 0948 23       		.uleb128 0x23
 1370 0949 310B0000 		.4byte	.LASF135
 1371 094d 0A       		.byte	0xa
 1372 094e 14       		.byte	0x14
 1373 094f 3D090000 		.4byte	0x93d
 1374 0953 23       		.uleb128 0x23
 1375 0954 55010000 		.4byte	.LASF136
 1376 0958 0A       		.byte	0xa
 1377 0959 15       		.byte	0x15
 1378 095a 94000000 		.4byte	0x94
 1379 095e 03       		.uleb128 0x3
 1380 095f A8070000 		.4byte	.LASF137
 1381 0963 0B       		.byte	0xb
 1382 0964 3C       		.byte	0x3c
 1383 0965 FB080000 		.4byte	0x8fb
 1384 0969 03       		.uleb128 0x3
 1385 096a D8050000 		.4byte	.LASF138
 1386 096e 0B       		.byte	0xb
 1387 096f 3D       		.byte	0x3d
 1388 0970 FB080000 		.4byte	0x8fb
 1389 0974 03       		.uleb128 0x3
 1390 0975 6B090000 		.4byte	.LASF139
 1391 0979 0B       		.byte	0xb
 1392 097a 3E       		.byte	0x3e
 1393 097b FB080000 		.4byte	0x8fb
 1394 097f 03       		.uleb128 0x3
 1395 0980 95030000 		.4byte	.LASF140
 1396 0984 0B       		.byte	0xb
 1397 0985 40       		.byte	0x40
 1398 0986 1C090000 		.4byte	0x91c
 1399 098a 03       		.uleb128 0x3
 1400 098b 19070000 		.4byte	.LASF141
 1401 098f 0B       		.byte	0xb
 1402 0990 41       		.byte	0x41
 1403 0991 11090000 		.4byte	0x911
 1404 0995 03       		.uleb128 0x3
 1405 0996 65030000 		.4byte	.LASF142
 1406 099a 0B       		.byte	0xb
 1407 099b 43       		.byte	0x43
 1408 099c 1C090000 		.4byte	0x91c
 1409 09a0 03       		.uleb128 0x3
 1410 09a1 34040000 		.4byte	.LASF143
 1411 09a5 0B       		.byte	0xb
 1412 09a6 45       		.byte	0x45
 1413 09a7 11090000 		.4byte	0x911
 1414 09ab 03       		.uleb128 0x3
 1415 09ac 86000000 		.4byte	.LASF144
 1416 09b0 0C       		.byte	0xc
 1417 09b1 35       		.byte	0x35
 1418 09b2 06090000 		.4byte	0x906
 1419 09b6 03       		.uleb128 0x3
ARM GAS  /tmp/cc1cNmY3.s 			page 26


 1420 09b7 8C040000 		.4byte	.LASF145
 1421 09bb 0C       		.byte	0xc
 1422 09bc 3F       		.byte	0x3f
 1423 09bd C1090000 		.4byte	0x9c1
 1424 09c1 10       		.uleb128 0x10
 1425 09c2 66060000 		.4byte	.LASF146
 1426 09c6 48       		.byte	0x48
 1427 09c7 0D       		.byte	0xd
 1428 09c8 C2       		.byte	0xc2
 1429 09c9 170B0000 		.4byte	0xb17
 1430 09cd 0B       		.uleb128 0xb
 1431 09ce 04       		.byte	0x4
 1432 09cf 0D       		.byte	0xd
 1433 09d0 FA       		.byte	0xfa
 1434 09d1 2A0A0000 		.4byte	0xa2a
 1435 09d5 1C       		.uleb128 0x1c
 1436 09d6 9C040000 		.4byte	.LASF147
 1437 09da 0D       		.byte	0xd
 1438 09db 0101     		.2byte	0x101
 1439 09dd 8A090000 		.4byte	0x98a
 1440 09e1 1C       		.uleb128 0x1c
 1441 09e2 E70B0000 		.4byte	.LASF148
 1442 09e6 0D       		.byte	0xd
 1443 09e7 0801     		.2byte	0x108
 1444 09e9 8A090000 		.4byte	0x98a
 1445 09ed 1C       		.uleb128 0x1c
 1446 09ee 47010000 		.4byte	.LASF149
 1447 09f2 0D       		.byte	0xd
 1448 09f3 0F01     		.2byte	0x10f
 1449 09f5 B9000000 		.4byte	0xb9
 1450 09f9 1C       		.uleb128 0x1c
 1451 09fa B50A0000 		.4byte	.LASF150
 1452 09fe 0D       		.byte	0xd
 1453 09ff 1601     		.2byte	0x116
 1454 0a01 160F0000 		.4byte	0xf16
 1455 0a05 1C       		.uleb128 0x1c
 1456 0a06 BB0B0000 		.4byte	.LASF151
 1457 0a0a 0D       		.byte	0xd
 1458 0a0b 1E01     		.2byte	0x11e
 1459 0a0d 410F0000 		.4byte	0xf41
 1460 0a11 1C       		.uleb128 0x1c
 1461 0a12 40000000 		.4byte	.LASF152
 1462 0a16 0D       		.byte	0xd
 1463 0a17 2701     		.2byte	0x127
 1464 0a19 780F0000 		.4byte	0xf78
 1465 0a1d 1C       		.uleb128 0x1c
 1466 0a1e 96010000 		.4byte	.LASF153
 1467 0a22 0D       		.byte	0xd
 1468 0a23 2F01     		.2byte	0x12f
 1469 0a25 95090000 		.4byte	0x995
 1470 0a29 00       		.byte	0
 1471 0a2a 0D       		.uleb128 0xd
 1472 0a2b 83080000 		.4byte	.LASF154
 1473 0a2f 0D       		.byte	0xd
 1474 0a30 C3       		.byte	0xc3
 1475 0a31 220B0000 		.4byte	0xb22
 1476 0a35 00       		.byte	0
ARM GAS  /tmp/cc1cNmY3.s 			page 27


 1477 0a36 0D       		.uleb128 0xd
 1478 0a37 54090000 		.4byte	.LASF155
 1479 0a3b 0D       		.byte	0xd
 1480 0a3c C5       		.byte	0xc5
 1481 0a3d 220B0000 		.4byte	0xb22
 1482 0a41 04       		.byte	0x4
 1483 0a42 0D       		.uleb128 0xd
 1484 0a43 63000000 		.4byte	.LASF156
 1485 0a47 0D       		.byte	0xd
 1486 0a48 C7       		.byte	0xc7
 1487 0a49 7F090000 		.4byte	0x97f
 1488 0a4d 08       		.byte	0x8
 1489 0a4e 0D       		.uleb128 0xd
 1490 0a4f B0080000 		.4byte	.LASF157
 1491 0a53 0D       		.byte	0xd
 1492 0a54 C8       		.byte	0xc8
 1493 0a55 EA0D0000 		.4byte	0xdea
 1494 0a59 0C       		.byte	0xc
 1495 0a5a 0D       		.uleb128 0xd
 1496 0a5b 51040000 		.4byte	.LASF158
 1497 0a5f 0D       		.byte	0xd
 1498 0a60 CA       		.byte	0xca
 1499 0a61 220B0000 		.4byte	0xb22
 1500 0a65 10       		.byte	0x10
 1501 0a66 0D       		.uleb128 0xd
 1502 0a67 F0050000 		.4byte	.LASF159
 1503 0a6b 0D       		.byte	0xd
 1504 0a6c CB       		.byte	0xcb
 1505 0a6d 220B0000 		.4byte	0xb22
 1506 0a71 14       		.byte	0x14
 1507 0a72 0D       		.uleb128 0xd
 1508 0a73 14050000 		.4byte	.LASF160
 1509 0a77 0D       		.byte	0xd
 1510 0a78 D2       		.byte	0xd2
 1511 0a79 34070000 		.4byte	0x734
 1512 0a7d 18       		.byte	0x18
 1513 0a7e 0D       		.uleb128 0xd
 1514 0a7f 00060000 		.4byte	.LASF161
 1515 0a83 0D       		.byte	0xd
 1516 0a84 D8       		.byte	0xd8
 1517 0a85 7E0F0000 		.4byte	0xf7e
 1518 0a89 1C       		.byte	0x1c
 1519 0a8a 0D       		.uleb128 0xd
 1520 0a8b F8050000 		.4byte	.LASF162
 1521 0a8f 0D       		.byte	0xd
 1522 0a90 DD       		.byte	0xdd
 1523 0a91 69090000 		.4byte	0x969
 1524 0a95 20       		.byte	0x20
 1525 0a96 0D       		.uleb128 0xd
 1526 0a97 01070000 		.4byte	.LASF163
 1527 0a9b 0D       		.byte	0xd
 1528 0a9c E1       		.byte	0xe1
 1529 0a9d 5E090000 		.4byte	0x95e
 1530 0aa1 21       		.byte	0x21
 1531 0aa2 0D       		.uleb128 0xd
 1532 0aa3 500A0000 		.4byte	.LASF164
 1533 0aa7 0D       		.byte	0xd
ARM GAS  /tmp/cc1cNmY3.s 			page 28


 1534 0aa8 E6       		.byte	0xe6
 1535 0aa9 74090000 		.4byte	0x974
 1536 0aad 22       		.byte	0x22
 1537 0aae 24       		.uleb128 0x24
 1538 0aaf 705F7500 		.ascii	"p_u\000"
 1539 0ab3 0D       		.byte	0xd
 1540 0ab4 3101     		.2byte	0x131
 1541 0ab6 CD090000 		.4byte	0x9cd
 1542 0aba 24       		.byte	0x24
 1543 0abb 1B       		.uleb128 0x1b
 1544 0abc 26000000 		.4byte	.LASF165
 1545 0ac0 0D       		.byte	0xd
 1546 0ac1 3601     		.2byte	0x136
 1547 0ac3 280B0000 		.4byte	0xb28
 1548 0ac7 28       		.byte	0x28
 1549 0ac8 1B       		.uleb128 0x1b
 1550 0ac9 B8000000 		.4byte	.LASF166
 1551 0acd 0D       		.byte	0xd
 1552 0ace 3C01     		.2byte	0x13c
 1553 0ad0 4C0B0000 		.4byte	0xb4c
 1554 0ad4 2C       		.byte	0x2c
 1555 0ad5 1B       		.uleb128 0x1b
 1556 0ad6 A2070000 		.4byte	.LASF167
 1557 0ada 0D       		.byte	0xd
 1558 0adb 4001     		.2byte	0x140
 1559 0add 8A090000 		.4byte	0x98a
 1560 0ae1 34       		.byte	0x34
 1561 0ae2 1B       		.uleb128 0x1b
 1562 0ae3 3A080000 		.4byte	.LASF168
 1563 0ae7 0D       		.byte	0xd
 1564 0ae8 4601     		.2byte	0x146
 1565 0aea 95090000 		.4byte	0x995
 1566 0aee 38       		.byte	0x38
 1567 0aef 1B       		.uleb128 0x1b
 1568 0af0 3F060000 		.4byte	.LASF169
 1569 0af4 0D       		.byte	0xd
 1570 0af5 4D01     		.2byte	0x14d
 1571 0af7 780F0000 		.4byte	0xf78
 1572 0afb 3C       		.byte	0x3c
 1573 0afc 1B       		.uleb128 0x1b
 1574 0afd 10080000 		.4byte	.LASF170
 1575 0b01 0D       		.byte	0xd
 1576 0b02 5101     		.2byte	0x151
 1577 0b04 7F090000 		.4byte	0x97f
 1578 0b08 40       		.byte	0x40
 1579 0b09 1B       		.uleb128 0x1b
 1580 0b0a 37060000 		.4byte	.LASF171
 1581 0b0e 0D       		.byte	0xd
 1582 0b0f 5801     		.2byte	0x158
 1583 0b11 B9000000 		.4byte	0xb9
 1584 0b15 44       		.byte	0x44
 1585 0b16 00       		.byte	0
 1586 0b17 03       		.uleb128 0x3
 1587 0b18 B9050000 		.4byte	.LASF172
 1588 0b1c 0C       		.byte	0xc
 1589 0b1d 44       		.byte	0x44
 1590 0b1e 220B0000 		.4byte	0xb22
ARM GAS  /tmp/cc1cNmY3.s 			page 29


 1591 0b22 07       		.uleb128 0x7
 1592 0b23 04       		.byte	0x4
 1593 0b24 B6090000 		.4byte	0x9b6
 1594 0b28 03       		.uleb128 0x3
 1595 0b29 EC000000 		.4byte	.LASF173
 1596 0b2d 0C       		.byte	0xc
 1597 0b2e 49       		.byte	0x49
 1598 0b2f 330B0000 		.4byte	0xb33
 1599 0b33 10       		.uleb128 0x10
 1600 0b34 00000000 		.4byte	.LASF174
 1601 0b38 04       		.byte	0x4
 1602 0b39 0D       		.byte	0xd
 1603 0b3a B0       		.byte	0xb0
 1604 0b3b 4C0B0000 		.4byte	0xb4c
 1605 0b3f 0D       		.uleb128 0xd
 1606 0b40 83080000 		.4byte	.LASF154
 1607 0b44 0D       		.byte	0xd
 1608 0b45 B1       		.byte	0xb1
 1609 0b46 220B0000 		.4byte	0xb22
 1610 0b4a 00       		.byte	0
 1611 0b4b 00       		.byte	0
 1612 0b4c 03       		.uleb128 0x3
 1613 0b4d 10000000 		.4byte	.LASF175
 1614 0b51 0C       		.byte	0xc
 1615 0b52 50       		.byte	0x50
 1616 0b53 570B0000 		.4byte	0xb57
 1617 0b57 10       		.uleb128 0x10
 1618 0b58 B8010000 		.4byte	.LASF176
 1619 0b5c 08       		.byte	0x8
 1620 0b5d 0D       		.byte	0xd
 1621 0b5e B7       		.byte	0xb7
 1622 0b5f 7C0B0000 		.4byte	0xb7c
 1623 0b63 0D       		.uleb128 0xd
 1624 0b64 83080000 		.4byte	.LASF154
 1625 0b68 0D       		.byte	0xd
 1626 0b69 B8       		.byte	0xb8
 1627 0b6a 220B0000 		.4byte	0xb22
 1628 0b6e 00       		.byte	0
 1629 0b6f 0D       		.uleb128 0xd
 1630 0b70 54090000 		.4byte	.LASF155
 1631 0b74 0D       		.byte	0xd
 1632 0b75 B9       		.byte	0xb9
 1633 0b76 220B0000 		.4byte	0xb22
 1634 0b7a 04       		.byte	0x4
 1635 0b7b 00       		.byte	0
 1636 0b7c 03       		.uleb128 0x3
 1637 0b7d 92090000 		.4byte	.LASF177
 1638 0b81 0C       		.byte	0xc
 1639 0b82 57       		.byte	0x57
 1640 0b83 870B0000 		.4byte	0xb87
 1641 0b87 1F       		.uleb128 0x1f
 1642 0b88 6A010000 		.4byte	.LASF178
 1643 0b8c 1C       		.byte	0x1c
 1644 0b8d 0D       		.byte	0xd
 1645 0b8e 9001     		.2byte	0x190
 1646 0b90 E30B0000 		.4byte	0xbe3
 1647 0b94 1B       		.uleb128 0x1b
ARM GAS  /tmp/cc1cNmY3.s 			page 30


 1648 0b95 BC060000 		.4byte	.LASF179
 1649 0b99 0D       		.byte	0xd
 1650 0b9a 9101     		.2byte	0x191
 1651 0b9c 4C0B0000 		.4byte	0xb4c
 1652 0ba0 00       		.byte	0
 1653 0ba1 1B       		.uleb128 0x1b
 1654 0ba2 71030000 		.4byte	.LASF180
 1655 0ba6 0D       		.byte	0xd
 1656 0ba7 9201     		.2byte	0x192
 1657 0ba9 7F090000 		.4byte	0x97f
 1658 0bad 08       		.byte	0x8
 1659 0bae 1B       		.uleb128 0x1b
 1660 0baf 200B0000 		.4byte	.LASF181
 1661 0bb3 0D       		.byte	0xd
 1662 0bb4 9401     		.2byte	0x194
 1663 0bb6 EA0D0000 		.4byte	0xdea
 1664 0bba 0C       		.byte	0xc
 1665 0bbb 1B       		.uleb128 0x1b
 1666 0bbc CE060000 		.4byte	.LASF182
 1667 0bc0 0D       		.byte	0xd
 1668 0bc1 9701     		.2byte	0x197
 1669 0bc3 220B0000 		.4byte	0xb22
 1670 0bc7 10       		.byte	0x10
 1671 0bc8 1B       		.uleb128 0x1b
 1672 0bc9 73070000 		.4byte	.LASF183
 1673 0bcd 0D       		.byte	0xd
 1674 0bce 9801     		.2byte	0x198
 1675 0bd0 220B0000 		.4byte	0xb22
 1676 0bd4 14       		.byte	0x14
 1677 0bd5 1B       		.uleb128 0x1b
 1678 0bd6 30080000 		.4byte	.LASF184
 1679 0bda 0D       		.byte	0xd
 1680 0bdb 9B01     		.2byte	0x19b
 1681 0bdd 220B0000 		.4byte	0xb22
 1682 0be1 18       		.byte	0x18
 1683 0be2 00       		.byte	0
 1684 0be3 03       		.uleb128 0x3
 1685 0be4 A3040000 		.4byte	.LASF185
 1686 0be8 0C       		.byte	0xc
 1687 0be9 5C       		.byte	0x5c
 1688 0bea EE0B0000 		.4byte	0xbee
 1689 0bee 07       		.uleb128 0x7
 1690 0bef 04       		.byte	0x4
 1691 0bf0 F40B0000 		.4byte	0xbf4
 1692 0bf4 20       		.uleb128 0x20
 1693 0bf5 FF0B0000 		.4byte	0xbff
 1694 0bf9 16       		.uleb128 0x16
 1695 0bfa B9000000 		.4byte	0xb9
 1696 0bfe 00       		.byte	0
 1697 0bff 03       		.uleb128 0x3
 1698 0c00 09070000 		.4byte	.LASF186
 1699 0c04 0C       		.byte	0xc
 1700 0c05 61       		.byte	0x61
 1701 0c06 0A0C0000 		.4byte	0xc0a
 1702 0c0a 1F       		.uleb128 0x1f
 1703 0c0b 18040000 		.4byte	.LASF187
 1704 0c0f 14       		.byte	0x14
ARM GAS  /tmp/cc1cNmY3.s 			page 31


 1705 0c10 0D       		.byte	0xd
 1706 0c11 6B01     		.2byte	0x16b
 1707 0c13 590C0000 		.4byte	0xc59
 1708 0c17 1B       		.uleb128 0x1b
 1709 0c18 8A0A0000 		.4byte	.LASF188
 1710 0c1c 0D       		.byte	0xd
 1711 0c1d 6C01     		.2byte	0x16c
 1712 0c1f 840F0000 		.4byte	0xf84
 1713 0c23 00       		.byte	0
 1714 0c24 1B       		.uleb128 0x1b
 1715 0c25 5E0B0000 		.4byte	.LASF189
 1716 0c29 0D       		.byte	0xd
 1717 0c2a 6D01     		.2byte	0x16d
 1718 0c2c 840F0000 		.4byte	0xf84
 1719 0c30 04       		.byte	0x4
 1720 0c31 1B       		.uleb128 0x1b
 1721 0c32 70040000 		.4byte	.LASF190
 1722 0c36 0D       		.byte	0xd
 1723 0c37 6E01     		.2byte	0x16e
 1724 0c39 AB090000 		.4byte	0x9ab
 1725 0c3d 08       		.byte	0x8
 1726 0c3e 1B       		.uleb128 0x1b
 1727 0c3f 500B0000 		.4byte	.LASF191
 1728 0c43 0D       		.byte	0xd
 1729 0c44 6F01     		.2byte	0x16f
 1730 0c46 E30B0000 		.4byte	0xbe3
 1731 0c4a 0C       		.byte	0xc
 1732 0c4b 1B       		.uleb128 0x1b
 1733 0c4c 0A0A0000 		.4byte	.LASF192
 1734 0c50 0D       		.byte	0xd
 1735 0c51 7101     		.2byte	0x171
 1736 0c53 B9000000 		.4byte	0xb9
 1737 0c57 10       		.byte	0x10
 1738 0c58 00       		.byte	0
 1739 0c59 03       		.uleb128 0x3
 1740 0c5a 3A0A0000 		.4byte	.LASF193
 1741 0c5e 0C       		.byte	0xc
 1742 0c5f 66       		.byte	0x66
 1743 0c60 640C0000 		.4byte	0xc64
 1744 0c64 1F       		.uleb128 0x1f
 1745 0c65 59040000 		.4byte	.LASF194
 1746 0c69 0C       		.byte	0xc
 1747 0c6a 0D       		.byte	0xd
 1748 0c6b 7B01     		.2byte	0x17b
 1749 0c6d A60C0000 		.4byte	0xca6
 1750 0c71 1B       		.uleb128 0x1b
 1751 0c72 8A0A0000 		.4byte	.LASF188
 1752 0c76 0D       		.byte	0xd
 1753 0c77 7C01     		.2byte	0x17c
 1754 0c79 840F0000 		.4byte	0xf84
 1755 0c7d 00       		.byte	0
 1756 0c7e 1B       		.uleb128 0x1b
 1757 0c7f 5E0B0000 		.4byte	.LASF189
 1758 0c83 0D       		.byte	0xd
 1759 0c84 7E01     		.2byte	0x17e
 1760 0c86 840F0000 		.4byte	0xf84
 1761 0c8a 04       		.byte	0x4
ARM GAS  /tmp/cc1cNmY3.s 			page 32


 1762 0c8b 1B       		.uleb128 0x1b
 1763 0c8c 70040000 		.4byte	.LASF190
 1764 0c90 0D       		.byte	0xd
 1765 0c91 8001     		.2byte	0x180
 1766 0c93 AB090000 		.4byte	0x9ab
 1767 0c97 08       		.byte	0x8
 1768 0c98 1B       		.uleb128 0x1b
 1769 0c99 CC050000 		.4byte	.LASF195
 1770 0c9d 0D       		.byte	0xd
 1771 0c9e 8801     		.2byte	0x188
 1772 0ca0 AB090000 		.4byte	0x9ab
 1773 0ca4 0A       		.byte	0xa
 1774 0ca5 00       		.byte	0
 1775 0ca6 03       		.uleb128 0x3
 1776 0ca7 8A060000 		.4byte	.LASF196
 1777 0cab 0C       		.byte	0xc
 1778 0cac 6B       		.byte	0x6b
 1779 0cad B10C0000 		.4byte	0xcb1
 1780 0cb1 18       		.uleb128 0x18
 1781 0cb2 32020000 		.4byte	.LASF197
 1782 0cb6 1404     		.2byte	0x414
 1783 0cb8 0D       		.byte	0xd
 1784 0cb9 A201     		.2byte	0x1a2
 1785 0cbb F40C0000 		.4byte	0xcf4
 1786 0cbf 1B       		.uleb128 0x1b
 1787 0cc0 98070000 		.4byte	.LASF198
 1788 0cc4 0D       		.byte	0xd
 1789 0cc5 AA01     		.2byte	0x1aa
 1790 0cc7 3F070000 		.4byte	0x73f
 1791 0ccb 00       		.byte	0
 1792 0ccc 1B       		.uleb128 0x1b
 1793 0ccd 49040000 		.4byte	.LASF199
 1794 0cd1 0D       		.byte	0xd
 1795 0cd2 AF01     		.2byte	0x1af
 1796 0cd4 A0090000 		.4byte	0x9a0
 1797 0cd8 04       		.byte	0x4
 1798 0cd9 1B       		.uleb128 0x1b
 1799 0cda FF070000 		.4byte	.LASF200
 1800 0cde 0D       		.byte	0xd
 1801 0cdf B301     		.2byte	0x1b3
 1802 0ce1 A0090000 		.4byte	0x9a0
 1803 0ce5 08       		.byte	0x8
 1804 0ce6 1B       		.uleb128 0x1b
 1805 0ce7 C6090000 		.4byte	.LASF201
 1806 0ceb 0D       		.byte	0xd
 1807 0cec B901     		.2byte	0x1b9
 1808 0cee 0B0F0000 		.4byte	0xf0b
 1809 0cf2 0C       		.byte	0xc
 1810 0cf3 00       		.byte	0
 1811 0cf4 03       		.uleb128 0x3
 1812 0cf5 A10A0000 		.4byte	.LASF202
 1813 0cf9 0C       		.byte	0xc
 1814 0cfa 70       		.byte	0x70
 1815 0cfb FF0C0000 		.4byte	0xcff
 1816 0cff 18       		.uleb128 0x18
 1817 0d00 FB000000 		.4byte	.LASF203
 1818 0d04 6805     		.2byte	0x568
ARM GAS  /tmp/cc1cNmY3.s 			page 33


 1819 0d06 0D       		.byte	0xd
 1820 0d07 C201     		.2byte	0x1c2
 1821 0d09 510D0000 		.4byte	0xd51
 1822 0d0d 1B       		.uleb128 0x1b
 1823 0d0e C0080000 		.4byte	.LASF204
 1824 0d12 0D       		.byte	0xd
 1825 0d13 C601     		.2byte	0x1c6
 1826 0d15 7C0B0000 		.4byte	0xb7c
 1827 0d19 00       		.byte	0
 1828 0d1a 1B       		.uleb128 0x1b
 1829 0d1b 4E010000 		.4byte	.LASF205
 1830 0d1f 0D       		.byte	0xd
 1831 0d20 CA01     		.2byte	0x1ca
 1832 0d22 590C0000 		.4byte	0xc59
 1833 0d26 1C       		.byte	0x1c
 1834 0d27 24       		.uleb128 0x24
 1835 0d28 64626700 		.ascii	"dbg\000"
 1836 0d2c 0D       		.byte	0xd
 1837 0d2d CE01     		.2byte	0x1ce
 1838 0d2f A60C0000 		.4byte	0xca6
 1839 0d33 28       		.byte	0x28
 1840 0d34 1D       		.uleb128 0x1d
 1841 0d35 B8070000 		.4byte	.LASF206
 1842 0d39 0D       		.byte	0xd
 1843 0d3a D201     		.2byte	0x1d2
 1844 0d3c B6090000 		.4byte	0x9b6
 1845 0d40 3C04     		.2byte	0x43c
 1846 0d42 1D       		.uleb128 0x1d
 1847 0d43 78010000 		.4byte	.LASF207
 1848 0d47 0D       		.byte	0xd
 1849 0d48 E301     		.2byte	0x1e3
 1850 0d4a 8A0F0000 		.4byte	0xf8a
 1851 0d4e 8804     		.2byte	0x488
 1852 0d50 00       		.byte	0
 1853 0d51 23       		.uleb128 0x23
 1854 0d52 30000000 		.4byte	.LASF208
 1855 0d56 0E       		.byte	0xe
 1856 0d57 4C       		.byte	0x4c
 1857 0d58 1C090000 		.4byte	0x91c
 1858 0d5c 25       		.uleb128 0x25
 1859 0d5d 01       		.byte	0x1
 1860 0d5e 37000000 		.4byte	0x37
 1861 0d62 0F       		.byte	0xf
 1862 0d63 B2       		.byte	0xb2
 1863 0d64 AE0B0000 		.4byte	.LASF211
 1864 0d68 790D0000 		.4byte	0xd79
 1865 0d6c 26       		.uleb128 0x26
 1866 0d6d 8A080000 		.4byte	.LASF209
 1867 0d71 00       		.byte	0
 1868 0d72 27       		.uleb128 0x27
 1869 0d73 53455400 		.ascii	"SET\000"
 1870 0d77 01       		.byte	0x1
 1871 0d78 00       		.byte	0
 1872 0d79 03       		.uleb128 0x3
 1873 0d7a 5F010000 		.4byte	.LASF210
 1874 0d7e 0F       		.byte	0xf
 1875 0d7f B5       		.byte	0xb5
ARM GAS  /tmp/cc1cNmY3.s 			page 34


 1876 0d80 5C0D0000 		.4byte	0xd5c
 1877 0d84 25       		.uleb128 0x25
 1878 0d85 01       		.byte	0x1
 1879 0d86 37000000 		.4byte	0x37
 1880 0d8a 0F       		.byte	0xf
 1881 0d8b B8       		.byte	0xb8
 1882 0d8c 49060000 		.4byte	.LASF212
 1883 0d90 A10D0000 		.4byte	0xda1
 1884 0d94 26       		.uleb128 0x26
 1885 0d95 46050000 		.4byte	.LASF213
 1886 0d99 00       		.byte	0
 1887 0d9a 26       		.uleb128 0x26
 1888 0d9b 5B090000 		.4byte	.LASF214
 1889 0d9f 01       		.byte	0x1
 1890 0da0 00       		.byte	0
 1891 0da1 03       		.uleb128 0x3
 1892 0da2 DC000000 		.4byte	.LASF215
 1893 0da6 0F       		.byte	0xf
 1894 0da7 BB       		.byte	0xbb
 1895 0da8 840D0000 		.4byte	0xd84
 1896 0dac 25       		.uleb128 0x25
 1897 0dad 01       		.byte	0x1
 1898 0dae 37000000 		.4byte	0x37
 1899 0db2 0F       		.byte	0xf
 1900 0db3 BF       		.byte	0xbf
 1901 0db4 24090000 		.4byte	.LASF216
 1902 0db8 C90D0000 		.4byte	0xdc9
 1903 0dbc 26       		.uleb128 0x26
 1904 0dbd 20000000 		.4byte	.LASF217
 1905 0dc1 00       		.byte	0
 1906 0dc2 26       		.uleb128 0x26
 1907 0dc3 4E050000 		.4byte	.LASF218
 1908 0dc7 01       		.byte	0x1
 1909 0dc8 00       		.byte	0
 1910 0dc9 03       		.uleb128 0x3
 1911 0dca 15010000 		.4byte	.LASF219
 1912 0dce 0F       		.byte	0xf
 1913 0dcf C2       		.byte	0xc2
 1914 0dd0 AC0D0000 		.4byte	0xdac
 1915 0dd4 03       		.uleb128 0x3
 1916 0dd5 5A000000 		.4byte	.LASF220
 1917 0dd9 10       		.byte	0x10
 1918 0dda 65       		.byte	0x65
 1919 0ddb B9000000 		.4byte	0xb9
 1920 0ddf 03       		.uleb128 0x3
 1921 0de0 260B0000 		.4byte	.LASF221
 1922 0de4 10       		.byte	0x10
 1923 0de5 6D       		.byte	0x6d
 1924 0de6 27090000 		.4byte	0x927
 1925 0dea 10       		.uleb128 0x10
 1926 0deb E4060000 		.4byte	.LASF222
 1927 0def 04       		.byte	0x4
 1928 0df0 10       		.byte	0x10
 1929 0df1 89       		.byte	0x89
 1930 0df2 030E0000 		.4byte	0xe03
 1931 0df6 11       		.uleb128 0x11
 1932 0df7 72313300 		.ascii	"r13\000"
ARM GAS  /tmp/cc1cNmY3.s 			page 35


 1933 0dfb 10       		.byte	0x10
 1934 0dfc 8A       		.byte	0x8a
 1935 0dfd 750E0000 		.4byte	0xe75
 1936 0e01 00       		.byte	0
 1937 0e02 00       		.byte	0
 1938 0e03 10       		.uleb128 0x10
 1939 0e04 56080000 		.4byte	.LASF223
 1940 0e08 24       		.byte	0x24
 1941 0e09 11       		.byte	0x11
 1942 0e0a A4       		.byte	0xa4
 1943 0e0b 750E0000 		.4byte	0xe75
 1944 0e0f 11       		.uleb128 0x11
 1945 0e10 723800   		.ascii	"r8\000"
 1946 0e13 11       		.byte	0x11
 1947 0e14 A5       		.byte	0xa5
 1948 0e15 D40D0000 		.4byte	0xdd4
 1949 0e19 00       		.byte	0
 1950 0e1a 11       		.uleb128 0x11
 1951 0e1b 723900   		.ascii	"r9\000"
 1952 0e1e 11       		.byte	0x11
 1953 0e1f A6       		.byte	0xa6
 1954 0e20 D40D0000 		.4byte	0xdd4
 1955 0e24 04       		.byte	0x4
 1956 0e25 11       		.uleb128 0x11
 1957 0e26 72313000 		.ascii	"r10\000"
 1958 0e2a 11       		.byte	0x11
 1959 0e2b A7       		.byte	0xa7
 1960 0e2c D40D0000 		.4byte	0xdd4
 1961 0e30 08       		.byte	0x8
 1962 0e31 11       		.uleb128 0x11
 1963 0e32 72313100 		.ascii	"r11\000"
 1964 0e36 11       		.byte	0x11
 1965 0e37 A8       		.byte	0xa8
 1966 0e38 D40D0000 		.4byte	0xdd4
 1967 0e3c 0C       		.byte	0xc
 1968 0e3d 11       		.uleb128 0x11
 1969 0e3e 723400   		.ascii	"r4\000"
 1970 0e41 11       		.byte	0x11
 1971 0e42 A9       		.byte	0xa9
 1972 0e43 D40D0000 		.4byte	0xdd4
 1973 0e47 10       		.byte	0x10
 1974 0e48 11       		.uleb128 0x11
 1975 0e49 723500   		.ascii	"r5\000"
 1976 0e4c 11       		.byte	0x11
 1977 0e4d AA       		.byte	0xaa
 1978 0e4e D40D0000 		.4byte	0xdd4
 1979 0e52 14       		.byte	0x14
 1980 0e53 11       		.uleb128 0x11
 1981 0e54 723600   		.ascii	"r6\000"
 1982 0e57 11       		.byte	0x11
 1983 0e58 AB       		.byte	0xab
 1984 0e59 D40D0000 		.4byte	0xdd4
 1985 0e5d 18       		.byte	0x18
 1986 0e5e 11       		.uleb128 0x11
 1987 0e5f 723700   		.ascii	"r7\000"
 1988 0e62 11       		.byte	0x11
 1989 0e63 AC       		.byte	0xac
ARM GAS  /tmp/cc1cNmY3.s 			page 36


 1990 0e64 D40D0000 		.4byte	0xdd4
 1991 0e68 1C       		.byte	0x1c
 1992 0e69 11       		.uleb128 0x11
 1993 0e6a 6C7200   		.ascii	"lr\000"
 1994 0e6d 11       		.byte	0x11
 1995 0e6e AD       		.byte	0xad
 1996 0e6f D40D0000 		.4byte	0xdd4
 1997 0e73 20       		.byte	0x20
 1998 0e74 00       		.byte	0
 1999 0e75 07       		.uleb128 0x7
 2000 0e76 04       		.byte	0x4
 2001 0e77 030E0000 		.4byte	0xe03
 2002 0e7b 0A       		.uleb128 0xa
 2003 0e7c 10       		.byte	0x10
 2004 0e7d 12       		.byte	0x12
 2005 0e7e 51       		.byte	0x51
 2006 0e7f 9F090000 		.4byte	.LASF225
 2007 0e83 B80E0000 		.4byte	0xeb8
 2008 0e87 0D       		.uleb128 0xd
 2009 0e88 84040000 		.4byte	.LASF226
 2010 0e8c 12       		.byte	0x12
 2011 0e8d 55       		.byte	0x55
 2012 0e8e AB090000 		.4byte	0x9ab
 2013 0e92 00       		.byte	0
 2014 0e93 0D       		.uleb128 0xd
 2015 0e94 E1050000 		.4byte	.LASF227
 2016 0e98 12       		.byte	0x12
 2017 0e99 59       		.byte	0x59
 2018 0e9a 220B0000 		.4byte	0xb22
 2019 0e9e 04       		.byte	0x4
 2020 0e9f 0D       		.uleb128 0xd
 2021 0ea0 E5030000 		.4byte	.LASF228
 2022 0ea4 12       		.byte	0x12
 2023 0ea5 5D       		.byte	0x5d
 2024 0ea6 B9000000 		.4byte	0xb9
 2025 0eaa 08       		.byte	0x8
 2026 0eab 0D       		.uleb128 0xd
 2027 0eac 2B010000 		.4byte	.LASF229
 2028 0eb0 12       		.byte	0x12
 2029 0eb1 61       		.byte	0x61
 2030 0eb2 FB080000 		.4byte	0x8fb
 2031 0eb6 0C       		.byte	0xc
 2032 0eb7 00       		.byte	0
 2033 0eb8 03       		.uleb128 0x3
 2034 0eb9 F3090000 		.4byte	.LASF230
 2035 0ebd 12       		.byte	0x12
 2036 0ebe 62       		.byte	0x62
 2037 0ebf 7B0E0000 		.4byte	0xe7b
 2038 0ec3 28       		.uleb128 0x28
 2039 0ec4 0804     		.2byte	0x408
 2040 0ec6 12       		.byte	0x12
 2041 0ec7 67       		.byte	0x67
 2042 0ec8 84070000 		.4byte	.LASF277
 2043 0ecc F50E0000 		.4byte	0xef5
 2044 0ed0 0D       		.uleb128 0xd
 2045 0ed1 82060000 		.4byte	.LASF231
 2046 0ed5 12       		.byte	0x12
ARM GAS  /tmp/cc1cNmY3.s 			page 37


 2047 0ed6 6B       		.byte	0x6b
 2048 0ed7 9B000000 		.4byte	0x9b
 2049 0edb 00       		.byte	0
 2050 0edc 0D       		.uleb128 0xd
 2051 0edd 54070000 		.4byte	.LASF232
 2052 0ee1 12       		.byte	0x12
 2053 0ee2 6F       		.byte	0x6f
 2054 0ee3 F50E0000 		.4byte	0xef5
 2055 0ee7 04       		.byte	0x4
 2056 0ee8 0D       		.uleb128 0xd
 2057 0ee9 26060000 		.4byte	.LASF233
 2058 0eed 12       		.byte	0x12
 2059 0eee 73       		.byte	0x73
 2060 0eef FB0E0000 		.4byte	0xefb
 2061 0ef3 08       		.byte	0x8
 2062 0ef4 00       		.byte	0
 2063 0ef5 07       		.uleb128 0x7
 2064 0ef6 04       		.byte	0x4
 2065 0ef7 B80E0000 		.4byte	0xeb8
 2066 0efb 0E       		.uleb128 0xe
 2067 0efc B80E0000 		.4byte	0xeb8
 2068 0f00 0B0F0000 		.4byte	0xf0b
 2069 0f04 0F       		.uleb128 0xf
 2070 0f05 52010000 		.4byte	0x152
 2071 0f09 3F       		.byte	0x3f
 2072 0f0a 00       		.byte	0
 2073 0f0b 03       		.uleb128 0x3
 2074 0f0c 70060000 		.4byte	.LASF234
 2075 0f10 12       		.byte	0x12
 2076 0f11 74       		.byte	0x74
 2077 0f12 C30E0000 		.4byte	0xec3
 2078 0f16 07       		.uleb128 0x7
 2079 0f17 04       		.byte	0x4
 2080 0f18 170B0000 		.4byte	0xb17
 2081 0f1c 10       		.uleb128 0x10
 2082 0f1d DF090000 		.4byte	.LASF235
 2083 0f21 0C       		.byte	0xc
 2084 0f22 13       		.byte	0x13
 2085 0f23 34       		.byte	0x34
 2086 0f24 410F0000 		.4byte	0xf41
 2087 0f28 0D       		.uleb128 0xd
 2088 0f29 B0000000 		.4byte	.LASF236
 2089 0f2d 13       		.byte	0x13
 2090 0f2e 35       		.byte	0x35
 2091 0f2f 4C0B0000 		.4byte	0xb4c
 2092 0f33 00       		.byte	0
 2093 0f34 0D       		.uleb128 0xd
 2094 0f35 2C020000 		.4byte	.LASF237
 2095 0f39 13       		.byte	0x13
 2096 0f3a 37       		.byte	0x37
 2097 0f3b A0090000 		.4byte	0x9a0
 2098 0f3f 08       		.byte	0x8
 2099 0f40 00       		.byte	0
 2100 0f41 07       		.uleb128 0x7
 2101 0f42 04       		.byte	0x4
 2102 0f43 1C0F0000 		.4byte	0xf1c
 2103 0f47 10       		.uleb128 0x10
ARM GAS  /tmp/cc1cNmY3.s 			page 38


 2104 0f48 DD040000 		.4byte	.LASF238
 2105 0f4c 10       		.byte	0x10
 2106 0f4d 14       		.byte	0x14
 2107 0f4e 39       		.byte	0x39
 2108 0f4f 780F0000 		.4byte	0xf78
 2109 0f53 0D       		.uleb128 0xd
 2110 0f54 45080000 		.4byte	.LASF239
 2111 0f58 14       		.byte	0x14
 2112 0f59 3A       		.byte	0x3a
 2113 0f5a 4C0B0000 		.4byte	0xb4c
 2114 0f5e 00       		.byte	0
 2115 0f5f 0D       		.uleb128 0xd
 2116 0f60 A8000000 		.4byte	.LASF240
 2117 0f64 14       		.byte	0x14
 2118 0f65 3C       		.byte	0x3c
 2119 0f66 220B0000 		.4byte	0xb22
 2120 0f6a 08       		.byte	0x8
 2121 0f6b 0D       		.uleb128 0xd
 2122 0f6c DE0A0000 		.4byte	.LASF241
 2123 0f70 14       		.byte	0x14
 2124 0f71 3E       		.byte	0x3e
 2125 0f72 C0100000 		.4byte	0x10c0
 2126 0f76 0C       		.byte	0xc
 2127 0f77 00       		.byte	0
 2128 0f78 07       		.uleb128 0x7
 2129 0f79 04       		.byte	0x4
 2130 0f7a 470F0000 		.4byte	0xf47
 2131 0f7e 07       		.uleb128 0x7
 2132 0f7f 04       		.byte	0x4
 2133 0f80 DF0D0000 		.4byte	0xddf
 2134 0f84 07       		.uleb128 0x7
 2135 0f85 04       		.byte	0x4
 2136 0f86 FF0B0000 		.4byte	0xbff
 2137 0f8a 0E       		.uleb128 0xe
 2138 0f8b DF0D0000 		.4byte	0xddf
 2139 0f8f 9A0F0000 		.4byte	0xf9a
 2140 0f93 0F       		.uleb128 0xf
 2141 0f94 52010000 		.4byte	0x152
 2142 0f98 1B       		.byte	0x1b
 2143 0f99 00       		.byte	0
 2144 0f9a 29       		.uleb128 0x29
 2145 0f9b 636800   		.ascii	"ch\000"
 2146 0f9e 0D       		.byte	0xd
 2147 0f9f 0902     		.2byte	0x209
 2148 0fa1 F40C0000 		.4byte	0xcf4
 2149 0fa5 0A       		.uleb128 0xa
 2150 0fa6 16       		.byte	0x16
 2151 0fa7 15       		.byte	0x15
 2152 0fa8 34       		.byte	0x34
 2153 0fa9 F1040000 		.4byte	.LASF242
 2154 0fad 8A100000 		.4byte	0x108a
 2155 0fb1 0D       		.uleb128 0xd
 2156 0fb2 32090000 		.4byte	.LASF243
 2157 0fb6 15       		.byte	0x15
 2158 0fb7 35       		.byte	0x35
 2159 0fb8 8A100000 		.4byte	0x108a
 2160 0fbc 00       		.byte	0
ARM GAS  /tmp/cc1cNmY3.s 			page 39


 2161 0fbd 0D       		.uleb128 0xd
 2162 0fbe 41070000 		.4byte	.LASF244
 2163 0fc2 15       		.byte	0x15
 2164 0fc3 36       		.byte	0x36
 2165 0fc4 FB080000 		.4byte	0x8fb
 2166 0fc8 04       		.byte	0x4
 2167 0fc9 0D       		.uleb128 0xd
 2168 0fca B0070000 		.4byte	.LASF245
 2169 0fce 15       		.byte	0x15
 2170 0fcf 37       		.byte	0x37
 2171 0fd0 FB080000 		.4byte	0x8fb
 2172 0fd4 05       		.byte	0x5
 2173 0fd5 0D       		.uleb128 0xd
 2174 0fd6 1B080000 		.4byte	.LASF246
 2175 0fda 15       		.byte	0x15
 2176 0fdb 38       		.byte	0x38
 2177 0fdc 06090000 		.4byte	0x906
 2178 0fe0 06       		.byte	0x6
 2179 0fe1 0D       		.uleb128 0xd
 2180 0fe2 D3010000 		.4byte	.LASF247
 2181 0fe6 15       		.byte	0x15
 2182 0fe7 39       		.byte	0x39
 2183 0fe8 FB080000 		.4byte	0x8fb
 2184 0fec 08       		.byte	0x8
 2185 0fed 0D       		.uleb128 0xd
 2186 0fee 6F020000 		.4byte	.LASF248
 2187 0ff2 15       		.byte	0x15
 2188 0ff3 3A       		.byte	0x3a
 2189 0ff4 FB080000 		.4byte	0x8fb
 2190 0ff8 09       		.byte	0x9
 2191 0ff9 0D       		.uleb128 0xd
 2192 0ffa AC040000 		.4byte	.LASF249
 2193 0ffe 15       		.byte	0x15
 2194 0fff 3B       		.byte	0x3b
 2195 1000 FB080000 		.4byte	0x8fb
 2196 1004 0A       		.byte	0xa
 2197 1005 0D       		.uleb128 0xd
 2198 1006 E7080000 		.4byte	.LASF250
 2199 100a 15       		.byte	0x15
 2200 100b 3C       		.byte	0x3c
 2201 100c FB080000 		.4byte	0x8fb
 2202 1010 0B       		.byte	0xb
 2203 1011 0D       		.uleb128 0xd
 2204 1012 04050000 		.4byte	.LASF251
 2205 1016 15       		.byte	0x15
 2206 1017 3D       		.byte	0x3d
 2207 1018 FB080000 		.4byte	0x8fb
 2208 101c 0C       		.byte	0xc
 2209 101d 0D       		.uleb128 0xd
 2210 101e F90A0000 		.4byte	.LASF252
 2211 1022 15       		.byte	0x15
 2212 1023 3E       		.byte	0x3e
 2213 1024 FB080000 		.4byte	0x8fb
 2214 1028 0D       		.byte	0xd
 2215 1029 0D       		.uleb128 0xd
 2216 102a 95000000 		.4byte	.LASF253
 2217 102e 15       		.byte	0x15
ARM GAS  /tmp/cc1cNmY3.s 			page 40


 2218 102f 3F       		.byte	0x3f
 2219 1030 FB080000 		.4byte	0x8fb
 2220 1034 0E       		.byte	0xe
 2221 1035 0D       		.uleb128 0xd
 2222 1036 3B010000 		.4byte	.LASF254
 2223 103a 15       		.byte	0x15
 2224 103b 40       		.byte	0x40
 2225 103c FB080000 		.4byte	0x8fb
 2226 1040 0F       		.byte	0xf
 2227 1041 0D       		.uleb128 0xd
 2228 1042 6D080000 		.4byte	.LASF255
 2229 1046 15       		.byte	0x15
 2230 1047 41       		.byte	0x41
 2231 1048 FB080000 		.4byte	0x8fb
 2232 104c 10       		.byte	0x10
 2233 104d 0D       		.uleb128 0xd
 2234 104e 85090000 		.4byte	.LASF256
 2235 1052 15       		.byte	0x15
 2236 1053 43       		.byte	0x43
 2237 1054 FB080000 		.4byte	0x8fb
 2238 1058 11       		.byte	0x11
 2239 1059 0D       		.uleb128 0xd
 2240 105a AB010000 		.4byte	.LASF257
 2241 105e 15       		.byte	0x15
 2242 105f 44       		.byte	0x44
 2243 1060 FB080000 		.4byte	0x8fb
 2244 1064 12       		.byte	0x12
 2245 1065 0D       		.uleb128 0xd
 2246 1066 35070000 		.4byte	.LASF258
 2247 106a 15       		.byte	0x15
 2248 106b 45       		.byte	0x45
 2249 106c FB080000 		.4byte	0x8fb
 2250 1070 13       		.byte	0x13
 2251 1071 0D       		.uleb128 0xd
 2252 1072 A4030000 		.4byte	.LASF259
 2253 1076 15       		.byte	0x15
 2254 1077 46       		.byte	0x46
 2255 1078 FB080000 		.4byte	0x8fb
 2256 107c 14       		.byte	0x14
 2257 107d 0D       		.uleb128 0xd
 2258 107e C6080000 		.4byte	.LASF260
 2259 1082 15       		.byte	0x15
 2260 1083 48       		.byte	0x48
 2261 1084 FB080000 		.4byte	0x8fb
 2262 1088 15       		.byte	0x15
 2263 1089 00       		.byte	0
 2264 108a 0E       		.uleb128 0xe
 2265 108b 04070000 		.4byte	0x704
 2266 108f 9A100000 		.4byte	0x109a
 2267 1093 0F       		.uleb128 0xf
 2268 1094 52010000 		.4byte	0x152
 2269 1098 03       		.byte	0x3
 2270 1099 00       		.byte	0
 2271 109a 03       		.uleb128 0x3
 2272 109b C9010000 		.4byte	.LASF261
 2273 109f 15       		.byte	0x15
 2274 10a0 49       		.byte	0x49
ARM GAS  /tmp/cc1cNmY3.s 			page 41


 2275 10a1 A50F0000 		.4byte	0xfa5
 2276 10a5 17       		.uleb128 0x17
 2277 10a6 9A100000 		.4byte	0x109a
 2278 10aa 23       		.uleb128 0x23
 2279 10ab 3E0B0000 		.4byte	.LASF262
 2280 10af 15       		.byte	0x15
 2281 10b0 6E       		.byte	0x6e
 2282 10b1 A5100000 		.4byte	0x10a5
 2283 10b5 03       		.uleb128 0x3
 2284 10b6 020A0000 		.4byte	.LASF263
 2285 10ba 14       		.byte	0x14
 2286 10bb 34       		.byte	0x34
 2287 10bc 470F0000 		.4byte	0xf47
 2288 10c0 07       		.uleb128 0x7
 2289 10c1 04       		.byte	0x4
 2290 10c2 B5100000 		.4byte	0x10b5
 2291 10c6 02       		.uleb128 0x2
 2292 10c7 01       		.byte	0x1
 2293 10c8 02       		.byte	0x2
 2294 10c9 800B0000 		.4byte	.LASF264
 2295 10cd 2A       		.uleb128 0x2a
 2296 10ce 66070000 		.4byte	.LASF265
 2297 10d2 16       		.byte	0x16
 2298 10d3 0B       		.byte	0xb
 2299 10d4 B9000000 		.4byte	0xb9
 2300 10d8 05       		.uleb128 0x5
 2301 10d9 03       		.byte	0x3
 2302 10da 00000000 		.4byte	__dso_handle
 2303 10de 23       		.uleb128 0x23
 2304 10df A2000000 		.4byte	.LASF266
 2305 10e3 02       		.byte	0x2
 2306 10e4 17       		.byte	0x17
 2307 10e5 94000000 		.4byte	0x94
 2308 10e9 2B       		.uleb128 0x2b
 2309 10ea 47000000 		.4byte	.LASF267
 2310 10ee 02       		.byte	0x2
 2311 10ef 23       		.byte	0x23
 2312 10f0 00000000 		.4byte	.LFB187
 2313 10f4 14000000 		.4byte	.LFE187-.LFB187
 2314 10f8 01       		.uleb128 0x1
 2315 10f9 9C       		.byte	0x9c
 2316 10fa 2C       		.uleb128 0x2c
 2317 10fb 320A0000 		.4byte	.LASF268
 2318 10ff 02       		.byte	0x2
 2319 1100 1F       		.byte	0x1f
 2320 1101 00000000 		.4byte	.LFB186
 2321 1105 04000000 		.4byte	.LFE186-.LFB186
 2322 1109 01       		.uleb128 0x1
 2323 110a 9C       		.byte	0x9c
 2324 110b 2D       		.uleb128 0x2d
 2325 110c 65050000 		.4byte	.LASF269
 2326 1110 02       		.byte	0x2
 2327 1111 18       		.byte	0x18
 2328 1112 94000000 		.4byte	0x94
 2329 1116 00000000 		.4byte	.LFB185
 2330 111a 1C000000 		.4byte	.LFE185-.LFB185
 2331 111e 01       		.uleb128 0x1
ARM GAS  /tmp/cc1cNmY3.s 			page 42


 2332 111f 9C       		.byte	0x9c
 2333 1120 41110000 		.4byte	0x1141
 2334 1124 2E       		.uleb128 0x2e
 2335 1125 70696400 		.ascii	"pid\000"
 2336 1129 02       		.byte	0x2
 2337 112a 18       		.byte	0x18
 2338 112b 94000000 		.4byte	0x94
 2339 112f 02       		.uleb128 0x2
 2340 1130 91       		.byte	0x91
 2341 1131 7C       		.sleb128 -4
 2342 1132 2E       		.uleb128 0x2e
 2343 1133 73696700 		.ascii	"sig\000"
 2344 1137 02       		.byte	0x2
 2345 1138 18       		.byte	0x18
 2346 1139 94000000 		.4byte	0x94
 2347 113d 02       		.uleb128 0x2
 2348 113e 91       		.byte	0x91
 2349 113f 78       		.sleb128 -8
 2350 1140 00       		.byte	0
 2351 1141 2F       		.uleb128 0x2f
 2352 1142 640A0000 		.4byte	.LASF278
 2353 1146 02       		.byte	0x2
 2354 1147 12       		.byte	0x12
 2355 1148 32090000 		.4byte	0x932
 2356 114c 00000000 		.4byte	.LFB184
 2357 1150 06000000 		.4byte	.LFE184-.LFB184
 2358 1154 01       		.uleb128 0x1
 2359 1155 9C       		.byte	0x9c
 2360 1156 30       		.uleb128 0x30
 2361 1157 7D080000 		.4byte	.LASF270
 2362 115b 02       		.byte	0x2
 2363 115c 0C       		.byte	0xc
 2364 115d 00000000 		.4byte	.LFB183
 2365 1161 14000000 		.4byte	.LFE183-.LFB183
 2366 1165 01       		.uleb128 0x1
 2367 1166 9C       		.byte	0x9c
 2368 1167 7A110000 		.4byte	0x117a
 2369 116b 31       		.uleb128 0x31
 2370 116c 1F060000 		.4byte	.LASF271
 2371 1170 02       		.byte	0x2
 2372 1171 0C       		.byte	0xc
 2373 1172 94000000 		.4byte	0x94
 2374 1176 02       		.uleb128 0x2
 2375 1177 91       		.byte	0x91
 2376 1178 74       		.sleb128 -12
 2377 1179 00       		.byte	0
 2378 117a 32       		.uleb128 0x32
 2379 117b 1F070000 		.4byte	.LASF279
 2380 117f 01       		.byte	0x1
 2381 1180 CC01     		.2byte	0x1cc
 2382 1182 00000000 		.4byte	.LFB154
 2383 1186 14000000 		.4byte	.LFE154-.LFB154
 2384 118a 01       		.uleb128 0x1
 2385 118b 9C       		.byte	0x9c
 2386 118c 33       		.uleb128 0x33
 2387 118d 11040000 		.4byte	.LASF272
 2388 1191 01       		.byte	0x1
ARM GAS  /tmp/cc1cNmY3.s 			page 43


 2389 1192 CC01     		.2byte	0x1cc
 2390 1194 34070000 		.4byte	0x734
 2391 1198 02       		.uleb128 0x2
 2392 1199 91       		.byte	0x91
 2393 119a 74       		.sleb128 -12
 2394 119b 00       		.byte	0
 2395 119c 00       		.byte	0
 2396              		.section	.debug_abbrev,"",%progbits
 2397              	.Ldebug_abbrev0:
 2398 0000 01       		.uleb128 0x1
 2399 0001 11       		.uleb128 0x11
 2400 0002 01       		.byte	0x1
 2401 0003 25       		.uleb128 0x25
 2402 0004 0E       		.uleb128 0xe
 2403 0005 13       		.uleb128 0x13
 2404 0006 0B       		.uleb128 0xb
 2405 0007 03       		.uleb128 0x3
 2406 0008 0E       		.uleb128 0xe
 2407 0009 1B       		.uleb128 0x1b
 2408 000a 0E       		.uleb128 0xe
 2409 000b 55       		.uleb128 0x55
 2410 000c 17       		.uleb128 0x17
 2411 000d 11       		.uleb128 0x11
 2412 000e 01       		.uleb128 0x1
 2413 000f 10       		.uleb128 0x10
 2414 0010 17       		.uleb128 0x17
 2415 0011 00       		.byte	0
 2416 0012 00       		.byte	0
 2417 0013 02       		.uleb128 0x2
 2418 0014 24       		.uleb128 0x24
 2419 0015 00       		.byte	0
 2420 0016 0B       		.uleb128 0xb
 2421 0017 0B       		.uleb128 0xb
 2422 0018 3E       		.uleb128 0x3e
 2423 0019 0B       		.uleb128 0xb
 2424 001a 03       		.uleb128 0x3
 2425 001b 0E       		.uleb128 0xe
 2426 001c 00       		.byte	0
 2427 001d 00       		.byte	0
 2428 001e 03       		.uleb128 0x3
 2429 001f 16       		.uleb128 0x16
 2430 0020 00       		.byte	0
 2431 0021 03       		.uleb128 0x3
 2432 0022 0E       		.uleb128 0xe
 2433 0023 3A       		.uleb128 0x3a
 2434 0024 0B       		.uleb128 0xb
 2435 0025 3B       		.uleb128 0x3b
 2436 0026 0B       		.uleb128 0xb
 2437 0027 49       		.uleb128 0x49
 2438 0028 13       		.uleb128 0x13
 2439 0029 00       		.byte	0
 2440 002a 00       		.byte	0
 2441 002b 04       		.uleb128 0x4
 2442 002c 24       		.uleb128 0x24
 2443 002d 00       		.byte	0
 2444 002e 0B       		.uleb128 0xb
 2445 002f 0B       		.uleb128 0xb
ARM GAS  /tmp/cc1cNmY3.s 			page 44


 2446 0030 3E       		.uleb128 0x3e
 2447 0031 0B       		.uleb128 0xb
 2448 0032 03       		.uleb128 0x3
 2449 0033 08       		.uleb128 0x8
 2450 0034 00       		.byte	0
 2451 0035 00       		.byte	0
 2452 0036 05       		.uleb128 0x5
 2453 0037 3B       		.uleb128 0x3b
 2454 0038 00       		.byte	0
 2455 0039 03       		.uleb128 0x3
 2456 003a 0E       		.uleb128 0xe
 2457 003b 00       		.byte	0
 2458 003c 00       		.byte	0
 2459 003d 06       		.uleb128 0x6
 2460 003e 0F       		.uleb128 0xf
 2461 003f 00       		.byte	0
 2462 0040 0B       		.uleb128 0xb
 2463 0041 0B       		.uleb128 0xb
 2464 0042 00       		.byte	0
 2465 0043 00       		.byte	0
 2466 0044 07       		.uleb128 0x7
 2467 0045 0F       		.uleb128 0xf
 2468 0046 00       		.byte	0
 2469 0047 0B       		.uleb128 0xb
 2470 0048 0B       		.uleb128 0xb
 2471 0049 49       		.uleb128 0x49
 2472 004a 13       		.uleb128 0x13
 2473 004b 00       		.byte	0
 2474 004c 00       		.byte	0
 2475 004d 08       		.uleb128 0x8
 2476 004e 13       		.uleb128 0x13
 2477 004f 00       		.byte	0
 2478 0050 03       		.uleb128 0x3
 2479 0051 0E       		.uleb128 0xe
 2480 0052 3C       		.uleb128 0x3c
 2481 0053 19       		.uleb128 0x19
 2482 0054 00       		.byte	0
 2483 0055 00       		.byte	0
 2484 0056 09       		.uleb128 0x9
 2485 0057 16       		.uleb128 0x16
 2486 0058 00       		.byte	0
 2487 0059 03       		.uleb128 0x3
 2488 005a 0E       		.uleb128 0xe
 2489 005b 3A       		.uleb128 0x3a
 2490 005c 0B       		.uleb128 0xb
 2491 005d 3B       		.uleb128 0x3b
 2492 005e 05       		.uleb128 0x5
 2493 005f 49       		.uleb128 0x49
 2494 0060 13       		.uleb128 0x13
 2495 0061 00       		.byte	0
 2496 0062 00       		.byte	0
 2497 0063 0A       		.uleb128 0xa
 2498 0064 13       		.uleb128 0x13
 2499 0065 01       		.byte	0x1
 2500 0066 0B       		.uleb128 0xb
 2501 0067 0B       		.uleb128 0xb
 2502 0068 3A       		.uleb128 0x3a
ARM GAS  /tmp/cc1cNmY3.s 			page 45


 2503 0069 0B       		.uleb128 0xb
 2504 006a 3B       		.uleb128 0x3b
 2505 006b 0B       		.uleb128 0xb
 2506 006c 6E       		.uleb128 0x6e
 2507 006d 0E       		.uleb128 0xe
 2508 006e 01       		.uleb128 0x1
 2509 006f 13       		.uleb128 0x13
 2510 0070 00       		.byte	0
 2511 0071 00       		.byte	0
 2512 0072 0B       		.uleb128 0xb
 2513 0073 17       		.uleb128 0x17
 2514 0074 01       		.byte	0x1
 2515 0075 0B       		.uleb128 0xb
 2516 0076 0B       		.uleb128 0xb
 2517 0077 3A       		.uleb128 0x3a
 2518 0078 0B       		.uleb128 0xb
 2519 0079 3B       		.uleb128 0x3b
 2520 007a 0B       		.uleb128 0xb
 2521 007b 01       		.uleb128 0x1
 2522 007c 13       		.uleb128 0x13
 2523 007d 00       		.byte	0
 2524 007e 00       		.byte	0
 2525 007f 0C       		.uleb128 0xc
 2526 0080 0D       		.uleb128 0xd
 2527 0081 00       		.byte	0
 2528 0082 03       		.uleb128 0x3
 2529 0083 0E       		.uleb128 0xe
 2530 0084 3A       		.uleb128 0x3a
 2531 0085 0B       		.uleb128 0xb
 2532 0086 3B       		.uleb128 0x3b
 2533 0087 0B       		.uleb128 0xb
 2534 0088 49       		.uleb128 0x49
 2535 0089 13       		.uleb128 0x13
 2536 008a 00       		.byte	0
 2537 008b 00       		.byte	0
 2538 008c 0D       		.uleb128 0xd
 2539 008d 0D       		.uleb128 0xd
 2540 008e 00       		.byte	0
 2541 008f 03       		.uleb128 0x3
 2542 0090 0E       		.uleb128 0xe
 2543 0091 3A       		.uleb128 0x3a
 2544 0092 0B       		.uleb128 0xb
 2545 0093 3B       		.uleb128 0x3b
 2546 0094 0B       		.uleb128 0xb
 2547 0095 49       		.uleb128 0x49
 2548 0096 13       		.uleb128 0x13
 2549 0097 38       		.uleb128 0x38
 2550 0098 0B       		.uleb128 0xb
 2551 0099 00       		.byte	0
 2552 009a 00       		.byte	0
 2553 009b 0E       		.uleb128 0xe
 2554 009c 01       		.uleb128 0x1
 2555 009d 01       		.byte	0x1
 2556 009e 49       		.uleb128 0x49
 2557 009f 13       		.uleb128 0x13
 2558 00a0 01       		.uleb128 0x1
 2559 00a1 13       		.uleb128 0x13
ARM GAS  /tmp/cc1cNmY3.s 			page 46


 2560 00a2 00       		.byte	0
 2561 00a3 00       		.byte	0
 2562 00a4 0F       		.uleb128 0xf
 2563 00a5 21       		.uleb128 0x21
 2564 00a6 00       		.byte	0
 2565 00a7 49       		.uleb128 0x49
 2566 00a8 13       		.uleb128 0x13
 2567 00a9 2F       		.uleb128 0x2f
 2568 00aa 0B       		.uleb128 0xb
 2569 00ab 00       		.byte	0
 2570 00ac 00       		.byte	0
 2571 00ad 10       		.uleb128 0x10
 2572 00ae 13       		.uleb128 0x13
 2573 00af 01       		.byte	0x1
 2574 00b0 03       		.uleb128 0x3
 2575 00b1 0E       		.uleb128 0xe
 2576 00b2 0B       		.uleb128 0xb
 2577 00b3 0B       		.uleb128 0xb
 2578 00b4 3A       		.uleb128 0x3a
 2579 00b5 0B       		.uleb128 0xb
 2580 00b6 3B       		.uleb128 0x3b
 2581 00b7 0B       		.uleb128 0xb
 2582 00b8 01       		.uleb128 0x1
 2583 00b9 13       		.uleb128 0x13
 2584 00ba 00       		.byte	0
 2585 00bb 00       		.byte	0
 2586 00bc 11       		.uleb128 0x11
 2587 00bd 0D       		.uleb128 0xd
 2588 00be 00       		.byte	0
 2589 00bf 03       		.uleb128 0x3
 2590 00c0 08       		.uleb128 0x8
 2591 00c1 3A       		.uleb128 0x3a
 2592 00c2 0B       		.uleb128 0xb
 2593 00c3 3B       		.uleb128 0x3b
 2594 00c4 0B       		.uleb128 0xb
 2595 00c5 49       		.uleb128 0x49
 2596 00c6 13       		.uleb128 0x13
 2597 00c7 38       		.uleb128 0x38
 2598 00c8 0B       		.uleb128 0xb
 2599 00c9 00       		.byte	0
 2600 00ca 00       		.byte	0
 2601 00cb 12       		.uleb128 0x12
 2602 00cc 13       		.uleb128 0x13
 2603 00cd 01       		.byte	0x1
 2604 00ce 03       		.uleb128 0x3
 2605 00cf 0E       		.uleb128 0xe
 2606 00d0 0B       		.uleb128 0xb
 2607 00d1 05       		.uleb128 0x5
 2608 00d2 3A       		.uleb128 0x3a
 2609 00d3 0B       		.uleb128 0xb
 2610 00d4 3B       		.uleb128 0x3b
 2611 00d5 0B       		.uleb128 0xb
 2612 00d6 01       		.uleb128 0x1
 2613 00d7 13       		.uleb128 0x13
 2614 00d8 00       		.byte	0
 2615 00d9 00       		.byte	0
 2616 00da 13       		.uleb128 0x13
ARM GAS  /tmp/cc1cNmY3.s 			page 47


 2617 00db 0D       		.uleb128 0xd
 2618 00dc 00       		.byte	0
 2619 00dd 03       		.uleb128 0x3
 2620 00de 0E       		.uleb128 0xe
 2621 00df 3A       		.uleb128 0x3a
 2622 00e0 0B       		.uleb128 0xb
 2623 00e1 3B       		.uleb128 0x3b
 2624 00e2 0B       		.uleb128 0xb
 2625 00e3 49       		.uleb128 0x49
 2626 00e4 13       		.uleb128 0x13
 2627 00e5 38       		.uleb128 0x38
 2628 00e6 05       		.uleb128 0x5
 2629 00e7 00       		.byte	0
 2630 00e8 00       		.byte	0
 2631 00e9 14       		.uleb128 0x14
 2632 00ea 15       		.uleb128 0x15
 2633 00eb 00       		.byte	0
 2634 00ec 00       		.byte	0
 2635 00ed 00       		.byte	0
 2636 00ee 15       		.uleb128 0x15
 2637 00ef 15       		.uleb128 0x15
 2638 00f0 01       		.byte	0x1
 2639 00f1 49       		.uleb128 0x49
 2640 00f2 13       		.uleb128 0x13
 2641 00f3 01       		.uleb128 0x1
 2642 00f4 13       		.uleb128 0x13
 2643 00f5 00       		.byte	0
 2644 00f6 00       		.byte	0
 2645 00f7 16       		.uleb128 0x16
 2646 00f8 05       		.uleb128 0x5
 2647 00f9 00       		.byte	0
 2648 00fa 49       		.uleb128 0x49
 2649 00fb 13       		.uleb128 0x13
 2650 00fc 00       		.byte	0
 2651 00fd 00       		.byte	0
 2652 00fe 17       		.uleb128 0x17
 2653 00ff 26       		.uleb128 0x26
 2654 0100 00       		.byte	0
 2655 0101 49       		.uleb128 0x49
 2656 0102 13       		.uleb128 0x13
 2657 0103 00       		.byte	0
 2658 0104 00       		.byte	0
 2659 0105 18       		.uleb128 0x18
 2660 0106 13       		.uleb128 0x13
 2661 0107 01       		.byte	0x1
 2662 0108 03       		.uleb128 0x3
 2663 0109 0E       		.uleb128 0xe
 2664 010a 0B       		.uleb128 0xb
 2665 010b 05       		.uleb128 0x5
 2666 010c 3A       		.uleb128 0x3a
 2667 010d 0B       		.uleb128 0xb
 2668 010e 3B       		.uleb128 0x3b
 2669 010f 05       		.uleb128 0x5
 2670 0110 01       		.uleb128 0x1
 2671 0111 13       		.uleb128 0x13
 2672 0112 00       		.byte	0
 2673 0113 00       		.byte	0
ARM GAS  /tmp/cc1cNmY3.s 			page 48


 2674 0114 19       		.uleb128 0x19
 2675 0115 17       		.uleb128 0x17
 2676 0116 01       		.byte	0x1
 2677 0117 0B       		.uleb128 0xb
 2678 0118 0B       		.uleb128 0xb
 2679 0119 3A       		.uleb128 0x3a
 2680 011a 0B       		.uleb128 0xb
 2681 011b 3B       		.uleb128 0x3b
 2682 011c 05       		.uleb128 0x5
 2683 011d 01       		.uleb128 0x1
 2684 011e 13       		.uleb128 0x13
 2685 011f 00       		.byte	0
 2686 0120 00       		.byte	0
 2687 0121 1A       		.uleb128 0x1a
 2688 0122 13       		.uleb128 0x13
 2689 0123 01       		.byte	0x1
 2690 0124 0B       		.uleb128 0xb
 2691 0125 0B       		.uleb128 0xb
 2692 0126 3A       		.uleb128 0x3a
 2693 0127 0B       		.uleb128 0xb
 2694 0128 3B       		.uleb128 0x3b
 2695 0129 05       		.uleb128 0x5
 2696 012a 01       		.uleb128 0x1
 2697 012b 13       		.uleb128 0x13
 2698 012c 00       		.byte	0
 2699 012d 00       		.byte	0
 2700 012e 1B       		.uleb128 0x1b
 2701 012f 0D       		.uleb128 0xd
 2702 0130 00       		.byte	0
 2703 0131 03       		.uleb128 0x3
 2704 0132 0E       		.uleb128 0xe
 2705 0133 3A       		.uleb128 0x3a
 2706 0134 0B       		.uleb128 0xb
 2707 0135 3B       		.uleb128 0x3b
 2708 0136 05       		.uleb128 0x5
 2709 0137 49       		.uleb128 0x49
 2710 0138 13       		.uleb128 0x13
 2711 0139 38       		.uleb128 0x38
 2712 013a 0B       		.uleb128 0xb
 2713 013b 00       		.byte	0
 2714 013c 00       		.byte	0
 2715 013d 1C       		.uleb128 0x1c
 2716 013e 0D       		.uleb128 0xd
 2717 013f 00       		.byte	0
 2718 0140 03       		.uleb128 0x3
 2719 0141 0E       		.uleb128 0xe
 2720 0142 3A       		.uleb128 0x3a
 2721 0143 0B       		.uleb128 0xb
 2722 0144 3B       		.uleb128 0x3b
 2723 0145 05       		.uleb128 0x5
 2724 0146 49       		.uleb128 0x49
 2725 0147 13       		.uleb128 0x13
 2726 0148 00       		.byte	0
 2727 0149 00       		.byte	0
 2728 014a 1D       		.uleb128 0x1d
 2729 014b 0D       		.uleb128 0xd
 2730 014c 00       		.byte	0
ARM GAS  /tmp/cc1cNmY3.s 			page 49


 2731 014d 03       		.uleb128 0x3
 2732 014e 0E       		.uleb128 0xe
 2733 014f 3A       		.uleb128 0x3a
 2734 0150 0B       		.uleb128 0xb
 2735 0151 3B       		.uleb128 0x3b
 2736 0152 05       		.uleb128 0x5
 2737 0153 49       		.uleb128 0x49
 2738 0154 13       		.uleb128 0x13
 2739 0155 38       		.uleb128 0x38
 2740 0156 05       		.uleb128 0x5
 2741 0157 00       		.byte	0
 2742 0158 00       		.byte	0
 2743 0159 1E       		.uleb128 0x1e
 2744 015a 35       		.uleb128 0x35
 2745 015b 00       		.byte	0
 2746 015c 49       		.uleb128 0x49
 2747 015d 13       		.uleb128 0x13
 2748 015e 00       		.byte	0
 2749 015f 00       		.byte	0
 2750 0160 1F       		.uleb128 0x1f
 2751 0161 13       		.uleb128 0x13
 2752 0162 01       		.byte	0x1
 2753 0163 03       		.uleb128 0x3
 2754 0164 0E       		.uleb128 0xe
 2755 0165 0B       		.uleb128 0xb
 2756 0166 0B       		.uleb128 0xb
 2757 0167 3A       		.uleb128 0x3a
 2758 0168 0B       		.uleb128 0xb
 2759 0169 3B       		.uleb128 0x3b
 2760 016a 05       		.uleb128 0x5
 2761 016b 01       		.uleb128 0x1
 2762 016c 13       		.uleb128 0x13
 2763 016d 00       		.byte	0
 2764 016e 00       		.byte	0
 2765 016f 20       		.uleb128 0x20
 2766 0170 15       		.uleb128 0x15
 2767 0171 01       		.byte	0x1
 2768 0172 01       		.uleb128 0x1
 2769 0173 13       		.uleb128 0x13
 2770 0174 00       		.byte	0
 2771 0175 00       		.byte	0
 2772 0176 21       		.uleb128 0x21
 2773 0177 34       		.uleb128 0x34
 2774 0178 00       		.byte	0
 2775 0179 03       		.uleb128 0x3
 2776 017a 0E       		.uleb128 0xe
 2777 017b 3A       		.uleb128 0x3a
 2778 017c 0B       		.uleb128 0xb
 2779 017d 3B       		.uleb128 0x3b
 2780 017e 05       		.uleb128 0x5
 2781 017f 49       		.uleb128 0x49
 2782 0180 13       		.uleb128 0x13
 2783 0181 3F       		.uleb128 0x3f
 2784 0182 19       		.uleb128 0x19
 2785 0183 3C       		.uleb128 0x3c
 2786 0184 19       		.uleb128 0x19
 2787 0185 00       		.byte	0
ARM GAS  /tmp/cc1cNmY3.s 			page 50


 2788 0186 00       		.byte	0
 2789 0187 22       		.uleb128 0x22
 2790 0188 21       		.uleb128 0x21
 2791 0189 00       		.byte	0
 2792 018a 00       		.byte	0
 2793 018b 00       		.byte	0
 2794 018c 23       		.uleb128 0x23
 2795 018d 34       		.uleb128 0x34
 2796 018e 00       		.byte	0
 2797 018f 03       		.uleb128 0x3
 2798 0190 0E       		.uleb128 0xe
 2799 0191 3A       		.uleb128 0x3a
 2800 0192 0B       		.uleb128 0xb
 2801 0193 3B       		.uleb128 0x3b
 2802 0194 0B       		.uleb128 0xb
 2803 0195 49       		.uleb128 0x49
 2804 0196 13       		.uleb128 0x13
 2805 0197 3F       		.uleb128 0x3f
 2806 0198 19       		.uleb128 0x19
 2807 0199 3C       		.uleb128 0x3c
 2808 019a 19       		.uleb128 0x19
 2809 019b 00       		.byte	0
 2810 019c 00       		.byte	0
 2811 019d 24       		.uleb128 0x24
 2812 019e 0D       		.uleb128 0xd
 2813 019f 00       		.byte	0
 2814 01a0 03       		.uleb128 0x3
 2815 01a1 08       		.uleb128 0x8
 2816 01a2 3A       		.uleb128 0x3a
 2817 01a3 0B       		.uleb128 0xb
 2818 01a4 3B       		.uleb128 0x3b
 2819 01a5 05       		.uleb128 0x5
 2820 01a6 49       		.uleb128 0x49
 2821 01a7 13       		.uleb128 0x13
 2822 01a8 38       		.uleb128 0x38
 2823 01a9 0B       		.uleb128 0xb
 2824 01aa 00       		.byte	0
 2825 01ab 00       		.byte	0
 2826 01ac 25       		.uleb128 0x25
 2827 01ad 04       		.uleb128 0x4
 2828 01ae 01       		.byte	0x1
 2829 01af 0B       		.uleb128 0xb
 2830 01b0 0B       		.uleb128 0xb
 2831 01b1 49       		.uleb128 0x49
 2832 01b2 13       		.uleb128 0x13
 2833 01b3 3A       		.uleb128 0x3a
 2834 01b4 0B       		.uleb128 0xb
 2835 01b5 3B       		.uleb128 0x3b
 2836 01b6 0B       		.uleb128 0xb
 2837 01b7 6E       		.uleb128 0x6e
 2838 01b8 0E       		.uleb128 0xe
 2839 01b9 01       		.uleb128 0x1
 2840 01ba 13       		.uleb128 0x13
 2841 01bb 00       		.byte	0
 2842 01bc 00       		.byte	0
 2843 01bd 26       		.uleb128 0x26
 2844 01be 28       		.uleb128 0x28
ARM GAS  /tmp/cc1cNmY3.s 			page 51


 2845 01bf 00       		.byte	0
 2846 01c0 03       		.uleb128 0x3
 2847 01c1 0E       		.uleb128 0xe
 2848 01c2 1C       		.uleb128 0x1c
 2849 01c3 0B       		.uleb128 0xb
 2850 01c4 00       		.byte	0
 2851 01c5 00       		.byte	0
 2852 01c6 27       		.uleb128 0x27
 2853 01c7 28       		.uleb128 0x28
 2854 01c8 00       		.byte	0
 2855 01c9 03       		.uleb128 0x3
 2856 01ca 08       		.uleb128 0x8
 2857 01cb 1C       		.uleb128 0x1c
 2858 01cc 0B       		.uleb128 0xb
 2859 01cd 00       		.byte	0
 2860 01ce 00       		.byte	0
 2861 01cf 28       		.uleb128 0x28
 2862 01d0 13       		.uleb128 0x13
 2863 01d1 01       		.byte	0x1
 2864 01d2 0B       		.uleb128 0xb
 2865 01d3 05       		.uleb128 0x5
 2866 01d4 3A       		.uleb128 0x3a
 2867 01d5 0B       		.uleb128 0xb
 2868 01d6 3B       		.uleb128 0x3b
 2869 01d7 0B       		.uleb128 0xb
 2870 01d8 6E       		.uleb128 0x6e
 2871 01d9 0E       		.uleb128 0xe
 2872 01da 01       		.uleb128 0x1
 2873 01db 13       		.uleb128 0x13
 2874 01dc 00       		.byte	0
 2875 01dd 00       		.byte	0
 2876 01de 29       		.uleb128 0x29
 2877 01df 34       		.uleb128 0x34
 2878 01e0 00       		.byte	0
 2879 01e1 03       		.uleb128 0x3
 2880 01e2 08       		.uleb128 0x8
 2881 01e3 3A       		.uleb128 0x3a
 2882 01e4 0B       		.uleb128 0xb
 2883 01e5 3B       		.uleb128 0x3b
 2884 01e6 05       		.uleb128 0x5
 2885 01e7 49       		.uleb128 0x49
 2886 01e8 13       		.uleb128 0x13
 2887 01e9 3F       		.uleb128 0x3f
 2888 01ea 19       		.uleb128 0x19
 2889 01eb 3C       		.uleb128 0x3c
 2890 01ec 19       		.uleb128 0x19
 2891 01ed 00       		.byte	0
 2892 01ee 00       		.byte	0
 2893 01ef 2A       		.uleb128 0x2a
 2894 01f0 34       		.uleb128 0x34
 2895 01f1 00       		.byte	0
 2896 01f2 03       		.uleb128 0x3
 2897 01f3 0E       		.uleb128 0xe
 2898 01f4 3A       		.uleb128 0x3a
 2899 01f5 0B       		.uleb128 0xb
 2900 01f6 3B       		.uleb128 0x3b
 2901 01f7 0B       		.uleb128 0xb
ARM GAS  /tmp/cc1cNmY3.s 			page 52


 2902 01f8 49       		.uleb128 0x49
 2903 01f9 13       		.uleb128 0x13
 2904 01fa 3F       		.uleb128 0x3f
 2905 01fb 19       		.uleb128 0x19
 2906 01fc 02       		.uleb128 0x2
 2907 01fd 18       		.uleb128 0x18
 2908 01fe 00       		.byte	0
 2909 01ff 00       		.byte	0
 2910 0200 2B       		.uleb128 0x2b
 2911 0201 2E       		.uleb128 0x2e
 2912 0202 00       		.byte	0
 2913 0203 3F       		.uleb128 0x3f
 2914 0204 19       		.uleb128 0x19
 2915 0205 03       		.uleb128 0x3
 2916 0206 0E       		.uleb128 0xe
 2917 0207 3A       		.uleb128 0x3a
 2918 0208 0B       		.uleb128 0xb
 2919 0209 3B       		.uleb128 0x3b
 2920 020a 0B       		.uleb128 0xb
 2921 020b 11       		.uleb128 0x11
 2922 020c 01       		.uleb128 0x1
 2923 020d 12       		.uleb128 0x12
 2924 020e 06       		.uleb128 0x6
 2925 020f 40       		.uleb128 0x40
 2926 0210 18       		.uleb128 0x18
 2927 0211 9642     		.uleb128 0x2116
 2928 0213 19       		.uleb128 0x19
 2929 0214 00       		.byte	0
 2930 0215 00       		.byte	0
 2931 0216 2C       		.uleb128 0x2c
 2932 0217 2E       		.uleb128 0x2e
 2933 0218 00       		.byte	0
 2934 0219 3F       		.uleb128 0x3f
 2935 021a 19       		.uleb128 0x19
 2936 021b 03       		.uleb128 0x3
 2937 021c 0E       		.uleb128 0xe
 2938 021d 3A       		.uleb128 0x3a
 2939 021e 0B       		.uleb128 0xb
 2940 021f 3B       		.uleb128 0x3b
 2941 0220 0B       		.uleb128 0xb
 2942 0221 11       		.uleb128 0x11
 2943 0222 01       		.uleb128 0x1
 2944 0223 12       		.uleb128 0x12
 2945 0224 06       		.uleb128 0x6
 2946 0225 40       		.uleb128 0x40
 2947 0226 18       		.uleb128 0x18
 2948 0227 9742     		.uleb128 0x2117
 2949 0229 19       		.uleb128 0x19
 2950 022a 00       		.byte	0
 2951 022b 00       		.byte	0
 2952 022c 2D       		.uleb128 0x2d
 2953 022d 2E       		.uleb128 0x2e
 2954 022e 01       		.byte	0x1
 2955 022f 3F       		.uleb128 0x3f
 2956 0230 19       		.uleb128 0x19
 2957 0231 03       		.uleb128 0x3
 2958 0232 0E       		.uleb128 0xe
ARM GAS  /tmp/cc1cNmY3.s 			page 53


 2959 0233 3A       		.uleb128 0x3a
 2960 0234 0B       		.uleb128 0xb
 2961 0235 3B       		.uleb128 0x3b
 2962 0236 0B       		.uleb128 0xb
 2963 0237 49       		.uleb128 0x49
 2964 0238 13       		.uleb128 0x13
 2965 0239 11       		.uleb128 0x11
 2966 023a 01       		.uleb128 0x1
 2967 023b 12       		.uleb128 0x12
 2968 023c 06       		.uleb128 0x6
 2969 023d 40       		.uleb128 0x40
 2970 023e 18       		.uleb128 0x18
 2971 023f 9742     		.uleb128 0x2117
 2972 0241 19       		.uleb128 0x19
 2973 0242 01       		.uleb128 0x1
 2974 0243 13       		.uleb128 0x13
 2975 0244 00       		.byte	0
 2976 0245 00       		.byte	0
 2977 0246 2E       		.uleb128 0x2e
 2978 0247 05       		.uleb128 0x5
 2979 0248 00       		.byte	0
 2980 0249 03       		.uleb128 0x3
 2981 024a 08       		.uleb128 0x8
 2982 024b 3A       		.uleb128 0x3a
 2983 024c 0B       		.uleb128 0xb
 2984 024d 3B       		.uleb128 0x3b
 2985 024e 0B       		.uleb128 0xb
 2986 024f 49       		.uleb128 0x49
 2987 0250 13       		.uleb128 0x13
 2988 0251 02       		.uleb128 0x2
 2989 0252 18       		.uleb128 0x18
 2990 0253 00       		.byte	0
 2991 0254 00       		.byte	0
 2992 0255 2F       		.uleb128 0x2f
 2993 0256 2E       		.uleb128 0x2e
 2994 0257 00       		.byte	0
 2995 0258 3F       		.uleb128 0x3f
 2996 0259 19       		.uleb128 0x19
 2997 025a 03       		.uleb128 0x3
 2998 025b 0E       		.uleb128 0xe
 2999 025c 3A       		.uleb128 0x3a
 3000 025d 0B       		.uleb128 0xb
 3001 025e 3B       		.uleb128 0x3b
 3002 025f 0B       		.uleb128 0xb
 3003 0260 49       		.uleb128 0x49
 3004 0261 13       		.uleb128 0x13
 3005 0262 11       		.uleb128 0x11
 3006 0263 01       		.uleb128 0x1
 3007 0264 12       		.uleb128 0x12
 3008 0265 06       		.uleb128 0x6
 3009 0266 40       		.uleb128 0x40
 3010 0267 18       		.uleb128 0x18
 3011 0268 9742     		.uleb128 0x2117
 3012 026a 19       		.uleb128 0x19
 3013 026b 00       		.byte	0
 3014 026c 00       		.byte	0
 3015 026d 30       		.uleb128 0x30
ARM GAS  /tmp/cc1cNmY3.s 			page 54


 3016 026e 2E       		.uleb128 0x2e
 3017 026f 01       		.byte	0x1
 3018 0270 3F       		.uleb128 0x3f
 3019 0271 19       		.uleb128 0x19
 3020 0272 03       		.uleb128 0x3
 3021 0273 0E       		.uleb128 0xe
 3022 0274 3A       		.uleb128 0x3a
 3023 0275 0B       		.uleb128 0xb
 3024 0276 3B       		.uleb128 0x3b
 3025 0277 0B       		.uleb128 0xb
 3026 0278 8701     		.uleb128 0x87
 3027 027a 19       		.uleb128 0x19
 3028 027b 11       		.uleb128 0x11
 3029 027c 01       		.uleb128 0x1
 3030 027d 12       		.uleb128 0x12
 3031 027e 06       		.uleb128 0x6
 3032 027f 40       		.uleb128 0x40
 3033 0280 18       		.uleb128 0x18
 3034 0281 9642     		.uleb128 0x2116
 3035 0283 19       		.uleb128 0x19
 3036 0284 01       		.uleb128 0x1
 3037 0285 13       		.uleb128 0x13
 3038 0286 00       		.byte	0
 3039 0287 00       		.byte	0
 3040 0288 31       		.uleb128 0x31
 3041 0289 05       		.uleb128 0x5
 3042 028a 00       		.byte	0
 3043 028b 03       		.uleb128 0x3
 3044 028c 0E       		.uleb128 0xe
 3045 028d 3A       		.uleb128 0x3a
 3046 028e 0B       		.uleb128 0xb
 3047 028f 3B       		.uleb128 0x3b
 3048 0290 0B       		.uleb128 0xb
 3049 0291 49       		.uleb128 0x49
 3050 0292 13       		.uleb128 0x13
 3051 0293 02       		.uleb128 0x2
 3052 0294 18       		.uleb128 0x18
 3053 0295 00       		.byte	0
 3054 0296 00       		.byte	0
 3055 0297 32       		.uleb128 0x32
 3056 0298 2E       		.uleb128 0x2e
 3057 0299 01       		.byte	0x1
 3058 029a 03       		.uleb128 0x3
 3059 029b 0E       		.uleb128 0xe
 3060 029c 3A       		.uleb128 0x3a
 3061 029d 0B       		.uleb128 0xb
 3062 029e 3B       		.uleb128 0x3b
 3063 029f 05       		.uleb128 0x5
 3064 02a0 11       		.uleb128 0x11
 3065 02a1 01       		.uleb128 0x1
 3066 02a2 12       		.uleb128 0x12
 3067 02a3 06       		.uleb128 0x6
 3068 02a4 40       		.uleb128 0x40
 3069 02a5 18       		.uleb128 0x18
 3070 02a6 9642     		.uleb128 0x2116
 3071 02a8 19       		.uleb128 0x19
 3072 02a9 00       		.byte	0
ARM GAS  /tmp/cc1cNmY3.s 			page 55


 3073 02aa 00       		.byte	0
 3074 02ab 33       		.uleb128 0x33
 3075 02ac 05       		.uleb128 0x5
 3076 02ad 00       		.byte	0
 3077 02ae 03       		.uleb128 0x3
 3078 02af 0E       		.uleb128 0xe
 3079 02b0 3A       		.uleb128 0x3a
 3080 02b1 0B       		.uleb128 0xb
 3081 02b2 3B       		.uleb128 0x3b
 3082 02b3 05       		.uleb128 0x5
 3083 02b4 49       		.uleb128 0x49
 3084 02b5 13       		.uleb128 0x13
 3085 02b6 02       		.uleb128 0x2
 3086 02b7 18       		.uleb128 0x18
 3087 02b8 00       		.byte	0
 3088 02b9 00       		.byte	0
 3089 02ba 00       		.byte	0
 3090              		.section	.debug_aranges,"",%progbits
 3091 0000 44000000 		.4byte	0x44
 3092 0004 0200     		.2byte	0x2
 3093 0006 00000000 		.4byte	.Ldebug_info0
 3094 000a 04       		.byte	0x4
 3095 000b 00       		.byte	0
 3096 000c 0000     		.2byte	0
 3097 000e 0000     		.2byte	0
 3098 0010 00000000 		.4byte	.LFB154
 3099 0014 14000000 		.4byte	.LFE154-.LFB154
 3100 0018 00000000 		.4byte	.LFB183
 3101 001c 14000000 		.4byte	.LFE183-.LFB183
 3102 0020 00000000 		.4byte	.LFB184
 3103 0024 06000000 		.4byte	.LFE184-.LFB184
 3104 0028 00000000 		.4byte	.LFB185
 3105 002c 1C000000 		.4byte	.LFE185-.LFB185
 3106 0030 00000000 		.4byte	.LFB186
 3107 0034 04000000 		.4byte	.LFE186-.LFB186
 3108 0038 00000000 		.4byte	.LFB187
 3109 003c 14000000 		.4byte	.LFE187-.LFB187
 3110 0040 00000000 		.4byte	0
 3111 0044 00000000 		.4byte	0
 3112              		.section	.debug_ranges,"",%progbits
 3113              	.Ldebug_ranges0:
 3114 0000 00000000 		.4byte	.LFB154
 3115 0004 14000000 		.4byte	.LFE154
 3116 0008 00000000 		.4byte	.LFB183
 3117 000c 14000000 		.4byte	.LFE183
 3118 0010 00000000 		.4byte	.LFB184
 3119 0014 06000000 		.4byte	.LFE184
 3120 0018 00000000 		.4byte	.LFB185
 3121 001c 1C000000 		.4byte	.LFE185
 3122 0020 00000000 		.4byte	.LFB186
 3123 0024 04000000 		.4byte	.LFE186
 3124 0028 00000000 		.4byte	.LFB187
 3125 002c 14000000 		.4byte	.LFE187
 3126 0030 00000000 		.4byte	0
 3127 0034 00000000 		.4byte	0
 3128              		.section	.debug_line,"",%progbits
 3129              	.Ldebug_line0:
ARM GAS  /tmp/cc1cNmY3.s 			page 56


 3130 0000 6A030000 		.section	.debug_str,"MS",%progbits,1
 3130      0200EE02 
 3130      00000201 
 3130      FB0E0D00 
 3130      01010101 
 3131              	.LASF174:
 3132 0000 63685F74 		.ascii	"ch_threads_list\000"
 3132      68726561 
 3132      64735F6C 
 3132      69737400 
 3133              	.LASF175:
 3134 0010 74687265 		.ascii	"threads_queue_t\000"
 3134      6164735F 
 3134      71756575 
 3134      655F7400 
 3135              	.LASF217:
 3136 0020 4552524F 		.ascii	"ERROR\000"
 3136      5200
 3137              	.LASF165:
 3138 0026 705F7761 		.ascii	"p_waiting\000"
 3138      6974696E 
 3138      6700
 3139              	.LASF208:
 3140 0030 53797374 		.ascii	"SystemCoreClock\000"
 3140      656D436F 
 3140      7265436C 
 3140      6F636B00 
 3141              	.LASF152:
 3142 0040 77746D74 		.ascii	"wtmtxp\000"
 3142      787000
 3143              	.LASF267:
 3144 0047 5F5F6378 		.ascii	"__cxa_pure_virtual\000"
 3144      615F7075 
 3144      72655F76 
 3144      69727475 
 3144      616C00
 3145              	.LASF220:
 3146 005a 72656761 		.ascii	"regarm_t\000"
 3146      726D5F74 
 3146      00
 3147              	.LASF156:
 3148 0063 705F7072 		.ascii	"p_prio\000"
 3148      696F00
 3149              	.LASF44:
 3150 006a 5F6F6E5F 		.ascii	"_on_exit_args\000"
 3150      65786974 
 3150      5F617267 
 3150      7300
 3151              	.LASF82:
 3152 0078 5F776374 		.ascii	"_wctomb_state\000"
 3152      6F6D625F 
 3152      73746174 
 3152      6500
 3153              	.LASF144:
 3154 0086 73797374 		.ascii	"systime_t\000"
 3154      696D655F 
 3154      7400
ARM GAS  /tmp/cc1cNmY3.s 			page 57


 3155              	.LASF79:
 3156 0090 5F723438 		.ascii	"_r48\000"
 3156      00
 3157              	.LASF253:
 3158 0095 63665F6F 		.ascii	"cf_off_older\000"
 3158      66665F6F 
 3158      6C646572 
 3158      00
 3159              	.LASF266:
 3160 00a2 6572726E 		.ascii	"errno\000"
 3160      6F00
 3161              	.LASF240:
 3162 00a8 6D5F6F77 		.ascii	"m_owner\000"
 3162      6E657200 
 3163              	.LASF236:
 3164 00b0 735F7175 		.ascii	"s_queue\000"
 3164      65756500 
 3165              	.LASF166:
 3166 00b8 705F6D73 		.ascii	"p_msgqueue\000"
 3166      67717565 
 3166      756500
 3167              	.LASF84:
 3168 00c3 5F736967 		.ascii	"_signal_buf\000"
 3168      6E616C5F 
 3168      62756600 
 3169              	.LASF13:
 3170 00cf 756E7369 		.ascii	"unsigned int\000"
 3170      676E6564 
 3170      20696E74 
 3170      00
 3171              	.LASF215:
 3172 00dc 46756E63 		.ascii	"FunctionalState\000"
 3172      74696F6E 
 3172      616C5374 
 3172      61746500 
 3173              	.LASF173:
 3174 00ec 74687265 		.ascii	"threads_list_t\000"
 3174      6164735F 
 3174      6C697374 
 3174      5F7400
 3175              	.LASF203:
 3176 00fb 63685F73 		.ascii	"ch_system\000"
 3176      79737465 
 3176      6D00
 3177              	.LASF58:
 3178 0105 5F6C6266 		.ascii	"_lbfsize\000"
 3178      73697A65 
 3178      00
 3179              	.LASF56:
 3180 010e 5F666C61 		.ascii	"_flags\000"
 3180      677300
 3181              	.LASF219:
 3182 0115 4572726F 		.ascii	"ErrorStatus\000"
 3182      72537461 
 3182      74757300 
 3183              	.LASF6:
 3184 0121 5F5F696E 		.ascii	"__int32_t\000"
ARM GAS  /tmp/cc1cNmY3.s 			page 58


 3184      7433325F 
 3184      7400
 3185              	.LASF229:
 3186 012b 73655F73 		.ascii	"se_state\000"
 3186      74617465 
 3186      00
 3187              	.LASF95:
 3188 0134 5F657272 		.ascii	"_errno\000"
 3188      6E6F00
 3189              	.LASF254:
 3190 013b 63665F6F 		.ascii	"cf_off_name\000"
 3190      66665F6E 
 3190      616D6500 
 3191              	.LASF149:
 3192 0147 77746F62 		.ascii	"wtobjp\000"
 3192      6A7000
 3193              	.LASF205:
 3194 014e 76746C69 		.ascii	"vtlist\000"
 3194      737400
 3195              	.LASF136:
 3196 0155 5F737973 		.ascii	"_sys_nerr\000"
 3196      5F6E6572 
 3196      7200
 3197              	.LASF210:
 3198 015f 466C6167 		.ascii	"FlagStatus\000"
 3198      53746174 
 3198      757300
 3199              	.LASF178:
 3200 016a 63685F72 		.ascii	"ch_ready_list\000"
 3200      65616479 
 3200      5F6C6973 
 3200      7400
 3201              	.LASF207:
 3202 0178 69646C65 		.ascii	"idle_thread_wa\000"
 3202      5F746872 
 3202      6561645F 
 3202      776100
 3203              	.LASF70:
 3204 0187 5F6D6273 		.ascii	"_mbstate\000"
 3204      74617465 
 3204      00
 3205              	.LASF60:
 3206 0190 5F726561 		.ascii	"_read\000"
 3206      6400
 3207              	.LASF153:
 3208 0196 65776D61 		.ascii	"ewmask\000"
 3208      736B00
 3209              	.LASF86:
 3210 019d 5F6D6272 		.ascii	"_mbrlen_state\000"
 3210      6C656E5F 
 3210      73746174 
 3210      6500
 3211              	.LASF257:
 3212 01ab 63665F6F 		.ascii	"cf_off_flags\000"
 3212      66665F66 
 3212      6C616773 
 3212      00
ARM GAS  /tmp/cc1cNmY3.s 			page 59


 3213              	.LASF176:
 3214 01b8 63685F74 		.ascii	"ch_threads_queue\000"
 3214      68726561 
 3214      64735F71 
 3214      75657565 
 3214      00
 3215              	.LASF261:
 3216 01c9 63686465 		.ascii	"chdebug_t\000"
 3216      6275675F 
 3216      7400
 3217              	.LASF247:
 3218 01d3 63685F70 		.ascii	"ch_ptrsize\000"
 3218      74727369 
 3218      7A6500
 3219              	.LASF97:
 3220 01de 5F737464 		.ascii	"_stdout\000"
 3220      6F757400 
 3221              	.LASF19:
 3222 01e6 5F66706F 		.ascii	"_fpos_t\000"
 3222      735F7400 
 3223              	.LASF51:
 3224 01ee 5F666E73 		.ascii	"_fns\000"
 3224      00
 3225              	.LASF59:
 3226 01f3 5F636F6F 		.ascii	"_cookie\000"
 3226      6B696500 
 3227              	.LASF274:
 3228 01fb 43686962 		.ascii	"ChibiOS/os/various/cpp_wrappers/syscalls_cpp.cpp\000"
 3228      694F532F 
 3228      6F732F76 
 3228      6172696F 
 3228      75732F63 
 3229              	.LASF237:
 3230 022c 735F636E 		.ascii	"s_cnt\000"
 3230      7400
 3231              	.LASF197:
 3232 0232 63685F73 		.ascii	"ch_system_debug\000"
 3232      79737465 
 3232      6D5F6465 
 3232      62756700 
 3233              	.LASF33:
 3234 0242 5F426967 		.ascii	"_Bigint\000"
 3234      696E7400 
 3235              	.LASF41:
 3236 024a 5F5F746D 		.ascii	"__tm_wday\000"
 3236      5F776461 
 3236      7900
 3237              	.LASF105:
 3238 0254 5F726573 		.ascii	"_result\000"
 3238      756C7400 
 3239              	.LASF132:
 3240 025c 75696E74 		.ascii	"uint32_t\000"
 3240      33325F74 
 3240      00
 3241              	.LASF37:
 3242 0265 5F5F746D 		.ascii	"__tm_hour\000"
 3242      5F686F75 
ARM GAS  /tmp/cc1cNmY3.s 			page 60


 3242      7200
 3243              	.LASF248:
 3244 026f 63685F74 		.ascii	"ch_timesize\000"
 3244      696D6573 
 3244      697A6500 
 3245              	.LASF273:
 3246 027b 474E5520 		.ascii	"GNU C++14 6.3.1 20170215 (release) [ARM/embedded-6-"
 3246      432B2B31 
 3246      3420362E 
 3246      332E3120 
 3246      32303137 
 3247 02ae 6272616E 		.ascii	"branch revision 245512] -mcpu=cortex-m0 -mno-thumb-"
 3247      63682072 
 3247      65766973 
 3247      696F6E20 
 3247      32343535 
 3248 02e1 696E7465 		.ascii	"interwork -mthumb -ggdb -O0 -fomit-frame-pointer -f"
 3248      72776F72 
 3248      6B202D6D 
 3248      7468756D 
 3248      62202D67 
 3249 0314 616C6967 		.ascii	"align-functions=16 -ffunction-sections -fdata-secti"
 3249      6E2D6675 
 3249      6E637469 
 3249      6F6E733D 
 3249      3136202D 
 3250 0347 6F6E7320 		.ascii	"ons -fno-rtti -fno-exceptions\000"
 3250      2D666E6F 
 3250      2D727474 
 3250      69202D66 
 3250      6E6F2D65 
 3251              	.LASF142:
 3252 0365 6576656E 		.ascii	"eventmask_t\000"
 3252      746D6173 
 3252      6B5F7400 
 3253              	.LASF180:
 3254 0371 725F7072 		.ascii	"r_prio\000"
 3254      696F00
 3255              	.LASF23:
 3256 0378 5F5F636F 		.ascii	"__count\000"
 3256      756E7400 
 3257              	.LASF36:
 3258 0380 5F5F746D 		.ascii	"__tm_min\000"
 3258      5F6D696E 
 3258      00
 3259              	.LASF127:
 3260 0389 5F696D70 		.ascii	"_impure_ptr\000"
 3260      7572655F 
 3260      70747200 
 3261              	.LASF140:
 3262 0395 74707269 		.ascii	"tprio_t\000"
 3262      6F5F7400 
 3263              	.LASF92:
 3264 039d 5F6E6578 		.ascii	"_nextf\000"
 3264      746600
 3265              	.LASF259:
 3266 03a4 63665F6F 		.ascii	"cf_off_preempt\000"
ARM GAS  /tmp/cc1cNmY3.s 			page 61


 3266      66665F70 
 3266      7265656D 
 3266      707400
 3267              	.LASF88:
 3268 03b3 5F6D6273 		.ascii	"_mbsrtowcs_state\000"
 3268      72746F77 
 3268      63735F73 
 3268      74617465 
 3268      00
 3269              	.LASF106:
 3270 03c4 5F726573 		.ascii	"_result_k\000"
 3270      756C745F 
 3270      6B00
 3271              	.LASF12:
 3272 03ce 6C6F6E67 		.ascii	"long long unsigned int\000"
 3272      206C6F6E 
 3272      6720756E 
 3272      7369676E 
 3272      65642069 
 3273              	.LASF228:
 3274 03e5 73655F77 		.ascii	"se_wtobjp\000"
 3274      746F626A 
 3274      7000
 3275              	.LASF75:
 3276 03ef 5F617363 		.ascii	"_asctime_buf\000"
 3276      74696D65 
 3276      5F627566 
 3276      00
 3277              	.LASF121:
 3278 03fc 5F72616E 		.ascii	"_rand48\000"
 3278      64343800 
 3279              	.LASF55:
 3280 0404 5F5F7346 		.ascii	"__sFILE\000"
 3280      494C4500 
 3281              	.LASF32:
 3282 040c 5F776473 		.ascii	"_wds\000"
 3282      00
 3283              	.LASF272:
 3284 0411 72656173 		.ascii	"reason\000"
 3284      6F6E00
 3285              	.LASF187:
 3286 0418 63685F76 		.ascii	"ch_virtual_timer\000"
 3286      69727475 
 3286      616C5F74 
 3286      696D6572 
 3286      00
 3287              	.LASF4:
 3288 0429 5F5F7569 		.ascii	"__uint16_t\000"
 3288      6E743136 
 3288      5F7400
 3289              	.LASF143:
 3290 0434 636E745F 		.ascii	"cnt_t\000"
 3290      7400
 3291              	.LASF117:
 3292 043a 5F5F4649 		.ascii	"__FILE\000"
 3292      4C4500
 3293              	.LASF67:
ARM GAS  /tmp/cc1cNmY3.s 			page 62


 3294 0441 5F6F6666 		.ascii	"_offset\000"
 3294      73657400 
 3295              	.LASF199:
 3296 0449 6973725F 		.ascii	"isr_cnt\000"
 3296      636E7400 
 3297              	.LASF158:
 3298 0451 705F6E65 		.ascii	"p_newer\000"
 3298      77657200 
 3299              	.LASF194:
 3300 0459 63685F76 		.ascii	"ch_virtual_timers_list\000"
 3300      69727475 
 3300      616C5F74 
 3300      696D6572 
 3300      735F6C69 
 3301              	.LASF190:
 3302 0470 76745F64 		.ascii	"vt_delta\000"
 3302      656C7461 
 3302      00
 3303              	.LASF100:
 3304 0479 5F656D65 		.ascii	"_emergency\000"
 3304      7267656E 
 3304      637900
 3305              	.LASF226:
 3306 0484 73655F74 		.ascii	"se_time\000"
 3306      696D6500 
 3307              	.LASF145:
 3308 048c 74687265 		.ascii	"thread_t\000"
 3308      61645F74 
 3308      00
 3309              	.LASF14:
 3310 0495 73697A65 		.ascii	"size_t\000"
 3310      5F7400
 3311              	.LASF147:
 3312 049c 7264796D 		.ascii	"rdymsg\000"
 3312      736700
 3313              	.LASF185:
 3314 04a3 76746675 		.ascii	"vtfunc_t\000"
 3314      6E635F74 
 3314      00
 3315              	.LASF249:
 3316 04ac 63685F74 		.ascii	"ch_threadsize\000"
 3316      68726561 
 3316      6473697A 
 3316      6500
 3317              	.LASF35:
 3318 04ba 5F5F746D 		.ascii	"__tm_sec\000"
 3318      5F736563 
 3318      00
 3319              	.LASF42:
 3320 04c3 5F5F746D 		.ascii	"__tm_yday\000"
 3320      5F796461 
 3320      7900
 3321              	.LASF99:
 3322 04cd 5F696E63 		.ascii	"_inc\000"
 3322      00
 3323              	.LASF50:
 3324 04d2 5F696E64 		.ascii	"_ind\000"
ARM GAS  /tmp/cc1cNmY3.s 			page 63


 3324      00
 3325              	.LASF29:
 3326 04d7 5F6E6578 		.ascii	"_next\000"
 3326      7400
 3327              	.LASF238:
 3328 04dd 63685F6D 		.ascii	"ch_mutex\000"
 3328      75746578 
 3328      00
 3329              	.LASF11:
 3330 04e6 5F5F7569 		.ascii	"__uint64_t\000"
 3330      6E743634 
 3330      5F7400
 3331              	.LASF242:
 3332 04f1 39636864 		.ascii	"9chdebug_t\000"
 3332      65627567 
 3332      5F7400
 3333              	.LASF24:
 3334 04fc 5F5F7661 		.ascii	"__value\000"
 3334      6C756500 
 3335              	.LASF251:
 3336 0504 63665F6F 		.ascii	"cf_off_ctx\000"
 3336      66665F63 
 3336      747800
 3337              	.LASF107:
 3338 050f 5F703573 		.ascii	"_p5s\000"
 3338      00
 3339              	.LASF160:
 3340 0514 705F6E61 		.ascii	"p_name\000"
 3340      6D6500
 3341              	.LASF224:
 3342 051b 31305F6D 		.ascii	"10_mbstate_t\000"
 3342      62737461 
 3342      74655F74 
 3342      00
 3343              	.LASF90:
 3344 0528 5F776373 		.ascii	"_wcsrtombs_state\000"
 3344      72746F6D 
 3344      62735F73 
 3344      74617465 
 3344      00
 3345              	.LASF80:
 3346 0539 5F6D626C 		.ascii	"_mblen_state\000"
 3346      656E5F73 
 3346      74617465 
 3346      00
 3347              	.LASF213:
 3348 0546 44495341 		.ascii	"DISABLE\000"
 3348      424C4500 
 3349              	.LASF218:
 3350 054e 53554343 		.ascii	"SUCCESS\000"
 3350      45535300 
 3351              	.LASF116:
 3352 0556 63686172 		.ascii	"char\000"
 3352      00
 3353              	.LASF38:
 3354 055b 5F5F746D 		.ascii	"__tm_mday\000"
 3354      5F6D6461 
ARM GAS  /tmp/cc1cNmY3.s 			page 64


 3354      7900
 3355              	.LASF269:
 3356 0565 5F6B696C 		.ascii	"_kill\000"
 3356      6C00
 3357              	.LASF113:
 3358 056b 5F736967 		.ascii	"_sig_func\000"
 3358      5F66756E 
 3358      6300
 3359              	.LASF87:
 3360 0575 5F6D6272 		.ascii	"_mbrtowc_state\000"
 3360      746F7763 
 3360      5F737461 
 3360      746500
 3361              	.LASF275:
 3362 0584 2F686F6D 		.ascii	"/home/felix/Desktop/workspace/esho/UltrasonicCortex"
 3362      652F6665 
 3362      6C69782F 
 3362      4465736B 
 3362      746F702F 
 3363 05b7 2F00     		.ascii	"/\000"
 3364              	.LASF172:
 3365 05b9 74687265 		.ascii	"thread_reference_t\000"
 3365      61645F72 
 3365      65666572 
 3365      656E6365 
 3365      5F7400
 3366              	.LASF195:
 3367 05cc 76745F6C 		.ascii	"vt_lasttime\000"
 3367      61737474 
 3367      696D6500 
 3368              	.LASF138:
 3369 05d8 74737461 		.ascii	"tstate_t\000"
 3369      74655F74 
 3369      00
 3370              	.LASF227:
 3371 05e1 73655F74 		.ascii	"se_tp\000"
 3371      7000
 3372              	.LASF27:
 3373 05e7 5F666C6F 		.ascii	"_flock_t\000"
 3373      636B5F74 
 3373      00
 3374              	.LASF159:
 3375 05f0 705F6F6C 		.ascii	"p_older\000"
 3375      64657200 
 3376              	.LASF162:
 3377 05f8 705F7374 		.ascii	"p_state\000"
 3377      61746500 
 3378              	.LASF161:
 3379 0600 705F7374 		.ascii	"p_stklimit\000"
 3379      6B6C696D 
 3379      697400
 3380              	.LASF21:
 3381 060b 5F5F7763 		.ascii	"__wch\000"
 3381      6800
 3382              	.LASF120:
 3383 0611 5F696F62 		.ascii	"_iobs\000"
 3383      7300
ARM GAS  /tmp/cc1cNmY3.s 			page 65


 3384              	.LASF129:
 3385 0617 75696E74 		.ascii	"uint8_t\000"
 3385      385F7400 
 3386              	.LASF271:
 3387 061f 73746174 		.ascii	"status\000"
 3387      757300
 3388              	.LASF233:
 3389 0626 74625F62 		.ascii	"tb_buffer\000"
 3389      75666665 
 3389      7200
 3390              	.LASF63:
 3391 0630 5F636C6F 		.ascii	"_close\000"
 3391      736500
 3392              	.LASF171:
 3393 0637 705F6D70 		.ascii	"p_mpool\000"
 3393      6F6F6C00 
 3394              	.LASF169:
 3395 063f 705F6D74 		.ascii	"p_mtxlist\000"
 3395      786C6973 
 3395      7400
 3396              	.LASF212:
 3397 0649 31354675 		.ascii	"15FunctionalState\000"
 3397      6E637469 
 3397      6F6E616C 
 3397      53746174 
 3397      6500
 3398              	.LASF103:
 3399 065b 5F5F7364 		.ascii	"__sdidinit\000"
 3399      6964696E 
 3399      697400
 3400              	.LASF146:
 3401 0666 63685F74 		.ascii	"ch_thread\000"
 3401      68726561 
 3401      6400
 3402              	.LASF234:
 3403 0670 63685F74 		.ascii	"ch_trace_buffer_t\000"
 3403      72616365 
 3403      5F627566 
 3403      6665725F 
 3403      7400
 3404              	.LASF231:
 3405 0682 74625F73 		.ascii	"tb_size\000"
 3405      697A6500 
 3406              	.LASF196:
 3407 068a 73797374 		.ascii	"system_debug_t\000"
 3407      656D5F64 
 3407      65627567 
 3407      5F7400
 3408              	.LASF96:
 3409 0699 5F737464 		.ascii	"_stdin\000"
 3409      696E00
 3410              	.LASF18:
 3411 06a0 5F5F7069 		.ascii	"__pid_t\000"
 3411      645F7400 
 3412              	.LASF10:
 3413 06a8 6C6F6E67 		.ascii	"long long int\000"
 3413      206C6F6E 
ARM GAS  /tmp/cc1cNmY3.s 			page 66


 3413      6720696E 
 3413      7400
 3414              	.LASF53:
 3415 06b6 5F626173 		.ascii	"_base\000"
 3415      6500
 3416              	.LASF179:
 3417 06bc 725F7175 		.ascii	"r_queue\000"
 3417      65756500 
 3418              	.LASF108:
 3419 06c4 5F667265 		.ascii	"_freelist\000"
 3419      656C6973 
 3419      7400
 3420              	.LASF182:
 3421 06ce 725F6E65 		.ascii	"r_newer\000"
 3421      77657200 
 3422              	.LASF123:
 3423 06d6 5F6D756C 		.ascii	"_mult\000"
 3423      7400
 3424              	.LASF28:
 3425 06dc 5F5F554C 		.ascii	"__ULong\000"
 3425      6F6E6700 
 3426              	.LASF222:
 3427 06e4 636F6E74 		.ascii	"context\000"
 3427      65787400 
 3428              	.LASF89:
 3429 06ec 5F776372 		.ascii	"_wcrtomb_state\000"
 3429      746F6D62 
 3429      5F737461 
 3429      746500
 3430              	.LASF57:
 3431 06fb 5F66696C 		.ascii	"_file\000"
 3431      6500
 3432              	.LASF163:
 3433 0701 705F666C 		.ascii	"p_flags\000"
 3433      61677300 
 3434              	.LASF186:
 3435 0709 76697274 		.ascii	"virtual_timer_t\000"
 3435      75616C5F 
 3435      74696D65 
 3435      725F7400 
 3436              	.LASF141:
 3437 0719 6D73675F 		.ascii	"msg_t\000"
 3437      7400
 3438              	.LASF279:
 3439 071f 6F73616C 		.ascii	"osalSysHalt\000"
 3439      53797348 
 3439      616C7400 
 3440              	.LASF104:
 3441 072b 5F5F636C 		.ascii	"__cleanup\000"
 3441      65616E75 
 3441      7000
 3442              	.LASF258:
 3443 0735 63665F6F 		.ascii	"cf_off_refs\000"
 3443      66665F72 
 3443      65667300 
 3444              	.LASF244:
 3445 0741 63685F7A 		.ascii	"ch_zero\000"
ARM GAS  /tmp/cc1cNmY3.s 			page 67


 3445      65726F00 
 3446              	.LASF26:
 3447 0749 5F6D6273 		.ascii	"_mbstate_t\000"
 3447      74617465 
 3447      5F7400
 3448              	.LASF232:
 3449 0754 74625F70 		.ascii	"tb_ptr\000"
 3449      747200
 3450              	.LASF43:
 3451 075b 5F5F746D 		.ascii	"__tm_isdst\000"
 3451      5F697364 
 3451      737400
 3452              	.LASF265:
 3453 0766 5F5F6473 		.ascii	"__dso_handle\000"
 3453      6F5F6861 
 3453      6E646C65 
 3453      00
 3454              	.LASF183:
 3455 0773 725F6F6C 		.ascii	"r_older\000"
 3455      64657200 
 3456              	.LASF91:
 3457 077b 5F685F65 		.ascii	"_h_errno\000"
 3457      72726E6F 
 3457      00
 3458              	.LASF277:
 3459 0784 31376368 		.ascii	"17ch_trace_buffer_t\000"
 3459      5F747261 
 3459      63655F62 
 3459      75666665 
 3459      725F7400 
 3460              	.LASF198:
 3461 0798 70616E69 		.ascii	"panic_msg\000"
 3461      635F6D73 
 3461      6700
 3462              	.LASF167:
 3463 07a2 705F6D73 		.ascii	"p_msg\000"
 3463      6700
 3464              	.LASF137:
 3465 07a8 746D6F64 		.ascii	"tmode_t\000"
 3465      655F7400 
 3466              	.LASF245:
 3467 07b0 63685F73 		.ascii	"ch_size\000"
 3467      697A6500 
 3468              	.LASF206:
 3469 07b8 6D61696E 		.ascii	"mainthread\000"
 3469      74687265 
 3469      616400
 3470              	.LASF39:
 3471 07c3 5F5F746D 		.ascii	"__tm_mon\000"
 3471      5F6D6F6E 
 3471      00
 3472              	.LASF15:
 3473 07cc 6C6F6E67 		.ascii	"long double\000"
 3473      20646F75 
 3473      626C6500 
 3474              	.LASF16:
 3475 07d8 5F4C4F43 		.ascii	"_LOCK_T\000"
ARM GAS  /tmp/cc1cNmY3.s 			page 68


 3475      4B5F5400 
 3476              	.LASF130:
 3477 07e0 75696E74 		.ascii	"uint16_t\000"
 3477      31365F74 
 3477      00
 3478              	.LASF61:
 3479 07e9 5F777269 		.ascii	"_write\000"
 3479      746500
 3480              	.LASF77:
 3481 07f0 5F67616D 		.ascii	"_gamma_signgam\000"
 3481      6D615F73 
 3481      69676E67 
 3481      616D00
 3482              	.LASF200:
 3483 07ff 6C6F636B 		.ascii	"lock_cnt\000"
 3483      5F636E74 
 3483      00
 3484              	.LASF49:
 3485 0808 5F617465 		.ascii	"_atexit\000"
 3485      78697400 
 3486              	.LASF170:
 3487 0810 705F7265 		.ascii	"p_realprio\000"
 3487      616C7072 
 3487      696F00
 3488              	.LASF246:
 3489 081b 63685F76 		.ascii	"ch_version\000"
 3489      65727369 
 3489      6F6E00
 3490              	.LASF2:
 3491 0826 73686F72 		.ascii	"short int\000"
 3491      7420696E 
 3491      7400
 3492              	.LASF184:
 3493 0830 725F6375 		.ascii	"r_current\000"
 3493      7272656E 
 3493      7400
 3494              	.LASF168:
 3495 083a 705F6570 		.ascii	"p_epending\000"
 3495      656E6469 
 3495      6E6700
 3496              	.LASF239:
 3497 0845 6D5F7175 		.ascii	"m_queue\000"
 3497      65756500 
 3498              	.LASF7:
 3499 084d 6C6F6E67 		.ascii	"long int\000"
 3499      20696E74 
 3499      00
 3500              	.LASF223:
 3501 0856 706F7274 		.ascii	"port_intctx\000"
 3501      5F696E74 
 3501      63747800 
 3502              	.LASF115:
 3503 0862 5F5F7366 		.ascii	"__sf\000"
 3503      00
 3504              	.LASF31:
 3505 0867 5F736967 		.ascii	"_sign\000"
 3505      6E00
ARM GAS  /tmp/cc1cNmY3.s 			page 69


 3506              	.LASF255:
 3507 086d 63665F6F 		.ascii	"cf_off_stklimit\000"
 3507      66665F73 
 3507      746B6C69 
 3507      6D697400 
 3508              	.LASF270:
 3509 087d 5F657869 		.ascii	"_exit\000"
 3509      7400
 3510              	.LASF154:
 3511 0883 705F6E65 		.ascii	"p_next\000"
 3511      787400
 3512              	.LASF209:
 3513 088a 52455345 		.ascii	"RESET\000"
 3513      5400
 3514              	.LASF68:
 3515 0890 5F646174 		.ascii	"_data\000"
 3515      6100
 3516              	.LASF22:
 3517 0896 5F5F7763 		.ascii	"__wchb\000"
 3517      686200
 3518              	.LASF128:
 3519 089d 5F676C6F 		.ascii	"_global_impure_ptr\000"
 3519      62616C5F 
 3519      696D7075 
 3519      72655F70 
 3519      747200
 3520              	.LASF157:
 3521 08b0 705F6374 		.ascii	"p_ctx\000"
 3521      7800
 3522              	.LASF40:
 3523 08b6 5F5F746D 		.ascii	"__tm_year\000"
 3523      5F796561 
 3523      7200
 3524              	.LASF204:
 3525 08c0 726C6973 		.ascii	"rlist\000"
 3525      7400
 3526              	.LASF260:
 3527 08c6 63665F6F 		.ascii	"cf_off_time\000"
 3527      66665F74 
 3527      696D6500 
 3528              	.LASF134:
 3529 08d2 7069645F 		.ascii	"pid_t\000"
 3529      7400
 3530              	.LASF76:
 3531 08d8 5F6C6F63 		.ascii	"_localtime_buf\000"
 3531      616C7469 
 3531      6D655F62 
 3531      756600
 3532              	.LASF250:
 3533 08e7 63665F6F 		.ascii	"cf_off_prio\000"
 3533      66665F70 
 3533      72696F00 
 3534              	.LASF94:
 3535 08f3 5F756E75 		.ascii	"_unused\000"
 3535      73656400 
 3536              	.LASF3:
 3537 08fb 5F5F7569 		.ascii	"__uint8_t\000"
ARM GAS  /tmp/cc1cNmY3.s 			page 70


 3537      6E74385F 
 3537      7400
 3538              	.LASF111:
 3539 0905 5F6E6577 		.ascii	"_new\000"
 3539      00
 3540              	.LASF109:
 3541 090a 5F637674 		.ascii	"_cvtlen\000"
 3541      6C656E00 
 3542              	.LASF30:
 3543 0912 5F6D6178 		.ascii	"_maxwds\000"
 3543      77647300 
 3544              	.LASF83:
 3545 091a 5F6C3634 		.ascii	"_l64a_buf\000"
 3545      615F6275 
 3545      6600
 3546              	.LASF216:
 3547 0924 31314572 		.ascii	"11ErrorStatus\000"
 3547      726F7253 
 3547      74617475 
 3547      7300
 3548              	.LASF243:
 3549 0932 63685F69 		.ascii	"ch_identifier\000"
 3549      64656E74 
 3549      69666965 
 3549      7200
 3550              	.LASF66:
 3551 0940 5F626C6B 		.ascii	"_blksize\000"
 3551      73697A65 
 3551      00
 3552              	.LASF34:
 3553 0949 5F5F746D 		.ascii	"__tm\000"
 3553      00
 3554              	.LASF69:
 3555 094e 5F6C6F63 		.ascii	"_lock\000"
 3555      6B00
 3556              	.LASF155:
 3557 0954 705F7072 		.ascii	"p_prev\000"
 3557      657600
 3558              	.LASF214:
 3559 095b 454E4142 		.ascii	"ENABLE\000"
 3559      4C4500
 3560              	.LASF25:
 3561 0962 73697A65 		.ascii	"sizetype\000"
 3561      74797065 
 3561      00
 3562              	.LASF139:
 3563 096b 74726566 		.ascii	"trefs_t\000"
 3563      735F7400 
 3564              	.LASF9:
 3565 0973 6C6F6E67 		.ascii	"long unsigned int\000"
 3565      20756E73 
 3565      69676E65 
 3565      6420696E 
 3565      7400
 3566              	.LASF256:
 3567 0985 63665F6F 		.ascii	"cf_off_state\000"
 3567      66665F73 
ARM GAS  /tmp/cc1cNmY3.s 			page 71


 3567      74617465 
 3567      00
 3568              	.LASF177:
 3569 0992 72656164 		.ascii	"ready_list_t\000"
 3569      795F6C69 
 3569      73745F74 
 3569      00
 3570              	.LASF225:
 3571 099f 31346368 		.ascii	"14ch_swc_event_t\000"
 3571      5F737763 
 3571      5F657665 
 3571      6E745F74 
 3571      00
 3572              	.LASF119:
 3573 09b0 5F6E696F 		.ascii	"_niobs\000"
 3573      627300
 3574              	.LASF20:
 3575 09b7 77696E74 		.ascii	"wint_t\000"
 3575      5F7400
 3576              	.LASF131:
 3577 09be 696E7433 		.ascii	"int32_t\000"
 3577      325F7400 
 3578              	.LASF201:
 3579 09c6 74726163 		.ascii	"trace_buffer\000"
 3579      655F6275 
 3579      66666572 
 3579      00
 3580              	.LASF46:
 3581 09d3 5F64736F 		.ascii	"_dso_handle\000"
 3581      5F68616E 
 3581      646C6500 
 3582              	.LASF235:
 3583 09df 63685F73 		.ascii	"ch_semaphore\000"
 3583      656D6170 
 3583      686F7265 
 3583      00
 3584              	.LASF125:
 3585 09ec 5F5F6C6F 		.ascii	"__lock\000"
 3585      636B00
 3586              	.LASF230:
 3587 09f3 63685F73 		.ascii	"ch_swc_event_t\000"
 3587      77635F65 
 3587      76656E74 
 3587      5F7400
 3588              	.LASF263:
 3589 0a02 6D757465 		.ascii	"mutex_t\000"
 3589      785F7400 
 3590              	.LASF192:
 3591 0a0a 76745F70 		.ascii	"vt_par\000"
 3591      617200
 3592              	.LASF110:
 3593 0a11 5F637674 		.ascii	"_cvtbuf\000"
 3593      62756600 
 3594              	.LASF1:
 3595 0a19 756E7369 		.ascii	"unsigned char\000"
 3595      676E6564 
 3595      20636861 
ARM GAS  /tmp/cc1cNmY3.s 			page 72


 3595      7200
 3596              	.LASF8:
 3597 0a27 5F5F7569 		.ascii	"__uint32_t\000"
 3597      6E743332 
 3597      5F7400
 3598              	.LASF268:
 3599 0a32 5F6F7065 		.ascii	"_open_r\000"
 3599      6E5F7200 
 3600              	.LASF193:
 3601 0a3a 76697274 		.ascii	"virtual_timers_list_t\000"
 3601      75616C5F 
 3601      74696D65 
 3601      72735F6C 
 3601      6973745F 
 3602              	.LASF164:
 3603 0a50 705F7265 		.ascii	"p_refs\000"
 3603      667300
 3604              	.LASF85:
 3605 0a57 5F676574 		.ascii	"_getdate_err\000"
 3605      64617465 
 3605      5F657272 
 3605      00
 3606              	.LASF278:
 3607 0a64 5F676574 		.ascii	"_getpid\000"
 3607      70696400 
 3608              	.LASF276:
 3609 0a6c 6465636C 		.ascii	"decltype(nullptr)\000"
 3609      74797065 
 3609      286E756C 
 3609      6C707472 
 3609      2900
 3610              	.LASF124:
 3611 0a7e 5F616464 		.ascii	"_add\000"
 3611      00
 3612              	.LASF52:
 3613 0a83 5F5F7362 		.ascii	"__sbuf\000"
 3613      756600
 3614              	.LASF188:
 3615 0a8a 76745F6E 		.ascii	"vt_next\000"
 3615      65787400 
 3616              	.LASF118:
 3617 0a92 5F676C75 		.ascii	"_glue\000"
 3617      6500
 3618              	.LASF133:
 3619 0a98 75696E74 		.ascii	"uint64_t\000"
 3619      36345F74 
 3619      00
 3620              	.LASF202:
 3621 0aa1 63685F73 		.ascii	"ch_system_t\000"
 3621      79737465 
 3621      6D5F7400 
 3622              	.LASF114:
 3623 0aad 5F5F7367 		.ascii	"__sglue\000"
 3623      6C756500 
 3624              	.LASF150:
 3625 0ab5 77747472 		.ascii	"wttrp\000"
 3625      7000
ARM GAS  /tmp/cc1cNmY3.s 			page 73


 3626              	.LASF74:
 3627 0abb 5F737472 		.ascii	"_strtok_last\000"
 3627      746F6B5F 
 3627      6C617374 
 3627      00
 3628              	.LASF81:
 3629 0ac8 5F6D6274 		.ascii	"_mbtowc_state\000"
 3629      6F77635F 
 3629      73746174 
 3629      6500
 3630              	.LASF102:
 3631 0ad6 5F6C6F63 		.ascii	"_locale\000"
 3631      616C6500 
 3632              	.LASF241:
 3633 0ade 6D5F6E65 		.ascii	"m_next\000"
 3633      787400
 3634              	.LASF45:
 3635 0ae5 5F666E61 		.ascii	"_fnargs\000"
 3635      72677300 
 3636              	.LASF0:
 3637 0aed 7369676E 		.ascii	"signed char\000"
 3637      65642063 
 3637      68617200 
 3638              	.LASF252:
 3639 0af9 63665F6F 		.ascii	"cf_off_newer\000"
 3639      66665F6E 
 3639      65776572 
 3639      00
 3640              	.LASF72:
 3641 0b06 5F726565 		.ascii	"_reent\000"
 3641      6E7400
 3642              	.LASF5:
 3643 0b0d 73686F72 		.ascii	"short unsigned int\000"
 3643      7420756E 
 3643      7369676E 
 3643      65642069 
 3643      6E7400
 3644              	.LASF181:
 3645 0b20 725F6374 		.ascii	"r_ctx\000"
 3645      7800
 3646              	.LASF221:
 3647 0b26 73746B61 		.ascii	"stkalign_t\000"
 3647      6C69676E 
 3647      5F7400
 3648              	.LASF135:
 3649 0b31 5F737973 		.ascii	"_sys_errlist\000"
 3649      5F657272 
 3649      6C697374 
 3649      00
 3650              	.LASF262:
 3651 0b3e 63685F64 		.ascii	"ch_debug\000"
 3651      65627567 
 3651      00
 3652              	.LASF47:
 3653 0b47 5F666E74 		.ascii	"_fntypes\000"
 3653      79706573 
 3653      00
ARM GAS  /tmp/cc1cNmY3.s 			page 74


 3654              	.LASF191:
 3655 0b50 76745F66 		.ascii	"vt_func\000"
 3655      756E6300 
 3656              	.LASF54:
 3657 0b58 5F73697A 		.ascii	"_size\000"
 3657      6500
 3658              	.LASF189:
 3659 0b5e 76745F70 		.ascii	"vt_prev\000"
 3659      72657600 
 3660              	.LASF17:
 3661 0b66 5F6F6666 		.ascii	"_off_t\000"
 3661      5F7400
 3662              	.LASF65:
 3663 0b6d 5F6E6275 		.ascii	"_nbuf\000"
 3663      6600
 3664              	.LASF73:
 3665 0b73 5F756E75 		.ascii	"_unused_rand\000"
 3665      7365645F 
 3665      72616E64 
 3665      00
 3666              	.LASF264:
 3667 0b80 626F6F6C 		.ascii	"bool\000"
 3667      00
 3668              	.LASF101:
 3669 0b85 5F756E73 		.ascii	"_unspecified_locale_info\000"
 3669      70656369 
 3669      66696564 
 3669      5F6C6F63 
 3669      616C655F 
 3670              	.LASF71:
 3671 0b9e 5F666C61 		.ascii	"_flags2\000"
 3671      67733200 
 3672              	.LASF48:
 3673 0ba6 5F69735F 		.ascii	"_is_cxa\000"
 3673      63786100 
 3674              	.LASF211:
 3675 0bae 3130466C 		.ascii	"10FlagStatus\000"
 3675      61675374 
 3675      61747573 
 3675      00
 3676              	.LASF151:
 3677 0bbb 77747365 		.ascii	"wtsemp\000"
 3677      6D7000
 3678              	.LASF122:
 3679 0bc2 5F736565 		.ascii	"_seed\000"
 3679      6400
 3680              	.LASF78:
 3681 0bc8 5F72616E 		.ascii	"_rand_next\000"
 3681      645F6E65 
 3681      787400
 3682              	.LASF112:
 3683 0bd3 5F617465 		.ascii	"_atexit0\000"
 3683      78697430 
 3683      00
 3684              	.LASF126:
 3685 0bdc 5F5F6C6F 		.ascii	"__locale_t\000"
 3685      63616C65 
ARM GAS  /tmp/cc1cNmY3.s 			page 75


 3685      5F7400
 3686              	.LASF148:
 3687 0be7 65786974 		.ascii	"exitcode\000"
 3687      636F6465 
 3687      00
 3688              	.LASF62:
 3689 0bf0 5F736565 		.ascii	"_seek\000"
 3689      6B00
 3690              	.LASF98:
 3691 0bf6 5F737464 		.ascii	"_stderr\000"
 3691      65727200 
 3692              	.LASF93:
 3693 0bfe 5F6E6D61 		.ascii	"_nmalloc\000"
 3693      6C6C6F63 
 3693      00
 3694              	.LASF64:
 3695 0c07 5F756275 		.ascii	"_ubuf\000"
 3695      6600
 3696              		.ident	"GCC: (GNU Tools for ARM Embedded Processors 6-2017-q1-update) 6.3.1 20170215 (release) [AR
ARM GAS  /tmp/cc1cNmY3.s 			page 76


DEFINED SYMBOLS
                            *ABS*:0000000000000000 syscalls_cpp.cpp
     /tmp/cc1cNmY3.s:16     .text._ZL11osalSysHaltPKc:0000000000000000 $t
     /tmp/cc1cNmY3.s:23     .text._ZL11osalSysHaltPKc:0000000000000000 _ZL11osalSysHaltPKc
     /tmp/cc1cNmY3.s:53     .bss.__dso_handle:0000000000000000 __dso_handle
     /tmp/cc1cNmY3.s:50     .bss.__dso_handle:0000000000000000 $d
     /tmp/cc1cNmY3.s:56     .rodata:0000000000000000 $d
     /tmp/cc1cNmY3.s:60     .text._exit:0000000000000000 $t
     /tmp/cc1cNmY3.s:68     .text._exit:0000000000000000 _exit
     /tmp/cc1cNmY3.s:91     .text._exit:0000000000000010 $d
     /tmp/cc1cNmY3.s:96     .text._getpid:0000000000000000 $t
     /tmp/cc1cNmY3.s:104    .text._getpid:0000000000000000 _getpid
     /tmp/cc1cNmY3.s:121    .text._kill:0000000000000000 $t
     /tmp/cc1cNmY3.s:129    .text._kill:0000000000000000 _kill
     /tmp/cc1cNmY3.s:155    .text._kill:0000000000000018 $d
     /tmp/cc1cNmY3.s:160    .text._open_r:0000000000000000 $t
     /tmp/cc1cNmY3.s:168    .text._open_r:0000000000000000 _open_r
     /tmp/cc1cNmY3.s:188    .text.__cxa_pure_virtual:0000000000000000 $t
     /tmp/cc1cNmY3.s:196    .text.__cxa_pure_virtual:0000000000000000 __cxa_pure_virtual
     /tmp/cc1cNmY3.s:217    .text.__cxa_pure_virtual:0000000000000010 $d
                     .debug_frame:0000000000000010 $d

UNDEFINED SYMBOLS
chSysHalt
errno
