ARM GAS  /tmp/cc1cNmY3.s 			page 1


   1              		.cpu cortex-m0
   2              		.eabi_attribute 20, 1
   3              		.eabi_attribute 21, 1
   4              		.eabi_attribute 23, 3
   5              		.eabi_attribute 24, 1
   6              		.eabi_attribute 25, 1
   7              		.eabi_attribute 26, 1
   8              		.eabi_attribute 30, 6
   9              		.eabi_attribute 34, 0
  10              		.eabi_attribute 18, 4
  11              		.file	"syscalls_cpp.cpp"
  12              		.text
  13              	.Ltext0:
  14              		.cfi_sections	.debug_frame
  15              		.section	.text._ZL11osalSysHaltPKc,"ax",%progbits
  16              		.align	1
  17              		.p2align 4,,15
  18              		.syntax unified
  19              		.code	16
  20              		.thumb_func
  21              		.fpu softvfp
  22              		.type	_ZL11osalSysHaltPKc, %function
  23              	_ZL11osalSysHaltPKc:
  24              	.LFB154:
  25              		.file 1 "ChibiOS/os/hal/osal/rt/osal.h"
  26              		.loc 1 460 0
  27              		.cfi_startproc
  28              		@ args = 0, pretend = 0, frame = 8
  29              		@ frame_needed = 0, uses_anonymous_args = 0
  30 0000 00B5     		push	{lr}
  31              		.cfi_def_cfa_offset 4
  32              		.cfi_offset 14, -4
  33 0002 83B0     		sub	sp, sp, #12
  34              		.cfi_def_cfa_offset 16
  35 0004 0190     		str	r0, [sp, #4]
  36              		.loc 1 462 0
  37 0006 019B     		ldr	r3, [sp, #4]
  38 0008 1800     		movs	r0, r3
  39 000a FFF7FEFF 		bl	chSysHalt
  40              		.loc 1 463 0
  41 000e C046     		nop
  42 0010 03B0     		add	sp, sp, #12
  43              		@ sp needed
  44 0012 00BD     		pop	{pc}
  45              		.cfi_endproc
  46              	.LFE154:
  47              		.size	_ZL11osalSysHaltPKc, .-_ZL11osalSysHaltPKc
  48              		.global	__dso_handle
  49              		.section	.bss.__dso_handle,"aw",%nobits
  50              		.align	2
  51              		.type	__dso_handle, %object
  52              		.size	__dso_handle, 4
  53              	__dso_handle:
  54 0000 00000000 		.space	4
  55              		.section	.rodata
  56              		.align	2
  57              	.LC0:
ARM GAS  /tmp/cc1cNmY3.s 			page 2


  58 0000 556E7265 		.ascii	"Unrealized\000"
  58      616C697A 
  58      656400
  59              		.section	.text._exit,"ax",%progbits
  60              		.align	1
  61              		.p2align 4,,15
  62              		.global	_exit
  63              		.syntax unified
  64              		.code	16
  65              		.thumb_func
  66              		.fpu softvfp
  67              		.type	_exit, %function
  68              	_exit:
  69              	.LFB183:
  70              		.file 2 "ChibiOS/os/various/cpp_wrappers/syscalls_cpp.cpp"
  71              		.loc 2 12 0
  72              		.cfi_startproc
  73              		@ args = 0, pretend = 0, frame = 8
  74              		@ frame_needed = 0, uses_anonymous_args = 0
  75 0000 00B5     		push	{lr}
  76              		.cfi_def_cfa_offset 4
  77              		.cfi_offset 14, -4
  78 0002 83B0     		sub	sp, sp, #12
  79              		.cfi_def_cfa_offset 16
  80 0004 0190     		str	r0, [sp, #4]
  81              		.loc 2 14 0
  82 0006 024B     		ldr	r3, .L4
  83 0008 1800     		movs	r0, r3
  84 000a FFF7FEFF 		bl	_ZL11osalSysHaltPKc
  85              	.L3:
  86              		.loc 2 15 0 discriminator 1
  87 000e FEE7     		b	.L3
  88              	.L5:
  89              		.align	2
  90              	.L4:
  91 0010 00000000 		.word	.LC0
  92              		.cfi_endproc
  93              	.LFE183:
  94              		.size	_exit, .-_exit
  95              		.section	.text._getpid,"ax",%progbits
  96              		.align	1
  97              		.p2align 4,,15
  98              		.global	_getpid
  99              		.syntax unified
 100              		.code	16
 101              		.thumb_func
 102              		.fpu softvfp
 103              		.type	_getpid, %function
 104              	_getpid:
 105              	.LFB184:
 106              		.loc 2 18 0
 107              		.cfi_startproc
 108              		@ args = 0, pretend = 0, frame = 0
 109              		@ frame_needed = 0, uses_anonymous_args = 0
 110              		@ link register save eliminated.
 111              		.loc 2 19 0
 112 0000 0123     		movs	r3, #1
ARM GAS  /tmp/cc1cNmY3.s 			page 3


 113              		.loc 2 20 0
 114 0002 1800     		movs	r0, r3
 115              		@ sp needed
 116 0004 7047     		bx	lr
 117              		.cfi_endproc
 118              	.LFE184:
 119              		.size	_getpid, .-_getpid
 120 0006 C046     		.section	.text._kill,"ax",%progbits
 121              		.align	1
 122              		.p2align 4,,15
 123              		.global	_kill
 124              		.syntax unified
 125              		.code	16
 126              		.thumb_func
 127              		.fpu softvfp
 128              		.type	_kill, %function
 129              	_kill:
 130              	.LFB185:
 131              		.loc 2 24 0
 132              		.cfi_startproc
 133              		@ args = 0, pretend = 0, frame = 8
 134              		@ frame_needed = 0, uses_anonymous_args = 0
 135              		@ link register save eliminated.
 136 0000 82B0     		sub	sp, sp, #8
 137              		.cfi_def_cfa_offset 8
 138 0002 0190     		str	r0, [sp, #4]
 139 0004 0091     		str	r1, [sp]
 140              		.loc 2 27 0
 141 0006 044B     		ldr	r3, .L10
 142 0008 1622     		movs	r2, #22
 143 000a 1A60     		str	r2, [r3]
 144              		.loc 2 28 0
 145 000c 0123     		movs	r3, #1
 146 000e 5B42     		rsbs	r3, r3, #0
 147              		.loc 2 29 0
 148 0010 1800     		movs	r0, r3
 149 0012 02B0     		add	sp, sp, #8
 150              		@ sp needed
 151 0014 7047     		bx	lr
 152              	.L11:
 153 0016 C046     		.align	2
 154              	.L10:
 155 0018 00000000 		.word	errno
 156              		.cfi_endproc
 157              	.LFE185:
 158              		.size	_kill, .-_kill
 159              		.section	.text._open_r,"ax",%progbits
 160              		.align	1
 161              		.p2align 4,,15
 162              		.global	_open_r
 163              		.syntax unified
 164              		.code	16
 165              		.thumb_func
 166              		.fpu softvfp
 167              		.type	_open_r, %function
 168              	_open_r:
 169              	.LFB186:
ARM GAS  /tmp/cc1cNmY3.s 			page 4


 170              		.loc 2 31 0
 171              		.cfi_startproc
 172              		@ args = 0, pretend = 0, frame = 0
 173              		@ frame_needed = 0, uses_anonymous_args = 0
 174              		@ link register save eliminated.
 175              		.loc 2 32 0
 176 0000 C046     		nop
 177              		.loc 2 33 0
 178              		@ sp needed
 179 0002 7047     		bx	lr
 180              		.cfi_endproc
 181              	.LFE186:
 182              		.size	_open_r, .-_open_r
 183              		.section	.rodata
 184 000b 00       		.align	2
 185              	.LC3:
 186 000c 50757265 		.ascii	"Pure virtual function call.\000"
 186      20766972 
 186      7475616C 
 186      2066756E 
 186      6374696F 
 187              		.section	.text.__cxa_pure_virtual,"ax",%progbits
 188              		.align	1
 189              		.p2align 4,,15
 190              		.global	__cxa_pure_virtual
 191              		.syntax unified
 192              		.code	16
 193              		.thumb_func
 194              		.fpu softvfp
 195              		.type	__cxa_pure_virtual, %function
 196              	__cxa_pure_virtual:
 197              	.LFB187:
 198              		.loc 2 35 0
 199              		.cfi_startproc
 200              		@ args = 0, pretend = 0, frame = 0
 201              		@ frame_needed = 0, uses_anonymous_args = 0
 202 0000 10B5     		push	{r4, lr}
 203              		.cfi_def_cfa_offset 8
 204              		.cfi_offset 4, -8
 205              		.cfi_offset 14, -4
 206              		.loc 2 36 0
 207 0002 034B     		ldr	r3, .L15
 208 0004 1800     		movs	r0, r3
 209 0006 FFF7FEFF 		bl	_ZL11osalSysHaltPKc
 210              		.loc 2 37 0
 211 000a C046     		nop
 212              		@ sp needed
 213 000c 10BD     		pop	{r4, pc}
 214              	.L16:
 215 000e C046     		.align	2
 216              	.L15:
 217 0010 0C000000 		.word	.LC3
 218              		.cfi_endproc
 219              	.LFE187:
 220              		.size	__cxa_pure_virtual, .-__cxa_pure_virtual
 221              		.text
 222              	.Letext0:
ARM GAS  /tmp/cc1cNmY3.s 			page 5


 223              		.file 3 "/home/felix/opt/gcc-arm-none-eabi-6-2017-q1-update/arm-none-eabi/include/machine/_default
 224              		.file 4 "/home/felix/opt/gcc-arm-none-eabi-6-2017-q1-update/lib/gcc/arm-none-eabi/6.3.1/include/st
 225              		.file 5 "/home/felix/opt/gcc-arm-none-eabi-6-2017-q1-update/arm-none-eabi/include/sys/lock.h"
 226              		.file 6 "/home/felix/opt/gcc-arm-none-eabi-6-2017-q1-update/arm-none-eabi/include/sys/_types.h"
 227              		.file 7 "/home/felix/opt/gcc-arm-none-eabi-6-2017-q1-update/arm-none-eabi/include/sys/reent.h"
 228              		.file 8 "/home/felix/opt/gcc-arm-none-eabi-6-2017-q1-update/arm-none-eabi/include/sys/_stdint.h"
 229              		.file 9 "/home/felix/opt/gcc-arm-none-eabi-6-2017-q1-update/arm-none-eabi/include/sys/types.h"
 230              		.file 10 "/home/felix/opt/gcc-arm-none-eabi-6-2017-q1-update/arm-none-eabi/include/sys/errno.h"
 231              		.file 11 "ChibiOS/os/rt/ports/ARMCMx/compilers/GCC/chtypes.h"
 232              		.file 12 "ChibiOS/os/rt/include/chsystypes.h"
 233              		.file 13 "ChibiOS/os/rt/include/chschd.h"
 234              		.file 14 "ChibiOS/os/ext/CMSIS/ST/STM32F0xx/system_stm32f0xx.h"
 235              		.file 15 "ChibiOS/os/ext/CMSIS/ST/STM32F0xx/stm32f0xx.h"
 236              		.file 16 "ChibiOS/os/rt/ports/ARMCMx/chcore.h"
 237              		.file 17 "ChibiOS/os/rt/ports/ARMCMx/chcore_v6m.h"
 238              		.file 18 "ChibiOS/os/rt/include/chdebug.h"
 239              		.file 19 "ChibiOS/os/rt/include/chsem.h"
 240              		.file 20 "ChibiOS/os/rt/include/chmtx.h"
 241              		.file 21 "ChibiOS/os/rt/include/chregistry.h"
 242              		.file 22 "ChibiOS/os/various/cpp_wrappers/syscalls_cpp.hpp"