ARM GAS  /tmp/ccvIBBGd.s 			page 1


   1              		.cpu cortex-m0
   2              		.eabi_attribute 20, 1
   3              		.eabi_attribute 21, 1
   4              		.eabi_attribute 23, 3
   5              		.eabi_attribute 24, 1
   6              		.eabi_attribute 25, 1
   7              		.eabi_attribute 26, 1
   8              		.eabi_attribute 30, 6
   9              		.eabi_attribute 34, 0
  10              		.eabi_attribute 18, 4
  11              		.file	"testdyn.c"
  12              		.text
  13              	.Ltext0:
  14              		.cfi_sections	.debug_frame
  15              		.section	.text.chThdGetSelfX,"ax",%progbits
  16              		.align	1
  17              		.p2align 4,,15
  18              		.syntax unified
  19              		.code	16
  20              		.thumb_func
  21              		.fpu softvfp
  22              		.type	chThdGetSelfX, %function
  23              	chThdGetSelfX:
  24              	.LFB99:
  25              		.file 1 "ChibiOS/os/rt/include/chthreads.h"
  26              		.loc 1 174 0
  27              		.cfi_startproc
  28              		@ args = 0, pretend = 0, frame = 0
  29              		@ frame_needed = 0, uses_anonymous_args = 0
  30              		@ link register save eliminated.
  31              		.loc 1 176 0
  32 0000 014B     		ldr	r3, .L3
  33 0002 9B69     		ldr	r3, [r3, #24]
  34              		.loc 1 177 0
  35 0004 1800     		movs	r0, r3
  36              		@ sp needed
  37 0006 7047     		bx	lr
  38              	.L4:
  39              		.align	2
  40              	.L3:
  41 0008 00000000 		.word	ch
  42              		.cfi_endproc
  43              	.LFE99:
  44              		.size	chThdGetSelfX, .-chThdGetSelfX
  45              		.section	.text.chThdGetPriorityX,"ax",%progbits
  46              		.align	1
  47              		.p2align 4,,15
  48              		.syntax unified
  49              		.code	16
  50              		.thumb_func
  51              		.fpu softvfp
  52              		.type	chThdGetPriorityX, %function
  53              	chThdGetPriorityX:
  54              	.LFB100:
  55              		.loc 1 187 0
  56              		.cfi_startproc
  57              		@ args = 0, pretend = 0, frame = 0
ARM GAS  /tmp/ccvIBBGd.s 			page 2


  58              		@ frame_needed = 0, uses_anonymous_args = 0
  59 0000 10B5     		push	{r4, lr}
  60              		.cfi_def_cfa_offset 8
  61              		.cfi_offset 4, -8
  62              		.cfi_offset 14, -4
  63              		.loc 1 189 0
  64 0002 FFF7FEFF 		bl	chThdGetSelfX
  65 0006 0300     		movs	r3, r0
  66 0008 9B68     		ldr	r3, [r3, #8]
  67              		.loc 1 190 0
  68 000a 1800     		movs	r0, r3
  69              		@ sp needed
  70 000c 10BD     		pop	{r4, pc}
  71              		.cfi_endproc
  72              	.LFE100:
  73              		.size	chThdGetPriorityX, .-chThdGetPriorityX
  74 000e C046     		.section	.bss.heap1,"aw",%nobits
  75              		.align	3
  76              		.type	heap1, %object
  77              		.size	heap1, 32
  78              	heap1:
  79 0000 00000000 		.space	32
  79      00000000 
  79      00000000 
  79      00000000 
  79      00000000 
  80              		.section	.bss.mp1,"aw",%nobits
  81              		.align	2
  82              		.type	mp1, %object
  83              		.size	mp1, 12
  84              	mp1:
  85 0000 00000000 		.space	12
  85      00000000 
  85      00000000 
  86              		.section	.text.thread,"ax",%progbits
  87              		.align	1
  88              		.p2align 4,,15
  89              		.syntax unified
  90              		.code	16
  91              		.thumb_func
  92              		.fpu softvfp
  93              		.type	thread, %function
  94              	thread:
  95              	.LFB152:
  96              		.file 2 "ChibiOS/test/rt/testdyn.c"
  97              		.loc 2 71 0
  98              		.cfi_startproc
  99              		@ args = 0, pretend = 0, frame = 8
 100              		@ frame_needed = 0, uses_anonymous_args = 0
 101 0000 00B5     		push	{lr}
 102              		.cfi_def_cfa_offset 4
 103              		.cfi_offset 14, -4
 104 0002 83B0     		sub	sp, sp, #12
 105              		.cfi_def_cfa_offset 16
 106 0004 0190     		str	r0, [sp, #4]
 107              		.loc 2 73 0
 108 0006 019B     		ldr	r3, [sp, #4]
ARM GAS  /tmp/ccvIBBGd.s 			page 3


 109 0008 1B78     		ldrb	r3, [r3]
 110 000a 1800     		movs	r0, r3
 111 000c FFF7FEFF 		bl	test_emit_token
 112              		.loc 2 74 0
 113 0010 C046     		nop
 114 0012 03B0     		add	sp, sp, #12
 115              		@ sp needed
 116 0014 00BD     		pop	{pc}
 117              		.cfi_endproc
 118              	.LFE152:
 119              		.size	thread, .-thread
 120 0016 C046     		.section	.text.dyn1_setup,"ax",%progbits
 121              		.align	1
 122              		.p2align 4,,15
 123              		.syntax unified
 124              		.code	16
 125              		.thumb_func
 126              		.fpu softvfp
 127              		.type	dyn1_setup, %function
 128              	dyn1_setup:
 129              	.LFB153:
 130              		.loc 2 77 0
 131              		.cfi_startproc
 132              		@ args = 0, pretend = 0, frame = 0
 133              		@ frame_needed = 0, uses_anonymous_args = 0
 134 0000 10B5     		push	{r4, lr}
 135              		.cfi_def_cfa_offset 8
 136              		.cfi_offset 4, -8
 137              		.cfi_offset 14, -4
 138              		.loc 2 79 0
 139 0002 D223     		movs	r3, #210
 140 0004 DA00     		lsls	r2, r3, #3
 141 0006 0349     		ldr	r1, .L9
 142 0008 034B     		ldr	r3, .L9+4
 143 000a 1800     		movs	r0, r3
 144 000c FFF7FEFF 		bl	chHeapObjectInit
 145              		.loc 2 80 0
 146 0010 C046     		nop
 147              		@ sp needed
 148 0012 10BD     		pop	{r4, pc}
 149              	.L10:
 150              		.align	2
 151              	.L9:
 152 0014 00000000 		.word	test
 153 0018 00000000 		.word	heap1
 154              		.cfi_endproc
 155              	.LFE153:
 156              		.size	dyn1_setup, .-dyn1_setup
 157              		.section	.rodata
 158              		.align	2
 159              	.LC5:
 160 0000 4100     		.ascii	"A\000"
 161 0002 0000     		.align	2
 162              	.LC8:
 163 0004 4200     		.ascii	"B\000"
 164 0006 0000     		.align	2
 165              	.LC10:
ARM GAS  /tmp/ccvIBBGd.s 			page 4


 166 0008 4300     		.ascii	"C\000"
 167 000a 0000     		.align	2
 168              	.LC12:
 169 000c 414200   		.ascii	"AB\000"
 170              		.section	.text.dyn1_execute,"ax",%progbits
 171              		.align	1
 172              		.p2align 4,,15
 173              		.syntax unified
 174              		.code	16
 175              		.thumb_func
 176              		.fpu softvfp
 177              		.type	dyn1_execute, %function
 178              	dyn1_execute:
 179              	.LFB154:
 180              		.loc 2 82 0
 181              		.cfi_startproc
 182              		@ args = 0, pretend = 0, frame = 16
 183              		@ frame_needed = 0, uses_anonymous_args = 0
 184 0000 10B5     		push	{r4, lr}
 185              		.cfi_def_cfa_offset 8
 186              		.cfi_offset 4, -8
 187              		.cfi_offset 14, -4
 188 0002 86B0     		sub	sp, sp, #24
 189              		.cfi_def_cfa_offset 32
 190              		.loc 2 85 0
 191 0004 FFF7FEFF 		bl	chThdGetPriorityX
 192 0008 0300     		movs	r3, r0
 193 000a 0593     		str	r3, [sp, #20]
 194              		.loc 2 87 0
 195 000c 02AA     		add	r2, sp, #8
 196 000e 474B     		ldr	r3, .L23
 197 0010 1100     		movs	r1, r2
 198 0012 1800     		movs	r0, r3
 199 0014 FFF7FEFF 		bl	chHeapStatus
 200              		.loc 2 89 0
 201 0018 059B     		ldr	r3, [sp, #20]
 202 001a 5A1E     		subs	r2, r3, #1
 203 001c 444C     		ldr	r4, .L23+4
 204 001e A823     		movs	r3, #168
 205 0020 5900     		lsls	r1, r3, #1
 206 0022 4248     		ldr	r0, .L23
 207 0024 434B     		ldr	r3, .L23+8
 208 0026 0093     		str	r3, [sp]
 209 0028 2300     		movs	r3, r4
 210 002a FFF7FEFF 		bl	chThdCreateFromHeap
 211 002e 0200     		movs	r2, r0
 212 0030 414B     		ldr	r3, .L23+12
 213 0032 1A60     		str	r2, [r3]
 214              		.loc 2 92 0
 215 0034 059B     		ldr	r3, [sp, #20]
 216 0036 9A1E     		subs	r2, r3, #2
 217 0038 3D4C     		ldr	r4, .L23+4
 218 003a A823     		movs	r3, #168
 219 003c 5900     		lsls	r1, r3, #1
 220 003e 3B48     		ldr	r0, .L23
 221 0040 3E4B     		ldr	r3, .L23+16
 222 0042 0093     		str	r3, [sp]
ARM GAS  /tmp/ccvIBBGd.s 			page 5


 223 0044 2300     		movs	r3, r4
 224 0046 FFF7FEFF 		bl	chThdCreateFromHeap
 225 004a 0200     		movs	r2, r0
 226 004c 3A4B     		ldr	r3, .L23+12
 227 004e 5A60     		str	r2, [r3, #4]
 228              		.loc 2 96 0
 229 0050 03AA     		add	r2, sp, #12
 230 0052 364B     		ldr	r3, .L23
 231 0054 1100     		movs	r1, r2
 232 0056 1800     		movs	r0, r3
 233 0058 FFF7FEFF 		bl	chHeapStatus
 234              		.loc 2 97 0
 235 005c 039A     		ldr	r2, [sp, #12]
 236 005e 334B     		ldr	r3, .L23
 237 0060 1100     		movs	r1, r2
 238 0062 1800     		movs	r0, r3
 239 0064 FFF7FEFF 		bl	chHeapAlloc
 240 0068 0300     		movs	r3, r0
 241 006a 0493     		str	r3, [sp, #16]
 242              		.loc 2 98 0
 243 006c 059B     		ldr	r3, [sp, #20]
 244 006e DA1E     		subs	r2, r3, #3
 245 0070 2F4C     		ldr	r4, .L23+4
 246 0072 A823     		movs	r3, #168
 247 0074 5900     		lsls	r1, r3, #1
 248 0076 2D48     		ldr	r0, .L23
 249 0078 314B     		ldr	r3, .L23+20
 250 007a 0093     		str	r3, [sp]
 251 007c 2300     		movs	r3, r4
 252 007e FFF7FEFF 		bl	chThdCreateFromHeap
 253 0082 0200     		movs	r2, r0
 254 0084 2C4B     		ldr	r3, .L23+12
 255 0086 9A60     		str	r2, [r3, #8]
 256              		.loc 2 101 0
 257 0088 049B     		ldr	r3, [sp, #16]
 258 008a 1800     		movs	r0, r3
 259 008c FFF7FEFF 		bl	chHeapFree
 260              		.loc 2 103 0
 261 0090 294B     		ldr	r3, .L23+12
 262 0092 1B68     		ldr	r3, [r3]
 263 0094 002B     		cmp	r3, #0
 264 0096 11D0     		beq	.L12
 265              		.loc 2 103 0 is_stmt 0 discriminator 1
 266 0098 274B     		ldr	r3, .L23+12
 267 009a 5B68     		ldr	r3, [r3, #4]
 268 009c 002B     		cmp	r3, #0
 269 009e 0DD0     		beq	.L12
 270              		.loc 2 103 0 discriminator 3
 271 00a0 254B     		ldr	r3, .L23+12
 272 00a2 9B68     		ldr	r3, [r3, #8]
 273 00a4 002B     		cmp	r3, #0
 274 00a6 09D1     		bne	.L12
 275              		.loc 2 103 0 discriminator 5
 276 00a8 234B     		ldr	r3, .L23+12
 277 00aa DB68     		ldr	r3, [r3, #12]
 278 00ac 002B     		cmp	r3, #0
 279 00ae 05D1     		bne	.L12
ARM GAS  /tmp/ccvIBBGd.s 			page 6


 280              		.loc 2 103 0 discriminator 7
 281 00b0 214B     		ldr	r3, .L23+12
 282 00b2 1B69     		ldr	r3, [r3, #16]
 283 00b4 002B     		cmp	r3, #0
 284 00b6 01D1     		bne	.L12
 285              		.loc 2 103 0 discriminator 9
 286 00b8 0123     		movs	r3, #1
 287 00ba 00E0     		b	.L13
 288              	.L12:
 289              		.loc 2 103 0 discriminator 10
 290 00bc 0023     		movs	r3, #0
 291              	.L13:
 292              		.loc 2 103 0 discriminator 12
 293 00be 1A1C     		adds	r2, r3, #0
 294 00c0 0123     		movs	r3, #1
 295 00c2 1340     		ands	r3, r2
 296 00c4 DBB2     		uxtb	r3, r3
 297 00c6 1900     		movs	r1, r3
 298 00c8 0120     		movs	r0, #1
 299 00ca FFF7FEFF 		bl	_test_assert
 300 00ce 031E     		subs	r3, r0, #0
 301 00d0 24D1     		bne	.L20
 302              		.loc 2 111 0 is_stmt 1
 303 00d2 FFF7FEFF 		bl	test_wait_threads
 304              		.loc 2 112 0
 305 00d6 1B4B     		ldr	r3, .L23+24
 306 00d8 1900     		movs	r1, r3
 307 00da 0220     		movs	r0, #2
 308 00dc FFF7FEFF 		bl	_test_assert_sequence
 309 00e0 031E     		subs	r3, r0, #0
 310 00e2 1DD1     		bne	.L21
 311              		.loc 2 115 0
 312 00e4 03AA     		add	r2, sp, #12
 313 00e6 114B     		ldr	r3, .L23
 314 00e8 1100     		movs	r1, r2
 315 00ea 1800     		movs	r0, r3
 316 00ec FFF7FEFF 		bl	chHeapStatus
 317 00f0 0300     		movs	r3, r0
 318 00f2 013B     		subs	r3, r3, #1
 319 00f4 5A42     		rsbs	r2, r3, #0
 320 00f6 5341     		adcs	r3, r3, r2
 321 00f8 DBB2     		uxtb	r3, r3
 322 00fa 1900     		movs	r1, r3
 323 00fc 0320     		movs	r0, #3
 324 00fe FFF7FEFF 		bl	_test_assert
 325 0102 031E     		subs	r3, r0, #0
 326 0104 0ED1     		bne	.L22
 327              		.loc 2 116 0
 328 0106 039A     		ldr	r2, [sp, #12]
 329 0108 029B     		ldr	r3, [sp, #8]
 330 010a D31A     		subs	r3, r2, r3
 331 010c 5A42     		rsbs	r2, r3, #0
 332 010e 5341     		adcs	r3, r3, r2
 333 0110 DBB2     		uxtb	r3, r3
 334 0112 1900     		movs	r1, r3
 335 0114 0420     		movs	r0, #4
 336 0116 FFF7FEFF 		bl	_test_assert
ARM GAS  /tmp/ccvIBBGd.s 			page 7


 337 011a 04E0     		b	.L11
 338              	.L20:
 339              		.loc 2 103 0
 340 011c C046     		nop
 341 011e 02E0     		b	.L11
 342              	.L21:
 343              		.loc 2 112 0
 344 0120 C046     		nop
 345 0122 00E0     		b	.L11
 346              	.L22:
 347              		.loc 2 115 0
 348 0124 C046     		nop
 349              	.L11:
 350              		.loc 2 117 0
 351 0126 06B0     		add	sp, sp, #24
 352              		@ sp needed
 353 0128 10BD     		pop	{r4, pc}
 354              	.L24:
 355 012a C046     		.align	2
 356              	.L23:
 357 012c 00000000 		.word	heap1
 358 0130 00000000 		.word	thread
 359 0134 00000000 		.word	.LC5
 360 0138 00000000 		.word	threads
 361 013c 04000000 		.word	.LC8
 362 0140 08000000 		.word	.LC10
 363 0144 0C000000 		.word	.LC12
 364              		.cfi_endproc
 365              	.LFE154:
 366              		.size	dyn1_execute, .-dyn1_execute
 367              		.global	testdyn1
 368              		.section	.rodata
 369 000f 00       		.align	2
 370              	.LC14:
 371 0010 44796E61 		.ascii	"Dynamic APIs, threads creation from heap\000"
 371      6D696320 
 371      41504973 
 371      2C207468 
 371      72656164 
 372              		.section	.rodata.testdyn1,"a",%progbits
 373              		.align	2
 374              		.type	testdyn1, %object
 375              		.size	testdyn1, 16
 376              	testdyn1:
 377 0000 10000000 		.word	.LC14
 378 0004 00000000 		.word	dyn1_setup
 379 0008 00000000 		.word	0
 380 000c 00000000 		.word	dyn1_execute
 381              		.section	.text.dyn2_setup,"ax",%progbits
 382              		.align	1
 383              		.p2align 4,,15
 384              		.syntax unified
 385              		.code	16
 386              		.thumb_func
 387              		.fpu softvfp
 388              		.type	dyn2_setup, %function
 389              	dyn2_setup:
ARM GAS  /tmp/ccvIBBGd.s 			page 8


 390              	.LFB155:
 391              		.loc 2 138 0
 392              		.cfi_startproc
 393              		@ args = 0, pretend = 0, frame = 0
 394              		@ frame_needed = 0, uses_anonymous_args = 0
 395 0000 10B5     		push	{r4, lr}
 396              		.cfi_def_cfa_offset 8
 397              		.cfi_offset 4, -8
 398              		.cfi_offset 14, -4
 399              		.loc 2 140 0
 400 0002 A823     		movs	r3, #168
 401 0004 5900     		lsls	r1, r3, #1
 402 0006 034B     		ldr	r3, .L26
 403 0008 0022     		movs	r2, #0
 404 000a 1800     		movs	r0, r3
 405 000c FFF7FEFF 		bl	chPoolObjectInit
 406              		.loc 2 141 0
 407 0010 C046     		nop
 408              		@ sp needed
 409 0012 10BD     		pop	{r4, pc}
 410              	.L27:
 411              		.align	2
 412              	.L26:
 413 0014 00000000 		.word	mp1
 414              		.cfi_endproc
 415              	.LFE155:
 416              		.size	dyn2_setup, .-dyn2_setup
 417              		.section	.rodata
 418 0039 000000   		.align	2
 419              	.LC23:
 420 003c 4400     		.ascii	"D\000"
 421 003e 0000     		.align	2
 422              	.LC25:
 423 0040 4500     		.ascii	"E\000"
 424 0042 0000     		.align	2
 425              	.LC27:
 426 0044 41424344 		.ascii	"ABCD\000"
 426      00
 427              		.section	.text.dyn2_execute,"ax",%progbits
 428              		.align	1
 429              		.p2align 4,,15
 430              		.syntax unified
 431              		.code	16
 432              		.thumb_func
 433              		.fpu softvfp
 434              		.type	dyn2_execute, %function
 435              	dyn2_execute:
 436              	.LFB156:
 437              		.loc 2 143 0
 438              		.cfi_startproc
 439              		@ args = 0, pretend = 0, frame = 8
 440              		@ frame_needed = 0, uses_anonymous_args = 0
 441 0000 00B5     		push	{lr}
 442              		.cfi_def_cfa_offset 4
 443              		.cfi_offset 14, -4
 444 0002 83B0     		sub	sp, sp, #12
 445              		.cfi_def_cfa_offset 16
ARM GAS  /tmp/ccvIBBGd.s 			page 9


 446              		.loc 2 145 0
 447 0004 FFF7FEFF 		bl	chThdGetPriorityX
 448 0008 0300     		movs	r3, r0
 449 000a 0093     		str	r3, [sp]
 450              		.loc 2 148 0
 451 000c 0023     		movs	r3, #0
 452 000e 0193     		str	r3, [sp, #4]
 453 0010 0BE0     		b	.L29
 454              	.L30:
 455              		.loc 2 149 0 discriminator 3
 456 0012 4B4B     		ldr	r3, .L42
 457 0014 019A     		ldr	r2, [sp, #4]
 458 0016 9200     		lsls	r2, r2, #2
 459 0018 D258     		ldr	r2, [r2, r3]
 460 001a 4A4B     		ldr	r3, .L42+4
 461 001c 1100     		movs	r1, r2
 462 001e 1800     		movs	r0, r3
 463 0020 FFF7FEFF 		bl	chPoolFree
 464              		.loc 2 148 0 discriminator 3
 465 0024 019B     		ldr	r3, [sp, #4]
 466 0026 0133     		adds	r3, r3, #1
 467 0028 0193     		str	r3, [sp, #4]
 468              	.L29:
 469              		.loc 2 148 0 is_stmt 0 discriminator 1
 470 002a 019B     		ldr	r3, [sp, #4]
 471 002c 032B     		cmp	r3, #3
 472 002e F0DD     		ble	.L30
 473              		.loc 2 152 0 is_stmt 1
 474 0030 009B     		ldr	r3, [sp]
 475 0032 591E     		subs	r1, r3, #1
 476 0034 444B     		ldr	r3, .L42+8
 477 0036 454A     		ldr	r2, .L42+12
 478 0038 4248     		ldr	r0, .L42+4
 479 003a FFF7FEFF 		bl	chThdCreateFromMemoryPool
 480 003e 0200     		movs	r2, r0
 481 0040 434B     		ldr	r3, .L42+16
 482 0042 1A60     		str	r2, [r3]
 483              		.loc 2 153 0
 484 0044 009B     		ldr	r3, [sp]
 485 0046 991E     		subs	r1, r3, #2
 486 0048 424B     		ldr	r3, .L42+20
 487 004a 404A     		ldr	r2, .L42+12
 488 004c 3D48     		ldr	r0, .L42+4
 489 004e FFF7FEFF 		bl	chThdCreateFromMemoryPool
 490 0052 0200     		movs	r2, r0
 491 0054 3E4B     		ldr	r3, .L42+16
 492 0056 5A60     		str	r2, [r3, #4]
 493              		.loc 2 154 0
 494 0058 009B     		ldr	r3, [sp]
 495 005a D91E     		subs	r1, r3, #3
 496 005c 3E4B     		ldr	r3, .L42+24
 497 005e 3B4A     		ldr	r2, .L42+12
 498 0060 3848     		ldr	r0, .L42+4
 499 0062 FFF7FEFF 		bl	chThdCreateFromMemoryPool
 500 0066 0200     		movs	r2, r0
 501 0068 394B     		ldr	r3, .L42+16
 502 006a 9A60     		str	r2, [r3, #8]
ARM GAS  /tmp/ccvIBBGd.s 			page 10


 503              		.loc 2 155 0
 504 006c 009B     		ldr	r3, [sp]
 505 006e 191F     		subs	r1, r3, #4
 506 0070 3A4B     		ldr	r3, .L42+28
 507 0072 364A     		ldr	r2, .L42+12
 508 0074 3348     		ldr	r0, .L42+4
 509 0076 FFF7FEFF 		bl	chThdCreateFromMemoryPool
 510 007a 0200     		movs	r2, r0
 511 007c 344B     		ldr	r3, .L42+16
 512 007e DA60     		str	r2, [r3, #12]
 513              		.loc 2 156 0
 514 0080 009B     		ldr	r3, [sp]
 515 0082 591F     		subs	r1, r3, #5
 516 0084 364B     		ldr	r3, .L42+32
 517 0086 314A     		ldr	r2, .L42+12
 518 0088 2E48     		ldr	r0, .L42+4
 519 008a FFF7FEFF 		bl	chThdCreateFromMemoryPool
 520 008e 0200     		movs	r2, r0
 521 0090 2F4B     		ldr	r3, .L42+16
 522 0092 1A61     		str	r2, [r3, #16]
 523              		.loc 2 158 0
 524 0094 2E4B     		ldr	r3, .L42+16
 525 0096 1B68     		ldr	r3, [r3]
 526 0098 002B     		cmp	r3, #0
 527 009a 11D0     		beq	.L31
 528              		.loc 2 158 0 is_stmt 0 discriminator 1
 529 009c 2C4B     		ldr	r3, .L42+16
 530 009e 5B68     		ldr	r3, [r3, #4]
 531 00a0 002B     		cmp	r3, #0
 532 00a2 0DD0     		beq	.L31
 533              		.loc 2 158 0 discriminator 3
 534 00a4 2A4B     		ldr	r3, .L42+16
 535 00a6 9B68     		ldr	r3, [r3, #8]
 536 00a8 002B     		cmp	r3, #0
 537 00aa 09D0     		beq	.L31
 538              		.loc 2 158 0 discriminator 5
 539 00ac 284B     		ldr	r3, .L42+16
 540 00ae DB68     		ldr	r3, [r3, #12]
 541 00b0 002B     		cmp	r3, #0
 542 00b2 05D0     		beq	.L31
 543              		.loc 2 158 0 discriminator 7
 544 00b4 264B     		ldr	r3, .L42+16
 545 00b6 1B69     		ldr	r3, [r3, #16]
 546 00b8 002B     		cmp	r3, #0
 547 00ba 01D1     		bne	.L31
 548              		.loc 2 158 0 discriminator 9
 549 00bc 0123     		movs	r3, #1
 550 00be 00E0     		b	.L32
 551              	.L31:
 552              		.loc 2 158 0 discriminator 10
 553 00c0 0023     		movs	r3, #0
 554              	.L32:
 555              		.loc 2 158 0 discriminator 12
 556 00c2 1A1C     		adds	r2, r3, #0
 557 00c4 0123     		movs	r3, #1
 558 00c6 1340     		ands	r3, r2
 559 00c8 DBB2     		uxtb	r3, r3
ARM GAS  /tmp/ccvIBBGd.s 			page 11


 560 00ca 1900     		movs	r1, r3
 561 00cc 0120     		movs	r0, #1
 562 00ce FFF7FEFF 		bl	_test_assert
 563 00d2 031E     		subs	r3, r0, #0
 564 00d4 2CD1     		bne	.L39
 565              		.loc 2 166 0 is_stmt 1
 566 00d6 FFF7FEFF 		bl	test_wait_threads
 567              		.loc 2 167 0
 568 00da 224B     		ldr	r3, .L42+36
 569 00dc 1900     		movs	r1, r3
 570 00de 0220     		movs	r0, #2
 571 00e0 FFF7FEFF 		bl	_test_assert_sequence
 572 00e4 031E     		subs	r3, r0, #0
 573 00e6 25D1     		bne	.L40
 574              		.loc 2 170 0
 575 00e8 0023     		movs	r3, #0
 576 00ea 0193     		str	r3, [sp, #4]
 577 00ec 10E0     		b	.L36
 578              	.L38:
 579              		.loc 2 171 0
 580 00ee 154B     		ldr	r3, .L42+4
 581 00f0 1800     		movs	r0, r3
 582 00f2 FFF7FEFF 		bl	chPoolAlloc
 583 00f6 0300     		movs	r3, r0
 584 00f8 5A1E     		subs	r2, r3, #1
 585 00fa 9341     		sbcs	r3, r3, r2
 586 00fc DBB2     		uxtb	r3, r3
 587 00fe 1900     		movs	r1, r3
 588 0100 0320     		movs	r0, #3
 589 0102 FFF7FEFF 		bl	_test_assert
 590 0106 031E     		subs	r3, r0, #0
 591 0108 16D1     		bne	.L41
 592              		.loc 2 170 0 discriminator 2
 593 010a 019B     		ldr	r3, [sp, #4]
 594 010c 0133     		adds	r3, r3, #1
 595 010e 0193     		str	r3, [sp, #4]
 596              	.L36:
 597              		.loc 2 170 0 is_stmt 0 discriminator 1
 598 0110 019B     		ldr	r3, [sp, #4]
 599 0112 032B     		cmp	r3, #3
 600 0114 EBDD     		ble	.L38
 601              		.loc 2 172 0 is_stmt 1
 602 0116 0B4B     		ldr	r3, .L42+4
 603 0118 1800     		movs	r0, r3
 604 011a FFF7FEFF 		bl	chPoolAlloc
 605 011e 0300     		movs	r3, r0
 606 0120 5A42     		rsbs	r2, r3, #0
 607 0122 5341     		adcs	r3, r3, r2
 608 0124 DBB2     		uxtb	r3, r3
 609 0126 1900     		movs	r1, r3
 610 0128 0420     		movs	r0, #4
 611 012a FFF7FEFF 		bl	_test_assert
 612 012e 04E0     		b	.L28
 613              	.L39:
 614              		.loc 2 158 0
 615 0130 C046     		nop
 616 0132 02E0     		b	.L28
ARM GAS  /tmp/ccvIBBGd.s 			page 12


 617              	.L40:
 618              		.loc 2 167 0
 619 0134 C046     		nop
 620 0136 00E0     		b	.L28
 621              	.L41:
 622              		.loc 2 171 0
 623 0138 C046     		nop
 624              	.L28:
 625              		.loc 2 173 0
 626 013a 03B0     		add	sp, sp, #12
 627              		@ sp needed
 628 013c 00BD     		pop	{pc}
 629              	.L43:
 630 013e C046     		.align	2
 631              	.L42:
 632 0140 00000000 		.word	wa
 633 0144 00000000 		.word	mp1
 634 0148 00000000 		.word	.LC5
 635 014c 00000000 		.word	thread
 636 0150 00000000 		.word	threads
 637 0154 04000000 		.word	.LC8
 638 0158 08000000 		.word	.LC10
 639 015c 3C000000 		.word	.LC23
 640 0160 40000000 		.word	.LC25
 641 0164 44000000 		.word	.LC27
 642              		.cfi_endproc
 643              	.LFE156:
 644              		.size	dyn2_execute, .-dyn2_execute
 645              		.global	testdyn2
 646              		.section	.rodata
 647 0049 000000   		.align	2
 648              	.LC29:
 649 004c 44796E61 		.ascii	"Dynamic APIs, threads creation from memory pool\000"
 649      6D696320 
 649      41504973 
 649      2C207468 
 649      72656164 
 650              		.section	.rodata.testdyn2,"a",%progbits
 651              		.align	2
 652              		.type	testdyn2, %object
 653              		.size	testdyn2, 16
 654              	testdyn2:
 655 0000 4C000000 		.word	.LC29
 656 0004 00000000 		.word	dyn2_setup
 657 0008 00000000 		.word	0
 658 000c 00000000 		.word	dyn2_execute
 659              		.section	.text.regfind,"ax",%progbits
 660              		.align	1
 661              		.p2align 4,,15
 662              		.syntax unified
 663              		.code	16
 664              		.thumb_func
 665              		.fpu softvfp
 666              		.type	regfind, %function
 667              	regfind:
 668              	.LFB157:
 669              		.loc 2 192 0
ARM GAS  /tmp/ccvIBBGd.s 			page 13


 670              		.cfi_startproc
 671              		@ args = 0, pretend = 0, frame = 16
 672              		@ frame_needed = 0, uses_anonymous_args = 0
 673 0000 00B5     		push	{lr}
 674              		.cfi_def_cfa_offset 4
 675              		.cfi_offset 14, -4
 676 0002 85B0     		sub	sp, sp, #20
 677              		.cfi_def_cfa_offset 24
 678 0004 0190     		str	r0, [sp, #4]
 679              		.loc 2 194 0
 680 0006 0B23     		movs	r3, #11
 681 0008 6B44     		add	r3, r3, sp
 682 000a 0022     		movs	r2, #0
 683 000c 1A70     		strb	r2, [r3]
 684              		.loc 2 196 0
 685 000e FFF7FEFF 		bl	chRegFirstThread
 686 0012 0300     		movs	r3, r0
 687 0014 0393     		str	r3, [sp, #12]
 688              	.L45:
 689              		.loc 2 198 0 discriminator 1
 690 0016 0B23     		movs	r3, #11
 691 0018 6B44     		add	r3, r3, sp
 692 001a 1B78     		ldrb	r3, [r3]
 693 001c 0399     		ldr	r1, [sp, #12]
 694 001e 019A     		ldr	r2, [sp, #4]
 695 0020 8A1A     		subs	r2, r1, r2
 696 0022 5142     		rsbs	r1, r2, #0
 697 0024 4A41     		adcs	r2, r2, r1
 698 0026 D2B2     		uxtb	r2, r2
 699 0028 1A43     		orrs	r2, r3
 700 002a 0B23     		movs	r3, #11
 701 002c 6B44     		add	r3, r3, sp
 702 002e 511E     		subs	r1, r2, #1
 703 0030 8A41     		sbcs	r2, r2, r1
 704 0032 1A70     		strb	r2, [r3]
 705              		.loc 2 199 0 discriminator 1
 706 0034 039B     		ldr	r3, [sp, #12]
 707 0036 1800     		movs	r0, r3
 708 0038 FFF7FEFF 		bl	chRegNextThread
 709 003c 0300     		movs	r3, r0
 710 003e 0393     		str	r3, [sp, #12]
 711              		.loc 2 200 0 discriminator 1
 712 0040 039B     		ldr	r3, [sp, #12]
 713 0042 002B     		cmp	r3, #0
 714 0044 E7D1     		bne	.L45
 715              		.loc 2 201 0
 716 0046 0B23     		movs	r3, #11
 717 0048 6B44     		add	r3, r3, sp
 718 004a 1B78     		ldrb	r3, [r3]
 719              		.loc 2 202 0
 720 004c 1800     		movs	r0, r3
 721 004e 05B0     		add	sp, sp, #20
 722              		@ sp needed
 723 0050 00BD     		pop	{pc}
 724              		.cfi_endproc
 725              	.LFE157:
 726              		.size	regfind, .-regfind
ARM GAS  /tmp/ccvIBBGd.s 			page 14


 727 0052 C046     		.section	.text.dyn3_setup,"ax",%progbits
 728              		.align	1
 729              		.p2align 4,,15
 730              		.syntax unified
 731              		.code	16
 732              		.thumb_func
 733              		.fpu softvfp
 734              		.type	dyn3_setup, %function
 735              	dyn3_setup:
 736              	.LFB158:
 737              		.loc 2 204 0
 738              		.cfi_startproc
 739              		@ args = 0, pretend = 0, frame = 0
 740              		@ frame_needed = 0, uses_anonymous_args = 0
 741 0000 10B5     		push	{r4, lr}
 742              		.cfi_def_cfa_offset 8
 743              		.cfi_offset 4, -8
 744              		.cfi_offset 14, -4
 745              		.loc 2 206 0
 746 0002 D223     		movs	r3, #210
 747 0004 DA00     		lsls	r2, r3, #3
 748 0006 0349     		ldr	r1, .L48
 749 0008 034B     		ldr	r3, .L48+4
 750 000a 1800     		movs	r0, r3
 751 000c FFF7FEFF 		bl	chHeapObjectInit
 752              		.loc 2 207 0
 753 0010 C046     		nop
 754              		@ sp needed
 755 0012 10BD     		pop	{r4, pc}
 756              	.L49:
 757              		.align	2
 758              	.L48:
 759 0014 00000000 		.word	test
 760 0018 00000000 		.word	heap1
 761              		.cfi_endproc
 762              	.LFE158:
 763              		.size	dyn3_setup, .-dyn3_setup
 764              		.section	.text.dyn3_execute,"ax",%progbits
 765              		.align	1
 766              		.p2align 4,,15
 767              		.syntax unified
 768              		.code	16
 769              		.thumb_func
 770              		.fpu softvfp
 771              		.type	dyn3_execute, %function
 772              	dyn3_execute:
 773              	.LFB159:
 774              		.loc 2 209 0
 775              		.cfi_startproc
 776              		@ args = 0, pretend = 0, frame = 8
 777              		@ frame_needed = 0, uses_anonymous_args = 0
 778 0000 10B5     		push	{r4, lr}
 779              		.cfi_def_cfa_offset 8
 780              		.cfi_offset 4, -8
 781              		.cfi_offset 14, -4
 782 0002 84B0     		sub	sp, sp, #16
 783              		.cfi_def_cfa_offset 24
ARM GAS  /tmp/ccvIBBGd.s 			page 15


 784              		.loc 2 211 0
 785 0004 FFF7FEFF 		bl	chThdGetPriorityX
 786 0008 0300     		movs	r3, r0
 787 000a 0393     		str	r3, [sp, #12]
 788              		.loc 2 214 0
 789 000c 039B     		ldr	r3, [sp, #12]
 790 000e 5A1E     		subs	r2, r3, #1
 791 0010 674C     		ldr	r4, .L74
 792 0012 A823     		movs	r3, #168
 793 0014 5900     		lsls	r1, r3, #1
 794 0016 6748     		ldr	r0, .L74+4
 795 0018 674B     		ldr	r3, .L74+8
 796 001a 0093     		str	r3, [sp]
 797 001c 2300     		movs	r3, r4
 798 001e FFF7FEFF 		bl	chThdCreateFromHeap
 799 0022 0300     		movs	r3, r0
 800 0024 0293     		str	r3, [sp, #8]
 801              		.loc 2 215 0
 802 0026 029B     		ldr	r3, [sp, #8]
 803 0028 2222     		movs	r2, #34
 804 002a 9B5C     		ldrb	r3, [r3, r2]
 805 002c 013B     		subs	r3, r3, #1
 806 002e 5A42     		rsbs	r2, r3, #0
 807 0030 5341     		adcs	r3, r3, r2
 808 0032 DBB2     		uxtb	r3, r3
 809 0034 1900     		movs	r1, r3
 810 0036 0120     		movs	r0, #1
 811 0038 FFF7FEFF 		bl	_test_assert
 812 003c 031E     		subs	r3, r0, #0
 813 003e 00D0     		beq	.LCB605
 814 0040 9EE0     		b	.L63	@long jump
 815              	.LCB605:
 816              		.loc 2 216 0
 817 0042 029B     		ldr	r3, [sp, #8]
 818 0044 1800     		movs	r0, r3
 819 0046 FFF7FEFF 		bl	chThdAddRef
 820              		.loc 2 217 0
 821 004a 029B     		ldr	r3, [sp, #8]
 822 004c 2222     		movs	r2, #34
 823 004e 9B5C     		ldrb	r3, [r3, r2]
 824 0050 023B     		subs	r3, r3, #2
 825 0052 5A42     		rsbs	r2, r3, #0
 826 0054 5341     		adcs	r3, r3, r2
 827 0056 DBB2     		uxtb	r3, r3
 828 0058 1900     		movs	r1, r3
 829 005a 0220     		movs	r0, #2
 830 005c FFF7FEFF 		bl	_test_assert
 831 0060 031E     		subs	r3, r0, #0
 832 0062 00D0     		beq	.LCB620
 833 0064 8EE0     		b	.L64	@long jump
 834              	.LCB620:
 835              		.loc 2 218 0
 836 0066 029B     		ldr	r3, [sp, #8]
 837 0068 1800     		movs	r0, r3
 838 006a FFF7FEFF 		bl	chThdRelease
 839              		.loc 2 219 0
 840 006e 029B     		ldr	r3, [sp, #8]
ARM GAS  /tmp/ccvIBBGd.s 			page 16


 841 0070 2222     		movs	r2, #34
 842 0072 9B5C     		ldrb	r3, [r3, r2]
 843 0074 013B     		subs	r3, r3, #1
 844 0076 5A42     		rsbs	r2, r3, #0
 845 0078 5341     		adcs	r3, r3, r2
 846 007a DBB2     		uxtb	r3, r3
 847 007c 1900     		movs	r1, r3
 848 007e 0320     		movs	r0, #3
 849 0080 FFF7FEFF 		bl	_test_assert
 850 0084 031E     		subs	r3, r0, #0
 851 0086 00D0     		beq	.LCB635
 852 0088 7EE0     		b	.L65	@long jump
 853              	.LCB635:
 854              		.loc 2 222 0
 855 008a 029B     		ldr	r3, [sp, #8]
 856 008c 1800     		movs	r0, r3
 857 008e FFF7FEFF 		bl	regfind
 858 0092 0300     		movs	r3, r0
 859 0094 1900     		movs	r1, r3
 860 0096 0420     		movs	r0, #4
 861 0098 FFF7FEFF 		bl	_test_assert
 862 009c 031E     		subs	r3, r0, #0
 863 009e 00D0     		beq	.LCB645
 864 00a0 74E0     		b	.L66	@long jump
 865              	.LCB645:
 866              		.loc 2 223 0
 867 00a2 029B     		ldr	r3, [sp, #8]
 868 00a4 1800     		movs	r0, r3
 869 00a6 FFF7FEFF 		bl	regfind
 870 00aa 0300     		movs	r3, r0
 871 00ac 1900     		movs	r1, r3
 872 00ae 0520     		movs	r0, #5
 873 00b0 FFF7FEFF 		bl	_test_assert
 874 00b4 031E     		subs	r3, r0, #0
 875 00b6 00D0     		beq	.LCB655
 876 00b8 6AE0     		b	.L67	@long jump
 877              	.LCB655:
 878              		.loc 2 226 0
 879 00ba 029B     		ldr	r3, [sp, #8]
 880 00bc 1800     		movs	r0, r3
 881 00be FFF7FEFF 		bl	chThdRelease
 882              		.loc 2 227 0
 883 00c2 029B     		ldr	r3, [sp, #8]
 884 00c4 2222     		movs	r2, #34
 885 00c6 9B5C     		ldrb	r3, [r3, r2]
 886 00c8 5A42     		rsbs	r2, r3, #0
 887 00ca 5341     		adcs	r3, r3, r2
 888 00cc DBB2     		uxtb	r3, r3
 889 00ce 1900     		movs	r1, r3
 890 00d0 0620     		movs	r0, #6
 891 00d2 FFF7FEFF 		bl	_test_assert
 892 00d6 031E     		subs	r3, r0, #0
 893 00d8 5CD1     		bne	.L68
 894              		.loc 2 228 0
 895 00da 029B     		ldr	r3, [sp, #8]
 896 00dc 2022     		movs	r2, #32
 897 00de 9B5C     		ldrb	r3, [r3, r2]
ARM GAS  /tmp/ccvIBBGd.s 			page 17


 898 00e0 5A42     		rsbs	r2, r3, #0
 899 00e2 5341     		adcs	r3, r3, r2
 900 00e4 DBB2     		uxtb	r3, r3
 901 00e6 1900     		movs	r1, r3
 902 00e8 0720     		movs	r0, #7
 903 00ea FFF7FEFF 		bl	_test_assert
 904 00ee 031E     		subs	r3, r0, #0
 905 00f0 52D1     		bne	.L69
 906              		.loc 2 229 0
 907 00f2 029B     		ldr	r3, [sp, #8]
 908 00f4 1800     		movs	r0, r3
 909 00f6 FFF7FEFF 		bl	regfind
 910 00fa 0300     		movs	r3, r0
 911 00fc 1900     		movs	r1, r3
 912 00fe 0820     		movs	r0, #8
 913 0100 FFF7FEFF 		bl	_test_assert
 914 0104 031E     		subs	r3, r0, #0
 915 0106 49D1     		bne	.L70
 916              		.loc 2 230 0
 917 0108 029B     		ldr	r3, [sp, #8]
 918 010a 1800     		movs	r0, r3
 919 010c FFF7FEFF 		bl	regfind
 920 0110 0300     		movs	r3, r0
 921 0112 1900     		movs	r1, r3
 922 0114 0920     		movs	r0, #9
 923 0116 FFF7FEFF 		bl	_test_assert
 924 011a 031E     		subs	r3, r0, #0
 925 011c 40D1     		bne	.L71
 926              		.loc 2 231 0
 927 011e FA23     		movs	r3, #250
 928 0120 5B00     		lsls	r3, r3, #1
 929 0122 1800     		movs	r0, r3
 930 0124 FFF7FEFF 		bl	chThdSleep
 931              		.loc 2 232 0
 932 0128 029B     		ldr	r3, [sp, #8]
 933 012a 2022     		movs	r2, #32
 934 012c 9B5C     		ldrb	r3, [r3, r2]
 935 012e 0F3B     		subs	r3, r3, #15
 936 0130 5A42     		rsbs	r2, r3, #0
 937 0132 5341     		adcs	r3, r3, r2
 938 0134 DBB2     		uxtb	r3, r3
 939 0136 1900     		movs	r1, r3
 940 0138 0A20     		movs	r0, #10
 941 013a FFF7FEFF 		bl	_test_assert
 942 013e 031E     		subs	r3, r0, #0
 943 0140 30D1     		bne	.L72
 944              		.loc 2 235 0
 945 0142 029B     		ldr	r3, [sp, #8]
 946 0144 1800     		movs	r0, r3
 947 0146 FFF7FEFF 		bl	regfind
 948 014a 0300     		movs	r3, r0
 949 014c 1900     		movs	r1, r3
 950 014e 0B20     		movs	r0, #11
 951 0150 FFF7FEFF 		bl	_test_assert
 952 0154 031E     		subs	r3, r0, #0
 953 0156 27D1     		bne	.L73
 954              		.loc 2 236 0
ARM GAS  /tmp/ccvIBBGd.s 			page 18


 955 0158 029B     		ldr	r3, [sp, #8]
 956 015a 1800     		movs	r0, r3
 957 015c FFF7FEFF 		bl	regfind
 958 0160 0300     		movs	r3, r0
 959 0162 5A1E     		subs	r2, r3, #1
 960 0164 9341     		sbcs	r3, r3, r2
 961 0166 DBB2     		uxtb	r3, r3
 962 0168 0122     		movs	r2, #1
 963 016a 5340     		eors	r3, r2
 964 016c DBB2     		uxtb	r3, r3
 965 016e 1A1C     		adds	r2, r3, #0
 966 0170 0123     		movs	r3, #1
 967 0172 1340     		ands	r3, r2
 968 0174 DBB2     		uxtb	r3, r3
 969 0176 1900     		movs	r1, r3
 970 0178 0C20     		movs	r0, #12
 971 017a FFF7FEFF 		bl	_test_assert
 972 017e 14E0     		b	.L50
 973              	.L63:
 974              		.loc 2 215 0
 975 0180 C046     		nop
 976 0182 12E0     		b	.L50
 977              	.L64:
 978              		.loc 2 217 0
 979 0184 C046     		nop
 980 0186 10E0     		b	.L50
 981              	.L65:
 982              		.loc 2 219 0
 983 0188 C046     		nop
 984 018a 0EE0     		b	.L50
 985              	.L66:
 986              		.loc 2 222 0
 987 018c C046     		nop
 988 018e 0CE0     		b	.L50
 989              	.L67:
 990              		.loc 2 223 0
 991 0190 C046     		nop
 992 0192 0AE0     		b	.L50
 993              	.L68:
 994              		.loc 2 227 0
 995 0194 C046     		nop
 996 0196 08E0     		b	.L50
 997              	.L69:
 998              		.loc 2 228 0
 999 0198 C046     		nop
 1000 019a 06E0     		b	.L50
 1001              	.L70:
 1002              		.loc 2 229 0
 1003 019c C046     		nop
 1004 019e 04E0     		b	.L50
 1005              	.L71:
 1006              		.loc 2 230 0
 1007 01a0 C046     		nop
 1008 01a2 02E0     		b	.L50
 1009              	.L72:
 1010              		.loc 2 232 0
 1011 01a4 C046     		nop
ARM GAS  /tmp/ccvIBBGd.s 			page 19


 1012 01a6 00E0     		b	.L50
 1013              	.L73:
 1014              		.loc 2 235 0
 1015 01a8 C046     		nop
 1016              	.L50:
 1017              		.loc 2 237 0
 1018 01aa 04B0     		add	sp, sp, #16
 1019              		@ sp needed
 1020 01ac 10BD     		pop	{r4, pc}
 1021              	.L75:
 1022 01ae C046     		.align	2
 1023              	.L74:
 1024 01b0 00000000 		.word	thread
 1025 01b4 00000000 		.word	heap1
 1026 01b8 00000000 		.word	.LC5
 1027              		.cfi_endproc
 1028              	.LFE159:
 1029              		.size	dyn3_execute, .-dyn3_execute
 1030              		.global	testdyn3
 1031              		.section	.rodata
 1032              		.align	2
 1033              	.LC35:
 1034 007c 44796E61 		.ascii	"Dynamic APIs, registry and references\000"
 1034      6D696320 
 1034      41504973 
 1034      2C207265 
 1034      67697374 
 1035              		.section	.rodata.testdyn3,"a",%progbits
 1036              		.align	2
 1037              		.type	testdyn3, %object
 1038              		.size	testdyn3, 16
 1039              	testdyn3:
 1040 0000 7C000000 		.word	.LC35
 1041 0004 00000000 		.word	dyn3_setup
 1042 0008 00000000 		.word	0
 1043 000c 00000000 		.word	dyn3_execute
 1044              		.global	patterndyn
 1045              		.section	.rodata.patterndyn,"a",%progbits
 1046              		.align	2
 1047              		.type	patterndyn, %object
 1048              		.size	patterndyn, 16
 1049              	patterndyn:
 1050 0000 00000000 		.word	testdyn1
 1051 0004 00000000 		.word	testdyn2
 1052 0008 00000000 		.word	testdyn3
 1053 000c 00000000 		.word	0
 1054              		.text
 1055              	.Letext0:
 1056              		.file 3 "/home/felix/opt/gcc-arm-none-eabi-6-2017-q1-update/lib/gcc/arm-none-eabi/6.3.1/include/st
 1057              		.file 4 "/home/felix/opt/gcc-arm-none-eabi-6-2017-q1-update/arm-none-eabi/include/machine/_default
 1058              		.file 5 "/home/felix/opt/gcc-arm-none-eabi-6-2017-q1-update/arm-none-eabi/include/sys/_stdint.h"
 1059              		.file 6 "ChibiOS/os/rt/ports/ARMCMx/compilers/GCC/chtypes.h"
 1060              		.file 7 "ChibiOS/os/rt/include/chsystypes.h"
 1061              		.file 8 "ChibiOS/os/rt/include/chschd.h"
 1062              		.file 9 "ChibiOS/os/rt/ports/ARMCMx/chcore.h"
 1063              		.file 10 "ChibiOS/os/rt/ports/ARMCMx/chcore_v6m.h"
 1064              		.file 11 "ChibiOS/os/rt/include/chdebug.h"
ARM GAS  /tmp/ccvIBBGd.s 			page 20


 1065              		.file 12 "ChibiOS/os/rt/include/chsem.h"
 1066              		.file 13 "ChibiOS/os/rt/include/chmtx.h"
 1067              		.file 14 "ChibiOS/os/rt/include/chregistry.h"
 1068              		.file 15 "ChibiOS/os/ext/CMSIS/ST/STM32F0xx/system_stm32f0xx.h"
 1069              		.file 16 "ChibiOS/os/rt/include/chmemcore.h"
 1070              		.file 17 "ChibiOS/os/rt/include/chheap.h"
 1071              		.file 18 "ChibiOS/os/rt/include/chmempools.h"
 1072              		.file 19 "ChibiOS/test/rt/test.h"