ARM GAS  /tmp/cc3GneUP.s 			page 1


   1              		.cpu cortex-m0
   2              		.eabi_attribute 20, 1
   3              		.eabi_attribute 21, 1
   4              		.eabi_attribute 23, 3
   5              		.eabi_attribute 24, 1
   6              		.eabi_attribute 25, 1
   7              		.eabi_attribute 26, 1
   8              		.eabi_attribute 30, 6
   9              		.eabi_attribute 34, 0
  10              		.eabi_attribute 18, 4
  11              		.file	"testmbox.c"
  12              		.text
  13              	.Ltext0:
  14              		.cfi_sections	.debug_frame
  15              		.section	.text.port_lock,"ax",%progbits
  16              		.align	1
  17              		.p2align 4,,15
  18              		.syntax unified
  19              		.code	16
  20              		.thumb_func
  21              		.fpu softvfp
  22              		.type	port_lock, %function
  23              	port_lock:
  24              	.LFB38:
  25              		.file 1 "ChibiOS/os/rt/ports/ARMCMx/chcore_v6m.h"
  26              		.loc 1 330 0
  27              		.cfi_startproc
  28              		@ args = 0, pretend = 0, frame = 0
  29              		@ frame_needed = 0, uses_anonymous_args = 0
  30              		@ link register save eliminated.
  31              	.LBB6:
  32              	.LBB7:
  33              		.file 2 "ChibiOS/os/ext/CMSIS/include/core_cmFunc.h"
  34              		.loc 2 344 0
  35              		.syntax divided
  36              	@ 344 "ChibiOS/os/ext/CMSIS/include/core_cmFunc.h" 1
  37 0000 72B6     		cpsid i
  38              	@ 0 "" 2
  39              		.thumb
  40              		.syntax unified
  41              	.LBE7:
  42              	.LBE6:
  43              		.loc 1 333 0
  44 0002 C046     		nop
  45              		@ sp needed
  46 0004 7047     		bx	lr
  47              		.cfi_endproc
  48              	.LFE38:
  49              		.size	port_lock, .-port_lock
  50 0006 C046     		.section	.text.port_unlock,"ax",%progbits
  51              		.align	1
  52              		.p2align 4,,15
  53              		.syntax unified
  54              		.code	16
  55              		.thumb_func
  56              		.fpu softvfp
  57              		.type	port_unlock, %function
ARM GAS  /tmp/cc3GneUP.s 			page 2


  58              	port_unlock:
  59              	.LFB39:
  60              		.loc 1 339 0
  61              		.cfi_startproc
  62              		@ args = 0, pretend = 0, frame = 0
  63              		@ frame_needed = 0, uses_anonymous_args = 0
  64              		@ link register save eliminated.
  65              	.LBB8:
  66              	.LBB9:
  67              		.loc 2 333 0
  68              		.syntax divided
  69              	@ 333 "ChibiOS/os/ext/CMSIS/include/core_cmFunc.h" 1
  70 0000 62B6     		cpsie i
  71              	@ 0 "" 2
  72              		.thumb
  73              		.syntax unified
  74              	.LBE9:
  75              	.LBE8:
  76              		.loc 1 342 0
  77 0002 C046     		nop
  78              		@ sp needed
  79 0004 7047     		bx	lr
  80              		.cfi_endproc
  81              	.LFE39:
  82              		.size	port_unlock, .-port_unlock
  83 0006 C046     		.section	.text.chSysLock,"ax",%progbits
  84              		.align	1
  85              		.p2align 4,,15
  86              		.syntax unified
  87              		.code	16
  88              		.thumb_func
  89              		.fpu softvfp
  90              		.type	chSysLock, %function
  91              	chSysLock:
  92              	.LFB77:
  93              		.file 3 "ChibiOS/os/rt/include/chsys.h"
  94              		.loc 3 346 0
  95              		.cfi_startproc
  96              		@ args = 0, pretend = 0, frame = 0
  97              		@ frame_needed = 0, uses_anonymous_args = 0
  98 0000 10B5     		push	{r4, lr}
  99              		.cfi_def_cfa_offset 8
 100              		.cfi_offset 4, -8
 101              		.cfi_offset 14, -4
 102              		.loc 3 348 0
 103 0002 FFF7FEFF 		bl	port_lock
 104              		.loc 3 350 0
 105 0006 FFF7FEFF 		bl	_dbg_check_lock
 106              		.loc 3 351 0
 107 000a C046     		nop
 108              		@ sp needed
 109 000c 10BD     		pop	{r4, pc}
 110              		.cfi_endproc
 111              	.LFE77:
 112              		.size	chSysLock, .-chSysLock
 113 000e C046     		.section	.text.chSysUnlock,"ax",%progbits
 114              		.align	1
ARM GAS  /tmp/cc3GneUP.s 			page 3


 115              		.p2align 4,,15
 116              		.syntax unified
 117              		.code	16
 118              		.thumb_func
 119              		.fpu softvfp
 120              		.type	chSysUnlock, %function
 121              	chSysUnlock:
 122              	.LFB78:
 123              		.loc 3 358 0
 124              		.cfi_startproc
 125              		@ args = 0, pretend = 0, frame = 0
 126              		@ frame_needed = 0, uses_anonymous_args = 0
 127 0000 10B5     		push	{r4, lr}
 128              		.cfi_def_cfa_offset 8
 129              		.cfi_offset 4, -8
 130              		.cfi_offset 14, -4
 131              		.loc 3 360 0
 132 0002 FFF7FEFF 		bl	_dbg_check_unlock
 133              		.loc 3 367 0
 134 0006 0A4B     		ldr	r3, .L6
 135 0008 1A68     		ldr	r2, [r3]
 136 000a 094B     		ldr	r3, .L6
 137 000c 9A42     		cmp	r2, r3
 138 000e 0BD0     		beq	.L5
 139              		.loc 3 367 0 is_stmt 0 discriminator 2
 140 0010 074B     		ldr	r3, .L6
 141 0012 9B69     		ldr	r3, [r3, #24]
 142 0014 9A68     		ldr	r2, [r3, #8]
 143 0016 064B     		ldr	r3, .L6
 144 0018 1B68     		ldr	r3, [r3]
 145 001a 9B68     		ldr	r3, [r3, #8]
 146 001c 9A42     		cmp	r2, r3
 147 001e 03D2     		bcs	.L5
 148              		.loc 3 367 0 discriminator 3
 149 0020 044B     		ldr	r3, .L6+4
 150 0022 1800     		movs	r0, r3
 151 0024 FFF7FEFF 		bl	chSysHalt
 152              	.L5:
 153              		.loc 3 371 0 is_stmt 1
 154 0028 FFF7FEFF 		bl	port_unlock
 155              		.loc 3 372 0
 156 002c C046     		nop
 157              		@ sp needed
 158 002e 10BD     		pop	{r4, pc}
 159              	.L7:
 160              		.align	2
 161              	.L6:
 162 0030 00000000 		.word	ch
 163 0034 00000000 		.word	__func__.4993
 164              		.cfi_endproc
 165              	.LFE78:
 166              		.size	chSysUnlock, .-chSysUnlock
 167              		.section	.text.chMBGetSizeI,"ax",%progbits
 168              		.align	1
 169              		.p2align 4,,15
 170              		.syntax unified
 171              		.code	16
ARM GAS  /tmp/cc3GneUP.s 			page 4


 172              		.thumb_func
 173              		.fpu softvfp
 174              		.type	chMBGetSizeI, %function
 175              	chMBGetSizeI:
 176              	.LFB135:
 177              		.file 4 "ChibiOS/os/rt/include/chmboxes.h"
 178              		.loc 4 136 0
 179              		.cfi_startproc
 180              		@ args = 0, pretend = 0, frame = 8
 181              		@ frame_needed = 0, uses_anonymous_args = 0
 182              		@ link register save eliminated.
 183 0000 82B0     		sub	sp, sp, #8
 184              		.cfi_def_cfa_offset 8
 185 0002 0190     		str	r0, [sp, #4]
 186              		.loc 4 140 0
 187 0004 019B     		ldr	r3, [sp, #4]
 188 0006 5B68     		ldr	r3, [r3, #4]
 189 0008 1A00     		movs	r2, r3
 190 000a 019B     		ldr	r3, [sp, #4]
 191 000c 1B68     		ldr	r3, [r3]
 192 000e D31A     		subs	r3, r2, r3
 193 0010 9B10     		asrs	r3, r3, #2
 194              		.loc 4 142 0
 195 0012 1800     		movs	r0, r3
 196 0014 02B0     		add	sp, sp, #8
 197              		@ sp needed
 198 0016 7047     		bx	lr
 199              		.cfi_endproc
 200              	.LFE135:
 201              		.size	chMBGetSizeI, .-chMBGetSizeI
 202              		.section	.text.chMBGetUsedCountI,"ax",%progbits
 203              		.align	1
 204              		.p2align 4,,15
 205              		.syntax unified
 206              		.code	16
 207              		.thumb_func
 208              		.fpu softvfp
 209              		.type	chMBGetUsedCountI, %function
 210              	chMBGetUsedCountI:
 211              	.LFB136:
 212              		.loc 4 153 0
 213              		.cfi_startproc
 214              		@ args = 0, pretend = 0, frame = 8
 215              		@ frame_needed = 0, uses_anonymous_args = 0
 216 0000 00B5     		push	{lr}
 217              		.cfi_def_cfa_offset 4
 218              		.cfi_offset 14, -4
 219 0002 83B0     		sub	sp, sp, #12
 220              		.cfi_def_cfa_offset 16
 221 0004 0190     		str	r0, [sp, #4]
 222              		.loc 4 155 0
 223 0006 FFF7FEFF 		bl	chDbgCheckClassI
 224              		.loc 4 157 0
 225 000a 019B     		ldr	r3, [sp, #4]
 226 000c 1B69     		ldr	r3, [r3, #16]
 227              		.loc 4 158 0
 228 000e 1800     		movs	r0, r3
ARM GAS  /tmp/cc3GneUP.s 			page 5


 229 0010 03B0     		add	sp, sp, #12
 230              		@ sp needed
 231 0012 00BD     		pop	{pc}
 232              		.cfi_endproc
 233              	.LFE136:
 234              		.size	chMBGetUsedCountI, .-chMBGetUsedCountI
 235              		.section	.text.chMBGetFreeCountI,"ax",%progbits
 236              		.align	1
 237              		.p2align 4,,15
 238              		.syntax unified
 239              		.code	16
 240              		.thumb_func
 241              		.fpu softvfp
 242              		.type	chMBGetFreeCountI, %function
 243              	chMBGetFreeCountI:
 244              	.LFB137:
 245              		.loc 4 168 0
 246              		.cfi_startproc
 247              		@ args = 0, pretend = 0, frame = 8
 248              		@ frame_needed = 0, uses_anonymous_args = 0
 249 0000 10B5     		push	{r4, lr}
 250              		.cfi_def_cfa_offset 8
 251              		.cfi_offset 4, -8
 252              		.cfi_offset 14, -4
 253 0002 82B0     		sub	sp, sp, #8
 254              		.cfi_def_cfa_offset 16
 255 0004 0190     		str	r0, [sp, #4]
 256              		.loc 4 170 0
 257 0006 FFF7FEFF 		bl	chDbgCheckClassI
 258              		.loc 4 172 0
 259 000a 019B     		ldr	r3, [sp, #4]
 260 000c 1800     		movs	r0, r3
 261 000e FFF7FEFF 		bl	chMBGetSizeI
 262 0012 0400     		movs	r4, r0
 263 0014 019B     		ldr	r3, [sp, #4]
 264 0016 1800     		movs	r0, r3
 265 0018 FFF7FEFF 		bl	chMBGetUsedCountI
 266 001c 0300     		movs	r3, r0
 267 001e E31A     		subs	r3, r4, r3
 268              		.loc 4 173 0
 269 0020 1800     		movs	r0, r3
 270 0022 02B0     		add	sp, sp, #8
 271              		@ sp needed
 272 0024 10BD     		pop	{r4, pc}
 273              		.cfi_endproc
 274              	.LFE137:
 275              		.size	chMBGetFreeCountI, .-chMBGetFreeCountI
 276 0026 C046     		.section	.data.mb1,"aw",%progbits
 277              		.align	2
 278              		.type	mb1, %object
 279              		.size	mb1, 40
 280              	mb1:
 281 0000 00000000 		.word	test
 282 0004 14000000 		.word	test+20
 283 0008 00000000 		.word	test
 284 000c 00000000 		.word	test
 285 0010 00000000 		.word	0
ARM GAS  /tmp/cc3GneUP.s 			page 6


 286 0014 00       		.byte	0
 287 0015 000000   		.space	3
 288 0018 18000000 		.word	mb1+24
 289 001c 18000000 		.word	mb1+24
 290 0020 20000000 		.word	mb1+32
 291 0024 20000000 		.word	mb1+32
 292              		.section	.text.mbox1_setup,"ax",%progbits
 293              		.align	1
 294              		.p2align 4,,15
 295              		.syntax unified
 296              		.code	16
 297              		.thumb_func
 298              		.fpu softvfp
 299              		.type	mbox1_setup, %function
 300              	mbox1_setup:
 301              	.LFB152:
 302              		.file 5 "ChibiOS/test/rt/testmbox.c"
 303              		.loc 5 71 0
 304              		.cfi_startproc
 305              		@ args = 0, pretend = 0, frame = 0
 306              		@ frame_needed = 0, uses_anonymous_args = 0
 307 0000 10B5     		push	{r4, lr}
 308              		.cfi_def_cfa_offset 8
 309              		.cfi_offset 4, -8
 310              		.cfi_offset 14, -4
 311              		.loc 5 73 0
 312 0002 0449     		ldr	r1, .L15
 313 0004 044B     		ldr	r3, .L15+4
 314 0006 0522     		movs	r2, #5
 315 0008 1800     		movs	r0, r3
 316 000a FFF7FEFF 		bl	chMBObjectInit
 317              		.loc 5 74 0
 318 000e C046     		nop
 319              		@ sp needed
 320 0010 10BD     		pop	{r4, pc}
 321              	.L16:
 322 0012 C046     		.align	2
 323              	.L15:
 324 0014 00000000 		.word	test
 325 0018 00000000 		.word	mb1
 326              		.cfi_endproc
 327              	.LFE152:
 328              		.size	mbox1_setup, .-mbox1_setup
 329              		.section	.rodata
 330              		.align	2
 331              	.LC5:
 332 0000 41424344 		.ascii	"ABCDE\000"
 332      4500
 333              		.section	.text.mbox1_execute,"ax",%progbits
 334              		.align	1
 335              		.p2align 4,,15
 336              		.syntax unified
 337              		.code	16
 338              		.thumb_func
 339              		.fpu softvfp
 340              		.type	mbox1_execute, %function
 341              	mbox1_execute:
ARM GAS  /tmp/cc3GneUP.s 			page 7


 342              	.LFB153:
 343              		.loc 5 76 0
 344              		.cfi_startproc
 345              		@ args = 0, pretend = 0, frame = 16
 346              		@ frame_needed = 0, uses_anonymous_args = 0
 347 0000 00B5     		push	{lr}
 348              		.cfi_def_cfa_offset 4
 349              		.cfi_offset 14, -4
 350 0002 85B0     		sub	sp, sp, #20
 351              		.cfi_def_cfa_offset 24
 352              		.loc 5 83 0
 353 0004 FFF7FEFF 		bl	chSysLock
 354 0008 DB4B     		ldr	r3, .L107
 355 000a 1800     		movs	r0, r3
 356 000c FFF7FEFF 		bl	chMBGetFreeCountI
 357 0010 0300     		movs	r3, r0
 358 0012 053B     		subs	r3, r3, #5
 359 0014 5A42     		rsbs	r2, r3, #0
 360 0016 5341     		adcs	r3, r3, r2
 361 0018 DBB2     		uxtb	r3, r3
 362 001a 1900     		movs	r1, r3
 363 001c 0120     		movs	r0, #1
 364 001e FFF7FEFF 		bl	_test_assert
 365 0022 031E     		subs	r3, r0, #0
 366 0024 03D0     		beq	.L18
 367              		.loc 5 83 0 is_stmt 0 discriminator 1
 368 0026 FFF7FEFF 		bl	chSysUnlock
 369 002a 00F0F2FB 		bl	.L17	@ far jump
 370              	.L18:
 371              		.loc 5 83 0 discriminator 2
 372 002e FFF7FEFF 		bl	chSysUnlock
 373              		.loc 5 88 0 is_stmt 1 discriminator 2
 374 0032 0023     		movs	r3, #0
 375 0034 0393     		str	r3, [sp, #12]
 376 0036 18E0     		b	.L20
 377              	.L22:
 378              		.loc 5 89 0
 379 0038 039B     		ldr	r3, [sp, #12]
 380 003a 4233     		adds	r3, r3, #66
 381 003c 1900     		movs	r1, r3
 382 003e CF4A     		ldr	r2, .L107+4
 383 0040 CD4B     		ldr	r3, .L107
 384 0042 1800     		movs	r0, r3
 385 0044 FFF7FEFF 		bl	chMBPost
 386 0048 0300     		movs	r3, r0
 387 004a 0293     		str	r3, [sp, #8]
 388              		.loc 5 90 0
 389 004c 029B     		ldr	r3, [sp, #8]
 390 004e 5A42     		rsbs	r2, r3, #0
 391 0050 5341     		adcs	r3, r3, r2
 392 0052 DBB2     		uxtb	r3, r3
 393 0054 1900     		movs	r1, r3
 394 0056 0220     		movs	r0, #2
 395 0058 FFF7FEFF 		bl	_test_assert
 396 005c 031E     		subs	r3, r0, #0
 397 005e 01D0     		beq	.LCB244
 398 0060 00F098FB 		bl	.L75	@far jump
ARM GAS  /tmp/cc3GneUP.s 			page 8


 399              	.LCB244:
 400              		.loc 5 88 0 discriminator 2
 401 0064 039B     		ldr	r3, [sp, #12]
 402 0066 0133     		adds	r3, r3, #1
 403 0068 0393     		str	r3, [sp, #12]
 404              	.L20:
 405              		.loc 5 88 0 is_stmt 0 discriminator 1
 406 006a 039B     		ldr	r3, [sp, #12]
 407 006c 032B     		cmp	r3, #3
 408 006e E3D9     		bls	.L22
 409              		.loc 5 92 0 is_stmt 1
 410 0070 C24A     		ldr	r2, .L107+4
 411 0072 C14B     		ldr	r3, .L107
 412 0074 4121     		movs	r1, #65
 413 0076 1800     		movs	r0, r3
 414 0078 FFF7FEFF 		bl	chMBPostAhead
 415 007c 0300     		movs	r3, r0
 416 007e 0293     		str	r3, [sp, #8]
 417              		.loc 5 93 0
 418 0080 029B     		ldr	r3, [sp, #8]
 419 0082 5A42     		rsbs	r2, r3, #0
 420 0084 5341     		adcs	r3, r3, r2
 421 0086 DBB2     		uxtb	r3, r3
 422 0088 1900     		movs	r1, r3
 423 008a 0320     		movs	r0, #3
 424 008c FFF7FEFF 		bl	_test_assert
 425 0090 031E     		subs	r3, r0, #0
 426 0092 01D0     		beq	.LCB268
 427 0094 00F080FB 		bl	.L76	@far jump
 428              	.LCB268:
 429              		.loc 5 98 0
 430 0098 B74B     		ldr	r3, .L107
 431 009a 0122     		movs	r2, #1
 432 009c 5821     		movs	r1, #88
 433 009e 1800     		movs	r0, r3
 434 00a0 FFF7FEFF 		bl	chMBPost
 435 00a4 0300     		movs	r3, r0
 436 00a6 0293     		str	r3, [sp, #8]
 437              		.loc 5 99 0
 438 00a8 029B     		ldr	r3, [sp, #8]
 439 00aa 0133     		adds	r3, r3, #1
 440 00ac 5A42     		rsbs	r2, r3, #0
 441 00ae 5341     		adcs	r3, r3, r2
 442 00b0 DBB2     		uxtb	r3, r3
 443 00b2 1900     		movs	r1, r3
 444 00b4 0420     		movs	r0, #4
 445 00b6 FFF7FEFF 		bl	_test_assert
 446 00ba 031E     		subs	r3, r0, #0
 447 00bc 00D0     		beq	.LCB285
 448 00be 6DE3     		b	.L77	@long jump
 449              	.LCB285:
 450              		.loc 5 100 0
 451 00c0 FFF7FEFF 		bl	chSysLock
 452              		.loc 5 101 0
 453 00c4 AC4B     		ldr	r3, .L107
 454 00c6 5821     		movs	r1, #88
 455 00c8 1800     		movs	r0, r3
ARM GAS  /tmp/cc3GneUP.s 			page 9


 456 00ca FFF7FEFF 		bl	chMBPostI
 457 00ce 0300     		movs	r3, r0
 458 00d0 0293     		str	r3, [sp, #8]
 459              		.loc 5 102 0
 460 00d2 FFF7FEFF 		bl	chSysUnlock
 461              		.loc 5 103 0
 462 00d6 029B     		ldr	r3, [sp, #8]
 463 00d8 0133     		adds	r3, r3, #1
 464 00da 5A42     		rsbs	r2, r3, #0
 465 00dc 5341     		adcs	r3, r3, r2
 466 00de DBB2     		uxtb	r3, r3
 467 00e0 1900     		movs	r1, r3
 468 00e2 0520     		movs	r0, #5
 469 00e4 FFF7FEFF 		bl	_test_assert
 470 00e8 031E     		subs	r3, r0, #0
 471 00ea 00D0     		beq	.LCB303
 472 00ec 58E3     		b	.L78	@long jump
 473              	.LCB303:
 474              		.loc 5 104 0
 475 00ee A24B     		ldr	r3, .L107
 476 00f0 0122     		movs	r2, #1
 477 00f2 5821     		movs	r1, #88
 478 00f4 1800     		movs	r0, r3
 479 00f6 FFF7FEFF 		bl	chMBPostAhead
 480 00fa 0300     		movs	r3, r0
 481 00fc 0293     		str	r3, [sp, #8]
 482              		.loc 5 105 0
 483 00fe 029B     		ldr	r3, [sp, #8]
 484 0100 0133     		adds	r3, r3, #1
 485 0102 5A42     		rsbs	r2, r3, #0
 486 0104 5341     		adcs	r3, r3, r2
 487 0106 DBB2     		uxtb	r3, r3
 488 0108 1900     		movs	r1, r3
 489 010a 0620     		movs	r0, #6
 490 010c FFF7FEFF 		bl	_test_assert
 491 0110 031E     		subs	r3, r0, #0
 492 0112 00D0     		beq	.LCB320
 493 0114 46E3     		b	.L79	@long jump
 494              	.LCB320:
 495              		.loc 5 106 0
 496 0116 FFF7FEFF 		bl	chSysLock
 497              		.loc 5 107 0
 498 011a 974B     		ldr	r3, .L107
 499 011c 5821     		movs	r1, #88
 500 011e 1800     		movs	r0, r3
 501 0120 FFF7FEFF 		bl	chMBPostAheadI
 502 0124 0300     		movs	r3, r0
 503 0126 0293     		str	r3, [sp, #8]
 504              		.loc 5 108 0
 505 0128 FFF7FEFF 		bl	chSysUnlock
 506              		.loc 5 109 0
 507 012c 029B     		ldr	r3, [sp, #8]
 508 012e 0133     		adds	r3, r3, #1
 509 0130 5A42     		rsbs	r2, r3, #0
 510 0132 5341     		adcs	r3, r3, r2
 511 0134 DBB2     		uxtb	r3, r3
 512 0136 1900     		movs	r1, r3
ARM GAS  /tmp/cc3GneUP.s 			page 10


 513 0138 0720     		movs	r0, #7
 514 013a FFF7FEFF 		bl	_test_assert
 515 013e 031E     		subs	r3, r0, #0
 516 0140 00D0     		beq	.LCB338
 517 0142 31E3     		b	.L80	@long jump
 518              	.LCB338:
 519              		.loc 5 114 0
 520 0144 FFF7FEFF 		bl	chSysLock
 521 0148 8B4B     		ldr	r3, .L107
 522 014a 1800     		movs	r0, r3
 523 014c FFF7FEFF 		bl	chMBGetFreeCountI
 524 0150 0300     		movs	r3, r0
 525 0152 5A42     		rsbs	r2, r3, #0
 526 0154 5341     		adcs	r3, r3, r2
 527 0156 DBB2     		uxtb	r3, r3
 528 0158 1900     		movs	r1, r3
 529 015a 0820     		movs	r0, #8
 530 015c FFF7FEFF 		bl	_test_assert
 531 0160 031E     		subs	r3, r0, #0
 532 0162 02D0     		beq	.L28
 533              		.loc 5 114 0 is_stmt 0 discriminator 1
 534 0164 FFF7FEFF 		bl	chSysUnlock
 535 0168 53E3     		b	.L17
 536              	.L28:
 537              		.loc 5 114 0 discriminator 2
 538 016a FFF7FEFF 		bl	chSysUnlock
 539              		.loc 5 115 0 is_stmt 1 discriminator 2
 540 016e FFF7FEFF 		bl	chSysLock
 541 0172 814B     		ldr	r3, .L107
 542 0174 1800     		movs	r0, r3
 543 0176 FFF7FEFF 		bl	chMBGetUsedCountI
 544 017a 0300     		movs	r3, r0
 545 017c 053B     		subs	r3, r3, #5
 546 017e 5A42     		rsbs	r2, r3, #0
 547 0180 5341     		adcs	r3, r3, r2
 548 0182 DBB2     		uxtb	r3, r3
 549 0184 1900     		movs	r1, r3
 550 0186 0920     		movs	r0, #9
 551 0188 FFF7FEFF 		bl	_test_assert
 552 018c 031E     		subs	r3, r0, #0
 553 018e 02D0     		beq	.L29
 554              		.loc 5 115 0 is_stmt 0 discriminator 1
 555 0190 FFF7FEFF 		bl	chSysUnlock
 556 0194 3DE3     		b	.L17
 557              	.L29:
 558              		.loc 5 115 0 discriminator 2
 559 0196 FFF7FEFF 		bl	chSysUnlock
 560              		.loc 5 116 0 is_stmt 1 discriminator 2
 561 019a FFF7FEFF 		bl	chSysLock
 562 019e 764B     		ldr	r3, .L107
 563 01a0 DA68     		ldr	r2, [r3, #12]
 564 01a2 754B     		ldr	r3, .L107
 565 01a4 9B68     		ldr	r3, [r3, #8]
 566 01a6 D31A     		subs	r3, r2, r3
 567 01a8 5A42     		rsbs	r2, r3, #0
 568 01aa 5341     		adcs	r3, r3, r2
 569 01ac DBB2     		uxtb	r3, r3
ARM GAS  /tmp/cc3GneUP.s 			page 11


 570 01ae 1900     		movs	r1, r3
 571 01b0 0A20     		movs	r0, #10
 572 01b2 FFF7FEFF 		bl	_test_assert
 573 01b6 031E     		subs	r3, r0, #0
 574 01b8 02D0     		beq	.L30
 575              		.loc 5 116 0 is_stmt 0 discriminator 1
 576 01ba FFF7FEFF 		bl	chSysUnlock
 577 01be 28E3     		b	.L17
 578              	.L30:
 579              		.loc 5 116 0 discriminator 2
 580 01c0 FFF7FEFF 		bl	chSysUnlock
 581              		.loc 5 121 0 is_stmt 1 discriminator 2
 582 01c4 0023     		movs	r3, #0
 583 01c6 0393     		str	r3, [sp, #12]
 584 01c8 1AE0     		b	.L31
 585              	.L33:
 586              		.loc 5 122 0
 587 01ca 6C4A     		ldr	r2, .L107+4
 588 01cc 01A9     		add	r1, sp, #4
 589 01ce 6A4B     		ldr	r3, .L107
 590 01d0 1800     		movs	r0, r3
 591 01d2 FFF7FEFF 		bl	chMBFetch
 592 01d6 0300     		movs	r3, r0
 593 01d8 0293     		str	r3, [sp, #8]
 594              		.loc 5 123 0
 595 01da 029B     		ldr	r3, [sp, #8]
 596 01dc 5A42     		rsbs	r2, r3, #0
 597 01de 5341     		adcs	r3, r3, r2
 598 01e0 DBB2     		uxtb	r3, r3
 599 01e2 1900     		movs	r1, r3
 600 01e4 0B20     		movs	r0, #11
 601 01e6 FFF7FEFF 		bl	_test_assert
 602 01ea 031E     		subs	r3, r0, #0
 603 01ec 00D0     		beq	.LCB419
 604 01ee DDE2     		b	.L81	@long jump
 605              	.LCB419:
 606              		.loc 5 124 0 discriminator 2
 607 01f0 019B     		ldr	r3, [sp, #4]
 608 01f2 DBB2     		uxtb	r3, r3
 609 01f4 1800     		movs	r0, r3
 610 01f6 FFF7FEFF 		bl	test_emit_token
 611              		.loc 5 121 0 discriminator 2
 612 01fa 039B     		ldr	r3, [sp, #12]
 613 01fc 0133     		adds	r3, r3, #1
 614 01fe 0393     		str	r3, [sp, #12]
 615              	.L31:
 616              		.loc 5 121 0 is_stmt 0 discriminator 1
 617 0200 039B     		ldr	r3, [sp, #12]
 618 0202 042B     		cmp	r3, #4
 619 0204 E1D9     		bls	.L33
 620              		.loc 5 126 0 is_stmt 1
 621 0206 5E4B     		ldr	r3, .L107+8
 622 0208 1900     		movs	r1, r3
 623 020a 0C20     		movs	r0, #12
 624 020c FFF7FEFF 		bl	_test_assert_sequence
 625 0210 031E     		subs	r3, r0, #0
 626 0212 00D0     		beq	.LCB438
ARM GAS  /tmp/cc3GneUP.s 			page 12


 627 0214 CCE2     		b	.L82	@long jump
 628              	.LCB438:
 629              		.loc 5 131 0
 630 0216 039B     		ldr	r3, [sp, #12]
 631 0218 4233     		adds	r3, r3, #66
 632 021a 1900     		movs	r1, r3
 633 021c 574A     		ldr	r2, .L107+4
 634 021e 564B     		ldr	r3, .L107
 635 0220 1800     		movs	r0, r3
 636 0222 FFF7FEFF 		bl	chMBPost
 637 0226 0300     		movs	r3, r0
 638 0228 0293     		str	r3, [sp, #8]
 639              		.loc 5 132 0
 640 022a 029B     		ldr	r3, [sp, #8]
 641 022c 5A42     		rsbs	r2, r3, #0
 642 022e 5341     		adcs	r3, r3, r2
 643 0230 DBB2     		uxtb	r3, r3
 644 0232 1900     		movs	r1, r3
 645 0234 0D20     		movs	r0, #13
 646 0236 FFF7FEFF 		bl	_test_assert
 647 023a 031E     		subs	r3, r0, #0
 648 023c 00D0     		beq	.LCB456
 649 023e B9E2     		b	.L83	@long jump
 650              	.LCB456:
 651              		.loc 5 133 0
 652 0240 4E4A     		ldr	r2, .L107+4
 653 0242 01A9     		add	r1, sp, #4
 654 0244 4C4B     		ldr	r3, .L107
 655 0246 1800     		movs	r0, r3
 656 0248 FFF7FEFF 		bl	chMBFetch
 657 024c 0300     		movs	r3, r0
 658 024e 0293     		str	r3, [sp, #8]
 659              		.loc 5 134 0
 660 0250 029B     		ldr	r3, [sp, #8]
 661 0252 5A42     		rsbs	r2, r3, #0
 662 0254 5341     		adcs	r3, r3, r2
 663 0256 DBB2     		uxtb	r3, r3
 664 0258 1900     		movs	r1, r3
 665 025a 0E20     		movs	r0, #14
 666 025c FFF7FEFF 		bl	_test_assert
 667 0260 031E     		subs	r3, r0, #0
 668 0262 00D0     		beq	.LCB472
 669 0264 A8E2     		b	.L84	@long jump
 670              	.LCB472:
 671              		.loc 5 135 0
 672 0266 444B     		ldr	r3, .L107
 673 0268 1A68     		ldr	r2, [r3]
 674 026a 434B     		ldr	r3, .L107
 675 026c 9B68     		ldr	r3, [r3, #8]
 676 026e D31A     		subs	r3, r2, r3
 677 0270 5A42     		rsbs	r2, r3, #0
 678 0272 5341     		adcs	r3, r3, r2
 679 0274 DBB2     		uxtb	r3, r3
 680 0276 1900     		movs	r1, r3
 681 0278 0F20     		movs	r0, #15
 682 027a FFF7FEFF 		bl	_test_assert
 683 027e 031E     		subs	r3, r0, #0
ARM GAS  /tmp/cc3GneUP.s 			page 13


 684 0280 00D0     		beq	.LCB485
 685 0282 9BE2     		b	.L85	@long jump
 686              	.LCB485:
 687              		.loc 5 136 0
 688 0284 3C4B     		ldr	r3, .L107
 689 0286 1A68     		ldr	r2, [r3]
 690 0288 3B4B     		ldr	r3, .L107
 691 028a DB68     		ldr	r3, [r3, #12]
 692 028c D31A     		subs	r3, r2, r3
 693 028e 5A42     		rsbs	r2, r3, #0
 694 0290 5341     		adcs	r3, r3, r2
 695 0292 DBB2     		uxtb	r3, r3
 696 0294 1900     		movs	r1, r3
 697 0296 1020     		movs	r0, #16
 698 0298 FFF7FEFF 		bl	_test_assert
 699 029c 031E     		subs	r3, r0, #0
 700 029e 00D0     		beq	.LCB498
 701 02a0 8EE2     		b	.L86	@long jump
 702              	.LCB498:
 703              		.loc 5 141 0
 704 02a2 01A9     		add	r1, sp, #4
 705 02a4 344B     		ldr	r3, .L107
 706 02a6 0122     		movs	r2, #1
 707 02a8 1800     		movs	r0, r3
 708 02aa FFF7FEFF 		bl	chMBFetch
 709 02ae 0300     		movs	r3, r0
 710 02b0 0293     		str	r3, [sp, #8]
 711              		.loc 5 142 0
 712 02b2 029B     		ldr	r3, [sp, #8]
 713 02b4 0133     		adds	r3, r3, #1
 714 02b6 5A42     		rsbs	r2, r3, #0
 715 02b8 5341     		adcs	r3, r3, r2
 716 02ba DBB2     		uxtb	r3, r3
 717 02bc 1900     		movs	r1, r3
 718 02be 1120     		movs	r0, #17
 719 02c0 FFF7FEFF 		bl	_test_assert
 720 02c4 031E     		subs	r3, r0, #0
 721 02c6 00D0     		beq	.LCB515
 722 02c8 7CE2     		b	.L87	@long jump
 723              	.LCB515:
 724              		.loc 5 143 0
 725 02ca FFF7FEFF 		bl	chSysLock
 726              		.loc 5 144 0
 727 02ce 01AA     		add	r2, sp, #4
 728 02d0 294B     		ldr	r3, .L107
 729 02d2 1100     		movs	r1, r2
 730 02d4 1800     		movs	r0, r3
 731 02d6 FFF7FEFF 		bl	chMBFetchI
 732 02da 0300     		movs	r3, r0
 733 02dc 0293     		str	r3, [sp, #8]
 734              		.loc 5 145 0
 735 02de FFF7FEFF 		bl	chSysUnlock
 736              		.loc 5 146 0
 737 02e2 029B     		ldr	r3, [sp, #8]
 738 02e4 0133     		adds	r3, r3, #1
 739 02e6 5A42     		rsbs	r2, r3, #0
 740 02e8 5341     		adcs	r3, r3, r2
ARM GAS  /tmp/cc3GneUP.s 			page 14


 741 02ea DBB2     		uxtb	r3, r3
 742 02ec 1900     		movs	r1, r3
 743 02ee 1220     		movs	r0, #18
 744 02f0 FFF7FEFF 		bl	_test_assert
 745 02f4 031E     		subs	r3, r0, #0
 746 02f6 00D0     		beq	.LCB534
 747 02f8 66E2     		b	.L88	@long jump
 748              	.LCB534:
 749              		.loc 5 151 0
 750 02fa FFF7FEFF 		bl	chSysLock
 751 02fe 1E4B     		ldr	r3, .L107
 752 0300 1800     		movs	r0, r3
 753 0302 FFF7FEFF 		bl	chMBGetFreeCountI
 754 0306 0300     		movs	r3, r0
 755 0308 053B     		subs	r3, r3, #5
 756 030a 5A42     		rsbs	r2, r3, #0
 757 030c 5341     		adcs	r3, r3, r2
 758 030e DBB2     		uxtb	r3, r3
 759 0310 1900     		movs	r1, r3
 760 0312 1320     		movs	r0, #19
 761 0314 FFF7FEFF 		bl	_test_assert
 762 0318 031E     		subs	r3, r0, #0
 763 031a 02D0     		beq	.L41
 764              		.loc 5 151 0 is_stmt 0 discriminator 1
 765 031c FFF7FEFF 		bl	chSysUnlock
 766 0320 77E2     		b	.L17
 767              	.L41:
 768              		.loc 5 151 0 discriminator 2
 769 0322 FFF7FEFF 		bl	chSysUnlock
 770              		.loc 5 152 0 is_stmt 1 discriminator 2
 771 0326 FFF7FEFF 		bl	chSysLock
 772 032a 134B     		ldr	r3, .L107
 773 032c 1800     		movs	r0, r3
 774 032e FFF7FEFF 		bl	chMBGetUsedCountI
 775 0332 0300     		movs	r3, r0
 776 0334 5A42     		rsbs	r2, r3, #0
 777 0336 5341     		adcs	r3, r3, r2
 778 0338 DBB2     		uxtb	r3, r3
 779 033a 1900     		movs	r1, r3
 780 033c 1420     		movs	r0, #20
 781 033e FFF7FEFF 		bl	_test_assert
 782 0342 031E     		subs	r3, r0, #0
 783 0344 02D0     		beq	.L42
 784              		.loc 5 152 0 is_stmt 0 discriminator 1
 785 0346 FFF7FEFF 		bl	chSysUnlock
 786 034a 62E2     		b	.L17
 787              	.L42:
 788              		.loc 5 152 0 discriminator 2
 789 034c FFF7FEFF 		bl	chSysUnlock
 790              		.loc 5 153 0 is_stmt 1 discriminator 2
 791 0350 FFF7FEFF 		bl	chSysLock
 792 0354 084B     		ldr	r3, .L107
 793 0356 DA68     		ldr	r2, [r3, #12]
 794 0358 074B     		ldr	r3, .L107
 795 035a 9B68     		ldr	r3, [r3, #8]
 796 035c D31A     		subs	r3, r2, r3
 797 035e 5A42     		rsbs	r2, r3, #0
ARM GAS  /tmp/cc3GneUP.s 			page 15


 798 0360 5341     		adcs	r3, r3, r2
 799 0362 DBB2     		uxtb	r3, r3
 800 0364 1900     		movs	r1, r3
 801 0366 1520     		movs	r0, #21
 802 0368 FFF7FEFF 		bl	_test_assert
 803 036c 031E     		subs	r3, r0, #0
 804 036e 09D0     		beq	.L43
 805              		.loc 5 153 0 is_stmt 0 discriminator 1
 806 0370 FFF7FEFF 		bl	chSysUnlock
 807 0374 4DE2     		b	.L17
 808              	.L108:
 809 0376 C046     		.align	2
 810              	.L107:
 811 0378 00000000 		.word	mb1
 812 037c FFFF0000 		.word	65535
 813 0380 00000000 		.word	.LC5
 814              	.L43:
 815              		.loc 5 153 0 discriminator 2
 816 0384 FFF7FEFF 		bl	chSysUnlock
 817              		.loc 5 158 0 is_stmt 1 discriminator 2
 818 0388 FFF7FEFF 		bl	chSysLock
 819              		.loc 5 159 0 discriminator 2
 820 038c DE4B     		ldr	r3, .L109
 821 038e 4121     		movs	r1, #65
 822 0390 1800     		movs	r0, r3
 823 0392 FFF7FEFF 		bl	chMBPostI
 824 0396 0300     		movs	r3, r0
 825 0398 0293     		str	r3, [sp, #8]
 826              		.loc 5 160 0 discriminator 2
 827 039a 029B     		ldr	r3, [sp, #8]
 828 039c 5A42     		rsbs	r2, r3, #0
 829 039e 5341     		adcs	r3, r3, r2
 830 03a0 DBB2     		uxtb	r3, r3
 831 03a2 1900     		movs	r1, r3
 832 03a4 1620     		movs	r0, #22
 833 03a6 FFF7FEFF 		bl	_test_assert
 834 03aa 031E     		subs	r3, r0, #0
 835 03ac 00D0     		beq	.LCB617
 836 03ae 0DE2     		b	.L89	@long jump
 837              	.LCB617:
 838              		.loc 5 161 0
 839 03b0 D54B     		ldr	r3, .L109
 840 03b2 4221     		movs	r1, #66
 841 03b4 1800     		movs	r0, r3
 842 03b6 FFF7FEFF 		bl	chMBPostI
 843 03ba 0300     		movs	r3, r0
 844 03bc 0293     		str	r3, [sp, #8]
 845              		.loc 5 162 0
 846 03be 029B     		ldr	r3, [sp, #8]
 847 03c0 5A42     		rsbs	r2, r3, #0
 848 03c2 5341     		adcs	r3, r3, r2
 849 03c4 DBB2     		uxtb	r3, r3
 850 03c6 1900     		movs	r1, r3
 851 03c8 1720     		movs	r0, #23
 852 03ca FFF7FEFF 		bl	_test_assert
 853 03ce 031E     		subs	r3, r0, #0
 854 03d0 00D0     		beq	.LCB632
ARM GAS  /tmp/cc3GneUP.s 			page 16


 855 03d2 FDE1     		b	.L90	@long jump
 856              	.LCB632:
 857              		.loc 5 163 0
 858 03d4 CC4B     		ldr	r3, .L109
 859 03d6 4321     		movs	r1, #67
 860 03d8 1800     		movs	r0, r3
 861 03da FFF7FEFF 		bl	chMBPostI
 862 03de 0300     		movs	r3, r0
 863 03e0 0293     		str	r3, [sp, #8]
 864              		.loc 5 164 0
 865 03e2 029B     		ldr	r3, [sp, #8]
 866 03e4 5A42     		rsbs	r2, r3, #0
 867 03e6 5341     		adcs	r3, r3, r2
 868 03e8 DBB2     		uxtb	r3, r3
 869 03ea 1900     		movs	r1, r3
 870 03ec 1820     		movs	r0, #24
 871 03ee FFF7FEFF 		bl	_test_assert
 872 03f2 031E     		subs	r3, r0, #0
 873 03f4 00D0     		beq	.LCB647
 874 03f6 EDE1     		b	.L91	@long jump
 875              	.LCB647:
 876              		.loc 5 165 0
 877 03f8 C34B     		ldr	r3, .L109
 878 03fa 4421     		movs	r1, #68
 879 03fc 1800     		movs	r0, r3
 880 03fe FFF7FEFF 		bl	chMBPostI
 881 0402 0300     		movs	r3, r0
 882 0404 0293     		str	r3, [sp, #8]
 883              		.loc 5 166 0
 884 0406 029B     		ldr	r3, [sp, #8]
 885 0408 5A42     		rsbs	r2, r3, #0
 886 040a 5341     		adcs	r3, r3, r2
 887 040c DBB2     		uxtb	r3, r3
 888 040e 1900     		movs	r1, r3
 889 0410 1920     		movs	r0, #25
 890 0412 FFF7FEFF 		bl	_test_assert
 891 0416 031E     		subs	r3, r0, #0
 892 0418 00D0     		beq	.LCB662
 893 041a DDE1     		b	.L92	@long jump
 894              	.LCB662:
 895              		.loc 5 167 0
 896 041c BA4B     		ldr	r3, .L109
 897 041e 4521     		movs	r1, #69
 898 0420 1800     		movs	r0, r3
 899 0422 FFF7FEFF 		bl	chMBPostI
 900 0426 0300     		movs	r3, r0
 901 0428 0293     		str	r3, [sp, #8]
 902              		.loc 5 168 0
 903 042a FFF7FEFF 		bl	chSysUnlock
 904              		.loc 5 169 0
 905 042e 029B     		ldr	r3, [sp, #8]
 906 0430 5A42     		rsbs	r2, r3, #0
 907 0432 5341     		adcs	r3, r3, r2
 908 0434 DBB2     		uxtb	r3, r3
 909 0436 1900     		movs	r1, r3
 910 0438 1A20     		movs	r0, #26
 911 043a FFF7FEFF 		bl	_test_assert
ARM GAS  /tmp/cc3GneUP.s 			page 17


 912 043e 031E     		subs	r3, r0, #0
 913 0440 00D0     		beq	.LCB678
 914 0442 CBE1     		b	.L93	@long jump
 915              	.LCB678:
 916              		.loc 5 170 0
 917 0444 B04B     		ldr	r3, .L109
 918 0446 DA68     		ldr	r2, [r3, #12]
 919 0448 AF4B     		ldr	r3, .L109
 920 044a 9B68     		ldr	r3, [r3, #8]
 921 044c D31A     		subs	r3, r2, r3
 922 044e 5A42     		rsbs	r2, r3, #0
 923 0450 5341     		adcs	r3, r3, r2
 924 0452 DBB2     		uxtb	r3, r3
 925 0454 1900     		movs	r1, r3
 926 0456 1B20     		movs	r0, #27
 927 0458 FFF7FEFF 		bl	_test_assert
 928 045c 031E     		subs	r3, r0, #0
 929 045e 00D0     		beq	.LCB691
 930 0460 BEE1     		b	.L94	@long jump
 931              	.LCB691:
 932              		.loc 5 171 0
 933 0462 0023     		movs	r3, #0
 934 0464 0393     		str	r3, [sp, #12]
 935 0466 1EE0     		b	.L50
 936              	.L52:
 937              		.loc 5 172 0
 938 0468 FFF7FEFF 		bl	chSysLock
 939              		.loc 5 173 0
 940 046c 01AA     		add	r2, sp, #4
 941 046e A64B     		ldr	r3, .L109
 942 0470 1100     		movs	r1, r2
 943 0472 1800     		movs	r0, r3
 944 0474 FFF7FEFF 		bl	chMBFetchI
 945 0478 0300     		movs	r3, r0
 946 047a 0293     		str	r3, [sp, #8]
 947              		.loc 5 174 0
 948 047c FFF7FEFF 		bl	chSysUnlock
 949              		.loc 5 175 0
 950 0480 029B     		ldr	r3, [sp, #8]
 951 0482 5A42     		rsbs	r2, r3, #0
 952 0484 5341     		adcs	r3, r3, r2
 953 0486 DBB2     		uxtb	r3, r3
 954 0488 1900     		movs	r1, r3
 955 048a 1C20     		movs	r0, #28
 956 048c FFF7FEFF 		bl	_test_assert
 957 0490 031E     		subs	r3, r0, #0
 958 0492 00D0     		beq	.LCB715
 959 0494 A6E1     		b	.L95	@long jump
 960              	.LCB715:
 961              		.loc 5 176 0 discriminator 2
 962 0496 019B     		ldr	r3, [sp, #4]
 963 0498 DBB2     		uxtb	r3, r3
 964 049a 1800     		movs	r0, r3
 965 049c FFF7FEFF 		bl	test_emit_token
 966              		.loc 5 171 0 discriminator 2
 967 04a0 039B     		ldr	r3, [sp, #12]
 968 04a2 0133     		adds	r3, r3, #1
ARM GAS  /tmp/cc3GneUP.s 			page 18


 969 04a4 0393     		str	r3, [sp, #12]
 970              	.L50:
 971              		.loc 5 171 0 is_stmt 0 discriminator 1
 972 04a6 039B     		ldr	r3, [sp, #12]
 973 04a8 042B     		cmp	r3, #4
 974 04aa DDD9     		bls	.L52
 975              		.loc 5 178 0 is_stmt 1
 976 04ac 974B     		ldr	r3, .L109+4
 977 04ae 1900     		movs	r1, r3
 978 04b0 1D20     		movs	r0, #29
 979 04b2 FFF7FEFF 		bl	_test_assert_sequence
 980 04b6 031E     		subs	r3, r0, #0
 981 04b8 00D0     		beq	.LCB734
 982 04ba 95E1     		b	.L96	@long jump
 983              	.LCB734:
 984              		.loc 5 179 0
 985 04bc FFF7FEFF 		bl	chSysLock
 986 04c0 914B     		ldr	r3, .L109
 987 04c2 1800     		movs	r0, r3
 988 04c4 FFF7FEFF 		bl	chMBGetFreeCountI
 989 04c8 0300     		movs	r3, r0
 990 04ca 053B     		subs	r3, r3, #5
 991 04cc 5A42     		rsbs	r2, r3, #0
 992 04ce 5341     		adcs	r3, r3, r2
 993 04d0 DBB2     		uxtb	r3, r3
 994 04d2 1900     		movs	r1, r3
 995 04d4 1E20     		movs	r0, #30
 996 04d6 FFF7FEFF 		bl	_test_assert
 997 04da 031E     		subs	r3, r0, #0
 998 04dc 02D0     		beq	.L54
 999              		.loc 5 179 0 is_stmt 0 discriminator 1
 1000 04de FFF7FEFF 		bl	chSysUnlock
 1001 04e2 96E1     		b	.L17
 1002              	.L54:
 1003              		.loc 5 179 0 discriminator 2
 1004 04e4 FFF7FEFF 		bl	chSysUnlock
 1005              		.loc 5 180 0 is_stmt 1 discriminator 2
 1006 04e8 FFF7FEFF 		bl	chSysLock
 1007 04ec 864B     		ldr	r3, .L109
 1008 04ee 1800     		movs	r0, r3
 1009 04f0 FFF7FEFF 		bl	chMBGetUsedCountI
 1010 04f4 0300     		movs	r3, r0
 1011 04f6 5A42     		rsbs	r2, r3, #0
 1012 04f8 5341     		adcs	r3, r3, r2
 1013 04fa DBB2     		uxtb	r3, r3
 1014 04fc 1900     		movs	r1, r3
 1015 04fe 1F20     		movs	r0, #31
 1016 0500 FFF7FEFF 		bl	_test_assert
 1017 0504 031E     		subs	r3, r0, #0
 1018 0506 02D0     		beq	.L55
 1019              		.loc 5 180 0 is_stmt 0 discriminator 1
 1020 0508 FFF7FEFF 		bl	chSysUnlock
 1021 050c 81E1     		b	.L17
 1022              	.L55:
 1023              		.loc 5 180 0 discriminator 2
 1024 050e FFF7FEFF 		bl	chSysUnlock
 1025              		.loc 5 181 0 is_stmt 1 discriminator 2
ARM GAS  /tmp/cc3GneUP.s 			page 19


 1026 0512 7D4B     		ldr	r3, .L109
 1027 0514 DA68     		ldr	r2, [r3, #12]
 1028 0516 7C4B     		ldr	r3, .L109
 1029 0518 9B68     		ldr	r3, [r3, #8]
 1030 051a D31A     		subs	r3, r2, r3
 1031 051c 5A42     		rsbs	r2, r3, #0
 1032 051e 5341     		adcs	r3, r3, r2
 1033 0520 DBB2     		uxtb	r3, r3
 1034 0522 1900     		movs	r1, r3
 1035 0524 2020     		movs	r0, #32
 1036 0526 FFF7FEFF 		bl	_test_assert
 1037 052a 031E     		subs	r3, r0, #0
 1038 052c 00D0     		beq	.LCB786
 1039 052e 5DE1     		b	.L97	@long jump
 1040              	.LCB786:
 1041              		.loc 5 183 0
 1042 0530 FFF7FEFF 		bl	chSysLock
 1043              		.loc 5 184 0
 1044 0534 744B     		ldr	r3, .L109
 1045 0536 4521     		movs	r1, #69
 1046 0538 1800     		movs	r0, r3
 1047 053a FFF7FEFF 		bl	chMBPostAheadI
 1048 053e 0300     		movs	r3, r0
 1049 0540 0293     		str	r3, [sp, #8]
 1050              		.loc 5 185 0
 1051 0542 029B     		ldr	r3, [sp, #8]
 1052 0544 5A42     		rsbs	r2, r3, #0
 1053 0546 5341     		adcs	r3, r3, r2
 1054 0548 DBB2     		uxtb	r3, r3
 1055 054a 1900     		movs	r1, r3
 1056 054c 2120     		movs	r0, #33
 1057 054e FFF7FEFF 		bl	_test_assert
 1058 0552 031E     		subs	r3, r0, #0
 1059 0554 00D0     		beq	.LCB802
 1060 0556 4BE1     		b	.L98	@long jump
 1061              	.LCB802:
 1062              		.loc 5 186 0
 1063 0558 6B4B     		ldr	r3, .L109
 1064 055a 4421     		movs	r1, #68
 1065 055c 1800     		movs	r0, r3
 1066 055e FFF7FEFF 		bl	chMBPostAheadI
 1067 0562 0300     		movs	r3, r0
 1068 0564 0293     		str	r3, [sp, #8]
 1069              		.loc 5 187 0
 1070 0566 029B     		ldr	r3, [sp, #8]
 1071 0568 5A42     		rsbs	r2, r3, #0
 1072 056a 5341     		adcs	r3, r3, r2
 1073 056c DBB2     		uxtb	r3, r3
 1074 056e 1900     		movs	r1, r3
 1075 0570 2220     		movs	r0, #34
 1076 0572 FFF7FEFF 		bl	_test_assert
 1077 0576 031E     		subs	r3, r0, #0
 1078 0578 00D0     		beq	.LCB817
 1079 057a 3BE1     		b	.L99	@long jump
 1080              	.LCB817:
 1081              		.loc 5 188 0
 1082 057c 624B     		ldr	r3, .L109
ARM GAS  /tmp/cc3GneUP.s 			page 20


 1083 057e 4321     		movs	r1, #67
 1084 0580 1800     		movs	r0, r3
 1085 0582 FFF7FEFF 		bl	chMBPostAheadI
 1086 0586 0300     		movs	r3, r0
 1087 0588 0293     		str	r3, [sp, #8]
 1088              		.loc 5 189 0
 1089 058a 029B     		ldr	r3, [sp, #8]
 1090 058c 5A42     		rsbs	r2, r3, #0
 1091 058e 5341     		adcs	r3, r3, r2
 1092 0590 DBB2     		uxtb	r3, r3
 1093 0592 1900     		movs	r1, r3
 1094 0594 2320     		movs	r0, #35
 1095 0596 FFF7FEFF 		bl	_test_assert
 1096 059a 031E     		subs	r3, r0, #0
 1097 059c 00D0     		beq	.LCB832
 1098 059e 2BE1     		b	.L100	@long jump
 1099              	.LCB832:
 1100              		.loc 5 190 0
 1101 05a0 594B     		ldr	r3, .L109
 1102 05a2 4221     		movs	r1, #66
 1103 05a4 1800     		movs	r0, r3
 1104 05a6 FFF7FEFF 		bl	chMBPostAheadI
 1105 05aa 0300     		movs	r3, r0
 1106 05ac 0293     		str	r3, [sp, #8]
 1107              		.loc 5 191 0
 1108 05ae 029B     		ldr	r3, [sp, #8]
 1109 05b0 5A42     		rsbs	r2, r3, #0
 1110 05b2 5341     		adcs	r3, r3, r2
 1111 05b4 DBB2     		uxtb	r3, r3
 1112 05b6 1900     		movs	r1, r3
 1113 05b8 2420     		movs	r0, #36
 1114 05ba FFF7FEFF 		bl	_test_assert
 1115 05be 031E     		subs	r3, r0, #0
 1116 05c0 00D0     		beq	.LCB847
 1117 05c2 1BE1     		b	.L101	@long jump
 1118              	.LCB847:
 1119              		.loc 5 192 0
 1120 05c4 504B     		ldr	r3, .L109
 1121 05c6 4121     		movs	r1, #65
 1122 05c8 1800     		movs	r0, r3
 1123 05ca FFF7FEFF 		bl	chMBPostAheadI
 1124 05ce 0300     		movs	r3, r0
 1125 05d0 0293     		str	r3, [sp, #8]
 1126              		.loc 5 193 0
 1127 05d2 FFF7FEFF 		bl	chSysUnlock
 1128              		.loc 5 194 0
 1129 05d6 029B     		ldr	r3, [sp, #8]
 1130 05d8 5A42     		rsbs	r2, r3, #0
 1131 05da 5341     		adcs	r3, r3, r2
 1132 05dc DBB2     		uxtb	r3, r3
 1133 05de 1900     		movs	r1, r3
 1134 05e0 2520     		movs	r0, #37
 1135 05e2 FFF7FEFF 		bl	_test_assert
 1136 05e6 031E     		subs	r3, r0, #0
 1137 05e8 00D0     		beq	.LCB863
 1138 05ea 09E1     		b	.L102	@long jump
 1139              	.LCB863:
ARM GAS  /tmp/cc3GneUP.s 			page 21


 1140              		.loc 5 195 0
 1141 05ec 464B     		ldr	r3, .L109
 1142 05ee DA68     		ldr	r2, [r3, #12]
 1143 05f0 454B     		ldr	r3, .L109
 1144 05f2 9B68     		ldr	r3, [r3, #8]
 1145 05f4 D31A     		subs	r3, r2, r3
 1146 05f6 5A42     		rsbs	r2, r3, #0
 1147 05f8 5341     		adcs	r3, r3, r2
 1148 05fa DBB2     		uxtb	r3, r3
 1149 05fc 1900     		movs	r1, r3
 1150 05fe 2620     		movs	r0, #38
 1151 0600 FFF7FEFF 		bl	_test_assert
 1152 0604 031E     		subs	r3, r0, #0
 1153 0606 00D0     		beq	.LCB876
 1154 0608 FCE0     		b	.L103	@long jump
 1155              	.LCB876:
 1156              		.loc 5 196 0
 1157 060a 0023     		movs	r3, #0
 1158 060c 0393     		str	r3, [sp, #12]
 1159 060e 1EE0     		b	.L63
 1160              	.L65:
 1161              		.loc 5 197 0
 1162 0610 FFF7FEFF 		bl	chSysLock
 1163              		.loc 5 198 0
 1164 0614 01AA     		add	r2, sp, #4
 1165 0616 3C4B     		ldr	r3, .L109
 1166 0618 1100     		movs	r1, r2
 1167 061a 1800     		movs	r0, r3
 1168 061c FFF7FEFF 		bl	chMBFetchI
 1169 0620 0300     		movs	r3, r0
 1170 0622 0293     		str	r3, [sp, #8]
 1171              		.loc 5 199 0
 1172 0624 FFF7FEFF 		bl	chSysUnlock
 1173              		.loc 5 200 0
 1174 0628 029B     		ldr	r3, [sp, #8]
 1175 062a 5A42     		rsbs	r2, r3, #0
 1176 062c 5341     		adcs	r3, r3, r2
 1177 062e DBB2     		uxtb	r3, r3
 1178 0630 1900     		movs	r1, r3
 1179 0632 2720     		movs	r0, #39
 1180 0634 FFF7FEFF 		bl	_test_assert
 1181 0638 031E     		subs	r3, r0, #0
 1182 063a 00D0     		beq	.LCB900
 1183 063c E4E0     		b	.L104	@long jump
 1184              	.LCB900:
 1185              		.loc 5 201 0 discriminator 2
 1186 063e 019B     		ldr	r3, [sp, #4]
 1187 0640 DBB2     		uxtb	r3, r3
 1188 0642 1800     		movs	r0, r3
 1189 0644 FFF7FEFF 		bl	test_emit_token
 1190              		.loc 5 196 0 discriminator 2
 1191 0648 039B     		ldr	r3, [sp, #12]
 1192 064a 0133     		adds	r3, r3, #1
 1193 064c 0393     		str	r3, [sp, #12]
 1194              	.L63:
 1195              		.loc 5 196 0 is_stmt 0 discriminator 1
 1196 064e 039B     		ldr	r3, [sp, #12]
ARM GAS  /tmp/cc3GneUP.s 			page 22


 1197 0650 042B     		cmp	r3, #4
 1198 0652 DDD9     		bls	.L65
 1199              		.loc 5 203 0 is_stmt 1
 1200 0654 2D4B     		ldr	r3, .L109+4
 1201 0656 1900     		movs	r1, r3
 1202 0658 2820     		movs	r0, #40
 1203 065a FFF7FEFF 		bl	_test_assert_sequence
 1204 065e 031E     		subs	r3, r0, #0
 1205 0660 00D0     		beq	.LCB919
 1206 0662 D3E0     		b	.L105	@long jump
 1207              	.LCB919:
 1208              		.loc 5 204 0
 1209 0664 FFF7FEFF 		bl	chSysLock
 1210 0668 274B     		ldr	r3, .L109
 1211 066a 1800     		movs	r0, r3
 1212 066c FFF7FEFF 		bl	chMBGetFreeCountI
 1213 0670 0300     		movs	r3, r0
 1214 0672 053B     		subs	r3, r3, #5
 1215 0674 5A42     		rsbs	r2, r3, #0
 1216 0676 5341     		adcs	r3, r3, r2
 1217 0678 DBB2     		uxtb	r3, r3
 1218 067a 1900     		movs	r1, r3
 1219 067c 2920     		movs	r0, #41
 1220 067e FFF7FEFF 		bl	_test_assert
 1221 0682 031E     		subs	r3, r0, #0
 1222 0684 02D0     		beq	.L67
 1223              		.loc 5 204 0 is_stmt 0 discriminator 1
 1224 0686 FFF7FEFF 		bl	chSysUnlock
 1225 068a C2E0     		b	.L17
 1226              	.L67:
 1227              		.loc 5 204 0 discriminator 2
 1228 068c FFF7FEFF 		bl	chSysUnlock
 1229              		.loc 5 205 0 is_stmt 1 discriminator 2
 1230 0690 FFF7FEFF 		bl	chSysLock
 1231 0694 1C4B     		ldr	r3, .L109
 1232 0696 1800     		movs	r0, r3
 1233 0698 FFF7FEFF 		bl	chMBGetUsedCountI
 1234 069c 0300     		movs	r3, r0
 1235 069e 5A42     		rsbs	r2, r3, #0
 1236 06a0 5341     		adcs	r3, r3, r2
 1237 06a2 DBB2     		uxtb	r3, r3
 1238 06a4 1900     		movs	r1, r3
 1239 06a6 2A20     		movs	r0, #42
 1240 06a8 FFF7FEFF 		bl	_test_assert
 1241 06ac 031E     		subs	r3, r0, #0
 1242 06ae 02D0     		beq	.L68
 1243              		.loc 5 205 0 is_stmt 0 discriminator 1
 1244 06b0 FFF7FEFF 		bl	chSysUnlock
 1245 06b4 ADE0     		b	.L17
 1246              	.L68:
 1247              		.loc 5 205 0 discriminator 2
 1248 06b6 FFF7FEFF 		bl	chSysUnlock
 1249              		.loc 5 206 0 is_stmt 1 discriminator 2
 1250 06ba 134B     		ldr	r3, .L109
 1251 06bc DA68     		ldr	r2, [r3, #12]
 1252 06be 124B     		ldr	r3, .L109
 1253 06c0 9B68     		ldr	r3, [r3, #8]
ARM GAS  /tmp/cc3GneUP.s 			page 23


 1254 06c2 D31A     		subs	r3, r2, r3
 1255 06c4 5A42     		rsbs	r2, r3, #0
 1256 06c6 5341     		adcs	r3, r3, r2
 1257 06c8 DBB2     		uxtb	r3, r3
 1258 06ca 1900     		movs	r1, r3
 1259 06cc 2B20     		movs	r0, #43
 1260 06ce FFF7FEFF 		bl	_test_assert
 1261 06d2 031E     		subs	r3, r0, #0
 1262 06d4 00D0     		beq	.LCB971
 1263 06d6 9BE0     		b	.L106	@long jump
 1264              	.LCB971:
 1265              		.loc 5 211 0
 1266 06d8 0B4B     		ldr	r3, .L109
 1267 06da 1800     		movs	r0, r3
 1268 06dc FFF7FEFF 		bl	chMBReset
 1269              		.loc 5 216 0
 1270 06e0 FFF7FEFF 		bl	chSysLock
 1271 06e4 084B     		ldr	r3, .L109
 1272 06e6 1800     		movs	r0, r3
 1273 06e8 FFF7FEFF 		bl	chMBGetFreeCountI
 1274 06ec 0300     		movs	r3, r0
 1275 06ee 053B     		subs	r3, r3, #5
 1276 06f0 5A42     		rsbs	r2, r3, #0
 1277 06f2 5341     		adcs	r3, r3, r2
 1278 06f4 DBB2     		uxtb	r3, r3
 1279 06f6 1900     		movs	r1, r3
 1280 06f8 2C20     		movs	r0, #44
 1281 06fa FFF7FEFF 		bl	_test_assert
 1282 06fe 031E     		subs	r3, r0, #0
 1283 0700 06D0     		beq	.L70
 1284              		.loc 5 216 0 is_stmt 0 discriminator 1
 1285 0702 FFF7FEFF 		bl	chSysUnlock
 1286 0706 84E0     		b	.L17
 1287              	.L110:
 1288              		.align	2
 1289              	.L109:
 1290 0708 00000000 		.word	mb1
 1291 070c 00000000 		.word	.LC5
 1292              	.L70:
 1293              		.loc 5 216 0 discriminator 2
 1294 0710 FFF7FEFF 		bl	chSysUnlock
 1295              		.loc 5 217 0 is_stmt 1 discriminator 2
 1296 0714 FFF7FEFF 		bl	chSysLock
 1297 0718 3F4B     		ldr	r3, .L111
 1298 071a 1800     		movs	r0, r3
 1299 071c FFF7FEFF 		bl	chMBGetUsedCountI
 1300 0720 0300     		movs	r3, r0
 1301 0722 5A42     		rsbs	r2, r3, #0
 1302 0724 5341     		adcs	r3, r3, r2
 1303 0726 DBB2     		uxtb	r3, r3
 1304 0728 1900     		movs	r1, r3
 1305 072a 2D20     		movs	r0, #45
 1306 072c FFF7FEFF 		bl	_test_assert
 1307 0730 031E     		subs	r3, r0, #0
 1308 0732 02D0     		beq	.L71
 1309              		.loc 5 217 0 is_stmt 0 discriminator 1
 1310 0734 FFF7FEFF 		bl	chSysUnlock
ARM GAS  /tmp/cc3GneUP.s 			page 24


 1311 0738 6BE0     		b	.L17
 1312              	.L71:
 1313              		.loc 5 217 0 discriminator 2
 1314 073a FFF7FEFF 		bl	chSysUnlock
 1315              		.loc 5 218 0 is_stmt 1 discriminator 2
 1316 073e FFF7FEFF 		bl	chSysLock
 1317 0742 354B     		ldr	r3, .L111
 1318 0744 1A68     		ldr	r2, [r3]
 1319 0746 344B     		ldr	r3, .L111
 1320 0748 9B68     		ldr	r3, [r3, #8]
 1321 074a D31A     		subs	r3, r2, r3
 1322 074c 5A42     		rsbs	r2, r3, #0
 1323 074e 5341     		adcs	r3, r3, r2
 1324 0750 DBB2     		uxtb	r3, r3
 1325 0752 1900     		movs	r1, r3
 1326 0754 2E20     		movs	r0, #46
 1327 0756 FFF7FEFF 		bl	_test_assert
 1328 075a 031E     		subs	r3, r0, #0
 1329 075c 02D0     		beq	.L72
 1330              		.loc 5 218 0 is_stmt 0 discriminator 1
 1331 075e FFF7FEFF 		bl	chSysUnlock
 1332 0762 56E0     		b	.L17
 1333              	.L72:
 1334              		.loc 5 218 0 discriminator 2
 1335 0764 FFF7FEFF 		bl	chSysUnlock
 1336              		.loc 5 219 0 is_stmt 1 discriminator 2
 1337 0768 FFF7FEFF 		bl	chSysLock
 1338 076c 2A4B     		ldr	r3, .L111
 1339 076e 1A68     		ldr	r2, [r3]
 1340 0770 294B     		ldr	r3, .L111
 1341 0772 DB68     		ldr	r3, [r3, #12]
 1342 0774 D31A     		subs	r3, r2, r3
 1343 0776 5A42     		rsbs	r2, r3, #0
 1344 0778 5341     		adcs	r3, r3, r2
 1345 077a DBB2     		uxtb	r3, r3
 1346 077c 1900     		movs	r1, r3
 1347 077e 2F20     		movs	r0, #47
 1348 0780 FFF7FEFF 		bl	_test_assert
 1349 0784 031E     		subs	r3, r0, #0
 1350 0786 02D0     		beq	.L73
 1351              		.loc 5 219 0 is_stmt 0 discriminator 1
 1352 0788 FFF7FEFF 		bl	chSysUnlock
 1353 078c 41E0     		b	.L17
 1354              	.L73:
 1355              		.loc 5 219 0 discriminator 2
 1356 078e FFF7FEFF 		bl	chSysUnlock
 1357 0792 3EE0     		b	.L17
 1358              	.L75:
 1359              		.loc 5 90 0 is_stmt 1
 1360 0794 C046     		nop
 1361 0796 3CE0     		b	.L17
 1362              	.L76:
 1363              		.loc 5 93 0
 1364 0798 C046     		nop
 1365 079a 3AE0     		b	.L17
 1366              	.L77:
 1367              		.loc 5 99 0
ARM GAS  /tmp/cc3GneUP.s 			page 25


 1368 079c C046     		nop
 1369 079e 38E0     		b	.L17
 1370              	.L78:
 1371              		.loc 5 103 0
 1372 07a0 C046     		nop
 1373 07a2 36E0     		b	.L17
 1374              	.L79:
 1375              		.loc 5 105 0
 1376 07a4 C046     		nop
 1377 07a6 34E0     		b	.L17
 1378              	.L80:
 1379              		.loc 5 109 0
 1380 07a8 C046     		nop
 1381 07aa 32E0     		b	.L17
 1382              	.L81:
 1383              		.loc 5 123 0
 1384 07ac C046     		nop
 1385 07ae 30E0     		b	.L17
 1386              	.L82:
 1387              		.loc 5 126 0
 1388 07b0 C046     		nop
 1389 07b2 2EE0     		b	.L17
 1390              	.L83:
 1391              		.loc 5 132 0
 1392 07b4 C046     		nop
 1393 07b6 2CE0     		b	.L17
 1394              	.L84:
 1395              		.loc 5 134 0
 1396 07b8 C046     		nop
 1397 07ba 2AE0     		b	.L17
 1398              	.L85:
 1399              		.loc 5 135 0
 1400 07bc C046     		nop
 1401 07be 28E0     		b	.L17
 1402              	.L86:
 1403              		.loc 5 136 0
 1404 07c0 C046     		nop
 1405 07c2 26E0     		b	.L17
 1406              	.L87:
 1407              		.loc 5 142 0
 1408 07c4 C046     		nop
 1409 07c6 24E0     		b	.L17
 1410              	.L88:
 1411              		.loc 5 146 0
 1412 07c8 C046     		nop
 1413 07ca 22E0     		b	.L17
 1414              	.L89:
 1415              		.loc 5 160 0
 1416 07cc C046     		nop
 1417 07ce 20E0     		b	.L17
 1418              	.L90:
 1419              		.loc 5 162 0
 1420 07d0 C046     		nop
 1421 07d2 1EE0     		b	.L17
 1422              	.L91:
 1423              		.loc 5 164 0
 1424 07d4 C046     		nop
ARM GAS  /tmp/cc3GneUP.s 			page 26


 1425 07d6 1CE0     		b	.L17
 1426              	.L92:
 1427              		.loc 5 166 0
 1428 07d8 C046     		nop
 1429 07da 1AE0     		b	.L17
 1430              	.L93:
 1431              		.loc 5 169 0
 1432 07dc C046     		nop
 1433 07de 18E0     		b	.L17
 1434              	.L94:
 1435              		.loc 5 170 0
 1436 07e0 C046     		nop
 1437 07e2 16E0     		b	.L17
 1438              	.L95:
 1439              		.loc 5 175 0
 1440 07e4 C046     		nop
 1441 07e6 14E0     		b	.L17
 1442              	.L96:
 1443              		.loc 5 178 0
 1444 07e8 C046     		nop
 1445 07ea 12E0     		b	.L17
 1446              	.L97:
 1447              		.loc 5 181 0
 1448 07ec C046     		nop
 1449 07ee 10E0     		b	.L17
 1450              	.L98:
 1451              		.loc 5 185 0
 1452 07f0 C046     		nop
 1453 07f2 0EE0     		b	.L17
 1454              	.L99:
 1455              		.loc 5 187 0
 1456 07f4 C046     		nop
 1457 07f6 0CE0     		b	.L17
 1458              	.L100:
 1459              		.loc 5 189 0
 1460 07f8 C046     		nop
 1461 07fa 0AE0     		b	.L17
 1462              	.L101:
 1463              		.loc 5 191 0
 1464 07fc C046     		nop
 1465 07fe 08E0     		b	.L17
 1466              	.L102:
 1467              		.loc 5 194 0
 1468 0800 C046     		nop
 1469 0802 06E0     		b	.L17
 1470              	.L103:
 1471              		.loc 5 195 0
 1472 0804 C046     		nop
 1473 0806 04E0     		b	.L17
 1474              	.L104:
 1475              		.loc 5 200 0
 1476 0808 C046     		nop
 1477 080a 02E0     		b	.L17
 1478              	.L105:
 1479              		.loc 5 203 0
 1480 080c C046     		nop
 1481 080e 00E0     		b	.L17
ARM GAS  /tmp/cc3GneUP.s 			page 27


 1482              	.L106:
 1483              		.loc 5 206 0
 1484 0810 C046     		nop
 1485              	.L17:
 1486              		.loc 5 220 0
 1487 0812 05B0     		add	sp, sp, #20
 1488              		@ sp needed
 1489 0814 00BD     		pop	{pc}
 1490              	.L112:
 1491 0816 C046     		.align	2
 1492              	.L111:
 1493 0818 00000000 		.word	mb1
 1494              		.cfi_endproc
 1495              	.LFE153:
 1496              		.size	mbox1_execute, .-mbox1_execute
 1497              		.global	testmbox1
 1498              		.section	.rodata
 1499 0006 0000     		.align	2
 1500              	.LC7:
 1501 0008 4D61696C 		.ascii	"Mailboxes, queuing and timeouts\000"
 1501      626F7865 
 1501      732C2071 
 1501      75657569 
 1501      6E672061 
 1502              		.section	.rodata.testmbox1,"a",%progbits
 1503              		.align	2
 1504              		.type	testmbox1, %object
 1505              		.size	testmbox1, 16
 1506              	testmbox1:
 1507 0000 08000000 		.word	.LC7
 1508 0004 00000000 		.word	mbox1_setup
 1509 0008 00000000 		.word	0
 1510 000c 00000000 		.word	mbox1_execute
 1511              		.global	patternmbox
 1512              		.section	.rodata.patternmbox,"a",%progbits
 1513              		.align	2
 1514              		.type	patternmbox, %object
 1515              		.size	patternmbox, 8
 1516              	patternmbox:
 1517 0000 00000000 		.word	testmbox1
 1518 0004 00000000 		.word	0
 1519              		.section	.rodata.__func__.4993,"a",%progbits
 1520              		.align	2
 1521              		.type	__func__.4993, %object
 1522              		.size	__func__.4993, 12
 1523              	__func__.4993:
 1524 0000 63685379 		.ascii	"chSysUnlock\000"
 1524      73556E6C 
 1524      6F636B00 
 1525              		.text
 1526              	.Letext0:
 1527              		.file 6 "/home/felix/opt/gcc-arm-none-eabi-6-2017-q1-update/lib/gcc/arm-none-eabi/6.3.1/include/st
 1528              		.file 7 "/home/felix/opt/gcc-arm-none-eabi-6-2017-q1-update/arm-none-eabi/include/machine/_default
 1529              		.file 8 "/home/felix/opt/gcc-arm-none-eabi-6-2017-q1-update/arm-none-eabi/include/sys/_stdint.h"
 1530              		.file 9 "ChibiOS/os/rt/ports/ARMCMx/compilers/GCC/chtypes.h"
 1531              		.file 10 "ChibiOS/os/rt/include/chsystypes.h"
 1532              		.file 11 "ChibiOS/os/rt/include/chschd.h"
ARM GAS  /tmp/cc3GneUP.s 			page 28


 1533              		.file 12 "ChibiOS/os/rt/ports/ARMCMx/chcore.h"
 1534              		.file 13 "ChibiOS/os/rt/include/chdebug.h"
 1535              		.file 14 "ChibiOS/os/rt/include/chsem.h"
 1536              		.file 15 "ChibiOS/os/rt/include/chmtx.h"
 1537              		.file 16 "ChibiOS/os/rt/include/chregistry.h"
 1538              		.file 17 "ChibiOS/os/ext/CMSIS/ST/STM32F0xx/system_stm32f0xx.h"
 1539              		.file 18 "ChibiOS/test/rt/test.h"