ARM GAS  /tmp/ccinRW2a.s 			page 1


   1              		.cpu cortex-m0
   2              		.eabi_attribute 20, 1
   3              		.eabi_attribute 21, 1
   4              		.eabi_attribute 23, 3
   5              		.eabi_attribute 24, 1
   6              		.eabi_attribute 25, 1
   7              		.eabi_attribute 26, 1
   8              		.eabi_attribute 30, 6
   9              		.eabi_attribute 34, 0
  10              		.eabi_attribute 18, 4
  11              		.file	"testheap.c"
  12              		.text
  13              	.Ltext0:
  14              		.cfi_sections	.debug_frame
  15              		.section	.bss.test_heap,"aw",%nobits
  16              		.align	3
  17              		.type	test_heap, %object
  18              		.size	test_heap, 32
  19              	test_heap:
  20 0000 00000000 		.space	32
  20      00000000 
  20      00000000 
  20      00000000 
  20      00000000 
  21              		.section	.text.heap1_setup,"ax",%progbits
  22              		.align	1
  23              		.p2align 4,,15
  24              		.syntax unified
  25              		.code	16
  26              		.thumb_func
  27              		.fpu softvfp
  28              		.type	heap1_setup, %function
  29              	heap1_setup:
  30              	.LFB152:
  31              		.file 1 "ChibiOS/test/rt/testheap.c"
  32              		.loc 1 64 0
  33              		.cfi_startproc
  34              		@ args = 0, pretend = 0, frame = 0
  35              		@ frame_needed = 0, uses_anonymous_args = 0
  36 0000 10B5     		push	{r4, lr}
  37              		.cfi_def_cfa_offset 8
  38              		.cfi_offset 4, -8
  39              		.cfi_offset 14, -4
  40              		.loc 1 66 0
  41 0002 D223     		movs	r3, #210
  42 0004 DA00     		lsls	r2, r3, #3
  43 0006 0349     		ldr	r1, .L2
  44 0008 034B     		ldr	r3, .L2+4
  45 000a 1800     		movs	r0, r3
  46 000c FFF7FEFF 		bl	chHeapObjectInit
  47              		.loc 1 67 0
  48 0010 C046     		nop
  49              		@ sp needed
  50 0012 10BD     		pop	{r4, pc}
  51              	.L3:
  52              		.align	2
  53              	.L2:
ARM GAS  /tmp/ccinRW2a.s 			page 2


  54 0014 00000000 		.word	test
  55 0018 00000000 		.word	test_heap
  56              		.cfi_endproc
  57              	.LFE152:
  58              		.size	heap1_setup, .-heap1_setup
  59              		.section	.text.heap1_execute,"ax",%progbits
  60              		.align	1
  61              		.p2align 4,,15
  62              		.syntax unified
  63              		.code	16
  64              		.thumb_func
  65              		.fpu softvfp
  66              		.type	heap1_execute, %function
  67              	heap1_execute:
  68              	.LFB153:
  69              		.loc 1 69 0
  70              		.cfi_startproc
  71              		@ args = 0, pretend = 0, frame = 24
  72              		@ frame_needed = 0, uses_anonymous_args = 0
  73 0000 00B5     		push	{lr}
  74              		.cfi_def_cfa_offset 4
  75              		.cfi_offset 14, -4
  76 0002 87B0     		sub	sp, sp, #28
  77              		.cfi_def_cfa_offset 32
  78              		.loc 1 74 0
  79 0004 FFF7FEFF 		bl	chCoreGetStatusX
  80              		.loc 1 80 0
  81 0008 01AB     		add	r3, sp, #4
  82 000a 1900     		movs	r1, r3
  83 000c 0020     		movs	r0, #0
  84 000e FFF7FEFF 		bl	chHeapStatus
  85              		.loc 1 81 0
  86 0012 1021     		movs	r1, #16
  87 0014 0020     		movs	r0, #0
  88 0016 FFF7FEFF 		bl	chHeapAlloc
  89 001a 0300     		movs	r3, r0
  90 001c 0593     		str	r3, [sp, #20]
  91              		.loc 1 82 0
  92 001e 059B     		ldr	r3, [sp, #20]
  93 0020 5A1E     		subs	r2, r3, #1
  94 0022 9341     		sbcs	r3, r3, r2
  95 0024 DBB2     		uxtb	r3, r3
  96 0026 1900     		movs	r1, r3
  97 0028 0120     		movs	r0, #1
  98 002a FFF7FEFF 		bl	_test_assert
  99 002e 031E     		subs	r3, r0, #0
 100 0030 00D0     		beq	.LCB54
 101 0032 67E1     		b	.L22	@long jump
 102              	.LCB54:
 103              		.loc 1 83 0
 104 0034 059B     		ldr	r3, [sp, #20]
 105 0036 1800     		movs	r0, r3
 106 0038 FFF7FEFF 		bl	chHeapFree
 107              		.loc 1 84 0
 108 003c BD4B     		ldr	r3, .L33
 109 003e 1900     		movs	r1, r3
 110 0040 0020     		movs	r0, #0
ARM GAS  /tmp/ccinRW2a.s 			page 3


 111 0042 FFF7FEFF 		bl	chHeapAlloc
 112 0046 0300     		movs	r3, r0
 113 0048 0593     		str	r3, [sp, #20]
 114              		.loc 1 85 0
 115 004a 059B     		ldr	r3, [sp, #20]
 116 004c 5A42     		rsbs	r2, r3, #0
 117 004e 5341     		adcs	r3, r3, r2
 118 0050 DBB2     		uxtb	r3, r3
 119 0052 1900     		movs	r1, r3
 120 0054 0220     		movs	r0, #2
 121 0056 FFF7FEFF 		bl	_test_assert
 122 005a 031E     		subs	r3, r0, #0
 123 005c 00D0     		beq	.LCB72
 124 005e 53E1     		b	.L23	@long jump
 125              	.LCB72:
 126              		.loc 1 88 0
 127 0060 01AA     		add	r2, sp, #4
 128 0062 B54B     		ldr	r3, .L33+4
 129 0064 1100     		movs	r1, r2
 130 0066 1800     		movs	r0, r3
 131 0068 FFF7FEFF 		bl	chHeapStatus
 132              		.loc 1 91 0
 133 006c B24B     		ldr	r3, .L33+4
 134 006e 1021     		movs	r1, #16
 135 0070 1800     		movs	r0, r3
 136 0072 FFF7FEFF 		bl	chHeapAlloc
 137 0076 0300     		movs	r3, r0
 138 0078 0593     		str	r3, [sp, #20]
 139              		.loc 1 92 0
 140 007a AF4B     		ldr	r3, .L33+4
 141 007c 1021     		movs	r1, #16
 142 007e 1800     		movs	r0, r3
 143 0080 FFF7FEFF 		bl	chHeapAlloc
 144 0084 0300     		movs	r3, r0
 145 0086 0493     		str	r3, [sp, #16]
 146              		.loc 1 93 0
 147 0088 AB4B     		ldr	r3, .L33+4
 148 008a 1021     		movs	r1, #16
 149 008c 1800     		movs	r0, r3
 150 008e FFF7FEFF 		bl	chHeapAlloc
 151 0092 0300     		movs	r3, r0
 152 0094 0393     		str	r3, [sp, #12]
 153              		.loc 1 94 0
 154 0096 059B     		ldr	r3, [sp, #20]
 155 0098 1800     		movs	r0, r3
 156 009a FFF7FEFF 		bl	chHeapFree
 157              		.loc 1 95 0
 158 009e 049B     		ldr	r3, [sp, #16]
 159 00a0 1800     		movs	r0, r3
 160 00a2 FFF7FEFF 		bl	chHeapFree
 161              		.loc 1 96 0
 162 00a6 039B     		ldr	r3, [sp, #12]
 163 00a8 1800     		movs	r0, r3
 164 00aa FFF7FEFF 		bl	chHeapFree
 165              		.loc 1 97 0
 166 00ae 02AA     		add	r2, sp, #8
 167 00b0 A14B     		ldr	r3, .L33+4
ARM GAS  /tmp/ccinRW2a.s 			page 4


 168 00b2 1100     		movs	r1, r2
 169 00b4 1800     		movs	r0, r3
 170 00b6 FFF7FEFF 		bl	chHeapStatus
 171 00ba 0300     		movs	r3, r0
 172 00bc 013B     		subs	r3, r3, #1
 173 00be 5A42     		rsbs	r2, r3, #0
 174 00c0 5341     		adcs	r3, r3, r2
 175 00c2 DBB2     		uxtb	r3, r3
 176 00c4 1900     		movs	r1, r3
 177 00c6 0320     		movs	r0, #3
 178 00c8 FFF7FEFF 		bl	_test_assert
 179 00cc 031E     		subs	r3, r0, #0
 180 00ce 00D0     		beq	.LCB119
 181 00d0 1CE1     		b	.L24	@long jump
 182              	.LCB119:
 183              		.loc 1 100 0
 184 00d2 994B     		ldr	r3, .L33+4
 185 00d4 1021     		movs	r1, #16
 186 00d6 1800     		movs	r0, r3
 187 00d8 FFF7FEFF 		bl	chHeapAlloc
 188 00dc 0300     		movs	r3, r0
 189 00de 0593     		str	r3, [sp, #20]
 190              		.loc 1 101 0
 191 00e0 954B     		ldr	r3, .L33+4
 192 00e2 1021     		movs	r1, #16
 193 00e4 1800     		movs	r0, r3
 194 00e6 FFF7FEFF 		bl	chHeapAlloc
 195 00ea 0300     		movs	r3, r0
 196 00ec 0493     		str	r3, [sp, #16]
 197              		.loc 1 102 0
 198 00ee 924B     		ldr	r3, .L33+4
 199 00f0 1021     		movs	r1, #16
 200 00f2 1800     		movs	r0, r3
 201 00f4 FFF7FEFF 		bl	chHeapAlloc
 202 00f8 0300     		movs	r3, r0
 203 00fa 0393     		str	r3, [sp, #12]
 204              		.loc 1 103 0
 205 00fc 039B     		ldr	r3, [sp, #12]
 206 00fe 1800     		movs	r0, r3
 207 0100 FFF7FEFF 		bl	chHeapFree
 208              		.loc 1 104 0
 209 0104 049B     		ldr	r3, [sp, #16]
 210 0106 1800     		movs	r0, r3
 211 0108 FFF7FEFF 		bl	chHeapFree
 212              		.loc 1 105 0
 213 010c 059B     		ldr	r3, [sp, #20]
 214 010e 1800     		movs	r0, r3
 215 0110 FFF7FEFF 		bl	chHeapFree
 216              		.loc 1 106 0
 217 0114 02AA     		add	r2, sp, #8
 218 0116 884B     		ldr	r3, .L33+4
 219 0118 1100     		movs	r1, r2
 220 011a 1800     		movs	r0, r3
 221 011c FFF7FEFF 		bl	chHeapStatus
 222 0120 0300     		movs	r3, r0
 223 0122 013B     		subs	r3, r3, #1
 224 0124 5A42     		rsbs	r2, r3, #0
ARM GAS  /tmp/ccinRW2a.s 			page 5


 225 0126 5341     		adcs	r3, r3, r2
 226 0128 DBB2     		uxtb	r3, r3
 227 012a 1900     		movs	r1, r3
 228 012c 0420     		movs	r0, #4
 229 012e FFF7FEFF 		bl	_test_assert
 230 0132 031E     		subs	r3, r0, #0
 231 0134 00D0     		beq	.LCB161
 232 0136 EBE0     		b	.L25	@long jump
 233              	.LCB161:
 234              		.loc 1 109 0
 235 0138 7F4B     		ldr	r3, .L33+4
 236 013a 1121     		movs	r1, #17
 237 013c 1800     		movs	r0, r3
 238 013e FFF7FEFF 		bl	chHeapAlloc
 239 0142 0300     		movs	r3, r0
 240 0144 0593     		str	r3, [sp, #20]
 241              		.loc 1 110 0
 242 0146 7C4B     		ldr	r3, .L33+4
 243 0148 1021     		movs	r1, #16
 244 014a 1800     		movs	r0, r3
 245 014c FFF7FEFF 		bl	chHeapAlloc
 246 0150 0300     		movs	r3, r0
 247 0152 0493     		str	r3, [sp, #16]
 248              		.loc 1 111 0
 249 0154 059B     		ldr	r3, [sp, #20]
 250 0156 1800     		movs	r0, r3
 251 0158 FFF7FEFF 		bl	chHeapFree
 252              		.loc 1 112 0
 253 015c 02AA     		add	r2, sp, #8
 254 015e 764B     		ldr	r3, .L33+4
 255 0160 1100     		movs	r1, r2
 256 0162 1800     		movs	r0, r3
 257 0164 FFF7FEFF 		bl	chHeapStatus
 258 0168 0300     		movs	r3, r0
 259 016a 023B     		subs	r3, r3, #2
 260 016c 5A42     		rsbs	r2, r3, #0
 261 016e 5341     		adcs	r3, r3, r2
 262 0170 DBB2     		uxtb	r3, r3
 263 0172 1900     		movs	r1, r3
 264 0174 0520     		movs	r0, #5
 265 0176 FFF7FEFF 		bl	_test_assert
 266 017a 031E     		subs	r3, r0, #0
 267 017c 00D0     		beq	.LCB191
 268 017e C9E0     		b	.L26	@long jump
 269              	.LCB191:
 270              		.loc 1 113 0
 271 0180 6D4B     		ldr	r3, .L33+4
 272 0182 1021     		movs	r1, #16
 273 0184 1800     		movs	r0, r3
 274 0186 FFF7FEFF 		bl	chHeapAlloc
 275 018a 0300     		movs	r3, r0
 276 018c 0593     		str	r3, [sp, #20]
 277              		.loc 1 116 0
 278 018e 02AA     		add	r2, sp, #8
 279 0190 694B     		ldr	r3, .L33+4
 280 0192 1100     		movs	r1, r2
 281 0194 1800     		movs	r0, r3
ARM GAS  /tmp/ccinRW2a.s 			page 6


 282 0196 FFF7FEFF 		bl	chHeapStatus
 283 019a 0300     		movs	r3, r0
 284 019c 012B     		cmp	r3, #1
 285 019e 08D0     		beq	.L11
 286              		.loc 1 116 0 is_stmt 0 discriminator 2
 287 01a0 02AA     		add	r2, sp, #8
 288 01a2 654B     		ldr	r3, .L33+4
 289 01a4 1100     		movs	r1, r2
 290 01a6 1800     		movs	r0, r3
 291 01a8 FFF7FEFF 		bl	chHeapStatus
 292 01ac 0300     		movs	r3, r0
 293 01ae 022B     		cmp	r3, #2
 294 01b0 01D1     		bne	.L12
 295              	.L11:
 296              		.loc 1 116 0 discriminator 3
 297 01b2 0123     		movs	r3, #1
 298 01b4 00E0     		b	.L13
 299              	.L12:
 300              		.loc 1 116 0 discriminator 4
 301 01b6 0023     		movs	r3, #0
 302              	.L13:
 303              		.loc 1 116 0 discriminator 6
 304 01b8 1A1C     		adds	r2, r3, #0
 305 01ba 0123     		movs	r3, #1
 306 01bc 1340     		ands	r3, r2
 307 01be DBB2     		uxtb	r3, r3
 308 01c0 1900     		movs	r1, r3
 309 01c2 0620     		movs	r0, #6
 310 01c4 FFF7FEFF 		bl	_test_assert
 311 01c8 031E     		subs	r3, r0, #0
 312 01ca 00D0     		beq	.LCB232
 313 01cc A4E0     		b	.L27	@long jump
 314              	.LCB232:
 315              		.loc 1 118 0 is_stmt 1
 316 01ce 049B     		ldr	r3, [sp, #16]
 317 01d0 1800     		movs	r0, r3
 318 01d2 FFF7FEFF 		bl	chHeapFree
 319              		.loc 1 119 0
 320 01d6 059B     		ldr	r3, [sp, #20]
 321 01d8 1800     		movs	r0, r3
 322 01da FFF7FEFF 		bl	chHeapFree
 323              		.loc 1 120 0
 324 01de 02AA     		add	r2, sp, #8
 325 01e0 554B     		ldr	r3, .L33+4
 326 01e2 1100     		movs	r1, r2
 327 01e4 1800     		movs	r0, r3
 328 01e6 FFF7FEFF 		bl	chHeapStatus
 329 01ea 0300     		movs	r3, r0
 330 01ec 013B     		subs	r3, r3, #1
 331 01ee 5A42     		rsbs	r2, r3, #0
 332 01f0 5341     		adcs	r3, r3, r2
 333 01f2 DBB2     		uxtb	r3, r3
 334 01f4 1900     		movs	r1, r3
 335 01f6 0720     		movs	r0, #7
 336 01f8 FFF7FEFF 		bl	_test_assert
 337 01fc 031E     		subs	r3, r0, #0
 338 01fe 00D0     		beq	.LCB253
ARM GAS  /tmp/ccinRW2a.s 			page 7


 339 0200 8CE0     		b	.L28	@long jump
 340              	.LCB253:
 341              		.loc 1 123 0
 342 0202 4D4B     		ldr	r3, .L33+4
 343 0204 1021     		movs	r1, #16
 344 0206 1800     		movs	r0, r3
 345 0208 FFF7FEFF 		bl	chHeapAlloc
 346 020c 0300     		movs	r3, r0
 347 020e 0593     		str	r3, [sp, #20]
 348              		.loc 1 124 0
 349 0210 494B     		ldr	r3, .L33+4
 350 0212 1021     		movs	r1, #16
 351 0214 1800     		movs	r0, r3
 352 0216 FFF7FEFF 		bl	chHeapAlloc
 353 021a 0300     		movs	r3, r0
 354 021c 0493     		str	r3, [sp, #16]
 355              		.loc 1 125 0
 356 021e 059B     		ldr	r3, [sp, #20]
 357 0220 1800     		movs	r0, r3
 358 0222 FFF7FEFF 		bl	chHeapFree
 359              		.loc 1 126 0
 360 0226 02AA     		add	r2, sp, #8
 361 0228 434B     		ldr	r3, .L33+4
 362 022a 1100     		movs	r1, r2
 363 022c 1800     		movs	r0, r3
 364 022e FFF7FEFF 		bl	chHeapStatus
 365 0232 0300     		movs	r3, r0
 366 0234 023B     		subs	r3, r3, #2
 367 0236 5A42     		rsbs	r2, r3, #0
 368 0238 5341     		adcs	r3, r3, r2
 369 023a DBB2     		uxtb	r3, r3
 370 023c 1900     		movs	r1, r3
 371 023e 0820     		movs	r0, #8
 372 0240 FFF7FEFF 		bl	_test_assert
 373 0244 031E     		subs	r3, r0, #0
 374 0246 6BD1     		bne	.L29
 375              		.loc 1 127 0
 376 0248 3B4B     		ldr	r3, .L33+4
 377 024a 2021     		movs	r1, #32
 378 024c 1800     		movs	r0, r3
 379 024e FFF7FEFF 		bl	chHeapAlloc
 380 0252 0300     		movs	r3, r0
 381 0254 0593     		str	r3, [sp, #20]
 382              		.loc 1 128 0
 383 0256 059B     		ldr	r3, [sp, #20]
 384 0258 1800     		movs	r0, r3
 385 025a FFF7FEFF 		bl	chHeapFree
 386              		.loc 1 129 0
 387 025e 049B     		ldr	r3, [sp, #16]
 388 0260 1800     		movs	r0, r3
 389 0262 FFF7FEFF 		bl	chHeapFree
 390              		.loc 1 130 0
 391 0266 02AA     		add	r2, sp, #8
 392 0268 334B     		ldr	r3, .L33+4
 393 026a 1100     		movs	r1, r2
 394 026c 1800     		movs	r0, r3
 395 026e FFF7FEFF 		bl	chHeapStatus
ARM GAS  /tmp/ccinRW2a.s 			page 8


 396 0272 0300     		movs	r3, r0
 397 0274 013B     		subs	r3, r3, #1
 398 0276 5A42     		rsbs	r2, r3, #0
 399 0278 5341     		adcs	r3, r3, r2
 400 027a DBB2     		uxtb	r3, r3
 401 027c 1900     		movs	r1, r3
 402 027e 0920     		movs	r0, #9
 403 0280 FFF7FEFF 		bl	_test_assert
 404 0284 031E     		subs	r3, r0, #0
 405 0286 4DD1     		bne	.L30
 406              		.loc 1 133 0
 407 0288 02AA     		add	r2, sp, #8
 408 028a 2B4B     		ldr	r3, .L33+4
 409 028c 1100     		movs	r1, r2
 410 028e 1800     		movs	r0, r3
 411 0290 FFF7FEFF 		bl	chHeapStatus
 412              		.loc 1 134 0
 413 0294 029A     		ldr	r2, [sp, #8]
 414 0296 284B     		ldr	r3, .L33+4
 415 0298 1100     		movs	r1, r2
 416 029a 1800     		movs	r0, r3
 417 029c FFF7FEFF 		bl	chHeapAlloc
 418 02a0 0300     		movs	r3, r0
 419 02a2 0593     		str	r3, [sp, #20]
 420              		.loc 1 135 0
 421 02a4 02AA     		add	r2, sp, #8
 422 02a6 244B     		ldr	r3, .L33+4
 423 02a8 1100     		movs	r1, r2
 424 02aa 1800     		movs	r0, r3
 425 02ac FFF7FEFF 		bl	chHeapStatus
 426 02b0 0300     		movs	r3, r0
 427 02b2 5A42     		rsbs	r2, r3, #0
 428 02b4 5341     		adcs	r3, r3, r2
 429 02b6 DBB2     		uxtb	r3, r3
 430 02b8 1900     		movs	r1, r3
 431 02ba 0A20     		movs	r0, #10
 432 02bc FFF7FEFF 		bl	_test_assert
 433 02c0 031E     		subs	r3, r0, #0
 434 02c2 31D1     		bne	.L31
 435              		.loc 1 136 0
 436 02c4 059B     		ldr	r3, [sp, #20]
 437 02c6 1800     		movs	r0, r3
 438 02c8 FFF7FEFF 		bl	chHeapFree
 439              		.loc 1 138 0
 440 02cc 02AA     		add	r2, sp, #8
 441 02ce 1A4B     		ldr	r3, .L33+4
 442 02d0 1100     		movs	r1, r2
 443 02d2 1800     		movs	r0, r3
 444 02d4 FFF7FEFF 		bl	chHeapStatus
 445 02d8 0300     		movs	r3, r0
 446 02da 013B     		subs	r3, r3, #1
 447 02dc 5A42     		rsbs	r2, r3, #0
 448 02de 5341     		adcs	r3, r3, r2
 449 02e0 DBB2     		uxtb	r3, r3
 450 02e2 1900     		movs	r1, r3
 451 02e4 0B20     		movs	r0, #11
 452 02e6 FFF7FEFF 		bl	_test_assert
ARM GAS  /tmp/ccinRW2a.s 			page 9


 453 02ea 031E     		subs	r3, r0, #0
 454 02ec 1ED1     		bne	.L32
 455              		.loc 1 139 0
 456 02ee 029A     		ldr	r2, [sp, #8]
 457 02f0 019B     		ldr	r3, [sp, #4]
 458 02f2 D31A     		subs	r3, r2, r3
 459 02f4 5A42     		rsbs	r2, r3, #0
 460 02f6 5341     		adcs	r3, r3, r2
 461 02f8 DBB2     		uxtb	r3, r3
 462 02fa 1900     		movs	r1, r3
 463 02fc 0C20     		movs	r0, #12
 464 02fe FFF7FEFF 		bl	_test_assert
 465 0302 14E0     		b	.L4
 466              	.L22:
 467              		.loc 1 82 0
 468 0304 C046     		nop
 469 0306 12E0     		b	.L4
 470              	.L23:
 471              		.loc 1 85 0
 472 0308 C046     		nop
 473 030a 10E0     		b	.L4
 474              	.L24:
 475              		.loc 1 97 0
 476 030c C046     		nop
 477 030e 0EE0     		b	.L4
 478              	.L25:
 479              		.loc 1 106 0
 480 0310 C046     		nop
 481 0312 0CE0     		b	.L4
 482              	.L26:
 483              		.loc 1 112 0
 484 0314 C046     		nop
 485 0316 0AE0     		b	.L4
 486              	.L27:
 487              		.loc 1 116 0
 488 0318 C046     		nop
 489 031a 08E0     		b	.L4
 490              	.L28:
 491              		.loc 1 120 0
 492 031c C046     		nop
 493 031e 06E0     		b	.L4
 494              	.L29:
 495              		.loc 1 126 0
 496 0320 C046     		nop
 497 0322 04E0     		b	.L4
 498              	.L30:
 499              		.loc 1 130 0
 500 0324 C046     		nop
 501 0326 02E0     		b	.L4
 502              	.L31:
 503              		.loc 1 135 0
 504 0328 C046     		nop
 505 032a 00E0     		b	.L4
 506              	.L32:
 507              		.loc 1 138 0
 508 032c C046     		nop
 509              	.L4:
ARM GAS  /tmp/ccinRW2a.s 			page 10


 510              		.loc 1 140 0
 511 032e 07B0     		add	sp, sp, #28
 512              		@ sp needed
 513 0330 00BD     		pop	{pc}
 514              	.L34:
 515 0332 C046     		.align	2
 516              	.L33:
 517 0334 00FFFFFF 		.word	-256
 518 0338 00000000 		.word	test_heap
 519              		.cfi_endproc
 520              	.LFE153:
 521              		.size	heap1_execute, .-heap1_execute
 522              		.global	testheap1
 523              		.section	.rodata
 524              		.align	2
 525              	.LC3:
 526 0000 48656170 		.ascii	"Heap, allocation and fragmentation test\000"
 526      2C20616C 
 526      6C6F6361 
 526      74696F6E 
 526      20616E64 
 527              		.section	.rodata.testheap1,"a",%progbits
 528              		.align	2
 529              		.type	testheap1, %object
 530              		.size	testheap1, 16
 531              	testheap1:
 532 0000 00000000 		.word	.LC3
 533 0004 00000000 		.word	heap1_setup
 534 0008 00000000 		.word	0
 535 000c 00000000 		.word	heap1_execute
 536              		.global	patternheap
 537              		.section	.rodata.patternheap,"a",%progbits
 538              		.align	2
 539              		.type	patternheap, %object
 540              		.size	patternheap, 8
 541              	patternheap:
 542 0000 00000000 		.word	testheap1
 543 0004 00000000 		.word	0
 544              		.text
 545              	.Letext0:
 546              		.file 2 "/home/felix/opt/gcc-arm-none-eabi-6-2017-q1-update/lib/gcc/arm-none-eabi/6.3.1/include/st
 547              		.file 3 "/home/felix/opt/gcc-arm-none-eabi-6-2017-q1-update/arm-none-eabi/include/machine/_default
 548              		.file 4 "/home/felix/opt/gcc-arm-none-eabi-6-2017-q1-update/arm-none-eabi/include/sys/_stdint.h"
 549              		.file 5 "ChibiOS/os/rt/ports/ARMCMx/compilers/GCC/chtypes.h"
 550              		.file 6 "ChibiOS/os/rt/include/chsystypes.h"
 551              		.file 7 "ChibiOS/os/rt/include/chschd.h"
 552              		.file 8 "ChibiOS/os/rt/ports/ARMCMx/chcore.h"
 553              		.file 9 "ChibiOS/os/rt/ports/ARMCMx/chcore_v6m.h"
 554              		.file 10 "ChibiOS/os/rt/include/chdebug.h"
 555              		.file 11 "ChibiOS/os/rt/include/chsem.h"
 556              		.file 12 "ChibiOS/os/rt/include/chmtx.h"
 557              		.file 13 "ChibiOS/os/rt/include/chregistry.h"
 558              		.file 14 "ChibiOS/os/ext/CMSIS/ST/STM32F0xx/system_stm32f0xx.h"
 559              		.file 15 "ChibiOS/os/rt/include/chmemcore.h"
 560              		.file 16 "ChibiOS/os/rt/include/chheap.h"
 561              		.file 17 "ChibiOS/test/rt/test.h"