ARM GAS  /tmp/cci2tF7b.s 			page 1


   1              		.cpu cortex-m0
   2              		.eabi_attribute 20, 1
   3              		.eabi_attribute 21, 1
   4              		.eabi_attribute 23, 3
   5              		.eabi_attribute 24, 1
   6              		.eabi_attribute 25, 1
   7              		.eabi_attribute 26, 1
   8              		.eabi_attribute 30, 6
   9              		.eabi_attribute 34, 0
  10              		.eabi_attribute 18, 4
  11              		.file	"testpools.c"
  12              		.text
  13              	.Ltext0:
  14              		.cfi_sections	.debug_frame
  15              		.section	.data.mp1,"aw",%progbits
  16              		.align	2
  17              		.type	mp1, %object
  18              		.size	mp1, 12
  19              	mp1:
  20 0000 00000000 		.word	0
  21 0004 50010000 		.word	336
  22 0008 00000000 		.word	0
  23              		.section	.text.null_provider,"ax",%progbits
  24              		.align	1
  25              		.p2align 4,,15
  26              		.syntax unified
  27              		.code	16
  28              		.thumb_func
  29              		.fpu softvfp
  30              		.type	null_provider, %function
  31              	null_provider:
  32              	.LFB152:
  33              		.file 1 "ChibiOS/test/rt/testpools.c"
  34              		.loc 1 60 0
  35              		.cfi_startproc
  36              		@ args = 0, pretend = 0, frame = 8
  37              		@ frame_needed = 0, uses_anonymous_args = 0
  38              		@ link register save eliminated.
  39 0000 82B0     		sub	sp, sp, #8
  40              		.cfi_def_cfa_offset 8
  41 0002 0190     		str	r0, [sp, #4]
  42              		.loc 1 63 0
  43 0004 0023     		movs	r3, #0
  44              		.loc 1 64 0
  45 0006 1800     		movs	r0, r3
  46 0008 02B0     		add	sp, sp, #8
  47              		@ sp needed
  48 000a 7047     		bx	lr
  49              		.cfi_endproc
  50              	.LFE152:
  51              		.size	null_provider, .-null_provider
  52              		.section	.text.pools1_setup,"ax",%progbits
  53              		.align	1
  54              		.p2align 4,,15
  55              		.syntax unified
  56              		.code	16
  57              		.thumb_func
ARM GAS  /tmp/cci2tF7b.s 			page 2


  58              		.fpu softvfp
  59              		.type	pools1_setup, %function
  60              	pools1_setup:
  61              	.LFB153:
  62              		.loc 1 66 0
  63              		.cfi_startproc
  64              		@ args = 0, pretend = 0, frame = 0
  65              		@ frame_needed = 0, uses_anonymous_args = 0
  66 0000 10B5     		push	{r4, lr}
  67              		.cfi_def_cfa_offset 8
  68              		.cfi_offset 4, -8
  69              		.cfi_offset 14, -4
  70              		.loc 1 68 0
  71 0002 A823     		movs	r3, #168
  72 0004 5900     		lsls	r1, r3, #1
  73 0006 034B     		ldr	r3, .L4
  74 0008 0022     		movs	r2, #0
  75 000a 1800     		movs	r0, r3
  76 000c FFF7FEFF 		bl	chPoolObjectInit
  77              		.loc 1 69 0
  78 0010 C046     		nop
  79              		@ sp needed
  80 0012 10BD     		pop	{r4, pc}
  81              	.L5:
  82              		.align	2
  83              	.L4:
  84 0014 00000000 		.word	mp1
  85              		.cfi_endproc
  86              	.LFE153:
  87              		.size	pools1_setup, .-pools1_setup
  88              		.section	.text.pools1_execute,"ax",%progbits
  89              		.align	1
  90              		.p2align 4,,15
  91              		.syntax unified
  92              		.code	16
  93              		.thumb_func
  94              		.fpu softvfp
  95              		.type	pools1_execute, %function
  96              	pools1_execute:
  97              	.LFB154:
  98              		.loc 1 71 0
  99              		.cfi_startproc
 100              		@ args = 0, pretend = 0, frame = 8
 101              		@ frame_needed = 0, uses_anonymous_args = 0
 102 0000 00B5     		push	{lr}
 103              		.cfi_def_cfa_offset 4
 104              		.cfi_offset 14, -4
 105 0002 83B0     		sub	sp, sp, #12
 106              		.cfi_def_cfa_offset 16
 107              		.loc 1 75 0
 108 0004 3F4B     		ldr	r3, .L22
 109 0006 1968     		ldr	r1, [r3]
 110 0008 3F4B     		ldr	r3, .L22+4
 111 000a 0522     		movs	r2, #5
 112 000c 1800     		movs	r0, r3
 113 000e FFF7FEFF 		bl	chPoolLoadArray
 114              		.loc 1 78 0
ARM GAS  /tmp/cci2tF7b.s 			page 3


 115 0012 0023     		movs	r3, #0
 116 0014 0193     		str	r3, [sp, #4]
 117 0016 10E0     		b	.L7
 118              	.L10:
 119              		.loc 1 79 0
 120 0018 3B4B     		ldr	r3, .L22+4
 121 001a 1800     		movs	r0, r3
 122 001c FFF7FEFF 		bl	chPoolAlloc
 123 0020 0300     		movs	r3, r0
 124 0022 5A1E     		subs	r2, r3, #1
 125 0024 9341     		sbcs	r3, r3, r2
 126 0026 DBB2     		uxtb	r3, r3
 127 0028 1900     		movs	r1, r3
 128 002a 0120     		movs	r0, #1
 129 002c FFF7FEFF 		bl	_test_assert
 130 0030 031E     		subs	r3, r0, #0
 131 0032 5DD1     		bne	.L18
 132              		.loc 1 78 0 discriminator 2
 133 0034 019B     		ldr	r3, [sp, #4]
 134 0036 0133     		adds	r3, r3, #1
 135 0038 0193     		str	r3, [sp, #4]
 136              	.L7:
 137              		.loc 1 78 0 is_stmt 0 discriminator 1
 138 003a 019B     		ldr	r3, [sp, #4]
 139 003c 042B     		cmp	r3, #4
 140 003e EBDD     		ble	.L10
 141              		.loc 1 82 0 is_stmt 1
 142 0040 314B     		ldr	r3, .L22+4
 143 0042 1800     		movs	r0, r3
 144 0044 FFF7FEFF 		bl	chPoolAlloc
 145 0048 0300     		movs	r3, r0
 146 004a 5A42     		rsbs	r2, r3, #0
 147 004c 5341     		adcs	r3, r3, r2
 148 004e DBB2     		uxtb	r3, r3
 149 0050 1900     		movs	r1, r3
 150 0052 0220     		movs	r0, #2
 151 0054 FFF7FEFF 		bl	_test_assert
 152 0058 031E     		subs	r3, r0, #0
 153 005a 4BD1     		bne	.L19
 154              		.loc 1 85 0
 155 005c 0023     		movs	r3, #0
 156 005e 0193     		str	r3, [sp, #4]
 157 0060 0BE0     		b	.L12
 158              	.L13:
 159              		.loc 1 86 0 discriminator 3
 160 0062 284B     		ldr	r3, .L22
 161 0064 019A     		ldr	r2, [sp, #4]
 162 0066 9200     		lsls	r2, r2, #2
 163 0068 D258     		ldr	r2, [r2, r3]
 164 006a 274B     		ldr	r3, .L22+4
 165 006c 1100     		movs	r1, r2
 166 006e 1800     		movs	r0, r3
 167 0070 FFF7FEFF 		bl	chPoolFree
 168              		.loc 1 85 0 discriminator 3
 169 0074 019B     		ldr	r3, [sp, #4]
 170 0076 0133     		adds	r3, r3, #1
 171 0078 0193     		str	r3, [sp, #4]
ARM GAS  /tmp/cci2tF7b.s 			page 4


 172              	.L12:
 173              		.loc 1 85 0 is_stmt 0 discriminator 1
 174 007a 019B     		ldr	r3, [sp, #4]
 175 007c 042B     		cmp	r3, #4
 176 007e F0DD     		ble	.L13
 177              		.loc 1 89 0 is_stmt 1
 178 0080 0023     		movs	r3, #0
 179 0082 0193     		str	r3, [sp, #4]
 180 0084 10E0     		b	.L14
 181              	.L16:
 182              		.loc 1 90 0
 183 0086 204B     		ldr	r3, .L22+4
 184 0088 1800     		movs	r0, r3
 185 008a FFF7FEFF 		bl	chPoolAlloc
 186 008e 0300     		movs	r3, r0
 187 0090 5A1E     		subs	r2, r3, #1
 188 0092 9341     		sbcs	r3, r3, r2
 189 0094 DBB2     		uxtb	r3, r3
 190 0096 1900     		movs	r1, r3
 191 0098 0320     		movs	r0, #3
 192 009a FFF7FEFF 		bl	_test_assert
 193 009e 031E     		subs	r3, r0, #0
 194 00a0 2AD1     		bne	.L20
 195              		.loc 1 89 0 discriminator 2
 196 00a2 019B     		ldr	r3, [sp, #4]
 197 00a4 0133     		adds	r3, r3, #1
 198 00a6 0193     		str	r3, [sp, #4]
 199              	.L14:
 200              		.loc 1 89 0 is_stmt 0 discriminator 1
 201 00a8 019B     		ldr	r3, [sp, #4]
 202 00aa 042B     		cmp	r3, #4
 203 00ac EBDD     		ble	.L16
 204              		.loc 1 93 0 is_stmt 1
 205 00ae 164B     		ldr	r3, .L22+4
 206 00b0 1800     		movs	r0, r3
 207 00b2 FFF7FEFF 		bl	chPoolAlloc
 208 00b6 0300     		movs	r3, r0
 209 00b8 5A42     		rsbs	r2, r3, #0
 210 00ba 5341     		adcs	r3, r3, r2
 211 00bc DBB2     		uxtb	r3, r3
 212 00be 1900     		movs	r1, r3
 213 00c0 0420     		movs	r0, #4
 214 00c2 FFF7FEFF 		bl	_test_assert
 215 00c6 031E     		subs	r3, r0, #0
 216 00c8 18D1     		bne	.L21
 217              		.loc 1 96 0
 218 00ca 104A     		ldr	r2, .L22+8
 219 00cc 0E4B     		ldr	r3, .L22+4
 220 00ce 1021     		movs	r1, #16
 221 00d0 1800     		movs	r0, r3
 222 00d2 FFF7FEFF 		bl	chPoolObjectInit
 223              		.loc 1 97 0
 224 00d6 0C4B     		ldr	r3, .L22+4
 225 00d8 1800     		movs	r0, r3
 226 00da FFF7FEFF 		bl	chPoolAlloc
 227 00de 0300     		movs	r3, r0
 228 00e0 5A42     		rsbs	r2, r3, #0
ARM GAS  /tmp/cci2tF7b.s 			page 5


 229 00e2 5341     		adcs	r3, r3, r2
 230 00e4 DBB2     		uxtb	r3, r3
 231 00e6 1900     		movs	r1, r3
 232 00e8 0520     		movs	r0, #5
 233 00ea FFF7FEFF 		bl	_test_assert
 234 00ee 06E0     		b	.L6
 235              	.L18:
 236              		.loc 1 79 0
 237 00f0 C046     		nop
 238 00f2 04E0     		b	.L6
 239              	.L19:
 240              		.loc 1 82 0
 241 00f4 C046     		nop
 242 00f6 02E0     		b	.L6
 243              	.L20:
 244              		.loc 1 90 0
 245 00f8 C046     		nop
 246 00fa 00E0     		b	.L6
 247              	.L21:
 248              		.loc 1 93 0
 249 00fc C046     		nop
 250              	.L6:
 251              		.loc 1 98 0
 252 00fe 03B0     		add	sp, sp, #12
 253              		@ sp needed
 254 0100 00BD     		pop	{pc}
 255              	.L23:
 256 0102 C046     		.align	2
 257              	.L22:
 258 0104 00000000 		.word	wa
 259 0108 00000000 		.word	mp1
 260 010c 00000000 		.word	null_provider
 261              		.cfi_endproc
 262              	.LFE154:
 263              		.size	pools1_execute, .-pools1_execute
 264              		.global	testpools1
 265              		.section	.rodata
 266              		.align	2
 267              	.LC4:
 268 0000 4D656D6F 		.ascii	"Memory Pools, queue/dequeue\000"
 268      72792050 
 268      6F6F6C73 
 268      2C207175 
 268      6575652F 
 269              		.section	.rodata.testpools1,"a",%progbits
 270              		.align	2
 271              		.type	testpools1, %object
 272              		.size	testpools1, 16
 273              	testpools1:
 274 0000 00000000 		.word	.LC4
 275 0004 00000000 		.word	pools1_setup
 276 0008 00000000 		.word	0
 277 000c 00000000 		.word	pools1_execute
 278              		.global	patternpools
 279              		.section	.rodata.patternpools,"a",%progbits
 280              		.align	2
 281              		.type	patternpools, %object
ARM GAS  /tmp/cci2tF7b.s 			page 6


 282              		.size	patternpools, 8
 283              	patternpools:
 284 0000 00000000 		.word	testpools1
 285 0004 00000000 		.word	0
 286              		.text
 287              	.Letext0:
 288              		.file 2 "/home/felix/opt/gcc-arm-none-eabi-6-2017-q1-update/lib/gcc/arm-none-eabi/6.3.1/include/st
 289              		.file 3 "/home/felix/opt/gcc-arm-none-eabi-6-2017-q1-update/arm-none-eabi/include/machine/_default
 290              		.file 4 "/home/felix/opt/gcc-arm-none-eabi-6-2017-q1-update/arm-none-eabi/include/sys/_stdint.h"
 291              		.file 5 "ChibiOS/os/rt/ports/ARMCMx/compilers/GCC/chtypes.h"
 292              		.file 6 "ChibiOS/os/rt/include/chsystypes.h"
 293              		.file 7 "ChibiOS/os/rt/include/chschd.h"
 294              		.file 8 "ChibiOS/os/rt/ports/ARMCMx/chcore.h"
 295              		.file 9 "ChibiOS/os/rt/ports/ARMCMx/chcore_v6m.h"
 296              		.file 10 "ChibiOS/os/rt/include/chdebug.h"
 297              		.file 11 "ChibiOS/os/rt/include/chsem.h"
 298              		.file 12 "ChibiOS/os/rt/include/chmtx.h"
 299              		.file 13 "ChibiOS/os/rt/include/chregistry.h"
 300              		.file 14 "ChibiOS/os/ext/CMSIS/ST/STM32F0xx/system_stm32f0xx.h"
 301              		.file 15 "ChibiOS/os/rt/include/chmemcore.h"
 302              		.file 16 "ChibiOS/os/rt/include/chmempools.h"
 303              		.file 17 "ChibiOS/test/rt/test.h"
 304              		.section	.debug_info,"",%progbits
 305              	.Ldebug_info0:
 306 0000 410A0000 		.4byte	0xa41
 307 0004 0400     		.2byte	0x4
 308 0006 00000000 		.4byte	.Ldebug_abbrev0
 309 000a 04       		.byte	0x4
 310 000b 01       		.uleb128 0x1
 311 000c A2020000 		.4byte	.LASF158
 312 0010 0C       		.byte	0xc
 313 0011 E8040000 		.4byte	.LASF159
 314 0015 64010000 		.4byte	.LASF160
 315 0019 00000000 		.4byte	.Ldebug_ranges0+0
 316 001d 00000000 		.4byte	0
 317 0021 00000000 		.4byte	.Ldebug_line0
 318 0025 02       		.uleb128 0x2
 319 0026 04       		.byte	0x4
 320 0027 05       		.byte	0x5
 321 0028 696E7400 		.ascii	"int\000"
 322 002c 03       		.uleb128 0x3
 323 002d 71020000 		.4byte	.LASF4
 324 0031 02       		.byte	0x2
 325 0032 D8       		.byte	0xd8
 326 0033 37000000 		.4byte	0x37
 327 0037 04       		.uleb128 0x4
 328 0038 04       		.byte	0x4
 329 0039 07       		.byte	0x7
 330 003a 9D000000 		.4byte	.LASF0
 331 003e 04       		.uleb128 0x4
 332 003f 08       		.byte	0x8
 333 0040 05       		.byte	0x5
 334 0041 4D040000 		.4byte	.LASF1
 335 0045 04       		.uleb128 0x4
 336 0046 08       		.byte	0x8
 337 0047 04       		.byte	0x4
 338 0048 25050000 		.4byte	.LASF2
ARM GAS  /tmp/cci2tF7b.s 			page 7


 339 004c 04       		.uleb128 0x4
 340 004d 01       		.byte	0x1
 341 004e 06       		.byte	0x6
 342 004f 27070000 		.4byte	.LASF3
 343 0053 03       		.uleb128 0x3
 344 0054 DD050000 		.4byte	.LASF5
 345 0058 03       		.byte	0x3
 346 0059 2B       		.byte	0x2b
 347 005a 5E000000 		.4byte	0x5e
 348 005e 04       		.uleb128 0x4
 349 005f 01       		.byte	0x1
 350 0060 08       		.byte	0x8
 351 0061 91060000 		.4byte	.LASF6
 352 0065 04       		.uleb128 0x4
 353 0066 02       		.byte	0x2
 354 0067 05       		.byte	0x5
 355 0068 63050000 		.4byte	.LASF7
 356 006c 03       		.uleb128 0x3
 357 006d 1F020000 		.4byte	.LASF8
 358 0071 03       		.byte	0x3
 359 0072 39       		.byte	0x39
 360 0073 77000000 		.4byte	0x77
 361 0077 04       		.uleb128 0x4
 362 0078 02       		.byte	0x2
 363 0079 07       		.byte	0x7
 364 007a 40070000 		.4byte	.LASF9
 365 007e 03       		.uleb128 0x3
 366 007f B9000000 		.4byte	.LASF10
 367 0083 03       		.byte	0x3
 368 0084 4D       		.byte	0x4d
 369 0085 89000000 		.4byte	0x89
 370 0089 04       		.uleb128 0x4
 371 008a 04       		.byte	0x4
 372 008b 05       		.byte	0x5
 373 008c 8A050000 		.4byte	.LASF11
 374 0090 03       		.uleb128 0x3
 375 0091 A5060000 		.4byte	.LASF12
 376 0095 03       		.byte	0x3
 377 0096 4F       		.byte	0x4f
 378 0097 9B000000 		.4byte	0x9b
 379 009b 04       		.uleb128 0x4
 380 009c 04       		.byte	0x4
 381 009d 07       		.byte	0x7
 382 009e 2A060000 		.4byte	.LASF13
 383 00a2 03       		.uleb128 0x3
 384 00a3 79030000 		.4byte	.LASF14
 385 00a7 03       		.byte	0x3
 386 00a8 69       		.byte	0x69
 387 00a9 AD000000 		.4byte	0xad
 388 00ad 04       		.uleb128 0x4
 389 00ae 08       		.byte	0x8
 390 00af 07       		.byte	0x7
 391 00b0 D6010000 		.4byte	.LASF15
 392 00b4 03       		.uleb128 0x3
 393 00b5 F8030000 		.4byte	.LASF16
 394 00b9 04       		.byte	0x4
 395 00ba 18       		.byte	0x18
ARM GAS  /tmp/cci2tF7b.s 			page 8


 396 00bb 53000000 		.4byte	0x53
 397 00bf 03       		.uleb128 0x3
 398 00c0 31050000 		.4byte	.LASF17
 399 00c4 04       		.byte	0x4
 400 00c5 24       		.byte	0x24
 401 00c6 6C000000 		.4byte	0x6c
 402 00ca 03       		.uleb128 0x3
 403 00cb 5E060000 		.4byte	.LASF18
 404 00cf 04       		.byte	0x4
 405 00d0 2C       		.byte	0x2c
 406 00d1 7E000000 		.4byte	0x7e
 407 00d5 03       		.uleb128 0x3
 408 00d6 81010000 		.4byte	.LASF19
 409 00da 04       		.byte	0x4
 410 00db 30       		.byte	0x30
 411 00dc 90000000 		.4byte	0x90
 412 00e0 03       		.uleb128 0x3
 413 00e1 B0050000 		.4byte	.LASF20
 414 00e5 04       		.byte	0x4
 415 00e6 3C       		.byte	0x3c
 416 00e7 A2000000 		.4byte	0xa2
 417 00eb 03       		.uleb128 0x3
 418 00ec 0A050000 		.4byte	.LASF21
 419 00f0 05       		.byte	0x5
 420 00f1 3C       		.byte	0x3c
 421 00f2 B4000000 		.4byte	0xb4
 422 00f6 03       		.uleb128 0x3
 423 00f7 CE030000 		.4byte	.LASF22
 424 00fb 05       		.byte	0x5
 425 00fc 3D       		.byte	0x3d
 426 00fd B4000000 		.4byte	0xb4
 427 0101 03       		.uleb128 0x3
 428 0102 22060000 		.4byte	.LASF23
 429 0106 05       		.byte	0x5
 430 0107 3E       		.byte	0x3e
 431 0108 B4000000 		.4byte	0xb4
 432 010c 03       		.uleb128 0x3
 433 010d BD010000 		.4byte	.LASF24
 434 0111 05       		.byte	0x5
 435 0112 40       		.byte	0x40
 436 0113 D5000000 		.4byte	0xd5
 437 0117 03       		.uleb128 0x3
 438 0118 6B040000 		.4byte	.LASF25
 439 011c 05       		.byte	0x5
 440 011d 41       		.byte	0x41
 441 011e CA000000 		.4byte	0xca
 442 0122 03       		.uleb128 0x3
 443 0123 96010000 		.4byte	.LASF26
 444 0127 05       		.byte	0x5
 445 0128 43       		.byte	0x43
 446 0129 D5000000 		.4byte	0xd5
 447 012d 03       		.uleb128 0x3
 448 012e 2A020000 		.4byte	.LASF27
 449 0132 05       		.byte	0x5
 450 0133 45       		.byte	0x45
 451 0134 CA000000 		.4byte	0xca
 452 0138 03       		.uleb128 0x3
ARM GAS  /tmp/cci2tF7b.s 			page 9


 453 0139 64000000 		.4byte	.LASF28
 454 013d 06       		.byte	0x6
 455 013e 35       		.byte	0x35
 456 013f BF000000 		.4byte	0xbf
 457 0143 03       		.uleb128 0x3
 458 0144 68020000 		.4byte	.LASF29
 459 0148 06       		.byte	0x6
 460 0149 3F       		.byte	0x3f
 461 014a 4E010000 		.4byte	0x14e
 462 014e 05       		.uleb128 0x5
 463 014f 24040000 		.4byte	.LASF50
 464 0153 48       		.byte	0x48
 465 0154 07       		.byte	0x7
 466 0155 C2       		.byte	0xc2
 467 0156 47020000 		.4byte	0x247
 468 015a 06       		.uleb128 0x6
 469 015b A9050000 		.4byte	.LASF30
 470 015f 07       		.byte	0x7
 471 0160 C3       		.byte	0xc3
 472 0161 52020000 		.4byte	0x252
 473 0165 00       		.byte	0
 474 0166 06       		.uleb128 0x6
 475 0167 12060000 		.4byte	.LASF31
 476 016b 07       		.byte	0x7
 477 016c C5       		.byte	0xc5
 478 016d 52020000 		.4byte	0x252
 479 0171 04       		.byte	0x4
 480 0172 06       		.uleb128 0x6
 481 0173 5D000000 		.4byte	.LASF32
 482 0177 07       		.byte	0x7
 483 0178 C7       		.byte	0xc7
 484 0179 0C010000 		.4byte	0x10c
 485 017d 08       		.byte	0x8
 486 017e 06       		.uleb128 0x6
 487 017f B9050000 		.4byte	.LASF33
 488 0183 07       		.byte	0x7
 489 0184 C8       		.byte	0xc8
 490 0185 B0040000 		.4byte	0x4b0
 491 0189 0C       		.byte	0xc
 492 018a 06       		.uleb128 0x6
 493 018b 41020000 		.4byte	.LASF34
 494 018f 07       		.byte	0x7
 495 0190 CA       		.byte	0xca
 496 0191 52020000 		.4byte	0x252
 497 0195 10       		.byte	0x10
 498 0196 06       		.uleb128 0x6
 499 0197 DD030000 		.4byte	.LASF35
 500 019b 07       		.byte	0x7
 501 019c CB       		.byte	0xcb
 502 019d 52020000 		.4byte	0x252
 503 01a1 14       		.byte	0x14
 504 01a2 06       		.uleb128 0x6
 505 01a3 9F030000 		.4byte	.LASF36
 506 01a7 07       		.byte	0x7
 507 01a8 D2       		.byte	0xd2
 508 01a9 99060000 		.4byte	0x699
 509 01ad 18       		.byte	0x18
ARM GAS  /tmp/cci2tF7b.s 			page 10


 510 01ae 06       		.uleb128 0x6
 511 01af ED030000 		.4byte	.LASF37
 512 01b3 07       		.byte	0x7
 513 01b4 D8       		.byte	0xd8
 514 01b5 B0060000 		.4byte	0x6b0
 515 01b9 1C       		.byte	0x1c
 516 01ba 06       		.uleb128 0x6
 517 01bb E5030000 		.4byte	.LASF38
 518 01bf 07       		.byte	0x7
 519 01c0 DD       		.byte	0xdd
 520 01c1 F6000000 		.4byte	0xf6
 521 01c5 20       		.byte	0x20
 522 01c6 06       		.uleb128 0x6
 523 01c7 82040000 		.4byte	.LASF39
 524 01cb 07       		.byte	0x7
 525 01cc E1       		.byte	0xe1
 526 01cd EB000000 		.4byte	0xeb
 527 01d1 21       		.byte	0x21
 528 01d2 06       		.uleb128 0x6
 529 01d3 C6060000 		.4byte	.LASF40
 530 01d7 07       		.byte	0x7
 531 01d8 E6       		.byte	0xe6
 532 01d9 01010000 		.4byte	0x101
 533 01dd 22       		.byte	0x22
 534 01de 07       		.uleb128 0x7
 535 01df 705F7500 		.ascii	"p_u\000"
 536 01e3 07       		.byte	0x7
 537 01e4 3101     		.2byte	0x131
 538 01e6 D4050000 		.4byte	0x5d4
 539 01ea 24       		.byte	0x24
 540 01eb 08       		.uleb128 0x8
 541 01ec 20000000 		.4byte	.LASF41
 542 01f0 07       		.byte	0x7
 543 01f1 3601     		.2byte	0x136
 544 01f3 58020000 		.4byte	0x258
 545 01f7 28       		.byte	0x28
 546 01f8 08       		.uleb128 0x8
 547 01f9 92000000 		.4byte	.LASF42
 548 01fd 07       		.byte	0x7
 549 01fe 3C01     		.2byte	0x13c
 550 0200 7C020000 		.4byte	0x27c
 551 0204 2C       		.byte	0x2c
 552 0205 08       		.uleb128 0x8
 553 0206 04050000 		.4byte	.LASF43
 554 020a 07       		.byte	0x7
 555 020b 4001     		.2byte	0x140
 556 020d 17010000 		.4byte	0x117
 557 0211 34       		.byte	0x34
 558 0212 08       		.uleb128 0x8
 559 0213 77050000 		.4byte	.LASF44
 560 0217 07       		.byte	0x7
 561 0218 4601     		.2byte	0x146
 562 021a 22010000 		.4byte	0x122
 563 021e 38       		.byte	0x38
 564 021f 08       		.uleb128 0x8
 565 0220 1A040000 		.4byte	.LASF45
 566 0224 07       		.byte	0x7
ARM GAS  /tmp/cci2tF7b.s 			page 11


 567 0225 4D01     		.2byte	0x14d
 568 0227 93060000 		.4byte	0x693
 569 022b 3C       		.byte	0x3c
 570 022c 08       		.uleb128 0x8
 571 022d 4D050000 		.4byte	.LASF46
 572 0231 07       		.byte	0x7
 573 0232 5101     		.2byte	0x151
 574 0234 0C010000 		.4byte	0x10c
 575 0238 40       		.byte	0x40
 576 0239 08       		.uleb128 0x8
 577 023a 12040000 		.4byte	.LASF47
 578 023e 07       		.byte	0x7
 579 023f 5801     		.2byte	0x158
 580 0241 2F030000 		.4byte	0x32f
 581 0245 44       		.byte	0x44
 582 0246 00       		.byte	0
 583 0247 03       		.uleb128 0x3
 584 0248 AF030000 		.4byte	.LASF48
 585 024c 06       		.byte	0x6
 586 024d 44       		.byte	0x44
 587 024e 52020000 		.4byte	0x252
 588 0252 09       		.uleb128 0x9
 589 0253 04       		.byte	0x4
 590 0254 43010000 		.4byte	0x143
 591 0258 03       		.uleb128 0x3
 592 0259 AA000000 		.4byte	.LASF49
 593 025d 06       		.byte	0x6
 594 025e 49       		.byte	0x49
 595 025f 63020000 		.4byte	0x263
 596 0263 05       		.uleb128 0x5
 597 0264 00000000 		.4byte	.LASF51
 598 0268 04       		.byte	0x4
 599 0269 07       		.byte	0x7
 600 026a B0       		.byte	0xb0
 601 026b 7C020000 		.4byte	0x27c
 602 026f 06       		.uleb128 0x6
 603 0270 A9050000 		.4byte	.LASF30
 604 0274 07       		.byte	0x7
 605 0275 B1       		.byte	0xb1
 606 0276 52020000 		.4byte	0x252
 607 027a 00       		.byte	0
 608 027b 00       		.byte	0
 609 027c 03       		.uleb128 0x3
 610 027d 10000000 		.4byte	.LASF52
 611 0281 06       		.byte	0x6
 612 0282 50       		.byte	0x50
 613 0283 87020000 		.4byte	0x287
 614 0287 05       		.uleb128 0x5
 615 0288 29010000 		.4byte	.LASF53
 616 028c 08       		.byte	0x8
 617 028d 07       		.byte	0x7
 618 028e B7       		.byte	0xb7
 619 028f AC020000 		.4byte	0x2ac
 620 0293 06       		.uleb128 0x6
 621 0294 A9050000 		.4byte	.LASF30
 622 0298 07       		.byte	0x7
 623 0299 B8       		.byte	0xb8
ARM GAS  /tmp/cci2tF7b.s 			page 12


 624 029a 52020000 		.4byte	0x252
 625 029e 00       		.byte	0
 626 029f 06       		.uleb128 0x6
 627 02a0 12060000 		.4byte	.LASF31
 628 02a4 07       		.byte	0x7
 629 02a5 B9       		.byte	0xb9
 630 02a6 52020000 		.4byte	0x252
 631 02aa 04       		.byte	0x4
 632 02ab 00       		.byte	0
 633 02ac 03       		.uleb128 0x3
 634 02ad 49060000 		.4byte	.LASF54
 635 02b1 06       		.byte	0x6
 636 02b2 57       		.byte	0x57
 637 02b3 B7020000 		.4byte	0x2b7
 638 02b7 0A       		.uleb128 0xa
 639 02b8 F8000000 		.4byte	.LASF55
 640 02bc 1C       		.byte	0x1c
 641 02bd 07       		.byte	0x7
 642 02be 9001     		.2byte	0x190
 643 02c0 13030000 		.4byte	0x313
 644 02c4 08       		.uleb128 0x8
 645 02c5 5B040000 		.4byte	.LASF56
 646 02c9 07       		.byte	0x7
 647 02ca 9101     		.2byte	0x191
 648 02cc 7C020000 		.4byte	0x27c
 649 02d0 00       		.byte	0
 650 02d1 08       		.uleb128 0x8
 651 02d2 A2010000 		.4byte	.LASF57
 652 02d6 07       		.byte	0x7
 653 02d7 9201     		.2byte	0x192
 654 02d9 0C010000 		.4byte	0x10c
 655 02dd 08       		.byte	0x8
 656 02de 08       		.uleb128 0x8
 657 02df 53070000 		.4byte	.LASF58
 658 02e3 07       		.byte	0x7
 659 02e4 9401     		.2byte	0x194
 660 02e6 B0040000 		.4byte	0x4b0
 661 02ea 0C       		.byte	0xc
 662 02eb 08       		.uleb128 0x8
 663 02ec 63040000 		.4byte	.LASF59
 664 02f0 07       		.byte	0x7
 665 02f1 9701     		.2byte	0x197
 666 02f3 52020000 		.4byte	0x252
 667 02f7 10       		.byte	0x10
 668 02f8 08       		.uleb128 0x8
 669 02f9 C7040000 		.4byte	.LASF60
 670 02fd 07       		.byte	0x7
 671 02fe 9801     		.2byte	0x198
 672 0300 52020000 		.4byte	0x252
 673 0304 14       		.byte	0x14
 674 0305 08       		.uleb128 0x8
 675 0306 6D050000 		.4byte	.LASF61
 676 030a 07       		.byte	0x7
 677 030b 9B01     		.2byte	0x19b
 678 030d 52020000 		.4byte	0x252
 679 0311 18       		.byte	0x18
 680 0312 00       		.byte	0
ARM GAS  /tmp/cci2tF7b.s 			page 13


 681 0313 03       		.uleb128 0x3
 682 0314 45010000 		.4byte	.LASF62
 683 0318 06       		.byte	0x6
 684 0319 5C       		.byte	0x5c
 685 031a 1E030000 		.4byte	0x31e
 686 031e 09       		.uleb128 0x9
 687 031f 04       		.byte	0x4
 688 0320 24030000 		.4byte	0x324
 689 0324 0B       		.uleb128 0xb
 690 0325 2F030000 		.4byte	0x32f
 691 0329 0C       		.uleb128 0xc
 692 032a 2F030000 		.4byte	0x32f
 693 032e 00       		.byte	0
 694 032f 0D       		.uleb128 0xd
 695 0330 04       		.byte	0x4
 696 0331 0E       		.uleb128 0xe
 697 0332 2F030000 		.4byte	0x32f
 698 0336 03       		.uleb128 0x3
 699 0337 8A040000 		.4byte	.LASF63
 700 033b 06       		.byte	0x6
 701 033c 61       		.byte	0x61
 702 033d 41030000 		.4byte	0x341
 703 0341 0A       		.uleb128 0xa
 704 0342 C5010000 		.4byte	.LASF64
 705 0346 14       		.byte	0x14
 706 0347 07       		.byte	0x7
 707 0348 6B01     		.2byte	0x16b
 708 034a 90030000 		.4byte	0x390
 709 034e 08       		.uleb128 0x8
 710 034f F4060000 		.4byte	.LASF65
 711 0353 07       		.byte	0x7
 712 0354 6C01     		.2byte	0x16c
 713 0356 B6060000 		.4byte	0x6b6
 714 035a 00       		.byte	0
 715 035b 08       		.uleb128 0x8
 716 035c 75070000 		.4byte	.LASF66
 717 0360 07       		.byte	0x7
 718 0361 6D01     		.2byte	0x16d
 719 0363 B6060000 		.4byte	0x6b6
 720 0367 04       		.byte	0x4
 721 0368 08       		.uleb128 0x8
 722 0369 A6030000 		.4byte	.LASF67
 723 036d 07       		.byte	0x7
 724 036e 6E01     		.2byte	0x16e
 725 0370 38010000 		.4byte	0x138
 726 0374 08       		.byte	0x8
 727 0375 08       		.uleb128 0x8
 728 0376 6D070000 		.4byte	.LASF68
 729 037a 07       		.byte	0x7
 730 037b 6F01     		.2byte	0x16f
 731 037d 13030000 		.4byte	0x313
 732 0381 0C       		.byte	0xc
 733 0382 08       		.uleb128 0x8
 734 0383 A9010000 		.4byte	.LASF69
 735 0387 07       		.byte	0x7
 736 0388 7101     		.2byte	0x171
 737 038a 2F030000 		.4byte	0x32f
ARM GAS  /tmp/cci2tF7b.s 			page 14


 738 038e 10       		.byte	0x10
 739 038f 00       		.byte	0
 740 0390 03       		.uleb128 0x3
 741 0391 B0060000 		.4byte	.LASF70
 742 0395 06       		.byte	0x6
 743 0396 66       		.byte	0x66
 744 0397 9B030000 		.4byte	0x39b
 745 039b 0A       		.uleb128 0xa
 746 039c 49020000 		.4byte	.LASF71
 747 03a0 0C       		.byte	0xc
 748 03a1 07       		.byte	0x7
 749 03a2 7B01     		.2byte	0x17b
 750 03a4 DD030000 		.4byte	0x3dd
 751 03a8 08       		.uleb128 0x8
 752 03a9 F4060000 		.4byte	.LASF65
 753 03ad 07       		.byte	0x7
 754 03ae 7C01     		.2byte	0x17c
 755 03b0 B6060000 		.4byte	0x6b6
 756 03b4 00       		.byte	0
 757 03b5 08       		.uleb128 0x8
 758 03b6 75070000 		.4byte	.LASF66
 759 03ba 07       		.byte	0x7
 760 03bb 7E01     		.2byte	0x17e
 761 03bd B6060000 		.4byte	0x6b6
 762 03c1 04       		.byte	0x4
 763 03c2 08       		.uleb128 0x8
 764 03c3 A6030000 		.4byte	.LASF67
 765 03c7 07       		.byte	0x7
 766 03c8 8001     		.2byte	0x180
 767 03ca 38010000 		.4byte	0x138
 768 03ce 08       		.byte	0x8
 769 03cf 08       		.uleb128 0x8
 770 03d0 C2030000 		.4byte	.LASF72
 771 03d4 07       		.byte	0x7
 772 03d5 8801     		.2byte	0x188
 773 03d7 38010000 		.4byte	0x138
 774 03db 0A       		.byte	0xa
 775 03dc 00       		.byte	0
 776 03dd 03       		.uleb128 0x3
 777 03de 3E040000 		.4byte	.LASF73
 778 03e2 06       		.byte	0x6
 779 03e3 6B       		.byte	0x6b
 780 03e4 E8030000 		.4byte	0x3e8
 781 03e8 0F       		.uleb128 0xf
 782 03e9 54010000 		.4byte	.LASF74
 783 03ed 1404     		.2byte	0x414
 784 03ef 07       		.byte	0x7
 785 03f0 A201     		.2byte	0x1a2
 786 03f2 2B040000 		.4byte	0x42b
 787 03f6 08       		.uleb128 0x8
 788 03f7 DE040000 		.4byte	.LASF75
 789 03fb 07       		.byte	0x7
 790 03fc AA01     		.2byte	0x1aa
 791 03fe 9F060000 		.4byte	0x69f
 792 0402 00       		.byte	0
 793 0403 08       		.uleb128 0x8
 794 0404 39020000 		.4byte	.LASF76
ARM GAS  /tmp/cci2tF7b.s 			page 15


 795 0408 07       		.byte	0x7
 796 0409 AF01     		.2byte	0x1af
 797 040b 2D010000 		.4byte	0x12d
 798 040f 04       		.byte	0x4
 799 0410 08       		.uleb128 0x8
 800 0411 44050000 		.4byte	.LASF77
 801 0415 07       		.byte	0x7
 802 0416 B301     		.2byte	0x1b3
 803 0418 2D010000 		.4byte	0x12d
 804 041c 08       		.byte	0x8
 805 041d 08       		.uleb128 0x8
 806 041e 66060000 		.4byte	.LASF78
 807 0422 07       		.byte	0x7
 808 0423 B901     		.2byte	0x1b9
 809 0425 C9050000 		.4byte	0x5c9
 810 0429 0C       		.byte	0xc
 811 042a 00       		.byte	0
 812 042b 03       		.uleb128 0x3
 813 042c FC060000 		.4byte	.LASF79
 814 0430 06       		.byte	0x6
 815 0431 70       		.byte	0x70
 816 0432 36040000 		.4byte	0x436
 817 0436 0F       		.uleb128 0xf
 818 0437 9F050000 		.4byte	.LASF80
 819 043b 6805     		.2byte	0x568
 820 043d 07       		.byte	0x7
 821 043e C201     		.2byte	0x1c2
 822 0440 88040000 		.4byte	0x488
 823 0444 08       		.uleb128 0x8
 824 0445 BF050000 		.4byte	.LASF81
 825 0449 07       		.byte	0x7
 826 044a C601     		.2byte	0x1c6
 827 044c AC020000 		.4byte	0x2ac
 828 0450 00       		.byte	0
 829 0451 08       		.uleb128 0x8
 830 0452 F1000000 		.4byte	.LASF82
 831 0456 07       		.byte	0x7
 832 0457 CA01     		.2byte	0x1ca
 833 0459 90030000 		.4byte	0x390
 834 045d 1C       		.byte	0x1c
 835 045e 07       		.uleb128 0x7
 836 045f 64626700 		.ascii	"dbg\000"
 837 0463 07       		.byte	0x7
 838 0464 CE01     		.2byte	0x1ce
 839 0466 DD030000 		.4byte	0x3dd
 840 046a 28       		.byte	0x28
 841 046b 10       		.uleb128 0x10
 842 046c 1A050000 		.4byte	.LASF83
 843 0470 07       		.byte	0x7
 844 0471 D201     		.2byte	0x1d2
 845 0473 43010000 		.4byte	0x143
 846 0477 3C04     		.2byte	0x43c
 847 0479 10       		.uleb128 0x10
 848 047a 06010000 		.4byte	.LASF84
 849 047e 07       		.byte	0x7
 850 047f E301     		.2byte	0x1e3
 851 0481 BC060000 		.4byte	0x6bc
ARM GAS  /tmp/cci2tF7b.s 			page 16


 852 0485 8804     		.2byte	0x488
 853 0487 00       		.byte	0
 854 0488 04       		.uleb128 0x4
 855 0489 04       		.byte	0x4
 856 048a 07       		.byte	0x7
 857 048b 19060000 		.4byte	.LASF85
 858 048f 11       		.uleb128 0x11
 859 0490 2A000000 		.4byte	.LASF114
 860 0494 0E       		.byte	0xe
 861 0495 4C       		.byte	0x4c
 862 0496 D5000000 		.4byte	0xd5
 863 049a 03       		.uleb128 0x3
 864 049b 54000000 		.4byte	.LASF86
 865 049f 08       		.byte	0x8
 866 04a0 65       		.byte	0x65
 867 04a1 2F030000 		.4byte	0x32f
 868 04a5 03       		.uleb128 0x3
 869 04a6 59070000 		.4byte	.LASF87
 870 04aa 08       		.byte	0x8
 871 04ab 6D       		.byte	0x6d
 872 04ac E0000000 		.4byte	0xe0
 873 04b0 05       		.uleb128 0x5
 874 04b1 71040000 		.4byte	.LASF88
 875 04b5 04       		.byte	0x4
 876 04b6 08       		.byte	0x8
 877 04b7 89       		.byte	0x89
 878 04b8 C9040000 		.4byte	0x4c9
 879 04bc 12       		.uleb128 0x12
 880 04bd 72313300 		.ascii	"r13\000"
 881 04c1 08       		.byte	0x8
 882 04c2 8A       		.byte	0x8a
 883 04c3 3B050000 		.4byte	0x53b
 884 04c7 00       		.byte	0
 885 04c8 00       		.byte	0
 886 04c9 05       		.uleb128 0x5
 887 04ca 93050000 		.4byte	.LASF89
 888 04ce 24       		.byte	0x24
 889 04cf 09       		.byte	0x9
 890 04d0 A4       		.byte	0xa4
 891 04d1 3B050000 		.4byte	0x53b
 892 04d5 12       		.uleb128 0x12
 893 04d6 723800   		.ascii	"r8\000"
 894 04d9 09       		.byte	0x9
 895 04da A5       		.byte	0xa5
 896 04db 9A040000 		.4byte	0x49a
 897 04df 00       		.byte	0
 898 04e0 12       		.uleb128 0x12
 899 04e1 723900   		.ascii	"r9\000"
 900 04e4 09       		.byte	0x9
 901 04e5 A6       		.byte	0xa6
 902 04e6 9A040000 		.4byte	0x49a
 903 04ea 04       		.byte	0x4
 904 04eb 12       		.uleb128 0x12
 905 04ec 72313000 		.ascii	"r10\000"
 906 04f0 09       		.byte	0x9
 907 04f1 A7       		.byte	0xa7
 908 04f2 9A040000 		.4byte	0x49a
ARM GAS  /tmp/cci2tF7b.s 			page 17


 909 04f6 08       		.byte	0x8
 910 04f7 12       		.uleb128 0x12
 911 04f8 72313100 		.ascii	"r11\000"
 912 04fc 09       		.byte	0x9
 913 04fd A8       		.byte	0xa8
 914 04fe 9A040000 		.4byte	0x49a
 915 0502 0C       		.byte	0xc
 916 0503 12       		.uleb128 0x12
 917 0504 723400   		.ascii	"r4\000"
 918 0507 09       		.byte	0x9
 919 0508 A9       		.byte	0xa9
 920 0509 9A040000 		.4byte	0x49a
 921 050d 10       		.byte	0x10
 922 050e 12       		.uleb128 0x12
 923 050f 723500   		.ascii	"r5\000"
 924 0512 09       		.byte	0x9
 925 0513 AA       		.byte	0xaa
 926 0514 9A040000 		.4byte	0x49a
 927 0518 14       		.byte	0x14
 928 0519 12       		.uleb128 0x12
 929 051a 723600   		.ascii	"r6\000"
 930 051d 09       		.byte	0x9
 931 051e AB       		.byte	0xab
 932 051f 9A040000 		.4byte	0x49a
 933 0523 18       		.byte	0x18
 934 0524 12       		.uleb128 0x12
 935 0525 723700   		.ascii	"r7\000"
 936 0528 09       		.byte	0x9
 937 0529 AC       		.byte	0xac
 938 052a 9A040000 		.4byte	0x49a
 939 052e 1C       		.byte	0x1c
 940 052f 12       		.uleb128 0x12
 941 0530 6C7200   		.ascii	"lr\000"
 942 0533 09       		.byte	0x9
 943 0534 AD       		.byte	0xad
 944 0535 9A040000 		.4byte	0x49a
 945 0539 20       		.byte	0x20
 946 053a 00       		.byte	0
 947 053b 09       		.uleb128 0x9
 948 053c 04       		.byte	0x4
 949 053d C9040000 		.4byte	0x4c9
 950 0541 13       		.uleb128 0x13
 951 0542 10       		.byte	0x10
 952 0543 0A       		.byte	0xa
 953 0544 51       		.byte	0x51
 954 0545 7A050000 		.4byte	0x57a
 955 0549 06       		.uleb128 0x6
 956 054a 60020000 		.4byte	.LASF90
 957 054e 0A       		.byte	0xa
 958 054f 55       		.byte	0x55
 959 0550 38010000 		.4byte	0x138
 960 0554 00       		.byte	0
 961 0555 06       		.uleb128 0x6
 962 0556 D7030000 		.4byte	.LASF91
 963 055a 0A       		.byte	0xa
 964 055b 59       		.byte	0x59
 965 055c 52020000 		.4byte	0x252
ARM GAS  /tmp/cci2tF7b.s 			page 18


 966 0560 04       		.byte	0x4
 967 0561 06       		.uleb128 0x6
 968 0562 ED010000 		.4byte	.LASF92
 969 0566 0A       		.byte	0xa
 970 0567 5D       		.byte	0x5d
 971 0568 2F030000 		.4byte	0x32f
 972 056c 08       		.byte	0x8
 973 056d 06       		.uleb128 0x6
 974 056e C3000000 		.4byte	.LASF93
 975 0572 0A       		.byte	0xa
 976 0573 61       		.byte	0x61
 977 0574 B4000000 		.4byte	0xb4
 978 0578 0C       		.byte	0xc
 979 0579 00       		.byte	0
 980 057a 03       		.uleb128 0x3
 981 057b 7A060000 		.4byte	.LASF94
 982 057f 0A       		.byte	0xa
 983 0580 62       		.byte	0x62
 984 0581 41050000 		.4byte	0x541
 985 0585 14       		.uleb128 0x14
 986 0586 0804     		.2byte	0x408
 987 0588 0A       		.byte	0xa
 988 0589 67       		.byte	0x67
 989 058a B3050000 		.4byte	0x5b3
 990 058e 06       		.uleb128 0x6
 991 058f 36040000 		.4byte	.LASF95
 992 0593 0A       		.byte	0xa
 993 0594 6B       		.byte	0x6b
 994 0595 37000000 		.4byte	0x37
 995 0599 00       		.byte	0
 996 059a 06       		.uleb128 0x6
 997 059b C0040000 		.4byte	.LASF96
 998 059f 0A       		.byte	0xa
 999 05a0 6F       		.byte	0x6f
 1000 05a1 B3050000 		.4byte	0x5b3
 1001 05a5 04       		.byte	0x4
 1002 05a6 06       		.uleb128 0x6
 1003 05a7 00040000 		.4byte	.LASF97
 1004 05ab 0A       		.byte	0xa
 1005 05ac 73       		.byte	0x73
 1006 05ad B9050000 		.4byte	0x5b9
 1007 05b1 08       		.byte	0x8
 1008 05b2 00       		.byte	0
 1009 05b3 09       		.uleb128 0x9
 1010 05b4 04       		.byte	0x4
 1011 05b5 7A050000 		.4byte	0x57a
 1012 05b9 15       		.uleb128 0x15
 1013 05ba 7A050000 		.4byte	0x57a
 1014 05be C9050000 		.4byte	0x5c9
 1015 05c2 16       		.uleb128 0x16
 1016 05c3 88040000 		.4byte	0x488
 1017 05c7 3F       		.byte	0x3f
 1018 05c8 00       		.byte	0
 1019 05c9 03       		.uleb128 0x3
 1020 05ca 0E070000 		.4byte	.LASF98
 1021 05ce 0A       		.byte	0xa
 1022 05cf 74       		.byte	0x74
ARM GAS  /tmp/cci2tF7b.s 			page 19


 1023 05d0 85050000 		.4byte	0x585
 1024 05d4 17       		.uleb128 0x17
 1025 05d5 04       		.byte	0x4
 1026 05d6 07       		.byte	0x7
 1027 05d7 FA       		.byte	0xfa
 1028 05d8 31060000 		.4byte	0x631
 1029 05dc 18       		.uleb128 0x18
 1030 05dd 78020000 		.4byte	.LASF99
 1031 05e1 07       		.byte	0x7
 1032 05e2 0101     		.2byte	0x101
 1033 05e4 17010000 		.4byte	0x117
 1034 05e8 18       		.uleb128 0x18
 1035 05e9 8D070000 		.4byte	.LASF100
 1036 05ed 07       		.byte	0x7
 1037 05ee 0801     		.2byte	0x108
 1038 05f0 17010000 		.4byte	0x117
 1039 05f4 18       		.uleb128 0x18
 1040 05f5 EA000000 		.4byte	.LASF101
 1041 05f9 07       		.byte	0x7
 1042 05fa 0F01     		.2byte	0x10f
 1043 05fc 2F030000 		.4byte	0x32f
 1044 0600 18       		.uleb128 0x18
 1045 0601 08070000 		.4byte	.LASF102
 1046 0605 07       		.byte	0x7
 1047 0606 1601     		.2byte	0x116
 1048 0608 31060000 		.4byte	0x631
 1049 060c 18       		.uleb128 0x18
 1050 060d 73060000 		.4byte	.LASF103
 1051 0611 07       		.byte	0x7
 1052 0612 1E01     		.2byte	0x11e
 1053 0614 5C060000 		.4byte	0x65c
 1054 0618 18       		.uleb128 0x18
 1055 0619 3A000000 		.4byte	.LASF104
 1056 061d 07       		.byte	0x7
 1057 061e 2701     		.2byte	0x127
 1058 0620 93060000 		.4byte	0x693
 1059 0624 18       		.uleb128 0x18
 1060 0625 15010000 		.4byte	.LASF105
 1061 0629 07       		.byte	0x7
 1062 062a 2F01     		.2byte	0x12f
 1063 062c 22010000 		.4byte	0x122
 1064 0630 00       		.byte	0
 1065 0631 09       		.uleb128 0x9
 1066 0632 04       		.byte	0x4
 1067 0633 47020000 		.4byte	0x247
 1068 0637 05       		.uleb128 0x5
 1069 0638 B0010000 		.4byte	.LASF106
 1070 063c 0C       		.byte	0xc
 1071 063d 0B       		.byte	0xb
 1072 063e 34       		.byte	0x34
 1073 063f 5C060000 		.4byte	0x65c
 1074 0643 06       		.uleb128 0x6
 1075 0644 8A000000 		.4byte	.LASF107
 1076 0648 0B       		.byte	0xb
 1077 0649 35       		.byte	0x35
 1078 064a 7C020000 		.4byte	0x27c
 1079 064e 00       		.byte	0
ARM GAS  /tmp/cci2tF7b.s 			page 20


 1080 064f 06       		.uleb128 0x6
 1081 0650 4E010000 		.4byte	.LASF108
 1082 0654 0B       		.byte	0xb
 1083 0655 37       		.byte	0x37
 1084 0656 2D010000 		.4byte	0x12d
 1085 065a 08       		.byte	0x8
 1086 065b 00       		.byte	0
 1087 065c 09       		.uleb128 0x9
 1088 065d 04       		.byte	0x4
 1089 065e 37060000 		.4byte	0x637
 1090 0662 05       		.uleb128 0x5
 1091 0663 70030000 		.4byte	.LASF109
 1092 0667 10       		.byte	0x10
 1093 0668 0C       		.byte	0xc
 1094 0669 39       		.byte	0x39
 1095 066a 93060000 		.4byte	0x693
 1096 066e 06       		.uleb128 0x6
 1097 066f 82050000 		.4byte	.LASF110
 1098 0673 0C       		.byte	0xc
 1099 0674 3A       		.byte	0x3a
 1100 0675 7C020000 		.4byte	0x27c
 1101 0679 00       		.byte	0
 1102 067a 06       		.uleb128 0x6
 1103 067b 82000000 		.4byte	.LASF111
 1104 067f 0C       		.byte	0xc
 1105 0680 3C       		.byte	0x3c
 1106 0681 52020000 		.4byte	0x252
 1107 0685 08       		.byte	0x8
 1108 0686 06       		.uleb128 0x6
 1109 0687 20070000 		.4byte	.LASF112
 1110 068b 0C       		.byte	0xc
 1111 068c 3E       		.byte	0x3e
 1112 068d EE070000 		.4byte	0x7ee
 1113 0691 0C       		.byte	0xc
 1114 0692 00       		.byte	0
 1115 0693 09       		.uleb128 0x9
 1116 0694 04       		.byte	0x4
 1117 0695 62060000 		.4byte	0x662
 1118 0699 09       		.uleb128 0x9
 1119 069a 04       		.byte	0x4
 1120 069b AB060000 		.4byte	0x6ab
 1121 069f 19       		.uleb128 0x19
 1122 06a0 99060000 		.4byte	0x699
 1123 06a4 04       		.uleb128 0x4
 1124 06a5 01       		.byte	0x1
 1125 06a6 08       		.byte	0x8
 1126 06a7 4F000000 		.4byte	.LASF113
 1127 06ab 0E       		.uleb128 0xe
 1128 06ac A4060000 		.4byte	0x6a4
 1129 06b0 09       		.uleb128 0x9
 1130 06b1 04       		.byte	0x4
 1131 06b2 A5040000 		.4byte	0x4a5
 1132 06b6 09       		.uleb128 0x9
 1133 06b7 04       		.byte	0x4
 1134 06b8 36030000 		.4byte	0x336
 1135 06bc 15       		.uleb128 0x15
 1136 06bd A5040000 		.4byte	0x4a5
ARM GAS  /tmp/cci2tF7b.s 			page 21


 1137 06c1 CC060000 		.4byte	0x6cc
 1138 06c5 16       		.uleb128 0x16
 1139 06c6 88040000 		.4byte	0x488
 1140 06ca 1B       		.byte	0x1b
 1141 06cb 00       		.byte	0
 1142 06cc 1A       		.uleb128 0x1a
 1143 06cd 636800   		.ascii	"ch\000"
 1144 06d0 07       		.byte	0x7
 1145 06d1 0902     		.2byte	0x209
 1146 06d3 2B040000 		.4byte	0x42b
 1147 06d7 13       		.uleb128 0x13
 1148 06d8 16       		.byte	0x16
 1149 06d9 0D       		.byte	0xd
 1150 06da 34       		.byte	0x34
 1151 06db B8070000 		.4byte	0x7b8
 1152 06df 06       		.uleb128 0x6
 1153 06e0 F9050000 		.4byte	.LASF115
 1154 06e4 0D       		.byte	0xd
 1155 06e5 35       		.byte	0x35
 1156 06e6 B8070000 		.4byte	0x7b8
 1157 06ea 00       		.byte	0
 1158 06eb 06       		.uleb128 0x6
 1159 06ec B3040000 		.4byte	.LASF116
 1160 06f0 0D       		.byte	0xd
 1161 06f1 36       		.byte	0x36
 1162 06f2 B4000000 		.4byte	0xb4
 1163 06f6 04       		.byte	0x4
 1164 06f7 06       		.uleb128 0x6
 1165 06f8 12050000 		.4byte	.LASF117
 1166 06fc 0D       		.byte	0xd
 1167 06fd 37       		.byte	0x37
 1168 06fe B4000000 		.4byte	0xb4
 1169 0702 05       		.byte	0x5
 1170 0703 06       		.uleb128 0x6
 1171 0704 58050000 		.4byte	.LASF118
 1172 0708 0D       		.byte	0xd
 1173 0709 38       		.byte	0x38
 1174 070a BF000000 		.4byte	0xbf
 1175 070e 06       		.byte	0x6
 1176 070f 06       		.uleb128 0x6
 1177 0710 3A010000 		.4byte	.LASF119
 1178 0714 0D       		.byte	0xd
 1179 0715 39       		.byte	0x39
 1180 0716 B4000000 		.4byte	0xb4
 1181 071a 08       		.byte	0x8
 1182 071b 06       		.uleb128 0x6
 1183 071c 8A010000 		.4byte	.LASF120
 1184 0720 0D       		.byte	0xd
 1185 0721 3A       		.byte	0x3a
 1186 0722 B4000000 		.4byte	0xb4
 1187 0726 09       		.byte	0x9
 1188 0727 06       		.uleb128 0x6
 1189 0728 7F020000 		.4byte	.LASF121
 1190 072c 0D       		.byte	0xd
 1191 072d 3B       		.byte	0x3b
 1192 072e B4000000 		.4byte	0xb4
 1193 0732 0A       		.byte	0xa
ARM GAS  /tmp/cci2tF7b.s 			page 22


 1194 0733 06       		.uleb128 0x6
 1195 0734 D1050000 		.4byte	.LASF122
 1196 0738 0D       		.byte	0xd
 1197 0739 3C       		.byte	0x3c
 1198 073a B4000000 		.4byte	0xb4
 1199 073e 0B       		.byte	0xb
 1200 073f 06       		.uleb128 0x6
 1201 0740 84030000 		.4byte	.LASF123
 1202 0744 0D       		.byte	0xd
 1203 0745 3D       		.byte	0x3d
 1204 0746 B4000000 		.4byte	0xb4
 1205 074a 0C       		.byte	0xc
 1206 074b 06       		.uleb128 0x6
 1207 074c 33070000 		.4byte	.LASF124
 1208 0750 0D       		.byte	0xd
 1209 0751 3E       		.byte	0x3e
 1210 0752 B4000000 		.4byte	0xb4
 1211 0756 0D       		.byte	0xd
 1212 0757 06       		.uleb128 0x6
 1213 0758 75000000 		.4byte	.LASF125
 1214 075c 0D       		.byte	0xd
 1215 075d 3F       		.byte	0x3f
 1216 075e B4000000 		.4byte	0xb4
 1217 0762 0E       		.byte	0xe
 1218 0763 06       		.uleb128 0x6
 1219 0764 CC000000 		.4byte	.LASF126
 1220 0768 0D       		.byte	0xd
 1221 0769 40       		.byte	0x40
 1222 076a B4000000 		.4byte	0xb4
 1223 076e 0F       		.byte	0xf
 1224 076f 06       		.uleb128 0x6
 1225 0770 8F030000 		.4byte	.LASF127
 1226 0774 0D       		.byte	0xd
 1227 0775 41       		.byte	0x41
 1228 0776 B4000000 		.4byte	0xb4
 1229 077a 10       		.byte	0x10
 1230 077b 06       		.uleb128 0x6
 1231 077c 3C060000 		.4byte	.LASF128
 1232 0780 0D       		.byte	0xd
 1233 0781 43       		.byte	0x43
 1234 0782 B4000000 		.4byte	0xb4
 1235 0786 11       		.byte	0x11
 1236 0787 06       		.uleb128 0x6
 1237 0788 1C010000 		.4byte	.LASF129
 1238 078c 0D       		.byte	0xd
 1239 078d 44       		.byte	0x44
 1240 078e B4000000 		.4byte	0xb4
 1241 0792 12       		.byte	0x12
 1242 0793 06       		.uleb128 0x6
 1243 0794 A7040000 		.4byte	.LASF130
 1244 0798 0D       		.byte	0xd
 1245 0799 45       		.byte	0x45
 1246 079a B4000000 		.4byte	0xb4
 1247 079e 13       		.byte	0x13
 1248 079f 06       		.uleb128 0x6
 1249 07a0 8D020000 		.4byte	.LASF131
 1250 07a4 0D       		.byte	0xd
ARM GAS  /tmp/cci2tF7b.s 			page 23


 1251 07a5 46       		.byte	0x46
 1252 07a6 B4000000 		.4byte	0xb4
 1253 07aa 14       		.byte	0x14
 1254 07ab 06       		.uleb128 0x6
 1255 07ac C5050000 		.4byte	.LASF132
 1256 07b0 0D       		.byte	0xd
 1257 07b1 48       		.byte	0x48
 1258 07b2 B4000000 		.4byte	0xb4
 1259 07b6 15       		.byte	0x15
 1260 07b7 00       		.byte	0
 1261 07b8 15       		.uleb128 0x15
 1262 07b9 A4060000 		.4byte	0x6a4
 1263 07bd C8070000 		.4byte	0x7c8
 1264 07c1 16       		.uleb128 0x16
 1265 07c2 88040000 		.4byte	0x488
 1266 07c6 03       		.byte	0x3
 1267 07c7 00       		.byte	0
 1268 07c8 03       		.uleb128 0x3
 1269 07c9 3A050000 		.4byte	.LASF133
 1270 07cd 0D       		.byte	0xd
 1271 07ce 49       		.byte	0x49
 1272 07cf D7060000 		.4byte	0x6d7
 1273 07d3 0E       		.uleb128 0xe
 1274 07d4 C8070000 		.4byte	0x7c8
 1275 07d8 11       		.uleb128 0x11
 1276 07d9 64070000 		.4byte	.LASF134
 1277 07dd 0D       		.byte	0xd
 1278 07de 6E       		.byte	0x6e
 1279 07df D3070000 		.4byte	0x7d3
 1280 07e3 03       		.uleb128 0x3
 1281 07e4 89060000 		.4byte	.LASF135
 1282 07e8 0C       		.byte	0xc
 1283 07e9 34       		.byte	0x34
 1284 07ea 62060000 		.4byte	0x662
 1285 07ee 09       		.uleb128 0x9
 1286 07ef 04       		.byte	0x4
 1287 07f0 E3070000 		.4byte	0x7e3
 1288 07f4 04       		.uleb128 0x4
 1289 07f5 01       		.byte	0x1
 1290 07f6 02       		.byte	0x2
 1291 07f7 9C020000 		.4byte	.LASF136
 1292 07fb 03       		.uleb128 0x3
 1293 07fc E7050000 		.4byte	.LASF137
 1294 0800 0F       		.byte	0xf
 1295 0801 34       		.byte	0x34
 1296 0802 06080000 		.4byte	0x806
 1297 0806 09       		.uleb128 0x9
 1298 0807 04       		.byte	0x4
 1299 0808 0C080000 		.4byte	0x80c
 1300 080c 1B       		.uleb128 0x1b
 1301 080d 2F030000 		.4byte	0x32f
 1302 0811 1B080000 		.4byte	0x81b
 1303 0815 0C       		.uleb128 0xc
 1304 0816 2C000000 		.4byte	0x2c
 1305 081a 00       		.byte	0
 1306 081b 05       		.uleb128 0x5
 1307 081c E8060000 		.4byte	.LASF138
ARM GAS  /tmp/cci2tF7b.s 			page 24


 1308 0820 04       		.byte	0x4
 1309 0821 10       		.byte	0x10
 1310 0822 38       		.byte	0x38
 1311 0823 34080000 		.4byte	0x834
 1312 0827 06       		.uleb128 0x6
 1313 0828 F7010000 		.4byte	.LASF139
 1314 082c 10       		.byte	0x10
 1315 082d 39       		.byte	0x39
 1316 082e 34080000 		.4byte	0x834
 1317 0832 00       		.byte	0
 1318 0833 00       		.byte	0
 1319 0834 09       		.uleb128 0x9
 1320 0835 04       		.byte	0x4
 1321 0836 1B080000 		.4byte	0x81b
 1322 083a 13       		.uleb128 0x13
 1323 083b 0C       		.byte	0xc
 1324 083c 10       		.byte	0x10
 1325 083d 40       		.byte	0x40
 1326 083e 67080000 		.4byte	0x867
 1327 0842 06       		.uleb128 0x6
 1328 0843 0A040000 		.4byte	.LASF140
 1329 0847 10       		.byte	0x10
 1330 0848 41       		.byte	0x41
 1331 0849 34080000 		.4byte	0x834
 1332 084d 00       		.byte	0
 1333 084e 06       		.uleb128 0x6
 1334 084f CF040000 		.4byte	.LASF141
 1335 0853 10       		.byte	0x10
 1336 0854 42       		.byte	0x42
 1337 0855 2C000000 		.4byte	0x2c
 1338 0859 04       		.byte	0x4
 1339 085a 06       		.uleb128 0x6
 1340 085b 96070000 		.4byte	.LASF142
 1341 085f 10       		.byte	0x10
 1342 0860 44       		.byte	0x44
 1343 0861 FB070000 		.4byte	0x7fb
 1344 0865 08       		.byte	0x8
 1345 0866 00       		.byte	0
 1346 0867 03       		.uleb128 0x3
 1347 0868 41000000 		.4byte	.LASF143
 1348 086c 10       		.byte	0x10
 1349 086d 46       		.byte	0x46
 1350 086e 3A080000 		.4byte	0x83a
 1351 0872 05       		.uleb128 0x5
 1352 0873 30020000 		.4byte	.LASF144
 1353 0877 10       		.byte	0x10
 1354 0878 11       		.byte	0x11
 1355 0879 3B       		.byte	0x3b
 1356 087a AF080000 		.4byte	0x8af
 1357 087e 06       		.uleb128 0x6
 1358 087f F4050000 		.4byte	.LASF145
 1359 0883 11       		.byte	0x11
 1360 0884 3C       		.byte	0x3c
 1361 0885 99060000 		.4byte	0x699
 1362 0889 00       		.byte	0
 1363 088a 06       		.uleb128 0x6
 1364 088b 9F060000 		.4byte	.LASF146
ARM GAS  /tmp/cci2tF7b.s 			page 25


 1365 088f 11       		.byte	0x11
 1366 0890 3D       		.byte	0x3d
 1367 0891 B5080000 		.4byte	0x8b5
 1368 0895 04       		.byte	0x4
 1369 0896 06       		.uleb128 0x6
 1370 0897 79040000 		.4byte	.LASF147
 1371 089b 11       		.byte	0x11
 1372 089c 3E       		.byte	0x3e
 1373 089d B5080000 		.4byte	0x8b5
 1374 08a1 08       		.byte	0x8
 1375 08a2 06       		.uleb128 0x6
 1376 08a3 2E040000 		.4byte	.LASF148
 1377 08a7 11       		.byte	0x11
 1378 08a8 3F       		.byte	0x3f
 1379 08a9 B5080000 		.4byte	0x8b5
 1380 08ad 0C       		.byte	0xc
 1381 08ae 00       		.byte	0
 1382 08af 0E       		.uleb128 0xe
 1383 08b0 72080000 		.4byte	0x872
 1384 08b4 1C       		.uleb128 0x1c
 1385 08b5 09       		.uleb128 0x9
 1386 08b6 04       		.byte	0x4
 1387 08b7 B4080000 		.4byte	0x8b4
 1388 08bb 14       		.uleb128 0x14
 1389 08bc 9006     		.2byte	0x690
 1390 08be 11       		.byte	0x11
 1391 08bf 44       		.byte	0x44
 1392 08c0 00090000 		.4byte	0x900
 1393 08c4 12       		.uleb128 0x12
 1394 08c5 543000   		.ascii	"T0\000"
 1395 08c8 11       		.byte	0x11
 1396 08c9 45       		.byte	0x45
 1397 08ca 00090000 		.4byte	0x900
 1398 08ce 00       		.byte	0
 1399 08cf 1D       		.uleb128 0x1d
 1400 08d0 543100   		.ascii	"T1\000"
 1401 08d3 11       		.byte	0x11
 1402 08d4 46       		.byte	0x46
 1403 08d5 00090000 		.4byte	0x900
 1404 08d9 5001     		.2byte	0x150
 1405 08db 1D       		.uleb128 0x1d
 1406 08dc 543200   		.ascii	"T2\000"
 1407 08df 11       		.byte	0x11
 1408 08e0 47       		.byte	0x47
 1409 08e1 00090000 		.4byte	0x900
 1410 08e5 A002     		.2byte	0x2a0
 1411 08e7 1D       		.uleb128 0x1d
 1412 08e8 543300   		.ascii	"T3\000"
 1413 08eb 11       		.byte	0x11
 1414 08ec 48       		.byte	0x48
 1415 08ed 00090000 		.4byte	0x900
 1416 08f1 F003     		.2byte	0x3f0
 1417 08f3 1D       		.uleb128 0x1d
 1418 08f4 543400   		.ascii	"T4\000"
 1419 08f7 11       		.byte	0x11
 1420 08f8 49       		.byte	0x49
 1421 08f9 00090000 		.4byte	0x900
ARM GAS  /tmp/cci2tF7b.s 			page 26


 1422 08fd 4005     		.2byte	0x540
 1423 08ff 00       		.byte	0
 1424 0900 15       		.uleb128 0x15
 1425 0901 A5040000 		.4byte	0x4a5
 1426 0905 10090000 		.4byte	0x910
 1427 0909 16       		.uleb128 0x16
 1428 090a 88040000 		.4byte	0x488
 1429 090e 29       		.byte	0x29
 1430 090f 00       		.byte	0
 1431 0910 1E       		.uleb128 0x1e
 1432 0911 DB060000 		.4byte	.LASF161
 1433 0915 9006     		.2byte	0x690
 1434 0917 11       		.byte	0x11
 1435 0918 43       		.byte	0x43
 1436 0919 33090000 		.4byte	0x933
 1437 091d 1F       		.uleb128 0x1f
 1438 091e 776100   		.ascii	"wa\000"
 1439 0921 11       		.byte	0x11
 1440 0922 4A       		.byte	0x4a
 1441 0923 BB080000 		.4byte	0x8bb
 1442 0927 20       		.uleb128 0x20
 1443 0928 6E000000 		.4byte	.LASF149
 1444 092c 11       		.byte	0x11
 1445 092d 4B       		.byte	0x4b
 1446 092e 33090000 		.4byte	0x933
 1447 0932 00       		.byte	0
 1448 0933 15       		.uleb128 0x15
 1449 0934 B4000000 		.4byte	0xb4
 1450 0938 44090000 		.4byte	0x944
 1451 093c 21       		.uleb128 0x21
 1452 093d 88040000 		.4byte	0x488
 1453 0941 8F06     		.2byte	0x68f
 1454 0943 00       		.byte	0
 1455 0944 11       		.uleb128 0x11
 1456 0945 0E020000 		.4byte	.LASF150
 1457 0949 11       		.byte	0x11
 1458 094a 4F       		.byte	0x4f
 1459 094b F4070000 		.4byte	0x7f4
 1460 094f 15       		.uleb128 0x15
 1461 0950 52020000 		.4byte	0x252
 1462 0954 5F090000 		.4byte	0x95f
 1463 0958 16       		.uleb128 0x16
 1464 0959 88040000 		.4byte	0x488
 1465 095d 04       		.byte	0x4
 1466 095e 00       		.byte	0
 1467 095f 11       		.uleb128 0x11
 1468 0960 56060000 		.4byte	.LASF151
 1469 0964 11       		.byte	0x11
 1470 0965 A7       		.byte	0xa7
 1471 0966 4F090000 		.4byte	0x94f
 1472 096a 11       		.uleb128 0x11
 1473 096b E5000000 		.4byte	.LASF152
 1474 096f 11       		.byte	0x11
 1475 0970 A8       		.byte	0xa8
 1476 0971 10090000 		.4byte	0x910
 1477 0975 15       		.uleb128 0x15
 1478 0976 31030000 		.4byte	0x331
ARM GAS  /tmp/cci2tF7b.s 			page 27


 1479 097a 80090000 		.4byte	0x980
 1480 097e 22       		.uleb128 0x22
 1481 097f 00       		.byte	0
 1482 0980 0E       		.uleb128 0xe
 1483 0981 75090000 		.4byte	0x975
 1484 0985 23       		.uleb128 0x23
 1485 0986 776100   		.ascii	"wa\000"
 1486 0989 11       		.byte	0x11
 1487 098a A9       		.byte	0xa9
 1488 098b 80090000 		.4byte	0x980
 1489 098f 11       		.uleb128 0x11
 1490 0990 7D070000 		.4byte	.LASF153
 1491 0994 11       		.byte	0x11
 1492 0995 AA       		.byte	0xaa
 1493 0996 F4070000 		.4byte	0x7f4
 1494 099a 24       		.uleb128 0x24
 1495 099b 6D703100 		.ascii	"mp1\000"
 1496 099f 01       		.byte	0x1
 1497 09a0 31       		.byte	0x31
 1498 09a1 67080000 		.4byte	0x867
 1499 09a5 05       		.uleb128 0x5
 1500 09a6 03       		.byte	0x3
 1501 09a7 00000000 		.4byte	mp1
 1502 09ab 25       		.uleb128 0x25
 1503 09ac 07060000 		.4byte	.LASF154
 1504 09b0 01       		.byte	0x1
 1505 09b1 64       		.byte	0x64
 1506 09b2 AF080000 		.4byte	0x8af
 1507 09b6 05       		.uleb128 0x5
 1508 09b7 03       		.byte	0x3
 1509 09b8 00000000 		.4byte	testpools1
 1510 09bc 15       		.uleb128 0x15
 1511 09bd D7090000 		.4byte	0x9d7
 1512 09c1 CC090000 		.4byte	0x9cc
 1513 09c5 16       		.uleb128 0x16
 1514 09c6 88040000 		.4byte	0x488
 1515 09ca 01       		.byte	0x1
 1516 09cb 00       		.byte	0
 1517 09cc 0E       		.uleb128 0xe
 1518 09cd BC090000 		.4byte	0x9bc
 1519 09d1 09       		.uleb128 0x9
 1520 09d2 04       		.byte	0x4
 1521 09d3 AF080000 		.4byte	0x8af
 1522 09d7 0E       		.uleb128 0xe
 1523 09d8 D1090000 		.4byte	0x9d1
 1524 09dc 25       		.uleb128 0x25
 1525 09dd 9A040000 		.4byte	.LASF155
 1526 09e1 01       		.byte	0x1
 1527 09e2 70       		.byte	0x70
 1528 09e3 CC090000 		.4byte	0x9cc
 1529 09e7 05       		.uleb128 0x5
 1530 09e8 03       		.byte	0x3
 1531 09e9 00000000 		.4byte	patternpools
 1532 09ed 26       		.uleb128 0x26
 1533 09ee FF010000 		.4byte	.LASF156
 1534 09f2 01       		.byte	0x1
 1535 09f3 47       		.byte	0x47
ARM GAS  /tmp/cci2tF7b.s 			page 28


 1536 09f4 00000000 		.4byte	.LFB154
 1537 09f8 10010000 		.4byte	.LFE154-.LFB154
 1538 09fc 01       		.uleb128 0x1
 1539 09fd 9C       		.byte	0x9c
 1540 09fe 0F0A0000 		.4byte	0xa0f
 1541 0a02 24       		.uleb128 0x24
 1542 0a03 6900     		.ascii	"i\000"
 1543 0a05 01       		.byte	0x1
 1544 0a06 48       		.byte	0x48
 1545 0a07 25000000 		.4byte	0x25
 1546 0a0b 02       		.uleb128 0x2
 1547 0a0c 91       		.byte	0x91
 1548 0a0d 74       		.sleb128 -12
 1549 0a0e 00       		.byte	0
 1550 0a0f 27       		.uleb128 0x27
 1551 0a10 D8000000 		.4byte	.LASF162
 1552 0a14 01       		.byte	0x1
 1553 0a15 42       		.byte	0x42
 1554 0a16 00000000 		.4byte	.LFB153
 1555 0a1a 18000000 		.4byte	.LFE153-.LFB153
 1556 0a1e 01       		.uleb128 0x1
 1557 0a1f 9C       		.byte	0x9c
 1558 0a20 28       		.uleb128 0x28
 1559 0a21 CD060000 		.4byte	.LASF157
 1560 0a25 01       		.byte	0x1
 1561 0a26 3C       		.byte	0x3c
 1562 0a27 2F030000 		.4byte	0x32f
 1563 0a2b 00000000 		.4byte	.LFB152
 1564 0a2f 0C000000 		.4byte	.LFE152-.LFB152
 1565 0a33 01       		.uleb128 0x1
 1566 0a34 9C       		.byte	0x9c
 1567 0a35 29       		.uleb128 0x29
 1568 0a36 BB040000 		.4byte	.LASF163
 1569 0a3a 01       		.byte	0x1
 1570 0a3b 3C       		.byte	0x3c
 1571 0a3c 2C000000 		.4byte	0x2c
 1572 0a40 02       		.uleb128 0x2
 1573 0a41 91       		.byte	0x91
 1574 0a42 7C       		.sleb128 -4
 1575 0a43 00       		.byte	0
 1576 0a44 00       		.byte	0
 1577              		.section	.debug_abbrev,"",%progbits
 1578              	.Ldebug_abbrev0:
 1579 0000 01       		.uleb128 0x1
 1580 0001 11       		.uleb128 0x11
 1581 0002 01       		.byte	0x1
 1582 0003 25       		.uleb128 0x25
 1583 0004 0E       		.uleb128 0xe
 1584 0005 13       		.uleb128 0x13
 1585 0006 0B       		.uleb128 0xb
 1586 0007 03       		.uleb128 0x3
 1587 0008 0E       		.uleb128 0xe
 1588 0009 1B       		.uleb128 0x1b
 1589 000a 0E       		.uleb128 0xe
 1590 000b 55       		.uleb128 0x55
 1591 000c 17       		.uleb128 0x17
 1592 000d 11       		.uleb128 0x11
ARM GAS  /tmp/cci2tF7b.s 			page 29


 1593 000e 01       		.uleb128 0x1
 1594 000f 10       		.uleb128 0x10
 1595 0010 17       		.uleb128 0x17
 1596 0011 00       		.byte	0
 1597 0012 00       		.byte	0
 1598 0013 02       		.uleb128 0x2
 1599 0014 24       		.uleb128 0x24
 1600 0015 00       		.byte	0
 1601 0016 0B       		.uleb128 0xb
 1602 0017 0B       		.uleb128 0xb
 1603 0018 3E       		.uleb128 0x3e
 1604 0019 0B       		.uleb128 0xb
 1605 001a 03       		.uleb128 0x3
 1606 001b 08       		.uleb128 0x8
 1607 001c 00       		.byte	0
 1608 001d 00       		.byte	0
 1609 001e 03       		.uleb128 0x3
 1610 001f 16       		.uleb128 0x16
 1611 0020 00       		.byte	0
 1612 0021 03       		.uleb128 0x3
 1613 0022 0E       		.uleb128 0xe
 1614 0023 3A       		.uleb128 0x3a
 1615 0024 0B       		.uleb128 0xb
 1616 0025 3B       		.uleb128 0x3b
 1617 0026 0B       		.uleb128 0xb
 1618 0027 49       		.uleb128 0x49
 1619 0028 13       		.uleb128 0x13
 1620 0029 00       		.byte	0
 1621 002a 00       		.byte	0
 1622 002b 04       		.uleb128 0x4
 1623 002c 24       		.uleb128 0x24
 1624 002d 00       		.byte	0
 1625 002e 0B       		.uleb128 0xb
 1626 002f 0B       		.uleb128 0xb
 1627 0030 3E       		.uleb128 0x3e
 1628 0031 0B       		.uleb128 0xb
 1629 0032 03       		.uleb128 0x3
 1630 0033 0E       		.uleb128 0xe
 1631 0034 00       		.byte	0
 1632 0035 00       		.byte	0
 1633 0036 05       		.uleb128 0x5
 1634 0037 13       		.uleb128 0x13
 1635 0038 01       		.byte	0x1
 1636 0039 03       		.uleb128 0x3
 1637 003a 0E       		.uleb128 0xe
 1638 003b 0B       		.uleb128 0xb
 1639 003c 0B       		.uleb128 0xb
 1640 003d 3A       		.uleb128 0x3a
 1641 003e 0B       		.uleb128 0xb
 1642 003f 3B       		.uleb128 0x3b
 1643 0040 0B       		.uleb128 0xb
 1644 0041 01       		.uleb128 0x1
 1645 0042 13       		.uleb128 0x13
 1646 0043 00       		.byte	0
 1647 0044 00       		.byte	0
 1648 0045 06       		.uleb128 0x6
 1649 0046 0D       		.uleb128 0xd
ARM GAS  /tmp/cci2tF7b.s 			page 30


 1650 0047 00       		.byte	0
 1651 0048 03       		.uleb128 0x3
 1652 0049 0E       		.uleb128 0xe
 1653 004a 3A       		.uleb128 0x3a
 1654 004b 0B       		.uleb128 0xb
 1655 004c 3B       		.uleb128 0x3b
 1656 004d 0B       		.uleb128 0xb
 1657 004e 49       		.uleb128 0x49
 1658 004f 13       		.uleb128 0x13
 1659 0050 38       		.uleb128 0x38
 1660 0051 0B       		.uleb128 0xb
 1661 0052 00       		.byte	0
 1662 0053 00       		.byte	0
 1663 0054 07       		.uleb128 0x7
 1664 0055 0D       		.uleb128 0xd
 1665 0056 00       		.byte	0
 1666 0057 03       		.uleb128 0x3
 1667 0058 08       		.uleb128 0x8
 1668 0059 3A       		.uleb128 0x3a
 1669 005a 0B       		.uleb128 0xb
 1670 005b 3B       		.uleb128 0x3b
 1671 005c 05       		.uleb128 0x5
 1672 005d 49       		.uleb128 0x49
 1673 005e 13       		.uleb128 0x13
 1674 005f 38       		.uleb128 0x38
 1675 0060 0B       		.uleb128 0xb
 1676 0061 00       		.byte	0
 1677 0062 00       		.byte	0
 1678 0063 08       		.uleb128 0x8
 1679 0064 0D       		.uleb128 0xd
 1680 0065 00       		.byte	0
 1681 0066 03       		.uleb128 0x3
 1682 0067 0E       		.uleb128 0xe
 1683 0068 3A       		.uleb128 0x3a
 1684 0069 0B       		.uleb128 0xb
 1685 006a 3B       		.uleb128 0x3b
 1686 006b 05       		.uleb128 0x5
 1687 006c 49       		.uleb128 0x49
 1688 006d 13       		.uleb128 0x13
 1689 006e 38       		.uleb128 0x38
 1690 006f 0B       		.uleb128 0xb
 1691 0070 00       		.byte	0
 1692 0071 00       		.byte	0
 1693 0072 09       		.uleb128 0x9
 1694 0073 0F       		.uleb128 0xf
 1695 0074 00       		.byte	0
 1696 0075 0B       		.uleb128 0xb
 1697 0076 0B       		.uleb128 0xb
 1698 0077 49       		.uleb128 0x49
 1699 0078 13       		.uleb128 0x13
 1700 0079 00       		.byte	0
 1701 007a 00       		.byte	0
 1702 007b 0A       		.uleb128 0xa
 1703 007c 13       		.uleb128 0x13
 1704 007d 01       		.byte	0x1
 1705 007e 03       		.uleb128 0x3
 1706 007f 0E       		.uleb128 0xe
ARM GAS  /tmp/cci2tF7b.s 			page 31


 1707 0080 0B       		.uleb128 0xb
 1708 0081 0B       		.uleb128 0xb
 1709 0082 3A       		.uleb128 0x3a
 1710 0083 0B       		.uleb128 0xb
 1711 0084 3B       		.uleb128 0x3b
 1712 0085 05       		.uleb128 0x5
 1713 0086 01       		.uleb128 0x1
 1714 0087 13       		.uleb128 0x13
 1715 0088 00       		.byte	0
 1716 0089 00       		.byte	0
 1717 008a 0B       		.uleb128 0xb
 1718 008b 15       		.uleb128 0x15
 1719 008c 01       		.byte	0x1
 1720 008d 27       		.uleb128 0x27
 1721 008e 19       		.uleb128 0x19
 1722 008f 01       		.uleb128 0x1
 1723 0090 13       		.uleb128 0x13
 1724 0091 00       		.byte	0
 1725 0092 00       		.byte	0
 1726 0093 0C       		.uleb128 0xc
 1727 0094 05       		.uleb128 0x5
 1728 0095 00       		.byte	0
 1729 0096 49       		.uleb128 0x49
 1730 0097 13       		.uleb128 0x13
 1731 0098 00       		.byte	0
 1732 0099 00       		.byte	0
 1733 009a 0D       		.uleb128 0xd
 1734 009b 0F       		.uleb128 0xf
 1735 009c 00       		.byte	0
 1736 009d 0B       		.uleb128 0xb
 1737 009e 0B       		.uleb128 0xb
 1738 009f 00       		.byte	0
 1739 00a0 00       		.byte	0
 1740 00a1 0E       		.uleb128 0xe
 1741 00a2 26       		.uleb128 0x26
 1742 00a3 00       		.byte	0
 1743 00a4 49       		.uleb128 0x49
 1744 00a5 13       		.uleb128 0x13
 1745 00a6 00       		.byte	0
 1746 00a7 00       		.byte	0
 1747 00a8 0F       		.uleb128 0xf
 1748 00a9 13       		.uleb128 0x13
 1749 00aa 01       		.byte	0x1
 1750 00ab 03       		.uleb128 0x3
 1751 00ac 0E       		.uleb128 0xe
 1752 00ad 0B       		.uleb128 0xb
 1753 00ae 05       		.uleb128 0x5
 1754 00af 3A       		.uleb128 0x3a
 1755 00b0 0B       		.uleb128 0xb
 1756 00b1 3B       		.uleb128 0x3b
 1757 00b2 05       		.uleb128 0x5
 1758 00b3 01       		.uleb128 0x1
 1759 00b4 13       		.uleb128 0x13
 1760 00b5 00       		.byte	0
 1761 00b6 00       		.byte	0
 1762 00b7 10       		.uleb128 0x10
 1763 00b8 0D       		.uleb128 0xd
ARM GAS  /tmp/cci2tF7b.s 			page 32


 1764 00b9 00       		.byte	0
 1765 00ba 03       		.uleb128 0x3
 1766 00bb 0E       		.uleb128 0xe
 1767 00bc 3A       		.uleb128 0x3a
 1768 00bd 0B       		.uleb128 0xb
 1769 00be 3B       		.uleb128 0x3b
 1770 00bf 05       		.uleb128 0x5
 1771 00c0 49       		.uleb128 0x49
 1772 00c1 13       		.uleb128 0x13
 1773 00c2 38       		.uleb128 0x38
 1774 00c3 05       		.uleb128 0x5
 1775 00c4 00       		.byte	0
 1776 00c5 00       		.byte	0
 1777 00c6 11       		.uleb128 0x11
 1778 00c7 34       		.uleb128 0x34
 1779 00c8 00       		.byte	0
 1780 00c9 03       		.uleb128 0x3
 1781 00ca 0E       		.uleb128 0xe
 1782 00cb 3A       		.uleb128 0x3a
 1783 00cc 0B       		.uleb128 0xb
 1784 00cd 3B       		.uleb128 0x3b
 1785 00ce 0B       		.uleb128 0xb
 1786 00cf 49       		.uleb128 0x49
 1787 00d0 13       		.uleb128 0x13
 1788 00d1 3F       		.uleb128 0x3f
 1789 00d2 19       		.uleb128 0x19
 1790 00d3 3C       		.uleb128 0x3c
 1791 00d4 19       		.uleb128 0x19
 1792 00d5 00       		.byte	0
 1793 00d6 00       		.byte	0
 1794 00d7 12       		.uleb128 0x12
 1795 00d8 0D       		.uleb128 0xd
 1796 00d9 00       		.byte	0
 1797 00da 03       		.uleb128 0x3
 1798 00db 08       		.uleb128 0x8
 1799 00dc 3A       		.uleb128 0x3a
 1800 00dd 0B       		.uleb128 0xb
 1801 00de 3B       		.uleb128 0x3b
 1802 00df 0B       		.uleb128 0xb
 1803 00e0 49       		.uleb128 0x49
 1804 00e1 13       		.uleb128 0x13
 1805 00e2 38       		.uleb128 0x38
 1806 00e3 0B       		.uleb128 0xb
 1807 00e4 00       		.byte	0
 1808 00e5 00       		.byte	0
 1809 00e6 13       		.uleb128 0x13
 1810 00e7 13       		.uleb128 0x13
 1811 00e8 01       		.byte	0x1
 1812 00e9 0B       		.uleb128 0xb
 1813 00ea 0B       		.uleb128 0xb
 1814 00eb 3A       		.uleb128 0x3a
 1815 00ec 0B       		.uleb128 0xb
 1816 00ed 3B       		.uleb128 0x3b
 1817 00ee 0B       		.uleb128 0xb
 1818 00ef 01       		.uleb128 0x1
 1819 00f0 13       		.uleb128 0x13
 1820 00f1 00       		.byte	0
ARM GAS  /tmp/cci2tF7b.s 			page 33


 1821 00f2 00       		.byte	0
 1822 00f3 14       		.uleb128 0x14
 1823 00f4 13       		.uleb128 0x13
 1824 00f5 01       		.byte	0x1
 1825 00f6 0B       		.uleb128 0xb
 1826 00f7 05       		.uleb128 0x5
 1827 00f8 3A       		.uleb128 0x3a
 1828 00f9 0B       		.uleb128 0xb
 1829 00fa 3B       		.uleb128 0x3b
 1830 00fb 0B       		.uleb128 0xb
 1831 00fc 01       		.uleb128 0x1
 1832 00fd 13       		.uleb128 0x13
 1833 00fe 00       		.byte	0
 1834 00ff 00       		.byte	0
 1835 0100 15       		.uleb128 0x15
 1836 0101 01       		.uleb128 0x1
 1837 0102 01       		.byte	0x1
 1838 0103 49       		.uleb128 0x49
 1839 0104 13       		.uleb128 0x13
 1840 0105 01       		.uleb128 0x1
 1841 0106 13       		.uleb128 0x13
 1842 0107 00       		.byte	0
 1843 0108 00       		.byte	0
 1844 0109 16       		.uleb128 0x16
 1845 010a 21       		.uleb128 0x21
 1846 010b 00       		.byte	0
 1847 010c 49       		.uleb128 0x49
 1848 010d 13       		.uleb128 0x13
 1849 010e 2F       		.uleb128 0x2f
 1850 010f 0B       		.uleb128 0xb
 1851 0110 00       		.byte	0
 1852 0111 00       		.byte	0
 1853 0112 17       		.uleb128 0x17
 1854 0113 17       		.uleb128 0x17
 1855 0114 01       		.byte	0x1
 1856 0115 0B       		.uleb128 0xb
 1857 0116 0B       		.uleb128 0xb
 1858 0117 3A       		.uleb128 0x3a
 1859 0118 0B       		.uleb128 0xb
 1860 0119 3B       		.uleb128 0x3b
 1861 011a 0B       		.uleb128 0xb
 1862 011b 01       		.uleb128 0x1
 1863 011c 13       		.uleb128 0x13
 1864 011d 00       		.byte	0
 1865 011e 00       		.byte	0
 1866 011f 18       		.uleb128 0x18
 1867 0120 0D       		.uleb128 0xd
 1868 0121 00       		.byte	0
 1869 0122 03       		.uleb128 0x3
 1870 0123 0E       		.uleb128 0xe
 1871 0124 3A       		.uleb128 0x3a
 1872 0125 0B       		.uleb128 0xb
 1873 0126 3B       		.uleb128 0x3b
 1874 0127 05       		.uleb128 0x5
 1875 0128 49       		.uleb128 0x49
 1876 0129 13       		.uleb128 0x13
 1877 012a 00       		.byte	0
ARM GAS  /tmp/cci2tF7b.s 			page 34


 1878 012b 00       		.byte	0
 1879 012c 19       		.uleb128 0x19
 1880 012d 35       		.uleb128 0x35
 1881 012e 00       		.byte	0
 1882 012f 49       		.uleb128 0x49
 1883 0130 13       		.uleb128 0x13
 1884 0131 00       		.byte	0
 1885 0132 00       		.byte	0
 1886 0133 1A       		.uleb128 0x1a
 1887 0134 34       		.uleb128 0x34
 1888 0135 00       		.byte	0
 1889 0136 03       		.uleb128 0x3
 1890 0137 08       		.uleb128 0x8
 1891 0138 3A       		.uleb128 0x3a
 1892 0139 0B       		.uleb128 0xb
 1893 013a 3B       		.uleb128 0x3b
 1894 013b 05       		.uleb128 0x5
 1895 013c 49       		.uleb128 0x49
 1896 013d 13       		.uleb128 0x13
 1897 013e 3F       		.uleb128 0x3f
 1898 013f 19       		.uleb128 0x19
 1899 0140 3C       		.uleb128 0x3c
 1900 0141 19       		.uleb128 0x19
 1901 0142 00       		.byte	0
 1902 0143 00       		.byte	0
 1903 0144 1B       		.uleb128 0x1b
 1904 0145 15       		.uleb128 0x15
 1905 0146 01       		.byte	0x1
 1906 0147 27       		.uleb128 0x27
 1907 0148 19       		.uleb128 0x19
 1908 0149 49       		.uleb128 0x49
 1909 014a 13       		.uleb128 0x13
 1910 014b 01       		.uleb128 0x1
 1911 014c 13       		.uleb128 0x13
 1912 014d 00       		.byte	0
 1913 014e 00       		.byte	0
 1914 014f 1C       		.uleb128 0x1c
 1915 0150 15       		.uleb128 0x15
 1916 0151 00       		.byte	0
 1917 0152 27       		.uleb128 0x27
 1918 0153 19       		.uleb128 0x19
 1919 0154 00       		.byte	0
 1920 0155 00       		.byte	0
 1921 0156 1D       		.uleb128 0x1d
 1922 0157 0D       		.uleb128 0xd
 1923 0158 00       		.byte	0
 1924 0159 03       		.uleb128 0x3
 1925 015a 08       		.uleb128 0x8
 1926 015b 3A       		.uleb128 0x3a
 1927 015c 0B       		.uleb128 0xb
 1928 015d 3B       		.uleb128 0x3b
 1929 015e 0B       		.uleb128 0xb
 1930 015f 49       		.uleb128 0x49
 1931 0160 13       		.uleb128 0x13
 1932 0161 38       		.uleb128 0x38
 1933 0162 05       		.uleb128 0x5
 1934 0163 00       		.byte	0
ARM GAS  /tmp/cci2tF7b.s 			page 35


 1935 0164 00       		.byte	0
 1936 0165 1E       		.uleb128 0x1e
 1937 0166 17       		.uleb128 0x17
 1938 0167 01       		.byte	0x1
 1939 0168 03       		.uleb128 0x3
 1940 0169 0E       		.uleb128 0xe
 1941 016a 0B       		.uleb128 0xb
 1942 016b 05       		.uleb128 0x5
 1943 016c 3A       		.uleb128 0x3a
 1944 016d 0B       		.uleb128 0xb
 1945 016e 3B       		.uleb128 0x3b
 1946 016f 0B       		.uleb128 0xb
 1947 0170 01       		.uleb128 0x1
 1948 0171 13       		.uleb128 0x13
 1949 0172 00       		.byte	0
 1950 0173 00       		.byte	0
 1951 0174 1F       		.uleb128 0x1f
 1952 0175 0D       		.uleb128 0xd
 1953 0176 00       		.byte	0
 1954 0177 03       		.uleb128 0x3
 1955 0178 08       		.uleb128 0x8
 1956 0179 3A       		.uleb128 0x3a
 1957 017a 0B       		.uleb128 0xb
 1958 017b 3B       		.uleb128 0x3b
 1959 017c 0B       		.uleb128 0xb
 1960 017d 49       		.uleb128 0x49
 1961 017e 13       		.uleb128 0x13
 1962 017f 00       		.byte	0
 1963 0180 00       		.byte	0
 1964 0181 20       		.uleb128 0x20
 1965 0182 0D       		.uleb128 0xd
 1966 0183 00       		.byte	0
 1967 0184 03       		.uleb128 0x3
 1968 0185 0E       		.uleb128 0xe
 1969 0186 3A       		.uleb128 0x3a
 1970 0187 0B       		.uleb128 0xb
 1971 0188 3B       		.uleb128 0x3b
 1972 0189 0B       		.uleb128 0xb
 1973 018a 49       		.uleb128 0x49
 1974 018b 13       		.uleb128 0x13
 1975 018c 00       		.byte	0
 1976 018d 00       		.byte	0
 1977 018e 21       		.uleb128 0x21
 1978 018f 21       		.uleb128 0x21
 1979 0190 00       		.byte	0
 1980 0191 49       		.uleb128 0x49
 1981 0192 13       		.uleb128 0x13
 1982 0193 2F       		.uleb128 0x2f
 1983 0194 05       		.uleb128 0x5
 1984 0195 00       		.byte	0
 1985 0196 00       		.byte	0
 1986 0197 22       		.uleb128 0x22
 1987 0198 21       		.uleb128 0x21
 1988 0199 00       		.byte	0
 1989 019a 00       		.byte	0
 1990 019b 00       		.byte	0
 1991 019c 23       		.uleb128 0x23
ARM GAS  /tmp/cci2tF7b.s 			page 36


 1992 019d 34       		.uleb128 0x34
 1993 019e 00       		.byte	0
 1994 019f 03       		.uleb128 0x3
 1995 01a0 08       		.uleb128 0x8
 1996 01a1 3A       		.uleb128 0x3a
 1997 01a2 0B       		.uleb128 0xb
 1998 01a3 3B       		.uleb128 0x3b
 1999 01a4 0B       		.uleb128 0xb
 2000 01a5 49       		.uleb128 0x49
 2001 01a6 13       		.uleb128 0x13
 2002 01a7 3F       		.uleb128 0x3f
 2003 01a8 19       		.uleb128 0x19
 2004 01a9 3C       		.uleb128 0x3c
 2005 01aa 19       		.uleb128 0x19
 2006 01ab 00       		.byte	0
 2007 01ac 00       		.byte	0
 2008 01ad 24       		.uleb128 0x24
 2009 01ae 34       		.uleb128 0x34
 2010 01af 00       		.byte	0
 2011 01b0 03       		.uleb128 0x3
 2012 01b1 08       		.uleb128 0x8
 2013 01b2 3A       		.uleb128 0x3a
 2014 01b3 0B       		.uleb128 0xb
 2015 01b4 3B       		.uleb128 0x3b
 2016 01b5 0B       		.uleb128 0xb
 2017 01b6 49       		.uleb128 0x49
 2018 01b7 13       		.uleb128 0x13
 2019 01b8 02       		.uleb128 0x2
 2020 01b9 18       		.uleb128 0x18
 2021 01ba 00       		.byte	0
 2022 01bb 00       		.byte	0
 2023 01bc 25       		.uleb128 0x25
 2024 01bd 34       		.uleb128 0x34
 2025 01be 00       		.byte	0
 2026 01bf 03       		.uleb128 0x3
 2027 01c0 0E       		.uleb128 0xe
 2028 01c1 3A       		.uleb128 0x3a
 2029 01c2 0B       		.uleb128 0xb
 2030 01c3 3B       		.uleb128 0x3b
 2031 01c4 0B       		.uleb128 0xb
 2032 01c5 49       		.uleb128 0x49
 2033 01c6 13       		.uleb128 0x13
 2034 01c7 3F       		.uleb128 0x3f
 2035 01c8 19       		.uleb128 0x19
 2036 01c9 02       		.uleb128 0x2
 2037 01ca 18       		.uleb128 0x18
 2038 01cb 00       		.byte	0
 2039 01cc 00       		.byte	0
 2040 01cd 26       		.uleb128 0x26
 2041 01ce 2E       		.uleb128 0x2e
 2042 01cf 01       		.byte	0x1
 2043 01d0 03       		.uleb128 0x3
 2044 01d1 0E       		.uleb128 0xe
 2045 01d2 3A       		.uleb128 0x3a
 2046 01d3 0B       		.uleb128 0xb
 2047 01d4 3B       		.uleb128 0x3b
 2048 01d5 0B       		.uleb128 0xb
ARM GAS  /tmp/cci2tF7b.s 			page 37


 2049 01d6 27       		.uleb128 0x27
 2050 01d7 19       		.uleb128 0x19
 2051 01d8 11       		.uleb128 0x11
 2052 01d9 01       		.uleb128 0x1
 2053 01da 12       		.uleb128 0x12
 2054 01db 06       		.uleb128 0x6
 2055 01dc 40       		.uleb128 0x40
 2056 01dd 18       		.uleb128 0x18
 2057 01de 9642     		.uleb128 0x2116
 2058 01e0 19       		.uleb128 0x19
 2059 01e1 01       		.uleb128 0x1
 2060 01e2 13       		.uleb128 0x13
 2061 01e3 00       		.byte	0
 2062 01e4 00       		.byte	0
 2063 01e5 27       		.uleb128 0x27
 2064 01e6 2E       		.uleb128 0x2e
 2065 01e7 00       		.byte	0
 2066 01e8 03       		.uleb128 0x3
 2067 01e9 0E       		.uleb128 0xe
 2068 01ea 3A       		.uleb128 0x3a
 2069 01eb 0B       		.uleb128 0xb
 2070 01ec 3B       		.uleb128 0x3b
 2071 01ed 0B       		.uleb128 0xb
 2072 01ee 27       		.uleb128 0x27
 2073 01ef 19       		.uleb128 0x19
 2074 01f0 11       		.uleb128 0x11
 2075 01f1 01       		.uleb128 0x1
 2076 01f2 12       		.uleb128 0x12
 2077 01f3 06       		.uleb128 0x6
 2078 01f4 40       		.uleb128 0x40
 2079 01f5 18       		.uleb128 0x18
 2080 01f6 9642     		.uleb128 0x2116
 2081 01f8 19       		.uleb128 0x19
 2082 01f9 00       		.byte	0
 2083 01fa 00       		.byte	0
 2084 01fb 28       		.uleb128 0x28
 2085 01fc 2E       		.uleb128 0x2e
 2086 01fd 01       		.byte	0x1
 2087 01fe 03       		.uleb128 0x3
 2088 01ff 0E       		.uleb128 0xe
 2089 0200 3A       		.uleb128 0x3a
 2090 0201 0B       		.uleb128 0xb
 2091 0202 3B       		.uleb128 0x3b
 2092 0203 0B       		.uleb128 0xb
 2093 0204 27       		.uleb128 0x27
 2094 0205 19       		.uleb128 0x19
 2095 0206 49       		.uleb128 0x49
 2096 0207 13       		.uleb128 0x13
 2097 0208 11       		.uleb128 0x11
 2098 0209 01       		.uleb128 0x1
 2099 020a 12       		.uleb128 0x12
 2100 020b 06       		.uleb128 0x6
 2101 020c 40       		.uleb128 0x40
 2102 020d 18       		.uleb128 0x18
 2103 020e 9742     		.uleb128 0x2117
 2104 0210 19       		.uleb128 0x19
 2105 0211 00       		.byte	0
ARM GAS  /tmp/cci2tF7b.s 			page 38


 2106 0212 00       		.byte	0
 2107 0213 29       		.uleb128 0x29
 2108 0214 05       		.uleb128 0x5
 2109 0215 00       		.byte	0
 2110 0216 03       		.uleb128 0x3
 2111 0217 0E       		.uleb128 0xe
 2112 0218 3A       		.uleb128 0x3a
 2113 0219 0B       		.uleb128 0xb
 2114 021a 3B       		.uleb128 0x3b
 2115 021b 0B       		.uleb128 0xb
 2116 021c 49       		.uleb128 0x49
 2117 021d 13       		.uleb128 0x13
 2118 021e 02       		.uleb128 0x2
 2119 021f 18       		.uleb128 0x18
 2120 0220 00       		.byte	0
 2121 0221 00       		.byte	0
 2122 0222 00       		.byte	0
 2123              		.section	.debug_aranges,"",%progbits
 2124 0000 2C000000 		.4byte	0x2c
 2125 0004 0200     		.2byte	0x2
 2126 0006 00000000 		.4byte	.Ldebug_info0
 2127 000a 04       		.byte	0x4
 2128 000b 00       		.byte	0
 2129 000c 0000     		.2byte	0
 2130 000e 0000     		.2byte	0
 2131 0010 00000000 		.4byte	.LFB152
 2132 0014 0C000000 		.4byte	.LFE152-.LFB152
 2133 0018 00000000 		.4byte	.LFB153
 2134 001c 18000000 		.4byte	.LFE153-.LFB153
 2135 0020 00000000 		.4byte	.LFB154
 2136 0024 10010000 		.4byte	.LFE154-.LFB154
 2137 0028 00000000 		.4byte	0
 2138 002c 00000000 		.4byte	0
 2139              		.section	.debug_ranges,"",%progbits
 2140              	.Ldebug_ranges0:
 2141 0000 00000000 		.4byte	.LFB152
 2142 0004 0C000000 		.4byte	.LFE152
 2143 0008 00000000 		.4byte	.LFB153
 2144 000c 18000000 		.4byte	.LFE153
 2145 0010 00000000 		.4byte	.LFB154
 2146 0014 10010000 		.4byte	.LFE154
 2147 0018 00000000 		.4byte	0
 2148 001c 00000000 		.4byte	0
 2149              		.section	.debug_line,"",%progbits
 2150              	.Ldebug_line0:
 2151 0000 FA020000 		.section	.debug_str,"MS",%progbits,1
 2151      02008702 
 2151      00000201 
 2151      FB0E0D00 
 2151      01010101 
 2152              	.LASF51:
 2153 0000 63685F74 		.ascii	"ch_threads_list\000"
 2153      68726561 
 2153      64735F6C 
 2153      69737400 
 2154              	.LASF52:
 2155 0010 74687265 		.ascii	"threads_queue_t\000"
ARM GAS  /tmp/cci2tF7b.s 			page 39


 2155      6164735F 
 2155      71756575 
 2155      655F7400 
 2156              	.LASF41:
 2157 0020 705F7761 		.ascii	"p_waiting\000"
 2157      6974696E 
 2157      6700
 2158              	.LASF114:
 2159 002a 53797374 		.ascii	"SystemCoreClock\000"
 2159      656D436F 
 2159      7265436C 
 2159      6F636B00 
 2160              	.LASF104:
 2161 003a 77746D74 		.ascii	"wtmtxp\000"
 2161      787000
 2162              	.LASF143:
 2163 0041 6D656D6F 		.ascii	"memory_pool_t\000"
 2163      72795F70 
 2163      6F6F6C5F 
 2163      7400
 2164              	.LASF113:
 2165 004f 63686172 		.ascii	"char\000"
 2165      00
 2166              	.LASF86:
 2167 0054 72656761 		.ascii	"regarm_t\000"
 2167      726D5F74 
 2167      00
 2168              	.LASF32:
 2169 005d 705F7072 		.ascii	"p_prio\000"
 2169      696F00
 2170              	.LASF28:
 2171 0064 73797374 		.ascii	"systime_t\000"
 2171      696D655F 
 2171      7400
 2172              	.LASF149:
 2173 006e 62756666 		.ascii	"buffer\000"
 2173      657200
 2174              	.LASF125:
 2175 0075 63665F6F 		.ascii	"cf_off_older\000"
 2175      66665F6F 
 2175      6C646572 
 2175      00
 2176              	.LASF111:
 2177 0082 6D5F6F77 		.ascii	"m_owner\000"
 2177      6E657200 
 2178              	.LASF107:
 2179 008a 735F7175 		.ascii	"s_queue\000"
 2179      65756500 
 2180              	.LASF42:
 2181 0092 705F6D73 		.ascii	"p_msgqueue\000"
 2181      67717565 
 2181      756500
 2182              	.LASF0:
 2183 009d 756E7369 		.ascii	"unsigned int\000"
 2183      676E6564 
 2183      20696E74 
 2183      00
ARM GAS  /tmp/cci2tF7b.s 			page 40


 2184              	.LASF49:
 2185 00aa 74687265 		.ascii	"threads_list_t\000"
 2185      6164735F 
 2185      6C697374 
 2185      5F7400
 2186              	.LASF10:
 2187 00b9 5F5F696E 		.ascii	"__int32_t\000"
 2187      7433325F 
 2187      7400
 2188              	.LASF93:
 2189 00c3 73655F73 		.ascii	"se_state\000"
 2189      74617465 
 2189      00
 2190              	.LASF126:
 2191 00cc 63665F6F 		.ascii	"cf_off_name\000"
 2191      66665F6E 
 2191      616D6500 
 2192              	.LASF162:
 2193 00d8 706F6F6C 		.ascii	"pools1_setup\000"
 2193      73315F73 
 2193      65747570 
 2193      00
 2194              	.LASF152:
 2195 00e5 74657374 		.ascii	"test\000"
 2195      00
 2196              	.LASF101:
 2197 00ea 77746F62 		.ascii	"wtobjp\000"
 2197      6A7000
 2198              	.LASF82:
 2199 00f1 76746C69 		.ascii	"vtlist\000"
 2199      737400
 2200              	.LASF55:
 2201 00f8 63685F72 		.ascii	"ch_ready_list\000"
 2201      65616479 
 2201      5F6C6973 
 2201      7400
 2202              	.LASF84:
 2203 0106 69646C65 		.ascii	"idle_thread_wa\000"
 2203      5F746872 
 2203      6561645F 
 2203      776100
 2204              	.LASF105:
 2205 0115 65776D61 		.ascii	"ewmask\000"
 2205      736B00
 2206              	.LASF129:
 2207 011c 63665F6F 		.ascii	"cf_off_flags\000"
 2207      66665F66 
 2207      6C616773 
 2207      00
 2208              	.LASF53:
 2209 0129 63685F74 		.ascii	"ch_threads_queue\000"
 2209      68726561 
 2209      64735F71 
 2209      75657565 
 2209      00
 2210              	.LASF119:
 2211 013a 63685F70 		.ascii	"ch_ptrsize\000"
ARM GAS  /tmp/cci2tF7b.s 			page 41


 2211      74727369 
 2211      7A6500
 2212              	.LASF62:
 2213 0145 76746675 		.ascii	"vtfunc_t\000"
 2213      6E635F74 
 2213      00
 2214              	.LASF108:
 2215 014e 735F636E 		.ascii	"s_cnt\000"
 2215      7400
 2216              	.LASF74:
 2217 0154 63685F73 		.ascii	"ch_system_debug\000"
 2217      79737465 
 2217      6D5F6465 
 2217      62756700 
 2218              	.LASF160:
 2219 0164 2F686F6D 		.ascii	"/home/felix/esho/Ultrasound/\000"
 2219      652F6665 
 2219      6C69782F 
 2219      6573686F 
 2219      2F556C74 
 2220              	.LASF19:
 2221 0181 75696E74 		.ascii	"uint32_t\000"
 2221      33325F74 
 2221      00
 2222              	.LASF120:
 2223 018a 63685F74 		.ascii	"ch_timesize\000"
 2223      696D6573 
 2223      697A6500 
 2224              	.LASF26:
 2225 0196 6576656E 		.ascii	"eventmask_t\000"
 2225      746D6173 
 2225      6B5F7400 
 2226              	.LASF57:
 2227 01a2 725F7072 		.ascii	"r_prio\000"
 2227      696F00
 2228              	.LASF69:
 2229 01a9 76745F70 		.ascii	"vt_par\000"
 2229      617200
 2230              	.LASF106:
 2231 01b0 63685F73 		.ascii	"ch_semaphore\000"
 2231      656D6170 
 2231      686F7265 
 2231      00
 2232              	.LASF24:
 2233 01bd 74707269 		.ascii	"tprio_t\000"
 2233      6F5F7400 
 2234              	.LASF64:
 2235 01c5 63685F76 		.ascii	"ch_virtual_timer\000"
 2235      69727475 
 2235      616C5F74 
 2235      696D6572 
 2235      00
 2236              	.LASF15:
 2237 01d6 6C6F6E67 		.ascii	"long long unsigned int\000"
 2237      206C6F6E 
 2237      6720756E 
 2237      7369676E 
ARM GAS  /tmp/cci2tF7b.s 			page 42


 2237      65642069 
 2238              	.LASF92:
 2239 01ed 73655F77 		.ascii	"se_wtobjp\000"
 2239      746F626A 
 2239      7000
 2240              	.LASF139:
 2241 01f7 70685F6E 		.ascii	"ph_next\000"
 2241      65787400 
 2242              	.LASF156:
 2243 01ff 706F6F6C 		.ascii	"pools1_execute\000"
 2243      73315F65 
 2243      78656375 
 2243      746500
 2244              	.LASF150:
 2245 020e 74657374 		.ascii	"test_global_fail\000"
 2245      5F676C6F 
 2245      62616C5F 
 2245      6661696C 
 2245      00
 2246              	.LASF8:
 2247 021f 5F5F7569 		.ascii	"__uint16_t\000"
 2247      6E743136 
 2247      5F7400
 2248              	.LASF27:
 2249 022a 636E745F 		.ascii	"cnt_t\000"
 2249      7400
 2250              	.LASF144:
 2251 0230 74657374 		.ascii	"testcase\000"
 2251      63617365 
 2251      00
 2252              	.LASF76:
 2253 0239 6973725F 		.ascii	"isr_cnt\000"
 2253      636E7400 
 2254              	.LASF34:
 2255 0241 705F6E65 		.ascii	"p_newer\000"
 2255      77657200 
 2256              	.LASF71:
 2257 0249 63685F76 		.ascii	"ch_virtual_timers_list\000"
 2257      69727475 
 2257      616C5F74 
 2257      696D6572 
 2257      735F6C69 
 2258              	.LASF90:
 2259 0260 73655F74 		.ascii	"se_time\000"
 2259      696D6500 
 2260              	.LASF29:
 2261 0268 74687265 		.ascii	"thread_t\000"
 2261      61645F74 
 2261      00
 2262              	.LASF4:
 2263 0271 73697A65 		.ascii	"size_t\000"
 2263      5F7400
 2264              	.LASF99:
 2265 0278 7264796D 		.ascii	"rdymsg\000"
 2265      736700
 2266              	.LASF121:
 2267 027f 63685F74 		.ascii	"ch_threadsize\000"
ARM GAS  /tmp/cci2tF7b.s 			page 43


 2267      68726561 
 2267      6473697A 
 2267      6500
 2268              	.LASF131:
 2269 028d 63665F6F 		.ascii	"cf_off_preempt\000"
 2269      66665F70 
 2269      7265656D 
 2269      707400
 2270              	.LASF136:
 2271 029c 5F426F6F 		.ascii	"_Bool\000"
 2271      6C00
 2272              	.LASF158:
 2273 02a2 474E5520 		.ascii	"GNU C11 6.3.1 20170215 (release) [ARM/embedded-6-br"
 2273      43313120 
 2273      362E332E 
 2273      31203230 
 2273      31373032 
 2274 02d5 616E6368 		.ascii	"anch revision 245512] -mcpu=cortex-m0 -mno-thumb-in"
 2274      20726576 
 2274      6973696F 
 2274      6E203234 
 2274      35353132 
 2275 0308 74657277 		.ascii	"terwork -mthumb -ggdb -O0 -fomit-frame-pointer -fal"
 2275      6F726B20 
 2275      2D6D7468 
 2275      756D6220 
 2275      2D676764 
 2276 033b 69676E2D 		.ascii	"ign-functions=16 -ffunction-sections -fdata-section"
 2276      66756E63 
 2276      74696F6E 
 2276      733D3136 
 2276      202D6666 
 2277 036e 7300     		.ascii	"s\000"
 2278              	.LASF109:
 2279 0370 63685F6D 		.ascii	"ch_mutex\000"
 2279      75746578 
 2279      00
 2280              	.LASF14:
 2281 0379 5F5F7569 		.ascii	"__uint64_t\000"
 2281      6E743634 
 2281      5F7400
 2282              	.LASF123:
 2283 0384 63665F6F 		.ascii	"cf_off_ctx\000"
 2283      66665F63 
 2283      747800
 2284              	.LASF127:
 2285 038f 63665F6F 		.ascii	"cf_off_stklimit\000"
 2285      66665F73 
 2285      746B6C69 
 2285      6D697400 
 2286              	.LASF36:
 2287 039f 705F6E61 		.ascii	"p_name\000"
 2287      6D6500
 2288              	.LASF67:
 2289 03a6 76745F64 		.ascii	"vt_delta\000"
 2289      656C7461 
 2289      00
ARM GAS  /tmp/cci2tF7b.s 			page 44


 2290              	.LASF48:
 2291 03af 74687265 		.ascii	"thread_reference_t\000"
 2291      61645F72 
 2291      65666572 
 2291      656E6365 
 2291      5F7400
 2292              	.LASF72:
 2293 03c2 76745F6C 		.ascii	"vt_lasttime\000"
 2293      61737474 
 2293      696D6500 
 2294              	.LASF22:
 2295 03ce 74737461 		.ascii	"tstate_t\000"
 2295      74655F74 
 2295      00
 2296              	.LASF91:
 2297 03d7 73655F74 		.ascii	"se_tp\000"
 2297      7000
 2298              	.LASF35:
 2299 03dd 705F6F6C 		.ascii	"p_older\000"
 2299      64657200 
 2300              	.LASF38:
 2301 03e5 705F7374 		.ascii	"p_state\000"
 2301      61746500 
 2302              	.LASF37:
 2303 03ed 705F7374 		.ascii	"p_stklimit\000"
 2303      6B6C696D 
 2303      697400
 2304              	.LASF16:
 2305 03f8 75696E74 		.ascii	"uint8_t\000"
 2305      385F7400 
 2306              	.LASF97:
 2307 0400 74625F62 		.ascii	"tb_buffer\000"
 2307      75666665 
 2307      7200
 2308              	.LASF140:
 2309 040a 6D705F6E 		.ascii	"mp_next\000"
 2309      65787400 
 2310              	.LASF47:
 2311 0412 705F6D70 		.ascii	"p_mpool\000"
 2311      6F6F6C00 
 2312              	.LASF45:
 2313 041a 705F6D74 		.ascii	"p_mtxlist\000"
 2313      786C6973 
 2313      7400
 2314              	.LASF50:
 2315 0424 63685F74 		.ascii	"ch_thread\000"
 2315      68726561 
 2315      6400
 2316              	.LASF148:
 2317 042e 65786563 		.ascii	"execute\000"
 2317      75746500 
 2318              	.LASF95:
 2319 0436 74625F73 		.ascii	"tb_size\000"
 2319      697A6500 
 2320              	.LASF73:
 2321 043e 73797374 		.ascii	"system_debug_t\000"
 2321      656D5F64 
ARM GAS  /tmp/cci2tF7b.s 			page 45


 2321      65627567 
 2321      5F7400
 2322              	.LASF1:
 2323 044d 6C6F6E67 		.ascii	"long long int\000"
 2323      206C6F6E 
 2323      6720696E 
 2323      7400
 2324              	.LASF56:
 2325 045b 725F7175 		.ascii	"r_queue\000"
 2325      65756500 
 2326              	.LASF59:
 2327 0463 725F6E65 		.ascii	"r_newer\000"
 2327      77657200 
 2328              	.LASF25:
 2329 046b 6D73675F 		.ascii	"msg_t\000"
 2329      7400
 2330              	.LASF88:
 2331 0471 636F6E74 		.ascii	"context\000"
 2331      65787400 
 2332              	.LASF147:
 2333 0479 74656172 		.ascii	"teardown\000"
 2333      646F776E 
 2333      00
 2334              	.LASF39:
 2335 0482 705F666C 		.ascii	"p_flags\000"
 2335      61677300 
 2336              	.LASF63:
 2337 048a 76697274 		.ascii	"virtual_timer_t\000"
 2337      75616C5F 
 2337      74696D65 
 2337      725F7400 
 2338              	.LASF155:
 2339 049a 70617474 		.ascii	"patternpools\000"
 2339      65726E70 
 2339      6F6F6C73 
 2339      00
 2340              	.LASF130:
 2341 04a7 63665F6F 		.ascii	"cf_off_refs\000"
 2341      66665F72 
 2341      65667300 
 2342              	.LASF116:
 2343 04b3 63685F7A 		.ascii	"ch_zero\000"
 2343      65726F00 
 2344              	.LASF163:
 2345 04bb 73697A65 		.ascii	"size\000"
 2345      00
 2346              	.LASF96:
 2347 04c0 74625F70 		.ascii	"tb_ptr\000"
 2347      747200
 2348              	.LASF60:
 2349 04c7 725F6F6C 		.ascii	"r_older\000"
 2349      64657200 
 2350              	.LASF141:
 2351 04cf 6D705F6F 		.ascii	"mp_object_size\000"
 2351      626A6563 
 2351      745F7369 
 2351      7A6500
ARM GAS  /tmp/cci2tF7b.s 			page 46


 2352              	.LASF75:
 2353 04de 70616E69 		.ascii	"panic_msg\000"
 2353      635F6D73 
 2353      6700
 2354              	.LASF159:
 2355 04e8 43686962 		.ascii	"ChibiOS/test/rt/testpools.c\000"
 2355      694F532F 
 2355      74657374 
 2355      2F72742F 
 2355      74657374 
 2356              	.LASF43:
 2357 0504 705F6D73 		.ascii	"p_msg\000"
 2357      6700
 2358              	.LASF21:
 2359 050a 746D6F64 		.ascii	"tmode_t\000"
 2359      655F7400 
 2360              	.LASF117:
 2361 0512 63685F73 		.ascii	"ch_size\000"
 2361      697A6500 
 2362              	.LASF83:
 2363 051a 6D61696E 		.ascii	"mainthread\000"
 2363      74687265 
 2363      616400
 2364              	.LASF2:
 2365 0525 6C6F6E67 		.ascii	"long double\000"
 2365      20646F75 
 2365      626C6500 
 2366              	.LASF17:
 2367 0531 75696E74 		.ascii	"uint16_t\000"
 2367      31365F74 
 2367      00
 2368              	.LASF133:
 2369 053a 63686465 		.ascii	"chdebug_t\000"
 2369      6275675F 
 2369      7400
 2370              	.LASF77:
 2371 0544 6C6F636B 		.ascii	"lock_cnt\000"
 2371      5F636E74 
 2371      00
 2372              	.LASF46:
 2373 054d 705F7265 		.ascii	"p_realprio\000"
 2373      616C7072 
 2373      696F00
 2374              	.LASF118:
 2375 0558 63685F76 		.ascii	"ch_version\000"
 2375      65727369 
 2375      6F6E00
 2376              	.LASF7:
 2377 0563 73686F72 		.ascii	"short int\000"
 2377      7420696E 
 2377      7400
 2378              	.LASF61:
 2379 056d 725F6375 		.ascii	"r_current\000"
 2379      7272656E 
 2379      7400
 2380              	.LASF44:
 2381 0577 705F6570 		.ascii	"p_epending\000"
ARM GAS  /tmp/cci2tF7b.s 			page 47


 2381      656E6469 
 2381      6E6700
 2382              	.LASF110:
 2383 0582 6D5F7175 		.ascii	"m_queue\000"
 2383      65756500 
 2384              	.LASF11:
 2385 058a 6C6F6E67 		.ascii	"long int\000"
 2385      20696E74 
 2385      00
 2386              	.LASF89:
 2387 0593 706F7274 		.ascii	"port_intctx\000"
 2387      5F696E74 
 2387      63747800 
 2388              	.LASF80:
 2389 059f 63685F73 		.ascii	"ch_system\000"
 2389      79737465 
 2389      6D00
 2390              	.LASF30:
 2391 05a9 705F6E65 		.ascii	"p_next\000"
 2391      787400
 2392              	.LASF20:
 2393 05b0 75696E74 		.ascii	"uint64_t\000"
 2393      36345F74 
 2393      00
 2394              	.LASF33:
 2395 05b9 705F6374 		.ascii	"p_ctx\000"
 2395      7800
 2396              	.LASF81:
 2397 05bf 726C6973 		.ascii	"rlist\000"
 2397      7400
 2398              	.LASF132:
 2399 05c5 63665F6F 		.ascii	"cf_off_time\000"
 2399      66665F74 
 2399      696D6500 
 2400              	.LASF122:
 2401 05d1 63665F6F 		.ascii	"cf_off_prio\000"
 2401      66665F70 
 2401      72696F00 
 2402              	.LASF5:
 2403 05dd 5F5F7569 		.ascii	"__uint8_t\000"
 2403      6E74385F 
 2403      7400
 2404              	.LASF137:
 2405 05e7 6D656D67 		.ascii	"memgetfunc_t\000"
 2405      65746675 
 2405      6E635F74 
 2405      00
 2406              	.LASF145:
 2407 05f4 6E616D65 		.ascii	"name\000"
 2407      00
 2408              	.LASF115:
 2409 05f9 63685F69 		.ascii	"ch_identifier\000"
 2409      64656E74 
 2409      69666965 
 2409      7200
 2410              	.LASF154:
 2411 0607 74657374 		.ascii	"testpools1\000"
ARM GAS  /tmp/cci2tF7b.s 			page 48


 2411      706F6F6C 
 2411      733100
 2412              	.LASF31:
 2413 0612 705F7072 		.ascii	"p_prev\000"
 2413      657600
 2414              	.LASF85:
 2415 0619 73697A65 		.ascii	"sizetype\000"
 2415      74797065 
 2415      00
 2416              	.LASF23:
 2417 0622 74726566 		.ascii	"trefs_t\000"
 2417      735F7400 
 2418              	.LASF13:
 2419 062a 6C6F6E67 		.ascii	"long unsigned int\000"
 2419      20756E73 
 2419      69676E65 
 2419      6420696E 
 2419      7400
 2420              	.LASF128:
 2421 063c 63665F6F 		.ascii	"cf_off_state\000"
 2421      66665F73 
 2421      74617465 
 2421      00
 2422              	.LASF54:
 2423 0649 72656164 		.ascii	"ready_list_t\000"
 2423      795F6C69 
 2423      73745F74 
 2423      00
 2424              	.LASF151:
 2425 0656 74687265 		.ascii	"threads\000"
 2425      61647300 
 2426              	.LASF18:
 2427 065e 696E7433 		.ascii	"int32_t\000"
 2427      325F7400 
 2428              	.LASF78:
 2429 0666 74726163 		.ascii	"trace_buffer\000"
 2429      655F6275 
 2429      66666572 
 2429      00
 2430              	.LASF103:
 2431 0673 77747365 		.ascii	"wtsemp\000"
 2431      6D7000
 2432              	.LASF94:
 2433 067a 63685F73 		.ascii	"ch_swc_event_t\000"
 2433      77635F65 
 2433      76656E74 
 2433      5F7400
 2434              	.LASF135:
 2435 0689 6D757465 		.ascii	"mutex_t\000"
 2435      785F7400 
 2436              	.LASF6:
 2437 0691 756E7369 		.ascii	"unsigned char\000"
 2437      676E6564 
 2437      20636861 
 2437      7200
 2438              	.LASF146:
 2439 069f 73657475 		.ascii	"setup\000"
ARM GAS  /tmp/cci2tF7b.s 			page 49


 2439      7000
 2440              	.LASF12:
 2441 06a5 5F5F7569 		.ascii	"__uint32_t\000"
 2441      6E743332 
 2441      5F7400
 2442              	.LASF70:
 2443 06b0 76697274 		.ascii	"virtual_timers_list_t\000"
 2443      75616C5F 
 2443      74696D65 
 2443      72735F6C 
 2443      6973745F 
 2444              	.LASF40:
 2445 06c6 705F7265 		.ascii	"p_refs\000"
 2445      667300
 2446              	.LASF157:
 2447 06cd 6E756C6C 		.ascii	"null_provider\000"
 2447      5F70726F 
 2447      76696465 
 2447      7200
 2448              	.LASF161:
 2449 06db 74657374 		.ascii	"test_buffers\000"
 2449      5F627566 
 2449      66657273 
 2449      00
 2450              	.LASF138:
 2451 06e8 706F6F6C 		.ascii	"pool_header\000"
 2451      5F686561 
 2451      64657200 
 2452              	.LASF65:
 2453 06f4 76745F6E 		.ascii	"vt_next\000"
 2453      65787400 
 2454              	.LASF79:
 2455 06fc 63685F73 		.ascii	"ch_system_t\000"
 2455      79737465 
 2455      6D5F7400 
 2456              	.LASF102:
 2457 0708 77747472 		.ascii	"wttrp\000"
 2457      7000
 2458              	.LASF98:
 2459 070e 63685F74 		.ascii	"ch_trace_buffer_t\000"
 2459      72616365 
 2459      5F627566 
 2459      6665725F 
 2459      7400
 2460              	.LASF112:
 2461 0720 6D5F6E65 		.ascii	"m_next\000"
 2461      787400
 2462              	.LASF3:
 2463 0727 7369676E 		.ascii	"signed char\000"
 2463      65642063 
 2463      68617200 
 2464              	.LASF124:
 2465 0733 63665F6F 		.ascii	"cf_off_newer\000"
 2465      66665F6E 
 2465      65776572 
 2465      00
 2466              	.LASF9:
ARM GAS  /tmp/cci2tF7b.s 			page 50


 2467 0740 73686F72 		.ascii	"short unsigned int\000"
 2467      7420756E 
 2467      7369676E 
 2467      65642069 
 2467      6E7400
 2468              	.LASF58:
 2469 0753 725F6374 		.ascii	"r_ctx\000"
 2469      7800
 2470              	.LASF87:
 2471 0759 73746B61 		.ascii	"stkalign_t\000"
 2471      6C69676E 
 2471      5F7400
 2472              	.LASF134:
 2473 0764 63685F64 		.ascii	"ch_debug\000"
 2473      65627567 
 2473      00
 2474              	.LASF68:
 2475 076d 76745F66 		.ascii	"vt_func\000"
 2475      756E6300 
 2476              	.LASF66:
 2477 0775 76745F70 		.ascii	"vt_prev\000"
 2477      72657600 
 2478              	.LASF153:
 2479 077d 74657374 		.ascii	"test_timer_done\000"
 2479      5F74696D 
 2479      65725F64 
 2479      6F6E6500 
 2480              	.LASF100:
 2481 078d 65786974 		.ascii	"exitcode\000"
 2481      636F6465 
 2481      00
 2482              	.LASF142:
 2483 0796 6D705F70 		.ascii	"mp_provider\000"
 2483      726F7669 
 2483      64657200 
 2484              		.ident	"GCC: (GNU Tools for ARM Embedded Processors 6-2017-q1-update) 6.3.1 20170215 (release) [AR
ARM GAS  /tmp/cci2tF7b.s 			page 51


DEFINED SYMBOLS
                            *ABS*:0000000000000000 testpools.c
     /tmp/cci2tF7b.s:16     .data.mp1:0000000000000000 $d
     /tmp/cci2tF7b.s:19     .data.mp1:0000000000000000 mp1
     /tmp/cci2tF7b.s:24     .text.null_provider:0000000000000000 $t
     /tmp/cci2tF7b.s:31     .text.null_provider:0000000000000000 null_provider
     /tmp/cci2tF7b.s:53     .text.pools1_setup:0000000000000000 $t
     /tmp/cci2tF7b.s:60     .text.pools1_setup:0000000000000000 pools1_setup
     /tmp/cci2tF7b.s:84     .text.pools1_setup:0000000000000014 $d
     /tmp/cci2tF7b.s:89     .text.pools1_execute:0000000000000000 $t
     /tmp/cci2tF7b.s:96     .text.pools1_execute:0000000000000000 pools1_execute
     /tmp/cci2tF7b.s:258    .text.pools1_execute:0000000000000104 $d
     /tmp/cci2tF7b.s:273    .rodata.testpools1:0000000000000000 testpools1
     /tmp/cci2tF7b.s:266    .rodata:0000000000000000 $d
     /tmp/cci2tF7b.s:270    .rodata.testpools1:0000000000000000 $d
     /tmp/cci2tF7b.s:283    .rodata.patternpools:0000000000000000 patternpools
     /tmp/cci2tF7b.s:280    .rodata.patternpools:0000000000000000 $d
                     .debug_frame:0000000000000010 $d

UNDEFINED SYMBOLS
chPoolObjectInit
chPoolLoadArray
chPoolAlloc
_test_assert
chPoolFree
wa
