ARM GAS  /tmp/cc3GneUP.s 			page 1


   1              		.cpu cortex-m0
   2              		.eabi_attribute 20, 1
   3              		.eabi_attribute 21, 1
   4              		.eabi_attribute 23, 3
   5              		.eabi_attribute 24, 1
   6              		.eabi_attribute 25, 1
   7              		.eabi_attribute 26, 1
   8              		.eabi_attribute 30, 6
   9              		.eabi_attribute 34, 0
  10              		.eabi_attribute 18, 4
  11              		.file	"testmbox.c"
  12              		.text
  13              	.Ltext0:
  14              		.cfi_sections	.debug_frame
  15              		.section	.text.port_lock,"ax",%progbits
  16              		.align	1
  17              		.p2align 4,,15
  18              		.syntax unified
  19              		.code	16
  20              		.thumb_func
  21              		.fpu softvfp
  22              		.type	port_lock, %function
  23              	port_lock:
  24              	.LFB38:
  25              		.file 1 "ChibiOS/os/rt/ports/ARMCMx/chcore_v6m.h"
  26              		.loc 1 330 0
  27              		.cfi_startproc
  28              		@ args = 0, pretend = 0, frame = 0
  29              		@ frame_needed = 0, uses_anonymous_args = 0
  30              		@ link register save eliminated.
  31              	.LBB6:
  32              	.LBB7:
  33              		.file 2 "ChibiOS/os/ext/CMSIS/include/core_cmFunc.h"
  34              		.loc 2 344 0
  35              		.syntax divided
  36              	@ 344 "ChibiOS/os/ext/CMSIS/include/core_cmFunc.h" 1
  37 0000 72B6     		cpsid i
  38              	@ 0 "" 2
  39              		.thumb
  40              		.syntax unified
  41              	.LBE7:
  42              	.LBE6:
  43              		.loc 1 333 0
  44 0002 C046     		nop
  45              		@ sp needed
  46 0004 7047     		bx	lr
  47              		.cfi_endproc
  48              	.LFE38:
  49              		.size	port_lock, .-port_lock
  50 0006 C046     		.section	.text.port_unlock,"ax",%progbits
  51              		.align	1
  52              		.p2align 4,,15
  53              		.syntax unified
  54              		.code	16
  55              		.thumb_func
  56              		.fpu softvfp
  57              		.type	port_unlock, %function
ARM GAS  /tmp/cc3GneUP.s 			page 2


  58              	port_unlock:
  59              	.LFB39:
  60              		.loc 1 339 0
  61              		.cfi_startproc
  62              		@ args = 0, pretend = 0, frame = 0
  63              		@ frame_needed = 0, uses_anonymous_args = 0
  64              		@ link register save eliminated.
  65              	.LBB8:
  66              	.LBB9:
  67              		.loc 2 333 0
  68              		.syntax divided
  69              	@ 333 "ChibiOS/os/ext/CMSIS/include/core_cmFunc.h" 1
  70 0000 62B6     		cpsie i
  71              	@ 0 "" 2
  72              		.thumb
  73              		.syntax unified
  74              	.LBE9:
  75              	.LBE8:
  76              		.loc 1 342 0
  77 0002 C046     		nop
  78              		@ sp needed
  79 0004 7047     		bx	lr
  80              		.cfi_endproc
  81              	.LFE39:
  82              		.size	port_unlock, .-port_unlock
  83 0006 C046     		.section	.text.chSysLock,"ax",%progbits
  84              		.align	1
  85              		.p2align 4,,15
  86              		.syntax unified
  87              		.code	16
  88              		.thumb_func
  89              		.fpu softvfp
  90              		.type	chSysLock, %function
  91              	chSysLock:
  92              	.LFB77:
  93              		.file 3 "ChibiOS/os/rt/include/chsys.h"
  94              		.loc 3 346 0
  95              		.cfi_startproc
  96              		@ args = 0, pretend = 0, frame = 0
  97              		@ frame_needed = 0, uses_anonymous_args = 0
  98 0000 10B5     		push	{r4, lr}
  99              		.cfi_def_cfa_offset 8
 100              		.cfi_offset 4, -8
 101              		.cfi_offset 14, -4
 102              		.loc 3 348 0
 103 0002 FFF7FEFF 		bl	port_lock
 104              		.loc 3 350 0
 105 0006 FFF7FEFF 		bl	_dbg_check_lock
 106              		.loc 3 351 0
 107 000a C046     		nop
 108              		@ sp needed
 109 000c 10BD     		pop	{r4, pc}
 110              		.cfi_endproc
 111              	.LFE77:
 112              		.size	chSysLock, .-chSysLock
 113 000e C046     		.section	.text.chSysUnlock,"ax",%progbits
 114              		.align	1
ARM GAS  /tmp/cc3GneUP.s 			page 3


 115              		.p2align 4,,15
 116              		.syntax unified
 117              		.code	16
 118              		.thumb_func
 119              		.fpu softvfp
 120              		.type	chSysUnlock, %function
 121              	chSysUnlock:
 122              	.LFB78:
 123              		.loc 3 358 0
 124              		.cfi_startproc
 125              		@ args = 0, pretend = 0, frame = 0
 126              		@ frame_needed = 0, uses_anonymous_args = 0
 127 0000 10B5     		push	{r4, lr}
 128              		.cfi_def_cfa_offset 8
 129              		.cfi_offset 4, -8
 130              		.cfi_offset 14, -4
 131              		.loc 3 360 0
 132 0002 FFF7FEFF 		bl	_dbg_check_unlock
 133              		.loc 3 367 0
 134 0006 0A4B     		ldr	r3, .L6
 135 0008 1A68     		ldr	r2, [r3]
 136 000a 094B     		ldr	r3, .L6
 137 000c 9A42     		cmp	r2, r3
 138 000e 0BD0     		beq	.L5
 139              		.loc 3 367 0 is_stmt 0 discriminator 2
 140 0010 074B     		ldr	r3, .L6
 141 0012 9B69     		ldr	r3, [r3, #24]
 142 0014 9A68     		ldr	r2, [r3, #8]
 143 0016 064B     		ldr	r3, .L6
 144 0018 1B68     		ldr	r3, [r3]
 145 001a 9B68     		ldr	r3, [r3, #8]
 146 001c 9A42     		cmp	r2, r3
 147 001e 03D2     		bcs	.L5
 148              		.loc 3 367 0 discriminator 3
 149 0020 044B     		ldr	r3, .L6+4
 150 0022 1800     		movs	r0, r3
 151 0024 FFF7FEFF 		bl	chSysHalt
 152              	.L5:
 153              		.loc 3 371 0 is_stmt 1
 154 0028 FFF7FEFF 		bl	port_unlock
 155              		.loc 3 372 0
 156 002c C046     		nop
 157              		@ sp needed
 158 002e 10BD     		pop	{r4, pc}
 159              	.L7:
 160              		.align	2
 161              	.L6:
 162 0030 00000000 		.word	ch
 163 0034 00000000 		.word	__func__.4993
 164              		.cfi_endproc
 165              	.LFE78:
 166              		.size	chSysUnlock, .-chSysUnlock
 167              		.section	.text.chMBGetSizeI,"ax",%progbits
 168              		.align	1
 169              		.p2align 4,,15
 170              		.syntax unified
 171              		.code	16
ARM GAS  /tmp/cc3GneUP.s 			page 4


 172              		.thumb_func
 173              		.fpu softvfp
 174              		.type	chMBGetSizeI, %function
 175              	chMBGetSizeI:
 176              	.LFB135:
 177              		.file 4 "ChibiOS/os/rt/include/chmboxes.h"
 178              		.loc 4 136 0
 179              		.cfi_startproc
 180              		@ args = 0, pretend = 0, frame = 8
 181              		@ frame_needed = 0, uses_anonymous_args = 0
 182              		@ link register save eliminated.
 183 0000 82B0     		sub	sp, sp, #8
 184              		.cfi_def_cfa_offset 8
 185 0002 0190     		str	r0, [sp, #4]
 186              		.loc 4 140 0
 187 0004 019B     		ldr	r3, [sp, #4]
 188 0006 5B68     		ldr	r3, [r3, #4]
 189 0008 1A00     		movs	r2, r3
 190 000a 019B     		ldr	r3, [sp, #4]
 191 000c 1B68     		ldr	r3, [r3]
 192 000e D31A     		subs	r3, r2, r3
 193 0010 9B10     		asrs	r3, r3, #2
 194              		.loc 4 142 0
 195 0012 1800     		movs	r0, r3
 196 0014 02B0     		add	sp, sp, #8
 197              		@ sp needed
 198 0016 7047     		bx	lr
 199              		.cfi_endproc
 200              	.LFE135:
 201              		.size	chMBGetSizeI, .-chMBGetSizeI
 202              		.section	.text.chMBGetUsedCountI,"ax",%progbits
 203              		.align	1
 204              		.p2align 4,,15
 205              		.syntax unified
 206              		.code	16
 207              		.thumb_func
 208              		.fpu softvfp
 209              		.type	chMBGetUsedCountI, %function
 210              	chMBGetUsedCountI:
 211              	.LFB136:
 212              		.loc 4 153 0
 213              		.cfi_startproc
 214              		@ args = 0, pretend = 0, frame = 8
 215              		@ frame_needed = 0, uses_anonymous_args = 0
 216 0000 00B5     		push	{lr}
 217              		.cfi_def_cfa_offset 4
 218              		.cfi_offset 14, -4
 219 0002 83B0     		sub	sp, sp, #12
 220              		.cfi_def_cfa_offset 16
 221 0004 0190     		str	r0, [sp, #4]
 222              		.loc 4 155 0
 223 0006 FFF7FEFF 		bl	chDbgCheckClassI
 224              		.loc 4 157 0
 225 000a 019B     		ldr	r3, [sp, #4]
 226 000c 1B69     		ldr	r3, [r3, #16]
 227              		.loc 4 158 0
 228 000e 1800     		movs	r0, r3
ARM GAS  /tmp/cc3GneUP.s 			page 5


 229 0010 03B0     		add	sp, sp, #12
 230              		@ sp needed
 231 0012 00BD     		pop	{pc}
 232              		.cfi_endproc
 233              	.LFE136:
 234              		.size	chMBGetUsedCountI, .-chMBGetUsedCountI
 235              		.section	.text.chMBGetFreeCountI,"ax",%progbits
 236              		.align	1
 237              		.p2align 4,,15
 238              		.syntax unified
 239              		.code	16
 240              		.thumb_func
 241              		.fpu softvfp
 242              		.type	chMBGetFreeCountI, %function
 243              	chMBGetFreeCountI:
 244              	.LFB137:
 245              		.loc 4 168 0
 246              		.cfi_startproc
 247              		@ args = 0, pretend = 0, frame = 8
 248              		@ frame_needed = 0, uses_anonymous_args = 0
 249 0000 10B5     		push	{r4, lr}
 250              		.cfi_def_cfa_offset 8
 251              		.cfi_offset 4, -8
 252              		.cfi_offset 14, -4
 253 0002 82B0     		sub	sp, sp, #8
 254              		.cfi_def_cfa_offset 16
 255 0004 0190     		str	r0, [sp, #4]
 256              		.loc 4 170 0
 257 0006 FFF7FEFF 		bl	chDbgCheckClassI
 258              		.loc 4 172 0
 259 000a 019B     		ldr	r3, [sp, #4]
 260 000c 1800     		movs	r0, r3
 261 000e FFF7FEFF 		bl	chMBGetSizeI
 262 0012 0400     		movs	r4, r0
 263 0014 019B     		ldr	r3, [sp, #4]
 264 0016 1800     		movs	r0, r3
 265 0018 FFF7FEFF 		bl	chMBGetUsedCountI
 266 001c 0300     		movs	r3, r0
 267 001e E31A     		subs	r3, r4, r3
 268              		.loc 4 173 0
 269 0020 1800     		movs	r0, r3
 270 0022 02B0     		add	sp, sp, #8
 271              		@ sp needed
 272 0024 10BD     		pop	{r4, pc}
 273              		.cfi_endproc
 274              	.LFE137:
 275              		.size	chMBGetFreeCountI, .-chMBGetFreeCountI
 276 0026 C046     		.section	.data.mb1,"aw",%progbits
 277              		.align	2
 278              		.type	mb1, %object
 279              		.size	mb1, 40
 280              	mb1:
 281 0000 00000000 		.word	test
 282 0004 14000000 		.word	test+20
 283 0008 00000000 		.word	test
 284 000c 00000000 		.word	test
 285 0010 00000000 		.word	0
ARM GAS  /tmp/cc3GneUP.s 			page 6


 286 0014 00       		.byte	0
 287 0015 000000   		.space	3
 288 0018 18000000 		.word	mb1+24
 289 001c 18000000 		.word	mb1+24
 290 0020 20000000 		.word	mb1+32
 291 0024 20000000 		.word	mb1+32
 292              		.section	.text.mbox1_setup,"ax",%progbits
 293              		.align	1
 294              		.p2align 4,,15
 295              		.syntax unified
 296              		.code	16
 297              		.thumb_func
 298              		.fpu softvfp
 299              		.type	mbox1_setup, %function
 300              	mbox1_setup:
 301              	.LFB152:
 302              		.file 5 "ChibiOS/test/rt/testmbox.c"
 303              		.loc 5 71 0
 304              		.cfi_startproc
 305              		@ args = 0, pretend = 0, frame = 0
 306              		@ frame_needed = 0, uses_anonymous_args = 0
 307 0000 10B5     		push	{r4, lr}
 308              		.cfi_def_cfa_offset 8
 309              		.cfi_offset 4, -8
 310              		.cfi_offset 14, -4
 311              		.loc 5 73 0
 312 0002 0449     		ldr	r1, .L15
 313 0004 044B     		ldr	r3, .L15+4
 314 0006 0522     		movs	r2, #5
 315 0008 1800     		movs	r0, r3
 316 000a FFF7FEFF 		bl	chMBObjectInit
 317              		.loc 5 74 0
 318 000e C046     		nop
 319              		@ sp needed
 320 0010 10BD     		pop	{r4, pc}
 321              	.L16:
 322 0012 C046     		.align	2
 323              	.L15:
 324 0014 00000000 		.word	test
 325 0018 00000000 		.word	mb1
 326              		.cfi_endproc
 327              	.LFE152:
 328              		.size	mbox1_setup, .-mbox1_setup
 329              		.section	.rodata
 330              		.align	2
 331              	.LC5:
 332 0000 41424344 		.ascii	"ABCDE\000"
 332      4500
 333              		.section	.text.mbox1_execute,"ax",%progbits
 334              		.align	1
 335              		.p2align 4,,15
 336              		.syntax unified
 337              		.code	16
 338              		.thumb_func
 339              		.fpu softvfp
 340              		.type	mbox1_execute, %function
 341              	mbox1_execute:
ARM GAS  /tmp/cc3GneUP.s 			page 7


 342              	.LFB153:
 343              		.loc 5 76 0
 344              		.cfi_startproc
 345              		@ args = 0, pretend = 0, frame = 16
 346              		@ frame_needed = 0, uses_anonymous_args = 0
 347 0000 00B5     		push	{lr}
 348              		.cfi_def_cfa_offset 4
 349              		.cfi_offset 14, -4
 350 0002 85B0     		sub	sp, sp, #20
 351              		.cfi_def_cfa_offset 24
 352              		.loc 5 83 0
 353 0004 FFF7FEFF 		bl	chSysLock
 354 0008 DB4B     		ldr	r3, .L107
 355 000a 1800     		movs	r0, r3
 356 000c FFF7FEFF 		bl	chMBGetFreeCountI
 357 0010 0300     		movs	r3, r0
 358 0012 053B     		subs	r3, r3, #5
 359 0014 5A42     		rsbs	r2, r3, #0
 360 0016 5341     		adcs	r3, r3, r2
 361 0018 DBB2     		uxtb	r3, r3
 362 001a 1900     		movs	r1, r3
 363 001c 0120     		movs	r0, #1
 364 001e FFF7FEFF 		bl	_test_assert
 365 0022 031E     		subs	r3, r0, #0
 366 0024 03D0     		beq	.L18
 367              		.loc 5 83 0 is_stmt 0 discriminator 1
 368 0026 FFF7FEFF 		bl	chSysUnlock
 369 002a 00F0F2FB 		bl	.L17	@ far jump
 370              	.L18:
 371              		.loc 5 83 0 discriminator 2
 372 002e FFF7FEFF 		bl	chSysUnlock
 373              		.loc 5 88 0 is_stmt 1 discriminator 2
 374 0032 0023     		movs	r3, #0
 375 0034 0393     		str	r3, [sp, #12]
 376 0036 18E0     		b	.L20
 377              	.L22:
 378              		.loc 5 89 0
 379 0038 039B     		ldr	r3, [sp, #12]
 380 003a 4233     		adds	r3, r3, #66
 381 003c 1900     		movs	r1, r3
 382 003e CF4A     		ldr	r2, .L107+4
 383 0040 CD4B     		ldr	r3, .L107
 384 0042 1800     		movs	r0, r3
 385 0044 FFF7FEFF 		bl	chMBPost
 386 0048 0300     		movs	r3, r0
 387 004a 0293     		str	r3, [sp, #8]
 388              		.loc 5 90 0
 389 004c 029B     		ldr	r3, [sp, #8]
 390 004e 5A42     		rsbs	r2, r3, #0
 391 0050 5341     		adcs	r3, r3, r2
 392 0052 DBB2     		uxtb	r3, r3
 393 0054 1900     		movs	r1, r3
 394 0056 0220     		movs	r0, #2
 395 0058 FFF7FEFF 		bl	_test_assert
 396 005c 031E     		subs	r3, r0, #0
 397 005e 01D0     		beq	.LCB244
 398 0060 00F098FB 		bl	.L75	@far jump
ARM GAS  /tmp/cc3GneUP.s 			page 8


 399              	.LCB244:
 400              		.loc 5 88 0 discriminator 2
 401 0064 039B     		ldr	r3, [sp, #12]
 402 0066 0133     		adds	r3, r3, #1
 403 0068 0393     		str	r3, [sp, #12]
 404              	.L20:
 405              		.loc 5 88 0 is_stmt 0 discriminator 1
 406 006a 039B     		ldr	r3, [sp, #12]
 407 006c 032B     		cmp	r3, #3
 408 006e E3D9     		bls	.L22
 409              		.loc 5 92 0 is_stmt 1
 410 0070 C24A     		ldr	r2, .L107+4
 411 0072 C14B     		ldr	r3, .L107
 412 0074 4121     		movs	r1, #65
 413 0076 1800     		movs	r0, r3
 414 0078 FFF7FEFF 		bl	chMBPostAhead
 415 007c 0300     		movs	r3, r0
 416 007e 0293     		str	r3, [sp, #8]
 417              		.loc 5 93 0
 418 0080 029B     		ldr	r3, [sp, #8]
 419 0082 5A42     		rsbs	r2, r3, #0
 420 0084 5341     		adcs	r3, r3, r2
 421 0086 DBB2     		uxtb	r3, r3
 422 0088 1900     		movs	r1, r3
 423 008a 0320     		movs	r0, #3
 424 008c FFF7FEFF 		bl	_test_assert
 425 0090 031E     		subs	r3, r0, #0
 426 0092 01D0     		beq	.LCB268
 427 0094 00F080FB 		bl	.L76	@far jump
 428              	.LCB268:
 429              		.loc 5 98 0
 430 0098 B74B     		ldr	r3, .L107
 431 009a 0122     		movs	r2, #1
 432 009c 5821     		movs	r1, #88
 433 009e 1800     		movs	r0, r3
 434 00a0 FFF7FEFF 		bl	chMBPost
 435 00a4 0300     		movs	r3, r0
 436 00a6 0293     		str	r3, [sp, #8]
 437              		.loc 5 99 0
 438 00a8 029B     		ldr	r3, [sp, #8]
 439 00aa 0133     		adds	r3, r3, #1
 440 00ac 5A42     		rsbs	r2, r3, #0
 441 00ae 5341     		adcs	r3, r3, r2
 442 00b0 DBB2     		uxtb	r3, r3
 443 00b2 1900     		movs	r1, r3
 444 00b4 0420     		movs	r0, #4
 445 00b6 FFF7FEFF 		bl	_test_assert
 446 00ba 031E     		subs	r3, r0, #0
 447 00bc 00D0     		beq	.LCB285
 448 00be 6DE3     		b	.L77	@long jump
 449              	.LCB285:
 450              		.loc 5 100 0
 451 00c0 FFF7FEFF 		bl	chSysLock
 452              		.loc 5 101 0
 453 00c4 AC4B     		ldr	r3, .L107
 454 00c6 5821     		movs	r1, #88
 455 00c8 1800     		movs	r0, r3
ARM GAS  /tmp/cc3GneUP.s 			page 9


 456 00ca FFF7FEFF 		bl	chMBPostI
 457 00ce 0300     		movs	r3, r0
 458 00d0 0293     		str	r3, [sp, #8]
 459              		.loc 5 102 0
 460 00d2 FFF7FEFF 		bl	chSysUnlock
 461              		.loc 5 103 0
 462 00d6 029B     		ldr	r3, [sp, #8]
 463 00d8 0133     		adds	r3, r3, #1
 464 00da 5A42     		rsbs	r2, r3, #0
 465 00dc 5341     		adcs	r3, r3, r2
 466 00de DBB2     		uxtb	r3, r3
 467 00e0 1900     		movs	r1, r3
 468 00e2 0520     		movs	r0, #5
 469 00e4 FFF7FEFF 		bl	_test_assert
 470 00e8 031E     		subs	r3, r0, #0
 471 00ea 00D0     		beq	.LCB303
 472 00ec 58E3     		b	.L78	@long jump
 473              	.LCB303:
 474              		.loc 5 104 0
 475 00ee A24B     		ldr	r3, .L107
 476 00f0 0122     		movs	r2, #1
 477 00f2 5821     		movs	r1, #88
 478 00f4 1800     		movs	r0, r3
 479 00f6 FFF7FEFF 		bl	chMBPostAhead
 480 00fa 0300     		movs	r3, r0
 481 00fc 0293     		str	r3, [sp, #8]
 482              		.loc 5 105 0
 483 00fe 029B     		ldr	r3, [sp, #8]
 484 0100 0133     		adds	r3, r3, #1
 485 0102 5A42     		rsbs	r2, r3, #0
 486 0104 5341     		adcs	r3, r3, r2
 487 0106 DBB2     		uxtb	r3, r3
 488 0108 1900     		movs	r1, r3
 489 010a 0620     		movs	r0, #6
 490 010c FFF7FEFF 		bl	_test_assert
 491 0110 031E     		subs	r3, r0, #0
 492 0112 00D0     		beq	.LCB320
 493 0114 46E3     		b	.L79	@long jump
 494              	.LCB320:
 495              		.loc 5 106 0
 496 0116 FFF7FEFF 		bl	chSysLock
 497              		.loc 5 107 0
 498 011a 974B     		ldr	r3, .L107
 499 011c 5821     		movs	r1, #88
 500 011e 1800     		movs	r0, r3
 501 0120 FFF7FEFF 		bl	chMBPostAheadI
 502 0124 0300     		movs	r3, r0
 503 0126 0293     		str	r3, [sp, #8]
 504              		.loc 5 108 0
 505 0128 FFF7FEFF 		bl	chSysUnlock
 506              		.loc 5 109 0
 507 012c 029B     		ldr	r3, [sp, #8]
 508 012e 0133     		adds	r3, r3, #1
 509 0130 5A42     		rsbs	r2, r3, #0
 510 0132 5341     		adcs	r3, r3, r2
 511 0134 DBB2     		uxtb	r3, r3
 512 0136 1900     		movs	r1, r3
ARM GAS  /tmp/cc3GneUP.s 			page 10


 513 0138 0720     		movs	r0, #7
 514 013a FFF7FEFF 		bl	_test_assert
 515 013e 031E     		subs	r3, r0, #0
 516 0140 00D0     		beq	.LCB338
 517 0142 31E3     		b	.L80	@long jump
 518              	.LCB338:
 519              		.loc 5 114 0
 520 0144 FFF7FEFF 		bl	chSysLock
 521 0148 8B4B     		ldr	r3, .L107
 522 014a 1800     		movs	r0, r3
 523 014c FFF7FEFF 		bl	chMBGetFreeCountI
 524 0150 0300     		movs	r3, r0
 525 0152 5A42     		rsbs	r2, r3, #0
 526 0154 5341     		adcs	r3, r3, r2
 527 0156 DBB2     		uxtb	r3, r3
 528 0158 1900     		movs	r1, r3
 529 015a 0820     		movs	r0, #8
 530 015c FFF7FEFF 		bl	_test_assert
 531 0160 031E     		subs	r3, r0, #0
 532 0162 02D0     		beq	.L28
 533              		.loc 5 114 0 is_stmt 0 discriminator 1
 534 0164 FFF7FEFF 		bl	chSysUnlock
 535 0168 53E3     		b	.L17
 536              	.L28:
 537              		.loc 5 114 0 discriminator 2
 538 016a FFF7FEFF 		bl	chSysUnlock
 539              		.loc 5 115 0 is_stmt 1 discriminator 2
 540 016e FFF7FEFF 		bl	chSysLock
 541 0172 814B     		ldr	r3, .L107
 542 0174 1800     		movs	r0, r3
 543 0176 FFF7FEFF 		bl	chMBGetUsedCountI
 544 017a 0300     		movs	r3, r0
 545 017c 053B     		subs	r3, r3, #5
 546 017e 5A42     		rsbs	r2, r3, #0
 547 0180 5341     		adcs	r3, r3, r2
 548 0182 DBB2     		uxtb	r3, r3
 549 0184 1900     		movs	r1, r3
 550 0186 0920     		movs	r0, #9
 551 0188 FFF7FEFF 		bl	_test_assert
 552 018c 031E     		subs	r3, r0, #0
 553 018e 02D0     		beq	.L29
 554              		.loc 5 115 0 is_stmt 0 discriminator 1
 555 0190 FFF7FEFF 		bl	chSysUnlock
 556 0194 3DE3     		b	.L17
 557              	.L29:
 558              		.loc 5 115 0 discriminator 2
 559 0196 FFF7FEFF 		bl	chSysUnlock
 560              		.loc 5 116 0 is_stmt 1 discriminator 2
 561 019a FFF7FEFF 		bl	chSysLock
 562 019e 764B     		ldr	r3, .L107
 563 01a0 DA68     		ldr	r2, [r3, #12]
 564 01a2 754B     		ldr	r3, .L107
 565 01a4 9B68     		ldr	r3, [r3, #8]
 566 01a6 D31A     		subs	r3, r2, r3
 567 01a8 5A42     		rsbs	r2, r3, #0
 568 01aa 5341     		adcs	r3, r3, r2
 569 01ac DBB2     		uxtb	r3, r3
ARM GAS  /tmp/cc3GneUP.s 			page 11


 570 01ae 1900     		movs	r1, r3
 571 01b0 0A20     		movs	r0, #10
 572 01b2 FFF7FEFF 		bl	_test_assert
 573 01b6 031E     		subs	r3, r0, #0
 574 01b8 02D0     		beq	.L30
 575              		.loc 5 116 0 is_stmt 0 discriminator 1
 576 01ba FFF7FEFF 		bl	chSysUnlock
 577 01be 28E3     		b	.L17
 578              	.L30:
 579              		.loc 5 116 0 discriminator 2
 580 01c0 FFF7FEFF 		bl	chSysUnlock
 581              		.loc 5 121 0 is_stmt 1 discriminator 2
 582 01c4 0023     		movs	r3, #0
 583 01c6 0393     		str	r3, [sp, #12]
 584 01c8 1AE0     		b	.L31
 585              	.L33:
 586              		.loc 5 122 0
 587 01ca 6C4A     		ldr	r2, .L107+4
 588 01cc 01A9     		add	r1, sp, #4
 589 01ce 6A4B     		ldr	r3, .L107
 590 01d0 1800     		movs	r0, r3
 591 01d2 FFF7FEFF 		bl	chMBFetch
 592 01d6 0300     		movs	r3, r0
 593 01d8 0293     		str	r3, [sp, #8]
 594              		.loc 5 123 0
 595 01da 029B     		ldr	r3, [sp, #8]
 596 01dc 5A42     		rsbs	r2, r3, #0
 597 01de 5341     		adcs	r3, r3, r2
 598 01e0 DBB2     		uxtb	r3, r3
 599 01e2 1900     		movs	r1, r3
 600 01e4 0B20     		movs	r0, #11
 601 01e6 FFF7FEFF 		bl	_test_assert
 602 01ea 031E     		subs	r3, r0, #0
 603 01ec 00D0     		beq	.LCB419
 604 01ee DDE2     		b	.L81	@long jump
 605              	.LCB419:
 606              		.loc 5 124 0 discriminator 2
 607 01f0 019B     		ldr	r3, [sp, #4]
 608 01f2 DBB2     		uxtb	r3, r3
 609 01f4 1800     		movs	r0, r3
 610 01f6 FFF7FEFF 		bl	test_emit_token
 611              		.loc 5 121 0 discriminator 2
 612 01fa 039B     		ldr	r3, [sp, #12]
 613 01fc 0133     		adds	r3, r3, #1
 614 01fe 0393     		str	r3, [sp, #12]
 615              	.L31:
 616              		.loc 5 121 0 is_stmt 0 discriminator 1
 617 0200 039B     		ldr	r3, [sp, #12]
 618 0202 042B     		cmp	r3, #4
 619 0204 E1D9     		bls	.L33
 620              		.loc 5 126 0 is_stmt 1
 621 0206 5E4B     		ldr	r3, .L107+8
 622 0208 1900     		movs	r1, r3
 623 020a 0C20     		movs	r0, #12
 624 020c FFF7FEFF 		bl	_test_assert_sequence
 625 0210 031E     		subs	r3, r0, #0
 626 0212 00D0     		beq	.LCB438
ARM GAS  /tmp/cc3GneUP.s 			page 12


 627 0214 CCE2     		b	.L82	@long jump
 628              	.LCB438:
 629              		.loc 5 131 0
 630 0216 039B     		ldr	r3, [sp, #12]
 631 0218 4233     		adds	r3, r3, #66
 632 021a 1900     		movs	r1, r3
 633 021c 574A     		ldr	r2, .L107+4
 634 021e 564B     		ldr	r3, .L107
 635 0220 1800     		movs	r0, r3
 636 0222 FFF7FEFF 		bl	chMBPost
 637 0226 0300     		movs	r3, r0
 638 0228 0293     		str	r3, [sp, #8]
 639              		.loc 5 132 0
 640 022a 029B     		ldr	r3, [sp, #8]
 641 022c 5A42     		rsbs	r2, r3, #0
 642 022e 5341     		adcs	r3, r3, r2
 643 0230 DBB2     		uxtb	r3, r3
 644 0232 1900     		movs	r1, r3
 645 0234 0D20     		movs	r0, #13
 646 0236 FFF7FEFF 		bl	_test_assert
 647 023a 031E     		subs	r3, r0, #0
 648 023c 00D0     		beq	.LCB456
 649 023e B9E2     		b	.L83	@long jump
 650              	.LCB456:
 651              		.loc 5 133 0
 652 0240 4E4A     		ldr	r2, .L107+4
 653 0242 01A9     		add	r1, sp, #4
 654 0244 4C4B     		ldr	r3, .L107
 655 0246 1800     		movs	r0, r3
 656 0248 FFF7FEFF 		bl	chMBFetch
 657 024c 0300     		movs	r3, r0
 658 024e 0293     		str	r3, [sp, #8]
 659              		.loc 5 134 0
 660 0250 029B     		ldr	r3, [sp, #8]
 661 0252 5A42     		rsbs	r2, r3, #0
 662 0254 5341     		adcs	r3, r3, r2
 663 0256 DBB2     		uxtb	r3, r3
 664 0258 1900     		movs	r1, r3
 665 025a 0E20     		movs	r0, #14
 666 025c FFF7FEFF 		bl	_test_assert
 667 0260 031E     		subs	r3, r0, #0
 668 0262 00D0     		beq	.LCB472
 669 0264 A8E2     		b	.L84	@long jump
 670              	.LCB472:
 671              		.loc 5 135 0
 672 0266 444B     		ldr	r3, .L107
 673 0268 1A68     		ldr	r2, [r3]
 674 026a 434B     		ldr	r3, .L107
 675 026c 9B68     		ldr	r3, [r3, #8]
 676 026e D31A     		subs	r3, r2, r3
 677 0270 5A42     		rsbs	r2, r3, #0
 678 0272 5341     		adcs	r3, r3, r2
 679 0274 DBB2     		uxtb	r3, r3
 680 0276 1900     		movs	r1, r3
 681 0278 0F20     		movs	r0, #15
 682 027a FFF7FEFF 		bl	_test_assert
 683 027e 031E     		subs	r3, r0, #0
ARM GAS  /tmp/cc3GneUP.s 			page 13


 684 0280 00D0     		beq	.LCB485
 685 0282 9BE2     		b	.L85	@long jump
 686              	.LCB485:
 687              		.loc 5 136 0
 688 0284 3C4B     		ldr	r3, .L107
 689 0286 1A68     		ldr	r2, [r3]
 690 0288 3B4B     		ldr	r3, .L107
 691 028a DB68     		ldr	r3, [r3, #12]
 692 028c D31A     		subs	r3, r2, r3
 693 028e 5A42     		rsbs	r2, r3, #0
 694 0290 5341     		adcs	r3, r3, r2
 695 0292 DBB2     		uxtb	r3, r3
 696 0294 1900     		movs	r1, r3
 697 0296 1020     		movs	r0, #16
 698 0298 FFF7FEFF 		bl	_test_assert
 699 029c 031E     		subs	r3, r0, #0
 700 029e 00D0     		beq	.LCB498
 701 02a0 8EE2     		b	.L86	@long jump
 702              	.LCB498:
 703              		.loc 5 141 0
 704 02a2 01A9     		add	r1, sp, #4
 705 02a4 344B     		ldr	r3, .L107
 706 02a6 0122     		movs	r2, #1
 707 02a8 1800     		movs	r0, r3
 708 02aa FFF7FEFF 		bl	chMBFetch
 709 02ae 0300     		movs	r3, r0
 710 02b0 0293     		str	r3, [sp, #8]
 711              		.loc 5 142 0
 712 02b2 029B     		ldr	r3, [sp, #8]
 713 02b4 0133     		adds	r3, r3, #1
 714 02b6 5A42     		rsbs	r2, r3, #0
 715 02b8 5341     		adcs	r3, r3, r2
 716 02ba DBB2     		uxtb	r3, r3
 717 02bc 1900     		movs	r1, r3
 718 02be 1120     		movs	r0, #17
 719 02c0 FFF7FEFF 		bl	_test_assert
 720 02c4 031E     		subs	r3, r0, #0
 721 02c6 00D0     		beq	.LCB515
 722 02c8 7CE2     		b	.L87	@long jump
 723              	.LCB515:
 724              		.loc 5 143 0
 725 02ca FFF7FEFF 		bl	chSysLock
 726              		.loc 5 144 0
 727 02ce 01AA     		add	r2, sp, #4
 728 02d0 294B     		ldr	r3, .L107
 729 02d2 1100     		movs	r1, r2
 730 02d4 1800     		movs	r0, r3
 731 02d6 FFF7FEFF 		bl	chMBFetchI
 732 02da 0300     		movs	r3, r0
 733 02dc 0293     		str	r3, [sp, #8]
 734              		.loc 5 145 0
 735 02de FFF7FEFF 		bl	chSysUnlock
 736              		.loc 5 146 0
 737 02e2 029B     		ldr	r3, [sp, #8]
 738 02e4 0133     		adds	r3, r3, #1
 739 02e6 5A42     		rsbs	r2, r3, #0
 740 02e8 5341     		adcs	r3, r3, r2
ARM GAS  /tmp/cc3GneUP.s 			page 14


 741 02ea DBB2     		uxtb	r3, r3
 742 02ec 1900     		movs	r1, r3
 743 02ee 1220     		movs	r0, #18
 744 02f0 FFF7FEFF 		bl	_test_assert
 745 02f4 031E     		subs	r3, r0, #0
 746 02f6 00D0     		beq	.LCB534
 747 02f8 66E2     		b	.L88	@long jump
 748              	.LCB534:
 749              		.loc 5 151 0
 750 02fa FFF7FEFF 		bl	chSysLock
 751 02fe 1E4B     		ldr	r3, .L107
 752 0300 1800     		movs	r0, r3
 753 0302 FFF7FEFF 		bl	chMBGetFreeCountI
 754 0306 0300     		movs	r3, r0
 755 0308 053B     		subs	r3, r3, #5
 756 030a 5A42     		rsbs	r2, r3, #0
 757 030c 5341     		adcs	r3, r3, r2
 758 030e DBB2     		uxtb	r3, r3
 759 0310 1900     		movs	r1, r3
 760 0312 1320     		movs	r0, #19
 761 0314 FFF7FEFF 		bl	_test_assert
 762 0318 031E     		subs	r3, r0, #0
 763 031a 02D0     		beq	.L41
 764              		.loc 5 151 0 is_stmt 0 discriminator 1
 765 031c FFF7FEFF 		bl	chSysUnlock
 766 0320 77E2     		b	.L17
 767              	.L41:
 768              		.loc 5 151 0 discriminator 2
 769 0322 FFF7FEFF 		bl	chSysUnlock
 770              		.loc 5 152 0 is_stmt 1 discriminator 2
 771 0326 FFF7FEFF 		bl	chSysLock
 772 032a 134B     		ldr	r3, .L107
 773 032c 1800     		movs	r0, r3
 774 032e FFF7FEFF 		bl	chMBGetUsedCountI
 775 0332 0300     		movs	r3, r0
 776 0334 5A42     		rsbs	r2, r3, #0
 777 0336 5341     		adcs	r3, r3, r2
 778 0338 DBB2     		uxtb	r3, r3
 779 033a 1900     		movs	r1, r3
 780 033c 1420     		movs	r0, #20
 781 033e FFF7FEFF 		bl	_test_assert
 782 0342 031E     		subs	r3, r0, #0
 783 0344 02D0     		beq	.L42
 784              		.loc 5 152 0 is_stmt 0 discriminator 1
 785 0346 FFF7FEFF 		bl	chSysUnlock
 786 034a 62E2     		b	.L17
 787              	.L42:
 788              		.loc 5 152 0 discriminator 2
 789 034c FFF7FEFF 		bl	chSysUnlock
 790              		.loc 5 153 0 is_stmt 1 discriminator 2
 791 0350 FFF7FEFF 		bl	chSysLock
 792 0354 084B     		ldr	r3, .L107
 793 0356 DA68     		ldr	r2, [r3, #12]
 794 0358 074B     		ldr	r3, .L107
 795 035a 9B68     		ldr	r3, [r3, #8]
 796 035c D31A     		subs	r3, r2, r3
 797 035e 5A42     		rsbs	r2, r3, #0
ARM GAS  /tmp/cc3GneUP.s 			page 15


 798 0360 5341     		adcs	r3, r3, r2
 799 0362 DBB2     		uxtb	r3, r3
 800 0364 1900     		movs	r1, r3
 801 0366 1520     		movs	r0, #21
 802 0368 FFF7FEFF 		bl	_test_assert
 803 036c 031E     		subs	r3, r0, #0
 804 036e 09D0     		beq	.L43
 805              		.loc 5 153 0 is_stmt 0 discriminator 1
 806 0370 FFF7FEFF 		bl	chSysUnlock
 807 0374 4DE2     		b	.L17
 808              	.L108:
 809 0376 C046     		.align	2
 810              	.L107:
 811 0378 00000000 		.word	mb1
 812 037c FFFF0000 		.word	65535
 813 0380 00000000 		.word	.LC5
 814              	.L43:
 815              		.loc 5 153 0 discriminator 2
 816 0384 FFF7FEFF 		bl	chSysUnlock
 817              		.loc 5 158 0 is_stmt 1 discriminator 2
 818 0388 FFF7FEFF 		bl	chSysLock
 819              		.loc 5 159 0 discriminator 2
 820 038c DE4B     		ldr	r3, .L109
 821 038e 4121     		movs	r1, #65
 822 0390 1800     		movs	r0, r3
 823 0392 FFF7FEFF 		bl	chMBPostI
 824 0396 0300     		movs	r3, r0
 825 0398 0293     		str	r3, [sp, #8]
 826              		.loc 5 160 0 discriminator 2
 827 039a 029B     		ldr	r3, [sp, #8]
 828 039c 5A42     		rsbs	r2, r3, #0
 829 039e 5341     		adcs	r3, r3, r2
 830 03a0 DBB2     		uxtb	r3, r3
 831 03a2 1900     		movs	r1, r3
 832 03a4 1620     		movs	r0, #22
 833 03a6 FFF7FEFF 		bl	_test_assert
 834 03aa 031E     		subs	r3, r0, #0
 835 03ac 00D0     		beq	.LCB617
 836 03ae 0DE2     		b	.L89	@long jump
 837              	.LCB617:
 838              		.loc 5 161 0
 839 03b0 D54B     		ldr	r3, .L109
 840 03b2 4221     		movs	r1, #66
 841 03b4 1800     		movs	r0, r3
 842 03b6 FFF7FEFF 		bl	chMBPostI
 843 03ba 0300     		movs	r3, r0
 844 03bc 0293     		str	r3, [sp, #8]
 845              		.loc 5 162 0
 846 03be 029B     		ldr	r3, [sp, #8]
 847 03c0 5A42     		rsbs	r2, r3, #0
 848 03c2 5341     		adcs	r3, r3, r2
 849 03c4 DBB2     		uxtb	r3, r3
 850 03c6 1900     		movs	r1, r3
 851 03c8 1720     		movs	r0, #23
 852 03ca FFF7FEFF 		bl	_test_assert
 853 03ce 031E     		subs	r3, r0, #0
 854 03d0 00D0     		beq	.LCB632
ARM GAS  /tmp/cc3GneUP.s 			page 16


 855 03d2 FDE1     		b	.L90	@long jump
 856              	.LCB632:
 857              		.loc 5 163 0
 858 03d4 CC4B     		ldr	r3, .L109
 859 03d6 4321     		movs	r1, #67
 860 03d8 1800     		movs	r0, r3
 861 03da FFF7FEFF 		bl	chMBPostI
 862 03de 0300     		movs	r3, r0
 863 03e0 0293     		str	r3, [sp, #8]
 864              		.loc 5 164 0
 865 03e2 029B     		ldr	r3, [sp, #8]
 866 03e4 5A42     		rsbs	r2, r3, #0
 867 03e6 5341     		adcs	r3, r3, r2
 868 03e8 DBB2     		uxtb	r3, r3
 869 03ea 1900     		movs	r1, r3
 870 03ec 1820     		movs	r0, #24
 871 03ee FFF7FEFF 		bl	_test_assert
 872 03f2 031E     		subs	r3, r0, #0
 873 03f4 00D0     		beq	.LCB647
 874 03f6 EDE1     		b	.L91	@long jump
 875              	.LCB647:
 876              		.loc 5 165 0
 877 03f8 C34B     		ldr	r3, .L109
 878 03fa 4421     		movs	r1, #68
 879 03fc 1800     		movs	r0, r3
 880 03fe FFF7FEFF 		bl	chMBPostI
 881 0402 0300     		movs	r3, r0
 882 0404 0293     		str	r3, [sp, #8]
 883              		.loc 5 166 0
 884 0406 029B     		ldr	r3, [sp, #8]
 885 0408 5A42     		rsbs	r2, r3, #0
 886 040a 5341     		adcs	r3, r3, r2
 887 040c DBB2     		uxtb	r3, r3
 888 040e 1900     		movs	r1, r3
 889 0410 1920     		movs	r0, #25
 890 0412 FFF7FEFF 		bl	_test_assert
 891 0416 031E     		subs	r3, r0, #0
 892 0418 00D0     		beq	.LCB662
 893 041a DDE1     		b	.L92	@long jump
 894              	.LCB662:
 895              		.loc 5 167 0
 896 041c BA4B     		ldr	r3, .L109
 897 041e 4521     		movs	r1, #69
 898 0420 1800     		movs	r0, r3
 899 0422 FFF7FEFF 		bl	chMBPostI
 900 0426 0300     		movs	r3, r0
 901 0428 0293     		str	r3, [sp, #8]
 902              		.loc 5 168 0
 903 042a FFF7FEFF 		bl	chSysUnlock
 904              		.loc 5 169 0
 905 042e 029B     		ldr	r3, [sp, #8]
 906 0430 5A42     		rsbs	r2, r3, #0
 907 0432 5341     		adcs	r3, r3, r2
 908 0434 DBB2     		uxtb	r3, r3
 909 0436 1900     		movs	r1, r3
 910 0438 1A20     		movs	r0, #26
 911 043a FFF7FEFF 		bl	_test_assert
ARM GAS  /tmp/cc3GneUP.s 			page 17


 912 043e 031E     		subs	r3, r0, #0
 913 0440 00D0     		beq	.LCB678
 914 0442 CBE1     		b	.L93	@long jump
 915              	.LCB678:
 916              		.loc 5 170 0
 917 0444 B04B     		ldr	r3, .L109
 918 0446 DA68     		ldr	r2, [r3, #12]
 919 0448 AF4B     		ldr	r3, .L109
 920 044a 9B68     		ldr	r3, [r3, #8]
 921 044c D31A     		subs	r3, r2, r3
 922 044e 5A42     		rsbs	r2, r3, #0
 923 0450 5341     		adcs	r3, r3, r2
 924 0452 DBB2     		uxtb	r3, r3
 925 0454 1900     		movs	r1, r3
 926 0456 1B20     		movs	r0, #27
 927 0458 FFF7FEFF 		bl	_test_assert
 928 045c 031E     		subs	r3, r0, #0
 929 045e 00D0     		beq	.LCB691
 930 0460 BEE1     		b	.L94	@long jump
 931              	.LCB691:
 932              		.loc 5 171 0
 933 0462 0023     		movs	r3, #0
 934 0464 0393     		str	r3, [sp, #12]
 935 0466 1EE0     		b	.L50
 936              	.L52:
 937              		.loc 5 172 0
 938 0468 FFF7FEFF 		bl	chSysLock
 939              		.loc 5 173 0
 940 046c 01AA     		add	r2, sp, #4
 941 046e A64B     		ldr	r3, .L109
 942 0470 1100     		movs	r1, r2
 943 0472 1800     		movs	r0, r3
 944 0474 FFF7FEFF 		bl	chMBFetchI
 945 0478 0300     		movs	r3, r0
 946 047a 0293     		str	r3, [sp, #8]
 947              		.loc 5 174 0
 948 047c FFF7FEFF 		bl	chSysUnlock
 949              		.loc 5 175 0
 950 0480 029B     		ldr	r3, [sp, #8]
 951 0482 5A42     		rsbs	r2, r3, #0
 952 0484 5341     		adcs	r3, r3, r2
 953 0486 DBB2     		uxtb	r3, r3
 954 0488 1900     		movs	r1, r3
 955 048a 1C20     		movs	r0, #28
 956 048c FFF7FEFF 		bl	_test_assert
 957 0490 031E     		subs	r3, r0, #0
 958 0492 00D0     		beq	.LCB715
 959 0494 A6E1     		b	.L95	@long jump
 960              	.LCB715:
 961              		.loc 5 176 0 discriminator 2
 962 0496 019B     		ldr	r3, [sp, #4]
 963 0498 DBB2     		uxtb	r3, r3
 964 049a 1800     		movs	r0, r3
 965 049c FFF7FEFF 		bl	test_emit_token
 966              		.loc 5 171 0 discriminator 2
 967 04a0 039B     		ldr	r3, [sp, #12]
 968 04a2 0133     		adds	r3, r3, #1
ARM GAS  /tmp/cc3GneUP.s 			page 18


 969 04a4 0393     		str	r3, [sp, #12]
 970              	.L50:
 971              		.loc 5 171 0 is_stmt 0 discriminator 1
 972 04a6 039B     		ldr	r3, [sp, #12]
 973 04a8 042B     		cmp	r3, #4
 974 04aa DDD9     		bls	.L52
 975              		.loc 5 178 0 is_stmt 1
 976 04ac 974B     		ldr	r3, .L109+4
 977 04ae 1900     		movs	r1, r3
 978 04b0 1D20     		movs	r0, #29
 979 04b2 FFF7FEFF 		bl	_test_assert_sequence
 980 04b6 031E     		subs	r3, r0, #0
 981 04b8 00D0     		beq	.LCB734
 982 04ba 95E1     		b	.L96	@long jump
 983              	.LCB734:
 984              		.loc 5 179 0
 985 04bc FFF7FEFF 		bl	chSysLock
 986 04c0 914B     		ldr	r3, .L109
 987 04c2 1800     		movs	r0, r3
 988 04c4 FFF7FEFF 		bl	chMBGetFreeCountI
 989 04c8 0300     		movs	r3, r0
 990 04ca 053B     		subs	r3, r3, #5
 991 04cc 5A42     		rsbs	r2, r3, #0
 992 04ce 5341     		adcs	r3, r3, r2
 993 04d0 DBB2     		uxtb	r3, r3
 994 04d2 1900     		movs	r1, r3
 995 04d4 1E20     		movs	r0, #30
 996 04d6 FFF7FEFF 		bl	_test_assert
 997 04da 031E     		subs	r3, r0, #0
 998 04dc 02D0     		beq	.L54
 999              		.loc 5 179 0 is_stmt 0 discriminator 1
 1000 04de FFF7FEFF 		bl	chSysUnlock
 1001 04e2 96E1     		b	.L17
 1002              	.L54:
 1003              		.loc 5 179 0 discriminator 2
 1004 04e4 FFF7FEFF 		bl	chSysUnlock
 1005              		.loc 5 180 0 is_stmt 1 discriminator 2
 1006 04e8 FFF7FEFF 		bl	chSysLock
 1007 04ec 864B     		ldr	r3, .L109
 1008 04ee 1800     		movs	r0, r3
 1009 04f0 FFF7FEFF 		bl	chMBGetUsedCountI
 1010 04f4 0300     		movs	r3, r0
 1011 04f6 5A42     		rsbs	r2, r3, #0
 1012 04f8 5341     		adcs	r3, r3, r2
 1013 04fa DBB2     		uxtb	r3, r3
 1014 04fc 1900     		movs	r1, r3
 1015 04fe 1F20     		movs	r0, #31
 1016 0500 FFF7FEFF 		bl	_test_assert
 1017 0504 031E     		subs	r3, r0, #0
 1018 0506 02D0     		beq	.L55
 1019              		.loc 5 180 0 is_stmt 0 discriminator 1
 1020 0508 FFF7FEFF 		bl	chSysUnlock
 1021 050c 81E1     		b	.L17
 1022              	.L55:
 1023              		.loc 5 180 0 discriminator 2
 1024 050e FFF7FEFF 		bl	chSysUnlock
 1025              		.loc 5 181 0 is_stmt 1 discriminator 2
ARM GAS  /tmp/cc3GneUP.s 			page 19


 1026 0512 7D4B     		ldr	r3, .L109
 1027 0514 DA68     		ldr	r2, [r3, #12]
 1028 0516 7C4B     		ldr	r3, .L109
 1029 0518 9B68     		ldr	r3, [r3, #8]
 1030 051a D31A     		subs	r3, r2, r3
 1031 051c 5A42     		rsbs	r2, r3, #0
 1032 051e 5341     		adcs	r3, r3, r2
 1033 0520 DBB2     		uxtb	r3, r3
 1034 0522 1900     		movs	r1, r3
 1035 0524 2020     		movs	r0, #32
 1036 0526 FFF7FEFF 		bl	_test_assert
 1037 052a 031E     		subs	r3, r0, #0
 1038 052c 00D0     		beq	.LCB786
 1039 052e 5DE1     		b	.L97	@long jump
 1040              	.LCB786:
 1041              		.loc 5 183 0
 1042 0530 FFF7FEFF 		bl	chSysLock
 1043              		.loc 5 184 0
 1044 0534 744B     		ldr	r3, .L109
 1045 0536 4521     		movs	r1, #69
 1046 0538 1800     		movs	r0, r3
 1047 053a FFF7FEFF 		bl	chMBPostAheadI
 1048 053e 0300     		movs	r3, r0
 1049 0540 0293     		str	r3, [sp, #8]
 1050              		.loc 5 185 0
 1051 0542 029B     		ldr	r3, [sp, #8]
 1052 0544 5A42     		rsbs	r2, r3, #0
 1053 0546 5341     		adcs	r3, r3, r2
 1054 0548 DBB2     		uxtb	r3, r3
 1055 054a 1900     		movs	r1, r3
 1056 054c 2120     		movs	r0, #33
 1057 054e FFF7FEFF 		bl	_test_assert
 1058 0552 031E     		subs	r3, r0, #0
 1059 0554 00D0     		beq	.LCB802
 1060 0556 4BE1     		b	.L98	@long jump
 1061              	.LCB802:
 1062              		.loc 5 186 0
 1063 0558 6B4B     		ldr	r3, .L109
 1064 055a 4421     		movs	r1, #68
 1065 055c 1800     		movs	r0, r3
 1066 055e FFF7FEFF 		bl	chMBPostAheadI
 1067 0562 0300     		movs	r3, r0
 1068 0564 0293     		str	r3, [sp, #8]
 1069              		.loc 5 187 0
 1070 0566 029B     		ldr	r3, [sp, #8]
 1071 0568 5A42     		rsbs	r2, r3, #0
 1072 056a 5341     		adcs	r3, r3, r2
 1073 056c DBB2     		uxtb	r3, r3
 1074 056e 1900     		movs	r1, r3
 1075 0570 2220     		movs	r0, #34
 1076 0572 FFF7FEFF 		bl	_test_assert
 1077 0576 031E     		subs	r3, r0, #0
 1078 0578 00D0     		beq	.LCB817
 1079 057a 3BE1     		b	.L99	@long jump
 1080              	.LCB817:
 1081              		.loc 5 188 0
 1082 057c 624B     		ldr	r3, .L109
ARM GAS  /tmp/cc3GneUP.s 			page 20


 1083 057e 4321     		movs	r1, #67
 1084 0580 1800     		movs	r0, r3
 1085 0582 FFF7FEFF 		bl	chMBPostAheadI
 1086 0586 0300     		movs	r3, r0
 1087 0588 0293     		str	r3, [sp, #8]
 1088              		.loc 5 189 0
 1089 058a 029B     		ldr	r3, [sp, #8]
 1090 058c 5A42     		rsbs	r2, r3, #0
 1091 058e 5341     		adcs	r3, r3, r2
 1092 0590 DBB2     		uxtb	r3, r3
 1093 0592 1900     		movs	r1, r3
 1094 0594 2320     		movs	r0, #35
 1095 0596 FFF7FEFF 		bl	_test_assert
 1096 059a 031E     		subs	r3, r0, #0
 1097 059c 00D0     		beq	.LCB832
 1098 059e 2BE1     		b	.L100	@long jump
 1099              	.LCB832:
 1100              		.loc 5 190 0
 1101 05a0 594B     		ldr	r3, .L109
 1102 05a2 4221     		movs	r1, #66
 1103 05a4 1800     		movs	r0, r3
 1104 05a6 FFF7FEFF 		bl	chMBPostAheadI
 1105 05aa 0300     		movs	r3, r0
 1106 05ac 0293     		str	r3, [sp, #8]
 1107              		.loc 5 191 0
 1108 05ae 029B     		ldr	r3, [sp, #8]
 1109 05b0 5A42     		rsbs	r2, r3, #0
 1110 05b2 5341     		adcs	r3, r3, r2
 1111 05b4 DBB2     		uxtb	r3, r3
 1112 05b6 1900     		movs	r1, r3
 1113 05b8 2420     		movs	r0, #36
 1114 05ba FFF7FEFF 		bl	_test_assert
 1115 05be 031E     		subs	r3, r0, #0
 1116 05c0 00D0     		beq	.LCB847
 1117 05c2 1BE1     		b	.L101	@long jump
 1118              	.LCB847:
 1119              		.loc 5 192 0
 1120 05c4 504B     		ldr	r3, .L109
 1121 05c6 4121     		movs	r1, #65
 1122 05c8 1800     		movs	r0, r3
 1123 05ca FFF7FEFF 		bl	chMBPostAheadI
 1124 05ce 0300     		movs	r3, r0
 1125 05d0 0293     		str	r3, [sp, #8]
 1126              		.loc 5 193 0
 1127 05d2 FFF7FEFF 		bl	chSysUnlock
 1128              		.loc 5 194 0
 1129 05d6 029B     		ldr	r3, [sp, #8]
 1130 05d8 5A42     		rsbs	r2, r3, #0
 1131 05da 5341     		adcs	r3, r3, r2
 1132 05dc DBB2     		uxtb	r3, r3
 1133 05de 1900     		movs	r1, r3
 1134 05e0 2520     		movs	r0, #37
 1135 05e2 FFF7FEFF 		bl	_test_assert
 1136 05e6 031E     		subs	r3, r0, #0
 1137 05e8 00D0     		beq	.LCB863
 1138 05ea 09E1     		b	.L102	@long jump
 1139              	.LCB863:
ARM GAS  /tmp/cc3GneUP.s 			page 21


 1140              		.loc 5 195 0
 1141 05ec 464B     		ldr	r3, .L109
 1142 05ee DA68     		ldr	r2, [r3, #12]
 1143 05f0 454B     		ldr	r3, .L109
 1144 05f2 9B68     		ldr	r3, [r3, #8]
 1145 05f4 D31A     		subs	r3, r2, r3
 1146 05f6 5A42     		rsbs	r2, r3, #0
 1147 05f8 5341     		adcs	r3, r3, r2
 1148 05fa DBB2     		uxtb	r3, r3
 1149 05fc 1900     		movs	r1, r3
 1150 05fe 2620     		movs	r0, #38
 1151 0600 FFF7FEFF 		bl	_test_assert
 1152 0604 031E     		subs	r3, r0, #0
 1153 0606 00D0     		beq	.LCB876
 1154 0608 FCE0     		b	.L103	@long jump
 1155              	.LCB876:
 1156              		.loc 5 196 0
 1157 060a 0023     		movs	r3, #0
 1158 060c 0393     		str	r3, [sp, #12]
 1159 060e 1EE0     		b	.L63
 1160              	.L65:
 1161              		.loc 5 197 0
 1162 0610 FFF7FEFF 		bl	chSysLock
 1163              		.loc 5 198 0
 1164 0614 01AA     		add	r2, sp, #4
 1165 0616 3C4B     		ldr	r3, .L109
 1166 0618 1100     		movs	r1, r2
 1167 061a 1800     		movs	r0, r3
 1168 061c FFF7FEFF 		bl	chMBFetchI
 1169 0620 0300     		movs	r3, r0
 1170 0622 0293     		str	r3, [sp, #8]
 1171              		.loc 5 199 0
 1172 0624 FFF7FEFF 		bl	chSysUnlock
 1173              		.loc 5 200 0
 1174 0628 029B     		ldr	r3, [sp, #8]
 1175 062a 5A42     		rsbs	r2, r3, #0
 1176 062c 5341     		adcs	r3, r3, r2
 1177 062e DBB2     		uxtb	r3, r3
 1178 0630 1900     		movs	r1, r3
 1179 0632 2720     		movs	r0, #39
 1180 0634 FFF7FEFF 		bl	_test_assert
 1181 0638 031E     		subs	r3, r0, #0
 1182 063a 00D0     		beq	.LCB900
 1183 063c E4E0     		b	.L104	@long jump
 1184              	.LCB900:
 1185              		.loc 5 201 0 discriminator 2
 1186 063e 019B     		ldr	r3, [sp, #4]
 1187 0640 DBB2     		uxtb	r3, r3
 1188 0642 1800     		movs	r0, r3
 1189 0644 FFF7FEFF 		bl	test_emit_token
 1190              		.loc 5 196 0 discriminator 2
 1191 0648 039B     		ldr	r3, [sp, #12]
 1192 064a 0133     		adds	r3, r3, #1
 1193 064c 0393     		str	r3, [sp, #12]
 1194              	.L63:
 1195              		.loc 5 196 0 is_stmt 0 discriminator 1
 1196 064e 039B     		ldr	r3, [sp, #12]
ARM GAS  /tmp/cc3GneUP.s 			page 22


 1197 0650 042B     		cmp	r3, #4
 1198 0652 DDD9     		bls	.L65
 1199              		.loc 5 203 0 is_stmt 1
 1200 0654 2D4B     		ldr	r3, .L109+4
 1201 0656 1900     		movs	r1, r3
 1202 0658 2820     		movs	r0, #40
 1203 065a FFF7FEFF 		bl	_test_assert_sequence
 1204 065e 031E     		subs	r3, r0, #0
 1205 0660 00D0     		beq	.LCB919
 1206 0662 D3E0     		b	.L105	@long jump
 1207              	.LCB919:
 1208              		.loc 5 204 0
 1209 0664 FFF7FEFF 		bl	chSysLock
 1210 0668 274B     		ldr	r3, .L109
 1211 066a 1800     		movs	r0, r3
 1212 066c FFF7FEFF 		bl	chMBGetFreeCountI
 1213 0670 0300     		movs	r3, r0
 1214 0672 053B     		subs	r3, r3, #5
 1215 0674 5A42     		rsbs	r2, r3, #0
 1216 0676 5341     		adcs	r3, r3, r2
 1217 0678 DBB2     		uxtb	r3, r3
 1218 067a 1900     		movs	r1, r3
 1219 067c 2920     		movs	r0, #41
 1220 067e FFF7FEFF 		bl	_test_assert
 1221 0682 031E     		subs	r3, r0, #0
 1222 0684 02D0     		beq	.L67
 1223              		.loc 5 204 0 is_stmt 0 discriminator 1
 1224 0686 FFF7FEFF 		bl	chSysUnlock
 1225 068a C2E0     		b	.L17
 1226              	.L67:
 1227              		.loc 5 204 0 discriminator 2
 1228 068c FFF7FEFF 		bl	chSysUnlock
 1229              		.loc 5 205 0 is_stmt 1 discriminator 2
 1230 0690 FFF7FEFF 		bl	chSysLock
 1231 0694 1C4B     		ldr	r3, .L109
 1232 0696 1800     		movs	r0, r3
 1233 0698 FFF7FEFF 		bl	chMBGetUsedCountI
 1234 069c 0300     		movs	r3, r0
 1235 069e 5A42     		rsbs	r2, r3, #0
 1236 06a0 5341     		adcs	r3, r3, r2
 1237 06a2 DBB2     		uxtb	r3, r3
 1238 06a4 1900     		movs	r1, r3
 1239 06a6 2A20     		movs	r0, #42
 1240 06a8 FFF7FEFF 		bl	_test_assert
 1241 06ac 031E     		subs	r3, r0, #0
 1242 06ae 02D0     		beq	.L68
 1243              		.loc 5 205 0 is_stmt 0 discriminator 1
 1244 06b0 FFF7FEFF 		bl	chSysUnlock
 1245 06b4 ADE0     		b	.L17
 1246              	.L68:
 1247              		.loc 5 205 0 discriminator 2
 1248 06b6 FFF7FEFF 		bl	chSysUnlock
 1249              		.loc 5 206 0 is_stmt 1 discriminator 2
 1250 06ba 134B     		ldr	r3, .L109
 1251 06bc DA68     		ldr	r2, [r3, #12]
 1252 06be 124B     		ldr	r3, .L109
 1253 06c0 9B68     		ldr	r3, [r3, #8]
ARM GAS  /tmp/cc3GneUP.s 			page 23


 1254 06c2 D31A     		subs	r3, r2, r3
 1255 06c4 5A42     		rsbs	r2, r3, #0
 1256 06c6 5341     		adcs	r3, r3, r2
 1257 06c8 DBB2     		uxtb	r3, r3
 1258 06ca 1900     		movs	r1, r3
 1259 06cc 2B20     		movs	r0, #43
 1260 06ce FFF7FEFF 		bl	_test_assert
 1261 06d2 031E     		subs	r3, r0, #0
 1262 06d4 00D0     		beq	.LCB971
 1263 06d6 9BE0     		b	.L106	@long jump
 1264              	.LCB971:
 1265              		.loc 5 211 0
 1266 06d8 0B4B     		ldr	r3, .L109
 1267 06da 1800     		movs	r0, r3
 1268 06dc FFF7FEFF 		bl	chMBReset
 1269              		.loc 5 216 0
 1270 06e0 FFF7FEFF 		bl	chSysLock
 1271 06e4 084B     		ldr	r3, .L109
 1272 06e6 1800     		movs	r0, r3
 1273 06e8 FFF7FEFF 		bl	chMBGetFreeCountI
 1274 06ec 0300     		movs	r3, r0
 1275 06ee 053B     		subs	r3, r3, #5
 1276 06f0 5A42     		rsbs	r2, r3, #0
 1277 06f2 5341     		adcs	r3, r3, r2
 1278 06f4 DBB2     		uxtb	r3, r3
 1279 06f6 1900     		movs	r1, r3
 1280 06f8 2C20     		movs	r0, #44
 1281 06fa FFF7FEFF 		bl	_test_assert
 1282 06fe 031E     		subs	r3, r0, #0
 1283 0700 06D0     		beq	.L70
 1284              		.loc 5 216 0 is_stmt 0 discriminator 1
 1285 0702 FFF7FEFF 		bl	chSysUnlock
 1286 0706 84E0     		b	.L17
 1287              	.L110:
 1288              		.align	2
 1289              	.L109:
 1290 0708 00000000 		.word	mb1
 1291 070c 00000000 		.word	.LC5
 1292              	.L70:
 1293              		.loc 5 216 0 discriminator 2
 1294 0710 FFF7FEFF 		bl	chSysUnlock
 1295              		.loc 5 217 0 is_stmt 1 discriminator 2
 1296 0714 FFF7FEFF 		bl	chSysLock
 1297 0718 3F4B     		ldr	r3, .L111
 1298 071a 1800     		movs	r0, r3
 1299 071c FFF7FEFF 		bl	chMBGetUsedCountI
 1300 0720 0300     		movs	r3, r0
 1301 0722 5A42     		rsbs	r2, r3, #0
 1302 0724 5341     		adcs	r3, r3, r2
 1303 0726 DBB2     		uxtb	r3, r3
 1304 0728 1900     		movs	r1, r3
 1305 072a 2D20     		movs	r0, #45
 1306 072c FFF7FEFF 		bl	_test_assert
 1307 0730 031E     		subs	r3, r0, #0
 1308 0732 02D0     		beq	.L71
 1309              		.loc 5 217 0 is_stmt 0 discriminator 1
 1310 0734 FFF7FEFF 		bl	chSysUnlock
ARM GAS  /tmp/cc3GneUP.s 			page 24


 1311 0738 6BE0     		b	.L17
 1312              	.L71:
 1313              		.loc 5 217 0 discriminator 2
 1314 073a FFF7FEFF 		bl	chSysUnlock
 1315              		.loc 5 218 0 is_stmt 1 discriminator 2
 1316 073e FFF7FEFF 		bl	chSysLock
 1317 0742 354B     		ldr	r3, .L111
 1318 0744 1A68     		ldr	r2, [r3]
 1319 0746 344B     		ldr	r3, .L111
 1320 0748 9B68     		ldr	r3, [r3, #8]
 1321 074a D31A     		subs	r3, r2, r3
 1322 074c 5A42     		rsbs	r2, r3, #0
 1323 074e 5341     		adcs	r3, r3, r2
 1324 0750 DBB2     		uxtb	r3, r3
 1325 0752 1900     		movs	r1, r3
 1326 0754 2E20     		movs	r0, #46
 1327 0756 FFF7FEFF 		bl	_test_assert
 1328 075a 031E     		subs	r3, r0, #0
 1329 075c 02D0     		beq	.L72
 1330              		.loc 5 218 0 is_stmt 0 discriminator 1
 1331 075e FFF7FEFF 		bl	chSysUnlock
 1332 0762 56E0     		b	.L17
 1333              	.L72:
 1334              		.loc 5 218 0 discriminator 2
 1335 0764 FFF7FEFF 		bl	chSysUnlock
 1336              		.loc 5 219 0 is_stmt 1 discriminator 2
 1337 0768 FFF7FEFF 		bl	chSysLock
 1338 076c 2A4B     		ldr	r3, .L111
 1339 076e 1A68     		ldr	r2, [r3]
 1340 0770 294B     		ldr	r3, .L111
 1341 0772 DB68     		ldr	r3, [r3, #12]
 1342 0774 D31A     		subs	r3, r2, r3
 1343 0776 5A42     		rsbs	r2, r3, #0
 1344 0778 5341     		adcs	r3, r3, r2
 1345 077a DBB2     		uxtb	r3, r3
 1346 077c 1900     		movs	r1, r3
 1347 077e 2F20     		movs	r0, #47
 1348 0780 FFF7FEFF 		bl	_test_assert
 1349 0784 031E     		subs	r3, r0, #0
 1350 0786 02D0     		beq	.L73
 1351              		.loc 5 219 0 is_stmt 0 discriminator 1
 1352 0788 FFF7FEFF 		bl	chSysUnlock
 1353 078c 41E0     		b	.L17
 1354              	.L73:
 1355              		.loc 5 219 0 discriminator 2
 1356 078e FFF7FEFF 		bl	chSysUnlock
 1357 0792 3EE0     		b	.L17
 1358              	.L75:
 1359              		.loc 5 90 0 is_stmt 1
 1360 0794 C046     		nop
 1361 0796 3CE0     		b	.L17
 1362              	.L76:
 1363              		.loc 5 93 0
 1364 0798 C046     		nop
 1365 079a 3AE0     		b	.L17
 1366              	.L77:
 1367              		.loc 5 99 0
ARM GAS  /tmp/cc3GneUP.s 			page 25


 1368 079c C046     		nop
 1369 079e 38E0     		b	.L17
 1370              	.L78:
 1371              		.loc 5 103 0
 1372 07a0 C046     		nop
 1373 07a2 36E0     		b	.L17
 1374              	.L79:
 1375              		.loc 5 105 0
 1376 07a4 C046     		nop
 1377 07a6 34E0     		b	.L17
 1378              	.L80:
 1379              		.loc 5 109 0
 1380 07a8 C046     		nop
 1381 07aa 32E0     		b	.L17
 1382              	.L81:
 1383              		.loc 5 123 0
 1384 07ac C046     		nop
 1385 07ae 30E0     		b	.L17
 1386              	.L82:
 1387              		.loc 5 126 0
 1388 07b0 C046     		nop
 1389 07b2 2EE0     		b	.L17
 1390              	.L83:
 1391              		.loc 5 132 0
 1392 07b4 C046     		nop
 1393 07b6 2CE0     		b	.L17
 1394              	.L84:
 1395              		.loc 5 134 0
 1396 07b8 C046     		nop
 1397 07ba 2AE0     		b	.L17
 1398              	.L85:
 1399              		.loc 5 135 0
 1400 07bc C046     		nop
 1401 07be 28E0     		b	.L17
 1402              	.L86:
 1403              		.loc 5 136 0
 1404 07c0 C046     		nop
 1405 07c2 26E0     		b	.L17
 1406              	.L87:
 1407              		.loc 5 142 0
 1408 07c4 C046     		nop
 1409 07c6 24E0     		b	.L17
 1410              	.L88:
 1411              		.loc 5 146 0
 1412 07c8 C046     		nop
 1413 07ca 22E0     		b	.L17
 1414              	.L89:
 1415              		.loc 5 160 0
 1416 07cc C046     		nop
 1417 07ce 20E0     		b	.L17
 1418              	.L90:
 1419              		.loc 5 162 0
 1420 07d0 C046     		nop
 1421 07d2 1EE0     		b	.L17
 1422              	.L91:
 1423              		.loc 5 164 0
 1424 07d4 C046     		nop
ARM GAS  /tmp/cc3GneUP.s 			page 26


 1425 07d6 1CE0     		b	.L17
 1426              	.L92:
 1427              		.loc 5 166 0
 1428 07d8 C046     		nop
 1429 07da 1AE0     		b	.L17
 1430              	.L93:
 1431              		.loc 5 169 0
 1432 07dc C046     		nop
 1433 07de 18E0     		b	.L17
 1434              	.L94:
 1435              		.loc 5 170 0
 1436 07e0 C046     		nop
 1437 07e2 16E0     		b	.L17
 1438              	.L95:
 1439              		.loc 5 175 0
 1440 07e4 C046     		nop
 1441 07e6 14E0     		b	.L17
 1442              	.L96:
 1443              		.loc 5 178 0
 1444 07e8 C046     		nop
 1445 07ea 12E0     		b	.L17
 1446              	.L97:
 1447              		.loc 5 181 0
 1448 07ec C046     		nop
 1449 07ee 10E0     		b	.L17
 1450              	.L98:
 1451              		.loc 5 185 0
 1452 07f0 C046     		nop
 1453 07f2 0EE0     		b	.L17
 1454              	.L99:
 1455              		.loc 5 187 0
 1456 07f4 C046     		nop
 1457 07f6 0CE0     		b	.L17
 1458              	.L100:
 1459              		.loc 5 189 0
 1460 07f8 C046     		nop
 1461 07fa 0AE0     		b	.L17
 1462              	.L101:
 1463              		.loc 5 191 0
 1464 07fc C046     		nop
 1465 07fe 08E0     		b	.L17
 1466              	.L102:
 1467              		.loc 5 194 0
 1468 0800 C046     		nop
 1469 0802 06E0     		b	.L17
 1470              	.L103:
 1471              		.loc 5 195 0
 1472 0804 C046     		nop
 1473 0806 04E0     		b	.L17
 1474              	.L104:
 1475              		.loc 5 200 0
 1476 0808 C046     		nop
 1477 080a 02E0     		b	.L17
 1478              	.L105:
 1479              		.loc 5 203 0
 1480 080c C046     		nop
 1481 080e 00E0     		b	.L17
ARM GAS  /tmp/cc3GneUP.s 			page 27


 1482              	.L106:
 1483              		.loc 5 206 0
 1484 0810 C046     		nop
 1485              	.L17:
 1486              		.loc 5 220 0
 1487 0812 05B0     		add	sp, sp, #20
 1488              		@ sp needed
 1489 0814 00BD     		pop	{pc}
 1490              	.L112:
 1491 0816 C046     		.align	2
 1492              	.L111:
 1493 0818 00000000 		.word	mb1
 1494              		.cfi_endproc
 1495              	.LFE153:
 1496              		.size	mbox1_execute, .-mbox1_execute
 1497              		.global	testmbox1
 1498              		.section	.rodata
 1499 0006 0000     		.align	2
 1500              	.LC7:
 1501 0008 4D61696C 		.ascii	"Mailboxes, queuing and timeouts\000"
 1501      626F7865 
 1501      732C2071 
 1501      75657569 
 1501      6E672061 
 1502              		.section	.rodata.testmbox1,"a",%progbits
 1503              		.align	2
 1504              		.type	testmbox1, %object
 1505              		.size	testmbox1, 16
 1506              	testmbox1:
 1507 0000 08000000 		.word	.LC7
 1508 0004 00000000 		.word	mbox1_setup
 1509 0008 00000000 		.word	0
 1510 000c 00000000 		.word	mbox1_execute
 1511              		.global	patternmbox
 1512              		.section	.rodata.patternmbox,"a",%progbits
 1513              		.align	2
 1514              		.type	patternmbox, %object
 1515              		.size	patternmbox, 8
 1516              	patternmbox:
 1517 0000 00000000 		.word	testmbox1
 1518 0004 00000000 		.word	0
 1519              		.section	.rodata.__func__.4993,"a",%progbits
 1520              		.align	2
 1521              		.type	__func__.4993, %object
 1522              		.size	__func__.4993, 12
 1523              	__func__.4993:
 1524 0000 63685379 		.ascii	"chSysUnlock\000"
 1524      73556E6C 
 1524      6F636B00 
 1525              		.text
 1526              	.Letext0:
 1527              		.file 6 "/home/felix/opt/gcc-arm-none-eabi-6-2017-q1-update/lib/gcc/arm-none-eabi/6.3.1/include/st
 1528              		.file 7 "/home/felix/opt/gcc-arm-none-eabi-6-2017-q1-update/arm-none-eabi/include/machine/_default
 1529              		.file 8 "/home/felix/opt/gcc-arm-none-eabi-6-2017-q1-update/arm-none-eabi/include/sys/_stdint.h"
 1530              		.file 9 "ChibiOS/os/rt/ports/ARMCMx/compilers/GCC/chtypes.h"
 1531              		.file 10 "ChibiOS/os/rt/include/chsystypes.h"
 1532              		.file 11 "ChibiOS/os/rt/include/chschd.h"
ARM GAS  /tmp/cc3GneUP.s 			page 28


 1533              		.file 12 "ChibiOS/os/rt/ports/ARMCMx/chcore.h"
 1534              		.file 13 "ChibiOS/os/rt/include/chdebug.h"
 1535              		.file 14 "ChibiOS/os/rt/include/chsem.h"
 1536              		.file 15 "ChibiOS/os/rt/include/chmtx.h"
 1537              		.file 16 "ChibiOS/os/rt/include/chregistry.h"
 1538              		.file 17 "ChibiOS/os/ext/CMSIS/ST/STM32F0xx/system_stm32f0xx.h"
 1539              		.file 18 "ChibiOS/test/rt/test.h"
 1540              		.section	.debug_info,"",%progbits
 1541              	.Ldebug_info0:
 1542 0000 670B0000 		.4byte	0xb67
 1543 0004 0400     		.2byte	0x4
 1544 0006 00000000 		.4byte	.Ldebug_abbrev0
 1545 000a 04       		.byte	0x4
 1546 000b 01       		.uleb128 0x1
 1547 000c BE020000 		.4byte	.LASF171
 1548 0010 0C       		.byte	0xc
 1549 0011 E6030000 		.4byte	.LASF172
 1550 0015 0A040000 		.4byte	.LASF173
 1551 0019 00000000 		.4byte	.Ldebug_ranges0+0
 1552 001d 00000000 		.4byte	0
 1553 0021 00000000 		.4byte	.Ldebug_line0
 1554 0025 02       		.uleb128 0x2
 1555 0026 04       		.byte	0x4
 1556 0027 05       		.byte	0x5
 1557 0028 696E7400 		.ascii	"int\000"
 1558 002c 03       		.uleb128 0x3
 1559 002d 6C020000 		.4byte	.LASF4
 1560 0031 06       		.byte	0x6
 1561 0032 D8       		.byte	0xd8
 1562 0033 37000000 		.4byte	0x37
 1563 0037 04       		.uleb128 0x4
 1564 0038 04       		.byte	0x4
 1565 0039 07       		.byte	0x7
 1566 003a 9B000000 		.4byte	.LASF0
 1567 003e 04       		.uleb128 0x4
 1568 003f 08       		.byte	0x8
 1569 0040 05       		.byte	0x5
 1570 0041 D5040000 		.4byte	.LASF1
 1571 0045 04       		.uleb128 0x4
 1572 0046 08       		.byte	0x8
 1573 0047 04       		.byte	0x4
 1574 0048 77050000 		.4byte	.LASF2
 1575 004c 04       		.uleb128 0x4
 1576 004d 01       		.byte	0x1
 1577 004e 06       		.byte	0x6
 1578 004f 8E070000 		.4byte	.LASF3
 1579 0053 03       		.uleb128 0x3
 1580 0054 51060000 		.4byte	.LASF5
 1581 0058 07       		.byte	0x7
 1582 0059 2B       		.byte	0x2b
 1583 005a 5E000000 		.4byte	0x5e
 1584 005e 04       		.uleb128 0x4
 1585 005f 01       		.byte	0x1
 1586 0060 08       		.byte	0x8
 1587 0061 FE060000 		.4byte	.LASF6
 1588 0065 04       		.uleb128 0x4
 1589 0066 02       		.byte	0x2
ARM GAS  /tmp/cc3GneUP.s 			page 29


 1590 0067 05       		.byte	0x5
 1591 0068 B5050000 		.4byte	.LASF7
 1592 006c 03       		.uleb128 0x3
 1593 006d 0E020000 		.4byte	.LASF8
 1594 0071 07       		.byte	0x7
 1595 0072 39       		.byte	0x39
 1596 0073 77000000 		.4byte	0x77
 1597 0077 04       		.uleb128 0x4
 1598 0078 02       		.byte	0x2
 1599 0079 07       		.byte	0x7
 1600 007a A7070000 		.4byte	.LASF9
 1601 007e 03       		.uleb128 0x3
 1602 007f B7000000 		.4byte	.LASF10
 1603 0083 07       		.byte	0x7
 1604 0084 4D       		.byte	0x4d
 1605 0085 89000000 		.4byte	0x89
 1606 0089 04       		.uleb128 0x4
 1607 008a 04       		.byte	0x4
 1608 008b 05       		.byte	0x5
 1609 008c E5050000 		.4byte	.LASF11
 1610 0090 03       		.uleb128 0x3
 1611 0091 17070000 		.4byte	.LASF12
 1612 0095 07       		.byte	0x7
 1613 0096 4F       		.byte	0x4f
 1614 0097 9B000000 		.4byte	0x9b
 1615 009b 04       		.uleb128 0x4
 1616 009c 04       		.byte	0x4
 1617 009d 07       		.byte	0x7
 1618 009e 8D060000 		.4byte	.LASF13
 1619 00a2 03       		.uleb128 0x3
 1620 00a3 95030000 		.4byte	.LASF14
 1621 00a7 07       		.byte	0x7
 1622 00a8 69       		.byte	0x69
 1623 00a9 AD000000 		.4byte	0xad
 1624 00ad 04       		.uleb128 0x4
 1625 00ae 08       		.byte	0x8
 1626 00af 07       		.byte	0x7
 1627 00b0 DC010000 		.4byte	.LASF15
 1628 00b4 03       		.uleb128 0x3
 1629 00b5 88040000 		.4byte	.LASF16
 1630 00b9 08       		.byte	0x8
 1631 00ba 18       		.byte	0x18
 1632 00bb 53000000 		.4byte	0x53
 1633 00bf 03       		.uleb128 0x3
 1634 00c0 83050000 		.4byte	.LASF17
 1635 00c4 08       		.byte	0x8
 1636 00c5 24       		.byte	0x24
 1637 00c6 6C000000 		.4byte	0x6c
 1638 00ca 03       		.uleb128 0x3
 1639 00cb CB060000 		.4byte	.LASF18
 1640 00cf 08       		.byte	0x8
 1641 00d0 2C       		.byte	0x2c
 1642 00d1 7E000000 		.4byte	0x7e
 1643 00d5 03       		.uleb128 0x3
 1644 00d6 87010000 		.4byte	.LASF19
 1645 00da 08       		.byte	0x8
 1646 00db 30       		.byte	0x30
ARM GAS  /tmp/cc3GneUP.s 			page 30


 1647 00dc 90000000 		.4byte	0x90
 1648 00e0 03       		.uleb128 0x3
 1649 00e1 24060000 		.4byte	.LASF20
 1650 00e5 08       		.byte	0x8
 1651 00e6 3C       		.byte	0x3c
 1652 00e7 A2000000 		.4byte	0xa2
 1653 00eb 03       		.uleb128 0x3
 1654 00ec 5C050000 		.4byte	.LASF21
 1655 00f0 09       		.byte	0x9
 1656 00f1 3C       		.byte	0x3c
 1657 00f2 B4000000 		.4byte	0xb4
 1658 00f6 03       		.uleb128 0x3
 1659 00f7 5E040000 		.4byte	.LASF22
 1660 00fb 09       		.byte	0x9
 1661 00fc 3D       		.byte	0x3d
 1662 00fd B4000000 		.4byte	0xb4
 1663 0101 03       		.uleb128 0x3
 1664 0102 85060000 		.4byte	.LASF23
 1665 0106 09       		.byte	0x9
 1666 0107 3E       		.byte	0x3e
 1667 0108 B4000000 		.4byte	0xb4
 1668 010c 03       		.uleb128 0x3
 1669 010d C3010000 		.4byte	.LASF24
 1670 0111 09       		.byte	0x9
 1671 0112 40       		.byte	0x40
 1672 0113 D5000000 		.4byte	0xd5
 1673 0117 03       		.uleb128 0x3
 1674 0118 F3040000 		.4byte	.LASF25
 1675 011c 09       		.byte	0x9
 1676 011d 41       		.byte	0x41
 1677 011e CA000000 		.4byte	0xca
 1678 0122 03       		.uleb128 0x3
 1679 0123 9C010000 		.4byte	.LASF26
 1680 0127 09       		.byte	0x9
 1681 0128 43       		.byte	0x43
 1682 0129 D5000000 		.4byte	0xd5
 1683 012d 03       		.uleb128 0x3
 1684 012e 19020000 		.4byte	.LASF27
 1685 0132 09       		.byte	0x9
 1686 0133 45       		.byte	0x45
 1687 0134 CA000000 		.4byte	0xca
 1688 0138 03       		.uleb128 0x3
 1689 0139 62000000 		.4byte	.LASF28
 1690 013d 0A       		.byte	0xa
 1691 013e 35       		.byte	0x35
 1692 013f BF000000 		.4byte	0xbf
 1693 0143 03       		.uleb128 0x3
 1694 0144 63020000 		.4byte	.LASF29
 1695 0148 0A       		.byte	0xa
 1696 0149 3F       		.byte	0x3f
 1697 014a 4E010000 		.4byte	0x14e
 1698 014e 05       		.uleb128 0x5
 1699 014f AC040000 		.4byte	.LASF50
 1700 0153 48       		.byte	0x48
 1701 0154 0B       		.byte	0xb
 1702 0155 C2       		.byte	0xc2
 1703 0156 47020000 		.4byte	0x247
ARM GAS  /tmp/cc3GneUP.s 			page 31


 1704 015a 06       		.uleb128 0x6
 1705 015b 1D060000 		.4byte	.LASF30
 1706 015f 0B       		.byte	0xb
 1707 0160 C3       		.byte	0xc3
 1708 0161 52020000 		.4byte	0x252
 1709 0165 00       		.byte	0
 1710 0166 06       		.uleb128 0x6
 1711 0167 75060000 		.4byte	.LASF31
 1712 016b 0B       		.byte	0xb
 1713 016c C5       		.byte	0xc5
 1714 016d 52020000 		.4byte	0x252
 1715 0171 04       		.byte	0x4
 1716 0172 06       		.uleb128 0x6
 1717 0173 5B000000 		.4byte	.LASF32
 1718 0177 0B       		.byte	0xb
 1719 0178 C7       		.byte	0xc7
 1720 0179 0C010000 		.4byte	0x10c
 1721 017d 08       		.byte	0x8
 1722 017e 06       		.uleb128 0x6
 1723 017f 2D060000 		.4byte	.LASF33
 1724 0183 0B       		.byte	0xb
 1725 0184 C8       		.byte	0xc8
 1726 0185 B0040000 		.4byte	0x4b0
 1727 0189 0C       		.byte	0xc
 1728 018a 06       		.uleb128 0x6
 1729 018b 3C020000 		.4byte	.LASF34
 1730 018f 0B       		.byte	0xb
 1731 0190 CA       		.byte	0xca
 1732 0191 52020000 		.4byte	0x252
 1733 0195 10       		.byte	0x10
 1734 0196 06       		.uleb128 0x6
 1735 0197 6D040000 		.4byte	.LASF35
 1736 019b 0B       		.byte	0xb
 1737 019c CB       		.byte	0xcb
 1738 019d 52020000 		.4byte	0x252
 1739 01a1 14       		.byte	0x14
 1740 01a2 06       		.uleb128 0x6
 1741 01a3 DF030000 		.4byte	.LASF36
 1742 01a7 0B       		.byte	0xb
 1743 01a8 D2       		.byte	0xd2
 1744 01a9 99060000 		.4byte	0x699
 1745 01ad 18       		.byte	0x18
 1746 01ae 06       		.uleb128 0x6
 1747 01af 7D040000 		.4byte	.LASF37
 1748 01b3 0B       		.byte	0xb
 1749 01b4 D8       		.byte	0xd8
 1750 01b5 B0060000 		.4byte	0x6b0
 1751 01b9 1C       		.byte	0x1c
 1752 01ba 06       		.uleb128 0x6
 1753 01bb 75040000 		.4byte	.LASF38
 1754 01bf 0B       		.byte	0xb
 1755 01c0 DD       		.byte	0xdd
 1756 01c1 F6000000 		.4byte	0xf6
 1757 01c5 20       		.byte	0x20
 1758 01c6 06       		.uleb128 0x6
 1759 01c7 0A050000 		.4byte	.LASF39
 1760 01cb 0B       		.byte	0xb
ARM GAS  /tmp/cc3GneUP.s 			page 32


 1761 01cc E1       		.byte	0xe1
 1762 01cd EB000000 		.4byte	0xeb
 1763 01d1 21       		.byte	0x21
 1764 01d2 06       		.uleb128 0x6
 1765 01d3 38070000 		.4byte	.LASF40
 1766 01d7 0B       		.byte	0xb
 1767 01d8 E6       		.byte	0xe6
 1768 01d9 01010000 		.4byte	0x101
 1769 01dd 22       		.byte	0x22
 1770 01de 07       		.uleb128 0x7
 1771 01df 705F7500 		.ascii	"p_u\000"
 1772 01e3 0B       		.byte	0xb
 1773 01e4 3101     		.2byte	0x131
 1774 01e6 D4050000 		.4byte	0x5d4
 1775 01ea 24       		.byte	0x24
 1776 01eb 08       		.uleb128 0x8
 1777 01ec 20000000 		.4byte	.LASF41
 1778 01f0 0B       		.byte	0xb
 1779 01f1 3601     		.2byte	0x136
 1780 01f3 58020000 		.4byte	0x258
 1781 01f7 28       		.byte	0x28
 1782 01f8 08       		.uleb128 0x8
 1783 01f9 90000000 		.4byte	.LASF42
 1784 01fd 0B       		.byte	0xb
 1785 01fe 3C01     		.2byte	0x13c
 1786 0200 7C020000 		.4byte	0x27c
 1787 0204 2C       		.byte	0x2c
 1788 0205 08       		.uleb128 0x8
 1789 0206 56050000 		.4byte	.LASF43
 1790 020a 0B       		.byte	0xb
 1791 020b 4001     		.2byte	0x140
 1792 020d 17010000 		.4byte	0x117
 1793 0211 34       		.byte	0x34
 1794 0212 08       		.uleb128 0x8
 1795 0213 D2050000 		.4byte	.LASF44
 1796 0217 0B       		.byte	0xb
 1797 0218 4601     		.2byte	0x146
 1798 021a 22010000 		.4byte	0x122
 1799 021e 38       		.byte	0x38
 1800 021f 08       		.uleb128 0x8
 1801 0220 A2040000 		.4byte	.LASF45
 1802 0224 0B       		.byte	0xb
 1803 0225 4D01     		.2byte	0x14d
 1804 0227 93060000 		.4byte	0x693
 1805 022b 3C       		.byte	0x3c
 1806 022c 08       		.uleb128 0x8
 1807 022d 9F050000 		.4byte	.LASF46
 1808 0231 0B       		.byte	0xb
 1809 0232 5101     		.2byte	0x151
 1810 0234 0C010000 		.4byte	0x10c
 1811 0238 40       		.byte	0x40
 1812 0239 08       		.uleb128 0x8
 1813 023a 9A040000 		.4byte	.LASF47
 1814 023e 0B       		.byte	0xb
 1815 023f 5801     		.2byte	0x158
 1816 0241 2F030000 		.4byte	0x32f
 1817 0245 44       		.byte	0x44
ARM GAS  /tmp/cc3GneUP.s 			page 33


 1818 0246 00       		.byte	0
 1819 0247 03       		.uleb128 0x3
 1820 0248 3F040000 		.4byte	.LASF48
 1821 024c 0A       		.byte	0xa
 1822 024d 44       		.byte	0x44
 1823 024e 52020000 		.4byte	0x252
 1824 0252 09       		.uleb128 0x9
 1825 0253 04       		.byte	0x4
 1826 0254 43010000 		.4byte	0x143
 1827 0258 03       		.uleb128 0x3
 1828 0259 A8000000 		.4byte	.LASF49
 1829 025d 0A       		.byte	0xa
 1830 025e 49       		.byte	0x49
 1831 025f 63020000 		.4byte	0x263
 1832 0263 05       		.uleb128 0x5
 1833 0264 00000000 		.4byte	.LASF51
 1834 0268 04       		.byte	0x4
 1835 0269 0B       		.byte	0xb
 1836 026a B0       		.byte	0xb0
 1837 026b 7C020000 		.4byte	0x27c
 1838 026f 06       		.uleb128 0x6
 1839 0270 1D060000 		.4byte	.LASF30
 1840 0274 0B       		.byte	0xb
 1841 0275 B1       		.byte	0xb1
 1842 0276 52020000 		.4byte	0x252
 1843 027a 00       		.byte	0
 1844 027b 00       		.byte	0
 1845 027c 03       		.uleb128 0x3
 1846 027d 10000000 		.4byte	.LASF52
 1847 0281 0A       		.byte	0xa
 1848 0282 50       		.byte	0x50
 1849 0283 87020000 		.4byte	0x287
 1850 0287 05       		.uleb128 0x5
 1851 0288 2D010000 		.4byte	.LASF53
 1852 028c 08       		.byte	0x8
 1853 028d 0B       		.byte	0xb
 1854 028e B7       		.byte	0xb7
 1855 028f AC020000 		.4byte	0x2ac
 1856 0293 06       		.uleb128 0x6
 1857 0294 1D060000 		.4byte	.LASF30
 1858 0298 0B       		.byte	0xb
 1859 0299 B8       		.byte	0xb8
 1860 029a 52020000 		.4byte	0x252
 1861 029e 00       		.byte	0
 1862 029f 06       		.uleb128 0x6
 1863 02a0 75060000 		.4byte	.LASF31
 1864 02a4 0B       		.byte	0xb
 1865 02a5 B9       		.byte	0xb9
 1866 02a6 52020000 		.4byte	0x252
 1867 02aa 04       		.byte	0x4
 1868 02ab 00       		.byte	0
 1869 02ac 03       		.uleb128 0x3
 1870 02ad B6060000 		.4byte	.LASF54
 1871 02b1 0A       		.byte	0xa
 1872 02b2 57       		.byte	0x57
 1873 02b3 B7020000 		.4byte	0x2b7
 1874 02b7 0A       		.uleb128 0xa
ARM GAS  /tmp/cc3GneUP.s 			page 34


 1875 02b8 F3000000 		.4byte	.LASF55
 1876 02bc 1C       		.byte	0x1c
 1877 02bd 0B       		.byte	0xb
 1878 02be 9001     		.2byte	0x190
 1879 02c0 13030000 		.4byte	0x313
 1880 02c4 08       		.uleb128 0x8
 1881 02c5 E3040000 		.4byte	.LASF56
 1882 02c9 0B       		.byte	0xb
 1883 02ca 9101     		.2byte	0x191
 1884 02cc 7C020000 		.4byte	0x27c
 1885 02d0 00       		.byte	0
 1886 02d1 08       		.uleb128 0x8
 1887 02d2 A8010000 		.4byte	.LASF57
 1888 02d6 0B       		.byte	0xb
 1889 02d7 9201     		.2byte	0x192
 1890 02d9 0C010000 		.4byte	0x10c
 1891 02dd 08       		.byte	0x8
 1892 02de 08       		.uleb128 0x8
 1893 02df BA070000 		.4byte	.LASF58
 1894 02e3 0B       		.byte	0xb
 1895 02e4 9401     		.2byte	0x194
 1896 02e6 B0040000 		.4byte	0x4b0
 1897 02ea 0C       		.byte	0xc
 1898 02eb 08       		.uleb128 0x8
 1899 02ec EB040000 		.4byte	.LASF59
 1900 02f0 0B       		.byte	0xb
 1901 02f1 9701     		.2byte	0x197
 1902 02f3 52020000 		.4byte	0x252
 1903 02f7 10       		.byte	0x10
 1904 02f8 08       		.uleb128 0x8
 1905 02f9 44050000 		.4byte	.LASF60
 1906 02fd 0B       		.byte	0xb
 1907 02fe 9801     		.2byte	0x198
 1908 0300 52020000 		.4byte	0x252
 1909 0304 14       		.byte	0x14
 1910 0305 08       		.uleb128 0x8
 1911 0306 C8050000 		.4byte	.LASF61
 1912 030a 0B       		.byte	0xb
 1913 030b 9B01     		.2byte	0x19b
 1914 030d 52020000 		.4byte	0x252
 1915 0311 18       		.byte	0x18
 1916 0312 00       		.byte	0
 1917 0313 03       		.uleb128 0x3
 1918 0314 5B010000 		.4byte	.LASF62
 1919 0318 0A       		.byte	0xa
 1920 0319 5C       		.byte	0x5c
 1921 031a 1E030000 		.4byte	0x31e
 1922 031e 09       		.uleb128 0x9
 1923 031f 04       		.byte	0x4
 1924 0320 24030000 		.4byte	0x324
 1925 0324 0B       		.uleb128 0xb
 1926 0325 2F030000 		.4byte	0x32f
 1927 0329 0C       		.uleb128 0xc
 1928 032a 2F030000 		.4byte	0x32f
 1929 032e 00       		.byte	0
 1930 032f 0D       		.uleb128 0xd
 1931 0330 04       		.byte	0x4
ARM GAS  /tmp/cc3GneUP.s 			page 35


 1932 0331 0E       		.uleb128 0xe
 1933 0332 2F030000 		.4byte	0x32f
 1934 0336 03       		.uleb128 0x3
 1935 0337 12050000 		.4byte	.LASF63
 1936 033b 0A       		.byte	0xa
 1937 033c 61       		.byte	0x61
 1938 033d 41030000 		.4byte	0x341
 1939 0341 0A       		.uleb128 0xa
 1940 0342 CB010000 		.4byte	.LASF64
 1941 0346 14       		.byte	0x14
 1942 0347 0B       		.byte	0xb
 1943 0348 6B01     		.2byte	0x16b
 1944 034a 90030000 		.4byte	0x390
 1945 034e 08       		.uleb128 0x8
 1946 034f 5B070000 		.4byte	.LASF65
 1947 0353 0B       		.byte	0xb
 1948 0354 6C01     		.2byte	0x16c
 1949 0356 B6060000 		.4byte	0x6b6
 1950 035a 00       		.byte	0
 1951 035b 08       		.uleb128 0x8
 1952 035c 03080000 		.4byte	.LASF66
 1953 0360 0B       		.byte	0xb
 1954 0361 6D01     		.2byte	0x16d
 1955 0363 B6060000 		.4byte	0x6b6
 1956 0367 04       		.byte	0x4
 1957 0368 08       		.uleb128 0x8
 1958 0369 01040000 		.4byte	.LASF67
 1959 036d 0B       		.byte	0xb
 1960 036e 6E01     		.2byte	0x16e
 1961 0370 38010000 		.4byte	0x138
 1962 0374 08       		.byte	0x8
 1963 0375 08       		.uleb128 0x8
 1964 0376 EF070000 		.4byte	.LASF68
 1965 037a 0B       		.byte	0xb
 1966 037b 6F01     		.2byte	0x16f
 1967 037d 13030000 		.4byte	0x313
 1968 0381 0C       		.byte	0xc
 1969 0382 08       		.uleb128 0x8
 1970 0383 AF010000 		.4byte	.LASF69
 1971 0387 0B       		.byte	0xb
 1972 0388 7101     		.2byte	0x171
 1973 038a 2F030000 		.4byte	0x32f
 1974 038e 10       		.byte	0x10
 1975 038f 00       		.byte	0
 1976 0390 03       		.uleb128 0x3
 1977 0391 22070000 		.4byte	.LASF70
 1978 0395 0A       		.byte	0xa
 1979 0396 66       		.byte	0x66
 1980 0397 9B030000 		.4byte	0x39b
 1981 039b 0A       		.uleb128 0xa
 1982 039c 44020000 		.4byte	.LASF71
 1983 03a0 0C       		.byte	0xc
 1984 03a1 0B       		.byte	0xb
 1985 03a2 7B01     		.2byte	0x17b
 1986 03a4 DD030000 		.4byte	0x3dd
 1987 03a8 08       		.uleb128 0x8
 1988 03a9 5B070000 		.4byte	.LASF65
ARM GAS  /tmp/cc3GneUP.s 			page 36


 1989 03ad 0B       		.byte	0xb
 1990 03ae 7C01     		.2byte	0x17c
 1991 03b0 B6060000 		.4byte	0x6b6
 1992 03b4 00       		.byte	0
 1993 03b5 08       		.uleb128 0x8
 1994 03b6 03080000 		.4byte	.LASF66
 1995 03ba 0B       		.byte	0xb
 1996 03bb 7E01     		.2byte	0x17e
 1997 03bd B6060000 		.4byte	0x6b6
 1998 03c1 04       		.byte	0x4
 1999 03c2 08       		.uleb128 0x8
 2000 03c3 01040000 		.4byte	.LASF67
 2001 03c7 0B       		.byte	0xb
 2002 03c8 8001     		.2byte	0x180
 2003 03ca 38010000 		.4byte	0x138
 2004 03ce 08       		.byte	0x8
 2005 03cf 08       		.uleb128 0x8
 2006 03d0 52040000 		.4byte	.LASF72
 2007 03d4 0B       		.byte	0xb
 2008 03d5 8801     		.2byte	0x188
 2009 03d7 38010000 		.4byte	0x138
 2010 03db 0A       		.byte	0xa
 2011 03dc 00       		.byte	0
 2012 03dd 03       		.uleb128 0x3
 2013 03de C6040000 		.4byte	.LASF73
 2014 03e2 0A       		.byte	0xa
 2015 03e3 6B       		.byte	0x6b
 2016 03e4 E8030000 		.4byte	0x3e8
 2017 03e8 0F       		.uleb128 0xf
 2018 03e9 6A010000 		.4byte	.LASF74
 2019 03ed 1404     		.2byte	0x414
 2020 03ef 0B       		.byte	0xb
 2021 03f0 A201     		.2byte	0x1a2
 2022 03f2 2B040000 		.4byte	0x42b
 2023 03f6 08       		.uleb128 0x8
 2024 03f7 4C050000 		.4byte	.LASF75
 2025 03fb 0B       		.byte	0xb
 2026 03fc AA01     		.2byte	0x1aa
 2027 03fe 9F060000 		.4byte	0x69f
 2028 0402 00       		.byte	0
 2029 0403 08       		.uleb128 0x8
 2030 0404 34020000 		.4byte	.LASF76
 2031 0408 0B       		.byte	0xb
 2032 0409 AF01     		.2byte	0x1af
 2033 040b 2D010000 		.4byte	0x12d
 2034 040f 04       		.byte	0x4
 2035 0410 08       		.uleb128 0x8
 2036 0411 96050000 		.4byte	.LASF77
 2037 0415 0B       		.byte	0xb
 2038 0416 B301     		.2byte	0x1b3
 2039 0418 2D010000 		.4byte	0x12d
 2040 041c 08       		.byte	0x8
 2041 041d 08       		.uleb128 0x8
 2042 041e D3060000 		.4byte	.LASF78
 2043 0422 0B       		.byte	0xb
 2044 0423 B901     		.2byte	0x1b9
 2045 0425 C9050000 		.4byte	0x5c9
ARM GAS  /tmp/cc3GneUP.s 			page 37


 2046 0429 0C       		.byte	0xc
 2047 042a 00       		.byte	0
 2048 042b 03       		.uleb128 0x3
 2049 042c 63070000 		.4byte	.LASF79
 2050 0430 0A       		.byte	0xa
 2051 0431 70       		.byte	0x70
 2052 0432 36040000 		.4byte	0x436
 2053 0436 0F       		.uleb128 0xf
 2054 0437 07060000 		.4byte	.LASF80
 2055 043b 6805     		.2byte	0x568
 2056 043d 0B       		.byte	0xb
 2057 043e C201     		.2byte	0x1c2
 2058 0440 88040000 		.4byte	0x488
 2059 0444 08       		.uleb128 0x8
 2060 0445 33060000 		.4byte	.LASF81
 2061 0449 0B       		.byte	0xb
 2062 044a C601     		.2byte	0x1c6
 2063 044c AC020000 		.4byte	0x2ac
 2064 0450 00       		.byte	0
 2065 0451 08       		.uleb128 0x8
 2066 0452 EC000000 		.4byte	.LASF82
 2067 0456 0B       		.byte	0xb
 2068 0457 CA01     		.2byte	0x1ca
 2069 0459 90030000 		.4byte	0x390
 2070 045d 1C       		.byte	0x1c
 2071 045e 07       		.uleb128 0x7
 2072 045f 64626700 		.ascii	"dbg\000"
 2073 0463 0B       		.byte	0xb
 2074 0464 CE01     		.2byte	0x1ce
 2075 0466 DD030000 		.4byte	0x3dd
 2076 046a 28       		.byte	0x28
 2077 046b 10       		.uleb128 0x10
 2078 046c 6C050000 		.4byte	.LASF83
 2079 0470 0B       		.byte	0xb
 2080 0471 D201     		.2byte	0x1d2
 2081 0473 43010000 		.4byte	0x143
 2082 0477 3C04     		.2byte	0x43c
 2083 0479 10       		.uleb128 0x10
 2084 047a 0A010000 		.4byte	.LASF84
 2085 047e 0B       		.byte	0xb
 2086 047f E301     		.2byte	0x1e3
 2087 0481 BC060000 		.4byte	0x6bc
 2088 0485 8804     		.2byte	0x488
 2089 0487 00       		.byte	0
 2090 0488 04       		.uleb128 0x4
 2091 0489 04       		.byte	0x4
 2092 048a 07       		.byte	0x7
 2093 048b 7C060000 		.4byte	.LASF85
 2094 048f 11       		.uleb128 0x11
 2095 0490 2A000000 		.4byte	.LASF114
 2096 0494 11       		.byte	0x11
 2097 0495 4C       		.byte	0x4c
 2098 0496 D5000000 		.4byte	0xd5
 2099 049a 03       		.uleb128 0x3
 2100 049b 52000000 		.4byte	.LASF86
 2101 049f 0C       		.byte	0xc
 2102 04a0 65       		.byte	0x65
ARM GAS  /tmp/cc3GneUP.s 			page 38


 2103 04a1 2F030000 		.4byte	0x32f
 2104 04a5 03       		.uleb128 0x3
 2105 04a6 C0070000 		.4byte	.LASF87
 2106 04aa 0C       		.byte	0xc
 2107 04ab 6D       		.byte	0x6d
 2108 04ac E0000000 		.4byte	0xe0
 2109 04b0 05       		.uleb128 0x5
 2110 04b1 F9040000 		.4byte	.LASF88
 2111 04b5 04       		.byte	0x4
 2112 04b6 0C       		.byte	0xc
 2113 04b7 89       		.byte	0x89
 2114 04b8 C9040000 		.4byte	0x4c9
 2115 04bc 12       		.uleb128 0x12
 2116 04bd 72313300 		.ascii	"r13\000"
 2117 04c1 0C       		.byte	0xc
 2118 04c2 8A       		.byte	0x8a
 2119 04c3 3B050000 		.4byte	0x53b
 2120 04c7 00       		.byte	0
 2121 04c8 00       		.byte	0
 2122 04c9 05       		.uleb128 0x5
 2123 04ca EE050000 		.4byte	.LASF89
 2124 04ce 24       		.byte	0x24
 2125 04cf 01       		.byte	0x1
 2126 04d0 A4       		.byte	0xa4
 2127 04d1 3B050000 		.4byte	0x53b
 2128 04d5 12       		.uleb128 0x12
 2129 04d6 723800   		.ascii	"r8\000"
 2130 04d9 01       		.byte	0x1
 2131 04da A5       		.byte	0xa5
 2132 04db 9A040000 		.4byte	0x49a
 2133 04df 00       		.byte	0
 2134 04e0 12       		.uleb128 0x12
 2135 04e1 723900   		.ascii	"r9\000"
 2136 04e4 01       		.byte	0x1
 2137 04e5 A6       		.byte	0xa6
 2138 04e6 9A040000 		.4byte	0x49a
 2139 04ea 04       		.byte	0x4
 2140 04eb 12       		.uleb128 0x12
 2141 04ec 72313000 		.ascii	"r10\000"
 2142 04f0 01       		.byte	0x1
 2143 04f1 A7       		.byte	0xa7
 2144 04f2 9A040000 		.4byte	0x49a
 2145 04f6 08       		.byte	0x8
 2146 04f7 12       		.uleb128 0x12
 2147 04f8 72313100 		.ascii	"r11\000"
 2148 04fc 01       		.byte	0x1
 2149 04fd A8       		.byte	0xa8
 2150 04fe 9A040000 		.4byte	0x49a
 2151 0502 0C       		.byte	0xc
 2152 0503 12       		.uleb128 0x12
 2153 0504 723400   		.ascii	"r4\000"
 2154 0507 01       		.byte	0x1
 2155 0508 A9       		.byte	0xa9
 2156 0509 9A040000 		.4byte	0x49a
 2157 050d 10       		.byte	0x10
 2158 050e 12       		.uleb128 0x12
 2159 050f 723500   		.ascii	"r5\000"
ARM GAS  /tmp/cc3GneUP.s 			page 39


 2160 0512 01       		.byte	0x1
 2161 0513 AA       		.byte	0xaa
 2162 0514 9A040000 		.4byte	0x49a
 2163 0518 14       		.byte	0x14
 2164 0519 12       		.uleb128 0x12
 2165 051a 723600   		.ascii	"r6\000"
 2166 051d 01       		.byte	0x1
 2167 051e AB       		.byte	0xab
 2168 051f 9A040000 		.4byte	0x49a
 2169 0523 18       		.byte	0x18
 2170 0524 12       		.uleb128 0x12
 2171 0525 723700   		.ascii	"r7\000"
 2172 0528 01       		.byte	0x1
 2173 0529 AC       		.byte	0xac
 2174 052a 9A040000 		.4byte	0x49a
 2175 052e 1C       		.byte	0x1c
 2176 052f 12       		.uleb128 0x12
 2177 0530 6C7200   		.ascii	"lr\000"
 2178 0533 01       		.byte	0x1
 2179 0534 AD       		.byte	0xad
 2180 0535 9A040000 		.4byte	0x49a
 2181 0539 20       		.byte	0x20
 2182 053a 00       		.byte	0
 2183 053b 09       		.uleb128 0x9
 2184 053c 04       		.byte	0x4
 2185 053d C9040000 		.4byte	0x4c9
 2186 0541 13       		.uleb128 0x13
 2187 0542 10       		.byte	0x10
 2188 0543 0D       		.byte	0xd
 2189 0544 51       		.byte	0x51
 2190 0545 7A050000 		.4byte	0x57a
 2191 0549 06       		.uleb128 0x6
 2192 054a 5B020000 		.4byte	.LASF90
 2193 054e 0D       		.byte	0xd
 2194 054f 55       		.byte	0x55
 2195 0550 38010000 		.4byte	0x138
 2196 0554 00       		.byte	0
 2197 0555 06       		.uleb128 0x6
 2198 0556 67040000 		.4byte	.LASF91
 2199 055a 0D       		.byte	0xd
 2200 055b 59       		.byte	0x59
 2201 055c 52020000 		.4byte	0x252
 2202 0560 04       		.byte	0x4
 2203 0561 06       		.uleb128 0x6
 2204 0562 F3010000 		.4byte	.LASF92
 2205 0566 0D       		.byte	0xd
 2206 0567 5D       		.byte	0x5d
 2207 0568 2F030000 		.4byte	0x32f
 2208 056c 08       		.byte	0x8
 2209 056d 06       		.uleb128 0x6
 2210 056e C1000000 		.4byte	.LASF93
 2211 0572 0D       		.byte	0xd
 2212 0573 61       		.byte	0x61
 2213 0574 B4000000 		.4byte	0xb4
 2214 0578 0C       		.byte	0xc
 2215 0579 00       		.byte	0
 2216 057a 03       		.uleb128 0x3
ARM GAS  /tmp/cc3GneUP.s 			page 40


 2217 057b E7060000 		.4byte	.LASF94
 2218 057f 0D       		.byte	0xd
 2219 0580 62       		.byte	0x62
 2220 0581 41050000 		.4byte	0x541
 2221 0585 14       		.uleb128 0x14
 2222 0586 0804     		.2byte	0x408
 2223 0588 0D       		.byte	0xd
 2224 0589 67       		.byte	0x67
 2225 058a B3050000 		.4byte	0x5b3
 2226 058e 06       		.uleb128 0x6
 2227 058f BE040000 		.4byte	.LASF95
 2228 0593 0D       		.byte	0xd
 2229 0594 6B       		.byte	0x6b
 2230 0595 37000000 		.4byte	0x37
 2231 0599 00       		.byte	0
 2232 059a 06       		.uleb128 0x6
 2233 059b 3D050000 		.4byte	.LASF96
 2234 059f 0D       		.byte	0xd
 2235 05a0 6F       		.byte	0x6f
 2236 05a1 B3050000 		.4byte	0x5b3
 2237 05a5 04       		.byte	0x4
 2238 05a6 06       		.uleb128 0x6
 2239 05a7 90040000 		.4byte	.LASF97
 2240 05ab 0D       		.byte	0xd
 2241 05ac 73       		.byte	0x73
 2242 05ad B9050000 		.4byte	0x5b9
 2243 05b1 08       		.byte	0x8
 2244 05b2 00       		.byte	0
 2245 05b3 09       		.uleb128 0x9
 2246 05b4 04       		.byte	0x4
 2247 05b5 7A050000 		.4byte	0x57a
 2248 05b9 15       		.uleb128 0x15
 2249 05ba 7A050000 		.4byte	0x57a
 2250 05be C9050000 		.4byte	0x5c9
 2251 05c2 16       		.uleb128 0x16
 2252 05c3 88040000 		.4byte	0x488
 2253 05c7 3F       		.byte	0x3f
 2254 05c8 00       		.byte	0
 2255 05c9 03       		.uleb128 0x3
 2256 05ca 75070000 		.4byte	.LASF98
 2257 05ce 0D       		.byte	0xd
 2258 05cf 74       		.byte	0x74
 2259 05d0 85050000 		.4byte	0x585
 2260 05d4 17       		.uleb128 0x17
 2261 05d5 04       		.byte	0x4
 2262 05d6 0B       		.byte	0xb
 2263 05d7 FA       		.byte	0xfa
 2264 05d8 31060000 		.4byte	0x631
 2265 05dc 18       		.uleb128 0x18
 2266 05dd 73020000 		.4byte	.LASF99
 2267 05e1 0B       		.byte	0xb
 2268 05e2 0101     		.2byte	0x101
 2269 05e4 17010000 		.4byte	0x117
 2270 05e8 18       		.uleb128 0x18
 2271 05e9 1B080000 		.4byte	.LASF100
 2272 05ed 0B       		.byte	0xb
 2273 05ee 0801     		.2byte	0x108
ARM GAS  /tmp/cc3GneUP.s 			page 41


 2274 05f0 17010000 		.4byte	0x117
 2275 05f4 18       		.uleb128 0x18
 2276 05f5 DB000000 		.4byte	.LASF101
 2277 05f9 0B       		.byte	0xb
 2278 05fa 0F01     		.2byte	0x10f
 2279 05fc 2F030000 		.4byte	0x32f
 2280 0600 18       		.uleb128 0x18
 2281 0601 6F070000 		.4byte	.LASF102
 2282 0605 0B       		.byte	0xb
 2283 0606 1601     		.2byte	0x116
 2284 0608 31060000 		.4byte	0x631
 2285 060c 18       		.uleb128 0x18
 2286 060d E0060000 		.4byte	.LASF103
 2287 0611 0B       		.byte	0xb
 2288 0612 1E01     		.2byte	0x11e
 2289 0614 5C060000 		.4byte	0x65c
 2290 0618 18       		.uleb128 0x18
 2291 0619 3A000000 		.4byte	.LASF104
 2292 061d 0B       		.byte	0xb
 2293 061e 2701     		.2byte	0x127
 2294 0620 93060000 		.4byte	0x693
 2295 0624 18       		.uleb128 0x18
 2296 0625 19010000 		.4byte	.LASF105
 2297 0629 0B       		.byte	0xb
 2298 062a 2F01     		.2byte	0x12f
 2299 062c 22010000 		.4byte	0x122
 2300 0630 00       		.byte	0
 2301 0631 09       		.uleb128 0x9
 2302 0632 04       		.byte	0x4
 2303 0633 47020000 		.4byte	0x247
 2304 0637 05       		.uleb128 0x5
 2305 0638 B6010000 		.4byte	.LASF106
 2306 063c 0C       		.byte	0xc
 2307 063d 0E       		.byte	0xe
 2308 063e 34       		.byte	0x34
 2309 063f 5C060000 		.4byte	0x65c
 2310 0643 06       		.uleb128 0x6
 2311 0644 88000000 		.4byte	.LASF107
 2312 0648 0E       		.byte	0xe
 2313 0649 35       		.byte	0x35
 2314 064a 7C020000 		.4byte	0x27c
 2315 064e 00       		.byte	0
 2316 064f 06       		.uleb128 0x6
 2317 0650 64010000 		.4byte	.LASF108
 2318 0654 0E       		.byte	0xe
 2319 0655 37       		.byte	0x37
 2320 0656 2D010000 		.4byte	0x12d
 2321 065a 08       		.byte	0x8
 2322 065b 00       		.byte	0
 2323 065c 09       		.uleb128 0x9
 2324 065d 04       		.byte	0x4
 2325 065e 37060000 		.4byte	0x637
 2326 0662 05       		.uleb128 0x5
 2327 0663 8C030000 		.4byte	.LASF109
 2328 0667 10       		.byte	0x10
 2329 0668 0F       		.byte	0xf
 2330 0669 39       		.byte	0x39
ARM GAS  /tmp/cc3GneUP.s 			page 42


 2331 066a 93060000 		.4byte	0x693
 2332 066e 06       		.uleb128 0x6
 2333 066f DD050000 		.4byte	.LASF110
 2334 0673 0F       		.byte	0xf
 2335 0674 3A       		.byte	0x3a
 2336 0675 7C020000 		.4byte	0x27c
 2337 0679 00       		.byte	0
 2338 067a 06       		.uleb128 0x6
 2339 067b 80000000 		.4byte	.LASF111
 2340 067f 0F       		.byte	0xf
 2341 0680 3C       		.byte	0x3c
 2342 0681 52020000 		.4byte	0x252
 2343 0685 08       		.byte	0x8
 2344 0686 06       		.uleb128 0x6
 2345 0687 87070000 		.4byte	.LASF112
 2346 068b 0F       		.byte	0xf
 2347 068c 3E       		.byte	0x3e
 2348 068d EE070000 		.4byte	0x7ee
 2349 0691 0C       		.byte	0xc
 2350 0692 00       		.byte	0
 2351 0693 09       		.uleb128 0x9
 2352 0694 04       		.byte	0x4
 2353 0695 62060000 		.4byte	0x662
 2354 0699 09       		.uleb128 0x9
 2355 069a 04       		.byte	0x4
 2356 069b AB060000 		.4byte	0x6ab
 2357 069f 19       		.uleb128 0x19
 2358 06a0 99060000 		.4byte	0x699
 2359 06a4 04       		.uleb128 0x4
 2360 06a5 01       		.byte	0x1
 2361 06a6 08       		.byte	0x8
 2362 06a7 4D000000 		.4byte	.LASF113
 2363 06ab 0E       		.uleb128 0xe
 2364 06ac A4060000 		.4byte	0x6a4
 2365 06b0 09       		.uleb128 0x9
 2366 06b1 04       		.byte	0x4
 2367 06b2 A5040000 		.4byte	0x4a5
 2368 06b6 09       		.uleb128 0x9
 2369 06b7 04       		.byte	0x4
 2370 06b8 36030000 		.4byte	0x336
 2371 06bc 15       		.uleb128 0x15
 2372 06bd A5040000 		.4byte	0x4a5
 2373 06c1 CC060000 		.4byte	0x6cc
 2374 06c5 16       		.uleb128 0x16
 2375 06c6 88040000 		.4byte	0x488
 2376 06ca 1B       		.byte	0x1b
 2377 06cb 00       		.byte	0
 2378 06cc 1A       		.uleb128 0x1a
 2379 06cd 636800   		.ascii	"ch\000"
 2380 06d0 0B       		.byte	0xb
 2381 06d1 0902     		.2byte	0x209
 2382 06d3 2B040000 		.4byte	0x42b
 2383 06d7 13       		.uleb128 0x13
 2384 06d8 16       		.byte	0x16
 2385 06d9 10       		.byte	0x10
 2386 06da 34       		.byte	0x34
 2387 06db B8070000 		.4byte	0x7b8
ARM GAS  /tmp/cc3GneUP.s 			page 43


 2388 06df 06       		.uleb128 0x6
 2389 06e0 67060000 		.4byte	.LASF115
 2390 06e4 10       		.byte	0x10
 2391 06e5 35       		.byte	0x35
 2392 06e6 B8070000 		.4byte	0x7b8
 2393 06ea 00       		.byte	0
 2394 06eb 06       		.uleb128 0x6
 2395 06ec 2E050000 		.4byte	.LASF116
 2396 06f0 10       		.byte	0x10
 2397 06f1 36       		.byte	0x36
 2398 06f2 B4000000 		.4byte	0xb4
 2399 06f6 04       		.byte	0x4
 2400 06f7 06       		.uleb128 0x6
 2401 06f8 64050000 		.4byte	.LASF117
 2402 06fc 10       		.byte	0x10
 2403 06fd 37       		.byte	0x37
 2404 06fe B4000000 		.4byte	0xb4
 2405 0702 05       		.byte	0x5
 2406 0703 06       		.uleb128 0x6
 2407 0704 AA050000 		.4byte	.LASF118
 2408 0708 10       		.byte	0x10
 2409 0709 38       		.byte	0x38
 2410 070a BF000000 		.4byte	0xbf
 2411 070e 06       		.byte	0x6
 2412 070f 06       		.uleb128 0x6
 2413 0710 3E010000 		.4byte	.LASF119
 2414 0714 10       		.byte	0x10
 2415 0715 39       		.byte	0x39
 2416 0716 B4000000 		.4byte	0xb4
 2417 071a 08       		.byte	0x8
 2418 071b 06       		.uleb128 0x6
 2419 071c 90010000 		.4byte	.LASF120
 2420 0720 10       		.byte	0x10
 2421 0721 3A       		.byte	0x3a
 2422 0722 B4000000 		.4byte	0xb4
 2423 0726 09       		.byte	0x9
 2424 0727 06       		.uleb128 0x6
 2425 0728 7A020000 		.4byte	.LASF121
 2426 072c 10       		.byte	0x10
 2427 072d 3B       		.byte	0x3b
 2428 072e B4000000 		.4byte	0xb4
 2429 0732 0A       		.byte	0xa
 2430 0733 06       		.uleb128 0x6
 2431 0734 45060000 		.4byte	.LASF122
 2432 0738 10       		.byte	0x10
 2433 0739 3C       		.byte	0x3c
 2434 073a B4000000 		.4byte	0xb4
 2435 073e 0B       		.byte	0xb
 2436 073f 06       		.uleb128 0x6
 2437 0740 B8030000 		.4byte	.LASF123
 2438 0744 10       		.byte	0x10
 2439 0745 3D       		.byte	0x3d
 2440 0746 B4000000 		.4byte	0xb4
 2441 074a 0C       		.byte	0xc
 2442 074b 06       		.uleb128 0x6
 2443 074c 9A070000 		.4byte	.LASF124
 2444 0750 10       		.byte	0x10
ARM GAS  /tmp/cc3GneUP.s 			page 44


 2445 0751 3E       		.byte	0x3e
 2446 0752 B4000000 		.4byte	0xb4
 2447 0756 0D       		.byte	0xd
 2448 0757 06       		.uleb128 0x6
 2449 0758 73000000 		.4byte	.LASF125
 2450 075c 10       		.byte	0x10
 2451 075d 3F       		.byte	0x3f
 2452 075e B4000000 		.4byte	0xb4
 2453 0762 0E       		.byte	0xe
 2454 0763 06       		.uleb128 0x6
 2455 0764 CA000000 		.4byte	.LASF126
 2456 0768 10       		.byte	0x10
 2457 0769 40       		.byte	0x40
 2458 076a B4000000 		.4byte	0xb4
 2459 076e 0F       		.byte	0xf
 2460 076f 06       		.uleb128 0x6
 2461 0770 C3030000 		.4byte	.LASF127
 2462 0774 10       		.byte	0x10
 2463 0775 41       		.byte	0x41
 2464 0776 B4000000 		.4byte	0xb4
 2465 077a 10       		.byte	0x10
 2466 077b 06       		.uleb128 0x6
 2467 077c A9060000 		.4byte	.LASF128
 2468 0780 10       		.byte	0x10
 2469 0781 43       		.byte	0x43
 2470 0782 B4000000 		.4byte	0xb4
 2471 0786 11       		.byte	0x11
 2472 0787 06       		.uleb128 0x6
 2473 0788 20010000 		.4byte	.LASF129
 2474 078c 10       		.byte	0x10
 2475 078d 44       		.byte	0x44
 2476 078e B4000000 		.4byte	0xb4
 2477 0792 12       		.byte	0x12
 2478 0793 06       		.uleb128 0x6
 2479 0794 22050000 		.4byte	.LASF130
 2480 0798 10       		.byte	0x10
 2481 0799 45       		.byte	0x45
 2482 079a B4000000 		.4byte	0xb4
 2483 079e 13       		.byte	0x13
 2484 079f 06       		.uleb128 0x6
 2485 07a0 96020000 		.4byte	.LASF131
 2486 07a4 10       		.byte	0x10
 2487 07a5 46       		.byte	0x46
 2488 07a6 B4000000 		.4byte	0xb4
 2489 07aa 14       		.byte	0x14
 2490 07ab 06       		.uleb128 0x6
 2491 07ac 39060000 		.4byte	.LASF132
 2492 07b0 10       		.byte	0x10
 2493 07b1 48       		.byte	0x48
 2494 07b2 B4000000 		.4byte	0xb4
 2495 07b6 15       		.byte	0x15
 2496 07b7 00       		.byte	0
 2497 07b8 15       		.uleb128 0x15
 2498 07b9 A4060000 		.4byte	0x6a4
 2499 07bd C8070000 		.4byte	0x7c8
 2500 07c1 16       		.uleb128 0x16
 2501 07c2 88040000 		.4byte	0x488
ARM GAS  /tmp/cc3GneUP.s 			page 45


 2502 07c6 03       		.byte	0x3
 2503 07c7 00       		.byte	0
 2504 07c8 03       		.uleb128 0x3
 2505 07c9 8C050000 		.4byte	.LASF133
 2506 07cd 10       		.byte	0x10
 2507 07ce 49       		.byte	0x49
 2508 07cf D7060000 		.4byte	0x6d7
 2509 07d3 0E       		.uleb128 0xe
 2510 07d4 C8070000 		.4byte	0x7c8
 2511 07d8 11       		.uleb128 0x11
 2512 07d9 E6070000 		.4byte	.LASF134
 2513 07dd 10       		.byte	0x10
 2514 07de 6E       		.byte	0x6e
 2515 07df D3070000 		.4byte	0x7d3
 2516 07e3 03       		.uleb128 0x3
 2517 07e4 F6060000 		.4byte	.LASF135
 2518 07e8 0F       		.byte	0xf
 2519 07e9 34       		.byte	0x34
 2520 07ea 62060000 		.4byte	0x662
 2521 07ee 09       		.uleb128 0x9
 2522 07ef 04       		.byte	0x4
 2523 07f0 E3070000 		.4byte	0x7e3
 2524 07f4 13       		.uleb128 0x13
 2525 07f5 28       		.byte	0x28
 2526 07f6 04       		.byte	0x4
 2527 07f7 34       		.byte	0x34
 2528 07f8 5D080000 		.4byte	0x85d
 2529 07fc 06       		.uleb128 0x6
 2530 07fd 9F060000 		.4byte	.LASF136
 2531 0801 04       		.byte	0x4
 2532 0802 35       		.byte	0x35
 2533 0803 5D080000 		.4byte	0x85d
 2534 0807 00       		.byte	0
 2535 0808 06       		.uleb128 0x6
 2536 0809 36050000 		.4byte	.LASF137
 2537 080d 04       		.byte	0x4
 2538 080e 37       		.byte	0x37
 2539 080f 5D080000 		.4byte	0x85d
 2540 0813 04       		.byte	0x4
 2541 0814 06       		.uleb128 0x6
 2542 0815 BF050000 		.4byte	.LASF138
 2543 0819 04       		.byte	0x4
 2544 081a 39       		.byte	0x39
 2545 081b 5D080000 		.4byte	0x85d
 2546 081f 08       		.byte	0x8
 2547 0820 06       		.uleb128 0x6
 2548 0821 AB020000 		.4byte	.LASF139
 2549 0825 04       		.byte	0x4
 2550 0826 3A       		.byte	0x3a
 2551 0827 5D080000 		.4byte	0x85d
 2552 082b 0C       		.byte	0xc
 2553 082c 06       		.uleb128 0x6
 2554 082d 60060000 		.4byte	.LASF140
 2555 0831 04       		.byte	0x4
 2556 0832 3B       		.byte	0x3b
 2557 0833 2D010000 		.4byte	0x12d
 2558 0837 10       		.byte	0x10
ARM GAS  /tmp/cc3GneUP.s 			page 46


 2559 0838 06       		.uleb128 0x6
 2560 0839 01010000 		.4byte	.LASF141
 2561 083d 04       		.byte	0x4
 2562 083e 3C       		.byte	0x3c
 2563 083f 63080000 		.4byte	0x863
 2564 0843 14       		.byte	0x14
 2565 0844 06       		.uleb128 0x6
 2566 0845 17060000 		.4byte	.LASF142
 2567 0849 04       		.byte	0x4
 2568 084a 3D       		.byte	0x3d
 2569 084b 7C020000 		.4byte	0x27c
 2570 084f 18       		.byte	0x18
 2571 0850 06       		.uleb128 0x6
 2572 0851 11060000 		.4byte	.LASF143
 2573 0855 04       		.byte	0x4
 2574 0856 3E       		.byte	0x3e
 2575 0857 7C020000 		.4byte	0x27c
 2576 085b 20       		.byte	0x20
 2577 085c 00       		.byte	0
 2578 085d 09       		.uleb128 0x9
 2579 085e 04       		.byte	0x4
 2580 085f 17010000 		.4byte	0x117
 2581 0863 04       		.uleb128 0x4
 2582 0864 01       		.byte	0x1
 2583 0865 02       		.byte	0x2
 2584 0866 A5020000 		.4byte	.LASF144
 2585 086a 03       		.uleb128 0x3
 2586 086b B4020000 		.4byte	.LASF145
 2587 086f 04       		.byte	0x4
 2588 0870 3F       		.byte	0x3f
 2589 0871 F4070000 		.4byte	0x7f4
 2590 0875 05       		.uleb128 0x5
 2591 0876 2B020000 		.4byte	.LASF146
 2592 087a 10       		.byte	0x10
 2593 087b 12       		.byte	0x12
 2594 087c 3B       		.byte	0x3b
 2595 087d B2080000 		.4byte	0x8b2
 2596 0881 06       		.uleb128 0x6
 2597 0882 5B060000 		.4byte	.LASF147
 2598 0886 12       		.byte	0x12
 2599 0887 3C       		.byte	0x3c
 2600 0888 99060000 		.4byte	0x699
 2601 088c 00       		.byte	0
 2602 088d 06       		.uleb128 0x6
 2603 088e 0C070000 		.4byte	.LASF148
 2604 0892 12       		.byte	0x12
 2605 0893 3D       		.byte	0x3d
 2606 0894 B8080000 		.4byte	0x8b8
 2607 0898 04       		.byte	0x4
 2608 0899 06       		.uleb128 0x6
 2609 089a 01050000 		.4byte	.LASF149
 2610 089e 12       		.byte	0x12
 2611 089f 3E       		.byte	0x3e
 2612 08a0 B8080000 		.4byte	0x8b8
 2613 08a4 08       		.byte	0x8
 2614 08a5 06       		.uleb128 0x6
 2615 08a6 B6040000 		.4byte	.LASF150
ARM GAS  /tmp/cc3GneUP.s 			page 47


 2616 08aa 12       		.byte	0x12
 2617 08ab 3F       		.byte	0x3f
 2618 08ac B8080000 		.4byte	0x8b8
 2619 08b0 0C       		.byte	0xc
 2620 08b1 00       		.byte	0
 2621 08b2 0E       		.uleb128 0xe
 2622 08b3 75080000 		.4byte	0x875
 2623 08b7 1B       		.uleb128 0x1b
 2624 08b8 09       		.uleb128 0x9
 2625 08b9 04       		.byte	0x4
 2626 08ba B7080000 		.4byte	0x8b7
 2627 08be 14       		.uleb128 0x14
 2628 08bf 9006     		.2byte	0x690
 2629 08c1 12       		.byte	0x12
 2630 08c2 44       		.byte	0x44
 2631 08c3 03090000 		.4byte	0x903
 2632 08c7 12       		.uleb128 0x12
 2633 08c8 543000   		.ascii	"T0\000"
 2634 08cb 12       		.byte	0x12
 2635 08cc 45       		.byte	0x45
 2636 08cd 03090000 		.4byte	0x903
 2637 08d1 00       		.byte	0
 2638 08d2 1C       		.uleb128 0x1c
 2639 08d3 543100   		.ascii	"T1\000"
 2640 08d6 12       		.byte	0x12
 2641 08d7 46       		.byte	0x46
 2642 08d8 03090000 		.4byte	0x903
 2643 08dc 5001     		.2byte	0x150
 2644 08de 1C       		.uleb128 0x1c
 2645 08df 543200   		.ascii	"T2\000"
 2646 08e2 12       		.byte	0x12
 2647 08e3 47       		.byte	0x47
 2648 08e4 03090000 		.4byte	0x903
 2649 08e8 A002     		.2byte	0x2a0
 2650 08ea 1C       		.uleb128 0x1c
 2651 08eb 543300   		.ascii	"T3\000"
 2652 08ee 12       		.byte	0x12
 2653 08ef 48       		.byte	0x48
 2654 08f0 03090000 		.4byte	0x903
 2655 08f4 F003     		.2byte	0x3f0
 2656 08f6 1C       		.uleb128 0x1c
 2657 08f7 543400   		.ascii	"T4\000"
 2658 08fa 12       		.byte	0x12
 2659 08fb 49       		.byte	0x49
 2660 08fc 03090000 		.4byte	0x903
 2661 0900 4005     		.2byte	0x540
 2662 0902 00       		.byte	0
 2663 0903 15       		.uleb128 0x15
 2664 0904 A5040000 		.4byte	0x4a5
 2665 0908 13090000 		.4byte	0x913
 2666 090c 16       		.uleb128 0x16
 2667 090d 88040000 		.4byte	0x488
 2668 0911 29       		.byte	0x29
 2669 0912 00       		.byte	0
 2670 0913 1D       		.uleb128 0x1d
 2671 0914 49070000 		.4byte	.LASF174
 2672 0918 9006     		.2byte	0x690
ARM GAS  /tmp/cc3GneUP.s 			page 48


 2673 091a 12       		.byte	0x12
 2674 091b 43       		.byte	0x43
 2675 091c 36090000 		.4byte	0x936
 2676 0920 1E       		.uleb128 0x1e
 2677 0921 776100   		.ascii	"wa\000"
 2678 0924 12       		.byte	0x12
 2679 0925 4A       		.byte	0x4a
 2680 0926 BE080000 		.4byte	0x8be
 2681 092a 1F       		.uleb128 0x1f
 2682 092b 6C000000 		.4byte	.LASF151
 2683 092f 12       		.byte	0x12
 2684 0930 4B       		.byte	0x4b
 2685 0931 36090000 		.4byte	0x936
 2686 0935 00       		.byte	0
 2687 0936 15       		.uleb128 0x15
 2688 0937 B4000000 		.4byte	0xb4
 2689 093b 47090000 		.4byte	0x947
 2690 093f 20       		.uleb128 0x20
 2691 0940 88040000 		.4byte	0x488
 2692 0944 8F06     		.2byte	0x68f
 2693 0946 00       		.byte	0
 2694 0947 11       		.uleb128 0x11
 2695 0948 FD010000 		.4byte	.LASF152
 2696 094c 12       		.byte	0x12
 2697 094d 4F       		.byte	0x4f
 2698 094e 63080000 		.4byte	0x863
 2699 0952 15       		.uleb128 0x15
 2700 0953 52020000 		.4byte	0x252
 2701 0957 62090000 		.4byte	0x962
 2702 095b 16       		.uleb128 0x16
 2703 095c 88040000 		.4byte	0x488
 2704 0960 04       		.byte	0x4
 2705 0961 00       		.byte	0
 2706 0962 11       		.uleb128 0x11
 2707 0963 C3060000 		.4byte	.LASF153
 2708 0967 12       		.byte	0x12
 2709 0968 A7       		.byte	0xa7
 2710 0969 52090000 		.4byte	0x952
 2711 096d 11       		.uleb128 0x11
 2712 096e D6000000 		.4byte	.LASF154
 2713 0972 12       		.byte	0x12
 2714 0973 A8       		.byte	0xa8
 2715 0974 13090000 		.4byte	0x913
 2716 0978 15       		.uleb128 0x15
 2717 0979 31030000 		.4byte	0x331
 2718 097d 83090000 		.4byte	0x983
 2719 0981 21       		.uleb128 0x21
 2720 0982 00       		.byte	0
 2721 0983 0E       		.uleb128 0xe
 2722 0984 78090000 		.4byte	0x978
 2723 0988 22       		.uleb128 0x22
 2724 0989 776100   		.ascii	"wa\000"
 2725 098c 12       		.byte	0x12
 2726 098d A9       		.byte	0xa9
 2727 098e 83090000 		.4byte	0x983
 2728 0992 11       		.uleb128 0x11
 2729 0993 0B080000 		.4byte	.LASF155
ARM GAS  /tmp/cc3GneUP.s 			page 49


 2730 0997 12       		.byte	0x12
 2731 0998 AA       		.byte	0xaa
 2732 0999 63080000 		.4byte	0x863
 2733 099d 23       		.uleb128 0x23
 2734 099e 6D623100 		.ascii	"mb1\000"
 2735 09a2 05       		.byte	0x5
 2736 09a3 3C       		.byte	0x3c
 2737 09a4 6A080000 		.4byte	0x86a
 2738 09a8 05       		.uleb128 0x5
 2739 09a9 03       		.byte	0x3
 2740 09aa 00000000 		.4byte	mb1
 2741 09ae 24       		.uleb128 0x24
 2742 09af 3F070000 		.4byte	.LASF156
 2743 09b3 05       		.byte	0x5
 2744 09b4 DE       		.byte	0xde
 2745 09b5 B2080000 		.4byte	0x8b2
 2746 09b9 05       		.uleb128 0x5
 2747 09ba 03       		.byte	0x3
 2748 09bb 00000000 		.4byte	testmbox1
 2749 09bf 15       		.uleb128 0x15
 2750 09c0 DA090000 		.4byte	0x9da
 2751 09c4 CF090000 		.4byte	0x9cf
 2752 09c8 16       		.uleb128 0x16
 2753 09c9 88040000 		.4byte	0x488
 2754 09cd 01       		.byte	0x1
 2755 09ce 00       		.byte	0
 2756 09cf 0E       		.uleb128 0xe
 2757 09d0 BF090000 		.4byte	0x9bf
 2758 09d4 09       		.uleb128 0x9
 2759 09d5 04       		.byte	0x4
 2760 09d6 B2080000 		.4byte	0x8b2
 2761 09da 0E       		.uleb128 0xe
 2762 09db D4090000 		.4byte	0x9d4
 2763 09df 24       		.uleb128 0x24
 2764 09e0 41000000 		.4byte	.LASF157
 2765 09e4 05       		.byte	0x5
 2766 09e5 EA       		.byte	0xea
 2767 09e6 CF090000 		.4byte	0x9cf
 2768 09ea 05       		.uleb128 0x5
 2769 09eb 03       		.byte	0x3
 2770 09ec 00000000 		.4byte	patternmbox
 2771 09f0 25       		.uleb128 0x25
 2772 09f1 AA030000 		.4byte	.LASF163
 2773 09f5 05       		.byte	0x5
 2774 09f6 4C       		.byte	0x4c
 2775 09f7 00000000 		.4byte	.LFB153
 2776 09fb 1C080000 		.4byte	.LFE153-.LFB153
 2777 09ff 01       		.uleb128 0x1
 2778 0a00 9C       		.byte	0x9c
 2779 0a01 2E0A0000 		.4byte	0xa2e
 2780 0a05 26       		.uleb128 0x26
 2781 0a06 12070000 		.4byte	.LASF158
 2782 0a0a 05       		.byte	0x5
 2783 0a0b 4D       		.byte	0x4d
 2784 0a0c 17010000 		.4byte	0x117
 2785 0a10 02       		.uleb128 0x2
 2786 0a11 91       		.byte	0x91
ARM GAS  /tmp/cc3GneUP.s 			page 50


 2787 0a12 70       		.sleb128 -16
 2788 0a13 26       		.uleb128 0x26
 2789 0a14 56070000 		.4byte	.LASF159
 2790 0a18 05       		.byte	0x5
 2791 0a19 4D       		.byte	0x4d
 2792 0a1a 17010000 		.4byte	0x117
 2793 0a1e 02       		.uleb128 0x2
 2794 0a1f 91       		.byte	0x91
 2795 0a20 6C       		.sleb128 -20
 2796 0a21 23       		.uleb128 0x23
 2797 0a22 6900     		.ascii	"i\000"
 2798 0a24 05       		.byte	0x5
 2799 0a25 4E       		.byte	0x4e
 2800 0a26 37000000 		.4byte	0x37
 2801 0a2a 02       		.uleb128 0x2
 2802 0a2b 91       		.byte	0x91
 2803 0a2c 74       		.sleb128 -12
 2804 0a2d 00       		.byte	0
 2805 0a2e 27       		.uleb128 0x27
 2806 0a2f D3030000 		.4byte	.LASF165
 2807 0a33 05       		.byte	0x5
 2808 0a34 47       		.byte	0x47
 2809 0a35 00000000 		.4byte	.LFB152
 2810 0a39 1C000000 		.4byte	.LFE152-.LFB152
 2811 0a3d 01       		.uleb128 0x1
 2812 0a3e 9C       		.byte	0x9c
 2813 0a3f 28       		.uleb128 0x28
 2814 0a40 CB070000 		.4byte	.LASF160
 2815 0a44 04       		.byte	0x4
 2816 0a45 A8       		.byte	0xa8
 2817 0a46 2D010000 		.4byte	0x12d
 2818 0a4a 00000000 		.4byte	.LFB137
 2819 0a4e 26000000 		.4byte	.LFE137-.LFB137
 2820 0a52 01       		.uleb128 0x1
 2821 0a53 9C       		.byte	0x9c
 2822 0a54 670A0000 		.4byte	0xa67
 2823 0a58 29       		.uleb128 0x29
 2824 0a59 6D627000 		.ascii	"mbp\000"
 2825 0a5d 04       		.byte	0x4
 2826 0a5e A8       		.byte	0xa8
 2827 0a5f 670A0000 		.4byte	0xa67
 2828 0a63 02       		.uleb128 0x2
 2829 0a64 91       		.byte	0x91
 2830 0a65 74       		.sleb128 -12
 2831 0a66 00       		.byte	0
 2832 0a67 09       		.uleb128 0x9
 2833 0a68 04       		.byte	0x4
 2834 0a69 6A080000 		.4byte	0x86a
 2835 0a6d 28       		.uleb128 0x28
 2836 0a6e 49010000 		.4byte	.LASF161
 2837 0a72 04       		.byte	0x4
 2838 0a73 99       		.byte	0x99
 2839 0a74 2D010000 		.4byte	0x12d
 2840 0a78 00000000 		.4byte	.LFB136
 2841 0a7c 14000000 		.4byte	.LFE136-.LFB136
 2842 0a80 01       		.uleb128 0x1
 2843 0a81 9C       		.byte	0x9c
ARM GAS  /tmp/cc3GneUP.s 			page 51


 2844 0a82 950A0000 		.4byte	0xa95
 2845 0a86 29       		.uleb128 0x29
 2846 0a87 6D627000 		.ascii	"mbp\000"
 2847 0a8b 04       		.byte	0x4
 2848 0a8c 99       		.byte	0x99
 2849 0a8d 670A0000 		.4byte	0xa67
 2850 0a91 02       		.uleb128 0x2
 2851 0a92 91       		.byte	0x91
 2852 0a93 74       		.sleb128 -12
 2853 0a94 00       		.byte	0
 2854 0a95 2A       		.uleb128 0x2a
 2855 0a96 7A010000 		.4byte	.LASF162
 2856 0a9a 04       		.byte	0x4
 2857 0a9b 88       		.byte	0x88
 2858 0a9c 2D010000 		.4byte	0x12d
 2859 0aa0 00000000 		.4byte	.LFB135
 2860 0aa4 18000000 		.4byte	.LFE135-.LFB135
 2861 0aa8 01       		.uleb128 0x1
 2862 0aa9 9C       		.byte	0x9c
 2863 0aaa BD0A0000 		.4byte	0xabd
 2864 0aae 29       		.uleb128 0x29
 2865 0aaf 6D627000 		.ascii	"mbp\000"
 2866 0ab3 04       		.byte	0x4
 2867 0ab4 88       		.byte	0x88
 2868 0ab5 670A0000 		.4byte	0xa67
 2869 0ab9 02       		.uleb128 0x2
 2870 0aba 91       		.byte	0x91
 2871 0abb 7C       		.sleb128 -4
 2872 0abc 00       		.byte	0
 2873 0abd 2B       		.uleb128 0x2b
 2874 0abe 1F020000 		.4byte	.LASF164
 2875 0ac2 03       		.byte	0x3
 2876 0ac3 6601     		.2byte	0x166
 2877 0ac5 00000000 		.4byte	.LFB78
 2878 0ac9 38000000 		.4byte	.LFE78-.LFB78
 2879 0acd 01       		.uleb128 0x1
 2880 0ace 9C       		.byte	0x9c
 2881 0acf E30A0000 		.4byte	0xae3
 2882 0ad3 2C       		.uleb128 0x2c
 2883 0ad4 DD070000 		.4byte	.LASF175
 2884 0ad8 F30A0000 		.4byte	0xaf3
 2885 0adc 05       		.uleb128 0x5
 2886 0add 03       		.byte	0x3
 2887 0ade 00000000 		.4byte	__func__.4993
 2888 0ae2 00       		.byte	0
 2889 0ae3 15       		.uleb128 0x15
 2890 0ae4 AB060000 		.4byte	0x6ab
 2891 0ae8 F30A0000 		.4byte	0xaf3
 2892 0aec 16       		.uleb128 0x16
 2893 0aed 88040000 		.4byte	0x488
 2894 0af1 0B       		.byte	0xb
 2895 0af2 00       		.byte	0
 2896 0af3 0E       		.uleb128 0xe
 2897 0af4 E30A0000 		.4byte	0xae3
 2898 0af8 2D       		.uleb128 0x2d
 2899 0af9 A0030000 		.4byte	.LASF166
 2900 0afd 03       		.byte	0x3
ARM GAS  /tmp/cc3GneUP.s 			page 52


 2901 0afe 5A01     		.2byte	0x15a
 2902 0b00 00000000 		.4byte	.LFB77
 2903 0b04 0E000000 		.4byte	.LFE77-.LFB77
 2904 0b08 01       		.uleb128 0x1
 2905 0b09 9C       		.byte	0x9c
 2906 0b0a 2E       		.uleb128 0x2e
 2907 0b0b F7070000 		.4byte	.LASF167
 2908 0b0f 01       		.byte	0x1
 2909 0b10 5301     		.2byte	0x153
 2910 0b12 00000000 		.4byte	.LFB39
 2911 0b16 06000000 		.4byte	.LFE39-.LFB39
 2912 0b1a 01       		.uleb128 0x1
 2913 0b1b 9C       		.byte	0x9c
 2914 0b1c 310B0000 		.4byte	0xb31
 2915 0b20 2F       		.uleb128 0x2f
 2916 0b21 610B0000 		.4byte	0xb61
 2917 0b25 00000000 		.4byte	.LBB8
 2918 0b29 02000000 		.4byte	.LBE8-.LBB8
 2919 0b2d 01       		.byte	0x1
 2920 0b2e 5501     		.2byte	0x155
 2921 0b30 00       		.byte	0
 2922 0b31 2E       		.uleb128 0x2e
 2923 0b32 E2000000 		.4byte	.LASF168
 2924 0b36 01       		.byte	0x1
 2925 0b37 4A01     		.2byte	0x14a
 2926 0b39 00000000 		.4byte	.LFB38
 2927 0b3d 06000000 		.4byte	.LFE38-.LFB38
 2928 0b41 01       		.uleb128 0x1
 2929 0b42 9C       		.byte	0x9c
 2930 0b43 580B0000 		.4byte	0xb58
 2931 0b47 2F       		.uleb128 0x2f
 2932 0b48 580B0000 		.4byte	0xb58
 2933 0b4c 00000000 		.4byte	.LBB6
 2934 0b50 02000000 		.4byte	.LBE6-.LBB6
 2935 0b54 01       		.byte	0x1
 2936 0b55 4C01     		.2byte	0x14c
 2937 0b57 00       		.byte	0
 2938 0b58 30       		.uleb128 0x30
 2939 0b59 88020000 		.4byte	.LASF169
 2940 0b5d 02       		.byte	0x2
 2941 0b5e 5601     		.2byte	0x156
 2942 0b60 03       		.byte	0x3
 2943 0b61 30       		.uleb128 0x30
 2944 0b62 FA050000 		.4byte	.LASF170
 2945 0b66 02       		.byte	0x2
 2946 0b67 4B01     		.2byte	0x14b
 2947 0b69 03       		.byte	0x3
 2948 0b6a 00       		.byte	0
 2949              		.section	.debug_abbrev,"",%progbits
 2950              	.Ldebug_abbrev0:
 2951 0000 01       		.uleb128 0x1
 2952 0001 11       		.uleb128 0x11
 2953 0002 01       		.byte	0x1
 2954 0003 25       		.uleb128 0x25
 2955 0004 0E       		.uleb128 0xe
 2956 0005 13       		.uleb128 0x13
 2957 0006 0B       		.uleb128 0xb
ARM GAS  /tmp/cc3GneUP.s 			page 53


 2958 0007 03       		.uleb128 0x3
 2959 0008 0E       		.uleb128 0xe
 2960 0009 1B       		.uleb128 0x1b
 2961 000a 0E       		.uleb128 0xe
 2962 000b 55       		.uleb128 0x55
 2963 000c 17       		.uleb128 0x17
 2964 000d 11       		.uleb128 0x11
 2965 000e 01       		.uleb128 0x1
 2966 000f 10       		.uleb128 0x10
 2967 0010 17       		.uleb128 0x17
 2968 0011 00       		.byte	0
 2969 0012 00       		.byte	0
 2970 0013 02       		.uleb128 0x2
 2971 0014 24       		.uleb128 0x24
 2972 0015 00       		.byte	0
 2973 0016 0B       		.uleb128 0xb
 2974 0017 0B       		.uleb128 0xb
 2975 0018 3E       		.uleb128 0x3e
 2976 0019 0B       		.uleb128 0xb
 2977 001a 03       		.uleb128 0x3
 2978 001b 08       		.uleb128 0x8
 2979 001c 00       		.byte	0
 2980 001d 00       		.byte	0
 2981 001e 03       		.uleb128 0x3
 2982 001f 16       		.uleb128 0x16
 2983 0020 00       		.byte	0
 2984 0021 03       		.uleb128 0x3
 2985 0022 0E       		.uleb128 0xe
 2986 0023 3A       		.uleb128 0x3a
 2987 0024 0B       		.uleb128 0xb
 2988 0025 3B       		.uleb128 0x3b
 2989 0026 0B       		.uleb128 0xb
 2990 0027 49       		.uleb128 0x49
 2991 0028 13       		.uleb128 0x13
 2992 0029 00       		.byte	0
 2993 002a 00       		.byte	0
 2994 002b 04       		.uleb128 0x4
 2995 002c 24       		.uleb128 0x24
 2996 002d 00       		.byte	0
 2997 002e 0B       		.uleb128 0xb
 2998 002f 0B       		.uleb128 0xb
 2999 0030 3E       		.uleb128 0x3e
 3000 0031 0B       		.uleb128 0xb
 3001 0032 03       		.uleb128 0x3
 3002 0033 0E       		.uleb128 0xe
 3003 0034 00       		.byte	0
 3004 0035 00       		.byte	0
 3005 0036 05       		.uleb128 0x5
 3006 0037 13       		.uleb128 0x13
 3007 0038 01       		.byte	0x1
 3008 0039 03       		.uleb128 0x3
 3009 003a 0E       		.uleb128 0xe
 3010 003b 0B       		.uleb128 0xb
 3011 003c 0B       		.uleb128 0xb
 3012 003d 3A       		.uleb128 0x3a
 3013 003e 0B       		.uleb128 0xb
 3014 003f 3B       		.uleb128 0x3b
ARM GAS  /tmp/cc3GneUP.s 			page 54


 3015 0040 0B       		.uleb128 0xb
 3016 0041 01       		.uleb128 0x1
 3017 0042 13       		.uleb128 0x13
 3018 0043 00       		.byte	0
 3019 0044 00       		.byte	0
 3020 0045 06       		.uleb128 0x6
 3021 0046 0D       		.uleb128 0xd
 3022 0047 00       		.byte	0
 3023 0048 03       		.uleb128 0x3
 3024 0049 0E       		.uleb128 0xe
 3025 004a 3A       		.uleb128 0x3a
 3026 004b 0B       		.uleb128 0xb
 3027 004c 3B       		.uleb128 0x3b
 3028 004d 0B       		.uleb128 0xb
 3029 004e 49       		.uleb128 0x49
 3030 004f 13       		.uleb128 0x13
 3031 0050 38       		.uleb128 0x38
 3032 0051 0B       		.uleb128 0xb
 3033 0052 00       		.byte	0
 3034 0053 00       		.byte	0
 3035 0054 07       		.uleb128 0x7
 3036 0055 0D       		.uleb128 0xd
 3037 0056 00       		.byte	0
 3038 0057 03       		.uleb128 0x3
 3039 0058 08       		.uleb128 0x8
 3040 0059 3A       		.uleb128 0x3a
 3041 005a 0B       		.uleb128 0xb
 3042 005b 3B       		.uleb128 0x3b
 3043 005c 05       		.uleb128 0x5
 3044 005d 49       		.uleb128 0x49
 3045 005e 13       		.uleb128 0x13
 3046 005f 38       		.uleb128 0x38
 3047 0060 0B       		.uleb128 0xb
 3048 0061 00       		.byte	0
 3049 0062 00       		.byte	0
 3050 0063 08       		.uleb128 0x8
 3051 0064 0D       		.uleb128 0xd
 3052 0065 00       		.byte	0
 3053 0066 03       		.uleb128 0x3
 3054 0067 0E       		.uleb128 0xe
 3055 0068 3A       		.uleb128 0x3a
 3056 0069 0B       		.uleb128 0xb
 3057 006a 3B       		.uleb128 0x3b
 3058 006b 05       		.uleb128 0x5
 3059 006c 49       		.uleb128 0x49
 3060 006d 13       		.uleb128 0x13
 3061 006e 38       		.uleb128 0x38
 3062 006f 0B       		.uleb128 0xb
 3063 0070 00       		.byte	0
 3064 0071 00       		.byte	0
 3065 0072 09       		.uleb128 0x9
 3066 0073 0F       		.uleb128 0xf
 3067 0074 00       		.byte	0
 3068 0075 0B       		.uleb128 0xb
 3069 0076 0B       		.uleb128 0xb
 3070 0077 49       		.uleb128 0x49
 3071 0078 13       		.uleb128 0x13
ARM GAS  /tmp/cc3GneUP.s 			page 55


 3072 0079 00       		.byte	0
 3073 007a 00       		.byte	0
 3074 007b 0A       		.uleb128 0xa
 3075 007c 13       		.uleb128 0x13
 3076 007d 01       		.byte	0x1
 3077 007e 03       		.uleb128 0x3
 3078 007f 0E       		.uleb128 0xe
 3079 0080 0B       		.uleb128 0xb
 3080 0081 0B       		.uleb128 0xb
 3081 0082 3A       		.uleb128 0x3a
 3082 0083 0B       		.uleb128 0xb
 3083 0084 3B       		.uleb128 0x3b
 3084 0085 05       		.uleb128 0x5
 3085 0086 01       		.uleb128 0x1
 3086 0087 13       		.uleb128 0x13
 3087 0088 00       		.byte	0
 3088 0089 00       		.byte	0
 3089 008a 0B       		.uleb128 0xb
 3090 008b 15       		.uleb128 0x15
 3091 008c 01       		.byte	0x1
 3092 008d 27       		.uleb128 0x27
 3093 008e 19       		.uleb128 0x19
 3094 008f 01       		.uleb128 0x1
 3095 0090 13       		.uleb128 0x13
 3096 0091 00       		.byte	0
 3097 0092 00       		.byte	0
 3098 0093 0C       		.uleb128 0xc
 3099 0094 05       		.uleb128 0x5
 3100 0095 00       		.byte	0
 3101 0096 49       		.uleb128 0x49
 3102 0097 13       		.uleb128 0x13
 3103 0098 00       		.byte	0
 3104 0099 00       		.byte	0
 3105 009a 0D       		.uleb128 0xd
 3106 009b 0F       		.uleb128 0xf
 3107 009c 00       		.byte	0
 3108 009d 0B       		.uleb128 0xb
 3109 009e 0B       		.uleb128 0xb
 3110 009f 00       		.byte	0
 3111 00a0 00       		.byte	0
 3112 00a1 0E       		.uleb128 0xe
 3113 00a2 26       		.uleb128 0x26
 3114 00a3 00       		.byte	0
 3115 00a4 49       		.uleb128 0x49
 3116 00a5 13       		.uleb128 0x13
 3117 00a6 00       		.byte	0
 3118 00a7 00       		.byte	0
 3119 00a8 0F       		.uleb128 0xf
 3120 00a9 13       		.uleb128 0x13
 3121 00aa 01       		.byte	0x1
 3122 00ab 03       		.uleb128 0x3
 3123 00ac 0E       		.uleb128 0xe
 3124 00ad 0B       		.uleb128 0xb
 3125 00ae 05       		.uleb128 0x5
 3126 00af 3A       		.uleb128 0x3a
 3127 00b0 0B       		.uleb128 0xb
 3128 00b1 3B       		.uleb128 0x3b
ARM GAS  /tmp/cc3GneUP.s 			page 56


 3129 00b2 05       		.uleb128 0x5
 3130 00b3 01       		.uleb128 0x1
 3131 00b4 13       		.uleb128 0x13
 3132 00b5 00       		.byte	0
 3133 00b6 00       		.byte	0
 3134 00b7 10       		.uleb128 0x10
 3135 00b8 0D       		.uleb128 0xd
 3136 00b9 00       		.byte	0
 3137 00ba 03       		.uleb128 0x3
 3138 00bb 0E       		.uleb128 0xe
 3139 00bc 3A       		.uleb128 0x3a
 3140 00bd 0B       		.uleb128 0xb
 3141 00be 3B       		.uleb128 0x3b
 3142 00bf 05       		.uleb128 0x5
 3143 00c0 49       		.uleb128 0x49
 3144 00c1 13       		.uleb128 0x13
 3145 00c2 38       		.uleb128 0x38
 3146 00c3 05       		.uleb128 0x5
 3147 00c4 00       		.byte	0
 3148 00c5 00       		.byte	0
 3149 00c6 11       		.uleb128 0x11
 3150 00c7 34       		.uleb128 0x34
 3151 00c8 00       		.byte	0
 3152 00c9 03       		.uleb128 0x3
 3153 00ca 0E       		.uleb128 0xe
 3154 00cb 3A       		.uleb128 0x3a
 3155 00cc 0B       		.uleb128 0xb
 3156 00cd 3B       		.uleb128 0x3b
 3157 00ce 0B       		.uleb128 0xb
 3158 00cf 49       		.uleb128 0x49
 3159 00d0 13       		.uleb128 0x13
 3160 00d1 3F       		.uleb128 0x3f
 3161 00d2 19       		.uleb128 0x19
 3162 00d3 3C       		.uleb128 0x3c
 3163 00d4 19       		.uleb128 0x19
 3164 00d5 00       		.byte	0
 3165 00d6 00       		.byte	0
 3166 00d7 12       		.uleb128 0x12
 3167 00d8 0D       		.uleb128 0xd
 3168 00d9 00       		.byte	0
 3169 00da 03       		.uleb128 0x3
 3170 00db 08       		.uleb128 0x8
 3171 00dc 3A       		.uleb128 0x3a
 3172 00dd 0B       		.uleb128 0xb
 3173 00de 3B       		.uleb128 0x3b
 3174 00df 0B       		.uleb128 0xb
 3175 00e0 49       		.uleb128 0x49
 3176 00e1 13       		.uleb128 0x13
 3177 00e2 38       		.uleb128 0x38
 3178 00e3 0B       		.uleb128 0xb
 3179 00e4 00       		.byte	0
 3180 00e5 00       		.byte	0
 3181 00e6 13       		.uleb128 0x13
 3182 00e7 13       		.uleb128 0x13
 3183 00e8 01       		.byte	0x1
 3184 00e9 0B       		.uleb128 0xb
 3185 00ea 0B       		.uleb128 0xb
ARM GAS  /tmp/cc3GneUP.s 			page 57


 3186 00eb 3A       		.uleb128 0x3a
 3187 00ec 0B       		.uleb128 0xb
 3188 00ed 3B       		.uleb128 0x3b
 3189 00ee 0B       		.uleb128 0xb
 3190 00ef 01       		.uleb128 0x1
 3191 00f0 13       		.uleb128 0x13
 3192 00f1 00       		.byte	0
 3193 00f2 00       		.byte	0
 3194 00f3 14       		.uleb128 0x14
 3195 00f4 13       		.uleb128 0x13
 3196 00f5 01       		.byte	0x1
 3197 00f6 0B       		.uleb128 0xb
 3198 00f7 05       		.uleb128 0x5
 3199 00f8 3A       		.uleb128 0x3a
 3200 00f9 0B       		.uleb128 0xb
 3201 00fa 3B       		.uleb128 0x3b
 3202 00fb 0B       		.uleb128 0xb
 3203 00fc 01       		.uleb128 0x1
 3204 00fd 13       		.uleb128 0x13
 3205 00fe 00       		.byte	0
 3206 00ff 00       		.byte	0
 3207 0100 15       		.uleb128 0x15
 3208 0101 01       		.uleb128 0x1
 3209 0102 01       		.byte	0x1
 3210 0103 49       		.uleb128 0x49
 3211 0104 13       		.uleb128 0x13
 3212 0105 01       		.uleb128 0x1
 3213 0106 13       		.uleb128 0x13
 3214 0107 00       		.byte	0
 3215 0108 00       		.byte	0
 3216 0109 16       		.uleb128 0x16
 3217 010a 21       		.uleb128 0x21
 3218 010b 00       		.byte	0
 3219 010c 49       		.uleb128 0x49
 3220 010d 13       		.uleb128 0x13
 3221 010e 2F       		.uleb128 0x2f
 3222 010f 0B       		.uleb128 0xb
 3223 0110 00       		.byte	0
 3224 0111 00       		.byte	0
 3225 0112 17       		.uleb128 0x17
 3226 0113 17       		.uleb128 0x17
 3227 0114 01       		.byte	0x1
 3228 0115 0B       		.uleb128 0xb
 3229 0116 0B       		.uleb128 0xb
 3230 0117 3A       		.uleb128 0x3a
 3231 0118 0B       		.uleb128 0xb
 3232 0119 3B       		.uleb128 0x3b
 3233 011a 0B       		.uleb128 0xb
 3234 011b 01       		.uleb128 0x1
 3235 011c 13       		.uleb128 0x13
 3236 011d 00       		.byte	0
 3237 011e 00       		.byte	0
 3238 011f 18       		.uleb128 0x18
 3239 0120 0D       		.uleb128 0xd
 3240 0121 00       		.byte	0
 3241 0122 03       		.uleb128 0x3
 3242 0123 0E       		.uleb128 0xe
ARM GAS  /tmp/cc3GneUP.s 			page 58


 3243 0124 3A       		.uleb128 0x3a
 3244 0125 0B       		.uleb128 0xb
 3245 0126 3B       		.uleb128 0x3b
 3246 0127 05       		.uleb128 0x5
 3247 0128 49       		.uleb128 0x49
 3248 0129 13       		.uleb128 0x13
 3249 012a 00       		.byte	0
 3250 012b 00       		.byte	0
 3251 012c 19       		.uleb128 0x19
 3252 012d 35       		.uleb128 0x35
 3253 012e 00       		.byte	0
 3254 012f 49       		.uleb128 0x49
 3255 0130 13       		.uleb128 0x13
 3256 0131 00       		.byte	0
 3257 0132 00       		.byte	0
 3258 0133 1A       		.uleb128 0x1a
 3259 0134 34       		.uleb128 0x34
 3260 0135 00       		.byte	0
 3261 0136 03       		.uleb128 0x3
 3262 0137 08       		.uleb128 0x8
 3263 0138 3A       		.uleb128 0x3a
 3264 0139 0B       		.uleb128 0xb
 3265 013a 3B       		.uleb128 0x3b
 3266 013b 05       		.uleb128 0x5
 3267 013c 49       		.uleb128 0x49
 3268 013d 13       		.uleb128 0x13
 3269 013e 3F       		.uleb128 0x3f
 3270 013f 19       		.uleb128 0x19
 3271 0140 3C       		.uleb128 0x3c
 3272 0141 19       		.uleb128 0x19
 3273 0142 00       		.byte	0
 3274 0143 00       		.byte	0
 3275 0144 1B       		.uleb128 0x1b
 3276 0145 15       		.uleb128 0x15
 3277 0146 00       		.byte	0
 3278 0147 27       		.uleb128 0x27
 3279 0148 19       		.uleb128 0x19
 3280 0149 00       		.byte	0
 3281 014a 00       		.byte	0
 3282 014b 1C       		.uleb128 0x1c
 3283 014c 0D       		.uleb128 0xd
 3284 014d 00       		.byte	0
 3285 014e 03       		.uleb128 0x3
 3286 014f 08       		.uleb128 0x8
 3287 0150 3A       		.uleb128 0x3a
 3288 0151 0B       		.uleb128 0xb
 3289 0152 3B       		.uleb128 0x3b
 3290 0153 0B       		.uleb128 0xb
 3291 0154 49       		.uleb128 0x49
 3292 0155 13       		.uleb128 0x13
 3293 0156 38       		.uleb128 0x38
 3294 0157 05       		.uleb128 0x5
 3295 0158 00       		.byte	0
 3296 0159 00       		.byte	0
 3297 015a 1D       		.uleb128 0x1d
 3298 015b 17       		.uleb128 0x17
 3299 015c 01       		.byte	0x1
ARM GAS  /tmp/cc3GneUP.s 			page 59


 3300 015d 03       		.uleb128 0x3
 3301 015e 0E       		.uleb128 0xe
 3302 015f 0B       		.uleb128 0xb
 3303 0160 05       		.uleb128 0x5
 3304 0161 3A       		.uleb128 0x3a
 3305 0162 0B       		.uleb128 0xb
 3306 0163 3B       		.uleb128 0x3b
 3307 0164 0B       		.uleb128 0xb
 3308 0165 01       		.uleb128 0x1
 3309 0166 13       		.uleb128 0x13
 3310 0167 00       		.byte	0
 3311 0168 00       		.byte	0
 3312 0169 1E       		.uleb128 0x1e
 3313 016a 0D       		.uleb128 0xd
 3314 016b 00       		.byte	0
 3315 016c 03       		.uleb128 0x3
 3316 016d 08       		.uleb128 0x8
 3317 016e 3A       		.uleb128 0x3a
 3318 016f 0B       		.uleb128 0xb
 3319 0170 3B       		.uleb128 0x3b
 3320 0171 0B       		.uleb128 0xb
 3321 0172 49       		.uleb128 0x49
 3322 0173 13       		.uleb128 0x13
 3323 0174 00       		.byte	0
 3324 0175 00       		.byte	0
 3325 0176 1F       		.uleb128 0x1f
 3326 0177 0D       		.uleb128 0xd
 3327 0178 00       		.byte	0
 3328 0179 03       		.uleb128 0x3
 3329 017a 0E       		.uleb128 0xe
 3330 017b 3A       		.uleb128 0x3a
 3331 017c 0B       		.uleb128 0xb
 3332 017d 3B       		.uleb128 0x3b
 3333 017e 0B       		.uleb128 0xb
 3334 017f 49       		.uleb128 0x49
 3335 0180 13       		.uleb128 0x13
 3336 0181 00       		.byte	0
 3337 0182 00       		.byte	0
 3338 0183 20       		.uleb128 0x20
 3339 0184 21       		.uleb128 0x21
 3340 0185 00       		.byte	0
 3341 0186 49       		.uleb128 0x49
 3342 0187 13       		.uleb128 0x13
 3343 0188 2F       		.uleb128 0x2f
 3344 0189 05       		.uleb128 0x5
 3345 018a 00       		.byte	0
 3346 018b 00       		.byte	0
 3347 018c 21       		.uleb128 0x21
 3348 018d 21       		.uleb128 0x21
 3349 018e 00       		.byte	0
 3350 018f 00       		.byte	0
 3351 0190 00       		.byte	0
 3352 0191 22       		.uleb128 0x22
 3353 0192 34       		.uleb128 0x34
 3354 0193 00       		.byte	0
 3355 0194 03       		.uleb128 0x3
 3356 0195 08       		.uleb128 0x8
ARM GAS  /tmp/cc3GneUP.s 			page 60


 3357 0196 3A       		.uleb128 0x3a
 3358 0197 0B       		.uleb128 0xb
 3359 0198 3B       		.uleb128 0x3b
 3360 0199 0B       		.uleb128 0xb
 3361 019a 49       		.uleb128 0x49
 3362 019b 13       		.uleb128 0x13
 3363 019c 3F       		.uleb128 0x3f
 3364 019d 19       		.uleb128 0x19
 3365 019e 3C       		.uleb128 0x3c
 3366 019f 19       		.uleb128 0x19
 3367 01a0 00       		.byte	0
 3368 01a1 00       		.byte	0
 3369 01a2 23       		.uleb128 0x23
 3370 01a3 34       		.uleb128 0x34
 3371 01a4 00       		.byte	0
 3372 01a5 03       		.uleb128 0x3
 3373 01a6 08       		.uleb128 0x8
 3374 01a7 3A       		.uleb128 0x3a
 3375 01a8 0B       		.uleb128 0xb
 3376 01a9 3B       		.uleb128 0x3b
 3377 01aa 0B       		.uleb128 0xb
 3378 01ab 49       		.uleb128 0x49
 3379 01ac 13       		.uleb128 0x13
 3380 01ad 02       		.uleb128 0x2
 3381 01ae 18       		.uleb128 0x18
 3382 01af 00       		.byte	0
 3383 01b0 00       		.byte	0
 3384 01b1 24       		.uleb128 0x24
 3385 01b2 34       		.uleb128 0x34
 3386 01b3 00       		.byte	0
 3387 01b4 03       		.uleb128 0x3
 3388 01b5 0E       		.uleb128 0xe
 3389 01b6 3A       		.uleb128 0x3a
 3390 01b7 0B       		.uleb128 0xb
 3391 01b8 3B       		.uleb128 0x3b
 3392 01b9 0B       		.uleb128 0xb
 3393 01ba 49       		.uleb128 0x49
 3394 01bb 13       		.uleb128 0x13
 3395 01bc 3F       		.uleb128 0x3f
 3396 01bd 19       		.uleb128 0x19
 3397 01be 02       		.uleb128 0x2
 3398 01bf 18       		.uleb128 0x18
 3399 01c0 00       		.byte	0
 3400 01c1 00       		.byte	0
 3401 01c2 25       		.uleb128 0x25
 3402 01c3 2E       		.uleb128 0x2e
 3403 01c4 01       		.byte	0x1
 3404 01c5 03       		.uleb128 0x3
 3405 01c6 0E       		.uleb128 0xe
 3406 01c7 3A       		.uleb128 0x3a
 3407 01c8 0B       		.uleb128 0xb
 3408 01c9 3B       		.uleb128 0x3b
 3409 01ca 0B       		.uleb128 0xb
 3410 01cb 27       		.uleb128 0x27
 3411 01cc 19       		.uleb128 0x19
 3412 01cd 11       		.uleb128 0x11
 3413 01ce 01       		.uleb128 0x1
ARM GAS  /tmp/cc3GneUP.s 			page 61


 3414 01cf 12       		.uleb128 0x12
 3415 01d0 06       		.uleb128 0x6
 3416 01d1 40       		.uleb128 0x40
 3417 01d2 18       		.uleb128 0x18
 3418 01d3 9642     		.uleb128 0x2116
 3419 01d5 19       		.uleb128 0x19
 3420 01d6 01       		.uleb128 0x1
 3421 01d7 13       		.uleb128 0x13
 3422 01d8 00       		.byte	0
 3423 01d9 00       		.byte	0
 3424 01da 26       		.uleb128 0x26
 3425 01db 34       		.uleb128 0x34
 3426 01dc 00       		.byte	0
 3427 01dd 03       		.uleb128 0x3
 3428 01de 0E       		.uleb128 0xe
 3429 01df 3A       		.uleb128 0x3a
 3430 01e0 0B       		.uleb128 0xb
 3431 01e1 3B       		.uleb128 0x3b
 3432 01e2 0B       		.uleb128 0xb
 3433 01e3 49       		.uleb128 0x49
 3434 01e4 13       		.uleb128 0x13
 3435 01e5 02       		.uleb128 0x2
 3436 01e6 18       		.uleb128 0x18
 3437 01e7 00       		.byte	0
 3438 01e8 00       		.byte	0
 3439 01e9 27       		.uleb128 0x27
 3440 01ea 2E       		.uleb128 0x2e
 3441 01eb 00       		.byte	0
 3442 01ec 03       		.uleb128 0x3
 3443 01ed 0E       		.uleb128 0xe
 3444 01ee 3A       		.uleb128 0x3a
 3445 01ef 0B       		.uleb128 0xb
 3446 01f0 3B       		.uleb128 0x3b
 3447 01f1 0B       		.uleb128 0xb
 3448 01f2 27       		.uleb128 0x27
 3449 01f3 19       		.uleb128 0x19
 3450 01f4 11       		.uleb128 0x11
 3451 01f5 01       		.uleb128 0x1
 3452 01f6 12       		.uleb128 0x12
 3453 01f7 06       		.uleb128 0x6
 3454 01f8 40       		.uleb128 0x40
 3455 01f9 18       		.uleb128 0x18
 3456 01fa 9642     		.uleb128 0x2116
 3457 01fc 19       		.uleb128 0x19
 3458 01fd 00       		.byte	0
 3459 01fe 00       		.byte	0
 3460 01ff 28       		.uleb128 0x28
 3461 0200 2E       		.uleb128 0x2e
 3462 0201 01       		.byte	0x1
 3463 0202 03       		.uleb128 0x3
 3464 0203 0E       		.uleb128 0xe
 3465 0204 3A       		.uleb128 0x3a
 3466 0205 0B       		.uleb128 0xb
 3467 0206 3B       		.uleb128 0x3b
 3468 0207 0B       		.uleb128 0xb
 3469 0208 27       		.uleb128 0x27
 3470 0209 19       		.uleb128 0x19
ARM GAS  /tmp/cc3GneUP.s 			page 62


 3471 020a 49       		.uleb128 0x49
 3472 020b 13       		.uleb128 0x13
 3473 020c 11       		.uleb128 0x11
 3474 020d 01       		.uleb128 0x1
 3475 020e 12       		.uleb128 0x12
 3476 020f 06       		.uleb128 0x6
 3477 0210 40       		.uleb128 0x40
 3478 0211 18       		.uleb128 0x18
 3479 0212 9642     		.uleb128 0x2116
 3480 0214 19       		.uleb128 0x19
 3481 0215 01       		.uleb128 0x1
 3482 0216 13       		.uleb128 0x13
 3483 0217 00       		.byte	0
 3484 0218 00       		.byte	0
 3485 0219 29       		.uleb128 0x29
 3486 021a 05       		.uleb128 0x5
 3487 021b 00       		.byte	0
 3488 021c 03       		.uleb128 0x3
 3489 021d 08       		.uleb128 0x8
 3490 021e 3A       		.uleb128 0x3a
 3491 021f 0B       		.uleb128 0xb
 3492 0220 3B       		.uleb128 0x3b
 3493 0221 0B       		.uleb128 0xb
 3494 0222 49       		.uleb128 0x49
 3495 0223 13       		.uleb128 0x13
 3496 0224 02       		.uleb128 0x2
 3497 0225 18       		.uleb128 0x18
 3498 0226 00       		.byte	0
 3499 0227 00       		.byte	0
 3500 0228 2A       		.uleb128 0x2a
 3501 0229 2E       		.uleb128 0x2e
 3502 022a 01       		.byte	0x1
 3503 022b 03       		.uleb128 0x3
 3504 022c 0E       		.uleb128 0xe
 3505 022d 3A       		.uleb128 0x3a
 3506 022e 0B       		.uleb128 0xb
 3507 022f 3B       		.uleb128 0x3b
 3508 0230 0B       		.uleb128 0xb
 3509 0231 27       		.uleb128 0x27
 3510 0232 19       		.uleb128 0x19
 3511 0233 49       		.uleb128 0x49
 3512 0234 13       		.uleb128 0x13
 3513 0235 11       		.uleb128 0x11
 3514 0236 01       		.uleb128 0x1
 3515 0237 12       		.uleb128 0x12
 3516 0238 06       		.uleb128 0x6
 3517 0239 40       		.uleb128 0x40
 3518 023a 18       		.uleb128 0x18
 3519 023b 9742     		.uleb128 0x2117
 3520 023d 19       		.uleb128 0x19
 3521 023e 01       		.uleb128 0x1
 3522 023f 13       		.uleb128 0x13
 3523 0240 00       		.byte	0
 3524 0241 00       		.byte	0
 3525 0242 2B       		.uleb128 0x2b
 3526 0243 2E       		.uleb128 0x2e
 3527 0244 01       		.byte	0x1
ARM GAS  /tmp/cc3GneUP.s 			page 63


 3528 0245 03       		.uleb128 0x3
 3529 0246 0E       		.uleb128 0xe
 3530 0247 3A       		.uleb128 0x3a
 3531 0248 0B       		.uleb128 0xb
 3532 0249 3B       		.uleb128 0x3b
 3533 024a 05       		.uleb128 0x5
 3534 024b 27       		.uleb128 0x27
 3535 024c 19       		.uleb128 0x19
 3536 024d 11       		.uleb128 0x11
 3537 024e 01       		.uleb128 0x1
 3538 024f 12       		.uleb128 0x12
 3539 0250 06       		.uleb128 0x6
 3540 0251 40       		.uleb128 0x40
 3541 0252 18       		.uleb128 0x18
 3542 0253 9642     		.uleb128 0x2116
 3543 0255 19       		.uleb128 0x19
 3544 0256 01       		.uleb128 0x1
 3545 0257 13       		.uleb128 0x13
 3546 0258 00       		.byte	0
 3547 0259 00       		.byte	0
 3548 025a 2C       		.uleb128 0x2c
 3549 025b 34       		.uleb128 0x34
 3550 025c 00       		.byte	0
 3551 025d 03       		.uleb128 0x3
 3552 025e 0E       		.uleb128 0xe
 3553 025f 49       		.uleb128 0x49
 3554 0260 13       		.uleb128 0x13
 3555 0261 34       		.uleb128 0x34
 3556 0262 19       		.uleb128 0x19
 3557 0263 02       		.uleb128 0x2
 3558 0264 18       		.uleb128 0x18
 3559 0265 00       		.byte	0
 3560 0266 00       		.byte	0
 3561 0267 2D       		.uleb128 0x2d
 3562 0268 2E       		.uleb128 0x2e
 3563 0269 00       		.byte	0
 3564 026a 03       		.uleb128 0x3
 3565 026b 0E       		.uleb128 0xe
 3566 026c 3A       		.uleb128 0x3a
 3567 026d 0B       		.uleb128 0xb
 3568 026e 3B       		.uleb128 0x3b
 3569 026f 05       		.uleb128 0x5
 3570 0270 27       		.uleb128 0x27
 3571 0271 19       		.uleb128 0x19
 3572 0272 11       		.uleb128 0x11
 3573 0273 01       		.uleb128 0x1
 3574 0274 12       		.uleb128 0x12
 3575 0275 06       		.uleb128 0x6
 3576 0276 40       		.uleb128 0x40
 3577 0277 18       		.uleb128 0x18
 3578 0278 9642     		.uleb128 0x2116
 3579 027a 19       		.uleb128 0x19
 3580 027b 00       		.byte	0
 3581 027c 00       		.byte	0
 3582 027d 2E       		.uleb128 0x2e
 3583 027e 2E       		.uleb128 0x2e
 3584 027f 01       		.byte	0x1
ARM GAS  /tmp/cc3GneUP.s 			page 64


 3585 0280 03       		.uleb128 0x3
 3586 0281 0E       		.uleb128 0xe
 3587 0282 3A       		.uleb128 0x3a
 3588 0283 0B       		.uleb128 0xb
 3589 0284 3B       		.uleb128 0x3b
 3590 0285 05       		.uleb128 0x5
 3591 0286 27       		.uleb128 0x27
 3592 0287 19       		.uleb128 0x19
 3593 0288 11       		.uleb128 0x11
 3594 0289 01       		.uleb128 0x1
 3595 028a 12       		.uleb128 0x12
 3596 028b 06       		.uleb128 0x6
 3597 028c 40       		.uleb128 0x40
 3598 028d 18       		.uleb128 0x18
 3599 028e 9742     		.uleb128 0x2117
 3600 0290 19       		.uleb128 0x19
 3601 0291 01       		.uleb128 0x1
 3602 0292 13       		.uleb128 0x13
 3603 0293 00       		.byte	0
 3604 0294 00       		.byte	0
 3605 0295 2F       		.uleb128 0x2f
 3606 0296 1D       		.uleb128 0x1d
 3607 0297 00       		.byte	0
 3608 0298 31       		.uleb128 0x31
 3609 0299 13       		.uleb128 0x13
 3610 029a 11       		.uleb128 0x11
 3611 029b 01       		.uleb128 0x1
 3612 029c 12       		.uleb128 0x12
 3613 029d 06       		.uleb128 0x6
 3614 029e 58       		.uleb128 0x58
 3615 029f 0B       		.uleb128 0xb
 3616 02a0 59       		.uleb128 0x59
 3617 02a1 05       		.uleb128 0x5
 3618 02a2 00       		.byte	0
 3619 02a3 00       		.byte	0
 3620 02a4 30       		.uleb128 0x30
 3621 02a5 2E       		.uleb128 0x2e
 3622 02a6 00       		.byte	0
 3623 02a7 03       		.uleb128 0x3
 3624 02a8 0E       		.uleb128 0xe
 3625 02a9 3A       		.uleb128 0x3a
 3626 02aa 0B       		.uleb128 0xb
 3627 02ab 3B       		.uleb128 0x3b
 3628 02ac 05       		.uleb128 0x5
 3629 02ad 27       		.uleb128 0x27
 3630 02ae 19       		.uleb128 0x19
 3631 02af 20       		.uleb128 0x20
 3632 02b0 0B       		.uleb128 0xb
 3633 02b1 00       		.byte	0
 3634 02b2 00       		.byte	0
 3635 02b3 00       		.byte	0
 3636              		.section	.debug_aranges,"",%progbits
 3637 0000 5C000000 		.4byte	0x5c
 3638 0004 0200     		.2byte	0x2
 3639 0006 00000000 		.4byte	.Ldebug_info0
 3640 000a 04       		.byte	0x4
 3641 000b 00       		.byte	0
ARM GAS  /tmp/cc3GneUP.s 			page 65


 3642 000c 0000     		.2byte	0
 3643 000e 0000     		.2byte	0
 3644 0010 00000000 		.4byte	.LFB38
 3645 0014 06000000 		.4byte	.LFE38-.LFB38
 3646 0018 00000000 		.4byte	.LFB39
 3647 001c 06000000 		.4byte	.LFE39-.LFB39
 3648 0020 00000000 		.4byte	.LFB77
 3649 0024 0E000000 		.4byte	.LFE77-.LFB77
 3650 0028 00000000 		.4byte	.LFB78
 3651 002c 38000000 		.4byte	.LFE78-.LFB78
 3652 0030 00000000 		.4byte	.LFB135
 3653 0034 18000000 		.4byte	.LFE135-.LFB135
 3654 0038 00000000 		.4byte	.LFB136
 3655 003c 14000000 		.4byte	.LFE136-.LFB136
 3656 0040 00000000 		.4byte	.LFB137
 3657 0044 26000000 		.4byte	.LFE137-.LFB137
 3658 0048 00000000 		.4byte	.LFB152
 3659 004c 1C000000 		.4byte	.LFE152-.LFB152
 3660 0050 00000000 		.4byte	.LFB153
 3661 0054 1C080000 		.4byte	.LFE153-.LFB153
 3662 0058 00000000 		.4byte	0
 3663 005c 00000000 		.4byte	0
 3664              		.section	.debug_ranges,"",%progbits
 3665              	.Ldebug_ranges0:
 3666 0000 00000000 		.4byte	.LFB38
 3667 0004 06000000 		.4byte	.LFE38
 3668 0008 00000000 		.4byte	.LFB39
 3669 000c 06000000 		.4byte	.LFE39
 3670 0010 00000000 		.4byte	.LFB77
 3671 0014 0E000000 		.4byte	.LFE77
 3672 0018 00000000 		.4byte	.LFB78
 3673 001c 38000000 		.4byte	.LFE78
 3674 0020 00000000 		.4byte	.LFB135
 3675 0024 18000000 		.4byte	.LFE135
 3676 0028 00000000 		.4byte	.LFB136
 3677 002c 14000000 		.4byte	.LFE136
 3678 0030 00000000 		.4byte	.LFB137
 3679 0034 26000000 		.4byte	.LFE137
 3680 0038 00000000 		.4byte	.LFB152
 3681 003c 1C000000 		.4byte	.LFE152
 3682 0040 00000000 		.4byte	.LFB153
 3683 0044 1C080000 		.4byte	.LFE153
 3684 0048 00000000 		.4byte	0
 3685 004c 00000000 		.4byte	0
 3686              		.section	.debug_line,"",%progbits
 3687              	.Ldebug_line0:
 3688 0000 3F050000 		.section	.debug_str,"MS",%progbits,1
 3688      0200AE02 
 3688      00000201 
 3688      FB0E0D00 
 3688      01010101 
 3689              	.LASF51:
 3690 0000 63685F74 		.ascii	"ch_threads_list\000"
 3690      68726561 
 3690      64735F6C 
 3690      69737400 
 3691              	.LASF52:
ARM GAS  /tmp/cc3GneUP.s 			page 66


 3692 0010 74687265 		.ascii	"threads_queue_t\000"
 3692      6164735F 
 3692      71756575 
 3692      655F7400 
 3693              	.LASF41:
 3694 0020 705F7761 		.ascii	"p_waiting\000"
 3694      6974696E 
 3694      6700
 3695              	.LASF114:
 3696 002a 53797374 		.ascii	"SystemCoreClock\000"
 3696      656D436F 
 3696      7265436C 
 3696      6F636B00 
 3697              	.LASF104:
 3698 003a 77746D74 		.ascii	"wtmtxp\000"
 3698      787000
 3699              	.LASF157:
 3700 0041 70617474 		.ascii	"patternmbox\000"
 3700      65726E6D 
 3700      626F7800 
 3701              	.LASF113:
 3702 004d 63686172 		.ascii	"char\000"
 3702      00
 3703              	.LASF86:
 3704 0052 72656761 		.ascii	"regarm_t\000"
 3704      726D5F74 
 3704      00
 3705              	.LASF32:
 3706 005b 705F7072 		.ascii	"p_prio\000"
 3706      696F00
 3707              	.LASF28:
 3708 0062 73797374 		.ascii	"systime_t\000"
 3708      696D655F 
 3708      7400
 3709              	.LASF151:
 3710 006c 62756666 		.ascii	"buffer\000"
 3710      657200
 3711              	.LASF125:
 3712 0073 63665F6F 		.ascii	"cf_off_older\000"
 3712      66665F6F 
 3712      6C646572 
 3712      00
 3713              	.LASF111:
 3714 0080 6D5F6F77 		.ascii	"m_owner\000"
 3714      6E657200 
 3715              	.LASF107:
 3716 0088 735F7175 		.ascii	"s_queue\000"
 3716      65756500 
 3717              	.LASF42:
 3718 0090 705F6D73 		.ascii	"p_msgqueue\000"
 3718      67717565 
 3718      756500
 3719              	.LASF0:
 3720 009b 756E7369 		.ascii	"unsigned int\000"
 3720      676E6564 
 3720      20696E74 
 3720      00
ARM GAS  /tmp/cc3GneUP.s 			page 67


 3721              	.LASF49:
 3722 00a8 74687265 		.ascii	"threads_list_t\000"
 3722      6164735F 
 3722      6C697374 
 3722      5F7400
 3723              	.LASF10:
 3724 00b7 5F5F696E 		.ascii	"__int32_t\000"
 3724      7433325F 
 3724      7400
 3725              	.LASF93:
 3726 00c1 73655F73 		.ascii	"se_state\000"
 3726      74617465 
 3726      00
 3727              	.LASF126:
 3728 00ca 63665F6F 		.ascii	"cf_off_name\000"
 3728      66665F6E 
 3728      616D6500 
 3729              	.LASF154:
 3730 00d6 74657374 		.ascii	"test\000"
 3730      00
 3731              	.LASF101:
 3732 00db 77746F62 		.ascii	"wtobjp\000"
 3732      6A7000
 3733              	.LASF168:
 3734 00e2 706F7274 		.ascii	"port_lock\000"
 3734      5F6C6F63 
 3734      6B00
 3735              	.LASF82:
 3736 00ec 76746C69 		.ascii	"vtlist\000"
 3736      737400
 3737              	.LASF55:
 3738 00f3 63685F72 		.ascii	"ch_ready_list\000"
 3738      65616479 
 3738      5F6C6973 
 3738      7400
 3739              	.LASF141:
 3740 0101 6D625F72 		.ascii	"mb_reset\000"
 3740      65736574 
 3740      00
 3741              	.LASF84:
 3742 010a 69646C65 		.ascii	"idle_thread_wa\000"
 3742      5F746872 
 3742      6561645F 
 3742      776100
 3743              	.LASF105:
 3744 0119 65776D61 		.ascii	"ewmask\000"
 3744      736B00
 3745              	.LASF129:
 3746 0120 63665F6F 		.ascii	"cf_off_flags\000"
 3746      66665F66 
 3746      6C616773 
 3746      00
 3747              	.LASF53:
 3748 012d 63685F74 		.ascii	"ch_threads_queue\000"
 3748      68726561 
 3748      64735F71 
 3748      75657565 
ARM GAS  /tmp/cc3GneUP.s 			page 68


 3748      00
 3749              	.LASF119:
 3750 013e 63685F70 		.ascii	"ch_ptrsize\000"
 3750      74727369 
 3750      7A6500
 3751              	.LASF161:
 3752 0149 63684D42 		.ascii	"chMBGetUsedCountI\000"
 3752      47657455 
 3752      73656443 
 3752      6F756E74 
 3752      4900
 3753              	.LASF62:
 3754 015b 76746675 		.ascii	"vtfunc_t\000"
 3754      6E635F74 
 3754      00
 3755              	.LASF108:
 3756 0164 735F636E 		.ascii	"s_cnt\000"
 3756      7400
 3757              	.LASF74:
 3758 016a 63685F73 		.ascii	"ch_system_debug\000"
 3758      79737465 
 3758      6D5F6465 
 3758      62756700 
 3759              	.LASF162:
 3760 017a 63684D42 		.ascii	"chMBGetSizeI\000"
 3760      47657453 
 3760      697A6549 
 3760      00
 3761              	.LASF19:
 3762 0187 75696E74 		.ascii	"uint32_t\000"
 3762      33325F74 
 3762      00
 3763              	.LASF120:
 3764 0190 63685F74 		.ascii	"ch_timesize\000"
 3764      696D6573 
 3764      697A6500 
 3765              	.LASF26:
 3766 019c 6576656E 		.ascii	"eventmask_t\000"
 3766      746D6173 
 3766      6B5F7400 
 3767              	.LASF57:
 3768 01a8 725F7072 		.ascii	"r_prio\000"
 3768      696F00
 3769              	.LASF69:
 3770 01af 76745F70 		.ascii	"vt_par\000"
 3770      617200
 3771              	.LASF106:
 3772 01b6 63685F73 		.ascii	"ch_semaphore\000"
 3772      656D6170 
 3772      686F7265 
 3772      00
 3773              	.LASF24:
 3774 01c3 74707269 		.ascii	"tprio_t\000"
 3774      6F5F7400 
 3775              	.LASF64:
 3776 01cb 63685F76 		.ascii	"ch_virtual_timer\000"
 3776      69727475 
ARM GAS  /tmp/cc3GneUP.s 			page 69


 3776      616C5F74 
 3776      696D6572 
 3776      00
 3777              	.LASF15:
 3778 01dc 6C6F6E67 		.ascii	"long long unsigned int\000"
 3778      206C6F6E 
 3778      6720756E 
 3778      7369676E 
 3778      65642069 
 3779              	.LASF92:
 3780 01f3 73655F77 		.ascii	"se_wtobjp\000"
 3780      746F626A 
 3780      7000
 3781              	.LASF152:
 3782 01fd 74657374 		.ascii	"test_global_fail\000"
 3782      5F676C6F 
 3782      62616C5F 
 3782      6661696C 
 3782      00
 3783              	.LASF8:
 3784 020e 5F5F7569 		.ascii	"__uint16_t\000"
 3784      6E743136 
 3784      5F7400
 3785              	.LASF27:
 3786 0219 636E745F 		.ascii	"cnt_t\000"
 3786      7400
 3787              	.LASF164:
 3788 021f 63685379 		.ascii	"chSysUnlock\000"
 3788      73556E6C 
 3788      6F636B00 
 3789              	.LASF146:
 3790 022b 74657374 		.ascii	"testcase\000"
 3790      63617365 
 3790      00
 3791              	.LASF76:
 3792 0234 6973725F 		.ascii	"isr_cnt\000"
 3792      636E7400 
 3793              	.LASF34:
 3794 023c 705F6E65 		.ascii	"p_newer\000"
 3794      77657200 
 3795              	.LASF71:
 3796 0244 63685F76 		.ascii	"ch_virtual_timers_list\000"
 3796      69727475 
 3796      616C5F74 
 3796      696D6572 
 3796      735F6C69 
 3797              	.LASF90:
 3798 025b 73655F74 		.ascii	"se_time\000"
 3798      696D6500 
 3799              	.LASF29:
 3800 0263 74687265 		.ascii	"thread_t\000"
 3800      61645F74 
 3800      00
 3801              	.LASF4:
 3802 026c 73697A65 		.ascii	"size_t\000"
 3802      5F7400
 3803              	.LASF99:
ARM GAS  /tmp/cc3GneUP.s 			page 70


 3804 0273 7264796D 		.ascii	"rdymsg\000"
 3804      736700
 3805              	.LASF121:
 3806 027a 63685F74 		.ascii	"ch_threadsize\000"
 3806      68726561 
 3806      6473697A 
 3806      6500
 3807              	.LASF169:
 3808 0288 5F5F6469 		.ascii	"__disable_irq\000"
 3808      7361626C 
 3808      655F6972 
 3808      7100
 3809              	.LASF131:
 3810 0296 63665F6F 		.ascii	"cf_off_preempt\000"
 3810      66665F70 
 3810      7265656D 
 3810      707400
 3811              	.LASF144:
 3812 02a5 5F426F6F 		.ascii	"_Bool\000"
 3812      6C00
 3813              	.LASF139:
 3814 02ab 6D625F72 		.ascii	"mb_rdptr\000"
 3814      64707472 
 3814      00
 3815              	.LASF145:
 3816 02b4 6D61696C 		.ascii	"mailbox_t\000"
 3816      626F785F 
 3816      7400
 3817              	.LASF171:
 3818 02be 474E5520 		.ascii	"GNU C11 6.3.1 20170215 (release) [ARM/embedded-6-br"
 3818      43313120 
 3818      362E332E 
 3818      31203230 
 3818      31373032 
 3819 02f1 616E6368 		.ascii	"anch revision 245512] -mcpu=cortex-m0 -mno-thumb-in"
 3819      20726576 
 3819      6973696F 
 3819      6E203234 
 3819      35353132 
 3820 0324 74657277 		.ascii	"terwork -mthumb -ggdb -O0 -fomit-frame-pointer -fal"
 3820      6F726B20 
 3820      2D6D7468 
 3820      756D6220 
 3820      2D676764 
 3821 0357 69676E2D 		.ascii	"ign-functions=16 -ffunction-sections -fdata-section"
 3821      66756E63 
 3821      74696F6E 
 3821      733D3136 
 3821      202D6666 
 3822 038a 7300     		.ascii	"s\000"
 3823              	.LASF109:
 3824 038c 63685F6D 		.ascii	"ch_mutex\000"
 3824      75746578 
 3824      00
 3825              	.LASF14:
 3826 0395 5F5F7569 		.ascii	"__uint64_t\000"
 3826      6E743634 
ARM GAS  /tmp/cc3GneUP.s 			page 71


 3826      5F7400
 3827              	.LASF166:
 3828 03a0 63685379 		.ascii	"chSysLock\000"
 3828      734C6F63 
 3828      6B00
 3829              	.LASF163:
 3830 03aa 6D626F78 		.ascii	"mbox1_execute\000"
 3830      315F6578 
 3830      65637574 
 3830      6500
 3831              	.LASF123:
 3832 03b8 63665F6F 		.ascii	"cf_off_ctx\000"
 3832      66665F63 
 3832      747800
 3833              	.LASF127:
 3834 03c3 63665F6F 		.ascii	"cf_off_stklimit\000"
 3834      66665F73 
 3834      746B6C69 
 3834      6D697400 
 3835              	.LASF165:
 3836 03d3 6D626F78 		.ascii	"mbox1_setup\000"
 3836      315F7365 
 3836      74757000 
 3837              	.LASF36:
 3838 03df 705F6E61 		.ascii	"p_name\000"
 3838      6D6500
 3839              	.LASF172:
 3840 03e6 43686962 		.ascii	"ChibiOS/test/rt/testmbox.c\000"
 3840      694F532F 
 3840      74657374 
 3840      2F72742F 
 3840      74657374 
 3841              	.LASF67:
 3842 0401 76745F64 		.ascii	"vt_delta\000"
 3842      656C7461 
 3842      00
 3843              	.LASF173:
 3844 040a 2F686F6D 		.ascii	"/home/felix/Desktop/workspace/esho/UltrasonicCortex"
 3844      652F6665 
 3844      6C69782F 
 3844      4465736B 
 3844      746F702F 
 3845 043d 2F00     		.ascii	"/\000"
 3846              	.LASF48:
 3847 043f 74687265 		.ascii	"thread_reference_t\000"
 3847      61645F72 
 3847      65666572 
 3847      656E6365 
 3847      5F7400
 3848              	.LASF72:
 3849 0452 76745F6C 		.ascii	"vt_lasttime\000"
 3849      61737474 
 3849      696D6500 
 3850              	.LASF22:
 3851 045e 74737461 		.ascii	"tstate_t\000"
 3851      74655F74 
 3851      00
ARM GAS  /tmp/cc3GneUP.s 			page 72


 3852              	.LASF91:
 3853 0467 73655F74 		.ascii	"se_tp\000"
 3853      7000
 3854              	.LASF35:
 3855 046d 705F6F6C 		.ascii	"p_older\000"
 3855      64657200 
 3856              	.LASF38:
 3857 0475 705F7374 		.ascii	"p_state\000"
 3857      61746500 
 3858              	.LASF37:
 3859 047d 705F7374 		.ascii	"p_stklimit\000"
 3859      6B6C696D 
 3859      697400
 3860              	.LASF16:
 3861 0488 75696E74 		.ascii	"uint8_t\000"
 3861      385F7400 
 3862              	.LASF97:
 3863 0490 74625F62 		.ascii	"tb_buffer\000"
 3863      75666665 
 3863      7200
 3864              	.LASF47:
 3865 049a 705F6D70 		.ascii	"p_mpool\000"
 3865      6F6F6C00 
 3866              	.LASF45:
 3867 04a2 705F6D74 		.ascii	"p_mtxlist\000"
 3867      786C6973 
 3867      7400
 3868              	.LASF50:
 3869 04ac 63685F74 		.ascii	"ch_thread\000"
 3869      68726561 
 3869      6400
 3870              	.LASF150:
 3871 04b6 65786563 		.ascii	"execute\000"
 3871      75746500 
 3872              	.LASF95:
 3873 04be 74625F73 		.ascii	"tb_size\000"
 3873      697A6500 
 3874              	.LASF73:
 3875 04c6 73797374 		.ascii	"system_debug_t\000"
 3875      656D5F64 
 3875      65627567 
 3875      5F7400
 3876              	.LASF1:
 3877 04d5 6C6F6E67 		.ascii	"long long int\000"
 3877      206C6F6E 
 3877      6720696E 
 3877      7400
 3878              	.LASF56:
 3879 04e3 725F7175 		.ascii	"r_queue\000"
 3879      65756500 
 3880              	.LASF59:
 3881 04eb 725F6E65 		.ascii	"r_newer\000"
 3881      77657200 
 3882              	.LASF25:
 3883 04f3 6D73675F 		.ascii	"msg_t\000"
 3883      7400
 3884              	.LASF88:
ARM GAS  /tmp/cc3GneUP.s 			page 73


 3885 04f9 636F6E74 		.ascii	"context\000"
 3885      65787400 
 3886              	.LASF149:
 3887 0501 74656172 		.ascii	"teardown\000"
 3887      646F776E 
 3887      00
 3888              	.LASF39:
 3889 050a 705F666C 		.ascii	"p_flags\000"
 3889      61677300 
 3890              	.LASF63:
 3891 0512 76697274 		.ascii	"virtual_timer_t\000"
 3891      75616C5F 
 3891      74696D65 
 3891      725F7400 
 3892              	.LASF130:
 3893 0522 63665F6F 		.ascii	"cf_off_refs\000"
 3893      66665F72 
 3893      65667300 
 3894              	.LASF116:
 3895 052e 63685F7A 		.ascii	"ch_zero\000"
 3895      65726F00 
 3896              	.LASF137:
 3897 0536 6D625F74 		.ascii	"mb_top\000"
 3897      6F7000
 3898              	.LASF96:
 3899 053d 74625F70 		.ascii	"tb_ptr\000"
 3899      747200
 3900              	.LASF60:
 3901 0544 725F6F6C 		.ascii	"r_older\000"
 3901      64657200 
 3902              	.LASF75:
 3903 054c 70616E69 		.ascii	"panic_msg\000"
 3903      635F6D73 
 3903      6700
 3904              	.LASF43:
 3905 0556 705F6D73 		.ascii	"p_msg\000"
 3905      6700
 3906              	.LASF21:
 3907 055c 746D6F64 		.ascii	"tmode_t\000"
 3907      655F7400 
 3908              	.LASF117:
 3909 0564 63685F73 		.ascii	"ch_size\000"
 3909      697A6500 
 3910              	.LASF83:
 3911 056c 6D61696E 		.ascii	"mainthread\000"
 3911      74687265 
 3911      616400
 3912              	.LASF2:
 3913 0577 6C6F6E67 		.ascii	"long double\000"
 3913      20646F75 
 3913      626C6500 
 3914              	.LASF17:
 3915 0583 75696E74 		.ascii	"uint16_t\000"
 3915      31365F74 
 3915      00
 3916              	.LASF133:
 3917 058c 63686465 		.ascii	"chdebug_t\000"
ARM GAS  /tmp/cc3GneUP.s 			page 74


 3917      6275675F 
 3917      7400
 3918              	.LASF77:
 3919 0596 6C6F636B 		.ascii	"lock_cnt\000"
 3919      5F636E74 
 3919      00
 3920              	.LASF46:
 3921 059f 705F7265 		.ascii	"p_realprio\000"
 3921      616C7072 
 3921      696F00
 3922              	.LASF118:
 3923 05aa 63685F76 		.ascii	"ch_version\000"
 3923      65727369 
 3923      6F6E00
 3924              	.LASF7:
 3925 05b5 73686F72 		.ascii	"short int\000"
 3925      7420696E 
 3925      7400
 3926              	.LASF138:
 3927 05bf 6D625F77 		.ascii	"mb_wrptr\000"
 3927      72707472 
 3927      00
 3928              	.LASF61:
 3929 05c8 725F6375 		.ascii	"r_current\000"
 3929      7272656E 
 3929      7400
 3930              	.LASF44:
 3931 05d2 705F6570 		.ascii	"p_epending\000"
 3931      656E6469 
 3931      6E6700
 3932              	.LASF110:
 3933 05dd 6D5F7175 		.ascii	"m_queue\000"
 3933      65756500 
 3934              	.LASF11:
 3935 05e5 6C6F6E67 		.ascii	"long int\000"
 3935      20696E74 
 3935      00
 3936              	.LASF89:
 3937 05ee 706F7274 		.ascii	"port_intctx\000"
 3937      5F696E74 
 3937      63747800 
 3938              	.LASF170:
 3939 05fa 5F5F656E 		.ascii	"__enable_irq\000"
 3939      61626C65 
 3939      5F697271 
 3939      00
 3940              	.LASF80:
 3941 0607 63685F73 		.ascii	"ch_system\000"
 3941      79737465 
 3941      6D00
 3942              	.LASF143:
 3943 0611 6D625F71 		.ascii	"mb_qr\000"
 3943      7200
 3944              	.LASF142:
 3945 0617 6D625F71 		.ascii	"mb_qw\000"
 3945      7700
 3946              	.LASF30:
ARM GAS  /tmp/cc3GneUP.s 			page 75


 3947 061d 705F6E65 		.ascii	"p_next\000"
 3947      787400
 3948              	.LASF20:
 3949 0624 75696E74 		.ascii	"uint64_t\000"
 3949      36345F74 
 3949      00
 3950              	.LASF33:
 3951 062d 705F6374 		.ascii	"p_ctx\000"
 3951      7800
 3952              	.LASF81:
 3953 0633 726C6973 		.ascii	"rlist\000"
 3953      7400
 3954              	.LASF132:
 3955 0639 63665F6F 		.ascii	"cf_off_time\000"
 3955      66665F74 
 3955      696D6500 
 3956              	.LASF122:
 3957 0645 63665F6F 		.ascii	"cf_off_prio\000"
 3957      66665F70 
 3957      72696F00 
 3958              	.LASF5:
 3959 0651 5F5F7569 		.ascii	"__uint8_t\000"
 3959      6E74385F 
 3959      7400
 3960              	.LASF147:
 3961 065b 6E616D65 		.ascii	"name\000"
 3961      00
 3962              	.LASF140:
 3963 0660 6D625F63 		.ascii	"mb_cnt\000"
 3963      6E7400
 3964              	.LASF115:
 3965 0667 63685F69 		.ascii	"ch_identifier\000"
 3965      64656E74 
 3965      69666965 
 3965      7200
 3966              	.LASF31:
 3967 0675 705F7072 		.ascii	"p_prev\000"
 3967      657600
 3968              	.LASF85:
 3969 067c 73697A65 		.ascii	"sizetype\000"
 3969      74797065 
 3969      00
 3970              	.LASF23:
 3971 0685 74726566 		.ascii	"trefs_t\000"
 3971      735F7400 
 3972              	.LASF13:
 3973 068d 6C6F6E67 		.ascii	"long unsigned int\000"
 3973      20756E73 
 3973      69676E65 
 3973      6420696E 
 3973      7400
 3974              	.LASF136:
 3975 069f 6D625F62 		.ascii	"mb_buffer\000"
 3975      75666665 
 3975      7200
 3976              	.LASF128:
 3977 06a9 63665F6F 		.ascii	"cf_off_state\000"
ARM GAS  /tmp/cc3GneUP.s 			page 76


 3977      66665F73 
 3977      74617465 
 3977      00
 3978              	.LASF54:
 3979 06b6 72656164 		.ascii	"ready_list_t\000"
 3979      795F6C69 
 3979      73745F74 
 3979      00
 3980              	.LASF153:
 3981 06c3 74687265 		.ascii	"threads\000"
 3981      61647300 
 3982              	.LASF18:
 3983 06cb 696E7433 		.ascii	"int32_t\000"
 3983      325F7400 
 3984              	.LASF78:
 3985 06d3 74726163 		.ascii	"trace_buffer\000"
 3985      655F6275 
 3985      66666572 
 3985      00
 3986              	.LASF103:
 3987 06e0 77747365 		.ascii	"wtsemp\000"
 3987      6D7000
 3988              	.LASF94:
 3989 06e7 63685F73 		.ascii	"ch_swc_event_t\000"
 3989      77635F65 
 3989      76656E74 
 3989      5F7400
 3990              	.LASF135:
 3991 06f6 6D757465 		.ascii	"mutex_t\000"
 3991      785F7400 
 3992              	.LASF6:
 3993 06fe 756E7369 		.ascii	"unsigned char\000"
 3993      676E6564 
 3993      20636861 
 3993      7200
 3994              	.LASF148:
 3995 070c 73657475 		.ascii	"setup\000"
 3995      7000
 3996              	.LASF158:
 3997 0712 6D736731 		.ascii	"msg1\000"
 3997      00
 3998              	.LASF12:
 3999 0717 5F5F7569 		.ascii	"__uint32_t\000"
 3999      6E743332 
 3999      5F7400
 4000              	.LASF70:
 4001 0722 76697274 		.ascii	"virtual_timers_list_t\000"
 4001      75616C5F 
 4001      74696D65 
 4001      72735F6C 
 4001      6973745F 
 4002              	.LASF40:
 4003 0738 705F7265 		.ascii	"p_refs\000"
 4003      667300
 4004              	.LASF156:
 4005 073f 74657374 		.ascii	"testmbox1\000"
 4005      6D626F78 
ARM GAS  /tmp/cc3GneUP.s 			page 77


 4005      3100
 4006              	.LASF174:
 4007 0749 74657374 		.ascii	"test_buffers\000"
 4007      5F627566 
 4007      66657273 
 4007      00
 4008              	.LASF159:
 4009 0756 6D736732 		.ascii	"msg2\000"
 4009      00
 4010              	.LASF65:
 4011 075b 76745F6E 		.ascii	"vt_next\000"
 4011      65787400 
 4012              	.LASF79:
 4013 0763 63685F73 		.ascii	"ch_system_t\000"
 4013      79737465 
 4013      6D5F7400 
 4014              	.LASF102:
 4015 076f 77747472 		.ascii	"wttrp\000"
 4015      7000
 4016              	.LASF98:
 4017 0775 63685F74 		.ascii	"ch_trace_buffer_t\000"
 4017      72616365 
 4017      5F627566 
 4017      6665725F 
 4017      7400
 4018              	.LASF112:
 4019 0787 6D5F6E65 		.ascii	"m_next\000"
 4019      787400
 4020              	.LASF3:
 4021 078e 7369676E 		.ascii	"signed char\000"
 4021      65642063 
 4021      68617200 
 4022              	.LASF124:
 4023 079a 63665F6F 		.ascii	"cf_off_newer\000"
 4023      66665F6E 
 4023      65776572 
 4023      00
 4024              	.LASF9:
 4025 07a7 73686F72 		.ascii	"short unsigned int\000"
 4025      7420756E 
 4025      7369676E 
 4025      65642069 
 4025      6E7400
 4026              	.LASF58:
 4027 07ba 725F6374 		.ascii	"r_ctx\000"
 4027      7800
 4028              	.LASF87:
 4029 07c0 73746B61 		.ascii	"stkalign_t\000"
 4029      6C69676E 
 4029      5F7400
 4030              	.LASF160:
 4031 07cb 63684D42 		.ascii	"chMBGetFreeCountI\000"
 4031      47657446 
 4031      72656543 
 4031      6F756E74 
 4031      4900
 4032              	.LASF175:
ARM GAS  /tmp/cc3GneUP.s 			page 78


 4033 07dd 5F5F6675 		.ascii	"__func__\000"
 4033      6E635F5F 
 4033      00
 4034              	.LASF134:
 4035 07e6 63685F64 		.ascii	"ch_debug\000"
 4035      65627567 
 4035      00
 4036              	.LASF68:
 4037 07ef 76745F66 		.ascii	"vt_func\000"
 4037      756E6300 
 4038              	.LASF167:
 4039 07f7 706F7274 		.ascii	"port_unlock\000"
 4039      5F756E6C 
 4039      6F636B00 
 4040              	.LASF66:
 4041 0803 76745F70 		.ascii	"vt_prev\000"
 4041      72657600 
 4042              	.LASF155:
 4043 080b 74657374 		.ascii	"test_timer_done\000"
 4043      5F74696D 
 4043      65725F64 
 4043      6F6E6500 
 4044              	.LASF100:
 4045 081b 65786974 		.ascii	"exitcode\000"
 4045      636F6465 
 4045      00
 4046              		.ident	"GCC: (GNU Tools for ARM Embedded Processors 6-2017-q1-update) 6.3.1 20170215 (release) [AR
ARM GAS  /tmp/cc3GneUP.s 			page 79


DEFINED SYMBOLS
                            *ABS*:0000000000000000 testmbox.c
     /tmp/cc3GneUP.s:16     .text.port_lock:0000000000000000 $t
     /tmp/cc3GneUP.s:23     .text.port_lock:0000000000000000 port_lock
     /tmp/cc3GneUP.s:51     .text.port_unlock:0000000000000000 $t
     /tmp/cc3GneUP.s:58     .text.port_unlock:0000000000000000 port_unlock
     /tmp/cc3GneUP.s:84     .text.chSysLock:0000000000000000 $t
     /tmp/cc3GneUP.s:91     .text.chSysLock:0000000000000000 chSysLock
     /tmp/cc3GneUP.s:114    .text.chSysUnlock:0000000000000000 $t
     /tmp/cc3GneUP.s:121    .text.chSysUnlock:0000000000000000 chSysUnlock
     /tmp/cc3GneUP.s:162    .text.chSysUnlock:0000000000000030 $d
     /tmp/cc3GneUP.s:1523   .rodata.__func__.4993:0000000000000000 __func__.4993
     /tmp/cc3GneUP.s:168    .text.chMBGetSizeI:0000000000000000 $t
     /tmp/cc3GneUP.s:175    .text.chMBGetSizeI:0000000000000000 chMBGetSizeI
     /tmp/cc3GneUP.s:203    .text.chMBGetUsedCountI:0000000000000000 $t
     /tmp/cc3GneUP.s:210    .text.chMBGetUsedCountI:0000000000000000 chMBGetUsedCountI
     /tmp/cc3GneUP.s:236    .text.chMBGetFreeCountI:0000000000000000 $t
     /tmp/cc3GneUP.s:243    .text.chMBGetFreeCountI:0000000000000000 chMBGetFreeCountI
     /tmp/cc3GneUP.s:277    .data.mb1:0000000000000000 $d
     /tmp/cc3GneUP.s:280    .data.mb1:0000000000000000 mb1
     /tmp/cc3GneUP.s:293    .text.mbox1_setup:0000000000000000 $t
     /tmp/cc3GneUP.s:300    .text.mbox1_setup:0000000000000000 mbox1_setup
     /tmp/cc3GneUP.s:324    .text.mbox1_setup:0000000000000014 $d
     /tmp/cc3GneUP.s:330    .rodata:0000000000000000 $d
     /tmp/cc3GneUP.s:334    .text.mbox1_execute:0000000000000000 $t
     /tmp/cc3GneUP.s:341    .text.mbox1_execute:0000000000000000 mbox1_execute
     /tmp/cc3GneUP.s:811    .text.mbox1_execute:0000000000000378 $d
     /tmp/cc3GneUP.s:816    .text.mbox1_execute:0000000000000384 $t
     /tmp/cc3GneUP.s:1290   .text.mbox1_execute:0000000000000708 $d
     /tmp/cc3GneUP.s:1294   .text.mbox1_execute:0000000000000710 $t
     /tmp/cc3GneUP.s:1493   .text.mbox1_execute:0000000000000818 $d
     /tmp/cc3GneUP.s:1506   .rodata.testmbox1:0000000000000000 testmbox1
     /tmp/cc3GneUP.s:1503   .rodata.testmbox1:0000000000000000 $d
     /tmp/cc3GneUP.s:1516   .rodata.patternmbox:0000000000000000 patternmbox
     /tmp/cc3GneUP.s:1513   .rodata.patternmbox:0000000000000000 $d
     /tmp/cc3GneUP.s:1520   .rodata.__func__.4993:0000000000000000 $d
                     .debug_frame:0000000000000010 $d

UNDEFINED SYMBOLS
_dbg_check_lock
_dbg_check_unlock
chSysHalt
ch
chDbgCheckClassI
test
chMBObjectInit
_test_assert
chMBPost
chMBPostAhead
chMBPostI
chMBPostAheadI
chMBFetch
test_emit_token
_test_assert_sequence
chMBFetchI
chMBReset
