ARM GAS  /tmp/cci2tF7b.s 			page 1


   1              		.cpu cortex-m0
   2              		.eabi_attribute 20, 1
   3              		.eabi_attribute 21, 1
   4              		.eabi_attribute 23, 3
   5              		.eabi_attribute 24, 1
   6              		.eabi_attribute 25, 1
   7              		.eabi_attribute 26, 1
   8              		.eabi_attribute 30, 6
   9              		.eabi_attribute 34, 0
  10              		.eabi_attribute 18, 4
  11              		.file	"testpools.c"
  12              		.text
  13              	.Ltext0:
  14              		.cfi_sections	.debug_frame
  15              		.section	.data.mp1,"aw",%progbits
  16              		.align	2
  17              		.type	mp1, %object
  18              		.size	mp1, 12
  19              	mp1:
  20 0000 00000000 		.word	0
  21 0004 50010000 		.word	336
  22 0008 00000000 		.word	0
  23              		.section	.text.null_provider,"ax",%progbits
  24              		.align	1
  25              		.p2align 4,,15
  26              		.syntax unified
  27              		.code	16
  28              		.thumb_func
  29              		.fpu softvfp
  30              		.type	null_provider, %function
  31              	null_provider:
  32              	.LFB152:
  33              		.file 1 "ChibiOS/test/rt/testpools.c"
  34              		.loc 1 60 0
  35              		.cfi_startproc
  36              		@ args = 0, pretend = 0, frame = 8
  37              		@ frame_needed = 0, uses_anonymous_args = 0
  38              		@ link register save eliminated.
  39 0000 82B0     		sub	sp, sp, #8
  40              		.cfi_def_cfa_offset 8
  41 0002 0190     		str	r0, [sp, #4]
  42              		.loc 1 63 0
  43 0004 0023     		movs	r3, #0
  44              		.loc 1 64 0
  45 0006 1800     		movs	r0, r3
  46 0008 02B0     		add	sp, sp, #8
  47              		@ sp needed
  48 000a 7047     		bx	lr
  49              		.cfi_endproc
  50              	.LFE152:
  51              		.size	null_provider, .-null_provider
  52              		.section	.text.pools1_setup,"ax",%progbits
  53              		.align	1
  54              		.p2align 4,,15
  55              		.syntax unified
  56              		.code	16
  57              		.thumb_func
ARM GAS  /tmp/cci2tF7b.s 			page 2


  58              		.fpu softvfp
  59              		.type	pools1_setup, %function
  60              	pools1_setup:
  61              	.LFB153:
  62              		.loc 1 66 0
  63              		.cfi_startproc
  64              		@ args = 0, pretend = 0, frame = 0
  65              		@ frame_needed = 0, uses_anonymous_args = 0
  66 0000 10B5     		push	{r4, lr}
  67              		.cfi_def_cfa_offset 8
  68              		.cfi_offset 4, -8
  69              		.cfi_offset 14, -4
  70              		.loc 1 68 0
  71 0002 A823     		movs	r3, #168
  72 0004 5900     		lsls	r1, r3, #1
  73 0006 034B     		ldr	r3, .L4
  74 0008 0022     		movs	r2, #0
  75 000a 1800     		movs	r0, r3
  76 000c FFF7FEFF 		bl	chPoolObjectInit
  77              		.loc 1 69 0
  78 0010 C046     		nop
  79              		@ sp needed
  80 0012 10BD     		pop	{r4, pc}
  81              	.L5:
  82              		.align	2
  83              	.L4:
  84 0014 00000000 		.word	mp1
  85              		.cfi_endproc
  86              	.LFE153:
  87              		.size	pools1_setup, .-pools1_setup
  88              		.section	.text.pools1_execute,"ax",%progbits
  89              		.align	1
  90              		.p2align 4,,15
  91              		.syntax unified
  92              		.code	16
  93              		.thumb_func
  94              		.fpu softvfp
  95              		.type	pools1_execute, %function
  96              	pools1_execute:
  97              	.LFB154:
  98              		.loc 1 71 0
  99              		.cfi_startproc
 100              		@ args = 0, pretend = 0, frame = 8
 101              		@ frame_needed = 0, uses_anonymous_args = 0
 102 0000 00B5     		push	{lr}
 103              		.cfi_def_cfa_offset 4
 104              		.cfi_offset 14, -4
 105 0002 83B0     		sub	sp, sp, #12
 106              		.cfi_def_cfa_offset 16
 107              		.loc 1 75 0
 108 0004 3F4B     		ldr	r3, .L22
 109 0006 1968     		ldr	r1, [r3]
 110 0008 3F4B     		ldr	r3, .L22+4
 111 000a 0522     		movs	r2, #5
 112 000c 1800     		movs	r0, r3
 113 000e FFF7FEFF 		bl	chPoolLoadArray
 114              		.loc 1 78 0
ARM GAS  /tmp/cci2tF7b.s 			page 3


 115 0012 0023     		movs	r3, #0
 116 0014 0193     		str	r3, [sp, #4]
 117 0016 10E0     		b	.L7
 118              	.L10:
 119              		.loc 1 79 0
 120 0018 3B4B     		ldr	r3, .L22+4
 121 001a 1800     		movs	r0, r3
 122 001c FFF7FEFF 		bl	chPoolAlloc
 123 0020 0300     		movs	r3, r0
 124 0022 5A1E     		subs	r2, r3, #1
 125 0024 9341     		sbcs	r3, r3, r2
 126 0026 DBB2     		uxtb	r3, r3
 127 0028 1900     		movs	r1, r3
 128 002a 0120     		movs	r0, #1
 129 002c FFF7FEFF 		bl	_test_assert
 130 0030 031E     		subs	r3, r0, #0
 131 0032 5DD1     		bne	.L18
 132              		.loc 1 78 0 discriminator 2
 133 0034 019B     		ldr	r3, [sp, #4]
 134 0036 0133     		adds	r3, r3, #1
 135 0038 0193     		str	r3, [sp, #4]
 136              	.L7:
 137              		.loc 1 78 0 is_stmt 0 discriminator 1
 138 003a 019B     		ldr	r3, [sp, #4]
 139 003c 042B     		cmp	r3, #4
 140 003e EBDD     		ble	.L10
 141              		.loc 1 82 0 is_stmt 1
 142 0040 314B     		ldr	r3, .L22+4
 143 0042 1800     		movs	r0, r3
 144 0044 FFF7FEFF 		bl	chPoolAlloc
 145 0048 0300     		movs	r3, r0
 146 004a 5A42     		rsbs	r2, r3, #0
 147 004c 5341     		adcs	r3, r3, r2
 148 004e DBB2     		uxtb	r3, r3
 149 0050 1900     		movs	r1, r3
 150 0052 0220     		movs	r0, #2
 151 0054 FFF7FEFF 		bl	_test_assert
 152 0058 031E     		subs	r3, r0, #0
 153 005a 4BD1     		bne	.L19
 154              		.loc 1 85 0
 155 005c 0023     		movs	r3, #0
 156 005e 0193     		str	r3, [sp, #4]
 157 0060 0BE0     		b	.L12
 158              	.L13:
 159              		.loc 1 86 0 discriminator 3
 160 0062 284B     		ldr	r3, .L22
 161 0064 019A     		ldr	r2, [sp, #4]
 162 0066 9200     		lsls	r2, r2, #2
 163 0068 D258     		ldr	r2, [r2, r3]
 164 006a 274B     		ldr	r3, .L22+4
 165 006c 1100     		movs	r1, r2
 166 006e 1800     		movs	r0, r3
 167 0070 FFF7FEFF 		bl	chPoolFree
 168              		.loc 1 85 0 discriminator 3
 169 0074 019B     		ldr	r3, [sp, #4]
 170 0076 0133     		adds	r3, r3, #1
 171 0078 0193     		str	r3, [sp, #4]
ARM GAS  /tmp/cci2tF7b.s 			page 4


 172              	.L12:
 173              		.loc 1 85 0 is_stmt 0 discriminator 1
 174 007a 019B     		ldr	r3, [sp, #4]
 175 007c 042B     		cmp	r3, #4
 176 007e F0DD     		ble	.L13
 177              		.loc 1 89 0 is_stmt 1
 178 0080 0023     		movs	r3, #0
 179 0082 0193     		str	r3, [sp, #4]
 180 0084 10E0     		b	.L14
 181              	.L16:
 182              		.loc 1 90 0
 183 0086 204B     		ldr	r3, .L22+4
 184 0088 1800     		movs	r0, r3
 185 008a FFF7FEFF 		bl	chPoolAlloc
 186 008e 0300     		movs	r3, r0
 187 0090 5A1E     		subs	r2, r3, #1
 188 0092 9341     		sbcs	r3, r3, r2
 189 0094 DBB2     		uxtb	r3, r3
 190 0096 1900     		movs	r1, r3
 191 0098 0320     		movs	r0, #3
 192 009a FFF7FEFF 		bl	_test_assert
 193 009e 031E     		subs	r3, r0, #0
 194 00a0 2AD1     		bne	.L20
 195              		.loc 1 89 0 discriminator 2
 196 00a2 019B     		ldr	r3, [sp, #4]
 197 00a4 0133     		adds	r3, r3, #1
 198 00a6 0193     		str	r3, [sp, #4]
 199              	.L14:
 200              		.loc 1 89 0 is_stmt 0 discriminator 1
 201 00a8 019B     		ldr	r3, [sp, #4]
 202 00aa 042B     		cmp	r3, #4
 203 00ac EBDD     		ble	.L16
 204              		.loc 1 93 0 is_stmt 1
 205 00ae 164B     		ldr	r3, .L22+4
 206 00b0 1800     		movs	r0, r3
 207 00b2 FFF7FEFF 		bl	chPoolAlloc
 208 00b6 0300     		movs	r3, r0
 209 00b8 5A42     		rsbs	r2, r3, #0
 210 00ba 5341     		adcs	r3, r3, r2
 211 00bc DBB2     		uxtb	r3, r3
 212 00be 1900     		movs	r1, r3
 213 00c0 0420     		movs	r0, #4
 214 00c2 FFF7FEFF 		bl	_test_assert
 215 00c6 031E     		subs	r3, r0, #0
 216 00c8 18D1     		bne	.L21
 217              		.loc 1 96 0
 218 00ca 104A     		ldr	r2, .L22+8
 219 00cc 0E4B     		ldr	r3, .L22+4
 220 00ce 1021     		movs	r1, #16
 221 00d0 1800     		movs	r0, r3
 222 00d2 FFF7FEFF 		bl	chPoolObjectInit
 223              		.loc 1 97 0
 224 00d6 0C4B     		ldr	r3, .L22+4
 225 00d8 1800     		movs	r0, r3
 226 00da FFF7FEFF 		bl	chPoolAlloc
 227 00de 0300     		movs	r3, r0
 228 00e0 5A42     		rsbs	r2, r3, #0
ARM GAS  /tmp/cci2tF7b.s 			page 5


 229 00e2 5341     		adcs	r3, r3, r2
 230 00e4 DBB2     		uxtb	r3, r3
 231 00e6 1900     		movs	r1, r3
 232 00e8 0520     		movs	r0, #5
 233 00ea FFF7FEFF 		bl	_test_assert
 234 00ee 06E0     		b	.L6
 235              	.L18:
 236              		.loc 1 79 0
 237 00f0 C046     		nop
 238 00f2 04E0     		b	.L6
 239              	.L19:
 240              		.loc 1 82 0
 241 00f4 C046     		nop
 242 00f6 02E0     		b	.L6
 243              	.L20:
 244              		.loc 1 90 0
 245 00f8 C046     		nop
 246 00fa 00E0     		b	.L6
 247              	.L21:
 248              		.loc 1 93 0
 249 00fc C046     		nop
 250              	.L6:
 251              		.loc 1 98 0
 252 00fe 03B0     		add	sp, sp, #12
 253              		@ sp needed
 254 0100 00BD     		pop	{pc}
 255              	.L23:
 256 0102 C046     		.align	2
 257              	.L22:
 258 0104 00000000 		.word	wa
 259 0108 00000000 		.word	mp1
 260 010c 00000000 		.word	null_provider
 261              		.cfi_endproc
 262              	.LFE154:
 263              		.size	pools1_execute, .-pools1_execute
 264              		.global	testpools1
 265              		.section	.rodata
 266              		.align	2
 267              	.LC4:
 268 0000 4D656D6F 		.ascii	"Memory Pools, queue/dequeue\000"
 268      72792050 
 268      6F6F6C73 
 268      2C207175 
 268      6575652F 
 269              		.section	.rodata.testpools1,"a",%progbits
 270              		.align	2
 271              		.type	testpools1, %object
 272              		.size	testpools1, 16
 273              	testpools1:
 274 0000 00000000 		.word	.LC4
 275 0004 00000000 		.word	pools1_setup
 276 0008 00000000 		.word	0
 277 000c 00000000 		.word	pools1_execute
 278              		.global	patternpools
 279              		.section	.rodata.patternpools,"a",%progbits
 280              		.align	2
 281              		.type	patternpools, %object
ARM GAS  /tmp/cci2tF7b.s 			page 6


 282              		.size	patternpools, 8
 283              	patternpools:
 284 0000 00000000 		.word	testpools1
 285 0004 00000000 		.word	0
 286              		.text
 287              	.Letext0:
 288              		.file 2 "/home/felix/opt/gcc-arm-none-eabi-6-2017-q1-update/lib/gcc/arm-none-eabi/6.3.1/include/st
 289              		.file 3 "/home/felix/opt/gcc-arm-none-eabi-6-2017-q1-update/arm-none-eabi/include/machine/_default
 290              		.file 4 "/home/felix/opt/gcc-arm-none-eabi-6-2017-q1-update/arm-none-eabi/include/sys/_stdint.h"
 291              		.file 5 "ChibiOS/os/rt/ports/ARMCMx/compilers/GCC/chtypes.h"
 292              		.file 6 "ChibiOS/os/rt/include/chsystypes.h"
 293              		.file 7 "ChibiOS/os/rt/include/chschd.h"
 294              		.file 8 "ChibiOS/os/rt/ports/ARMCMx/chcore.h"
 295              		.file 9 "ChibiOS/os/rt/ports/ARMCMx/chcore_v6m.h"
 296              		.file 10 "ChibiOS/os/rt/include/chdebug.h"
 297              		.file 11 "ChibiOS/os/rt/include/chsem.h"
 298              		.file 12 "ChibiOS/os/rt/include/chmtx.h"
 299              		.file 13 "ChibiOS/os/rt/include/chregistry.h"
 300              		.file 14 "ChibiOS/os/ext/CMSIS/ST/STM32F0xx/system_stm32f0xx.h"
 301              		.file 15 "ChibiOS/os/rt/include/chmemcore.h"
 302              		.file 16 "ChibiOS/os/rt/include/chmempools.h"
 303              		.file 17 "ChibiOS/test/rt/test.h"