ARM GAS  /tmp/ccbyuM1m.s 			page 1


   1              		.cpu cortex-m0
   2              		.eabi_attribute 20, 1
   3              		.eabi_attribute 21, 1
   4              		.eabi_attribute 23, 3
   5              		.eabi_attribute 24, 1
   6              		.eabi_attribute 25, 1
   7              		.eabi_attribute 26, 1
   8              		.eabi_attribute 30, 6
   9              		.eabi_attribute 34, 0
  10              		.eabi_attribute 18, 4
  11              		.file	"testbmk.c"
  12              		.text
  13              	.Ltext0:
  14              		.cfi_sections	.debug_frame
  15              		.section	.text.port_lock,"ax",%progbits
  16              		.align	1
  17              		.p2align 4,,15
  18              		.syntax unified
  19              		.code	16
  20              		.thumb_func
  21              		.fpu softvfp
  22              		.type	port_lock, %function
  23              	port_lock:
  24              	.LFB38:
  25              		.file 1 "ChibiOS/os/rt/ports/ARMCMx/chcore_v6m.h"
  26              		.loc 1 330 0
  27              		.cfi_startproc
  28              		@ args = 0, pretend = 0, frame = 0
  29              		@ frame_needed = 0, uses_anonymous_args = 0
  30              		@ link register save eliminated.
  31              	.LBB6:
  32              	.LBB7:
  33              		.file 2 "ChibiOS/os/ext/CMSIS/include/core_cmFunc.h"
  34              		.loc 2 344 0
  35              		.syntax divided
  36              	@ 344 "ChibiOS/os/ext/CMSIS/include/core_cmFunc.h" 1
  37 0000 72B6     		cpsid i
  38              	@ 0 "" 2
  39              		.thumb
  40              		.syntax unified
  41              	.LBE7:
  42              	.LBE6:
  43              		.loc 1 333 0
  44 0002 C046     		nop
  45              		@ sp needed
  46 0004 7047     		bx	lr
  47              		.cfi_endproc
  48              	.LFE38:
  49              		.size	port_lock, .-port_lock
  50 0006 C046     		.section	.text.port_unlock,"ax",%progbits
  51              		.align	1
  52              		.p2align 4,,15
  53              		.syntax unified
  54              		.code	16
  55              		.thumb_func
  56              		.fpu softvfp
  57              		.type	port_unlock, %function
ARM GAS  /tmp/ccbyuM1m.s 			page 2


  58              	port_unlock:
  59              	.LFB39:
  60              		.loc 1 339 0
  61              		.cfi_startproc
  62              		@ args = 0, pretend = 0, frame = 0
  63              		@ frame_needed = 0, uses_anonymous_args = 0
  64              		@ link register save eliminated.
  65              	.LBB8:
  66              	.LBB9:
  67              		.loc 2 333 0
  68              		.syntax divided
  69              	@ 333 "ChibiOS/os/ext/CMSIS/include/core_cmFunc.h" 1
  70 0000 62B6     		cpsie i
  71              	@ 0 "" 2
  72              		.thumb
  73              		.syntax unified
  74              	.LBE9:
  75              	.LBE8:
  76              		.loc 1 342 0
  77 0002 C046     		nop
  78              		@ sp needed
  79 0004 7047     		bx	lr
  80              		.cfi_endproc
  81              	.LFE39:
  82              		.size	port_unlock, .-port_unlock
  83 0006 C046     		.section	.text.chSysLock,"ax",%progbits
  84              		.align	1
  85              		.p2align 4,,15
  86              		.syntax unified
  87              		.code	16
  88              		.thumb_func
  89              		.fpu softvfp
  90              		.type	chSysLock, %function
  91              	chSysLock:
  92              	.LFB77:
  93              		.file 3 "ChibiOS/os/rt/include/chsys.h"
  94              		.loc 3 346 0
  95              		.cfi_startproc
  96              		@ args = 0, pretend = 0, frame = 0
  97              		@ frame_needed = 0, uses_anonymous_args = 0
  98 0000 10B5     		push	{r4, lr}
  99              		.cfi_def_cfa_offset 8
 100              		.cfi_offset 4, -8
 101              		.cfi_offset 14, -4
 102              		.loc 3 348 0
 103 0002 FFF7FEFF 		bl	port_lock
 104              		.loc 3 350 0
 105 0006 FFF7FEFF 		bl	_dbg_check_lock
 106              		.loc 3 351 0
 107 000a C046     		nop
 108              		@ sp needed
 109 000c 10BD     		pop	{r4, pc}
 110              		.cfi_endproc
 111              	.LFE77:
 112              		.size	chSysLock, .-chSysLock
 113 000e C046     		.section	.text.chSysUnlock,"ax",%progbits
 114              		.align	1
ARM GAS  /tmp/ccbyuM1m.s 			page 3


 115              		.p2align 4,,15
 116              		.syntax unified
 117              		.code	16
 118              		.thumb_func
 119              		.fpu softvfp
 120              		.type	chSysUnlock, %function
 121              	chSysUnlock:
 122              	.LFB78:
 123              		.loc 3 358 0
 124              		.cfi_startproc
 125              		@ args = 0, pretend = 0, frame = 0
 126              		@ frame_needed = 0, uses_anonymous_args = 0
 127 0000 10B5     		push	{r4, lr}
 128              		.cfi_def_cfa_offset 8
 129              		.cfi_offset 4, -8
 130              		.cfi_offset 14, -4
 131              		.loc 3 360 0
 132 0002 FFF7FEFF 		bl	_dbg_check_unlock
 133              		.loc 3 367 0
 134 0006 0A4B     		ldr	r3, .L6
 135 0008 1A68     		ldr	r2, [r3]
 136 000a 094B     		ldr	r3, .L6
 137 000c 9A42     		cmp	r2, r3
 138 000e 0BD0     		beq	.L5
 139              		.loc 3 367 0 is_stmt 0 discriminator 2
 140 0010 074B     		ldr	r3, .L6
 141 0012 9B69     		ldr	r3, [r3, #24]
 142 0014 9A68     		ldr	r2, [r3, #8]
 143 0016 064B     		ldr	r3, .L6
 144 0018 1B68     		ldr	r3, [r3]
 145 001a 9B68     		ldr	r3, [r3, #8]
 146 001c 9A42     		cmp	r2, r3
 147 001e 03D2     		bcs	.L5
 148              		.loc 3 367 0 discriminator 3
 149 0020 044B     		ldr	r3, .L6+4
 150 0022 1800     		movs	r0, r3
 151 0024 FFF7FEFF 		bl	chSysHalt
 152              	.L5:
 153              		.loc 3 371 0 is_stmt 1
 154 0028 FFF7FEFF 		bl	port_unlock
 155              		.loc 3 372 0
 156 002c C046     		nop
 157              		@ sp needed
 158 002e 10BD     		pop	{r4, pc}
 159              	.L7:
 160              		.align	2
 161              	.L6:
 162 0030 00000000 		.word	ch
 163 0034 00000000 		.word	__func__.4993
 164              		.cfi_endproc
 165              	.LFE78:
 166              		.size	chSysUnlock, .-chSysUnlock
 167              		.section	.text.chThdGetSelfX,"ax",%progbits
 168              		.align	1
 169              		.p2align 4,,15
 170              		.syntax unified
 171              		.code	16
ARM GAS  /tmp/ccbyuM1m.s 			page 4


 172              		.thumb_func
 173              		.fpu softvfp
 174              		.type	chThdGetSelfX, %function
 175              	chThdGetSelfX:
 176              	.LFB99:
 177              		.file 4 "ChibiOS/os/rt/include/chthreads.h"
 178              		.loc 4 174 0
 179              		.cfi_startproc
 180              		@ args = 0, pretend = 0, frame = 0
 181              		@ frame_needed = 0, uses_anonymous_args = 0
 182              		@ link register save eliminated.
 183              		.loc 4 176 0
 184 0000 014B     		ldr	r3, .L10
 185 0002 9B69     		ldr	r3, [r3, #24]
 186              		.loc 4 177 0
 187 0004 1800     		movs	r0, r3
 188              		@ sp needed
 189 0006 7047     		bx	lr
 190              	.L11:
 191              		.align	2
 192              	.L10:
 193 0008 00000000 		.word	ch
 194              		.cfi_endproc
 195              	.LFE99:
 196              		.size	chThdGetSelfX, .-chThdGetSelfX
 197              		.section	.text.chThdGetPriorityX,"ax",%progbits
 198              		.align	1
 199              		.p2align 4,,15
 200              		.syntax unified
 201              		.code	16
 202              		.thumb_func
 203              		.fpu softvfp
 204              		.type	chThdGetPriorityX, %function
 205              	chThdGetPriorityX:
 206              	.LFB100:
 207              		.loc 4 187 0
 208              		.cfi_startproc
 209              		@ args = 0, pretend = 0, frame = 0
 210              		@ frame_needed = 0, uses_anonymous_args = 0
 211 0000 10B5     		push	{r4, lr}
 212              		.cfi_def_cfa_offset 8
 213              		.cfi_offset 4, -8
 214              		.cfi_offset 14, -4
 215              		.loc 4 189 0
 216 0002 FFF7FEFF 		bl	chThdGetSelfX
 217 0006 0300     		movs	r3, r0
 218 0008 9B68     		ldr	r3, [r3, #8]
 219              		.loc 4 190 0
 220 000a 1800     		movs	r0, r3
 221              		@ sp needed
 222 000c 10BD     		pop	{r4, pc}
 223              		.cfi_endproc
 224              	.LFE100:
 225              		.size	chThdGetPriorityX, .-chThdGetPriorityX
 226 000e C046     		.section	.text.chThdShouldTerminateX,"ax",%progbits
 227              		.align	1
 228              		.p2align 4,,15
ARM GAS  /tmp/ccbyuM1m.s 			page 5


 229              		.syntax unified
 230              		.code	16
 231              		.thumb_func
 232              		.fpu softvfp
 233              		.type	chThdShouldTerminateX, %function
 234              	chThdShouldTerminateX:
 235              	.LFB102:
 236              		.loc 4 231 0
 237              		.cfi_startproc
 238              		@ args = 0, pretend = 0, frame = 0
 239              		@ frame_needed = 0, uses_anonymous_args = 0
 240 0000 10B5     		push	{r4, lr}
 241              		.cfi_def_cfa_offset 8
 242              		.cfi_offset 4, -8
 243              		.cfi_offset 14, -4
 244              		.loc 4 233 0
 245 0002 FFF7FEFF 		bl	chThdGetSelfX
 246 0006 0200     		movs	r2, r0
 247 0008 2123     		movs	r3, #33
 248 000a D35C     		ldrb	r3, [r2, r3]
 249 000c 1A00     		movs	r2, r3
 250 000e 0423     		movs	r3, #4
 251 0010 1340     		ands	r3, r2
 252 0012 5A1E     		subs	r2, r3, #1
 253 0014 9341     		sbcs	r3, r3, r2
 254 0016 DBB2     		uxtb	r3, r3
 255              		.loc 4 234 0
 256 0018 1800     		movs	r0, r3
 257              		@ sp needed
 258 001a 10BD     		pop	{r4, pc}
 259              		.cfi_endproc
 260              	.LFE102:
 261              		.size	chThdShouldTerminateX, .-chThdShouldTerminateX
 262              		.section	.text.chMsgGet,"ax",%progbits
 263              		.align	1
 264              		.p2align 4,,15
 265              		.syntax unified
 266              		.code	16
 267              		.thumb_func
 268              		.fpu softvfp
 269              		.type	chMsgGet, %function
 270              	chMsgGet:
 271              	.LFB133:
 272              		.file 5 "ChibiOS/os/rt/include/chmsg.h"
 273              		.loc 5 96 0
 274              		.cfi_startproc
 275              		@ args = 0, pretend = 0, frame = 8
 276              		@ frame_needed = 0, uses_anonymous_args = 0
 277              		@ link register save eliminated.
 278 0000 82B0     		sub	sp, sp, #8
 279              		.cfi_def_cfa_offset 8
 280 0002 0190     		str	r0, [sp, #4]
 281              		.loc 5 98 0
 282 0004 019B     		ldr	r3, [sp, #4]
 283 0006 5B6B     		ldr	r3, [r3, #52]
 284              		.loc 5 99 0
 285 0008 1800     		movs	r0, r3
ARM GAS  /tmp/ccbyuM1m.s 			page 6


 286 000a 02B0     		add	sp, sp, #8
 287              		@ sp needed
 288 000c 7047     		bx	lr
 289              		.cfi_endproc
 290              	.LFE133:
 291              		.size	chMsgGet, .-chMsgGet
 292 000e C046     		.section	.text.chIQGet,"ax",%progbits
 293              		.align	1
 294              		.p2align 4,,15
 295              		.syntax unified
 296              		.code	16
 297              		.thumb_func
 298              		.fpu softvfp
 299              		.type	chIQGet, %function
 300              	chIQGet:
 301              	.LFB146:
 302              		.file 6 "ChibiOS/os/rt/include/chqueues.h"
 303              		.loc 6 341 0
 304              		.cfi_startproc
 305              		@ args = 0, pretend = 0, frame = 8
 306              		@ frame_needed = 0, uses_anonymous_args = 0
 307 0000 00B5     		push	{lr}
 308              		.cfi_def_cfa_offset 4
 309              		.cfi_offset 14, -4
 310 0002 83B0     		sub	sp, sp, #12
 311              		.cfi_def_cfa_offset 16
 312 0004 0190     		str	r0, [sp, #4]
 313              		.loc 6 343 0
 314 0006 054A     		ldr	r2, .L20
 315 0008 019B     		ldr	r3, [sp, #4]
 316 000a 1100     		movs	r1, r2
 317 000c 1800     		movs	r0, r3
 318 000e FFF7FEFF 		bl	chIQGetTimeout
 319 0012 0300     		movs	r3, r0
 320              		.loc 6 344 0
 321 0014 1800     		movs	r0, r3
 322 0016 03B0     		add	sp, sp, #12
 323              		@ sp needed
 324 0018 00BD     		pop	{pc}
 325              	.L21:
 326 001a C046     		.align	2
 327              	.L20:
 328 001c FFFF0000 		.word	65535
 329              		.cfi_endproc
 330              	.LFE146:
 331              		.size	chIQGet, .-chIQGet
 332              		.section	.bss.sem1,"aw",%nobits
 333              		.align	2
 334              		.type	sem1, %object
 335              		.size	sem1, 12
 336              	sem1:
 337 0000 00000000 		.space	12
 337      00000000 
 337      00000000 
 338              		.section	.bss.mtx1,"aw",%nobits
 339              		.align	2
 340              		.type	mtx1, %object
ARM GAS  /tmp/ccbyuM1m.s 			page 7


 341              		.size	mtx1, 16
 342              	mtx1:
 343 0000 00000000 		.space	16
 343      00000000 
 343      00000000 
 343      00000000 
 344              		.section	.text.thread1,"ax",%progbits
 345              		.align	1
 346              		.p2align 4,,15
 347              		.syntax unified
 348              		.code	16
 349              		.thumb_func
 350              		.fpu softvfp
 351              		.type	thread1, %function
 352              	thread1:
 353              	.LFB152:
 354              		.file 7 "ChibiOS/test/rt/testbmk.c"
 355              		.loc 7 66 0
 356              		.cfi_startproc
 357              		@ args = 0, pretend = 0, frame = 8
 358              		@ frame_needed = 0, uses_anonymous_args = 0
 359 0000 00B5     		push	{lr}
 360              		.cfi_def_cfa_offset 4
 361              		.cfi_offset 14, -4
 362 0002 83B0     		sub	sp, sp, #12
 363              		.cfi_def_cfa_offset 16
 364 0004 0190     		str	r0, [sp, #4]
 365              		.loc 7 68 0
 366 0006 019B     		ldr	r3, [sp, #4]
 367 0008 1800     		movs	r0, r3
 368 000a FFF7FEFF 		bl	chThdExit
 369              		.loc 7 69 0
 370 000e C046     		nop
 371 0010 03B0     		add	sp, sp, #12
 372              		@ sp needed
 373 0012 00BD     		pop	{pc}
 374              		.cfi_endproc
 375              	.LFE152:
 376              		.size	thread1, .-thread1
 377              		.section	.text.thread2,"ax",%progbits
 378              		.align	1
 379              		.p2align 4,,15
 380              		.syntax unified
 381              		.code	16
 382              		.thumb_func
 383              		.fpu softvfp
 384              		.type	thread2, %function
 385              	thread2:
 386              	.LFB153:
 387              		.loc 7 72 0
 388              		.cfi_startproc
 389              		@ args = 0, pretend = 0, frame = 16
 390              		@ frame_needed = 0, uses_anonymous_args = 0
 391 0000 00B5     		push	{lr}
 392              		.cfi_def_cfa_offset 4
 393              		.cfi_offset 14, -4
 394 0002 85B0     		sub	sp, sp, #20
ARM GAS  /tmp/ccbyuM1m.s 			page 8


 395              		.cfi_def_cfa_offset 24
 396 0004 0190     		str	r0, [sp, #4]
 397              	.L24:
 398              		.loc 7 78 0 discriminator 1
 399 0006 FFF7FEFF 		bl	chMsgWait
 400 000a 0300     		movs	r3, r0
 401 000c 0393     		str	r3, [sp, #12]
 402              		.loc 7 79 0 discriminator 1
 403 000e 039B     		ldr	r3, [sp, #12]
 404 0010 1800     		movs	r0, r3
 405 0012 FFF7FEFF 		bl	chMsgGet
 406 0016 0300     		movs	r3, r0
 407 0018 0293     		str	r3, [sp, #8]
 408              		.loc 7 80 0 discriminator 1
 409 001a 029A     		ldr	r2, [sp, #8]
 410 001c 039B     		ldr	r3, [sp, #12]
 411 001e 1100     		movs	r1, r2
 412 0020 1800     		movs	r0, r3
 413 0022 FFF7FEFF 		bl	chMsgRelease
 414              		.loc 7 81 0 discriminator 1
 415 0026 029B     		ldr	r3, [sp, #8]
 416 0028 002B     		cmp	r3, #0
 417 002a ECD1     		bne	.L24
 418              		.loc 7 82 0
 419 002c C046     		nop
 420 002e 05B0     		add	sp, sp, #20
 421              		@ sp needed
 422 0030 00BD     		pop	{pc}
 423              		.cfi_endproc
 424              	.LFE153:
 425              		.size	thread2, .-thread2
 426 0032 C046     		.section	.text.msg_loop_test,"ax",%progbits
 427              		.align	1
 428              		.p2align 4,,15
 429              		.syntax unified
 430              		.code	16
 431              		.thumb_func
 432              		.fpu softvfp
 433              		.type	msg_loop_test, %function
 434              	msg_loop_test:
 435              	.LFB154:
 436              		.loc 7 87 0
 437              		.cfi_startproc
 438              		@ args = 0, pretend = 0, frame = 16
 439              		@ frame_needed = 0, uses_anonymous_args = 0
 440 0000 00B5     		push	{lr}
 441              		.cfi_def_cfa_offset 4
 442              		.cfi_offset 14, -4
 443 0002 85B0     		sub	sp, sp, #20
 444              		.cfi_def_cfa_offset 24
 445 0004 0190     		str	r0, [sp, #4]
 446              		.loc 7 89 0
 447 0006 0023     		movs	r3, #0
 448 0008 0393     		str	r3, [sp, #12]
 449              		.loc 7 90 0
 450 000a FFF7FEFF 		bl	test_wait_tick
 451              		.loc 7 91 0
ARM GAS  /tmp/ccbyuM1m.s 			page 9


 452 000e FA23     		movs	r3, #250
 453 0010 9B00     		lsls	r3, r3, #2
 454 0012 1800     		movs	r0, r3
 455 0014 FFF7FEFF 		bl	test_start_timer
 456              	.L26:
 457              		.loc 7 93 0 discriminator 1
 458 0018 019B     		ldr	r3, [sp, #4]
 459 001a 0121     		movs	r1, #1
 460 001c 1800     		movs	r0, r3
 461 001e FFF7FEFF 		bl	chMsgSend
 462              		.loc 7 94 0 discriminator 1
 463 0022 039B     		ldr	r3, [sp, #12]
 464 0024 0133     		adds	r3, r3, #1
 465 0026 0393     		str	r3, [sp, #12]
 466              		.loc 7 98 0 discriminator 1
 467 0028 074B     		ldr	r3, .L28
 468 002a 1B78     		ldrb	r3, [r3]
 469 002c 0122     		movs	r2, #1
 470 002e 5340     		eors	r3, r2
 471 0030 DBB2     		uxtb	r3, r3
 472 0032 002B     		cmp	r3, #0
 473 0034 F0D1     		bne	.L26
 474              		.loc 7 99 0
 475 0036 019B     		ldr	r3, [sp, #4]
 476 0038 0021     		movs	r1, #0
 477 003a 1800     		movs	r0, r3
 478 003c FFF7FEFF 		bl	chMsgSend
 479              		.loc 7 100 0
 480 0040 039B     		ldr	r3, [sp, #12]
 481              		.loc 7 101 0
 482 0042 1800     		movs	r0, r3
 483 0044 05B0     		add	sp, sp, #20
 484              		@ sp needed
 485 0046 00BD     		pop	{pc}
 486              	.L29:
 487              		.align	2
 488              	.L28:
 489 0048 00000000 		.word	test_timer_done
 490              		.cfi_endproc
 491              	.LFE154:
 492              		.size	msg_loop_test, .-msg_loop_test
 493              		.section	.rodata
 494              		.align	2
 495              	.LC7:
 496 0000 2D2D2D20 		.ascii	"--- Score : \000"
 496      53636F72 
 496      65203A20 
 496      00
 497 000d 000000   		.align	2
 498              	.LC9:
 499 0010 206D7367 		.ascii	" msgs/S, \000"
 499      732F532C 
 499      2000
 500 001a 0000     		.align	2
 501              	.LC11:
 502 001c 20637478 		.ascii	" ctxswc/S\000"
 502      7377632F 
ARM GAS  /tmp/ccbyuM1m.s 			page 10


 502      5300
 503              		.section	.text.bmk1_execute,"ax",%progbits
 504              		.align	1
 505              		.p2align 4,,15
 506              		.syntax unified
 507              		.code	16
 508              		.thumb_func
 509              		.fpu softvfp
 510              		.type	bmk1_execute, %function
 511              	bmk1_execute:
 512              	.LFB155:
 513              		.loc 7 112 0
 514              		.cfi_startproc
 515              		@ args = 0, pretend = 0, frame = 8
 516              		@ frame_needed = 0, uses_anonymous_args = 0
 517 0000 10B5     		push	{r4, lr}
 518              		.cfi_def_cfa_offset 8
 519              		.cfi_offset 4, -8
 520              		.cfi_offset 14, -4
 521 0002 84B0     		sub	sp, sp, #16
 522              		.cfi_def_cfa_offset 24
 523              		.loc 7 115 0
 524 0004 194B     		ldr	r3, .L31
 525 0006 1C68     		ldr	r4, [r3]
 526 0008 FFF7FEFF 		bl	chThdGetPriorityX
 527 000c 0300     		movs	r3, r0
 528 000e 5A1E     		subs	r2, r3, #1
 529 0010 1748     		ldr	r0, .L31+4
 530 0012 A823     		movs	r3, #168
 531 0014 5900     		lsls	r1, r3, #1
 532 0016 0023     		movs	r3, #0
 533 0018 0093     		str	r3, [sp]
 534 001a 0300     		movs	r3, r0
 535 001c 2000     		movs	r0, r4
 536 001e FFF7FEFF 		bl	chThdCreateStatic
 537 0022 0200     		movs	r2, r0
 538 0024 134B     		ldr	r3, .L31+8
 539 0026 1A60     		str	r2, [r3]
 540              		.loc 7 116 0
 541 0028 124B     		ldr	r3, .L31+8
 542 002a 1B68     		ldr	r3, [r3]
 543 002c 1800     		movs	r0, r3
 544 002e FFF7FEFF 		bl	msg_loop_test
 545 0032 0300     		movs	r3, r0
 546 0034 0393     		str	r3, [sp, #12]
 547              		.loc 7 117 0
 548 0036 FFF7FEFF 		bl	test_wait_threads
 549              		.loc 7 118 0
 550 003a 0F4B     		ldr	r3, .L31+12
 551 003c 1800     		movs	r0, r3
 552 003e FFF7FEFF 		bl	test_print
 553              		.loc 7 119 0
 554 0042 039B     		ldr	r3, [sp, #12]
 555 0044 1800     		movs	r0, r3
 556 0046 FFF7FEFF 		bl	test_printn
 557              		.loc 7 120 0
 558 004a 0C4B     		ldr	r3, .L31+16
ARM GAS  /tmp/ccbyuM1m.s 			page 11


 559 004c 1800     		movs	r0, r3
 560 004e FFF7FEFF 		bl	test_print
 561              		.loc 7 121 0
 562 0052 039B     		ldr	r3, [sp, #12]
 563 0054 5B00     		lsls	r3, r3, #1
 564 0056 1800     		movs	r0, r3
 565 0058 FFF7FEFF 		bl	test_printn
 566              		.loc 7 122 0
 567 005c 084B     		ldr	r3, .L31+20
 568 005e 1800     		movs	r0, r3
 569 0060 FFF7FEFF 		bl	test_println
 570              		.loc 7 123 0
 571 0064 C046     		nop
 572 0066 04B0     		add	sp, sp, #16
 573              		@ sp needed
 574 0068 10BD     		pop	{r4, pc}
 575              	.L32:
 576 006a C046     		.align	2
 577              	.L31:
 578 006c 00000000 		.word	wa
 579 0070 00000000 		.word	thread2
 580 0074 00000000 		.word	threads
 581 0078 00000000 		.word	.LC7
 582 007c 10000000 		.word	.LC9
 583 0080 1C000000 		.word	.LC11
 584              		.cfi_endproc
 585              	.LFE155:
 586              		.size	bmk1_execute, .-bmk1_execute
 587              		.global	testbmk1
 588              		.section	.rodata
 589 0026 0000     		.align	2
 590              	.LC13:
 591 0028 42656E63 		.ascii	"Benchmark, messages #1\000"
 591      686D6172 
 591      6B2C206D 
 591      65737361 
 591      67657320 
 592              		.section	.rodata.testbmk1,"a",%progbits
 593              		.align	2
 594              		.type	testbmk1, %object
 595              		.size	testbmk1, 16
 596              	testbmk1:
 597 0000 28000000 		.word	.LC13
 598 0004 00000000 		.word	0
 599 0008 00000000 		.word	0
 600 000c 00000000 		.word	bmk1_execute
 601              		.section	.text.bmk2_execute,"ax",%progbits
 602              		.align	1
 603              		.p2align 4,,15
 604              		.syntax unified
 605              		.code	16
 606              		.thumb_func
 607              		.fpu softvfp
 608              		.type	bmk2_execute, %function
 609              	bmk2_execute:
 610              	.LFB156:
 611              		.loc 7 141 0
ARM GAS  /tmp/ccbyuM1m.s 			page 12


 612              		.cfi_startproc
 613              		@ args = 0, pretend = 0, frame = 8
 614              		@ frame_needed = 0, uses_anonymous_args = 0
 615 0000 10B5     		push	{r4, lr}
 616              		.cfi_def_cfa_offset 8
 617              		.cfi_offset 4, -8
 618              		.cfi_offset 14, -4
 619 0002 84B0     		sub	sp, sp, #16
 620              		.cfi_def_cfa_offset 24
 621              		.loc 7 144 0
 622 0004 194B     		ldr	r3, .L34
 623 0006 1C68     		ldr	r4, [r3]
 624 0008 FFF7FEFF 		bl	chThdGetPriorityX
 625 000c 0300     		movs	r3, r0
 626 000e 5A1C     		adds	r2, r3, #1
 627 0010 1748     		ldr	r0, .L34+4
 628 0012 A823     		movs	r3, #168
 629 0014 5900     		lsls	r1, r3, #1
 630 0016 0023     		movs	r3, #0
 631 0018 0093     		str	r3, [sp]
 632 001a 0300     		movs	r3, r0
 633 001c 2000     		movs	r0, r4
 634 001e FFF7FEFF 		bl	chThdCreateStatic
 635 0022 0200     		movs	r2, r0
 636 0024 134B     		ldr	r3, .L34+8
 637 0026 1A60     		str	r2, [r3]
 638              		.loc 7 145 0
 639 0028 124B     		ldr	r3, .L34+8
 640 002a 1B68     		ldr	r3, [r3]
 641 002c 1800     		movs	r0, r3
 642 002e FFF7FEFF 		bl	msg_loop_test
 643 0032 0300     		movs	r3, r0
 644 0034 0393     		str	r3, [sp, #12]
 645              		.loc 7 146 0
 646 0036 FFF7FEFF 		bl	test_wait_threads
 647              		.loc 7 147 0
 648 003a 0F4B     		ldr	r3, .L34+12
 649 003c 1800     		movs	r0, r3
 650 003e FFF7FEFF 		bl	test_print
 651              		.loc 7 148 0
 652 0042 039B     		ldr	r3, [sp, #12]
 653 0044 1800     		movs	r0, r3
 654 0046 FFF7FEFF 		bl	test_printn
 655              		.loc 7 149 0
 656 004a 0C4B     		ldr	r3, .L34+16
 657 004c 1800     		movs	r0, r3
 658 004e FFF7FEFF 		bl	test_print
 659              		.loc 7 150 0
 660 0052 039B     		ldr	r3, [sp, #12]
 661 0054 5B00     		lsls	r3, r3, #1
 662 0056 1800     		movs	r0, r3
 663 0058 FFF7FEFF 		bl	test_printn
 664              		.loc 7 151 0
 665 005c 084B     		ldr	r3, .L34+20
 666 005e 1800     		movs	r0, r3
 667 0060 FFF7FEFF 		bl	test_println
 668              		.loc 7 152 0
ARM GAS  /tmp/ccbyuM1m.s 			page 13


 669 0064 C046     		nop
 670 0066 04B0     		add	sp, sp, #16
 671              		@ sp needed
 672 0068 10BD     		pop	{r4, pc}
 673              	.L35:
 674 006a C046     		.align	2
 675              	.L34:
 676 006c 00000000 		.word	wa
 677 0070 00000000 		.word	thread2
 678 0074 00000000 		.word	threads
 679 0078 00000000 		.word	.LC7
 680 007c 10000000 		.word	.LC9
 681 0080 1C000000 		.word	.LC11
 682              		.cfi_endproc
 683              	.LFE156:
 684              		.size	bmk2_execute, .-bmk2_execute
 685              		.global	testbmk2
 686              		.section	.rodata
 687 003f 00       		.align	2
 688              	.LC20:
 689 0040 42656E63 		.ascii	"Benchmark, messages #2\000"
 689      686D6172 
 689      6B2C206D 
 689      65737361 
 689      67657320 
 690              		.section	.rodata.testbmk2,"a",%progbits
 691              		.align	2
 692              		.type	testbmk2, %object
 693              		.size	testbmk2, 16
 694              	testbmk2:
 695 0000 40000000 		.word	.LC20
 696 0004 00000000 		.word	0
 697 0008 00000000 		.word	0
 698 000c 00000000 		.word	bmk2_execute
 699              		.section	.text.bmk3_execute,"ax",%progbits
 700              		.align	1
 701              		.p2align 4,,15
 702              		.syntax unified
 703              		.code	16
 704              		.thumb_func
 705              		.fpu softvfp
 706              		.type	bmk3_execute, %function
 707              	bmk3_execute:
 708              	.LFB157:
 709              		.loc 7 171 0
 710              		.cfi_startproc
 711              		@ args = 0, pretend = 0, frame = 8
 712              		@ frame_needed = 0, uses_anonymous_args = 0
 713 0000 10B5     		push	{r4, lr}
 714              		.cfi_def_cfa_offset 8
 715              		.cfi_offset 4, -8
 716              		.cfi_offset 14, -4
 717 0002 84B0     		sub	sp, sp, #16
 718              		.cfi_def_cfa_offset 24
 719              		.loc 7 174 0
 720 0004 3D4B     		ldr	r3, .L37
 721 0006 1C68     		ldr	r4, [r3]
ARM GAS  /tmp/ccbyuM1m.s 			page 14


 722 0008 FFF7FEFF 		bl	chThdGetPriorityX
 723 000c 0300     		movs	r3, r0
 724 000e 5A1C     		adds	r2, r3, #1
 725 0010 3B48     		ldr	r0, .L37+4
 726 0012 A823     		movs	r3, #168
 727 0014 5900     		lsls	r1, r3, #1
 728 0016 0023     		movs	r3, #0
 729 0018 0093     		str	r3, [sp]
 730 001a 0300     		movs	r3, r0
 731 001c 2000     		movs	r0, r4
 732 001e FFF7FEFF 		bl	chThdCreateStatic
 733 0022 0200     		movs	r2, r0
 734 0024 374B     		ldr	r3, .L37+8
 735 0026 1A60     		str	r2, [r3]
 736              		.loc 7 175 0
 737 0028 344B     		ldr	r3, .L37
 738 002a 5C68     		ldr	r4, [r3, #4]
 739 002c FFF7FEFF 		bl	chThdGetPriorityX
 740 0030 0300     		movs	r3, r0
 741 0032 9A1E     		subs	r2, r3, #2
 742 0034 3448     		ldr	r0, .L37+12
 743 0036 A823     		movs	r3, #168
 744 0038 5900     		lsls	r1, r3, #1
 745 003a 0023     		movs	r3, #0
 746 003c 0093     		str	r3, [sp]
 747 003e 0300     		movs	r3, r0
 748 0040 2000     		movs	r0, r4
 749 0042 FFF7FEFF 		bl	chThdCreateStatic
 750 0046 0200     		movs	r2, r0
 751 0048 2E4B     		ldr	r3, .L37+8
 752 004a 5A60     		str	r2, [r3, #4]
 753              		.loc 7 176 0
 754 004c 2B4B     		ldr	r3, .L37
 755 004e 9C68     		ldr	r4, [r3, #8]
 756 0050 FFF7FEFF 		bl	chThdGetPriorityX
 757 0054 0300     		movs	r3, r0
 758 0056 DA1E     		subs	r2, r3, #3
 759 0058 2B48     		ldr	r0, .L37+12
 760 005a A823     		movs	r3, #168
 761 005c 5900     		lsls	r1, r3, #1
 762 005e 0023     		movs	r3, #0
 763 0060 0093     		str	r3, [sp]
 764 0062 0300     		movs	r3, r0
 765 0064 2000     		movs	r0, r4
 766 0066 FFF7FEFF 		bl	chThdCreateStatic
 767 006a 0200     		movs	r2, r0
 768 006c 254B     		ldr	r3, .L37+8
 769 006e 9A60     		str	r2, [r3, #8]
 770              		.loc 7 177 0
 771 0070 224B     		ldr	r3, .L37
 772 0072 DC68     		ldr	r4, [r3, #12]
 773 0074 FFF7FEFF 		bl	chThdGetPriorityX
 774 0078 0300     		movs	r3, r0
 775 007a 1A1F     		subs	r2, r3, #4
 776 007c 2248     		ldr	r0, .L37+12
 777 007e A823     		movs	r3, #168
 778 0080 5900     		lsls	r1, r3, #1
ARM GAS  /tmp/ccbyuM1m.s 			page 15


 779 0082 0023     		movs	r3, #0
 780 0084 0093     		str	r3, [sp]
 781 0086 0300     		movs	r3, r0
 782 0088 2000     		movs	r0, r4
 783 008a FFF7FEFF 		bl	chThdCreateStatic
 784 008e 0200     		movs	r2, r0
 785 0090 1C4B     		ldr	r3, .L37+8
 786 0092 DA60     		str	r2, [r3, #12]
 787              		.loc 7 178 0
 788 0094 194B     		ldr	r3, .L37
 789 0096 1C69     		ldr	r4, [r3, #16]
 790 0098 FFF7FEFF 		bl	chThdGetPriorityX
 791 009c 0300     		movs	r3, r0
 792 009e 5A1F     		subs	r2, r3, #5
 793 00a0 1948     		ldr	r0, .L37+12
 794 00a2 A823     		movs	r3, #168
 795 00a4 5900     		lsls	r1, r3, #1
 796 00a6 0023     		movs	r3, #0
 797 00a8 0093     		str	r3, [sp]
 798 00aa 0300     		movs	r3, r0
 799 00ac 2000     		movs	r0, r4
 800 00ae FFF7FEFF 		bl	chThdCreateStatic
 801 00b2 0200     		movs	r2, r0
 802 00b4 134B     		ldr	r3, .L37+8
 803 00b6 1A61     		str	r2, [r3, #16]
 804              		.loc 7 179 0
 805 00b8 124B     		ldr	r3, .L37+8
 806 00ba 1B68     		ldr	r3, [r3]
 807 00bc 1800     		movs	r0, r3
 808 00be FFF7FEFF 		bl	msg_loop_test
 809 00c2 0300     		movs	r3, r0
 810 00c4 0393     		str	r3, [sp, #12]
 811              		.loc 7 180 0
 812 00c6 FFF7FEFF 		bl	test_wait_threads
 813              		.loc 7 181 0
 814 00ca 104B     		ldr	r3, .L37+16
 815 00cc 1800     		movs	r0, r3
 816 00ce FFF7FEFF 		bl	test_print
 817              		.loc 7 182 0
 818 00d2 039B     		ldr	r3, [sp, #12]
 819 00d4 1800     		movs	r0, r3
 820 00d6 FFF7FEFF 		bl	test_printn
 821              		.loc 7 183 0
 822 00da 0D4B     		ldr	r3, .L37+20
 823 00dc 1800     		movs	r0, r3
 824 00de FFF7FEFF 		bl	test_print
 825              		.loc 7 184 0
 826 00e2 039B     		ldr	r3, [sp, #12]
 827 00e4 5B00     		lsls	r3, r3, #1
 828 00e6 1800     		movs	r0, r3
 829 00e8 FFF7FEFF 		bl	test_printn
 830              		.loc 7 185 0
 831 00ec 094B     		ldr	r3, .L37+24
 832 00ee 1800     		movs	r0, r3
 833 00f0 FFF7FEFF 		bl	test_println
 834              		.loc 7 186 0
 835 00f4 C046     		nop
ARM GAS  /tmp/ccbyuM1m.s 			page 16


 836 00f6 04B0     		add	sp, sp, #16
 837              		@ sp needed
 838 00f8 10BD     		pop	{r4, pc}
 839              	.L38:
 840 00fa C046     		.align	2
 841              	.L37:
 842 00fc 00000000 		.word	wa
 843 0100 00000000 		.word	thread2
 844 0104 00000000 		.word	threads
 845 0108 00000000 		.word	thread1
 846 010c 00000000 		.word	.LC7
 847 0110 10000000 		.word	.LC9
 848 0114 1C000000 		.word	.LC11
 849              		.cfi_endproc
 850              	.LFE157:
 851              		.size	bmk3_execute, .-bmk3_execute
 852              		.global	testbmk3
 853              		.section	.rodata
 854 0057 00       		.align	2
 855              	.LC28:
 856 0058 42656E63 		.ascii	"Benchmark, messages #3\000"
 856      686D6172 
 856      6B2C206D 
 856      65737361 
 856      67657320 
 857              		.section	.rodata.testbmk3,"a",%progbits
 858              		.align	2
 859              		.type	testbmk3, %object
 860              		.size	testbmk3, 16
 861              	testbmk3:
 862 0000 58000000 		.word	.LC28
 863 0004 00000000 		.word	0
 864 0008 00000000 		.word	0
 865 000c 00000000 		.word	bmk3_execute
 866              		.section	.text.thread4,"ax",%progbits
 867              		.align	1
 868              		.p2align 4,,15
 869              		.syntax unified
 870              		.code	16
 871              		.thumb_func
 872              		.fpu softvfp
 873              		.type	thread4, %function
 874              	thread4:
 875              	.LFB158:
 876              		.loc 7 206 0
 877              		.cfi_startproc
 878              		@ args = 0, pretend = 0, frame = 16
 879              		@ frame_needed = 0, uses_anonymous_args = 0
 880 0000 00B5     		push	{lr}
 881              		.cfi_def_cfa_offset 4
 882              		.cfi_offset 14, -4
 883 0002 85B0     		sub	sp, sp, #20
 884              		.cfi_def_cfa_offset 24
 885 0004 0190     		str	r0, [sp, #4]
 886              		.loc 7 208 0
 887 0006 FFF7FEFF 		bl	chThdGetSelfX
 888 000a 0300     		movs	r3, r0
ARM GAS  /tmp/ccbyuM1m.s 			page 17


 889 000c 0393     		str	r3, [sp, #12]
 890              		.loc 7 211 0
 891 000e FFF7FEFF 		bl	chSysLock
 892              	.L40:
 893              		.loc 7 213 0 discriminator 1
 894 0012 0320     		movs	r0, #3
 895 0014 FFF7FEFF 		bl	chSchGoSleepS
 896              		.loc 7 214 0 discriminator 1
 897 0018 039B     		ldr	r3, [sp, #12]
 898 001a 5B6A     		ldr	r3, [r3, #36]
 899 001c 0293     		str	r3, [sp, #8]
 900              		.loc 7 215 0 discriminator 1
 901 001e 029B     		ldr	r3, [sp, #8]
 902 0020 002B     		cmp	r3, #0
 903 0022 F6D0     		beq	.L40
 904              		.loc 7 216 0
 905 0024 FFF7FEFF 		bl	chSysUnlock
 906              		.loc 7 217 0
 907 0028 C046     		nop
 908 002a 05B0     		add	sp, sp, #20
 909              		@ sp needed
 910 002c 00BD     		pop	{pc}
 911              		.cfi_endproc
 912              	.LFE158:
 913              		.size	thread4, .-thread4
 914 002e C046     		.section	.text.bmk4_execute,"ax",%progbits
 915              		.align	1
 916              		.p2align 4,,15
 917              		.syntax unified
 918              		.code	16
 919              		.thumb_func
 920              		.fpu softvfp
 921              		.type	bmk4_execute, %function
 922              	bmk4_execute:
 923              	.LFB159:
 924              		.loc 7 219 0
 925              		.cfi_startproc
 926              		@ args = 0, pretend = 0, frame = 8
 927              		@ frame_needed = 0, uses_anonymous_args = 0
 928 0000 10B5     		push	{r4, lr}
 929              		.cfi_def_cfa_offset 8
 930              		.cfi_offset 4, -8
 931              		.cfi_offset 14, -4
 932 0002 84B0     		sub	sp, sp, #16
 933              		.cfi_def_cfa_offset 24
 934              		.loc 7 223 0
 935 0004 2E4B     		ldr	r3, .L43
 936 0006 1C68     		ldr	r4, [r3]
 937 0008 FFF7FEFF 		bl	chThdGetPriorityX
 938 000c 0300     		movs	r3, r0
 939 000e 5A1C     		adds	r2, r3, #1
 940 0010 2C48     		ldr	r0, .L43+4
 941 0012 A823     		movs	r3, #168
 942 0014 5900     		lsls	r1, r3, #1
 943 0016 0023     		movs	r3, #0
 944 0018 0093     		str	r3, [sp]
 945 001a 0300     		movs	r3, r0
ARM GAS  /tmp/ccbyuM1m.s 			page 18


 946 001c 2000     		movs	r0, r4
 947 001e FFF7FEFF 		bl	chThdCreateStatic
 948 0022 0200     		movs	r2, r0
 949 0024 284B     		ldr	r3, .L43+8
 950 0026 1A60     		str	r2, [r3]
 951 0028 274B     		ldr	r3, .L43+8
 952 002a 1B68     		ldr	r3, [r3]
 953 002c 0293     		str	r3, [sp, #8]
 954              		.loc 7 225 0
 955 002e 0023     		movs	r3, #0
 956 0030 0393     		str	r3, [sp, #12]
 957              		.loc 7 226 0
 958 0032 FFF7FEFF 		bl	test_wait_tick
 959              		.loc 7 227 0
 960 0036 FA23     		movs	r3, #250
 961 0038 9B00     		lsls	r3, r3, #2
 962 003a 1800     		movs	r0, r3
 963 003c FFF7FEFF 		bl	test_start_timer
 964              	.L42:
 965              		.loc 7 229 0 discriminator 1
 966 0040 FFF7FEFF 		bl	chSysLock
 967              		.loc 7 230 0 discriminator 1
 968 0044 029B     		ldr	r3, [sp, #8]
 969 0046 0021     		movs	r1, #0
 970 0048 1800     		movs	r0, r3
 971 004a FFF7FEFF 		bl	chSchWakeupS
 972              		.loc 7 231 0 discriminator 1
 973 004e 029B     		ldr	r3, [sp, #8]
 974 0050 0021     		movs	r1, #0
 975 0052 1800     		movs	r0, r3
 976 0054 FFF7FEFF 		bl	chSchWakeupS
 977              		.loc 7 232 0 discriminator 1
 978 0058 029B     		ldr	r3, [sp, #8]
 979 005a 0021     		movs	r1, #0
 980 005c 1800     		movs	r0, r3
 981 005e FFF7FEFF 		bl	chSchWakeupS
 982              		.loc 7 233 0 discriminator 1
 983 0062 029B     		ldr	r3, [sp, #8]
 984 0064 0021     		movs	r1, #0
 985 0066 1800     		movs	r0, r3
 986 0068 FFF7FEFF 		bl	chSchWakeupS
 987              		.loc 7 234 0 discriminator 1
 988 006c FFF7FEFF 		bl	chSysUnlock
 989              		.loc 7 235 0 discriminator 1
 990 0070 039B     		ldr	r3, [sp, #12]
 991 0072 0433     		adds	r3, r3, #4
 992 0074 0393     		str	r3, [sp, #12]
 993              		.loc 7 239 0 discriminator 1
 994 0076 154B     		ldr	r3, .L43+12
 995 0078 1B78     		ldrb	r3, [r3]
 996 007a 0122     		movs	r2, #1
 997 007c 5340     		eors	r3, r2
 998 007e DBB2     		uxtb	r3, r3
 999 0080 002B     		cmp	r3, #0
 1000 0082 DDD1     		bne	.L42
 1001              		.loc 7 240 0
 1002 0084 FFF7FEFF 		bl	chSysLock
ARM GAS  /tmp/ccbyuM1m.s 			page 19


 1003              		.loc 7 241 0
 1004 0088 0123     		movs	r3, #1
 1005 008a 5A42     		rsbs	r2, r3, #0
 1006 008c 029B     		ldr	r3, [sp, #8]
 1007 008e 1100     		movs	r1, r2
 1008 0090 1800     		movs	r0, r3
 1009 0092 FFF7FEFF 		bl	chSchWakeupS
 1010              		.loc 7 242 0
 1011 0096 FFF7FEFF 		bl	chSysUnlock
 1012              		.loc 7 244 0
 1013 009a FFF7FEFF 		bl	test_wait_threads
 1014              		.loc 7 245 0
 1015 009e 0C4B     		ldr	r3, .L43+16
 1016 00a0 1800     		movs	r0, r3
 1017 00a2 FFF7FEFF 		bl	test_print
 1018              		.loc 7 246 0
 1019 00a6 039B     		ldr	r3, [sp, #12]
 1020 00a8 5B00     		lsls	r3, r3, #1
 1021 00aa 1800     		movs	r0, r3
 1022 00ac FFF7FEFF 		bl	test_printn
 1023              		.loc 7 247 0
 1024 00b0 084B     		ldr	r3, .L43+20
 1025 00b2 1800     		movs	r0, r3
 1026 00b4 FFF7FEFF 		bl	test_println
 1027              		.loc 7 248 0
 1028 00b8 C046     		nop
 1029 00ba 04B0     		add	sp, sp, #16
 1030              		@ sp needed
 1031 00bc 10BD     		pop	{r4, pc}
 1032              	.L44:
 1033 00be C046     		.align	2
 1034              	.L43:
 1035 00c0 00000000 		.word	wa
 1036 00c4 00000000 		.word	thread4
 1037 00c8 00000000 		.word	threads
 1038 00cc 00000000 		.word	test_timer_done
 1039 00d0 00000000 		.word	.LC7
 1040 00d4 1C000000 		.word	.LC11
 1041              		.cfi_endproc
 1042              	.LFE159:
 1043              		.size	bmk4_execute, .-bmk4_execute
 1044              		.global	testbmk4
 1045              		.section	.rodata
 1046 006f 00       		.align	2
 1047              	.LC35:
 1048 0070 42656E63 		.ascii	"Benchmark, context switch\000"
 1048      686D6172 
 1048      6B2C2063 
 1048      6F6E7465 
 1048      78742073 
 1049              		.section	.rodata.testbmk4,"a",%progbits
 1050              		.align	2
 1051              		.type	testbmk4, %object
 1052              		.size	testbmk4, 16
 1053              	testbmk4:
 1054 0000 70000000 		.word	.LC35
 1055 0004 00000000 		.word	0
ARM GAS  /tmp/ccbyuM1m.s 			page 20


 1056 0008 00000000 		.word	0
 1057 000c 00000000 		.word	bmk4_execute
 1058              		.section	.rodata
 1059 008a 0000     		.align	2
 1060              	.LC40:
 1061 008c 20746872 		.ascii	" threads/S\000"
 1061      65616473 
 1061      2F5300
 1062              		.section	.text.bmk5_execute,"ax",%progbits
 1063              		.align	1
 1064              		.p2align 4,,15
 1065              		.syntax unified
 1066              		.code	16
 1067              		.thumb_func
 1068              		.fpu softvfp
 1069              		.type	bmk5_execute, %function
 1070              	bmk5_execute:
 1071              	.LFB160:
 1072              		.loc 7 268 0
 1073              		.cfi_startproc
 1074              		@ args = 0, pretend = 0, frame = 16
 1075              		@ frame_needed = 0, uses_anonymous_args = 0
 1076 0000 10B5     		push	{r4, lr}
 1077              		.cfi_def_cfa_offset 8
 1078              		.cfi_offset 4, -8
 1079              		.cfi_offset 14, -4
 1080 0002 86B0     		sub	sp, sp, #24
 1081              		.cfi_def_cfa_offset 32
 1082              		.loc 7 270 0
 1083 0004 0023     		movs	r3, #0
 1084 0006 0593     		str	r3, [sp, #20]
 1085              		.loc 7 271 0
 1086 0008 1A4B     		ldr	r3, .L47
 1087 000a 1B68     		ldr	r3, [r3]
 1088 000c 0493     		str	r3, [sp, #16]
 1089              		.loc 7 272 0
 1090 000e FFF7FEFF 		bl	chThdGetPriorityX
 1091 0012 0300     		movs	r3, r0
 1092 0014 013B     		subs	r3, r3, #1
 1093 0016 0393     		str	r3, [sp, #12]
 1094              		.loc 7 273 0
 1095 0018 FFF7FEFF 		bl	test_wait_tick
 1096              		.loc 7 274 0
 1097 001c FA23     		movs	r3, #250
 1098 001e 9B00     		lsls	r3, r3, #2
 1099 0020 1800     		movs	r0, r3
 1100 0022 FFF7FEFF 		bl	test_start_timer
 1101              	.L46:
 1102              		.loc 7 276 0 discriminator 1
 1103 0026 144C     		ldr	r4, .L47+4
 1104 0028 039A     		ldr	r2, [sp, #12]
 1105 002a A823     		movs	r3, #168
 1106 002c 5900     		lsls	r1, r3, #1
 1107 002e 0498     		ldr	r0, [sp, #16]
 1108 0030 0023     		movs	r3, #0
 1109 0032 0093     		str	r3, [sp]
 1110 0034 2300     		movs	r3, r4
ARM GAS  /tmp/ccbyuM1m.s 			page 21


 1111 0036 FFF7FEFF 		bl	chThdCreateStatic
 1112 003a 0300     		movs	r3, r0
 1113 003c 1800     		movs	r0, r3
 1114 003e FFF7FEFF 		bl	chThdWait
 1115              		.loc 7 277 0 discriminator 1
 1116 0042 059B     		ldr	r3, [sp, #20]
 1117 0044 0133     		adds	r3, r3, #1
 1118 0046 0593     		str	r3, [sp, #20]
 1119              		.loc 7 281 0 discriminator 1
 1120 0048 0C4B     		ldr	r3, .L47+8
 1121 004a 1B78     		ldrb	r3, [r3]
 1122 004c 0122     		movs	r2, #1
 1123 004e 5340     		eors	r3, r2
 1124 0050 DBB2     		uxtb	r3, r3
 1125 0052 002B     		cmp	r3, #0
 1126 0054 E7D1     		bne	.L46
 1127              		.loc 7 282 0
 1128 0056 0A4B     		ldr	r3, .L47+12
 1129 0058 1800     		movs	r0, r3
 1130 005a FFF7FEFF 		bl	test_print
 1131              		.loc 7 283 0
 1132 005e 059B     		ldr	r3, [sp, #20]
 1133 0060 1800     		movs	r0, r3
 1134 0062 FFF7FEFF 		bl	test_printn
 1135              		.loc 7 284 0
 1136 0066 074B     		ldr	r3, .L47+16
 1137 0068 1800     		movs	r0, r3
 1138 006a FFF7FEFF 		bl	test_println
 1139              		.loc 7 285 0
 1140 006e C046     		nop
 1141 0070 06B0     		add	sp, sp, #24
 1142              		@ sp needed
 1143 0072 10BD     		pop	{r4, pc}
 1144              	.L48:
 1145              		.align	2
 1146              	.L47:
 1147 0074 00000000 		.word	wa
 1148 0078 00000000 		.word	thread1
 1149 007c 00000000 		.word	test_timer_done
 1150 0080 00000000 		.word	.LC7
 1151 0084 8C000000 		.word	.LC40
 1152              		.cfi_endproc
 1153              	.LFE160:
 1154              		.size	bmk5_execute, .-bmk5_execute
 1155              		.global	testbmk5
 1156              		.section	.rodata
 1157 0097 00       		.align	2
 1158              	.LC42:
 1159 0098 42656E63 		.ascii	"Benchmark, threads, full cycle\000"
 1159      686D6172 
 1159      6B2C2074 
 1159      68726561 
 1159      64732C20 
 1160              		.section	.rodata.testbmk5,"a",%progbits
 1161              		.align	2
 1162              		.type	testbmk5, %object
 1163              		.size	testbmk5, 16
ARM GAS  /tmp/ccbyuM1m.s 			page 22


 1164              	testbmk5:
 1165 0000 98000000 		.word	.LC42
 1166 0004 00000000 		.word	0
 1167 0008 00000000 		.word	0
 1168 000c 00000000 		.word	bmk5_execute
 1169              		.section	.text.bmk6_execute,"ax",%progbits
 1170              		.align	1
 1171              		.p2align 4,,15
 1172              		.syntax unified
 1173              		.code	16
 1174              		.thumb_func
 1175              		.fpu softvfp
 1176              		.type	bmk6_execute, %function
 1177              	bmk6_execute:
 1178              	.LFB161:
 1179              		.loc 7 307 0
 1180              		.cfi_startproc
 1181              		@ args = 0, pretend = 0, frame = 16
 1182              		@ frame_needed = 0, uses_anonymous_args = 0
 1183 0000 10B5     		push	{r4, lr}
 1184              		.cfi_def_cfa_offset 8
 1185              		.cfi_offset 4, -8
 1186              		.cfi_offset 14, -4
 1187 0002 86B0     		sub	sp, sp, #24
 1188              		.cfi_def_cfa_offset 32
 1189              		.loc 7 309 0
 1190 0004 0023     		movs	r3, #0
 1191 0006 0593     		str	r3, [sp, #20]
 1192              		.loc 7 310 0
 1193 0008 184B     		ldr	r3, .L51
 1194 000a 1B68     		ldr	r3, [r3]
 1195 000c 0493     		str	r3, [sp, #16]
 1196              		.loc 7 311 0
 1197 000e FFF7FEFF 		bl	chThdGetPriorityX
 1198 0012 0300     		movs	r3, r0
 1199 0014 0133     		adds	r3, r3, #1
 1200 0016 0393     		str	r3, [sp, #12]
 1201              		.loc 7 312 0
 1202 0018 FFF7FEFF 		bl	test_wait_tick
 1203              		.loc 7 313 0
 1204 001c FA23     		movs	r3, #250
 1205 001e 9B00     		lsls	r3, r3, #2
 1206 0020 1800     		movs	r0, r3
 1207 0022 FFF7FEFF 		bl	test_start_timer
 1208              	.L50:
 1209              		.loc 7 315 0 discriminator 1
 1210 0026 124C     		ldr	r4, .L51+4
 1211 0028 039A     		ldr	r2, [sp, #12]
 1212 002a A823     		movs	r3, #168
 1213 002c 5900     		lsls	r1, r3, #1
 1214 002e 0498     		ldr	r0, [sp, #16]
 1215 0030 0023     		movs	r3, #0
 1216 0032 0093     		str	r3, [sp]
 1217 0034 2300     		movs	r3, r4
 1218 0036 FFF7FEFF 		bl	chThdCreateStatic
 1219              		.loc 7 316 0 discriminator 1
 1220 003a 059B     		ldr	r3, [sp, #20]
ARM GAS  /tmp/ccbyuM1m.s 			page 23


 1221 003c 0133     		adds	r3, r3, #1
 1222 003e 0593     		str	r3, [sp, #20]
 1223              		.loc 7 320 0 discriminator 1
 1224 0040 0C4B     		ldr	r3, .L51+8
 1225 0042 1B78     		ldrb	r3, [r3]
 1226 0044 0122     		movs	r2, #1
 1227 0046 5340     		eors	r3, r2
 1228 0048 DBB2     		uxtb	r3, r3
 1229 004a 002B     		cmp	r3, #0
 1230 004c EBD1     		bne	.L50
 1231              		.loc 7 321 0
 1232 004e 0A4B     		ldr	r3, .L51+12
 1233 0050 1800     		movs	r0, r3
 1234 0052 FFF7FEFF 		bl	test_print
 1235              		.loc 7 322 0
 1236 0056 059B     		ldr	r3, [sp, #20]
 1237 0058 1800     		movs	r0, r3
 1238 005a FFF7FEFF 		bl	test_printn
 1239              		.loc 7 323 0
 1240 005e 074B     		ldr	r3, .L51+16
 1241 0060 1800     		movs	r0, r3
 1242 0062 FFF7FEFF 		bl	test_println
 1243              		.loc 7 324 0
 1244 0066 C046     		nop
 1245 0068 06B0     		add	sp, sp, #24
 1246              		@ sp needed
 1247 006a 10BD     		pop	{r4, pc}
 1248              	.L52:
 1249              		.align	2
 1250              	.L51:
 1251 006c 00000000 		.word	wa
 1252 0070 00000000 		.word	thread1
 1253 0074 00000000 		.word	test_timer_done
 1254 0078 00000000 		.word	.LC7
 1255 007c 8C000000 		.word	.LC40
 1256              		.cfi_endproc
 1257              	.LFE161:
 1258              		.size	bmk6_execute, .-bmk6_execute
 1259              		.global	testbmk6
 1260              		.section	.rodata
 1261 00b7 00       		.align	2
 1262              	.LC48:
 1263 00b8 42656E63 		.ascii	"Benchmark, threads, create only\000"
 1263      686D6172 
 1263      6B2C2074 
 1263      68726561 
 1263      64732C20 
 1264              		.section	.rodata.testbmk6,"a",%progbits
 1265              		.align	2
 1266              		.type	testbmk6, %object
 1267              		.size	testbmk6, 16
 1268              	testbmk6:
 1269 0000 B8000000 		.word	.LC48
 1270 0004 00000000 		.word	0
 1271 0008 00000000 		.word	0
 1272 000c 00000000 		.word	bmk6_execute
 1273              		.section	.text.thread3,"ax",%progbits
ARM GAS  /tmp/ccbyuM1m.s 			page 24


 1274              		.align	1
 1275              		.p2align 4,,15
 1276              		.syntax unified
 1277              		.code	16
 1278              		.thumb_func
 1279              		.fpu softvfp
 1280              		.type	thread3, %function
 1281              	thread3:
 1282              	.LFB162:
 1283              		.loc 7 345 0
 1284              		.cfi_startproc
 1285              		@ args = 0, pretend = 0, frame = 8
 1286              		@ frame_needed = 0, uses_anonymous_args = 0
 1287 0000 00B5     		push	{lr}
 1288              		.cfi_def_cfa_offset 4
 1289              		.cfi_offset 14, -4
 1290 0002 83B0     		sub	sp, sp, #12
 1291              		.cfi_def_cfa_offset 16
 1292 0004 0190     		str	r0, [sp, #4]
 1293              		.loc 7 348 0
 1294 0006 03E0     		b	.L54
 1295              	.L55:
 1296              		.loc 7 349 0
 1297 0008 074B     		ldr	r3, .L56
 1298 000a 1800     		movs	r0, r3
 1299 000c FFF7FEFF 		bl	chSemWait
 1300              	.L54:
 1301              		.loc 7 348 0
 1302 0010 FFF7FEFF 		bl	chThdShouldTerminateX
 1303 0014 0300     		movs	r3, r0
 1304 0016 1A00     		movs	r2, r3
 1305 0018 0123     		movs	r3, #1
 1306 001a 5340     		eors	r3, r2
 1307 001c DBB2     		uxtb	r3, r3
 1308 001e 002B     		cmp	r3, #0
 1309 0020 F2D1     		bne	.L55
 1310              		.loc 7 350 0
 1311 0022 C046     		nop
 1312 0024 03B0     		add	sp, sp, #12
 1313              		@ sp needed
 1314 0026 00BD     		pop	{pc}
 1315              	.L57:
 1316              		.align	2
 1317              	.L56:
 1318 0028 00000000 		.word	sem1
 1319              		.cfi_endproc
 1320              	.LFE162:
 1321              		.size	thread3, .-thread3
 1322              		.section	.text.bmk7_setup,"ax",%progbits
 1323              		.align	1
 1324              		.p2align 4,,15
 1325              		.syntax unified
 1326              		.code	16
 1327              		.thumb_func
 1328              		.fpu softvfp
 1329              		.type	bmk7_setup, %function
 1330              	bmk7_setup:
ARM GAS  /tmp/ccbyuM1m.s 			page 25


 1331              	.LFB163:
 1332              		.loc 7 352 0
 1333              		.cfi_startproc
 1334              		@ args = 0, pretend = 0, frame = 0
 1335              		@ frame_needed = 0, uses_anonymous_args = 0
 1336 0000 10B5     		push	{r4, lr}
 1337              		.cfi_def_cfa_offset 8
 1338              		.cfi_offset 4, -8
 1339              		.cfi_offset 14, -4
 1340              		.loc 7 354 0
 1341 0002 034B     		ldr	r3, .L59
 1342 0004 0021     		movs	r1, #0
 1343 0006 1800     		movs	r0, r3
 1344 0008 FFF7FEFF 		bl	chSemObjectInit
 1345              		.loc 7 355 0
 1346 000c C046     		nop
 1347              		@ sp needed
 1348 000e 10BD     		pop	{r4, pc}
 1349              	.L60:
 1350              		.align	2
 1351              	.L59:
 1352 0010 00000000 		.word	sem1
 1353              		.cfi_endproc
 1354              	.LFE163:
 1355              		.size	bmk7_setup, .-bmk7_setup
 1356              		.section	.rodata
 1357              		.align	2
 1358              	.LC57:
 1359 00d8 20726573 		.ascii	" reschedules/S, \000"
 1359      63686564 
 1359      756C6573 
 1359      2F532C20 
 1359      00
 1360              		.section	.text.bmk7_execute,"ax",%progbits
 1361              		.align	1
 1362              		.p2align 4,,15
 1363              		.syntax unified
 1364              		.code	16
 1365              		.thumb_func
 1366              		.fpu softvfp
 1367              		.type	bmk7_execute, %function
 1368              	bmk7_execute:
 1369              	.LFB164:
 1370              		.loc 7 357 0
 1371              		.cfi_startproc
 1372              		@ args = 0, pretend = 0, frame = 8
 1373              		@ frame_needed = 0, uses_anonymous_args = 0
 1374 0000 10B5     		push	{r4, lr}
 1375              		.cfi_def_cfa_offset 8
 1376              		.cfi_offset 4, -8
 1377              		.cfi_offset 14, -4
 1378 0002 84B0     		sub	sp, sp, #16
 1379              		.cfi_def_cfa_offset 24
 1380              		.loc 7 360 0
 1381 0004 4A4B     		ldr	r3, .L63
 1382 0006 1C68     		ldr	r4, [r3]
 1383 0008 FFF7FEFF 		bl	chThdGetPriorityX
ARM GAS  /tmp/ccbyuM1m.s 			page 26


 1384 000c 0300     		movs	r3, r0
 1385 000e 5A1D     		adds	r2, r3, #5
 1386 0010 4848     		ldr	r0, .L63+4
 1387 0012 A823     		movs	r3, #168
 1388 0014 5900     		lsls	r1, r3, #1
 1389 0016 0023     		movs	r3, #0
 1390 0018 0093     		str	r3, [sp]
 1391 001a 0300     		movs	r3, r0
 1392 001c 2000     		movs	r0, r4
 1393 001e FFF7FEFF 		bl	chThdCreateStatic
 1394 0022 0200     		movs	r2, r0
 1395 0024 444B     		ldr	r3, .L63+8
 1396 0026 1A60     		str	r2, [r3]
 1397              		.loc 7 361 0
 1398 0028 414B     		ldr	r3, .L63
 1399 002a 5C68     		ldr	r4, [r3, #4]
 1400 002c FFF7FEFF 		bl	chThdGetPriorityX
 1401 0030 0300     		movs	r3, r0
 1402 0032 1A1D     		adds	r2, r3, #4
 1403 0034 3F48     		ldr	r0, .L63+4
 1404 0036 A823     		movs	r3, #168
 1405 0038 5900     		lsls	r1, r3, #1
 1406 003a 0023     		movs	r3, #0
 1407 003c 0093     		str	r3, [sp]
 1408 003e 0300     		movs	r3, r0
 1409 0040 2000     		movs	r0, r4
 1410 0042 FFF7FEFF 		bl	chThdCreateStatic
 1411 0046 0200     		movs	r2, r0
 1412 0048 3B4B     		ldr	r3, .L63+8
 1413 004a 5A60     		str	r2, [r3, #4]
 1414              		.loc 7 362 0
 1415 004c 384B     		ldr	r3, .L63
 1416 004e 9C68     		ldr	r4, [r3, #8]
 1417 0050 FFF7FEFF 		bl	chThdGetPriorityX
 1418 0054 0300     		movs	r3, r0
 1419 0056 DA1C     		adds	r2, r3, #3
 1420 0058 3648     		ldr	r0, .L63+4
 1421 005a A823     		movs	r3, #168
 1422 005c 5900     		lsls	r1, r3, #1
 1423 005e 0023     		movs	r3, #0
 1424 0060 0093     		str	r3, [sp]
 1425 0062 0300     		movs	r3, r0
 1426 0064 2000     		movs	r0, r4
 1427 0066 FFF7FEFF 		bl	chThdCreateStatic
 1428 006a 0200     		movs	r2, r0
 1429 006c 324B     		ldr	r3, .L63+8
 1430 006e 9A60     		str	r2, [r3, #8]
 1431              		.loc 7 363 0
 1432 0070 2F4B     		ldr	r3, .L63
 1433 0072 DC68     		ldr	r4, [r3, #12]
 1434 0074 FFF7FEFF 		bl	chThdGetPriorityX
 1435 0078 0300     		movs	r3, r0
 1436 007a 9A1C     		adds	r2, r3, #2
 1437 007c 2D48     		ldr	r0, .L63+4
 1438 007e A823     		movs	r3, #168
 1439 0080 5900     		lsls	r1, r3, #1
 1440 0082 0023     		movs	r3, #0
ARM GAS  /tmp/ccbyuM1m.s 			page 27


 1441 0084 0093     		str	r3, [sp]
 1442 0086 0300     		movs	r3, r0
 1443 0088 2000     		movs	r0, r4
 1444 008a FFF7FEFF 		bl	chThdCreateStatic
 1445 008e 0200     		movs	r2, r0
 1446 0090 294B     		ldr	r3, .L63+8
 1447 0092 DA60     		str	r2, [r3, #12]
 1448              		.loc 7 364 0
 1449 0094 264B     		ldr	r3, .L63
 1450 0096 1C69     		ldr	r4, [r3, #16]
 1451 0098 FFF7FEFF 		bl	chThdGetPriorityX
 1452 009c 0300     		movs	r3, r0
 1453 009e 5A1C     		adds	r2, r3, #1
 1454 00a0 2448     		ldr	r0, .L63+4
 1455 00a2 A823     		movs	r3, #168
 1456 00a4 5900     		lsls	r1, r3, #1
 1457 00a6 0023     		movs	r3, #0
 1458 00a8 0093     		str	r3, [sp]
 1459 00aa 0300     		movs	r3, r0
 1460 00ac 2000     		movs	r0, r4
 1461 00ae FFF7FEFF 		bl	chThdCreateStatic
 1462 00b2 0200     		movs	r2, r0
 1463 00b4 204B     		ldr	r3, .L63+8
 1464 00b6 1A61     		str	r2, [r3, #16]
 1465              		.loc 7 366 0
 1466 00b8 0023     		movs	r3, #0
 1467 00ba 0393     		str	r3, [sp, #12]
 1468              		.loc 7 367 0
 1469 00bc FFF7FEFF 		bl	test_wait_tick
 1470              		.loc 7 368 0
 1471 00c0 FA23     		movs	r3, #250
 1472 00c2 9B00     		lsls	r3, r3, #2
 1473 00c4 1800     		movs	r0, r3
 1474 00c6 FFF7FEFF 		bl	test_start_timer
 1475              	.L62:
 1476              		.loc 7 370 0 discriminator 1
 1477 00ca 1C4B     		ldr	r3, .L63+12
 1478 00cc 0021     		movs	r1, #0
 1479 00ce 1800     		movs	r0, r3
 1480 00d0 FFF7FEFF 		bl	chSemReset
 1481              		.loc 7 371 0 discriminator 1
 1482 00d4 039B     		ldr	r3, [sp, #12]
 1483 00d6 0133     		adds	r3, r3, #1
 1484 00d8 0393     		str	r3, [sp, #12]
 1485              		.loc 7 375 0 discriminator 1
 1486 00da 194B     		ldr	r3, .L63+16
 1487 00dc 1B78     		ldrb	r3, [r3]
 1488 00de 0122     		movs	r2, #1
 1489 00e0 5340     		eors	r3, r2
 1490 00e2 DBB2     		uxtb	r3, r3
 1491 00e4 002B     		cmp	r3, #0
 1492 00e6 F0D1     		bne	.L62
 1493              		.loc 7 376 0
 1494 00e8 FFF7FEFF 		bl	test_terminate_threads
 1495              		.loc 7 377 0
 1496 00ec 134B     		ldr	r3, .L63+12
 1497 00ee 0021     		movs	r1, #0
ARM GAS  /tmp/ccbyuM1m.s 			page 28


 1498 00f0 1800     		movs	r0, r3
 1499 00f2 FFF7FEFF 		bl	chSemReset
 1500              		.loc 7 378 0
 1501 00f6 FFF7FEFF 		bl	test_wait_threads
 1502              		.loc 7 380 0
 1503 00fa 124B     		ldr	r3, .L63+20
 1504 00fc 1800     		movs	r0, r3
 1505 00fe FFF7FEFF 		bl	test_print
 1506              		.loc 7 381 0
 1507 0102 039B     		ldr	r3, [sp, #12]
 1508 0104 1800     		movs	r0, r3
 1509 0106 FFF7FEFF 		bl	test_printn
 1510              		.loc 7 382 0
 1511 010a 0F4B     		ldr	r3, .L63+24
 1512 010c 1800     		movs	r0, r3
 1513 010e FFF7FEFF 		bl	test_print
 1514              		.loc 7 383 0
 1515 0112 039A     		ldr	r2, [sp, #12]
 1516 0114 1300     		movs	r3, r2
 1517 0116 5B00     		lsls	r3, r3, #1
 1518 0118 9B18     		adds	r3, r3, r2
 1519 011a 5B00     		lsls	r3, r3, #1
 1520 011c 1800     		movs	r0, r3
 1521 011e FFF7FEFF 		bl	test_printn
 1522              		.loc 7 384 0
 1523 0122 0A4B     		ldr	r3, .L63+28
 1524 0124 1800     		movs	r0, r3
 1525 0126 FFF7FEFF 		bl	test_println
 1526              		.loc 7 385 0
 1527 012a C046     		nop
 1528 012c 04B0     		add	sp, sp, #16
 1529              		@ sp needed
 1530 012e 10BD     		pop	{r4, pc}
 1531              	.L64:
 1532              		.align	2
 1533              	.L63:
 1534 0130 00000000 		.word	wa
 1535 0134 00000000 		.word	thread3
 1536 0138 00000000 		.word	threads
 1537 013c 00000000 		.word	sem1
 1538 0140 00000000 		.word	test_timer_done
 1539 0144 00000000 		.word	.LC7
 1540 0148 D8000000 		.word	.LC57
 1541 014c 1C000000 		.word	.LC11
 1542              		.cfi_endproc
 1543              	.LFE164:
 1544              		.size	bmk7_execute, .-bmk7_execute
 1545              		.global	testbmk7
 1546              		.section	.rodata
 1547 00e9 000000   		.align	2
 1548              	.LC60:
 1549 00ec 42656E63 		.ascii	"Benchmark, mass reschedule, 5 threads\000"
 1549      686D6172 
 1549      6B2C206D 
 1549      61737320 
 1549      72657363 
 1550              		.section	.rodata.testbmk7,"a",%progbits
ARM GAS  /tmp/ccbyuM1m.s 			page 29


 1551              		.align	2
 1552              		.type	testbmk7, %object
 1553              		.size	testbmk7, 16
 1554              	testbmk7:
 1555 0000 EC000000 		.word	.LC60
 1556 0004 00000000 		.word	bmk7_setup
 1557 0008 00000000 		.word	0
 1558 000c 00000000 		.word	bmk7_execute
 1559              		.section	.text.thread8,"ax",%progbits
 1560              		.align	1
 1561              		.p2align 4,,15
 1562              		.syntax unified
 1563              		.code	16
 1564              		.thumb_func
 1565              		.fpu softvfp
 1566              		.type	thread8, %function
 1567              	thread8:
 1568              	.LFB165:
 1569              		.loc 7 405 0
 1570              		.cfi_startproc
 1571              		@ args = 0, pretend = 0, frame = 8
 1572              		@ frame_needed = 0, uses_anonymous_args = 0
 1573 0000 00B5     		push	{lr}
 1574              		.cfi_def_cfa_offset 4
 1575              		.cfi_offset 14, -4
 1576 0002 83B0     		sub	sp, sp, #12
 1577              		.cfi_def_cfa_offset 16
 1578 0004 0190     		str	r0, [sp, #4]
 1579              	.L66:
 1580              		.loc 7 408 0 discriminator 1
 1581 0006 FFF7FEFF 		bl	chThdYield
 1582              		.loc 7 409 0 discriminator 1
 1583 000a FFF7FEFF 		bl	chThdYield
 1584              		.loc 7 410 0 discriminator 1
 1585 000e FFF7FEFF 		bl	chThdYield
 1586              		.loc 7 411 0 discriminator 1
 1587 0012 FFF7FEFF 		bl	chThdYield
 1588              		.loc 7 412 0 discriminator 1
 1589 0016 019B     		ldr	r3, [sp, #4]
 1590 0018 1B68     		ldr	r3, [r3]
 1591 001a 1A1D     		adds	r2, r3, #4
 1592 001c 019B     		ldr	r3, [sp, #4]
 1593 001e 1A60     		str	r2, [r3]
 1594              		.loc 7 416 0 discriminator 1
 1595 0020 FFF7FEFF 		bl	chThdShouldTerminateX
 1596 0024 0300     		movs	r3, r0
 1597 0026 1A00     		movs	r2, r3
 1598 0028 0123     		movs	r3, #1
 1599 002a 5340     		eors	r3, r2
 1600 002c DBB2     		uxtb	r3, r3
 1601 002e 002B     		cmp	r3, #0
 1602 0030 E9D1     		bne	.L66
 1603              		.loc 7 417 0
 1604 0032 C046     		nop
 1605 0034 03B0     		add	sp, sp, #12
 1606              		@ sp needed
 1607 0036 00BD     		pop	{pc}
ARM GAS  /tmp/ccbyuM1m.s 			page 30


 1608              		.cfi_endproc
 1609              	.LFE165:
 1610              		.size	thread8, .-thread8
 1611              		.section	.text.bmk8_execute,"ax",%progbits
 1612              		.align	1
 1613              		.p2align 4,,15
 1614              		.syntax unified
 1615              		.code	16
 1616              		.thumb_func
 1617              		.fpu softvfp
 1618              		.type	bmk8_execute, %function
 1619              	bmk8_execute:
 1620              	.LFB166:
 1621              		.loc 7 419 0
 1622              		.cfi_startproc
 1623              		@ args = 0, pretend = 0, frame = 8
 1624              		@ frame_needed = 0, uses_anonymous_args = 0
 1625 0000 10B5     		push	{r4, lr}
 1626              		.cfi_def_cfa_offset 8
 1627              		.cfi_offset 4, -8
 1628              		.cfi_offset 14, -4
 1629 0002 84B0     		sub	sp, sp, #16
 1630              		.cfi_def_cfa_offset 24
 1631              		.loc 7 422 0
 1632 0004 0023     		movs	r3, #0
 1633 0006 0393     		str	r3, [sp, #12]
 1634              		.loc 7 423 0
 1635 0008 FFF7FEFF 		bl	test_wait_tick
 1636              		.loc 7 425 0
 1637 000c 384B     		ldr	r3, .L68
 1638 000e 1C68     		ldr	r4, [r3]
 1639 0010 FFF7FEFF 		bl	chThdGetPriorityX
 1640 0014 0300     		movs	r3, r0
 1641 0016 5A1E     		subs	r2, r3, #1
 1642 0018 3648     		ldr	r0, .L68+4
 1643 001a A823     		movs	r3, #168
 1644 001c 5900     		lsls	r1, r3, #1
 1645 001e 03AB     		add	r3, sp, #12
 1646 0020 0093     		str	r3, [sp]
 1647 0022 0300     		movs	r3, r0
 1648 0024 2000     		movs	r0, r4
 1649 0026 FFF7FEFF 		bl	chThdCreateStatic
 1650 002a 0200     		movs	r2, r0
 1651 002c 324B     		ldr	r3, .L68+8
 1652 002e 1A60     		str	r2, [r3]
 1653              		.loc 7 426 0
 1654 0030 2F4B     		ldr	r3, .L68
 1655 0032 5C68     		ldr	r4, [r3, #4]
 1656 0034 FFF7FEFF 		bl	chThdGetPriorityX
 1657 0038 0300     		movs	r3, r0
 1658 003a 5A1E     		subs	r2, r3, #1
 1659 003c 2D48     		ldr	r0, .L68+4
 1660 003e A823     		movs	r3, #168
 1661 0040 5900     		lsls	r1, r3, #1
 1662 0042 03AB     		add	r3, sp, #12
 1663 0044 0093     		str	r3, [sp]
 1664 0046 0300     		movs	r3, r0
ARM GAS  /tmp/ccbyuM1m.s 			page 31


 1665 0048 2000     		movs	r0, r4
 1666 004a FFF7FEFF 		bl	chThdCreateStatic
 1667 004e 0200     		movs	r2, r0
 1668 0050 294B     		ldr	r3, .L68+8
 1669 0052 5A60     		str	r2, [r3, #4]
 1670              		.loc 7 427 0
 1671 0054 264B     		ldr	r3, .L68
 1672 0056 9C68     		ldr	r4, [r3, #8]
 1673 0058 FFF7FEFF 		bl	chThdGetPriorityX
 1674 005c 0300     		movs	r3, r0
 1675 005e 5A1E     		subs	r2, r3, #1
 1676 0060 2448     		ldr	r0, .L68+4
 1677 0062 A823     		movs	r3, #168
 1678 0064 5900     		lsls	r1, r3, #1
 1679 0066 03AB     		add	r3, sp, #12
 1680 0068 0093     		str	r3, [sp]
 1681 006a 0300     		movs	r3, r0
 1682 006c 2000     		movs	r0, r4
 1683 006e FFF7FEFF 		bl	chThdCreateStatic
 1684 0072 0200     		movs	r2, r0
 1685 0074 204B     		ldr	r3, .L68+8
 1686 0076 9A60     		str	r2, [r3, #8]
 1687              		.loc 7 428 0
 1688 0078 1D4B     		ldr	r3, .L68
 1689 007a DC68     		ldr	r4, [r3, #12]
 1690 007c FFF7FEFF 		bl	chThdGetPriorityX
 1691 0080 0300     		movs	r3, r0
 1692 0082 5A1E     		subs	r2, r3, #1
 1693 0084 1B48     		ldr	r0, .L68+4
 1694 0086 A823     		movs	r3, #168
 1695 0088 5900     		lsls	r1, r3, #1
 1696 008a 03AB     		add	r3, sp, #12
 1697 008c 0093     		str	r3, [sp]
 1698 008e 0300     		movs	r3, r0
 1699 0090 2000     		movs	r0, r4
 1700 0092 FFF7FEFF 		bl	chThdCreateStatic
 1701 0096 0200     		movs	r2, r0
 1702 0098 174B     		ldr	r3, .L68+8
 1703 009a DA60     		str	r2, [r3, #12]
 1704              		.loc 7 429 0
 1705 009c 144B     		ldr	r3, .L68
 1706 009e 1C69     		ldr	r4, [r3, #16]
 1707 00a0 FFF7FEFF 		bl	chThdGetPriorityX
 1708 00a4 0300     		movs	r3, r0
 1709 00a6 5A1E     		subs	r2, r3, #1
 1710 00a8 1248     		ldr	r0, .L68+4
 1711 00aa A823     		movs	r3, #168
 1712 00ac 5900     		lsls	r1, r3, #1
 1713 00ae 03AB     		add	r3, sp, #12
 1714 00b0 0093     		str	r3, [sp]
 1715 00b2 0300     		movs	r3, r0
 1716 00b4 2000     		movs	r0, r4
 1717 00b6 FFF7FEFF 		bl	chThdCreateStatic
 1718 00ba 0200     		movs	r2, r0
 1719 00bc 0E4B     		ldr	r3, .L68+8
 1720 00be 1A61     		str	r2, [r3, #16]
 1721              		.loc 7 431 0
ARM GAS  /tmp/ccbyuM1m.s 			page 32


 1722 00c0 0E4B     		ldr	r3, .L68+12
 1723 00c2 1800     		movs	r0, r3
 1724 00c4 FFF7FEFF 		bl	chThdSleep
 1725              		.loc 7 432 0
 1726 00c8 FFF7FEFF 		bl	test_terminate_threads
 1727              		.loc 7 433 0
 1728 00cc FFF7FEFF 		bl	test_wait_threads
 1729              		.loc 7 435 0
 1730 00d0 0B4B     		ldr	r3, .L68+16
 1731 00d2 1800     		movs	r0, r3
 1732 00d4 FFF7FEFF 		bl	test_print
 1733              		.loc 7 436 0
 1734 00d8 039B     		ldr	r3, [sp, #12]
 1735 00da 1800     		movs	r0, r3
 1736 00dc FFF7FEFF 		bl	test_printn
 1737              		.loc 7 437 0
 1738 00e0 084B     		ldr	r3, .L68+20
 1739 00e2 1800     		movs	r0, r3
 1740 00e4 FFF7FEFF 		bl	test_println
 1741              		.loc 7 438 0
 1742 00e8 C046     		nop
 1743 00ea 04B0     		add	sp, sp, #16
 1744              		@ sp needed
 1745 00ec 10BD     		pop	{r4, pc}
 1746              	.L69:
 1747 00ee C046     		.align	2
 1748              	.L68:
 1749 00f0 00000000 		.word	wa
 1750 00f4 00000000 		.word	thread8
 1751 00f8 00000000 		.word	threads
 1752 00fc 10270000 		.word	10000
 1753 0100 00000000 		.word	.LC7
 1754 0104 1C000000 		.word	.LC11
 1755              		.cfi_endproc
 1756              	.LFE166:
 1757              		.size	bmk8_execute, .-bmk8_execute
 1758              		.global	testbmk8
 1759              		.section	.rodata
 1760 0112 0000     		.align	2
 1761              	.LC66:
 1762 0114 42656E63 		.ascii	"Benchmark, round robin context switching\000"
 1762      686D6172 
 1762      6B2C2072 
 1762      6F756E64 
 1762      20726F62 
 1763              		.section	.rodata.testbmk8,"a",%progbits
 1764              		.align	2
 1765              		.type	testbmk8, %object
 1766              		.size	testbmk8, 16
 1767              	testbmk8:
 1768 0000 14010000 		.word	.LC66
 1769 0004 00000000 		.word	0
 1770 0008 00000000 		.word	0
 1771 000c 00000000 		.word	bmk8_execute
 1772              		.section	.rodata
 1773 013d 000000   		.align	2
 1774              	.LC71:
ARM GAS  /tmp/ccbyuM1m.s 			page 33


 1775 0140 20627974 		.ascii	" bytes/S\000"
 1775      65732F53 
 1775      00
 1776              		.section	.text.bmk9_execute,"ax",%progbits
 1777              		.align	1
 1778              		.p2align 4,,15
 1779              		.syntax unified
 1780              		.code	16
 1781              		.thumb_func
 1782              		.fpu softvfp
 1783              		.type	bmk9_execute, %function
 1784              	bmk9_execute:
 1785              	.LFB167:
 1786              		.loc 7 458 0
 1787              		.cfi_startproc
 1788              		@ args = 0, pretend = 0, frame = 8
 1789              		@ frame_needed = 0, uses_anonymous_args = 0
 1790 0000 00B5     		push	{lr}
 1791              		.cfi_def_cfa_offset 4
 1792              		.cfi_offset 14, -4
 1793 0002 85B0     		sub	sp, sp, #20
 1794              		.cfi_def_cfa_offset 24
 1795              		.loc 7 463 0
 1796 0004 2949     		ldr	r1, .L72
 1797 0006 2A48     		ldr	r0, .L72+4
 1798 0008 0023     		movs	r3, #0
 1799 000a 0093     		str	r3, [sp]
 1800 000c 0023     		movs	r3, #0
 1801 000e 1022     		movs	r2, #16
 1802 0010 FFF7FEFF 		bl	chIQObjectInit
 1803              		.loc 7 464 0
 1804 0014 0023     		movs	r3, #0
 1805 0016 0393     		str	r3, [sp, #12]
 1806              		.loc 7 465 0
 1807 0018 FFF7FEFF 		bl	test_wait_tick
 1808              		.loc 7 466 0
 1809 001c FA23     		movs	r3, #250
 1810 001e 9B00     		lsls	r3, r3, #2
 1811 0020 1800     		movs	r0, r3
 1812 0022 FFF7FEFF 		bl	test_start_timer
 1813              	.L71:
 1814              		.loc 7 468 0 discriminator 1
 1815 0026 FFF7FEFF 		bl	chSysLock
 1816              		.loc 7 469 0 discriminator 1
 1817 002a 214B     		ldr	r3, .L72+4
 1818 002c 0021     		movs	r1, #0
 1819 002e 1800     		movs	r0, r3
 1820 0030 FFF7FEFF 		bl	chIQPutI
 1821              		.loc 7 470 0 discriminator 1
 1822 0034 1E4B     		ldr	r3, .L72+4
 1823 0036 0121     		movs	r1, #1
 1824 0038 1800     		movs	r0, r3
 1825 003a FFF7FEFF 		bl	chIQPutI
 1826              		.loc 7 471 0 discriminator 1
 1827 003e 1C4B     		ldr	r3, .L72+4
 1828 0040 0221     		movs	r1, #2
 1829 0042 1800     		movs	r0, r3
ARM GAS  /tmp/ccbyuM1m.s 			page 34


 1830 0044 FFF7FEFF 		bl	chIQPutI
 1831              		.loc 7 472 0 discriminator 1
 1832 0048 194B     		ldr	r3, .L72+4
 1833 004a 0321     		movs	r1, #3
 1834 004c 1800     		movs	r0, r3
 1835 004e FFF7FEFF 		bl	chIQPutI
 1836              		.loc 7 473 0 discriminator 1
 1837 0052 FFF7FEFF 		bl	chSysUnlock
 1838              		.loc 7 474 0 discriminator 1
 1839 0056 164B     		ldr	r3, .L72+4
 1840 0058 1800     		movs	r0, r3
 1841 005a FFF7FEFF 		bl	chIQGet
 1842              		.loc 7 475 0 discriminator 1
 1843 005e 144B     		ldr	r3, .L72+4
 1844 0060 1800     		movs	r0, r3
 1845 0062 FFF7FEFF 		bl	chIQGet
 1846              		.loc 7 476 0 discriminator 1
 1847 0066 124B     		ldr	r3, .L72+4
 1848 0068 1800     		movs	r0, r3
 1849 006a FFF7FEFF 		bl	chIQGet
 1850              		.loc 7 477 0 discriminator 1
 1851 006e 104B     		ldr	r3, .L72+4
 1852 0070 1800     		movs	r0, r3
 1853 0072 FFF7FEFF 		bl	chIQGet
 1854              		.loc 7 478 0 discriminator 1
 1855 0076 039B     		ldr	r3, [sp, #12]
 1856 0078 0133     		adds	r3, r3, #1
 1857 007a 0393     		str	r3, [sp, #12]
 1858              		.loc 7 482 0 discriminator 1
 1859 007c 0D4B     		ldr	r3, .L72+8
 1860 007e 1B78     		ldrb	r3, [r3]
 1861 0080 0122     		movs	r2, #1
 1862 0082 5340     		eors	r3, r2
 1863 0084 DBB2     		uxtb	r3, r3
 1864 0086 002B     		cmp	r3, #0
 1865 0088 CDD1     		bne	.L71
 1866              		.loc 7 483 0
 1867 008a 0B4B     		ldr	r3, .L72+12
 1868 008c 1800     		movs	r0, r3
 1869 008e FFF7FEFF 		bl	test_print
 1870              		.loc 7 484 0
 1871 0092 039B     		ldr	r3, [sp, #12]
 1872 0094 9B00     		lsls	r3, r3, #2
 1873 0096 1800     		movs	r0, r3
 1874 0098 FFF7FEFF 		bl	test_printn
 1875              		.loc 7 485 0
 1876 009c 074B     		ldr	r3, .L72+16
 1877 009e 1800     		movs	r0, r3
 1878 00a0 FFF7FEFF 		bl	test_println
 1879              		.loc 7 486 0
 1880 00a4 C046     		nop
 1881 00a6 05B0     		add	sp, sp, #20
 1882              		@ sp needed
 1883 00a8 00BD     		pop	{pc}
 1884              	.L73:
 1885 00aa C046     		.align	2
 1886              	.L72:
ARM GAS  /tmp/ccbyuM1m.s 			page 35


 1887 00ac 00000000 		.word	ib.5841
 1888 00b0 00000000 		.word	iq.5842
 1889 00b4 00000000 		.word	test_timer_done
 1890 00b8 00000000 		.word	.LC7
 1891 00bc 40010000 		.word	.LC71
 1892              		.cfi_endproc
 1893              	.LFE167:
 1894              		.size	bmk9_execute, .-bmk9_execute
 1895              		.global	testbmk9
 1896              		.section	.rodata
 1897 0149 000000   		.align	2
 1898              	.LC73:
 1899 014c 42656E63 		.ascii	"Benchmark, I/O Queues throughput\000"
 1899      686D6172 
 1899      6B2C2049 
 1899      2F4F2051 
 1899      75657565 
 1900              		.section	.rodata.testbmk9,"a",%progbits
 1901              		.align	2
 1902              		.type	testbmk9, %object
 1903              		.size	testbmk9, 16
 1904              	testbmk9:
 1905 0000 4C010000 		.word	.LC73
 1906 0004 00000000 		.word	0
 1907 0008 00000000 		.word	0
 1908 000c 00000000 		.word	bmk9_execute
 1909              		.section	.text.tmo,"ax",%progbits
 1910              		.align	1
 1911              		.p2align 4,,15
 1912              		.syntax unified
 1913              		.code	16
 1914              		.thumb_func
 1915              		.fpu softvfp
 1916              		.type	tmo, %function
 1917              	tmo:
 1918              	.LFB168:
 1919              		.loc 7 505 0
 1920              		.cfi_startproc
 1921              		@ args = 0, pretend = 0, frame = 8
 1922              		@ frame_needed = 0, uses_anonymous_args = 0
 1923              		@ link register save eliminated.
 1924 0000 82B0     		sub	sp, sp, #8
 1925              		.cfi_def_cfa_offset 8
 1926 0002 0190     		str	r0, [sp, #4]
 1927              		.loc 7 505 0
 1928 0004 C046     		nop
 1929 0006 02B0     		add	sp, sp, #8
 1930              		@ sp needed
 1931 0008 7047     		bx	lr
 1932              		.cfi_endproc
 1933              	.LFE168:
 1934              		.size	tmo, .-tmo
 1935 000a C046     		.section	.rodata
 1936 016d 000000   		.align	2
 1937              	.LC79:
 1938 0170 2074696D 		.ascii	" timers/S\000"
 1938      6572732F 
ARM GAS  /tmp/ccbyuM1m.s 			page 36


 1938      5300
 1939              		.section	.text.bmk10_execute,"ax",%progbits
 1940              		.align	1
 1941              		.p2align 4,,15
 1942              		.syntax unified
 1943              		.code	16
 1944              		.thumb_func
 1945              		.fpu softvfp
 1946              		.type	bmk10_execute, %function
 1947              	bmk10_execute:
 1948              	.LFB169:
 1949              		.loc 7 507 0
 1950              		.cfi_startproc
 1951              		@ args = 0, pretend = 0, frame = 8
 1952              		@ frame_needed = 0, uses_anonymous_args = 0
 1953 0000 00B5     		push	{lr}
 1954              		.cfi_def_cfa_offset 4
 1955              		.cfi_offset 14, -4
 1956 0002 83B0     		sub	sp, sp, #12
 1957              		.cfi_def_cfa_offset 16
 1958              		.loc 7 509 0
 1959 0004 0023     		movs	r3, #0
 1960 0006 0193     		str	r3, [sp, #4]
 1961              		.loc 7 511 0
 1962 0008 FFF7FEFF 		bl	test_wait_tick
 1963              		.loc 7 512 0
 1964 000c FA23     		movs	r3, #250
 1965 000e 9B00     		lsls	r3, r3, #2
 1966 0010 1800     		movs	r0, r3
 1967 0012 FFF7FEFF 		bl	test_start_timer
 1968              	.L76:
 1969              		.loc 7 514 0 discriminator 1
 1970 0016 FFF7FEFF 		bl	chSysLock
 1971              		.loc 7 515 0 discriminator 1
 1972 001a 184A     		ldr	r2, .L77
 1973 001c 1848     		ldr	r0, .L77+4
 1974 001e 0023     		movs	r3, #0
 1975 0020 0121     		movs	r1, #1
 1976 0022 FFF7FEFF 		bl	chVTDoSetI
 1977              		.loc 7 516 0 discriminator 1
 1978 0026 154A     		ldr	r2, .L77
 1979 0028 1649     		ldr	r1, .L77+8
 1980 002a 1748     		ldr	r0, .L77+12
 1981 002c 0023     		movs	r3, #0
 1982 002e FFF7FEFF 		bl	chVTDoSetI
 1983              		.loc 7 517 0 discriminator 1
 1984 0032 134B     		ldr	r3, .L77+4
 1985 0034 1800     		movs	r0, r3
 1986 0036 FFF7FEFF 		bl	chVTDoResetI
 1987              		.loc 7 518 0 discriminator 1
 1988 003a 134B     		ldr	r3, .L77+12
 1989 003c 1800     		movs	r0, r3
 1990 003e FFF7FEFF 		bl	chVTDoResetI
 1991              		.loc 7 519 0 discriminator 1
 1992 0042 FFF7FEFF 		bl	chSysUnlock
 1993              		.loc 7 520 0 discriminator 1
 1994 0046 019B     		ldr	r3, [sp, #4]
ARM GAS  /tmp/ccbyuM1m.s 			page 37


 1995 0048 0133     		adds	r3, r3, #1
 1996 004a 0193     		str	r3, [sp, #4]
 1997              		.loc 7 524 0 discriminator 1
 1998 004c 0F4B     		ldr	r3, .L77+16
 1999 004e 1B78     		ldrb	r3, [r3]
 2000 0050 0122     		movs	r2, #1
 2001 0052 5340     		eors	r3, r2
 2002 0054 DBB2     		uxtb	r3, r3
 2003 0056 002B     		cmp	r3, #0
 2004 0058 DDD1     		bne	.L76
 2005              		.loc 7 525 0
 2006 005a 0D4B     		ldr	r3, .L77+20
 2007 005c 1800     		movs	r0, r3
 2008 005e FFF7FEFF 		bl	test_print
 2009              		.loc 7 526 0
 2010 0062 019B     		ldr	r3, [sp, #4]
 2011 0064 5B00     		lsls	r3, r3, #1
 2012 0066 1800     		movs	r0, r3
 2013 0068 FFF7FEFF 		bl	test_printn
 2014              		.loc 7 527 0
 2015 006c 094B     		ldr	r3, .L77+24
 2016 006e 1800     		movs	r0, r3
 2017 0070 FFF7FEFF 		bl	test_println
 2018              		.loc 7 528 0
 2019 0074 C046     		nop
 2020 0076 03B0     		add	sp, sp, #12
 2021              		@ sp needed
 2022 0078 00BD     		pop	{pc}
 2023              	.L78:
 2024 007a C046     		.align	2
 2025              	.L77:
 2026 007c 00000000 		.word	tmo
 2027 0080 00000000 		.word	vt1.5852
 2028 0084 10270000 		.word	10000
 2029 0088 00000000 		.word	vt2.5853
 2030 008c 00000000 		.word	test_timer_done
 2031 0090 00000000 		.word	.LC7
 2032 0094 70010000 		.word	.LC79
 2033              		.cfi_endproc
 2034              	.LFE169:
 2035              		.size	bmk10_execute, .-bmk10_execute
 2036              		.global	testbmk10
 2037              		.section	.rodata
 2038 017a 0000     		.align	2
 2039              	.LC81:
 2040 017c 42656E63 		.ascii	"Benchmark, virtual timers set/reset\000"
 2040      686D6172 
 2040      6B2C2076 
 2040      69727475 
 2040      616C2074 
 2041              		.section	.rodata.testbmk10,"a",%progbits
 2042              		.align	2
 2043              		.type	testbmk10, %object
 2044              		.size	testbmk10, 16
 2045              	testbmk10:
 2046 0000 7C010000 		.word	.LC81
 2047 0004 00000000 		.word	0
ARM GAS  /tmp/ccbyuM1m.s 			page 38


 2048 0008 00000000 		.word	0
 2049 000c 00000000 		.word	bmk10_execute
 2050              		.section	.text.bmk11_setup,"ax",%progbits
 2051              		.align	1
 2052              		.p2align 4,,15
 2053              		.syntax unified
 2054              		.code	16
 2055              		.thumb_func
 2056              		.fpu softvfp
 2057              		.type	bmk11_setup, %function
 2058              	bmk11_setup:
 2059              	.LFB170:
 2060              		.loc 7 548 0
 2061              		.cfi_startproc
 2062              		@ args = 0, pretend = 0, frame = 0
 2063              		@ frame_needed = 0, uses_anonymous_args = 0
 2064 0000 10B5     		push	{r4, lr}
 2065              		.cfi_def_cfa_offset 8
 2066              		.cfi_offset 4, -8
 2067              		.cfi_offset 14, -4
 2068              		.loc 7 550 0
 2069 0002 034B     		ldr	r3, .L80
 2070 0004 0121     		movs	r1, #1
 2071 0006 1800     		movs	r0, r3
 2072 0008 FFF7FEFF 		bl	chSemObjectInit
 2073              		.loc 7 551 0
 2074 000c C046     		nop
 2075              		@ sp needed
 2076 000e 10BD     		pop	{r4, pc}
 2077              	.L81:
 2078              		.align	2
 2079              	.L80:
 2080 0010 00000000 		.word	sem1
 2081              		.cfi_endproc
 2082              	.LFE170:
 2083              		.size	bmk11_setup, .-bmk11_setup
 2084              		.section	.rodata
 2085              		.align	2
 2086              	.LC86:
 2087 01a0 20776169 		.ascii	" wait+signal/S\000"
 2087      742B7369 
 2087      676E616C 
 2087      2F5300
 2088              		.section	.text.bmk11_execute,"ax",%progbits
 2089              		.align	1
 2090              		.p2align 4,,15
 2091              		.syntax unified
 2092              		.code	16
 2093              		.thumb_func
 2094              		.fpu softvfp
 2095              		.type	bmk11_execute, %function
 2096              	bmk11_execute:
 2097              	.LFB171:
 2098              		.loc 7 553 0
 2099              		.cfi_startproc
 2100              		@ args = 0, pretend = 0, frame = 8
 2101              		@ frame_needed = 0, uses_anonymous_args = 0
ARM GAS  /tmp/ccbyuM1m.s 			page 39


 2102 0000 00B5     		push	{lr}
 2103              		.cfi_def_cfa_offset 4
 2104              		.cfi_offset 14, -4
 2105 0002 83B0     		sub	sp, sp, #12
 2106              		.cfi_def_cfa_offset 16
 2107              		.loc 7 554 0
 2108 0004 0023     		movs	r3, #0
 2109 0006 0193     		str	r3, [sp, #4]
 2110              		.loc 7 556 0
 2111 0008 FFF7FEFF 		bl	test_wait_tick
 2112              		.loc 7 557 0
 2113 000c FA23     		movs	r3, #250
 2114 000e 9B00     		lsls	r3, r3, #2
 2115 0010 1800     		movs	r0, r3
 2116 0012 FFF7FEFF 		bl	test_start_timer
 2117              	.L83:
 2118              		.loc 7 559 0 discriminator 1
 2119 0016 1D4B     		ldr	r3, .L84
 2120 0018 1800     		movs	r0, r3
 2121 001a FFF7FEFF 		bl	chSemWait
 2122              		.loc 7 560 0 discriminator 1
 2123 001e 1B4B     		ldr	r3, .L84
 2124 0020 1800     		movs	r0, r3
 2125 0022 FFF7FEFF 		bl	chSemSignal
 2126              		.loc 7 561 0 discriminator 1
 2127 0026 194B     		ldr	r3, .L84
 2128 0028 1800     		movs	r0, r3
 2129 002a FFF7FEFF 		bl	chSemWait
 2130              		.loc 7 562 0 discriminator 1
 2131 002e 174B     		ldr	r3, .L84
 2132 0030 1800     		movs	r0, r3
 2133 0032 FFF7FEFF 		bl	chSemSignal
 2134              		.loc 7 563 0 discriminator 1
 2135 0036 154B     		ldr	r3, .L84
 2136 0038 1800     		movs	r0, r3
 2137 003a FFF7FEFF 		bl	chSemWait
 2138              		.loc 7 564 0 discriminator 1
 2139 003e 134B     		ldr	r3, .L84
 2140 0040 1800     		movs	r0, r3
 2141 0042 FFF7FEFF 		bl	chSemSignal
 2142              		.loc 7 565 0 discriminator 1
 2143 0046 114B     		ldr	r3, .L84
 2144 0048 1800     		movs	r0, r3
 2145 004a FFF7FEFF 		bl	chSemWait
 2146              		.loc 7 566 0 discriminator 1
 2147 004e 0F4B     		ldr	r3, .L84
 2148 0050 1800     		movs	r0, r3
 2149 0052 FFF7FEFF 		bl	chSemSignal
 2150              		.loc 7 567 0 discriminator 1
 2151 0056 019B     		ldr	r3, [sp, #4]
 2152 0058 0133     		adds	r3, r3, #1
 2153 005a 0193     		str	r3, [sp, #4]
 2154              		.loc 7 571 0 discriminator 1
 2155 005c 0C4B     		ldr	r3, .L84+4
 2156 005e 1B78     		ldrb	r3, [r3]
 2157 0060 0122     		movs	r2, #1
 2158 0062 5340     		eors	r3, r2
ARM GAS  /tmp/ccbyuM1m.s 			page 40


 2159 0064 DBB2     		uxtb	r3, r3
 2160 0066 002B     		cmp	r3, #0
 2161 0068 D5D1     		bne	.L83
 2162              		.loc 7 572 0
 2163 006a 0A4B     		ldr	r3, .L84+8
 2164 006c 1800     		movs	r0, r3
 2165 006e FFF7FEFF 		bl	test_print
 2166              		.loc 7 573 0
 2167 0072 019B     		ldr	r3, [sp, #4]
 2168 0074 9B00     		lsls	r3, r3, #2
 2169 0076 1800     		movs	r0, r3
 2170 0078 FFF7FEFF 		bl	test_printn
 2171              		.loc 7 574 0
 2172 007c 064B     		ldr	r3, .L84+12
 2173 007e 1800     		movs	r0, r3
 2174 0080 FFF7FEFF 		bl	test_println
 2175              		.loc 7 575 0
 2176 0084 C046     		nop
 2177 0086 03B0     		add	sp, sp, #12
 2178              		@ sp needed
 2179 0088 00BD     		pop	{pc}
 2180              	.L85:
 2181 008a C046     		.align	2
 2182              	.L84:
 2183 008c 00000000 		.word	sem1
 2184 0090 00000000 		.word	test_timer_done
 2185 0094 00000000 		.word	.LC7
 2186 0098 A0010000 		.word	.LC86
 2187              		.cfi_endproc
 2188              	.LFE171:
 2189              		.size	bmk11_execute, .-bmk11_execute
 2190              		.global	testbmk11
 2191              		.section	.rodata
 2192 01af 00       		.align	2
 2193              	.LC88:
 2194 01b0 42656E63 		.ascii	"Benchmark, semaphores wait/signal\000"
 2194      686D6172 
 2194      6B2C2073 
 2194      656D6170 
 2194      686F7265 
 2195              		.section	.rodata.testbmk11,"a",%progbits
 2196              		.align	2
 2197              		.type	testbmk11, %object
 2198              		.size	testbmk11, 16
 2199              	testbmk11:
 2200 0000 B0010000 		.word	.LC88
 2201 0004 00000000 		.word	bmk11_setup
 2202 0008 00000000 		.word	0
 2203 000c 00000000 		.word	bmk11_execute
 2204              		.section	.text.bmk12_setup,"ax",%progbits
 2205              		.align	1
 2206              		.p2align 4,,15
 2207              		.syntax unified
 2208              		.code	16
 2209              		.thumb_func
 2210              		.fpu softvfp
 2211              		.type	bmk12_setup, %function
ARM GAS  /tmp/ccbyuM1m.s 			page 41


 2212              	bmk12_setup:
 2213              	.LFB172:
 2214              		.loc 7 596 0
 2215              		.cfi_startproc
 2216              		@ args = 0, pretend = 0, frame = 0
 2217              		@ frame_needed = 0, uses_anonymous_args = 0
 2218 0000 10B5     		push	{r4, lr}
 2219              		.cfi_def_cfa_offset 8
 2220              		.cfi_offset 4, -8
 2221              		.cfi_offset 14, -4
 2222              		.loc 7 598 0
 2223 0002 034B     		ldr	r3, .L87
 2224 0004 1800     		movs	r0, r3
 2225 0006 FFF7FEFF 		bl	chMtxObjectInit
 2226              		.loc 7 599 0
 2227 000a C046     		nop
 2228              		@ sp needed
 2229 000c 10BD     		pop	{r4, pc}
 2230              	.L88:
 2231 000e C046     		.align	2
 2232              	.L87:
 2233 0010 00000000 		.word	mtx1
 2234              		.cfi_endproc
 2235              	.LFE172:
 2236              		.size	bmk12_setup, .-bmk12_setup
 2237              		.section	.rodata
 2238 01d2 0000     		.align	2
 2239              	.LC93:
 2240 01d4 206C6F63 		.ascii	" lock+unlock/S\000"
 2240      6B2B756E 
 2240      6C6F636B 
 2240      2F5300
 2241              		.section	.text.bmk12_execute,"ax",%progbits
 2242              		.align	1
 2243              		.p2align 4,,15
 2244              		.syntax unified
 2245              		.code	16
 2246              		.thumb_func
 2247              		.fpu softvfp
 2248              		.type	bmk12_execute, %function
 2249              	bmk12_execute:
 2250              	.LFB173:
 2251              		.loc 7 601 0
 2252              		.cfi_startproc
 2253              		@ args = 0, pretend = 0, frame = 8
 2254              		@ frame_needed = 0, uses_anonymous_args = 0
 2255 0000 00B5     		push	{lr}
 2256              		.cfi_def_cfa_offset 4
 2257              		.cfi_offset 14, -4
 2258 0002 83B0     		sub	sp, sp, #12
 2259              		.cfi_def_cfa_offset 16
 2260              		.loc 7 602 0
 2261 0004 0023     		movs	r3, #0
 2262 0006 0193     		str	r3, [sp, #4]
 2263              		.loc 7 604 0
 2264 0008 FFF7FEFF 		bl	test_wait_tick
 2265              		.loc 7 605 0
ARM GAS  /tmp/ccbyuM1m.s 			page 42


 2266 000c FA23     		movs	r3, #250
 2267 000e 9B00     		lsls	r3, r3, #2
 2268 0010 1800     		movs	r0, r3
 2269 0012 FFF7FEFF 		bl	test_start_timer
 2270              	.L90:
 2271              		.loc 7 607 0 discriminator 1
 2272 0016 1D4B     		ldr	r3, .L91
 2273 0018 1800     		movs	r0, r3
 2274 001a FFF7FEFF 		bl	chMtxLock
 2275              		.loc 7 608 0 discriminator 1
 2276 001e 1B4B     		ldr	r3, .L91
 2277 0020 1800     		movs	r0, r3
 2278 0022 FFF7FEFF 		bl	chMtxUnlock
 2279              		.loc 7 609 0 discriminator 1
 2280 0026 194B     		ldr	r3, .L91
 2281 0028 1800     		movs	r0, r3
 2282 002a FFF7FEFF 		bl	chMtxLock
 2283              		.loc 7 610 0 discriminator 1
 2284 002e 174B     		ldr	r3, .L91
 2285 0030 1800     		movs	r0, r3
 2286 0032 FFF7FEFF 		bl	chMtxUnlock
 2287              		.loc 7 611 0 discriminator 1
 2288 0036 154B     		ldr	r3, .L91
 2289 0038 1800     		movs	r0, r3
 2290 003a FFF7FEFF 		bl	chMtxLock
 2291              		.loc 7 612 0 discriminator 1
 2292 003e 134B     		ldr	r3, .L91
 2293 0040 1800     		movs	r0, r3
 2294 0042 FFF7FEFF 		bl	chMtxUnlock
 2295              		.loc 7 613 0 discriminator 1
 2296 0046 114B     		ldr	r3, .L91
 2297 0048 1800     		movs	r0, r3
 2298 004a FFF7FEFF 		bl	chMtxLock
 2299              		.loc 7 614 0 discriminator 1
 2300 004e 0F4B     		ldr	r3, .L91
 2301 0050 1800     		movs	r0, r3
 2302 0052 FFF7FEFF 		bl	chMtxUnlock
 2303              		.loc 7 615 0 discriminator 1
 2304 0056 019B     		ldr	r3, [sp, #4]
 2305 0058 0133     		adds	r3, r3, #1
 2306 005a 0193     		str	r3, [sp, #4]
 2307              		.loc 7 619 0 discriminator 1
 2308 005c 0C4B     		ldr	r3, .L91+4
 2309 005e 1B78     		ldrb	r3, [r3]
 2310 0060 0122     		movs	r2, #1
 2311 0062 5340     		eors	r3, r2
 2312 0064 DBB2     		uxtb	r3, r3
 2313 0066 002B     		cmp	r3, #0
 2314 0068 D5D1     		bne	.L90
 2315              		.loc 7 620 0
 2316 006a 0A4B     		ldr	r3, .L91+8
 2317 006c 1800     		movs	r0, r3
 2318 006e FFF7FEFF 		bl	test_print
 2319              		.loc 7 621 0
 2320 0072 019B     		ldr	r3, [sp, #4]
 2321 0074 9B00     		lsls	r3, r3, #2
 2322 0076 1800     		movs	r0, r3
ARM GAS  /tmp/ccbyuM1m.s 			page 43


 2323 0078 FFF7FEFF 		bl	test_printn
 2324              		.loc 7 622 0
 2325 007c 064B     		ldr	r3, .L91+12
 2326 007e 1800     		movs	r0, r3
 2327 0080 FFF7FEFF 		bl	test_println
 2328              		.loc 7 623 0
 2329 0084 C046     		nop
 2330 0086 03B0     		add	sp, sp, #12
 2331              		@ sp needed
 2332 0088 00BD     		pop	{pc}
 2333              	.L92:
 2334 008a C046     		.align	2
 2335              	.L91:
 2336 008c 00000000 		.word	mtx1
 2337 0090 00000000 		.word	test_timer_done
 2338 0094 00000000 		.word	.LC7
 2339 0098 D4010000 		.word	.LC93
 2340              		.cfi_endproc
 2341              	.LFE173:
 2342              		.size	bmk12_execute, .-bmk12_execute
 2343              		.global	testbmk12
 2344              		.section	.rodata
 2345 01e3 00       		.align	2
 2346              	.LC95:
 2347 01e4 42656E63 		.ascii	"Benchmark, mutexes lock/unlock\000"
 2347      686D6172 
 2347      6B2C206D 
 2347      75746578 
 2347      6573206C 
 2348              		.section	.rodata.testbmk12,"a",%progbits
 2349              		.align	2
 2350              		.type	testbmk12, %object
 2351              		.size	testbmk12, 16
 2352              	testbmk12:
 2353 0000 E4010000 		.word	.LC95
 2354 0004 00000000 		.word	bmk12_setup
 2355 0008 00000000 		.word	0
 2356 000c 00000000 		.word	bmk12_execute
 2357              		.section	.rodata
 2358 0203 00       		.align	2
 2359              	.LC96:
 2360 0204 2D2D2D20 		.ascii	"--- System: \000"
 2360      53797374 
 2360      656D3A20 
 2360      00
 2361 0211 000000   		.align	2
 2362              	.LC98:
 2363 0214 20627974 		.ascii	" bytes\000"
 2363      657300
 2364 021b 00       		.align	2
 2365              	.LC100:
 2366 021c 2D2D2D20 		.ascii	"--- Thread: \000"
 2366      54687265 
 2366      61643A20 
 2366      00
 2367 0229 000000   		.align	2
 2368              	.LC102:
ARM GAS  /tmp/ccbyuM1m.s 			page 44


 2369 022c 2D2D2D20 		.ascii	"--- Timer : \000"
 2369      54696D65 
 2369      72203A20 
 2369      00
 2370 0239 000000   		.align	2
 2371              	.LC104:
 2372 023c 2D2D2D20 		.ascii	"--- Semaph: \000"
 2372      53656D61 
 2372      70683A20 
 2372      00
 2373 0249 000000   		.align	2
 2374              	.LC106:
 2375 024c 2D2D2D20 		.ascii	"--- EventS: \000"
 2375      4576656E 
 2375      74533A20 
 2375      00
 2376 0259 000000   		.align	2
 2377              	.LC108:
 2378 025c 2D2D2D20 		.ascii	"--- EventL: \000"
 2378      4576656E 
 2378      744C3A20 
 2378      00
 2379 0269 000000   		.align	2
 2380              	.LC110:
 2381 026c 2D2D2D20 		.ascii	"--- Mutex : \000"
 2381      4D757465 
 2381      78203A20 
 2381      00
 2382 0279 000000   		.align	2
 2383              	.LC112:
 2384 027c 2D2D2D20 		.ascii	"--- CondV.: \000"
 2384      436F6E64 
 2384      562E3A20 
 2384      00
 2385 0289 000000   		.align	2
 2386              	.LC114:
 2387 028c 2D2D2D20 		.ascii	"--- Queue : \000"
 2387      51756575 
 2387      65203A20 
 2387      00
 2388 0299 000000   		.align	2
 2389              	.LC116:
 2390 029c 2D2D2D20 		.ascii	"--- MailB.: \000"
 2390      4D61696C 
 2390      422E3A20 
 2390      00
 2391              		.section	.text.bmk13_execute,"ax",%progbits
 2392              		.align	1
 2393              		.p2align 4,,15
 2394              		.syntax unified
 2395              		.code	16
 2396              		.thumb_func
 2397              		.fpu softvfp
 2398              		.type	bmk13_execute, %function
 2399              	bmk13_execute:
 2400              	.LFB174:
 2401              		.loc 7 640 0
ARM GAS  /tmp/ccbyuM1m.s 			page 45


 2402              		.cfi_startproc
 2403              		@ args = 0, pretend = 0, frame = 0
 2404              		@ frame_needed = 0, uses_anonymous_args = 0
 2405 0000 10B5     		push	{r4, lr}
 2406              		.cfi_def_cfa_offset 8
 2407              		.cfi_offset 4, -8
 2408              		.cfi_offset 14, -4
 2409              		.loc 7 642 0
 2410 0002 394B     		ldr	r3, .L94
 2411 0004 1800     		movs	r0, r3
 2412 0006 FFF7FEFF 		bl	test_print
 2413              		.loc 7 643 0
 2414 000a AD23     		movs	r3, #173
 2415 000c DB00     		lsls	r3, r3, #3
 2416 000e 1800     		movs	r0, r3
 2417 0010 FFF7FEFF 		bl	test_printn
 2418              		.loc 7 644 0
 2419 0014 354B     		ldr	r3, .L94+4
 2420 0016 1800     		movs	r0, r3
 2421 0018 FFF7FEFF 		bl	test_println
 2422              		.loc 7 645 0
 2423 001c 344B     		ldr	r3, .L94+8
 2424 001e 1800     		movs	r0, r3
 2425 0020 FFF7FEFF 		bl	test_print
 2426              		.loc 7 646 0
 2427 0024 4820     		movs	r0, #72
 2428 0026 FFF7FEFF 		bl	test_printn
 2429              		.loc 7 647 0
 2430 002a 304B     		ldr	r3, .L94+4
 2431 002c 1800     		movs	r0, r3
 2432 002e FFF7FEFF 		bl	test_println
 2433              		.loc 7 648 0
 2434 0032 304B     		ldr	r3, .L94+12
 2435 0034 1800     		movs	r0, r3
 2436 0036 FFF7FEFF 		bl	test_print
 2437              		.loc 7 649 0
 2438 003a 1420     		movs	r0, #20
 2439 003c FFF7FEFF 		bl	test_printn
 2440              		.loc 7 650 0
 2441 0040 2A4B     		ldr	r3, .L94+4
 2442 0042 1800     		movs	r0, r3
 2443 0044 FFF7FEFF 		bl	test_println
 2444              		.loc 7 652 0
 2445 0048 2B4B     		ldr	r3, .L94+16
 2446 004a 1800     		movs	r0, r3
 2447 004c FFF7FEFF 		bl	test_print
 2448              		.loc 7 653 0
 2449 0050 0C20     		movs	r0, #12
 2450 0052 FFF7FEFF 		bl	test_printn
 2451              		.loc 7 654 0
 2452 0056 254B     		ldr	r3, .L94+4
 2453 0058 1800     		movs	r0, r3
 2454 005a FFF7FEFF 		bl	test_println
 2455              		.loc 7 657 0
 2456 005e 274B     		ldr	r3, .L94+20
 2457 0060 1800     		movs	r0, r3
 2458 0062 FFF7FEFF 		bl	test_print
ARM GAS  /tmp/ccbyuM1m.s 			page 46


 2459              		.loc 7 658 0
 2460 0066 0420     		movs	r0, #4
 2461 0068 FFF7FEFF 		bl	test_printn
 2462              		.loc 7 659 0
 2463 006c 1F4B     		ldr	r3, .L94+4
 2464 006e 1800     		movs	r0, r3
 2465 0070 FFF7FEFF 		bl	test_println
 2466              		.loc 7 660 0
 2467 0074 224B     		ldr	r3, .L94+24
 2468 0076 1800     		movs	r0, r3
 2469 0078 FFF7FEFF 		bl	test_print
 2470              		.loc 7 661 0
 2471 007c 1420     		movs	r0, #20
 2472 007e FFF7FEFF 		bl	test_printn
 2473              		.loc 7 662 0
 2474 0082 1A4B     		ldr	r3, .L94+4
 2475 0084 1800     		movs	r0, r3
 2476 0086 FFF7FEFF 		bl	test_println
 2477              		.loc 7 665 0
 2478 008a 1E4B     		ldr	r3, .L94+28
 2479 008c 1800     		movs	r0, r3
 2480 008e FFF7FEFF 		bl	test_print
 2481              		.loc 7 666 0
 2482 0092 1020     		movs	r0, #16
 2483 0094 FFF7FEFF 		bl	test_printn
 2484              		.loc 7 667 0
 2485 0098 144B     		ldr	r3, .L94+4
 2486 009a 1800     		movs	r0, r3
 2487 009c FFF7FEFF 		bl	test_println
 2488              		.loc 7 670 0
 2489 00a0 194B     		ldr	r3, .L94+32
 2490 00a2 1800     		movs	r0, r3
 2491 00a4 FFF7FEFF 		bl	test_print
 2492              		.loc 7 671 0
 2493 00a8 0820     		movs	r0, #8
 2494 00aa FFF7FEFF 		bl	test_printn
 2495              		.loc 7 672 0
 2496 00ae 0F4B     		ldr	r3, .L94+4
 2497 00b0 1800     		movs	r0, r3
 2498 00b2 FFF7FEFF 		bl	test_println
 2499              		.loc 7 675 0
 2500 00b6 154B     		ldr	r3, .L94+36
 2501 00b8 1800     		movs	r0, r3
 2502 00ba FFF7FEFF 		bl	test_print
 2503              		.loc 7 676 0
 2504 00be 2420     		movs	r0, #36
 2505 00c0 FFF7FEFF 		bl	test_printn
 2506              		.loc 7 677 0
 2507 00c4 094B     		ldr	r3, .L94+4
 2508 00c6 1800     		movs	r0, r3
 2509 00c8 FFF7FEFF 		bl	test_println
 2510              		.loc 7 680 0
 2511 00cc 104B     		ldr	r3, .L94+40
 2512 00ce 1800     		movs	r0, r3
 2513 00d0 FFF7FEFF 		bl	test_print
 2514              		.loc 7 681 0
 2515 00d4 2820     		movs	r0, #40
ARM GAS  /tmp/ccbyuM1m.s 			page 47


 2516 00d6 FFF7FEFF 		bl	test_printn
 2517              		.loc 7 682 0
 2518 00da 044B     		ldr	r3, .L94+4
 2519 00dc 1800     		movs	r0, r3
 2520 00de FFF7FEFF 		bl	test_println
 2521              		.loc 7 684 0
 2522 00e2 C046     		nop
 2523              		@ sp needed
 2524 00e4 10BD     		pop	{r4, pc}
 2525              	.L95:
 2526 00e6 C046     		.align	2
 2527              	.L94:
 2528 00e8 04020000 		.word	.LC96
 2529 00ec 14020000 		.word	.LC98
 2530 00f0 1C020000 		.word	.LC100
 2531 00f4 2C020000 		.word	.LC102
 2532 00f8 3C020000 		.word	.LC104
 2533 00fc 4C020000 		.word	.LC106
 2534 0100 5C020000 		.word	.LC108
 2535 0104 6C020000 		.word	.LC110
 2536 0108 7C020000 		.word	.LC112
 2537 010c 8C020000 		.word	.LC114
 2538 0110 9C020000 		.word	.LC116
 2539              		.cfi_endproc
 2540              	.LFE174:
 2541              		.size	bmk13_execute, .-bmk13_execute
 2542              		.global	testbmk13
 2543              		.section	.rodata
 2544 02a9 000000   		.align	2
 2545              	.LC118:
 2546 02ac 42656E63 		.ascii	"Benchmark, RAM footprint\000"
 2546      686D6172 
 2546      6B2C2052 
 2546      414D2066 
 2546      6F6F7470 
 2547              		.section	.rodata.testbmk13,"a",%progbits
 2548              		.align	2
 2549              		.type	testbmk13, %object
 2550              		.size	testbmk13, 16
 2551              	testbmk13:
 2552 0000 AC020000 		.word	.LC118
 2553 0004 00000000 		.word	0
 2554 0008 00000000 		.word	0
 2555 000c 00000000 		.word	bmk13_execute
 2556              		.global	patternbmk
 2557              		.section	.rodata.patternbmk,"a",%progbits
 2558              		.align	2
 2559              		.type	patternbmk, %object
 2560              		.size	patternbmk, 56
 2561              	patternbmk:
 2562 0000 00000000 		.word	testbmk1
 2563 0004 00000000 		.word	testbmk2
 2564 0008 00000000 		.word	testbmk3
 2565 000c 00000000 		.word	testbmk4
 2566 0010 00000000 		.word	testbmk5
 2567 0014 00000000 		.word	testbmk6
 2568 0018 00000000 		.word	testbmk7
ARM GAS  /tmp/ccbyuM1m.s 			page 48


 2569 001c 00000000 		.word	testbmk8
 2570 0020 00000000 		.word	testbmk9
 2571 0024 00000000 		.word	testbmk10
 2572 0028 00000000 		.word	testbmk11
 2573 002c 00000000 		.word	testbmk12
 2574 0030 00000000 		.word	testbmk13
 2575 0034 00000000 		.word	0
 2576              		.section	.rodata.__func__.4993,"a",%progbits
 2577              		.align	2
 2578              		.type	__func__.4993, %object
 2579              		.size	__func__.4993, 12
 2580              	__func__.4993:
 2581 0000 63685379 		.ascii	"chSysUnlock\000"
 2581      73556E6C 
 2581      6F636B00 
 2582              		.section	.bss.iq.5842,"aw",%nobits
 2583              		.align	2
 2584              		.type	iq.5842, %object
 2585              		.size	iq.5842, 36
 2586              	iq.5842:
 2587 0000 00000000 		.space	36
 2587      00000000 
 2587      00000000 
 2587      00000000 
 2587      00000000 
 2588              		.section	.bss.ib.5841,"aw",%nobits
 2589              		.align	2
 2590              		.type	ib.5841, %object
 2591              		.size	ib.5841, 16
 2592              	ib.5841:
 2593 0000 00000000 		.space	16
 2593      00000000 
 2593      00000000 
 2593      00000000 
 2594              		.section	.bss.vt1.5852,"aw",%nobits
 2595              		.align	2
 2596              		.type	vt1.5852, %object
 2597              		.size	vt1.5852, 20
 2598              	vt1.5852:
 2599 0000 00000000 		.space	20
 2599      00000000 
 2599      00000000 
 2599      00000000 
 2599      00000000 
 2600              		.section	.bss.vt2.5853,"aw",%nobits
 2601              		.align	2
 2602              		.type	vt2.5853, %object
 2603              		.size	vt2.5853, 20
 2604              	vt2.5853:
 2605 0000 00000000 		.space	20
 2605      00000000 
 2605      00000000 
 2605      00000000 
 2605      00000000 
 2606              		.text
 2607              	.Letext0:
 2608              		.file 8 "/home/felix/opt/gcc-arm-none-eabi-6-2017-q1-update/lib/gcc/arm-none-eabi/6.3.1/include/st
ARM GAS  /tmp/ccbyuM1m.s 			page 49


 2609              		.file 9 "/home/felix/opt/gcc-arm-none-eabi-6-2017-q1-update/arm-none-eabi/include/machine/_default
 2610              		.file 10 "/home/felix/opt/gcc-arm-none-eabi-6-2017-q1-update/arm-none-eabi/include/sys/_stdint.h"
 2611              		.file 11 "ChibiOS/os/rt/ports/ARMCMx/compilers/GCC/chtypes.h"
 2612              		.file 12 "ChibiOS/os/rt/include/chsystypes.h"
 2613              		.file 13 "ChibiOS/os/rt/include/chschd.h"
 2614              		.file 14 "ChibiOS/os/rt/ports/ARMCMx/chcore.h"
 2615              		.file 15 "ChibiOS/os/rt/include/chdebug.h"
 2616              		.file 16 "ChibiOS/os/rt/include/chsem.h"
 2617              		.file 17 "ChibiOS/os/rt/include/chmtx.h"
 2618              		.file 18 "ChibiOS/os/rt/include/chregistry.h"
 2619              		.file 19 "ChibiOS/os/ext/CMSIS/ST/STM32F0xx/system_stm32f0xx.h"
 2620              		.file 20 "ChibiOS/test/rt/test.h"