ARM GAS  /tmp/cc6oyHFu.s 			page 1


   1              		.cpu cortex-m0
   2              		.eabi_attribute 20, 1
   3              		.eabi_attribute 21, 1
   4              		.eabi_attribute 23, 3
   5              		.eabi_attribute 24, 1
   6              		.eabi_attribute 25, 1
   7              		.eabi_attribute 26, 1
   8              		.eabi_attribute 30, 6
   9              		.eabi_attribute 34, 0
  10              		.eabi_attribute 18, 4
  11              		.file	"test.c"
  12              		.text
  13              	.Ltext0:
  14              		.cfi_sections	.debug_frame
  15              		.section	.text.port_lock,"ax",%progbits
  16              		.align	1
  17              		.p2align 4,,15
  18              		.syntax unified
  19              		.code	16
  20              		.thumb_func
  21              		.fpu softvfp
  22              		.type	port_lock, %function
  23              	port_lock:
  24              	.LFB38:
  25              		.file 1 "ChibiOS/os/rt/ports/ARMCMx/chcore_v6m.h"
  26              		.loc 1 330 0
  27              		.cfi_startproc
  28              		@ args = 0, pretend = 0, frame = 0
  29              		@ frame_needed = 0, uses_anonymous_args = 0
  30              		@ link register save eliminated.
  31              	.LBB6:
  32              	.LBB7:
  33              		.file 2 "ChibiOS/os/ext/CMSIS/include/core_cmFunc.h"
  34              		.loc 2 344 0
  35              		.syntax divided
  36              	@ 344 "ChibiOS/os/ext/CMSIS/include/core_cmFunc.h" 1
  37 0000 72B6     		cpsid i
  38              	@ 0 "" 2
  39              		.thumb
  40              		.syntax unified
  41              	.LBE7:
  42              	.LBE6:
  43              		.loc 1 333 0
  44 0002 C046     		nop
  45              		@ sp needed
  46 0004 7047     		bx	lr
  47              		.cfi_endproc
  48              	.LFE38:
  49              		.size	port_lock, .-port_lock
  50 0006 C046     		.section	.text.port_unlock,"ax",%progbits
  51              		.align	1
  52              		.p2align 4,,15
  53              		.syntax unified
  54              		.code	16
  55              		.thumb_func
  56              		.fpu softvfp
  57              		.type	port_unlock, %function
ARM GAS  /tmp/cc6oyHFu.s 			page 2


  58              	port_unlock:
  59              	.LFB39:
  60              		.loc 1 339 0
  61              		.cfi_startproc
  62              		@ args = 0, pretend = 0, frame = 0
  63              		@ frame_needed = 0, uses_anonymous_args = 0
  64              		@ link register save eliminated.
  65              	.LBB8:
  66              	.LBB9:
  67              		.loc 2 333 0
  68              		.syntax divided
  69              	@ 333 "ChibiOS/os/ext/CMSIS/include/core_cmFunc.h" 1
  70 0000 62B6     		cpsie i
  71              	@ 0 "" 2
  72              		.thumb
  73              		.syntax unified
  74              	.LBE9:
  75              	.LBE8:
  76              		.loc 1 342 0
  77 0002 C046     		nop
  78              		@ sp needed
  79 0004 7047     		bx	lr
  80              		.cfi_endproc
  81              	.LFE39:
  82              		.size	port_unlock, .-port_unlock
  83 0006 C046     		.section	.text.st_lld_get_counter,"ax",%progbits
  84              		.align	1
  85              		.p2align 4,,15
  86              		.syntax unified
  87              		.code	16
  88              		.thumb_func
  89              		.fpu softvfp
  90              		.type	st_lld_get_counter, %function
  91              	st_lld_get_counter:
  92              	.LFB46:
  93              		.file 3 "ChibiOS/os/hal/ports/STM32/LLD/TIMv1/st_lld.h"
  94              		.loc 3 139 0
  95              		.cfi_startproc
  96              		@ args = 0, pretend = 0, frame = 0
  97              		@ frame_needed = 0, uses_anonymous_args = 0
  98              		@ link register save eliminated.
  99              		.loc 3 141 0
 100 0000 024B     		ldr	r3, .L5
 101 0002 5B6A     		ldr	r3, [r3, #36]
 102 0004 9BB2     		uxth	r3, r3
 103              		.loc 3 142 0
 104 0006 1800     		movs	r0, r3
 105              		@ sp needed
 106 0008 7047     		bx	lr
 107              	.L6:
 108 000a C046     		.align	2
 109              	.L5:
 110 000c 00040040 		.word	1073742848
 111              		.cfi_endproc
 112              	.LFE46:
 113              		.size	st_lld_get_counter, .-st_lld_get_counter
 114              		.section	.text.port_timer_get_time,"ax",%progbits
ARM GAS  /tmp/cc6oyHFu.s 			page 3


 115              		.align	1
 116              		.p2align 4,,15
 117              		.syntax unified
 118              		.code	16
 119              		.thumb_func
 120              		.fpu softvfp
 121              		.type	port_timer_get_time, %function
 122              	port_timer_get_time:
 123              	.LFB55:
 124              		.file 4 "ChibiOS/os/rt/ports/ARMCMx/chcore_timer.h"
 125              		.loc 4 105 0
 126              		.cfi_startproc
 127              		@ args = 0, pretend = 0, frame = 0
 128              		@ frame_needed = 0, uses_anonymous_args = 0
 129 0000 10B5     		push	{r4, lr}
 130              		.cfi_def_cfa_offset 8
 131              		.cfi_offset 4, -8
 132              		.cfi_offset 14, -4
 133              		.loc 4 107 0
 134 0002 FFF7FEFF 		bl	st_lld_get_counter
 135 0006 0300     		movs	r3, r0
 136              		.loc 4 108 0
 137 0008 1800     		movs	r0, r3
 138              		@ sp needed
 139 000a 10BD     		pop	{r4, pc}
 140              		.cfi_endproc
 141              	.LFE55:
 142              		.size	port_timer_get_time, .-port_timer_get_time
 143              		.section	.text.chSysLock,"ax",%progbits
 144              		.align	1
 145              		.p2align 4,,15
 146              		.syntax unified
 147              		.code	16
 148              		.thumb_func
 149              		.fpu softvfp
 150              		.type	chSysLock, %function
 151              	chSysLock:
 152              	.LFB77:
 153              		.file 5 "ChibiOS/os/rt/include/chsys.h"
 154              		.loc 5 346 0
 155              		.cfi_startproc
 156              		@ args = 0, pretend = 0, frame = 0
 157              		@ frame_needed = 0, uses_anonymous_args = 0
 158 0000 10B5     		push	{r4, lr}
 159              		.cfi_def_cfa_offset 8
 160              		.cfi_offset 4, -8
 161              		.cfi_offset 14, -4
 162              		.loc 5 348 0
 163 0002 FFF7FEFF 		bl	port_lock
 164              		.loc 5 350 0
 165 0006 FFF7FEFF 		bl	_dbg_check_lock
 166              		.loc 5 351 0
 167 000a C046     		nop
 168              		@ sp needed
 169 000c 10BD     		pop	{r4, pc}
 170              		.cfi_endproc
 171              	.LFE77:
ARM GAS  /tmp/cc6oyHFu.s 			page 4


 172              		.size	chSysLock, .-chSysLock
 173 000e C046     		.section	.text.chSysUnlock,"ax",%progbits
 174              		.align	1
 175              		.p2align 4,,15
 176              		.syntax unified
 177              		.code	16
 178              		.thumb_func
 179              		.fpu softvfp
 180              		.type	chSysUnlock, %function
 181              	chSysUnlock:
 182              	.LFB78:
 183              		.loc 5 358 0
 184              		.cfi_startproc
 185              		@ args = 0, pretend = 0, frame = 0
 186              		@ frame_needed = 0, uses_anonymous_args = 0
 187 0000 10B5     		push	{r4, lr}
 188              		.cfi_def_cfa_offset 8
 189              		.cfi_offset 4, -8
 190              		.cfi_offset 14, -4
 191              		.loc 5 360 0
 192 0002 FFF7FEFF 		bl	_dbg_check_unlock
 193              		.loc 5 367 0
 194 0006 0A4B     		ldr	r3, .L12
 195 0008 1A68     		ldr	r2, [r3]
 196 000a 094B     		ldr	r3, .L12
 197 000c 9A42     		cmp	r2, r3
 198 000e 0BD0     		beq	.L11
 199              		.loc 5 367 0 is_stmt 0 discriminator 2
 200 0010 074B     		ldr	r3, .L12
 201 0012 9B69     		ldr	r3, [r3, #24]
 202 0014 9A68     		ldr	r2, [r3, #8]
 203 0016 064B     		ldr	r3, .L12
 204 0018 1B68     		ldr	r3, [r3]
 205 001a 9B68     		ldr	r3, [r3, #8]
 206 001c 9A42     		cmp	r2, r3
 207 001e 03D2     		bcs	.L11
 208              		.loc 5 367 0 discriminator 3
 209 0020 044B     		ldr	r3, .L12+4
 210 0022 1800     		movs	r0, r3
 211 0024 FFF7FEFF 		bl	chSysHalt
 212              	.L11:
 213              		.loc 5 371 0 is_stmt 1
 214 0028 FFF7FEFF 		bl	port_unlock
 215              		.loc 5 372 0
 216 002c C046     		nop
 217              		@ sp needed
 218 002e 10BD     		pop	{r4, pc}
 219              	.L13:
 220              		.align	2
 221              	.L12:
 222 0030 00000000 		.word	ch
 223 0034 00000000 		.word	__func__.4993
 224              		.cfi_endproc
 225              	.LFE78:
 226              		.size	chSysUnlock, .-chSysUnlock
 227              		.section	.text.chVTGetSystemTimeX,"ax",%progbits
 228              		.align	1
ARM GAS  /tmp/cc6oyHFu.s 			page 5


 229              		.p2align 4,,15
 230              		.syntax unified
 231              		.code	16
 232              		.thumb_func
 233              		.fpu softvfp
 234              		.type	chVTGetSystemTimeX, %function
 235              	chVTGetSystemTimeX:
 236              	.LFB85:
 237              		.file 6 "ChibiOS/os/rt/include/chvt.h"
 238              		.loc 6 228 0
 239              		.cfi_startproc
 240              		@ args = 0, pretend = 0, frame = 0
 241              		@ frame_needed = 0, uses_anonymous_args = 0
 242 0000 10B5     		push	{r4, lr}
 243              		.cfi_def_cfa_offset 8
 244              		.cfi_offset 4, -8
 245              		.cfi_offset 14, -4
 246              		.loc 6 233 0
 247 0002 FFF7FEFF 		bl	port_timer_get_time
 248 0006 0300     		movs	r3, r0
 249              		.loc 6 235 0
 250 0008 1800     		movs	r0, r3
 251              		@ sp needed
 252 000a 10BD     		pop	{r4, pc}
 253              		.cfi_endproc
 254              	.LFE85:
 255              		.size	chVTGetSystemTimeX, .-chVTGetSystemTimeX
 256              		.section	.text.chVTGetSystemTime,"ax",%progbits
 257              		.align	1
 258              		.p2align 4,,15
 259              		.syntax unified
 260              		.code	16
 261              		.thumb_func
 262              		.fpu softvfp
 263              		.type	chVTGetSystemTime, %function
 264              	chVTGetSystemTime:
 265              	.LFB86:
 266              		.loc 6 247 0
 267              		.cfi_startproc
 268              		@ args = 0, pretend = 0, frame = 8
 269              		@ frame_needed = 0, uses_anonymous_args = 0
 270 0000 10B5     		push	{r4, lr}
 271              		.cfi_def_cfa_offset 8
 272              		.cfi_offset 4, -8
 273              		.cfi_offset 14, -4
 274 0002 82B0     		sub	sp, sp, #8
 275              		.cfi_def_cfa_offset 16
 276              		.loc 6 250 0
 277 0004 FFF7FEFF 		bl	chSysLock
 278              		.loc 6 251 0
 279 0008 6B46     		mov	r3, sp
 280 000a 9C1D     		adds	r4, r3, #6
 281 000c FFF7FEFF 		bl	chVTGetSystemTimeX
 282 0010 0300     		movs	r3, r0
 283 0012 2380     		strh	r3, [r4]
 284              		.loc 6 252 0
 285 0014 FFF7FEFF 		bl	chSysUnlock
ARM GAS  /tmp/cc6oyHFu.s 			page 6


 286              		.loc 6 254 0
 287 0018 6B46     		mov	r3, sp
 288 001a 0633     		adds	r3, r3, #6
 289 001c 1B88     		ldrh	r3, [r3]
 290              		.loc 6 255 0
 291 001e 1800     		movs	r0, r3
 292 0020 02B0     		add	sp, sp, #8
 293              		@ sp needed
 294 0022 10BD     		pop	{r4, pc}
 295              		.cfi_endproc
 296              	.LFE86:
 297              		.size	chVTGetSystemTime, .-chVTGetSystemTime
 298              		.section	.text.chVTIsTimeWithinX,"ax",%progbits
 299              		.align	1
 300              		.p2align 4,,15
 301              		.syntax unified
 302              		.code	16
 303              		.thumb_func
 304              		.fpu softvfp
 305              		.type	chVTIsTimeWithinX, %function
 306              	chVTIsTimeWithinX:
 307              	.LFB88:
 308              		.loc 6 286 0
 309              		.cfi_startproc
 310              		@ args = 0, pretend = 0, frame = 8
 311              		@ frame_needed = 0, uses_anonymous_args = 0
 312 0000 10B5     		push	{r4, lr}
 313              		.cfi_def_cfa_offset 8
 314              		.cfi_offset 4, -8
 315              		.cfi_offset 14, -4
 316 0002 82B0     		sub	sp, sp, #8
 317              		.cfi_def_cfa_offset 16
 318 0004 0400     		movs	r4, r0
 319 0006 0800     		movs	r0, r1
 320 0008 1100     		movs	r1, r2
 321 000a 6B46     		mov	r3, sp
 322 000c 0633     		adds	r3, r3, #6
 323 000e 221C     		adds	r2, r4, #0
 324 0010 1A80     		strh	r2, [r3]
 325 0012 01AB     		add	r3, sp, #4
 326 0014 021C     		adds	r2, r0, #0
 327 0016 1A80     		strh	r2, [r3]
 328 0018 6B46     		mov	r3, sp
 329 001a 0233     		adds	r3, r3, #2
 330 001c 0A1C     		adds	r2, r1, #0
 331 001e 1A80     		strh	r2, [r3]
 332              		.loc 6 288 0
 333 0020 6B46     		mov	r3, sp
 334 0022 9A1D     		adds	r2, r3, #6
 335 0024 01AB     		add	r3, sp, #4
 336 0026 1288     		ldrh	r2, [r2]
 337 0028 1B88     		ldrh	r3, [r3]
 338 002a D31A     		subs	r3, r2, r3
 339 002c 9AB2     		uxth	r2, r3
 340 002e 6B46     		mov	r3, sp
 341 0030 991C     		adds	r1, r3, #2
 342 0032 01AB     		add	r3, sp, #4
ARM GAS  /tmp/cc6oyHFu.s 			page 7


 343 0034 0988     		ldrh	r1, [r1]
 344 0036 1B88     		ldrh	r3, [r3]
 345 0038 CB1A     		subs	r3, r1, r3
 346 003a 9BB2     		uxth	r3, r3
 347 003c 9A42     		cmp	r2, r3
 348 003e 9B41     		sbcs	r3, r3, r3
 349 0040 5B42     		rsbs	r3, r3, #0
 350 0042 DBB2     		uxtb	r3, r3
 351              		.loc 6 289 0
 352 0044 1800     		movs	r0, r3
 353 0046 02B0     		add	sp, sp, #8
 354              		@ sp needed
 355 0048 10BD     		pop	{r4, pc}
 356              		.cfi_endproc
 357              	.LFE88:
 358              		.size	chVTIsTimeWithinX, .-chVTIsTimeWithinX
 359 004a C046     		.section	.text.chVTIsSystemTimeWithin,"ax",%progbits
 360              		.align	1
 361              		.p2align 4,,15
 362              		.syntax unified
 363              		.code	16
 364              		.thumb_func
 365              		.fpu softvfp
 366              		.type	chVTIsSystemTimeWithin, %function
 367              	chVTIsSystemTimeWithin:
 368              	.LFB90:
 369              		.loc 6 322 0
 370              		.cfi_startproc
 371              		@ args = 0, pretend = 0, frame = 8
 372              		@ frame_needed = 0, uses_anonymous_args = 0
 373 0000 00B5     		push	{lr}
 374              		.cfi_def_cfa_offset 4
 375              		.cfi_offset 14, -4
 376 0002 83B0     		sub	sp, sp, #12
 377              		.cfi_def_cfa_offset 16
 378 0004 0200     		movs	r2, r0
 379 0006 6B46     		mov	r3, sp
 380 0008 0633     		adds	r3, r3, #6
 381 000a 1A80     		strh	r2, [r3]
 382 000c 01AB     		add	r3, sp, #4
 383 000e 0A1C     		adds	r2, r1, #0
 384 0010 1A80     		strh	r2, [r3]
 385              		.loc 6 324 0
 386 0012 FFF7FEFF 		bl	chVTGetSystemTime
 387 0016 0300     		movs	r3, r0
 388 0018 1800     		movs	r0, r3
 389 001a 01AB     		add	r3, sp, #4
 390 001c 1A88     		ldrh	r2, [r3]
 391 001e 6B46     		mov	r3, sp
 392 0020 0633     		adds	r3, r3, #6
 393 0022 1B88     		ldrh	r3, [r3]
 394 0024 1900     		movs	r1, r3
 395 0026 FFF7FEFF 		bl	chVTIsTimeWithinX
 396 002a 0300     		movs	r3, r0
 397              		.loc 6 325 0
 398 002c 1800     		movs	r0, r3
 399 002e 03B0     		add	sp, sp, #12
ARM GAS  /tmp/cc6oyHFu.s 			page 8


 400              		@ sp needed
 401 0030 00BD     		pop	{pc}
 402              		.cfi_endproc
 403              	.LFE90:
 404              		.size	chVTIsSystemTimeWithin, .-chVTIsSystemTimeWithin
 405 0032 C046     		.section	.text.chVTIsArmedI,"ax",%progbits
 406              		.align	1
 407              		.p2align 4,,15
 408              		.syntax unified
 409              		.code	16
 410              		.thumb_func
 411              		.fpu softvfp
 412              		.type	chVTIsArmedI, %function
 413              	chVTIsArmedI:
 414              	.LFB92:
 415              		.loc 6 373 0
 416              		.cfi_startproc
 417              		@ args = 0, pretend = 0, frame = 8
 418              		@ frame_needed = 0, uses_anonymous_args = 0
 419 0000 00B5     		push	{lr}
 420              		.cfi_def_cfa_offset 4
 421              		.cfi_offset 14, -4
 422 0002 83B0     		sub	sp, sp, #12
 423              		.cfi_def_cfa_offset 16
 424 0004 0190     		str	r0, [sp, #4]
 425              		.loc 6 375 0
 426 0006 FFF7FEFF 		bl	chDbgCheckClassI
 427              		.loc 6 377 0
 428 000a 019B     		ldr	r3, [sp, #4]
 429 000c DB68     		ldr	r3, [r3, #12]
 430 000e 5A1E     		subs	r2, r3, #1
 431 0010 9341     		sbcs	r3, r3, r2
 432 0012 DBB2     		uxtb	r3, r3
 433              		.loc 6 378 0
 434 0014 1800     		movs	r0, r3
 435 0016 03B0     		add	sp, sp, #12
 436              		@ sp needed
 437 0018 00BD     		pop	{pc}
 438              		.cfi_endproc
 439              	.LFE92:
 440              		.size	chVTIsArmedI, .-chVTIsArmedI
 441 001a C046     		.section	.text.chVTResetI,"ax",%progbits
 442              		.align	1
 443              		.p2align 4,,15
 444              		.syntax unified
 445              		.code	16
 446              		.thumb_func
 447              		.fpu softvfp
 448              		.type	chVTResetI, %function
 449              	chVTResetI:
 450              	.LFB94:
 451              		.loc 6 410 0
 452              		.cfi_startproc
 453              		@ args = 0, pretend = 0, frame = 8
 454              		@ frame_needed = 0, uses_anonymous_args = 0
 455 0000 00B5     		push	{lr}
 456              		.cfi_def_cfa_offset 4
ARM GAS  /tmp/cc6oyHFu.s 			page 9


 457              		.cfi_offset 14, -4
 458 0002 83B0     		sub	sp, sp, #12
 459              		.cfi_def_cfa_offset 16
 460 0004 0190     		str	r0, [sp, #4]
 461              		.loc 6 412 0
 462 0006 019B     		ldr	r3, [sp, #4]
 463 0008 1800     		movs	r0, r3
 464 000a FFF7FEFF 		bl	chVTIsArmedI
 465 000e 031E     		subs	r3, r0, #0
 466 0010 03D0     		beq	.L26
 467              		.loc 6 413 0
 468 0012 019B     		ldr	r3, [sp, #4]
 469 0014 1800     		movs	r0, r3
 470 0016 FFF7FEFF 		bl	chVTDoResetI
 471              	.L26:
 472              		.loc 6 415 0
 473 001a C046     		nop
 474 001c 03B0     		add	sp, sp, #12
 475              		@ sp needed
 476 001e 00BD     		pop	{pc}
 477              		.cfi_endproc
 478              	.LFE94:
 479              		.size	chVTResetI, .-chVTResetI
 480              		.section	.text.chVTSetI,"ax",%progbits
 481              		.align	1
 482              		.p2align 4,,15
 483              		.syntax unified
 484              		.code	16
 485              		.thumb_func
 486              		.fpu softvfp
 487              		.type	chVTSetI, %function
 488              	chVTSetI:
 489              	.LFB96:
 490              		.loc 6 457 0
 491              		.cfi_startproc
 492              		@ args = 0, pretend = 0, frame = 16
 493              		@ frame_needed = 0, uses_anonymous_args = 0
 494 0000 10B5     		push	{r4, lr}
 495              		.cfi_def_cfa_offset 8
 496              		.cfi_offset 4, -8
 497              		.cfi_offset 14, -4
 498 0002 84B0     		sub	sp, sp, #16
 499              		.cfi_def_cfa_offset 24
 500 0004 0390     		str	r0, [sp, #12]
 501 0006 0192     		str	r2, [sp, #4]
 502 0008 0093     		str	r3, [sp]
 503 000a 0A23     		movs	r3, #10
 504 000c 6B44     		add	r3, r3, sp
 505 000e 0A1C     		adds	r2, r1, #0
 506 0010 1A80     		strh	r2, [r3]
 507              		.loc 6 459 0
 508 0012 039B     		ldr	r3, [sp, #12]
 509 0014 1800     		movs	r0, r3
 510 0016 FFF7FEFF 		bl	chVTResetI
 511              		.loc 6 460 0
 512 001a 009C     		ldr	r4, [sp]
 513 001c 019A     		ldr	r2, [sp, #4]
ARM GAS  /tmp/cc6oyHFu.s 			page 10


 514 001e 0A23     		movs	r3, #10
 515 0020 6B44     		add	r3, r3, sp
 516 0022 1988     		ldrh	r1, [r3]
 517 0024 0398     		ldr	r0, [sp, #12]
 518 0026 2300     		movs	r3, r4
 519 0028 FFF7FEFF 		bl	chVTDoSetI
 520              		.loc 6 461 0
 521 002c C046     		nop
 522 002e 04B0     		add	sp, sp, #16
 523              		@ sp needed
 524 0030 10BD     		pop	{r4, pc}
 525              		.cfi_endproc
 526              	.LFE96:
 527              		.size	chVTSetI, .-chVTSetI
 528 0032 C046     		.section	.text.chVTSet,"ax",%progbits
 529              		.align	1
 530              		.p2align 4,,15
 531              		.syntax unified
 532              		.code	16
 533              		.thumb_func
 534              		.fpu softvfp
 535              		.type	chVTSet, %function
 536              	chVTSet:
 537              	.LFB97:
 538              		.loc 6 486 0
 539              		.cfi_startproc
 540              		@ args = 0, pretend = 0, frame = 16
 541              		@ frame_needed = 0, uses_anonymous_args = 0
 542 0000 10B5     		push	{r4, lr}
 543              		.cfi_def_cfa_offset 8
 544              		.cfi_offset 4, -8
 545              		.cfi_offset 14, -4
 546 0002 84B0     		sub	sp, sp, #16
 547              		.cfi_def_cfa_offset 24
 548 0004 0390     		str	r0, [sp, #12]
 549 0006 0192     		str	r2, [sp, #4]
 550 0008 0093     		str	r3, [sp]
 551 000a 0A23     		movs	r3, #10
 552 000c 6B44     		add	r3, r3, sp
 553 000e 0A1C     		adds	r2, r1, #0
 554 0010 1A80     		strh	r2, [r3]
 555              		.loc 6 488 0
 556 0012 FFF7FEFF 		bl	chSysLock
 557              		.loc 6 489 0
 558 0016 009C     		ldr	r4, [sp]
 559 0018 019A     		ldr	r2, [sp, #4]
 560 001a 0A23     		movs	r3, #10
 561 001c 6B44     		add	r3, r3, sp
 562 001e 1988     		ldrh	r1, [r3]
 563 0020 0398     		ldr	r0, [sp, #12]
 564 0022 2300     		movs	r3, r4
 565 0024 FFF7FEFF 		bl	chVTSetI
 566              		.loc 6 490 0
 567 0028 FFF7FEFF 		bl	chSysUnlock
 568              		.loc 6 491 0
 569 002c C046     		nop
 570 002e 04B0     		add	sp, sp, #16
ARM GAS  /tmp/cc6oyHFu.s 			page 11


 571              		@ sp needed
 572 0030 10BD     		pop	{r4, pc}
 573              		.cfi_endproc
 574              	.LFE97:
 575              		.size	chVTSet, .-chVTSet
 576 0032 C046     		.section	.data.patterns,"aw",%progbits
 577              		.align	2
 578              		.type	patterns, %object
 579              		.size	patterns, 52
 580              	patterns:
 581 0000 00000000 		.word	patternsys
 582 0004 00000000 		.word	patternthd
 583 0008 00000000 		.word	patternsem
 584 000c 00000000 		.word	patternmtx
 585 0010 00000000 		.word	patternmsg
 586 0014 00000000 		.word	patternmbox
 587 0018 00000000 		.word	patternevt
 588 001c 00000000 		.word	patternheap
 589 0020 00000000 		.word	patternpools
 590 0024 00000000 		.word	patterndyn
 591 0028 00000000 		.word	patternqueues
 592 002c 00000000 		.word	patternbmk
 593 0030 00000000 		.word	0
 594              		.comm	test_global_fail,1,1
 595              		.section	.bss.local_fail,"aw",%nobits
 596              		.type	local_fail, %object
 597              		.size	local_fail, 1
 598              	local_fail:
 599 0000 00       		.space	1
 600              		.section	.bss.failpoint,"aw",%nobits
 601              		.align	2
 602              		.type	failpoint, %object
 603              		.size	failpoint, 4
 604              	failpoint:
 605 0000 00000000 		.space	4
 606              		.section	.bss.tokens_buffer,"aw",%nobits
 607              		.align	2
 608              		.type	tokens_buffer, %object
 609              		.size	tokens_buffer, 16
 610              	tokens_buffer:
 611 0000 00000000 		.space	16
 611      00000000 
 611      00000000 
 611      00000000 
 612              		.section	.bss.tokp,"aw",%nobits
 613              		.align	2
 614              		.type	tokp, %object
 615              		.size	tokp, 4
 616              	tokp:
 617 0000 00000000 		.space	4
 618              		.comm	test,1680,8
 619              		.comm	threads,20,4
 620              		.global	wa
 621              		.section	.rodata.wa,"a",%progbits
 622              		.align	2
 623              		.type	wa, %object
 624              		.size	wa, 20
ARM GAS  /tmp/cc6oyHFu.s 			page 12


 625              	wa:
 626 0000 00000000 		.word	test
 627 0004 50010000 		.word	test+336
 628 0008 A0020000 		.word	test+672
 629 000c F0030000 		.word	test+1008
 630 0010 40050000 		.word	test+1344
 631              		.section	.bss.chp,"aw",%nobits
 632              		.align	2
 633              		.type	chp, %object
 634              		.size	chp, 4
 635              	chp:
 636 0000 00000000 		.space	4
 637              		.global	__aeabi_uidivmod
 638              		.global	__aeabi_uidiv
 639              		.section	.text.test_printn,"ax",%progbits
 640              		.align	1
 641              		.p2align 4,,15
 642              		.global	test_printn
 643              		.syntax unified
 644              		.code	16
 645              		.thumb_func
 646              		.fpu softvfp
 647              		.type	test_printn, %function
 648              	test_printn:
 649              	.LFB182:
 650              		.file 7 "ChibiOS/test/rt/test.c"
 651              		.loc 7 94 0
 652              		.cfi_startproc
 653              		@ args = 0, pretend = 0, frame = 32
 654              		@ frame_needed = 0, uses_anonymous_args = 0
 655 0000 10B5     		push	{r4, lr}
 656              		.cfi_def_cfa_offset 8
 657              		.cfi_offset 4, -8
 658              		.cfi_offset 14, -4
 659 0002 88B0     		sub	sp, sp, #32
 660              		.cfi_def_cfa_offset 40
 661 0004 0190     		str	r0, [sp, #4]
 662              		.loc 7 97 0
 663 0006 019B     		ldr	r3, [sp, #4]
 664 0008 002B     		cmp	r3, #0
 665 000a 09D1     		bne	.L30
 666              		.loc 7 98 0
 667 000c 1C4B     		ldr	r3, .L37
 668 000e 1B68     		ldr	r3, [r3]
 669 0010 1B68     		ldr	r3, [r3]
 670 0012 9A68     		ldr	r2, [r3, #8]
 671 0014 1A4B     		ldr	r3, .L37
 672 0016 1B68     		ldr	r3, [r3]
 673 0018 3021     		movs	r1, #48
 674 001a 1800     		movs	r0, r3
 675 001c 9047     		blx	r2
 676              	.LVL0:
 677              		.loc 7 106 0
 678 001e 2BE0     		b	.L36
 679              	.L30:
 680              		.loc 7 100 0
 681 0020 03AB     		add	r3, sp, #12
ARM GAS  /tmp/cc6oyHFu.s 			page 13


 682 0022 0793     		str	r3, [sp, #28]
 683              		.loc 7 101 0
 684 0024 13E0     		b	.L32
 685              	.L33:
 686              		.loc 7 102 0
 687 0026 079C     		ldr	r4, [sp, #28]
 688 0028 631C     		adds	r3, r4, #1
 689 002a 0793     		str	r3, [sp, #28]
 690 002c 019B     		ldr	r3, [sp, #4]
 691 002e 0A21     		movs	r1, #10
 692 0030 1800     		movs	r0, r3
 693 0032 FFF7FEFF 		bl	__aeabi_uidivmod
 694              	.LVL1:
 695 0036 0B00     		movs	r3, r1
 696 0038 DBB2     		uxtb	r3, r3
 697 003a 3033     		adds	r3, r3, #48
 698 003c DBB2     		uxtb	r3, r3
 699 003e 2370     		strb	r3, [r4]
 700 0040 019B     		ldr	r3, [sp, #4]
 701 0042 0A21     		movs	r1, #10
 702 0044 1800     		movs	r0, r3
 703 0046 FFF7FEFF 		bl	__aeabi_uidiv
 704              	.LVL2:
 705 004a 0300     		movs	r3, r0
 706 004c 0193     		str	r3, [sp, #4]
 707              	.L32:
 708              		.loc 7 101 0
 709 004e 019B     		ldr	r3, [sp, #4]
 710 0050 002B     		cmp	r3, #0
 711 0052 E8D1     		bne	.L33
 712              		.loc 7 103 0
 713 0054 0CE0     		b	.L34
 714              	.L35:
 715              		.loc 7 104 0
 716 0056 0A4B     		ldr	r3, .L37
 717 0058 1B68     		ldr	r3, [r3]
 718 005a 1B68     		ldr	r3, [r3]
 719 005c 9A68     		ldr	r2, [r3, #8]
 720 005e 084B     		ldr	r3, .L37
 721 0060 1868     		ldr	r0, [r3]
 722 0062 079B     		ldr	r3, [sp, #28]
 723 0064 013B     		subs	r3, r3, #1
 724 0066 0793     		str	r3, [sp, #28]
 725 0068 079B     		ldr	r3, [sp, #28]
 726 006a 1B78     		ldrb	r3, [r3]
 727 006c 1900     		movs	r1, r3
 728 006e 9047     		blx	r2
 729              	.LVL3:
 730              	.L34:
 731              		.loc 7 103 0
 732 0070 03AB     		add	r3, sp, #12
 733 0072 079A     		ldr	r2, [sp, #28]
 734 0074 9A42     		cmp	r2, r3
 735 0076 EED8     		bhi	.L35
 736              	.L36:
 737              		.loc 7 106 0
 738 0078 C046     		nop
ARM GAS  /tmp/cc6oyHFu.s 			page 14


 739 007a 08B0     		add	sp, sp, #32
 740              		@ sp needed
 741 007c 10BD     		pop	{r4, pc}
 742              	.L38:
 743 007e C046     		.align	2
 744              	.L37:
 745 0080 00000000 		.word	chp
 746              		.cfi_endproc
 747              	.LFE182:
 748              		.size	test_printn, .-test_printn
 749              		.section	.text.test_print,"ax",%progbits
 750              		.align	1
 751              		.p2align 4,,15
 752              		.global	test_print
 753              		.syntax unified
 754              		.code	16
 755              		.thumb_func
 756              		.fpu softvfp
 757              		.type	test_print, %function
 758              	test_print:
 759              	.LFB183:
 760              		.loc 7 113 0
 761              		.cfi_startproc
 762              		@ args = 0, pretend = 0, frame = 8
 763              		@ frame_needed = 0, uses_anonymous_args = 0
 764 0000 00B5     		push	{lr}
 765              		.cfi_def_cfa_offset 4
 766              		.cfi_offset 14, -4
 767 0002 83B0     		sub	sp, sp, #12
 768              		.cfi_def_cfa_offset 16
 769 0004 0190     		str	r0, [sp, #4]
 770              		.loc 7 115 0
 771 0006 0BE0     		b	.L40
 772              	.L41:
 773              		.loc 7 116 0
 774 0008 094B     		ldr	r3, .L42
 775 000a 1B68     		ldr	r3, [r3]
 776 000c 1B68     		ldr	r3, [r3]
 777 000e 9A68     		ldr	r2, [r3, #8]
 778 0010 074B     		ldr	r3, .L42
 779 0012 1868     		ldr	r0, [r3]
 780 0014 019B     		ldr	r3, [sp, #4]
 781 0016 591C     		adds	r1, r3, #1
 782 0018 0191     		str	r1, [sp, #4]
 783 001a 1B78     		ldrb	r3, [r3]
 784 001c 1900     		movs	r1, r3
 785 001e 9047     		blx	r2
 786              	.LVL4:
 787              	.L40:
 788              		.loc 7 115 0
 789 0020 019B     		ldr	r3, [sp, #4]
 790 0022 1B78     		ldrb	r3, [r3]
 791 0024 002B     		cmp	r3, #0
 792 0026 EFD1     		bne	.L41
 793              		.loc 7 117 0
 794 0028 C046     		nop
 795 002a 03B0     		add	sp, sp, #12
ARM GAS  /tmp/cc6oyHFu.s 			page 15


 796              		@ sp needed
 797 002c 00BD     		pop	{pc}
 798              	.L43:
 799 002e C046     		.align	2
 800              	.L42:
 801 0030 00000000 		.word	chp
 802              		.cfi_endproc
 803              	.LFE183:
 804              		.size	test_print, .-test_print
 805              		.section	.rodata
 806              		.align	2
 807              	.LC5:
 808 0000 0D0A00   		.ascii	"\015\012\000"
 809              		.section	.text.test_println,"ax",%progbits
 810              		.align	1
 811              		.p2align 4,,15
 812              		.global	test_println
 813              		.syntax unified
 814              		.code	16
 815              		.thumb_func
 816              		.fpu softvfp
 817              		.type	test_println, %function
 818              	test_println:
 819              	.LFB184:
 820              		.loc 7 124 0
 821              		.cfi_startproc
 822              		@ args = 0, pretend = 0, frame = 8
 823              		@ frame_needed = 0, uses_anonymous_args = 0
 824 0000 10B5     		push	{r4, lr}
 825              		.cfi_def_cfa_offset 8
 826              		.cfi_offset 4, -8
 827              		.cfi_offset 14, -4
 828 0002 82B0     		sub	sp, sp, #8
 829              		.cfi_def_cfa_offset 16
 830 0004 0190     		str	r0, [sp, #4]
 831              		.loc 7 126 0
 832 0006 019B     		ldr	r3, [sp, #4]
 833 0008 1800     		movs	r0, r3
 834 000a FFF7FEFF 		bl	test_print
 835              		.loc 7 127 0
 836 000e 064B     		ldr	r3, .L45
 837 0010 1B68     		ldr	r3, [r3]
 838 0012 1B68     		ldr	r3, [r3]
 839 0014 1C68     		ldr	r4, [r3]
 840 0016 044B     		ldr	r3, .L45
 841 0018 1B68     		ldr	r3, [r3]
 842 001a 0449     		ldr	r1, .L45+4
 843 001c 0222     		movs	r2, #2
 844 001e 1800     		movs	r0, r3
 845 0020 A047     		blx	r4
 846              	.LVL5:
 847              		.loc 7 128 0
 848 0022 C046     		nop
 849 0024 02B0     		add	sp, sp, #8
 850              		@ sp needed
 851 0026 10BD     		pop	{r4, pc}
 852              	.L46:
ARM GAS  /tmp/cc6oyHFu.s 			page 16


 853              		.align	2
 854              	.L45:
 855 0028 00000000 		.word	chp
 856 002c 00000000 		.word	.LC5
 857              		.cfi_endproc
 858              	.LFE184:
 859              		.size	test_println, .-test_println
 860              		.section	.text.clear_tokens,"ax",%progbits
 861              		.align	1
 862              		.p2align 4,,15
 863              		.syntax unified
 864              		.code	16
 865              		.thumb_func
 866              		.fpu softvfp
 867              		.type	clear_tokens, %function
 868              	clear_tokens:
 869              	.LFB185:
 870              		.loc 7 133 0
 871              		.cfi_startproc
 872              		@ args = 0, pretend = 0, frame = 0
 873              		@ frame_needed = 0, uses_anonymous_args = 0
 874              		@ link register save eliminated.
 875              		.loc 7 135 0
 876 0000 024B     		ldr	r3, .L48
 877 0002 034A     		ldr	r2, .L48+4
 878 0004 1A60     		str	r2, [r3]
 879              		.loc 7 136 0
 880 0006 C046     		nop
 881              		@ sp needed
 882 0008 7047     		bx	lr
 883              	.L49:
 884 000a C046     		.align	2
 885              	.L48:
 886 000c 00000000 		.word	tokp
 887 0010 00000000 		.word	tokens_buffer
 888              		.cfi_endproc
 889              	.LFE185:
 890              		.size	clear_tokens, .-clear_tokens
 891              		.section	.text.print_tokens,"ax",%progbits
 892              		.align	1
 893              		.p2align 4,,15
 894              		.syntax unified
 895              		.code	16
 896              		.thumb_func
 897              		.fpu softvfp
 898              		.type	print_tokens, %function
 899              	print_tokens:
 900              	.LFB186:
 901              		.loc 7 138 0
 902              		.cfi_startproc
 903              		@ args = 0, pretend = 0, frame = 8
 904              		@ frame_needed = 0, uses_anonymous_args = 0
 905 0000 00B5     		push	{lr}
 906              		.cfi_def_cfa_offset 4
 907              		.cfi_offset 14, -4
 908 0002 83B0     		sub	sp, sp, #12
 909              		.cfi_def_cfa_offset 16
ARM GAS  /tmp/cc6oyHFu.s 			page 17


 910              		.loc 7 139 0
 911 0004 0B4B     		ldr	r3, .L53
 912 0006 0193     		str	r3, [sp, #4]
 913              		.loc 7 141 0
 914 0008 0BE0     		b	.L51
 915              	.L52:
 916              		.loc 7 142 0
 917 000a 0B4B     		ldr	r3, .L53+4
 918 000c 1B68     		ldr	r3, [r3]
 919 000e 1B68     		ldr	r3, [r3]
 920 0010 9A68     		ldr	r2, [r3, #8]
 921 0012 094B     		ldr	r3, .L53+4
 922 0014 1868     		ldr	r0, [r3]
 923 0016 019B     		ldr	r3, [sp, #4]
 924 0018 591C     		adds	r1, r3, #1
 925 001a 0191     		str	r1, [sp, #4]
 926 001c 1B78     		ldrb	r3, [r3]
 927 001e 1900     		movs	r1, r3
 928 0020 9047     		blx	r2
 929              	.LVL6:
 930              	.L51:
 931              		.loc 7 141 0
 932 0022 064B     		ldr	r3, .L53+8
 933 0024 1B68     		ldr	r3, [r3]
 934 0026 019A     		ldr	r2, [sp, #4]
 935 0028 9A42     		cmp	r2, r3
 936 002a EED3     		bcc	.L52
 937              		.loc 7 143 0
 938 002c C046     		nop
 939 002e 03B0     		add	sp, sp, #12
 940              		@ sp needed
 941 0030 00BD     		pop	{pc}
 942              	.L54:
 943 0032 C046     		.align	2
 944              	.L53:
 945 0034 00000000 		.word	tokens_buffer
 946 0038 00000000 		.word	chp
 947 003c 00000000 		.word	tokp
 948              		.cfi_endproc
 949              	.LFE186:
 950              		.size	print_tokens, .-print_tokens
 951              		.section	.text.test_emit_token,"ax",%progbits
 952              		.align	1
 953              		.p2align 4,,15
 954              		.global	test_emit_token
 955              		.syntax unified
 956              		.code	16
 957              		.thumb_func
 958              		.fpu softvfp
 959              		.type	test_emit_token, %function
 960              	test_emit_token:
 961              	.LFB187:
 962              		.loc 7 150 0
 963              		.cfi_startproc
 964              		@ args = 0, pretend = 0, frame = 8
 965              		@ frame_needed = 0, uses_anonymous_args = 0
 966 0000 00B5     		push	{lr}
ARM GAS  /tmp/cc6oyHFu.s 			page 18


 967              		.cfi_def_cfa_offset 4
 968              		.cfi_offset 14, -4
 969 0002 83B0     		sub	sp, sp, #12
 970              		.cfi_def_cfa_offset 16
 971 0004 0200     		movs	r2, r0
 972 0006 6B46     		mov	r3, sp
 973 0008 0733     		adds	r3, r3, #7
 974 000a 1A70     		strb	r2, [r3]
 975              		.loc 7 152 0
 976 000c FFF7FEFF 		bl	chSysLock
 977              		.loc 7 153 0
 978 0010 064B     		ldr	r3, .L56
 979 0012 1B68     		ldr	r3, [r3]
 980 0014 591C     		adds	r1, r3, #1
 981 0016 054A     		ldr	r2, .L56
 982 0018 1160     		str	r1, [r2]
 983 001a 6A46     		mov	r2, sp
 984 001c 0732     		adds	r2, r2, #7
 985 001e 1278     		ldrb	r2, [r2]
 986 0020 1A70     		strb	r2, [r3]
 987              		.loc 7 154 0
 988 0022 FFF7FEFF 		bl	chSysUnlock
 989              		.loc 7 155 0
 990 0026 C046     		nop
 991 0028 03B0     		add	sp, sp, #12
 992              		@ sp needed
 993 002a 00BD     		pop	{pc}
 994              	.L57:
 995              		.align	2
 996              	.L56:
 997 002c 00000000 		.word	tokp
 998              		.cfi_endproc
 999              	.LFE187:
 1000              		.size	test_emit_token, .-test_emit_token
 1001              		.section	.text._test_fail,"ax",%progbits
 1002              		.align	1
 1003              		.p2align 4,,15
 1004              		.global	_test_fail
 1005              		.syntax unified
 1006              		.code	16
 1007              		.thumb_func
 1008              		.fpu softvfp
 1009              		.type	_test_fail, %function
 1010              	_test_fail:
 1011              	.LFB188:
 1012              		.loc 7 160 0
 1013              		.cfi_startproc
 1014              		@ args = 0, pretend = 0, frame = 8
 1015              		@ frame_needed = 0, uses_anonymous_args = 0
 1016              		@ link register save eliminated.
 1017 0000 82B0     		sub	sp, sp, #8
 1018              		.cfi_def_cfa_offset 8
 1019 0002 0190     		str	r0, [sp, #4]
 1020              		.loc 7 162 0
 1021 0004 064B     		ldr	r3, .L60
 1022 0006 0122     		movs	r2, #1
 1023 0008 1A70     		strb	r2, [r3]
ARM GAS  /tmp/cc6oyHFu.s 			page 19


 1024              		.loc 7 163 0
 1025 000a 064B     		ldr	r3, .L60+4
 1026 000c 0122     		movs	r2, #1
 1027 000e 1A70     		strb	r2, [r3]
 1028              		.loc 7 164 0
 1029 0010 054B     		ldr	r3, .L60+8
 1030 0012 019A     		ldr	r2, [sp, #4]
 1031 0014 1A60     		str	r2, [r3]
 1032              		.loc 7 165 0
 1033 0016 0123     		movs	r3, #1
 1034              		.loc 7 166 0
 1035 0018 1800     		movs	r0, r3
 1036 001a 02B0     		add	sp, sp, #8
 1037              		@ sp needed
 1038 001c 7047     		bx	lr
 1039              	.L61:
 1040 001e C046     		.align	2
 1041              	.L60:
 1042 0020 00000000 		.word	test_global_fail
 1043 0024 00000000 		.word	local_fail
 1044 0028 00000000 		.word	failpoint
 1045              		.cfi_endproc
 1046              	.LFE188:
 1047              		.size	_test_fail, .-_test_fail
 1048              		.section	.text._test_assert,"ax",%progbits
 1049              		.align	1
 1050              		.p2align 4,,15
 1051              		.global	_test_assert
 1052              		.syntax unified
 1053              		.code	16
 1054              		.thumb_func
 1055              		.fpu softvfp
 1056              		.type	_test_assert, %function
 1057              	_test_assert:
 1058              	.LFB189:
 1059              		.loc 7 168 0
 1060              		.cfi_startproc
 1061              		@ args = 0, pretend = 0, frame = 8
 1062              		@ frame_needed = 0, uses_anonymous_args = 0
 1063 0000 00B5     		push	{lr}
 1064              		.cfi_def_cfa_offset 4
 1065              		.cfi_offset 14, -4
 1066 0002 83B0     		sub	sp, sp, #12
 1067              		.cfi_def_cfa_offset 16
 1068 0004 0190     		str	r0, [sp, #4]
 1069 0006 0A00     		movs	r2, r1
 1070 0008 6B46     		mov	r3, sp
 1071 000a 0333     		adds	r3, r3, #3
 1072 000c 1A70     		strb	r2, [r3]
 1073              		.loc 7 170 0
 1074 000e 6B46     		mov	r3, sp
 1075 0010 0333     		adds	r3, r3, #3
 1076 0012 1B78     		ldrb	r3, [r3]
 1077 0014 0122     		movs	r2, #1
 1078 0016 5340     		eors	r3, r2
 1079 0018 DBB2     		uxtb	r3, r3
 1080 001a 002B     		cmp	r3, #0
ARM GAS  /tmp/cc6oyHFu.s 			page 20


 1081 001c 05D0     		beq	.L63
 1082              		.loc 7 171 0
 1083 001e 019B     		ldr	r3, [sp, #4]
 1084 0020 1800     		movs	r0, r3
 1085 0022 FFF7FEFF 		bl	_test_fail
 1086 0026 0300     		movs	r3, r0
 1087 0028 00E0     		b	.L64
 1088              	.L63:
 1089              		.loc 7 172 0
 1090 002a 0023     		movs	r3, #0
 1091              	.L64:
 1092              		.loc 7 173 0
 1093 002c 1800     		movs	r0, r3
 1094 002e 03B0     		add	sp, sp, #12
 1095              		@ sp needed
 1096 0030 00BD     		pop	{pc}
 1097              		.cfi_endproc
 1098              	.LFE189:
 1099              		.size	_test_assert, .-_test_assert
 1100 0032 C046     		.section	.text._test_assert_sequence,"ax",%progbits
 1101              		.align	1
 1102              		.p2align 4,,15
 1103              		.global	_test_assert_sequence
 1104              		.syntax unified
 1105              		.code	16
 1106              		.thumb_func
 1107              		.fpu softvfp
 1108              		.type	_test_assert_sequence, %function
 1109              	_test_assert_sequence:
 1110              	.LFB190:
 1111              		.loc 7 175 0
 1112              		.cfi_startproc
 1113              		@ args = 0, pretend = 0, frame = 16
 1114              		@ frame_needed = 0, uses_anonymous_args = 0
 1115 0000 00B5     		push	{lr}
 1116              		.cfi_def_cfa_offset 4
 1117              		.cfi_offset 14, -4
 1118 0002 85B0     		sub	sp, sp, #20
 1119              		.cfi_def_cfa_offset 24
 1120 0004 0190     		str	r0, [sp, #4]
 1121 0006 0091     		str	r1, [sp]
 1122              		.loc 7 176 0
 1123 0008 134B     		ldr	r3, .L70
 1124 000a 0393     		str	r3, [sp, #12]
 1125              		.loc 7 177 0
 1126 000c 0FE0     		b	.L66
 1127              	.L68:
 1128              		.loc 7 178 0
 1129 000e 039B     		ldr	r3, [sp, #12]
 1130 0010 5A1C     		adds	r2, r3, #1
 1131 0012 0392     		str	r2, [sp, #12]
 1132 0014 1A78     		ldrb	r2, [r3]
 1133 0016 009B     		ldr	r3, [sp]
 1134 0018 591C     		adds	r1, r3, #1
 1135 001a 0091     		str	r1, [sp]
 1136 001c 1B78     		ldrb	r3, [r3]
 1137 001e 9A42     		cmp	r2, r3
ARM GAS  /tmp/cc6oyHFu.s 			page 21


 1138 0020 05D0     		beq	.L66
 1139              		.loc 7 179 0
 1140 0022 019B     		ldr	r3, [sp, #4]
 1141 0024 1800     		movs	r0, r3
 1142 0026 FFF7FEFF 		bl	_test_fail
 1143 002a 0300     		movs	r3, r0
 1144 002c 11E0     		b	.L67
 1145              	.L66:
 1146              		.loc 7 177 0
 1147 002e 0B4B     		ldr	r3, .L70+4
 1148 0030 1B68     		ldr	r3, [r3]
 1149 0032 039A     		ldr	r2, [sp, #12]
 1150 0034 9A42     		cmp	r2, r3
 1151 0036 EAD3     		bcc	.L68
 1152              		.loc 7 181 0
 1153 0038 009B     		ldr	r3, [sp]
 1154 003a 1B78     		ldrb	r3, [r3]
 1155 003c 002B     		cmp	r3, #0
 1156 003e 05D0     		beq	.L69
 1157              		.loc 7 182 0
 1158 0040 019B     		ldr	r3, [sp, #4]
 1159 0042 1800     		movs	r0, r3
 1160 0044 FFF7FEFF 		bl	_test_fail
 1161 0048 0300     		movs	r3, r0
 1162 004a 02E0     		b	.L67
 1163              	.L69:
 1164              		.loc 7 183 0
 1165 004c FFF7FEFF 		bl	clear_tokens
 1166              		.loc 7 184 0
 1167 0050 0023     		movs	r3, #0
 1168              	.L67:
 1169              		.loc 7 185 0
 1170 0052 1800     		movs	r0, r3
 1171 0054 05B0     		add	sp, sp, #20
 1172              		@ sp needed
 1173 0056 00BD     		pop	{pc}
 1174              	.L71:
 1175              		.align	2
 1176              	.L70:
 1177 0058 00000000 		.word	tokens_buffer
 1178 005c 00000000 		.word	tokp
 1179              		.cfi_endproc
 1180              	.LFE190:
 1181              		.size	_test_assert_sequence, .-_test_assert_sequence
 1182              		.section	.text._test_assert_time_window,"ax",%progbits
 1183              		.align	1
 1184              		.p2align 4,,15
 1185              		.global	_test_assert_time_window
 1186              		.syntax unified
 1187              		.code	16
 1188              		.thumb_func
 1189              		.fpu softvfp
 1190              		.type	_test_assert_time_window, %function
 1191              	_test_assert_time_window:
 1192              	.LFB191:
 1193              		.loc 7 187 0
 1194              		.cfi_startproc
ARM GAS  /tmp/cc6oyHFu.s 			page 22


 1195              		@ args = 0, pretend = 0, frame = 8
 1196              		@ frame_needed = 0, uses_anonymous_args = 0
 1197 0000 00B5     		push	{lr}
 1198              		.cfi_def_cfa_offset 4
 1199              		.cfi_offset 14, -4
 1200 0002 83B0     		sub	sp, sp, #12
 1201              		.cfi_def_cfa_offset 16
 1202 0004 0190     		str	r0, [sp, #4]
 1203 0006 0800     		movs	r0, r1
 1204 0008 1100     		movs	r1, r2
 1205 000a 6B46     		mov	r3, sp
 1206 000c 0233     		adds	r3, r3, #2
 1207 000e 021C     		adds	r2, r0, #0
 1208 0010 1A80     		strh	r2, [r3]
 1209 0012 6B46     		mov	r3, sp
 1210 0014 0A1C     		adds	r2, r1, #0
 1211 0016 1A80     		strh	r2, [r3]
 1212              		.loc 7 189 0
 1213 0018 6B46     		mov	r3, sp
 1214 001a 1A88     		ldrh	r2, [r3]
 1215 001c 6B46     		mov	r3, sp
 1216 001e 0233     		adds	r3, r3, #2
 1217 0020 1B88     		ldrh	r3, [r3]
 1218 0022 1100     		movs	r1, r2
 1219 0024 1800     		movs	r0, r3
 1220 0026 FFF7FEFF 		bl	chVTIsSystemTimeWithin
 1221 002a 0300     		movs	r3, r0
 1222 002c 1A00     		movs	r2, r3
 1223 002e 019B     		ldr	r3, [sp, #4]
 1224 0030 1100     		movs	r1, r2
 1225 0032 1800     		movs	r0, r3
 1226 0034 FFF7FEFF 		bl	_test_assert
 1227 0038 0300     		movs	r3, r0
 1228              		.loc 7 190 0
 1229 003a 1800     		movs	r0, r3
 1230 003c 03B0     		add	sp, sp, #12
 1231              		@ sp needed
 1232 003e 00BD     		pop	{pc}
 1233              		.cfi_endproc
 1234              	.LFE191:
 1235              		.size	_test_assert_time_window, .-_test_assert_time_window
 1236              		.section	.text.test_terminate_threads,"ax",%progbits
 1237              		.align	1
 1238              		.p2align 4,,15
 1239              		.global	test_terminate_threads
 1240              		.syntax unified
 1241              		.code	16
 1242              		.thumb_func
 1243              		.fpu softvfp
 1244              		.type	test_terminate_threads, %function
 1245              	test_terminate_threads:
 1246              	.LFB192:
 1247              		.loc 7 199 0
 1248              		.cfi_startproc
 1249              		@ args = 0, pretend = 0, frame = 8
 1250              		@ frame_needed = 0, uses_anonymous_args = 0
 1251 0000 00B5     		push	{lr}
ARM GAS  /tmp/cc6oyHFu.s 			page 23


 1252              		.cfi_def_cfa_offset 4
 1253              		.cfi_offset 14, -4
 1254 0002 83B0     		sub	sp, sp, #12
 1255              		.cfi_def_cfa_offset 16
 1256              		.loc 7 202 0
 1257 0004 0023     		movs	r3, #0
 1258 0006 0193     		str	r3, [sp, #4]
 1259 0008 0FE0     		b	.L75
 1260              	.L77:
 1261              		.loc 7 203 0
 1262 000a 0B4B     		ldr	r3, .L78
 1263 000c 019A     		ldr	r2, [sp, #4]
 1264 000e 9200     		lsls	r2, r2, #2
 1265 0010 D358     		ldr	r3, [r2, r3]
 1266 0012 002B     		cmp	r3, #0
 1267 0014 06D0     		beq	.L76
 1268              		.loc 7 204 0
 1269 0016 084B     		ldr	r3, .L78
 1270 0018 019A     		ldr	r2, [sp, #4]
 1271 001a 9200     		lsls	r2, r2, #2
 1272 001c D358     		ldr	r3, [r2, r3]
 1273 001e 1800     		movs	r0, r3
 1274 0020 FFF7FEFF 		bl	chThdTerminate
 1275              	.L76:
 1276              		.loc 7 202 0 discriminator 2
 1277 0024 019B     		ldr	r3, [sp, #4]
 1278 0026 0133     		adds	r3, r3, #1
 1279 0028 0193     		str	r3, [sp, #4]
 1280              	.L75:
 1281              		.loc 7 202 0 is_stmt 0 discriminator 1
 1282 002a 019B     		ldr	r3, [sp, #4]
 1283 002c 042B     		cmp	r3, #4
 1284 002e ECDD     		ble	.L77
 1285              		.loc 7 205 0 is_stmt 1
 1286 0030 C046     		nop
 1287 0032 03B0     		add	sp, sp, #12
 1288              		@ sp needed
 1289 0034 00BD     		pop	{pc}
 1290              	.L79:
 1291 0036 C046     		.align	2
 1292              	.L78:
 1293 0038 00000000 		.word	threads
 1294              		.cfi_endproc
 1295              	.LFE192:
 1296              		.size	test_terminate_threads, .-test_terminate_threads
 1297              		.section	.text.test_wait_threads,"ax",%progbits
 1298              		.align	1
 1299              		.p2align 4,,15
 1300              		.global	test_wait_threads
 1301              		.syntax unified
 1302              		.code	16
 1303              		.thumb_func
 1304              		.fpu softvfp
 1305              		.type	test_wait_threads, %function
 1306              	test_wait_threads:
 1307              	.LFB193:
 1308              		.loc 7 210 0
ARM GAS  /tmp/cc6oyHFu.s 			page 24


 1309              		.cfi_startproc
 1310              		@ args = 0, pretend = 0, frame = 8
 1311              		@ frame_needed = 0, uses_anonymous_args = 0
 1312 0000 00B5     		push	{lr}
 1313              		.cfi_def_cfa_offset 4
 1314              		.cfi_offset 14, -4
 1315 0002 83B0     		sub	sp, sp, #12
 1316              		.cfi_def_cfa_offset 16
 1317              		.loc 7 213 0
 1318 0004 0023     		movs	r3, #0
 1319 0006 0193     		str	r3, [sp, #4]
 1320 0008 14E0     		b	.L81
 1321              	.L83:
 1322              		.loc 7 214 0
 1323 000a 0D4B     		ldr	r3, .L84
 1324 000c 019A     		ldr	r2, [sp, #4]
 1325 000e 9200     		lsls	r2, r2, #2
 1326 0010 D358     		ldr	r3, [r2, r3]
 1327 0012 002B     		cmp	r3, #0
 1328 0014 0BD0     		beq	.L82
 1329              		.loc 7 215 0
 1330 0016 0A4B     		ldr	r3, .L84
 1331 0018 019A     		ldr	r2, [sp, #4]
 1332 001a 9200     		lsls	r2, r2, #2
 1333 001c D358     		ldr	r3, [r2, r3]
 1334 001e 1800     		movs	r0, r3
 1335 0020 FFF7FEFF 		bl	chThdWait
 1336              		.loc 7 216 0
 1337 0024 064B     		ldr	r3, .L84
 1338 0026 019A     		ldr	r2, [sp, #4]
 1339 0028 9200     		lsls	r2, r2, #2
 1340 002a 0021     		movs	r1, #0
 1341 002c D150     		str	r1, [r2, r3]
 1342              	.L82:
 1343              		.loc 7 213 0 discriminator 2
 1344 002e 019B     		ldr	r3, [sp, #4]
 1345 0030 0133     		adds	r3, r3, #1
 1346 0032 0193     		str	r3, [sp, #4]
 1347              	.L81:
 1348              		.loc 7 213 0 is_stmt 0 discriminator 1
 1349 0034 019B     		ldr	r3, [sp, #4]
 1350 0036 042B     		cmp	r3, #4
 1351 0038 E7DD     		ble	.L83
 1352              		.loc 7 218 0 is_stmt 1
 1353 003a C046     		nop
 1354 003c 03B0     		add	sp, sp, #12
 1355              		@ sp needed
 1356 003e 00BD     		pop	{pc}
 1357              	.L85:
 1358              		.align	2
 1359              	.L84:
 1360 0040 00000000 		.word	threads
 1361              		.cfi_endproc
 1362              	.LFE193:
 1363              		.size	test_wait_threads, .-test_wait_threads
 1364              		.section	.text.test_wait_tick,"ax",%progbits
 1365              		.align	1
ARM GAS  /tmp/cc6oyHFu.s 			page 25


 1366              		.p2align 4,,15
 1367              		.global	test_wait_tick
 1368              		.syntax unified
 1369              		.code	16
 1370              		.thumb_func
 1371              		.fpu softvfp
 1372              		.type	test_wait_tick, %function
 1373              	test_wait_tick:
 1374              	.LFB194:
 1375              		.loc 7 248 0
 1376              		.cfi_startproc
 1377              		@ args = 0, pretend = 0, frame = 0
 1378              		@ frame_needed = 0, uses_anonymous_args = 0
 1379 0000 10B5     		push	{r4, lr}
 1380              		.cfi_def_cfa_offset 8
 1381              		.cfi_offset 4, -8
 1382              		.cfi_offset 14, -4
 1383              		.loc 7 250 0
 1384 0002 0120     		movs	r0, #1
 1385 0004 FFF7FEFF 		bl	chThdSleep
 1386              		.loc 7 251 0
 1387 0008 FFF7FEFF 		bl	chVTGetSystemTime
 1388 000c 0300     		movs	r3, r0
 1389              		.loc 7 252 0
 1390 000e 1800     		movs	r0, r3
 1391              		@ sp needed
 1392 0010 10BD     		pop	{r4, pc}
 1393              		.cfi_endproc
 1394              	.LFE194:
 1395              		.size	test_wait_tick, .-test_wait_tick
 1396              		.comm	test_timer_done,1,1
 1397 0012 C046     		.section	.bss.vt,"aw",%nobits
 1398              		.align	2
 1399              		.type	vt, %object
 1400              		.size	vt, 20
 1401              	vt:
 1402 0000 00000000 		.space	20
 1402      00000000 
 1402      00000000 
 1402      00000000 
 1402      00000000 
 1403              		.section	.text.tmr,"ax",%progbits
 1404              		.align	1
 1405              		.p2align 4,,15
 1406              		.syntax unified
 1407              		.code	16
 1408              		.thumb_func
 1409              		.fpu softvfp
 1410              		.type	tmr, %function
 1411              	tmr:
 1412              	.LFB195:
 1413              		.loc 7 264 0
 1414              		.cfi_startproc
 1415              		@ args = 0, pretend = 0, frame = 8
 1416              		@ frame_needed = 0, uses_anonymous_args = 0
 1417              		@ link register save eliminated.
 1418 0000 82B0     		sub	sp, sp, #8
ARM GAS  /tmp/cc6oyHFu.s 			page 26


 1419              		.cfi_def_cfa_offset 8
 1420 0002 0190     		str	r0, [sp, #4]
 1421              		.loc 7 267 0
 1422 0004 024B     		ldr	r3, .L89
 1423 0006 0122     		movs	r2, #1
 1424 0008 1A70     		strb	r2, [r3]
 1425              		.loc 7 268 0
 1426 000a C046     		nop
 1427 000c 02B0     		add	sp, sp, #8
 1428              		@ sp needed
 1429 000e 7047     		bx	lr
 1430              	.L90:
 1431              		.align	2
 1432              	.L89:
 1433 0010 00000000 		.word	test_timer_done
 1434              		.cfi_endproc
 1435              	.LFE195:
 1436              		.size	tmr, .-tmr
 1437              		.section	.text.test_start_timer,"ax",%progbits
 1438              		.align	1
 1439              		.p2align 4,,15
 1440              		.global	test_start_timer
 1441              		.syntax unified
 1442              		.code	16
 1443              		.thumb_func
 1444              		.fpu softvfp
 1445              		.type	test_start_timer, %function
 1446              	test_start_timer:
 1447              	.LFB196:
 1448              		.loc 7 275 0
 1449              		.cfi_startproc
 1450              		@ args = 0, pretend = 0, frame = 16
 1451              		@ frame_needed = 0, uses_anonymous_args = 0
 1452 0000 00B5     		push	{lr}
 1453              		.cfi_def_cfa_offset 4
 1454              		.cfi_offset 14, -4
 1455 0002 85B0     		sub	sp, sp, #20
 1456              		.cfi_def_cfa_offset 24
 1457 0004 0190     		str	r0, [sp, #4]
 1458              		.loc 7 277 0
 1459 0006 019B     		ldr	r3, [sp, #4]
 1460 0008 0D4A     		ldr	r2, .L92
 1461 000a 5343     		muls	r3, r2
 1462 000c 0D4A     		ldr	r2, .L92+4
 1463 000e 9A18     		adds	r2, r3, r2
 1464 0010 FA23     		movs	r3, #250
 1465 0012 9900     		lsls	r1, r3, #2
 1466 0014 1000     		movs	r0, r2
 1467 0016 FFF7FEFF 		bl	__aeabi_uidiv
 1468              	.LVL7:
 1469 001a 0300     		movs	r3, r0
 1470 001c 1A00     		movs	r2, r3
 1471 001e 0E23     		movs	r3, #14
 1472 0020 6B44     		add	r3, r3, sp
 1473 0022 1A80     		strh	r2, [r3]
 1474              		.loc 7 278 0
 1475 0024 084B     		ldr	r3, .L92+8
ARM GAS  /tmp/cc6oyHFu.s 			page 27


 1476 0026 0022     		movs	r2, #0
 1477 0028 1A70     		strb	r2, [r3]
 1478              		.loc 7 279 0
 1479 002a 084A     		ldr	r2, .L92+12
 1480 002c 0E23     		movs	r3, #14
 1481 002e 6B44     		add	r3, r3, sp
 1482 0030 1988     		ldrh	r1, [r3]
 1483 0032 0748     		ldr	r0, .L92+16
 1484 0034 0023     		movs	r3, #0
 1485 0036 FFF7FEFF 		bl	chVTSet
 1486              		.loc 7 280 0
 1487 003a C046     		nop
 1488 003c 05B0     		add	sp, sp, #20
 1489              		@ sp needed
 1490 003e 00BD     		pop	{pc}
 1491              	.L93:
 1492              		.align	2
 1493              	.L92:
 1494 0040 10270000 		.word	10000
 1495 0044 E7030000 		.word	999
 1496 0048 00000000 		.word	test_timer_done
 1497 004c 00000000 		.word	tmr
 1498 0050 00000000 		.word	vt
 1499              		.cfi_endproc
 1500              	.LFE196:
 1501              		.size	test_start_timer, .-test_start_timer
 1502              		.section	.text.execute_test,"ax",%progbits
 1503              		.align	1
 1504              		.p2align 4,,15
 1505              		.syntax unified
 1506              		.code	16
 1507              		.thumb_func
 1508              		.fpu softvfp
 1509              		.type	execute_test, %function
 1510              	execute_test:
 1511              	.LFB197:
 1512              		.loc 7 285 0
 1513              		.cfi_startproc
 1514              		@ args = 0, pretend = 0, frame = 16
 1515              		@ frame_needed = 0, uses_anonymous_args = 0
 1516 0000 00B5     		push	{lr}
 1517              		.cfi_def_cfa_offset 4
 1518              		.cfi_offset 14, -4
 1519 0002 85B0     		sub	sp, sp, #20
 1520              		.cfi_def_cfa_offset 24
 1521 0004 0190     		str	r0, [sp, #4]
 1522              		.loc 7 289 0
 1523 0006 FFF7FEFF 		bl	clear_tokens
 1524              		.loc 7 290 0
 1525 000a 134B     		ldr	r3, .L99
 1526 000c 0022     		movs	r2, #0
 1527 000e 1A70     		strb	r2, [r3]
 1528              		.loc 7 291 0
 1529 0010 0023     		movs	r3, #0
 1530 0012 0393     		str	r3, [sp, #12]
 1531 0014 07E0     		b	.L95
 1532              	.L96:
ARM GAS  /tmp/cc6oyHFu.s 			page 28


 1533              		.loc 7 292 0 discriminator 3
 1534 0016 114B     		ldr	r3, .L99+4
 1535 0018 039A     		ldr	r2, [sp, #12]
 1536 001a 9200     		lsls	r2, r2, #2
 1537 001c 0021     		movs	r1, #0
 1538 001e D150     		str	r1, [r2, r3]
 1539              		.loc 7 291 0 discriminator 3
 1540 0020 039B     		ldr	r3, [sp, #12]
 1541 0022 0133     		adds	r3, r3, #1
 1542 0024 0393     		str	r3, [sp, #12]
 1543              	.L95:
 1544              		.loc 7 291 0 is_stmt 0 discriminator 1
 1545 0026 039B     		ldr	r3, [sp, #12]
 1546 0028 042B     		cmp	r3, #4
 1547 002a F4DD     		ble	.L96
 1548              		.loc 7 294 0 is_stmt 1
 1549 002c 019B     		ldr	r3, [sp, #4]
 1550 002e 5B68     		ldr	r3, [r3, #4]
 1551 0030 002B     		cmp	r3, #0
 1552 0032 02D0     		beq	.L97
 1553              		.loc 7 295 0
 1554 0034 019B     		ldr	r3, [sp, #4]
 1555 0036 5B68     		ldr	r3, [r3, #4]
 1556 0038 9847     		blx	r3
 1557              	.LVL8:
 1558              	.L97:
 1559              		.loc 7 296 0
 1560 003a 019B     		ldr	r3, [sp, #4]
 1561 003c DB68     		ldr	r3, [r3, #12]
 1562 003e 9847     		blx	r3
 1563              	.LVL9:
 1564              		.loc 7 297 0
 1565 0040 019B     		ldr	r3, [sp, #4]
 1566 0042 9B68     		ldr	r3, [r3, #8]
 1567 0044 002B     		cmp	r3, #0
 1568 0046 02D0     		beq	.L98
 1569              		.loc 7 298 0
 1570 0048 019B     		ldr	r3, [sp, #4]
 1571 004a 9B68     		ldr	r3, [r3, #8]
 1572 004c 9847     		blx	r3
 1573              	.LVL10:
 1574              	.L98:
 1575              		.loc 7 300 0
 1576 004e FFF7FEFF 		bl	test_wait_threads
 1577              		.loc 7 301 0
 1578 0052 C046     		nop
 1579 0054 05B0     		add	sp, sp, #20
 1580              		@ sp needed
 1581 0056 00BD     		pop	{pc}
 1582              	.L100:
 1583              		.align	2
 1584              	.L99:
 1585 0058 00000000 		.word	local_fail
 1586 005c 00000000 		.word	threads
 1587              		.cfi_endproc
 1588              	.LFE197:
 1589              		.size	execute_test, .-execute_test
ARM GAS  /tmp/cc6oyHFu.s 			page 29


 1590              		.section	.text.print_line,"ax",%progbits
 1591              		.align	1
 1592              		.p2align 4,,15
 1593              		.syntax unified
 1594              		.code	16
 1595              		.thumb_func
 1596              		.fpu softvfp
 1597              		.type	print_line, %function
 1598              	print_line:
 1599              	.LFB198:
 1600              		.loc 7 303 0
 1601              		.cfi_startproc
 1602              		@ args = 0, pretend = 0, frame = 8
 1603              		@ frame_needed = 0, uses_anonymous_args = 0
 1604 0000 10B5     		push	{r4, lr}
 1605              		.cfi_def_cfa_offset 8
 1606              		.cfi_offset 4, -8
 1607              		.cfi_offset 14, -4
 1608 0002 82B0     		sub	sp, sp, #8
 1609              		.cfi_def_cfa_offset 16
 1610              		.loc 7 306 0
 1611 0004 0023     		movs	r3, #0
 1612 0006 0193     		str	r3, [sp, #4]
 1613 0008 0BE0     		b	.L102
 1614              	.L103:
 1615              		.loc 7 307 0 discriminator 3
 1616 000a 0E4B     		ldr	r3, .L104
 1617 000c 1B68     		ldr	r3, [r3]
 1618 000e 1B68     		ldr	r3, [r3]
 1619 0010 9A68     		ldr	r2, [r3, #8]
 1620 0012 0C4B     		ldr	r3, .L104
 1621 0014 1B68     		ldr	r3, [r3]
 1622 0016 2D21     		movs	r1, #45
 1623 0018 1800     		movs	r0, r3
 1624 001a 9047     		blx	r2
 1625              	.LVL11:
 1626              		.loc 7 306 0 discriminator 3
 1627 001c 019B     		ldr	r3, [sp, #4]
 1628 001e 0133     		adds	r3, r3, #1
 1629 0020 0193     		str	r3, [sp, #4]
 1630              	.L102:
 1631              		.loc 7 306 0 is_stmt 0 discriminator 1
 1632 0022 019B     		ldr	r3, [sp, #4]
 1633 0024 4B2B     		cmp	r3, #75
 1634 0026 F0D9     		bls	.L103
 1635              		.loc 7 308 0 is_stmt 1
 1636 0028 064B     		ldr	r3, .L104
 1637 002a 1B68     		ldr	r3, [r3]
 1638 002c 1B68     		ldr	r3, [r3]
 1639 002e 1C68     		ldr	r4, [r3]
 1640 0030 044B     		ldr	r3, .L104
 1641 0032 1B68     		ldr	r3, [r3]
 1642 0034 0449     		ldr	r1, .L104+4
 1643 0036 0222     		movs	r2, #2
 1644 0038 1800     		movs	r0, r3
 1645 003a A047     		blx	r4
 1646              	.LVL12:
ARM GAS  /tmp/cc6oyHFu.s 			page 30


 1647              		.loc 7 309 0
 1648 003c C046     		nop
 1649 003e 02B0     		add	sp, sp, #8
 1650              		@ sp needed
 1651 0040 10BD     		pop	{r4, pc}
 1652              	.L105:
 1653 0042 C046     		.align	2
 1654              	.L104:
 1655 0044 00000000 		.word	chp
 1656 0048 00000000 		.word	.LC5
 1657              		.cfi_endproc
 1658              	.LFE198:
 1659              		.size	print_line, .-print_line
 1660              		.section	.rodata
 1661 0003 00       		.align	2
 1662              	.LC29:
 1663 0004 00       		.ascii	"\000"
 1664 0005 000000   		.align	2
 1665              	.LC31:
 1666 0008 2A2A2A20 		.ascii	"*** ChibiOS/RT test suite\000"
 1666      43686962 
 1666      694F532F 
 1666      52542074 
 1666      65737420 
 1667 0022 0000     		.align	2
 1668              	.LC33:
 1669 0024 2A2A2A00 		.ascii	"***\000"
 1670              		.align	2
 1671              	.LC35:
 1672 0028 2A2A2A20 		.ascii	"*** Kernel:       \000"
 1672      4B65726E 
 1672      656C3A20 
 1672      20202020 
 1672      202000
 1673 003b 00       		.align	2
 1674              	.LC37:
 1675 003c 332E322E 		.ascii	"3.2.0\000"
 1675      3000
 1676 0042 0000     		.align	2
 1677              	.LC39:
 1678 0044 2A2A2A20 		.ascii	"*** Compiled:     \000"
 1678      436F6D70 
 1678      696C6564 
 1678      3A202020 
 1678      202000
 1679 0057 00       		.align	2
 1680              	.LC41:
 1681 0058 41756720 		.ascii	"Aug  7 2017 - 23:55:39\000"
 1681      20372032 
 1681      30313720 
 1681      2D203233 
 1681      3A35353A 
 1682 006f 00       		.align	2
 1683              	.LC43:
 1684 0070 2A2A2A20 		.ascii	"*** Compiler:     \000"
 1684      436F6D70 
 1684      696C6572 
ARM GAS  /tmp/cc6oyHFu.s 			page 31


 1684      3A202020 
 1684      202000
 1685 0083 00       		.align	2
 1686              	.LC45:
 1687 0084 47434320 		.ascii	"GCC 6.3.1 20170215 (release) [ARM/embedded-6-branch"
 1687      362E332E 
 1687      31203230 
 1687      31373032 
 1687      31352028 
 1688 00b7 20726576 		.ascii	" revision 245512]\000"
 1688      6973696F 
 1688      6E203234 
 1688      35353132 
 1688      5D00
 1689 00c9 000000   		.align	2
 1690              	.LC47:
 1691 00cc 2A2A2A20 		.ascii	"*** Architecture: \000"
 1691      41726368 
 1691      69746563 
 1691      74757265 
 1691      3A2000
 1692 00df 00       		.align	2
 1693              	.LC49:
 1694 00e0 41524D76 		.ascii	"ARMv6-M\000"
 1694      362D4D00 
 1695              		.align	2
 1696              	.LC51:
 1697 00e8 2A2A2A20 		.ascii	"*** Core Variant: \000"
 1697      436F7265 
 1697      20566172 
 1697      69616E74 
 1697      3A2000
 1698 00fb 00       		.align	2
 1699              	.LC53:
 1700 00fc 436F7274 		.ascii	"Cortex-M0\000"
 1700      65782D4D 
 1700      3000
 1701 0106 0000     		.align	2
 1702              	.LC55:
 1703 0108 2A2A2A20 		.ascii	"*** Port Info:    \000"
 1703      506F7274 
 1703      20496E66 
 1703      6F3A2020 
 1703      202000
 1704 011b 00       		.align	2
 1705              	.LC57:
 1706 011c 50726565 		.ascii	"Preemption through NMI\000"
 1706      6D707469 
 1706      6F6E2074 
 1706      68726F75 
 1706      6768204E 
 1707 0133 00       		.align	2
 1708              	.LC59:
 1709 0134 2A2A2A20 		.ascii	"*** Platform:     \000"
 1709      506C6174 
 1709      666F726D 
 1709      3A202020 
ARM GAS  /tmp/cc6oyHFu.s 			page 32


 1709      202000
 1710 0147 00       		.align	2
 1711              	.LC61:
 1712 0148 53544D33 		.ascii	"STM32F030xC Entry Level Value Line devices\000"
 1712      32463033 
 1712      30784320 
 1712      456E7472 
 1712      79204C65 
 1713 0173 00       		.align	2
 1714              	.LC63:
 1715 0174 2A2A2A20 		.ascii	"*** Test Board:   \000"
 1715      54657374 
 1715      20426F61 
 1715      72643A20 
 1715      202000
 1716 0187 00       		.align	2
 1717              	.LC65:
 1718 0188 45534120 		.ascii	"ESA board (v4)\000"
 1718      626F6172 
 1718      64202876 
 1718      342900
 1719 0197 00       		.align	2
 1720              	.LC68:
 1721 0198 2D2D2D20 		.ascii	"--- Test Case \000"
 1721      54657374 
 1721      20436173 
 1721      652000
 1722 01a7 00       		.align	2
 1723              	.LC70:
 1724 01a8 2E00     		.ascii	".\000"
 1725 01aa 0000     		.align	2
 1726              	.LC72:
 1727 01ac 202800   		.ascii	" (\000"
 1728 01af 00       		.align	2
 1729              	.LC75:
 1730 01b0 2900     		.ascii	")\000"
 1731 01b2 0000     		.align	2
 1732              	.LC78:
 1733 01b4 2D2D2D20 		.ascii	"--- Result: FAILURE (#\000"
 1733      52657375 
 1733      6C743A20 
 1733      4641494C 
 1733      55524520 
 1734 01cb 00       		.align	2
 1735              	.LC81:
 1736 01cc 205B00   		.ascii	" [\000"
 1737 01cf 00       		.align	2
 1738              	.LC83:
 1739 01d0 5D2900   		.ascii	"])\000"
 1740 01d3 00       		.align	2
 1741              	.LC85:
 1742 01d4 2D2D2D20 		.ascii	"--- Result: SUCCESS\000"
 1742      52657375 
 1742      6C743A20 
 1742      53554343 
 1742      45535300 
 1743              		.align	2
ARM GAS  /tmp/cc6oyHFu.s 			page 33


 1744              	.LC87:
 1745 01e8 46696E61 		.ascii	"Final result: \000"
 1745      6C207265 
 1745      73756C74 
 1745      3A2000
 1746 01f7 00       		.align	2
 1747              	.LC89:
 1748 01f8 4641494C 		.ascii	"FAILURE\000"
 1748      55524500 
 1749              		.align	2
 1750              	.LC91:
 1751 0200 53554343 		.ascii	"SUCCESS\000"
 1751      45535300 
 1752              		.section	.text.TestThread,"ax",%progbits
 1753              		.align	1
 1754              		.p2align 4,,15
 1755              		.global	TestThread
 1756              		.syntax unified
 1757              		.code	16
 1758              		.thumb_func
 1759              		.fpu softvfp
 1760              		.type	TestThread, %function
 1761              	TestThread:
 1762              	.LFB199:
 1763              		.loc 7 316 0
 1764              		.cfi_startproc
 1765              		@ args = 0, pretend = 0, frame = 16
 1766              		@ frame_needed = 0, uses_anonymous_args = 0
 1767 0000 00B5     		push	{lr}
 1768              		.cfi_def_cfa_offset 4
 1769              		.cfi_offset 14, -4
 1770 0002 85B0     		sub	sp, sp, #20
 1771              		.cfi_def_cfa_offset 24
 1772 0004 0190     		str	r0, [sp, #4]
 1773              		.loc 7 319 0
 1774 0006 704B     		ldr	r3, .L116
 1775 0008 019A     		ldr	r2, [sp, #4]
 1776 000a 1A60     		str	r2, [r3]
 1777              		.loc 7 320 0
 1778 000c 6F4B     		ldr	r3, .L116+4
 1779 000e 1800     		movs	r0, r3
 1780 0010 FFF7FEFF 		bl	test_println
 1781              		.loc 7 321 0
 1782 0014 6E4B     		ldr	r3, .L116+8
 1783 0016 1800     		movs	r0, r3
 1784 0018 FFF7FEFF 		bl	test_println
 1785              		.loc 7 322 0
 1786 001c 6D4B     		ldr	r3, .L116+12
 1787 001e 1800     		movs	r0, r3
 1788 0020 FFF7FEFF 		bl	test_println
 1789              		.loc 7 323 0
 1790 0024 6C4B     		ldr	r3, .L116+16
 1791 0026 1800     		movs	r0, r3
 1792 0028 FFF7FEFF 		bl	test_print
 1793              		.loc 7 324 0
 1794 002c 6B4B     		ldr	r3, .L116+20
 1795 002e 1800     		movs	r0, r3
ARM GAS  /tmp/cc6oyHFu.s 			page 34


 1796 0030 FFF7FEFF 		bl	test_println
 1797              		.loc 7 325 0
 1798 0034 6A4B     		ldr	r3, .L116+24
 1799 0036 1800     		movs	r0, r3
 1800 0038 FFF7FEFF 		bl	test_print
 1801              		.loc 7 326 0
 1802 003c 694B     		ldr	r3, .L116+28
 1803 003e 1800     		movs	r0, r3
 1804 0040 FFF7FEFF 		bl	test_println
 1805              		.loc 7 328 0
 1806 0044 684B     		ldr	r3, .L116+32
 1807 0046 1800     		movs	r0, r3
 1808 0048 FFF7FEFF 		bl	test_print
 1809              		.loc 7 329 0
 1810 004c 674B     		ldr	r3, .L116+36
 1811 004e 1800     		movs	r0, r3
 1812 0050 FFF7FEFF 		bl	test_println
 1813              		.loc 7 331 0
 1814 0054 664B     		ldr	r3, .L116+40
 1815 0056 1800     		movs	r0, r3
 1816 0058 FFF7FEFF 		bl	test_print
 1817              		.loc 7 332 0
 1818 005c 654B     		ldr	r3, .L116+44
 1819 005e 1800     		movs	r0, r3
 1820 0060 FFF7FEFF 		bl	test_println
 1821              		.loc 7 334 0
 1822 0064 644B     		ldr	r3, .L116+48
 1823 0066 1800     		movs	r0, r3
 1824 0068 FFF7FEFF 		bl	test_print
 1825              		.loc 7 335 0
 1826 006c 634B     		ldr	r3, .L116+52
 1827 006e 1800     		movs	r0, r3
 1828 0070 FFF7FEFF 		bl	test_println
 1829              		.loc 7 338 0
 1830 0074 624B     		ldr	r3, .L116+56
 1831 0076 1800     		movs	r0, r3
 1832 0078 FFF7FEFF 		bl	test_print
 1833              		.loc 7 339 0
 1834 007c 614B     		ldr	r3, .L116+60
 1835 007e 1800     		movs	r0, r3
 1836 0080 FFF7FEFF 		bl	test_println
 1837              		.loc 7 342 0
 1838 0084 604B     		ldr	r3, .L116+64
 1839 0086 1800     		movs	r0, r3
 1840 0088 FFF7FEFF 		bl	test_print
 1841              		.loc 7 343 0
 1842 008c 5F4B     		ldr	r3, .L116+68
 1843 008e 1800     		movs	r0, r3
 1844 0090 FFF7FEFF 		bl	test_println
 1845              		.loc 7 346 0
 1846 0094 5E4B     		ldr	r3, .L116+72
 1847 0096 1800     		movs	r0, r3
 1848 0098 FFF7FEFF 		bl	test_print
 1849              		.loc 7 347 0
 1850 009c 5D4B     		ldr	r3, .L116+76
 1851 009e 1800     		movs	r0, r3
 1852 00a0 FFF7FEFF 		bl	test_println
ARM GAS  /tmp/cc6oyHFu.s 			page 35


 1853              		.loc 7 349 0
 1854 00a4 494B     		ldr	r3, .L116+4
 1855 00a6 1800     		movs	r0, r3
 1856 00a8 FFF7FEFF 		bl	test_println
 1857              		.loc 7 351 0
 1858 00ac 5A4B     		ldr	r3, .L116+80
 1859 00ae 0022     		movs	r2, #0
 1860 00b0 1A70     		strb	r2, [r3]
 1861              		.loc 7 352 0
 1862 00b2 0023     		movs	r3, #0
 1863 00b4 0393     		str	r3, [sp, #12]
 1864              		.loc 7 353 0
 1865 00b6 66E0     		b	.L107
 1866              	.L112:
 1867              		.loc 7 354 0
 1868 00b8 0023     		movs	r3, #0
 1869 00ba 0293     		str	r3, [sp, #8]
 1870              		.loc 7 355 0
 1871 00bc 56E0     		b	.L108
 1872              	.L111:
 1873              		.loc 7 356 0
 1874 00be FFF7FEFF 		bl	print_line
 1875              		.loc 7 357 0
 1876 00c2 564B     		ldr	r3, .L116+84
 1877 00c4 1800     		movs	r0, r3
 1878 00c6 FFF7FEFF 		bl	test_print
 1879              		.loc 7 358 0
 1880 00ca 039B     		ldr	r3, [sp, #12]
 1881 00cc 0133     		adds	r3, r3, #1
 1882 00ce 1800     		movs	r0, r3
 1883 00d0 FFF7FEFF 		bl	test_printn
 1884              		.loc 7 359 0
 1885 00d4 524B     		ldr	r3, .L116+88
 1886 00d6 1800     		movs	r0, r3
 1887 00d8 FFF7FEFF 		bl	test_print
 1888              		.loc 7 360 0
 1889 00dc 029B     		ldr	r3, [sp, #8]
 1890 00de 0133     		adds	r3, r3, #1
 1891 00e0 1800     		movs	r0, r3
 1892 00e2 FFF7FEFF 		bl	test_printn
 1893              		.loc 7 361 0
 1894 00e6 4F4B     		ldr	r3, .L116+92
 1895 00e8 1800     		movs	r0, r3
 1896 00ea FFF7FEFF 		bl	test_print
 1897              		.loc 7 362 0
 1898 00ee 4E4B     		ldr	r3, .L116+96
 1899 00f0 039A     		ldr	r2, [sp, #12]
 1900 00f2 9200     		lsls	r2, r2, #2
 1901 00f4 D258     		ldr	r2, [r2, r3]
 1902 00f6 029B     		ldr	r3, [sp, #8]
 1903 00f8 9B00     		lsls	r3, r3, #2
 1904 00fa D318     		adds	r3, r2, r3
 1905 00fc 1B68     		ldr	r3, [r3]
 1906 00fe 1B68     		ldr	r3, [r3]
 1907 0100 1800     		movs	r0, r3
 1908 0102 FFF7FEFF 		bl	test_print
 1909              		.loc 7 363 0
ARM GAS  /tmp/cc6oyHFu.s 			page 36


 1910 0106 494B     		ldr	r3, .L116+100
 1911 0108 1800     		movs	r0, r3
 1912 010a FFF7FEFF 		bl	test_println
 1913              		.loc 7 365 0
 1914 010e FA23     		movs	r3, #250
 1915 0110 DB00     		lsls	r3, r3, #3
 1916 0112 1800     		movs	r0, r3
 1917 0114 FFF7FEFF 		bl	chThdSleep
 1918              		.loc 7 367 0
 1919 0118 434B     		ldr	r3, .L116+96
 1920 011a 039A     		ldr	r2, [sp, #12]
 1921 011c 9200     		lsls	r2, r2, #2
 1922 011e D258     		ldr	r2, [r2, r3]
 1923 0120 029B     		ldr	r3, [sp, #8]
 1924 0122 9B00     		lsls	r3, r3, #2
 1925 0124 D318     		adds	r3, r2, r3
 1926 0126 1B68     		ldr	r3, [r3]
 1927 0128 1800     		movs	r0, r3
 1928 012a FFF7FEFF 		bl	execute_test
 1929              		.loc 7 368 0
 1930 012e 404B     		ldr	r3, .L116+104
 1931 0130 1B78     		ldrb	r3, [r3]
 1932 0132 002B     		cmp	r3, #0
 1933 0134 13D0     		beq	.L109
 1934              		.loc 7 369 0
 1935 0136 3F4B     		ldr	r3, .L116+108
 1936 0138 1800     		movs	r0, r3
 1937 013a FFF7FEFF 		bl	test_print
 1938              		.loc 7 370 0
 1939 013e 3E4B     		ldr	r3, .L116+112
 1940 0140 1B68     		ldr	r3, [r3]
 1941 0142 1800     		movs	r0, r3
 1942 0144 FFF7FEFF 		bl	test_printn
 1943              		.loc 7 371 0
 1944 0148 3C4B     		ldr	r3, .L116+116
 1945 014a 1800     		movs	r0, r3
 1946 014c FFF7FEFF 		bl	test_print
 1947              		.loc 7 372 0
 1948 0150 FFF7FEFF 		bl	print_tokens
 1949              		.loc 7 373 0
 1950 0154 3A4B     		ldr	r3, .L116+120
 1951 0156 1800     		movs	r0, r3
 1952 0158 FFF7FEFF 		bl	test_println
 1953 015c 03E0     		b	.L110
 1954              	.L109:
 1955              		.loc 7 376 0
 1956 015e 394B     		ldr	r3, .L116+124
 1957 0160 1800     		movs	r0, r3
 1958 0162 FFF7FEFF 		bl	test_println
 1959              	.L110:
 1960              		.loc 7 377 0
 1961 0166 029B     		ldr	r3, [sp, #8]
 1962 0168 0133     		adds	r3, r3, #1
 1963 016a 0293     		str	r3, [sp, #8]
 1964              	.L108:
 1965              		.loc 7 355 0
 1966 016c 2E4B     		ldr	r3, .L116+96
ARM GAS  /tmp/cc6oyHFu.s 			page 37


 1967 016e 039A     		ldr	r2, [sp, #12]
 1968 0170 9200     		lsls	r2, r2, #2
 1969 0172 D258     		ldr	r2, [r2, r3]
 1970 0174 029B     		ldr	r3, [sp, #8]
 1971 0176 9B00     		lsls	r3, r3, #2
 1972 0178 D318     		adds	r3, r2, r3
 1973 017a 1B68     		ldr	r3, [r3]
 1974 017c 002B     		cmp	r3, #0
 1975 017e 9ED1     		bne	.L111
 1976              		.loc 7 379 0
 1977 0180 039B     		ldr	r3, [sp, #12]
 1978 0182 0133     		adds	r3, r3, #1
 1979 0184 0393     		str	r3, [sp, #12]
 1980              	.L107:
 1981              		.loc 7 353 0
 1982 0186 284B     		ldr	r3, .L116+96
 1983 0188 039A     		ldr	r2, [sp, #12]
 1984 018a 9200     		lsls	r2, r2, #2
 1985 018c D358     		ldr	r3, [r2, r3]
 1986 018e 002B     		cmp	r3, #0
 1987 0190 92D1     		bne	.L112
 1988              		.loc 7 381 0
 1989 0192 FFF7FEFF 		bl	print_line
 1990              		.loc 7 382 0
 1991 0196 0D4B     		ldr	r3, .L116+4
 1992 0198 1800     		movs	r0, r3
 1993 019a FFF7FEFF 		bl	test_println
 1994              		.loc 7 383 0
 1995 019e 2A4B     		ldr	r3, .L116+128
 1996 01a0 1800     		movs	r0, r3
 1997 01a2 FFF7FEFF 		bl	test_print
 1998              		.loc 7 384 0
 1999 01a6 1C4B     		ldr	r3, .L116+80
 2000 01a8 1B78     		ldrb	r3, [r3]
 2001 01aa 002B     		cmp	r3, #0
 2002 01ac 04D0     		beq	.L113
 2003              		.loc 7 385 0
 2004 01ae 274B     		ldr	r3, .L116+132
 2005 01b0 1800     		movs	r0, r3
 2006 01b2 FFF7FEFF 		bl	test_println
 2007              		.loc 7 388 0
 2008 01b6 03E0     		b	.L115
 2009              	.L113:
 2010              		.loc 7 387 0
 2011 01b8 254B     		ldr	r3, .L116+136
 2012 01ba 1800     		movs	r0, r3
 2013 01bc FFF7FEFF 		bl	test_println
 2014              	.L115:
 2015              		.loc 7 388 0
 2016 01c0 C046     		nop
 2017 01c2 05B0     		add	sp, sp, #20
 2018              		@ sp needed
 2019 01c4 00BD     		pop	{pc}
 2020              	.L117:
 2021 01c6 C046     		.align	2
 2022              	.L116:
 2023 01c8 00000000 		.word	chp
ARM GAS  /tmp/cc6oyHFu.s 			page 38


 2024 01cc 04000000 		.word	.LC29
 2025 01d0 08000000 		.word	.LC31
 2026 01d4 24000000 		.word	.LC33
 2027 01d8 28000000 		.word	.LC35
 2028 01dc 3C000000 		.word	.LC37
 2029 01e0 44000000 		.word	.LC39
 2030 01e4 58000000 		.word	.LC41
 2031 01e8 70000000 		.word	.LC43
 2032 01ec 84000000 		.word	.LC45
 2033 01f0 CC000000 		.word	.LC47
 2034 01f4 E0000000 		.word	.LC49
 2035 01f8 E8000000 		.word	.LC51
 2036 01fc FC000000 		.word	.LC53
 2037 0200 08010000 		.word	.LC55
 2038 0204 1C010000 		.word	.LC57
 2039 0208 34010000 		.word	.LC59
 2040 020c 48010000 		.word	.LC61
 2041 0210 74010000 		.word	.LC63
 2042 0214 88010000 		.word	.LC65
 2043 0218 00000000 		.word	test_global_fail
 2044 021c 98010000 		.word	.LC68
 2045 0220 A8010000 		.word	.LC70
 2046 0224 AC010000 		.word	.LC72
 2047 0228 00000000 		.word	patterns
 2048 022c B0010000 		.word	.LC75
 2049 0230 00000000 		.word	local_fail
 2050 0234 B4010000 		.word	.LC78
 2051 0238 00000000 		.word	failpoint
 2052 023c CC010000 		.word	.LC81
 2053 0240 D0010000 		.word	.LC83
 2054 0244 D4010000 		.word	.LC85
 2055 0248 E8010000 		.word	.LC87
 2056 024c F8010000 		.word	.LC89
 2057 0250 00020000 		.word	.LC91
 2058              		.cfi_endproc
 2059              	.LFE199:
 2060              		.size	TestThread, .-TestThread
 2061              		.section	.rodata.__func__.4993,"a",%progbits
 2062              		.align	2
 2063              		.type	__func__.4993, %object
 2064              		.size	__func__.4993, 12
 2065              	__func__.4993:
 2066 0000 63685379 		.ascii	"chSysUnlock\000"
 2066      73556E6C 
 2066      6F636B00 
 2067              		.text
 2068              	.Letext0:
 2069              		.file 8 "/home/felix/opt/gcc-arm-none-eabi-6-2017-q1-update/lib/gcc/arm-none-eabi/6.3.1/include/st
 2070              		.file 9 "/home/felix/opt/gcc-arm-none-eabi-6-2017-q1-update/arm-none-eabi/include/machine/_default
 2071              		.file 10 "/home/felix/opt/gcc-arm-none-eabi-6-2017-q1-update/arm-none-eabi/include/sys/_stdint.h"
 2072              		.file 11 "ChibiOS/os/rt/ports/ARMCMx/compilers/GCC/chtypes.h"
 2073              		.file 12 "ChibiOS/os/rt/include/chsystypes.h"
 2074              		.file 13 "ChibiOS/os/rt/include/chschd.h"
 2075              		.file 14 "ChibiOS/os/ext/CMSIS/ST/STM32F0xx/stm32f030xc.h"
 2076              		.file 15 "ChibiOS/os/rt/ports/ARMCMx/chcore.h"
 2077              		.file 16 "ChibiOS/os/hal/ports/STM32/LLD/TIMv1/stm32_tim.h"
 2078              		.file 17 "ChibiOS/os/rt/include/chdebug.h"
ARM GAS  /tmp/cc6oyHFu.s 			page 39


 2079              		.file 18 "ChibiOS/os/rt/include/chsem.h"
 2080              		.file 19 "ChibiOS/os/rt/include/chmtx.h"
 2081              		.file 20 "ChibiOS/os/rt/include/chregistry.h"
 2082              		.file 21 "ChibiOS/os/ext/CMSIS/ST/STM32F0xx/system_stm32f0xx.h"
 2083              		.file 22 "ChibiOS/os/rt/include/chevents.h"
 2084              		.file 23 "ChibiOS/os/rt/include/chqueues.h"
 2085              		.file 24 "ChibiOS/os/rt/include/chstreams.h"
 2086              		.file 25 "ChibiOS/os/hal/ports/STM32/LLD/DMAv1/stm32_dma.h"
 2087              		.file 26 "ChibiOS/os/hal/ports/STM32/LLD/GPIOv2/pal_lld.h"
 2088              		.file 27 "ChibiOS/os/hal/include/serial.h"
 2089              		.file 28 "ChibiOS/os/hal/ports/STM32/LLD/USARTv2/serial_lld.h"
 2090              		.file 29 "ChibiOS/test/rt/test.h"
 2091              		.file 30 "ChibiOS/test/rt/testsys.h"
 2092              		.file 31 "ChibiOS/test/rt/testthd.h"
 2093              		.file 32 "ChibiOS/test/rt/testsem.h"
 2094              		.file 33 "ChibiOS/test/rt/testmtx.h"
 2095              		.file 34 "ChibiOS/test/rt/testmsg.h"
 2096              		.file 35 "ChibiOS/test/rt/testmbox.h"
 2097              		.file 36 "ChibiOS/test/rt/testevt.h"
 2098              		.file 37 "ChibiOS/test/rt/testheap.h"
 2099              		.file 38 "ChibiOS/test/rt/testpools.h"
 2100              		.file 39 "ChibiOS/test/rt/testdyn.h"
 2101              		.file 40 "ChibiOS/test/rt/testqueues.h"
 2102              		.file 41 "ChibiOS/test/rt/testbmk.h"