ARM GAS  /tmp/cc0aws4r.s 			page 1


   1              		.cpu cortex-m0
   2              		.eabi_attribute 20, 1
   3              		.eabi_attribute 21, 1
   4              		.eabi_attribute 23, 3
   5              		.eabi_attribute 24, 1
   6              		.eabi_attribute 25, 1
   7              		.eabi_attribute 26, 1
   8              		.eabi_attribute 30, 6
   9              		.eabi_attribute 34, 0
  10              		.eabi_attribute 18, 4
  11              		.file	"testsem.c"
  12              		.text
  13              	.Ltext0:
  14              		.cfi_sections	.debug_frame
  15              		.section	.text.port_lock,"ax",%progbits
  16              		.align	1
  17              		.p2align 4,,15
  18              		.syntax unified
  19              		.code	16
  20              		.thumb_func
  21              		.fpu softvfp
  22              		.type	port_lock, %function
  23              	port_lock:
  24              	.LFB38:
  25              		.file 1 "ChibiOS/os/rt/ports/ARMCMx/chcore_v6m.h"
  26              		.loc 1 330 0
  27              		.cfi_startproc
  28              		@ args = 0, pretend = 0, frame = 0
  29              		@ frame_needed = 0, uses_anonymous_args = 0
  30              		@ link register save eliminated.
  31              	.LBB6:
  32              	.LBB7:
  33              		.file 2 "ChibiOS/os/ext/CMSIS/include/core_cmFunc.h"
  34              		.loc 2 344 0
  35              		.syntax divided
  36              	@ 344 "ChibiOS/os/ext/CMSIS/include/core_cmFunc.h" 1
  37 0000 72B6     		cpsid i
  38              	@ 0 "" 2
  39              		.thumb
  40              		.syntax unified
  41              	.LBE7:
  42              	.LBE6:
  43              		.loc 1 333 0
  44 0002 C046     		nop
  45              		@ sp needed
  46 0004 7047     		bx	lr
  47              		.cfi_endproc
  48              	.LFE38:
  49              		.size	port_lock, .-port_lock
  50 0006 C046     		.section	.text.port_unlock,"ax",%progbits
  51              		.align	1
  52              		.p2align 4,,15
  53              		.syntax unified
  54              		.code	16
  55              		.thumb_func
  56              		.fpu softvfp
  57              		.type	port_unlock, %function
ARM GAS  /tmp/cc0aws4r.s 			page 2


  58              	port_unlock:
  59              	.LFB39:
  60              		.loc 1 339 0
  61              		.cfi_startproc
  62              		@ args = 0, pretend = 0, frame = 0
  63              		@ frame_needed = 0, uses_anonymous_args = 0
  64              		@ link register save eliminated.
  65              	.LBB8:
  66              	.LBB9:
  67              		.loc 2 333 0
  68              		.syntax divided
  69              	@ 333 "ChibiOS/os/ext/CMSIS/include/core_cmFunc.h" 1
  70 0000 62B6     		cpsie i
  71              	@ 0 "" 2
  72              		.thumb
  73              		.syntax unified
  74              	.LBE9:
  75              	.LBE8:
  76              		.loc 1 342 0
  77 0002 C046     		nop
  78              		@ sp needed
  79 0004 7047     		bx	lr
  80              		.cfi_endproc
  81              	.LFE39:
  82              		.size	port_unlock, .-port_unlock
  83 0006 C046     		.section	.text.st_lld_get_counter,"ax",%progbits
  84              		.align	1
  85              		.p2align 4,,15
  86              		.syntax unified
  87              		.code	16
  88              		.thumb_func
  89              		.fpu softvfp
  90              		.type	st_lld_get_counter, %function
  91              	st_lld_get_counter:
  92              	.LFB46:
  93              		.file 3 "ChibiOS/os/hal/ports/STM32/LLD/TIMv1/st_lld.h"
  94              		.loc 3 139 0
  95              		.cfi_startproc
  96              		@ args = 0, pretend = 0, frame = 0
  97              		@ frame_needed = 0, uses_anonymous_args = 0
  98              		@ link register save eliminated.
  99              		.loc 3 141 0
 100 0000 024B     		ldr	r3, .L5
 101 0002 5B6A     		ldr	r3, [r3, #36]
 102 0004 9BB2     		uxth	r3, r3
 103              		.loc 3 142 0
 104 0006 1800     		movs	r0, r3
 105              		@ sp needed
 106 0008 7047     		bx	lr
 107              	.L6:
 108 000a C046     		.align	2
 109              	.L5:
 110 000c 00040040 		.word	1073742848
 111              		.cfi_endproc
 112              	.LFE46:
 113              		.size	st_lld_get_counter, .-st_lld_get_counter
 114              		.section	.text.port_timer_get_time,"ax",%progbits
ARM GAS  /tmp/cc0aws4r.s 			page 3


 115              		.align	1
 116              		.p2align 4,,15
 117              		.syntax unified
 118              		.code	16
 119              		.thumb_func
 120              		.fpu softvfp
 121              		.type	port_timer_get_time, %function
 122              	port_timer_get_time:
 123              	.LFB55:
 124              		.file 4 "ChibiOS/os/rt/ports/ARMCMx/chcore_timer.h"
 125              		.loc 4 105 0
 126              		.cfi_startproc
 127              		@ args = 0, pretend = 0, frame = 0
 128              		@ frame_needed = 0, uses_anonymous_args = 0
 129 0000 10B5     		push	{r4, lr}
 130              		.cfi_def_cfa_offset 8
 131              		.cfi_offset 4, -8
 132              		.cfi_offset 14, -4
 133              		.loc 4 107 0
 134 0002 FFF7FEFF 		bl	st_lld_get_counter
 135 0006 0300     		movs	r3, r0
 136              		.loc 4 108 0
 137 0008 1800     		movs	r0, r3
 138              		@ sp needed
 139 000a 10BD     		pop	{r4, pc}
 140              		.cfi_endproc
 141              	.LFE55:
 142              		.size	port_timer_get_time, .-port_timer_get_time
 143              		.section	.text.queue_isempty,"ax",%progbits
 144              		.align	1
 145              		.p2align 4,,15
 146              		.syntax unified
 147              		.code	16
 148              		.thumb_func
 149              		.fpu softvfp
 150              		.type	queue_isempty, %function
 151              	queue_isempty:
 152              	.LFB61:
 153              		.file 5 "ChibiOS/os/rt/include/chschd.h"
 154              		.loc 5 616 0
 155              		.cfi_startproc
 156              		@ args = 0, pretend = 0, frame = 8
 157              		@ frame_needed = 0, uses_anonymous_args = 0
 158              		@ link register save eliminated.
 159 0000 82B0     		sub	sp, sp, #8
 160              		.cfi_def_cfa_offset 8
 161 0002 0190     		str	r0, [sp, #4]
 162              		.loc 5 618 0
 163 0004 019B     		ldr	r3, [sp, #4]
 164 0006 1A68     		ldr	r2, [r3]
 165 0008 019B     		ldr	r3, [sp, #4]
 166 000a D31A     		subs	r3, r2, r3
 167 000c 5A42     		rsbs	r2, r3, #0
 168 000e 5341     		adcs	r3, r3, r2
 169 0010 DBB2     		uxtb	r3, r3
 170              		.loc 5 619 0
 171 0012 1800     		movs	r0, r3
ARM GAS  /tmp/cc0aws4r.s 			page 4


 172 0014 02B0     		add	sp, sp, #8
 173              		@ sp needed
 174 0016 7047     		bx	lr
 175              		.cfi_endproc
 176              	.LFE61:
 177              		.size	queue_isempty, .-queue_isempty
 178              		.section	.text.chSysLock,"ax",%progbits
 179              		.align	1
 180              		.p2align 4,,15
 181              		.syntax unified
 182              		.code	16
 183              		.thumb_func
 184              		.fpu softvfp
 185              		.type	chSysLock, %function
 186              	chSysLock:
 187              	.LFB77:
 188              		.file 6 "ChibiOS/os/rt/include/chsys.h"
 189              		.loc 6 346 0
 190              		.cfi_startproc
 191              		@ args = 0, pretend = 0, frame = 0
 192              		@ frame_needed = 0, uses_anonymous_args = 0
 193 0000 10B5     		push	{r4, lr}
 194              		.cfi_def_cfa_offset 8
 195              		.cfi_offset 4, -8
 196              		.cfi_offset 14, -4
 197              		.loc 6 348 0
 198 0002 FFF7FEFF 		bl	port_lock
 199              		.loc 6 350 0
 200 0006 FFF7FEFF 		bl	_dbg_check_lock
 201              		.loc 6 351 0
 202 000a C046     		nop
 203              		@ sp needed
 204 000c 10BD     		pop	{r4, pc}
 205              		.cfi_endproc
 206              	.LFE77:
 207              		.size	chSysLock, .-chSysLock
 208 000e C046     		.section	.text.chSysUnlock,"ax",%progbits
 209              		.align	1
 210              		.p2align 4,,15
 211              		.syntax unified
 212              		.code	16
 213              		.thumb_func
 214              		.fpu softvfp
 215              		.type	chSysUnlock, %function
 216              	chSysUnlock:
 217              	.LFB78:
 218              		.loc 6 358 0
 219              		.cfi_startproc
 220              		@ args = 0, pretend = 0, frame = 0
 221              		@ frame_needed = 0, uses_anonymous_args = 0
 222 0000 10B5     		push	{r4, lr}
 223              		.cfi_def_cfa_offset 8
 224              		.cfi_offset 4, -8
 225              		.cfi_offset 14, -4
 226              		.loc 6 360 0
 227 0002 FFF7FEFF 		bl	_dbg_check_unlock
 228              		.loc 6 367 0
ARM GAS  /tmp/cc0aws4r.s 			page 5


 229 0006 0A4B     		ldr	r3, .L14
 230 0008 1A68     		ldr	r2, [r3]
 231 000a 094B     		ldr	r3, .L14
 232 000c 9A42     		cmp	r2, r3
 233 000e 0BD0     		beq	.L13
 234              		.loc 6 367 0 is_stmt 0 discriminator 2
 235 0010 074B     		ldr	r3, .L14
 236 0012 9B69     		ldr	r3, [r3, #24]
 237 0014 9A68     		ldr	r2, [r3, #8]
 238 0016 064B     		ldr	r3, .L14
 239 0018 1B68     		ldr	r3, [r3]
 240 001a 9B68     		ldr	r3, [r3, #8]
 241 001c 9A42     		cmp	r2, r3
 242 001e 03D2     		bcs	.L13
 243              		.loc 6 367 0 discriminator 3
 244 0020 044B     		ldr	r3, .L14+4
 245 0022 1800     		movs	r0, r3
 246 0024 FFF7FEFF 		bl	chSysHalt
 247              	.L13:
 248              		.loc 6 371 0 is_stmt 1
 249 0028 FFF7FEFF 		bl	port_unlock
 250              		.loc 6 372 0
 251 002c C046     		nop
 252              		@ sp needed
 253 002e 10BD     		pop	{r4, pc}
 254              	.L15:
 255              		.align	2
 256              	.L14:
 257 0030 00000000 		.word	ch
 258 0034 00000000 		.word	__func__.4993
 259              		.cfi_endproc
 260              	.LFE78:
 261              		.size	chSysUnlock, .-chSysUnlock
 262              		.section	.text.chVTGetSystemTimeX,"ax",%progbits
 263              		.align	1
 264              		.p2align 4,,15
 265              		.syntax unified
 266              		.code	16
 267              		.thumb_func
 268              		.fpu softvfp
 269              		.type	chVTGetSystemTimeX, %function
 270              	chVTGetSystemTimeX:
 271              	.LFB85:
 272              		.file 7 "ChibiOS/os/rt/include/chvt.h"
 273              		.loc 7 228 0
 274              		.cfi_startproc
 275              		@ args = 0, pretend = 0, frame = 0
 276              		@ frame_needed = 0, uses_anonymous_args = 0
 277 0000 10B5     		push	{r4, lr}
 278              		.cfi_def_cfa_offset 8
 279              		.cfi_offset 4, -8
 280              		.cfi_offset 14, -4
 281              		.loc 7 233 0
 282 0002 FFF7FEFF 		bl	port_timer_get_time
 283 0006 0300     		movs	r3, r0
 284              		.loc 7 235 0
 285 0008 1800     		movs	r0, r3
ARM GAS  /tmp/cc0aws4r.s 			page 6


 286              		@ sp needed
 287 000a 10BD     		pop	{r4, pc}
 288              		.cfi_endproc
 289              	.LFE85:
 290              		.size	chVTGetSystemTimeX, .-chVTGetSystemTimeX
 291              		.section	.text.chVTGetSystemTime,"ax",%progbits
 292              		.align	1
 293              		.p2align 4,,15
 294              		.syntax unified
 295              		.code	16
 296              		.thumb_func
 297              		.fpu softvfp
 298              		.type	chVTGetSystemTime, %function
 299              	chVTGetSystemTime:
 300              	.LFB86:
 301              		.loc 7 247 0
 302              		.cfi_startproc
 303              		@ args = 0, pretend = 0, frame = 8
 304              		@ frame_needed = 0, uses_anonymous_args = 0
 305 0000 10B5     		push	{r4, lr}
 306              		.cfi_def_cfa_offset 8
 307              		.cfi_offset 4, -8
 308              		.cfi_offset 14, -4
 309 0002 82B0     		sub	sp, sp, #8
 310              		.cfi_def_cfa_offset 16
 311              		.loc 7 250 0
 312 0004 FFF7FEFF 		bl	chSysLock
 313              		.loc 7 251 0
 314 0008 6B46     		mov	r3, sp
 315 000a 9C1D     		adds	r4, r3, #6
 316 000c FFF7FEFF 		bl	chVTGetSystemTimeX
 317 0010 0300     		movs	r3, r0
 318 0012 2380     		strh	r3, [r4]
 319              		.loc 7 252 0
 320 0014 FFF7FEFF 		bl	chSysUnlock
 321              		.loc 7 254 0
 322 0018 6B46     		mov	r3, sp
 323 001a 0633     		adds	r3, r3, #6
 324 001c 1B88     		ldrh	r3, [r3]
 325              		.loc 7 255 0
 326 001e 1800     		movs	r0, r3
 327 0020 02B0     		add	sp, sp, #8
 328              		@ sp needed
 329 0022 10BD     		pop	{r4, pc}
 330              		.cfi_endproc
 331              	.LFE86:
 332              		.size	chVTGetSystemTime, .-chVTGetSystemTime
 333              		.section	.text.chThdGetSelfX,"ax",%progbits
 334              		.align	1
 335              		.p2align 4,,15
 336              		.syntax unified
 337              		.code	16
 338              		.thumb_func
 339              		.fpu softvfp
 340              		.type	chThdGetSelfX, %function
 341              	chThdGetSelfX:
 342              	.LFB99:
ARM GAS  /tmp/cc0aws4r.s 			page 7


 343              		.file 8 "ChibiOS/os/rt/include/chthreads.h"
 344              		.loc 8 174 0
 345              		.cfi_startproc
 346              		@ args = 0, pretend = 0, frame = 0
 347              		@ frame_needed = 0, uses_anonymous_args = 0
 348              		@ link register save eliminated.
 349              		.loc 8 176 0
 350 0000 014B     		ldr	r3, .L22
 351 0002 9B69     		ldr	r3, [r3, #24]
 352              		.loc 8 177 0
 353 0004 1800     		movs	r0, r3
 354              		@ sp needed
 355 0006 7047     		bx	lr
 356              	.L23:
 357              		.align	2
 358              	.L22:
 359 0008 00000000 		.word	ch
 360              		.cfi_endproc
 361              	.LFE99:
 362              		.size	chThdGetSelfX, .-chThdGetSelfX
 363              		.section	.text.chThdGetPriorityX,"ax",%progbits
 364              		.align	1
 365              		.p2align 4,,15
 366              		.syntax unified
 367              		.code	16
 368              		.thumb_func
 369              		.fpu softvfp
 370              		.type	chThdGetPriorityX, %function
 371              	chThdGetPriorityX:
 372              	.LFB100:
 373              		.loc 8 187 0
 374              		.cfi_startproc
 375              		@ args = 0, pretend = 0, frame = 0
 376              		@ frame_needed = 0, uses_anonymous_args = 0
 377 0000 10B5     		push	{r4, lr}
 378              		.cfi_def_cfa_offset 8
 379              		.cfi_offset 4, -8
 380              		.cfi_offset 14, -4
 381              		.loc 8 189 0
 382 0002 FFF7FEFF 		bl	chThdGetSelfX
 383 0006 0300     		movs	r3, r0
 384 0008 9B68     		ldr	r3, [r3, #8]
 385              		.loc 8 190 0
 386 000a 1800     		movs	r0, r3
 387              		@ sp needed
 388 000c 10BD     		pop	{r4, pc}
 389              		.cfi_endproc
 390              	.LFE100:
 391              		.size	chThdGetPriorityX, .-chThdGetPriorityX
 392 000e C046     		.section	.text.chSemGetCounterI,"ax",%progbits
 393              		.align	1
 394              		.p2align 4,,15
 395              		.syntax unified
 396              		.code	16
 397              		.thumb_func
 398              		.fpu softvfp
 399              		.type	chSemGetCounterI, %function
ARM GAS  /tmp/cc0aws4r.s 			page 8


 400              	chSemGetCounterI:
 401              	.LFB113:
 402              		.file 9 "ChibiOS/os/rt/include/chsem.h"
 403              		.loc 9 149 0
 404              		.cfi_startproc
 405              		@ args = 0, pretend = 0, frame = 8
 406              		@ frame_needed = 0, uses_anonymous_args = 0
 407 0000 00B5     		push	{lr}
 408              		.cfi_def_cfa_offset 4
 409              		.cfi_offset 14, -4
 410 0002 83B0     		sub	sp, sp, #12
 411              		.cfi_def_cfa_offset 16
 412 0004 0190     		str	r0, [sp, #4]
 413              		.loc 9 151 0
 414 0006 FFF7FEFF 		bl	chDbgCheckClassI
 415              		.loc 9 153 0
 416 000a 019B     		ldr	r3, [sp, #4]
 417 000c 9B68     		ldr	r3, [r3, #8]
 418              		.loc 9 154 0
 419 000e 1800     		movs	r0, r3
 420 0010 03B0     		add	sp, sp, #12
 421              		@ sp needed
 422 0012 00BD     		pop	{pc}
 423              		.cfi_endproc
 424              	.LFE113:
 425              		.size	chSemGetCounterI, .-chSemGetCounterI
 426              		.section	.text.chBSemObjectInit,"ax",%progbits
 427              		.align	1
 428              		.p2align 4,,15
 429              		.syntax unified
 430              		.code	16
 431              		.thumb_func
 432              		.fpu softvfp
 433              		.type	chBSemObjectInit, %function
 434              	chBSemObjectInit:
 435              	.LFB114:
 436              		.file 10 "ChibiOS/os/rt/include/chbsem.h"
 437              		.loc 10 124 0
 438              		.cfi_startproc
 439              		@ args = 0, pretend = 0, frame = 8
 440              		@ frame_needed = 0, uses_anonymous_args = 0
 441 0000 00B5     		push	{lr}
 442              		.cfi_def_cfa_offset 4
 443              		.cfi_offset 14, -4
 444 0002 83B0     		sub	sp, sp, #12
 445              		.cfi_def_cfa_offset 16
 446 0004 0190     		str	r0, [sp, #4]
 447 0006 0A00     		movs	r2, r1
 448 0008 6B46     		mov	r3, sp
 449 000a 0333     		adds	r3, r3, #3
 450 000c 1A70     		strb	r2, [r3]
 451              		.loc 10 126 0
 452 000e 0198     		ldr	r0, [sp, #4]
 453 0010 6B46     		mov	r3, sp
 454 0012 0333     		adds	r3, r3, #3
 455 0014 1B78     		ldrb	r3, [r3]
 456 0016 0122     		movs	r2, #1
ARM GAS  /tmp/cc0aws4r.s 			page 9


 457 0018 5340     		eors	r3, r2
 458 001a DBB2     		uxtb	r3, r3
 459 001c 1900     		movs	r1, r3
 460 001e FFF7FEFF 		bl	chSemObjectInit
 461              		.loc 10 127 0
 462 0022 C046     		nop
 463 0024 03B0     		add	sp, sp, #12
 464              		@ sp needed
 465 0026 00BD     		pop	{pc}
 466              		.cfi_endproc
 467              	.LFE114:
 468              		.size	chBSemObjectInit, .-chBSemObjectInit
 469              		.section	.text.chBSemWait,"ax",%progbits
 470              		.align	1
 471              		.p2align 4,,15
 472              		.syntax unified
 473              		.code	16
 474              		.thumb_func
 475              		.fpu softvfp
 476              		.type	chBSemWait, %function
 477              	chBSemWait:
 478              	.LFB115:
 479              		.loc 10 141 0
 480              		.cfi_startproc
 481              		@ args = 0, pretend = 0, frame = 8
 482              		@ frame_needed = 0, uses_anonymous_args = 0
 483 0000 00B5     		push	{lr}
 484              		.cfi_def_cfa_offset 4
 485              		.cfi_offset 14, -4
 486 0002 83B0     		sub	sp, sp, #12
 487              		.cfi_def_cfa_offset 16
 488 0004 0190     		str	r0, [sp, #4]
 489              		.loc 10 143 0
 490 0006 019B     		ldr	r3, [sp, #4]
 491 0008 1800     		movs	r0, r3
 492 000a FFF7FEFF 		bl	chSemWait
 493 000e 0300     		movs	r3, r0
 494              		.loc 10 144 0
 495 0010 1800     		movs	r0, r3
 496 0012 03B0     		add	sp, sp, #12
 497              		@ sp needed
 498 0014 00BD     		pop	{pc}
 499              		.cfi_endproc
 500              	.LFE115:
 501              		.size	chBSemWait, .-chBSemWait
 502 0016 C046     		.section	.text.chBSemReset,"ax",%progbits
 503              		.align	1
 504              		.p2align 4,,15
 505              		.syntax unified
 506              		.code	16
 507              		.thumb_func
 508              		.fpu softvfp
 509              		.type	chBSemReset, %function
 510              	chBSemReset:
 511              	.LFB120:
 512              		.loc 10 253 0
 513              		.cfi_startproc
ARM GAS  /tmp/cc0aws4r.s 			page 10


 514              		@ args = 0, pretend = 0, frame = 8
 515              		@ frame_needed = 0, uses_anonymous_args = 0
 516 0000 00B5     		push	{lr}
 517              		.cfi_def_cfa_offset 4
 518              		.cfi_offset 14, -4
 519 0002 83B0     		sub	sp, sp, #12
 520              		.cfi_def_cfa_offset 16
 521 0004 0190     		str	r0, [sp, #4]
 522 0006 0A00     		movs	r2, r1
 523 0008 6B46     		mov	r3, sp
 524 000a 0333     		adds	r3, r3, #3
 525 000c 1A70     		strb	r2, [r3]
 526              		.loc 10 255 0
 527 000e 0198     		ldr	r0, [sp, #4]
 528 0010 6B46     		mov	r3, sp
 529 0012 0333     		adds	r3, r3, #3
 530 0014 1B78     		ldrb	r3, [r3]
 531 0016 0122     		movs	r2, #1
 532 0018 5340     		eors	r3, r2
 533 001a DBB2     		uxtb	r3, r3
 534 001c 1900     		movs	r1, r3
 535 001e FFF7FEFF 		bl	chSemReset
 536              		.loc 10 256 0
 537 0022 C046     		nop
 538 0024 03B0     		add	sp, sp, #12
 539              		@ sp needed
 540 0026 00BD     		pop	{pc}
 541              		.cfi_endproc
 542              	.LFE120:
 543              		.size	chBSemReset, .-chBSemReset
 544              		.section	.text.chBSemSignalI,"ax",%progbits
 545              		.align	1
 546              		.p2align 4,,15
 547              		.syntax unified
 548              		.code	16
 549              		.thumb_func
 550              		.fpu softvfp
 551              		.type	chBSemSignalI, %function
 552              	chBSemSignalI:
 553              	.LFB121:
 554              		.loc 10 266 0
 555              		.cfi_startproc
 556              		@ args = 0, pretend = 0, frame = 8
 557              		@ frame_needed = 0, uses_anonymous_args = 0
 558 0000 00B5     		push	{lr}
 559              		.cfi_def_cfa_offset 4
 560              		.cfi_offset 14, -4
 561 0002 83B0     		sub	sp, sp, #12
 562              		.cfi_def_cfa_offset 16
 563 0004 0190     		str	r0, [sp, #4]
 564              		.loc 10 268 0
 565 0006 FFF7FEFF 		bl	chDbgCheckClassI
 566              		.loc 10 270 0
 567 000a 019B     		ldr	r3, [sp, #4]
 568 000c 9B68     		ldr	r3, [r3, #8]
 569 000e 002B     		cmp	r3, #0
 570 0010 03DC     		bgt	.L34
ARM GAS  /tmp/cc0aws4r.s 			page 11


 571              		.loc 10 271 0
 572 0012 019B     		ldr	r3, [sp, #4]
 573 0014 1800     		movs	r0, r3
 574 0016 FFF7FEFF 		bl	chSemSignalI
 575              	.L34:
 576              		.loc 10 273 0
 577 001a C046     		nop
 578 001c 03B0     		add	sp, sp, #12
 579              		@ sp needed
 580 001e 00BD     		pop	{pc}
 581              		.cfi_endproc
 582              	.LFE121:
 583              		.size	chBSemSignalI, .-chBSemSignalI
 584              		.section	.text.chBSemSignal,"ax",%progbits
 585              		.align	1
 586              		.p2align 4,,15
 587              		.syntax unified
 588              		.code	16
 589              		.thumb_func
 590              		.fpu softvfp
 591              		.type	chBSemSignal, %function
 592              	chBSemSignal:
 593              	.LFB122:
 594              		.loc 10 282 0
 595              		.cfi_startproc
 596              		@ args = 0, pretend = 0, frame = 8
 597              		@ frame_needed = 0, uses_anonymous_args = 0
 598 0000 00B5     		push	{lr}
 599              		.cfi_def_cfa_offset 4
 600              		.cfi_offset 14, -4
 601 0002 83B0     		sub	sp, sp, #12
 602              		.cfi_def_cfa_offset 16
 603 0004 0190     		str	r0, [sp, #4]
 604              		.loc 10 284 0
 605 0006 FFF7FEFF 		bl	chSysLock
 606              		.loc 10 285 0
 607 000a 019B     		ldr	r3, [sp, #4]
 608 000c 1800     		movs	r0, r3
 609 000e FFF7FEFF 		bl	chBSemSignalI
 610              		.loc 10 286 0
 611 0012 FFF7FEFF 		bl	chSchRescheduleS
 612              		.loc 10 287 0
 613 0016 FFF7FEFF 		bl	chSysUnlock
 614              		.loc 10 288 0
 615 001a C046     		nop
 616 001c 03B0     		add	sp, sp, #12
 617              		@ sp needed
 618 001e 00BD     		pop	{pc}
 619              		.cfi_endproc
 620              	.LFE122:
 621              		.size	chBSemSignal, .-chBSemSignal
 622              		.section	.text.chBSemGetStateI,"ax",%progbits
 623              		.align	1
 624              		.p2align 4,,15
 625              		.syntax unified
 626              		.code	16
 627              		.thumb_func
ARM GAS  /tmp/cc0aws4r.s 			page 12


 628              		.fpu softvfp
 629              		.type	chBSemGetStateI, %function
 630              	chBSemGetStateI:
 631              	.LFB123:
 632              		.loc 10 300 0
 633              		.cfi_startproc
 634              		@ args = 0, pretend = 0, frame = 8
 635              		@ frame_needed = 0, uses_anonymous_args = 0
 636 0000 00B5     		push	{lr}
 637              		.cfi_def_cfa_offset 4
 638              		.cfi_offset 14, -4
 639 0002 83B0     		sub	sp, sp, #12
 640              		.cfi_def_cfa_offset 16
 641 0004 0190     		str	r0, [sp, #4]
 642              		.loc 10 302 0
 643 0006 FFF7FEFF 		bl	chDbgCheckClassI
 644              		.loc 10 304 0
 645 000a 019B     		ldr	r3, [sp, #4]
 646 000c 9B68     		ldr	r3, [r3, #8]
 647 000e 5A1E     		subs	r2, r3, #1
 648 0010 1343     		orrs	r3, r2
 649 0012 DB0F     		lsrs	r3, r3, #31
 650 0014 DBB2     		uxtb	r3, r3
 651              		.loc 10 305 0
 652 0016 1800     		movs	r0, r3
 653 0018 03B0     		add	sp, sp, #12
 654              		@ sp needed
 655 001a 00BD     		pop	{pc}
 656              		.cfi_endproc
 657              	.LFE123:
 658              		.size	chBSemGetStateI, .-chBSemGetStateI
 659              		.section	.data.sem1,"aw",%progbits
 660              		.align	2
 661              		.type	sem1, %object
 662              		.size	sem1, 12
 663              	sem1:
 664 0000 00000000 		.word	sem1
 665 0004 00000000 		.word	sem1
 666 0008 00000000 		.word	0
 667              		.section	.text.sem1_setup,"ax",%progbits
 668              		.align	1
 669              		.p2align 4,,15
 670              		.syntax unified
 671              		.code	16
 672              		.thumb_func
 673              		.fpu softvfp
 674              		.type	sem1_setup, %function
 675              	sem1_setup:
 676              	.LFB152:
 677              		.file 11 "ChibiOS/test/rt/testsem.c"
 678              		.loc 11 72 0
 679              		.cfi_startproc
 680              		@ args = 0, pretend = 0, frame = 0
 681              		@ frame_needed = 0, uses_anonymous_args = 0
 682 0000 10B5     		push	{r4, lr}
 683              		.cfi_def_cfa_offset 8
 684              		.cfi_offset 4, -8
ARM GAS  /tmp/cc0aws4r.s 			page 13


 685              		.cfi_offset 14, -4
 686              		.loc 11 74 0
 687 0002 034B     		ldr	r3, .L39
 688 0004 0021     		movs	r1, #0
 689 0006 1800     		movs	r0, r3
 690 0008 FFF7FEFF 		bl	chSemObjectInit
 691              		.loc 11 75 0
 692 000c C046     		nop
 693              		@ sp needed
 694 000e 10BD     		pop	{r4, pc}
 695              	.L40:
 696              		.align	2
 697              	.L39:
 698 0010 00000000 		.word	sem1
 699              		.cfi_endproc
 700              	.LFE152:
 701              		.size	sem1_setup, .-sem1_setup
 702              		.section	.text.thread1,"ax",%progbits
 703              		.align	1
 704              		.p2align 4,,15
 705              		.syntax unified
 706              		.code	16
 707              		.thumb_func
 708              		.fpu softvfp
 709              		.type	thread1, %function
 710              	thread1:
 711              	.LFB153:
 712              		.loc 11 77 0
 713              		.cfi_startproc
 714              		@ args = 0, pretend = 0, frame = 8
 715              		@ frame_needed = 0, uses_anonymous_args = 0
 716 0000 00B5     		push	{lr}
 717              		.cfi_def_cfa_offset 4
 718              		.cfi_offset 14, -4
 719 0002 83B0     		sub	sp, sp, #12
 720              		.cfi_def_cfa_offset 16
 721 0004 0190     		str	r0, [sp, #4]
 722              		.loc 11 79 0
 723 0006 064B     		ldr	r3, .L42
 724 0008 1800     		movs	r0, r3
 725 000a FFF7FEFF 		bl	chSemWait
 726              		.loc 11 80 0
 727 000e 019B     		ldr	r3, [sp, #4]
 728 0010 1B78     		ldrb	r3, [r3]
 729 0012 1800     		movs	r0, r3
 730 0014 FFF7FEFF 		bl	test_emit_token
 731              		.loc 11 81 0
 732 0018 C046     		nop
 733 001a 03B0     		add	sp, sp, #12
 734              		@ sp needed
 735 001c 00BD     		pop	{pc}
 736              	.L43:
 737 001e C046     		.align	2
 738              	.L42:
 739 0020 00000000 		.word	sem1
 740              		.cfi_endproc
 741              	.LFE153:
ARM GAS  /tmp/cc0aws4r.s 			page 14


 742              		.size	thread1, .-thread1
 743              		.section	.rodata
 744              		.align	2
 745              	.LC7:
 746 0000 4100     		.ascii	"A\000"
 747 0002 0000     		.align	2
 748              	.LC10:
 749 0004 4200     		.ascii	"B\000"
 750 0006 0000     		.align	2
 751              	.LC12:
 752 0008 4300     		.ascii	"C\000"
 753 000a 0000     		.align	2
 754              	.LC14:
 755 000c 4400     		.ascii	"D\000"
 756 000e 0000     		.align	2
 757              	.LC16:
 758 0010 4500     		.ascii	"E\000"
 759 0012 0000     		.align	2
 760              	.LC19:
 761 0014 41424344 		.ascii	"ABCDE\000"
 761      4500
 762              		.section	.text.sem1_execute,"ax",%progbits
 763              		.align	1
 764              		.p2align 4,,15
 765              		.syntax unified
 766              		.code	16
 767              		.thumb_func
 768              		.fpu softvfp
 769              		.type	sem1_execute, %function
 770              	sem1_execute:
 771              	.LFB154:
 772              		.loc 11 83 0
 773              		.cfi_startproc
 774              		@ args = 0, pretend = 0, frame = 0
 775              		@ frame_needed = 0, uses_anonymous_args = 0
 776 0000 10B5     		push	{r4, lr}
 777              		.cfi_def_cfa_offset 8
 778              		.cfi_offset 4, -8
 779              		.cfi_offset 14, -4
 780 0002 82B0     		sub	sp, sp, #8
 781              		.cfi_def_cfa_offset 16
 782              		.loc 11 85 0
 783 0004 574B     		ldr	r3, .L49
 784 0006 1C68     		ldr	r4, [r3]
 785 0008 FFF7FEFF 		bl	chThdGetPriorityX
 786 000c 0300     		movs	r3, r0
 787 000e 5A1D     		adds	r2, r3, #5
 788 0010 5548     		ldr	r0, .L49+4
 789 0012 A823     		movs	r3, #168
 790 0014 5900     		lsls	r1, r3, #1
 791 0016 554B     		ldr	r3, .L49+8
 792 0018 0093     		str	r3, [sp]
 793 001a 0300     		movs	r3, r0
 794 001c 2000     		movs	r0, r4
 795 001e FFF7FEFF 		bl	chThdCreateStatic
 796 0022 0200     		movs	r2, r0
 797 0024 524B     		ldr	r3, .L49+12
ARM GAS  /tmp/cc0aws4r.s 			page 15


 798 0026 1A60     		str	r2, [r3]
 799              		.loc 11 86 0
 800 0028 4E4B     		ldr	r3, .L49
 801 002a 5C68     		ldr	r4, [r3, #4]
 802 002c FFF7FEFF 		bl	chThdGetPriorityX
 803 0030 0300     		movs	r3, r0
 804 0032 5A1C     		adds	r2, r3, #1
 805 0034 4C48     		ldr	r0, .L49+4
 806 0036 A823     		movs	r3, #168
 807 0038 5900     		lsls	r1, r3, #1
 808 003a 4E4B     		ldr	r3, .L49+16
 809 003c 0093     		str	r3, [sp]
 810 003e 0300     		movs	r3, r0
 811 0040 2000     		movs	r0, r4
 812 0042 FFF7FEFF 		bl	chThdCreateStatic
 813 0046 0200     		movs	r2, r0
 814 0048 494B     		ldr	r3, .L49+12
 815 004a 5A60     		str	r2, [r3, #4]
 816              		.loc 11 87 0
 817 004c 454B     		ldr	r3, .L49
 818 004e 9C68     		ldr	r4, [r3, #8]
 819 0050 FFF7FEFF 		bl	chThdGetPriorityX
 820 0054 0300     		movs	r3, r0
 821 0056 DA1C     		adds	r2, r3, #3
 822 0058 4348     		ldr	r0, .L49+4
 823 005a A823     		movs	r3, #168
 824 005c 5900     		lsls	r1, r3, #1
 825 005e 464B     		ldr	r3, .L49+20
 826 0060 0093     		str	r3, [sp]
 827 0062 0300     		movs	r3, r0
 828 0064 2000     		movs	r0, r4
 829 0066 FFF7FEFF 		bl	chThdCreateStatic
 830 006a 0200     		movs	r2, r0
 831 006c 404B     		ldr	r3, .L49+12
 832 006e 9A60     		str	r2, [r3, #8]
 833              		.loc 11 88 0
 834 0070 3C4B     		ldr	r3, .L49
 835 0072 DC68     		ldr	r4, [r3, #12]
 836 0074 FFF7FEFF 		bl	chThdGetPriorityX
 837 0078 0300     		movs	r3, r0
 838 007a 1A1D     		adds	r2, r3, #4
 839 007c 3A48     		ldr	r0, .L49+4
 840 007e A823     		movs	r3, #168
 841 0080 5900     		lsls	r1, r3, #1
 842 0082 3E4B     		ldr	r3, .L49+24
 843 0084 0093     		str	r3, [sp]
 844 0086 0300     		movs	r3, r0
 845 0088 2000     		movs	r0, r4
 846 008a FFF7FEFF 		bl	chThdCreateStatic
 847 008e 0200     		movs	r2, r0
 848 0090 374B     		ldr	r3, .L49+12
 849 0092 DA60     		str	r2, [r3, #12]
 850              		.loc 11 89 0
 851 0094 334B     		ldr	r3, .L49
 852 0096 1C69     		ldr	r4, [r3, #16]
 853 0098 FFF7FEFF 		bl	chThdGetPriorityX
 854 009c 0300     		movs	r3, r0
ARM GAS  /tmp/cc0aws4r.s 			page 16


 855 009e 9A1C     		adds	r2, r3, #2
 856 00a0 3148     		ldr	r0, .L49+4
 857 00a2 A823     		movs	r3, #168
 858 00a4 5900     		lsls	r1, r3, #1
 859 00a6 364B     		ldr	r3, .L49+28
 860 00a8 0093     		str	r3, [sp]
 861 00aa 0300     		movs	r3, r0
 862 00ac 2000     		movs	r0, r4
 863 00ae FFF7FEFF 		bl	chThdCreateStatic
 864 00b2 0200     		movs	r2, r0
 865 00b4 2E4B     		ldr	r3, .L49+12
 866 00b6 1A61     		str	r2, [r3, #16]
 867              		.loc 11 90 0
 868 00b8 324B     		ldr	r3, .L49+32
 869 00ba 1800     		movs	r0, r3
 870 00bc FFF7FEFF 		bl	chSemSignal
 871              		.loc 11 91 0
 872 00c0 304B     		ldr	r3, .L49+32
 873 00c2 1800     		movs	r0, r3
 874 00c4 FFF7FEFF 		bl	chSemSignal
 875              		.loc 11 92 0
 876 00c8 2E4B     		ldr	r3, .L49+32
 877 00ca 1800     		movs	r0, r3
 878 00cc FFF7FEFF 		bl	chSemSignal
 879              		.loc 11 93 0
 880 00d0 2C4B     		ldr	r3, .L49+32
 881 00d2 1800     		movs	r0, r3
 882 00d4 FFF7FEFF 		bl	chSemSignal
 883              		.loc 11 94 0
 884 00d8 2A4B     		ldr	r3, .L49+32
 885 00da 1800     		movs	r0, r3
 886 00dc FFF7FEFF 		bl	chSemSignal
 887              		.loc 11 95 0
 888 00e0 FFF7FEFF 		bl	test_wait_threads
 889              		.loc 11 99 0
 890 00e4 284B     		ldr	r3, .L49+36
 891 00e6 1900     		movs	r1, r3
 892 00e8 0120     		movs	r0, #1
 893 00ea FFF7FEFF 		bl	_test_assert_sequence
 894 00ee 031E     		subs	r3, r0, #0
 895 00f0 35D1     		bne	.L48
 896              		.loc 11 101 0
 897 00f2 1C4B     		ldr	r3, .L49
 898 00f4 1C68     		ldr	r4, [r3]
 899 00f6 FFF7FEFF 		bl	chThdGetPriorityX
 900 00fa 0300     		movs	r3, r0
 901 00fc 5A1D     		adds	r2, r3, #5
 902 00fe 1A48     		ldr	r0, .L49+4
 903 0100 A823     		movs	r3, #168
 904 0102 5900     		lsls	r1, r3, #1
 905 0104 194B     		ldr	r3, .L49+8
 906 0106 0093     		str	r3, [sp]
 907 0108 0300     		movs	r3, r0
 908 010a 2000     		movs	r0, r4
 909 010c FFF7FEFF 		bl	chThdCreateStatic
 910 0110 0200     		movs	r2, r0
 911 0112 174B     		ldr	r3, .L49+12
ARM GAS  /tmp/cc0aws4r.s 			page 17


 912 0114 1A60     		str	r2, [r3]
 913              		.loc 11 102 0
 914 0116 FFF7FEFF 		bl	chSysLock
 915              		.loc 11 103 0
 916 011a 1A4B     		ldr	r3, .L49+32
 917 011c 0221     		movs	r1, #2
 918 011e 1800     		movs	r0, r3
 919 0120 FFF7FEFF 		bl	chSemAddCounterI
 920              		.loc 11 104 0
 921 0124 FFF7FEFF 		bl	chSchRescheduleS
 922              		.loc 11 105 0
 923 0128 FFF7FEFF 		bl	chSysUnlock
 924              		.loc 11 106 0
 925 012c FFF7FEFF 		bl	test_wait_threads
 926              		.loc 11 107 0
 927 0130 FFF7FEFF 		bl	chSysLock
 928 0134 134B     		ldr	r3, .L49+32
 929 0136 1800     		movs	r0, r3
 930 0138 FFF7FEFF 		bl	chSemGetCounterI
 931 013c 0300     		movs	r3, r0
 932 013e 013B     		subs	r3, r3, #1
 933 0140 5A42     		rsbs	r2, r3, #0
 934 0142 5341     		adcs	r3, r3, r2
 935 0144 DBB2     		uxtb	r3, r3
 936 0146 1900     		movs	r1, r3
 937 0148 0220     		movs	r0, #2
 938 014a FFF7FEFF 		bl	_test_assert
 939 014e 031E     		subs	r3, r0, #0
 940 0150 02D0     		beq	.L47
 941              		.loc 11 107 0 is_stmt 0 discriminator 1
 942 0152 FFF7FEFF 		bl	chSysUnlock
 943 0156 03E0     		b	.L44
 944              	.L47:
 945              		.loc 11 107 0 discriminator 2
 946 0158 FFF7FEFF 		bl	chSysUnlock
 947 015c 00E0     		b	.L44
 948              	.L48:
 949              		.loc 11 99 0 is_stmt 1
 950 015e C046     		nop
 951              	.L44:
 952              		.loc 11 108 0
 953 0160 02B0     		add	sp, sp, #8
 954              		@ sp needed
 955 0162 10BD     		pop	{r4, pc}
 956              	.L50:
 957              		.align	2
 958              	.L49:
 959 0164 00000000 		.word	wa
 960 0168 00000000 		.word	thread1
 961 016c 00000000 		.word	.LC7
 962 0170 00000000 		.word	threads
 963 0174 04000000 		.word	.LC10
 964 0178 08000000 		.word	.LC12
 965 017c 0C000000 		.word	.LC14
 966 0180 10000000 		.word	.LC16
 967 0184 00000000 		.word	sem1
 968 0188 14000000 		.word	.LC19
ARM GAS  /tmp/cc0aws4r.s 			page 18


 969              		.cfi_endproc
 970              	.LFE154:
 971              		.size	sem1_execute, .-sem1_execute
 972              		.global	testsem1
 973              		.section	.rodata
 974 001a 0000     		.align	2
 975              	.LC21:
 976 001c 53656D61 		.ascii	"Semaphores, enqueuing\000"
 976      70686F72 
 976      65732C20 
 976      656E7175 
 976      6575696E 
 977              		.section	.rodata.testsem1,"a",%progbits
 978              		.align	2
 979              		.type	testsem1, %object
 980              		.size	testsem1, 16
 981              	testsem1:
 982 0000 1C000000 		.word	.LC21
 983 0004 00000000 		.word	sem1_setup
 984 0008 00000000 		.word	0
 985 000c 00000000 		.word	sem1_execute
 986              		.section	.text.sem2_setup,"ax",%progbits
 987              		.align	1
 988              		.p2align 4,,15
 989              		.syntax unified
 990              		.code	16
 991              		.thumb_func
 992              		.fpu softvfp
 993              		.type	sem2_setup, %function
 994              	sem2_setup:
 995              	.LFB155:
 996              		.loc 11 128 0
 997              		.cfi_startproc
 998              		@ args = 0, pretend = 0, frame = 0
 999              		@ frame_needed = 0, uses_anonymous_args = 0
 1000 0000 10B5     		push	{r4, lr}
 1001              		.cfi_def_cfa_offset 8
 1002              		.cfi_offset 4, -8
 1003              		.cfi_offset 14, -4
 1004              		.loc 11 130 0
 1005 0002 034B     		ldr	r3, .L52
 1006 0004 0021     		movs	r1, #0
 1007 0006 1800     		movs	r0, r3
 1008 0008 FFF7FEFF 		bl	chSemObjectInit
 1009              		.loc 11 131 0
 1010 000c C046     		nop
 1011              		@ sp needed
 1012 000e 10BD     		pop	{r4, pc}
 1013              	.L53:
 1014              		.align	2
 1015              	.L52:
 1016 0010 00000000 		.word	sem1
 1017              		.cfi_endproc
 1018              	.LFE155:
 1019              		.size	sem2_setup, .-sem2_setup
 1020              		.section	.text.thread2,"ax",%progbits
 1021              		.align	1
ARM GAS  /tmp/cc0aws4r.s 			page 19


 1022              		.p2align 4,,15
 1023              		.syntax unified
 1024              		.code	16
 1025              		.thumb_func
 1026              		.fpu softvfp
 1027              		.type	thread2, %function
 1028              	thread2:
 1029              	.LFB156:
 1030              		.loc 11 133 0
 1031              		.cfi_startproc
 1032              		@ args = 0, pretend = 0, frame = 8
 1033              		@ frame_needed = 0, uses_anonymous_args = 0
 1034 0000 00B5     		push	{lr}
 1035              		.cfi_def_cfa_offset 4
 1036              		.cfi_offset 14, -4
 1037 0002 83B0     		sub	sp, sp, #12
 1038              		.cfi_def_cfa_offset 16
 1039 0004 0190     		str	r0, [sp, #4]
 1040              		.loc 11 136 0
 1041 0006 FA23     		movs	r3, #250
 1042 0008 5B00     		lsls	r3, r3, #1
 1043 000a 1800     		movs	r0, r3
 1044 000c FFF7FEFF 		bl	chThdSleep
 1045              		.loc 11 137 0
 1046 0010 FFF7FEFF 		bl	chSysLock
 1047              		.loc 11 138 0
 1048 0014 054B     		ldr	r3, .L55
 1049 0016 1800     		movs	r0, r3
 1050 0018 FFF7FEFF 		bl	chSemSignalI
 1051              		.loc 11 139 0
 1052 001c FFF7FEFF 		bl	chSchRescheduleS
 1053              		.loc 11 140 0
 1054 0020 FFF7FEFF 		bl	chSysUnlock
 1055              		.loc 11 141 0
 1056 0024 C046     		nop
 1057 0026 03B0     		add	sp, sp, #12
 1058              		@ sp needed
 1059 0028 00BD     		pop	{pc}
 1060              	.L56:
 1061 002a C046     		.align	2
 1062              	.L55:
 1063 002c 00000000 		.word	sem1
 1064              		.cfi_endproc
 1065              	.LFE156:
 1066              		.size	thread2, .-thread2
 1067              		.section	.text.sem2_execute,"ax",%progbits
 1068              		.align	1
 1069              		.p2align 4,,15
 1070              		.syntax unified
 1071              		.code	16
 1072              		.thumb_func
 1073              		.fpu softvfp
 1074              		.type	sem2_execute, %function
 1075              	sem2_execute:
 1076              	.LFB157:
 1077              		.loc 11 143 0
 1078              		.cfi_startproc
ARM GAS  /tmp/cc0aws4r.s 			page 20


 1079              		@ args = 0, pretend = 0, frame = 16
 1080              		@ frame_needed = 0, uses_anonymous_args = 0
 1081 0000 10B5     		push	{r4, lr}
 1082              		.cfi_def_cfa_offset 8
 1083              		.cfi_offset 4, -8
 1084              		.cfi_offset 14, -4
 1085 0002 86B0     		sub	sp, sp, #24
 1086              		.cfi_def_cfa_offset 32
 1087              		.loc 11 151 0
 1088 0004 6B4B     		ldr	r3, .L81
 1089 0006 0021     		movs	r1, #0
 1090 0008 1800     		movs	r0, r3
 1091 000a FFF7FEFF 		bl	chSemWaitTimeout
 1092 000e 0300     		movs	r3, r0
 1093 0010 0493     		str	r3, [sp, #16]
 1094              		.loc 11 152 0
 1095 0012 049B     		ldr	r3, [sp, #16]
 1096 0014 0133     		adds	r3, r3, #1
 1097 0016 5A42     		rsbs	r2, r3, #0
 1098 0018 5341     		adcs	r3, r3, r2
 1099 001a DBB2     		uxtb	r3, r3
 1100 001c 1900     		movs	r1, r3
 1101 001e 0120     		movs	r0, #1
 1102 0020 FFF7FEFF 		bl	_test_assert
 1103 0024 031E     		subs	r3, r0, #0
 1104 0026 00D0     		beq	.LCB745
 1105 0028 AFE0     		b	.L71	@long jump
 1106              	.LCB745:
 1107              		.loc 11 153 0
 1108 002a 624B     		ldr	r3, .L81
 1109 002c 1800     		movs	r0, r3
 1110 002e FFF7FEFF 		bl	queue_isempty
 1111 0032 0300     		movs	r3, r0
 1112 0034 1900     		movs	r1, r3
 1113 0036 0220     		movs	r0, #2
 1114 0038 FFF7FEFF 		bl	_test_assert
 1115 003c 031E     		subs	r3, r0, #0
 1116 003e 00D0     		beq	.LCB755
 1117 0040 A5E0     		b	.L72	@long jump
 1118              	.LCB755:
 1119              		.loc 11 154 0
 1120 0042 5C4B     		ldr	r3, .L81
 1121 0044 9B68     		ldr	r3, [r3, #8]
 1122 0046 5A42     		rsbs	r2, r3, #0
 1123 0048 5341     		adcs	r3, r3, r2
 1124 004a DBB2     		uxtb	r3, r3
 1125 004c 1900     		movs	r1, r3
 1126 004e 0320     		movs	r0, #3
 1127 0050 FFF7FEFF 		bl	_test_assert
 1128 0054 031E     		subs	r3, r0, #0
 1129 0056 00D0     		beq	.LCB765
 1130 0058 9BE0     		b	.L73	@long jump
 1131              	.LCB765:
 1132              		.loc 11 159 0
 1133 005a 574B     		ldr	r3, .L81+4
 1134 005c 1C68     		ldr	r4, [r3]
 1135 005e FFF7FEFF 		bl	chThdGetPriorityX
ARM GAS  /tmp/cc0aws4r.s 			page 21


 1136 0062 0300     		movs	r3, r0
 1137 0064 5A1E     		subs	r2, r3, #1
 1138 0066 5548     		ldr	r0, .L81+8
 1139 0068 A823     		movs	r3, #168
 1140 006a 5900     		lsls	r1, r3, #1
 1141 006c 0023     		movs	r3, #0
 1142 006e 0093     		str	r3, [sp]
 1143 0070 0300     		movs	r3, r0
 1144 0072 2000     		movs	r0, r4
 1145 0074 FFF7FEFF 		bl	chThdCreateStatic
 1146 0078 0200     		movs	r2, r0
 1147 007a 514B     		ldr	r3, .L81+12
 1148 007c 1A60     		str	r2, [r3]
 1149              		.loc 11 161 0
 1150 007e 514A     		ldr	r2, .L81+16
 1151 0080 4C4B     		ldr	r3, .L81
 1152 0082 1100     		movs	r1, r2
 1153 0084 1800     		movs	r0, r3
 1154 0086 FFF7FEFF 		bl	chSemWaitTimeout
 1155 008a 0300     		movs	r3, r0
 1156 008c 0493     		str	r3, [sp, #16]
 1157              		.loc 11 162 0
 1158 008e FFF7FEFF 		bl	test_wait_threads
 1159              		.loc 11 163 0
 1160 0092 049B     		ldr	r3, [sp, #16]
 1161 0094 5A42     		rsbs	r2, r3, #0
 1162 0096 5341     		adcs	r3, r3, r2
 1163 0098 DBB2     		uxtb	r3, r3
 1164 009a 1900     		movs	r1, r3
 1165 009c 0420     		movs	r0, #4
 1166 009e FFF7FEFF 		bl	_test_assert
 1167 00a2 031E     		subs	r3, r0, #0
 1168 00a4 00D0     		beq	.LCB798
 1169 00a6 76E0     		b	.L74	@long jump
 1170              	.LCB798:
 1171              		.loc 11 164 0
 1172 00a8 424B     		ldr	r3, .L81
 1173 00aa 1800     		movs	r0, r3
 1174 00ac FFF7FEFF 		bl	queue_isempty
 1175 00b0 0300     		movs	r3, r0
 1176 00b2 1900     		movs	r1, r3
 1177 00b4 0520     		movs	r0, #5
 1178 00b6 FFF7FEFF 		bl	_test_assert
 1179 00ba 031E     		subs	r3, r0, #0
 1180 00bc 00D0     		beq	.LCB808
 1181 00be 6CE0     		b	.L75	@long jump
 1182              	.LCB808:
 1183              		.loc 11 165 0
 1184 00c0 3C4B     		ldr	r3, .L81
 1185 00c2 9B68     		ldr	r3, [r3, #8]
 1186 00c4 5A42     		rsbs	r2, r3, #0
 1187 00c6 5341     		adcs	r3, r3, r2
 1188 00c8 DBB2     		uxtb	r3, r3
 1189 00ca 1900     		movs	r1, r3
 1190 00cc 0620     		movs	r0, #6
 1191 00ce FFF7FEFF 		bl	_test_assert
 1192 00d2 031E     		subs	r3, r0, #0
ARM GAS  /tmp/cc0aws4r.s 			page 22


 1193 00d4 63D1     		bne	.L76
 1194              		.loc 11 170 0
 1195 00d6 FFF7FEFF 		bl	test_wait_tick
 1196              		.loc 11 171 0
 1197 00da FFF7FEFF 		bl	chVTGetSystemTime
 1198 00de 0300     		movs	r3, r0
 1199 00e0 1A00     		movs	r2, r3
 1200 00e2 0E23     		movs	r3, #14
 1201 00e4 6B44     		add	r3, r3, sp
 1202 00e6 3849     		ldr	r1, .L81+20
 1203 00e8 8C46     		mov	ip, r1
 1204 00ea 6244     		add	r2, r2, ip
 1205 00ec 1A80     		strh	r2, [r3]
 1206              		.loc 11 172 0
 1207 00ee 0023     		movs	r3, #0
 1208 00f0 0593     		str	r3, [sp, #20]
 1209 00f2 33E0     		b	.L65
 1210              	.L69:
 1211              		.loc 11 173 0
 1212 00f4 059B     		ldr	r3, [sp, #20]
 1213 00f6 DBB2     		uxtb	r3, r3
 1214 00f8 4133     		adds	r3, r3, #65
 1215 00fa DBB2     		uxtb	r3, r3
 1216 00fc 1800     		movs	r0, r3
 1217 00fe FFF7FEFF 		bl	test_emit_token
 1218              		.loc 11 174 0
 1219 0102 FA23     		movs	r3, #250
 1220 0104 5A00     		lsls	r2, r3, #1
 1221 0106 2B4B     		ldr	r3, .L81
 1222 0108 1100     		movs	r1, r2
 1223 010a 1800     		movs	r0, r3
 1224 010c FFF7FEFF 		bl	chSemWaitTimeout
 1225 0110 0300     		movs	r3, r0
 1226 0112 0493     		str	r3, [sp, #16]
 1227              		.loc 11 175 0
 1228 0114 049B     		ldr	r3, [sp, #16]
 1229 0116 0133     		adds	r3, r3, #1
 1230 0118 5A42     		rsbs	r2, r3, #0
 1231 011a 5341     		adcs	r3, r3, r2
 1232 011c DBB2     		uxtb	r3, r3
 1233 011e 1900     		movs	r1, r3
 1234 0120 0720     		movs	r0, #7
 1235 0122 FFF7FEFF 		bl	_test_assert
 1236 0126 031E     		subs	r3, r0, #0
 1237 0128 3BD1     		bne	.L77
 1238              		.loc 11 176 0
 1239 012a 224B     		ldr	r3, .L81
 1240 012c 1800     		movs	r0, r3
 1241 012e FFF7FEFF 		bl	queue_isempty
 1242 0132 0300     		movs	r3, r0
 1243 0134 1900     		movs	r1, r3
 1244 0136 0820     		movs	r0, #8
 1245 0138 FFF7FEFF 		bl	_test_assert
 1246 013c 031E     		subs	r3, r0, #0
 1247 013e 32D1     		bne	.L78
 1248              		.loc 11 177 0
 1249 0140 1C4B     		ldr	r3, .L81
ARM GAS  /tmp/cc0aws4r.s 			page 23


 1250 0142 9B68     		ldr	r3, [r3, #8]
 1251 0144 5A42     		rsbs	r2, r3, #0
 1252 0146 5341     		adcs	r3, r3, r2
 1253 0148 DBB2     		uxtb	r3, r3
 1254 014a 1900     		movs	r1, r3
 1255 014c 0920     		movs	r0, #9
 1256 014e FFF7FEFF 		bl	_test_assert
 1257 0152 031E     		subs	r3, r0, #0
 1258 0154 29D1     		bne	.L79
 1259              		.loc 11 172 0 discriminator 2
 1260 0156 059B     		ldr	r3, [sp, #20]
 1261 0158 0133     		adds	r3, r3, #1
 1262 015a 0593     		str	r3, [sp, #20]
 1263              	.L65:
 1264              		.loc 11 172 0 is_stmt 0 discriminator 1
 1265 015c 059B     		ldr	r3, [sp, #20]
 1266 015e 042B     		cmp	r3, #4
 1267 0160 C8DD     		ble	.L69
 1268              		.loc 11 179 0 is_stmt 1
 1269 0162 1A4B     		ldr	r3, .L81+24
 1270 0164 1900     		movs	r1, r3
 1271 0166 0A20     		movs	r0, #10
 1272 0168 FFF7FEFF 		bl	_test_assert_sequence
 1273 016c 031E     		subs	r3, r0, #0
 1274 016e 1ED1     		bne	.L80
 1275              		.loc 11 180 0
 1276 0170 0E23     		movs	r3, #14
 1277 0172 6B44     		add	r3, r3, sp
 1278 0174 1B88     		ldrh	r3, [r3]
 1279 0176 1433     		adds	r3, r3, #20
 1280 0178 9AB2     		uxth	r2, r3
 1281 017a 0E23     		movs	r3, #14
 1282 017c 6B44     		add	r3, r3, sp
 1283 017e 1B88     		ldrh	r3, [r3]
 1284 0180 1900     		movs	r1, r3
 1285 0182 0B20     		movs	r0, #11
 1286 0184 FFF7FEFF 		bl	_test_assert_time_window
 1287 0188 12E0     		b	.L57
 1288              	.L71:
 1289              		.loc 11 152 0
 1290 018a C046     		nop
 1291 018c 10E0     		b	.L57
 1292              	.L72:
 1293              		.loc 11 153 0
 1294 018e C046     		nop
 1295 0190 0EE0     		b	.L57
 1296              	.L73:
 1297              		.loc 11 154 0
 1298 0192 C046     		nop
 1299 0194 0CE0     		b	.L57
 1300              	.L74:
 1301              		.loc 11 163 0
 1302 0196 C046     		nop
 1303 0198 0AE0     		b	.L57
 1304              	.L75:
 1305              		.loc 11 164 0
 1306 019a C046     		nop
ARM GAS  /tmp/cc0aws4r.s 			page 24


 1307 019c 08E0     		b	.L57
 1308              	.L76:
 1309              		.loc 11 165 0
 1310 019e C046     		nop
 1311 01a0 06E0     		b	.L57
 1312              	.L77:
 1313              		.loc 11 175 0
 1314 01a2 C046     		nop
 1315 01a4 04E0     		b	.L57
 1316              	.L78:
 1317              		.loc 11 176 0
 1318 01a6 C046     		nop
 1319 01a8 02E0     		b	.L57
 1320              	.L79:
 1321              		.loc 11 177 0
 1322 01aa C046     		nop
 1323 01ac 00E0     		b	.L57
 1324              	.L80:
 1325              		.loc 11 179 0
 1326 01ae C046     		nop
 1327              	.L57:
 1328              		.loc 11 181 0
 1329 01b0 06B0     		add	sp, sp, #24
 1330              		@ sp needed
 1331 01b2 10BD     		pop	{r4, pc}
 1332              	.L82:
 1333              		.align	2
 1334              	.L81:
 1335 01b4 00000000 		.word	sem1
 1336 01b8 00000000 		.word	wa
 1337 01bc 00000000 		.word	thread2
 1338 01c0 00000000 		.word	threads
 1339 01c4 88130000 		.word	5000
 1340 01c8 C4090000 		.word	2500
 1341 01cc 14000000 		.word	.LC19
 1342              		.cfi_endproc
 1343              	.LFE157:
 1344              		.size	sem2_execute, .-sem2_execute
 1345              		.global	testsem2
 1346              		.section	.rodata
 1347 0032 0000     		.align	2
 1348              	.LC29:
 1349 0034 53656D61 		.ascii	"Semaphores, timeout\000"
 1349      70686F72 
 1349      65732C20 
 1349      74696D65 
 1349      6F757400 
 1350              		.section	.rodata.testsem2,"a",%progbits
 1351              		.align	2
 1352              		.type	testsem2, %object
 1353              		.size	testsem2, 16
 1354              	testsem2:
 1355 0000 34000000 		.word	.LC29
 1356 0004 00000000 		.word	sem2_setup
 1357 0008 00000000 		.word	0
 1358 000c 00000000 		.word	sem2_execute
 1359              		.section	.text.sem3_setup,"ax",%progbits
ARM GAS  /tmp/cc0aws4r.s 			page 25


 1360              		.align	1
 1361              		.p2align 4,,15
 1362              		.syntax unified
 1363              		.code	16
 1364              		.thumb_func
 1365              		.fpu softvfp
 1366              		.type	sem3_setup, %function
 1367              	sem3_setup:
 1368              	.LFB158:
 1369              		.loc 11 202 0
 1370              		.cfi_startproc
 1371              		@ args = 0, pretend = 0, frame = 0
 1372              		@ frame_needed = 0, uses_anonymous_args = 0
 1373 0000 10B5     		push	{r4, lr}
 1374              		.cfi_def_cfa_offset 8
 1375              		.cfi_offset 4, -8
 1376              		.cfi_offset 14, -4
 1377              		.loc 11 204 0
 1378 0002 034B     		ldr	r3, .L84
 1379 0004 0021     		movs	r1, #0
 1380 0006 1800     		movs	r0, r3
 1381 0008 FFF7FEFF 		bl	chSemObjectInit
 1382              		.loc 11 205 0
 1383 000c C046     		nop
 1384              		@ sp needed
 1385 000e 10BD     		pop	{r4, pc}
 1386              	.L85:
 1387              		.align	2
 1388              	.L84:
 1389 0010 00000000 		.word	sem1
 1390              		.cfi_endproc
 1391              	.LFE158:
 1392              		.size	sem3_setup, .-sem3_setup
 1393              		.section	.text.thread3,"ax",%progbits
 1394              		.align	1
 1395              		.p2align 4,,15
 1396              		.syntax unified
 1397              		.code	16
 1398              		.thumb_func
 1399              		.fpu softvfp
 1400              		.type	thread3, %function
 1401              	thread3:
 1402              	.LFB159:
 1403              		.loc 11 207 0
 1404              		.cfi_startproc
 1405              		@ args = 0, pretend = 0, frame = 8
 1406              		@ frame_needed = 0, uses_anonymous_args = 0
 1407 0000 00B5     		push	{lr}
 1408              		.cfi_def_cfa_offset 4
 1409              		.cfi_offset 14, -4
 1410 0002 83B0     		sub	sp, sp, #12
 1411              		.cfi_def_cfa_offset 16
 1412 0004 0190     		str	r0, [sp, #4]
 1413              		.loc 11 210 0
 1414 0006 054B     		ldr	r3, .L87
 1415 0008 1800     		movs	r0, r3
 1416 000a FFF7FEFF 		bl	chSemWait
ARM GAS  /tmp/cc0aws4r.s 			page 26


 1417              		.loc 11 211 0
 1418 000e 034B     		ldr	r3, .L87
 1419 0010 1800     		movs	r0, r3
 1420 0012 FFF7FEFF 		bl	chSemSignal
 1421              		.loc 11 212 0
 1422 0016 C046     		nop
 1423 0018 03B0     		add	sp, sp, #12
 1424              		@ sp needed
 1425 001a 00BD     		pop	{pc}
 1426              	.L88:
 1427              		.align	2
 1428              	.L87:
 1429 001c 00000000 		.word	sem1
 1430              		.cfi_endproc
 1431              	.LFE159:
 1432              		.size	thread3, .-thread3
 1433              		.section	.text.sem3_execute,"ax",%progbits
 1434              		.align	1
 1435              		.p2align 4,,15
 1436              		.syntax unified
 1437              		.code	16
 1438              		.thumb_func
 1439              		.fpu softvfp
 1440              		.type	sem3_execute, %function
 1441              	sem3_execute:
 1442              	.LFB160:
 1443              		.loc 11 214 0
 1444              		.cfi_startproc
 1445              		@ args = 0, pretend = 0, frame = 0
 1446              		@ frame_needed = 0, uses_anonymous_args = 0
 1447 0000 10B5     		push	{r4, lr}
 1448              		.cfi_def_cfa_offset 8
 1449              		.cfi_offset 4, -8
 1450              		.cfi_offset 14, -4
 1451 0002 82B0     		sub	sp, sp, #8
 1452              		.cfi_def_cfa_offset 16
 1453              		.loc 11 216 0
 1454 0004 274B     		ldr	r3, .L97
 1455 0006 1C68     		ldr	r4, [r3]
 1456 0008 FFF7FEFF 		bl	chThdGetPriorityX
 1457 000c 0300     		movs	r3, r0
 1458 000e 5A1C     		adds	r2, r3, #1
 1459 0010 2548     		ldr	r0, .L97+4
 1460 0012 A823     		movs	r3, #168
 1461 0014 5900     		lsls	r1, r3, #1
 1462 0016 0023     		movs	r3, #0
 1463 0018 0093     		str	r3, [sp]
 1464 001a 0300     		movs	r3, r0
 1465 001c 2000     		movs	r0, r4
 1466 001e FFF7FEFF 		bl	chThdCreateStatic
 1467 0022 0200     		movs	r2, r0
 1468 0024 214B     		ldr	r3, .L97+8
 1469 0026 1A60     		str	r2, [r3]
 1470              		.loc 11 217 0
 1471 0028 214A     		ldr	r2, .L97+12
 1472 002a 214B     		ldr	r3, .L97+12
 1473 002c 1100     		movs	r1, r2
ARM GAS  /tmp/cc0aws4r.s 			page 27


 1474 002e 1800     		movs	r0, r3
 1475 0030 FFF7FEFF 		bl	chSemSignalWait
 1476              		.loc 11 218 0
 1477 0034 1E4B     		ldr	r3, .L97+12
 1478 0036 1800     		movs	r0, r3
 1479 0038 FFF7FEFF 		bl	queue_isempty
 1480 003c 0300     		movs	r3, r0
 1481 003e 1900     		movs	r1, r3
 1482 0040 0120     		movs	r0, #1
 1483 0042 FFF7FEFF 		bl	_test_assert
 1484 0046 031E     		subs	r3, r0, #0
 1485 0048 25D1     		bne	.L94
 1486              		.loc 11 219 0
 1487 004a 194B     		ldr	r3, .L97+12
 1488 004c 9B68     		ldr	r3, [r3, #8]
 1489 004e 5A42     		rsbs	r2, r3, #0
 1490 0050 5341     		adcs	r3, r3, r2
 1491 0052 DBB2     		uxtb	r3, r3
 1492 0054 1900     		movs	r1, r3
 1493 0056 0220     		movs	r0, #2
 1494 0058 FFF7FEFF 		bl	_test_assert
 1495 005c 031E     		subs	r3, r0, #0
 1496 005e 1CD1     		bne	.L95
 1497              		.loc 11 221 0
 1498 0060 134A     		ldr	r2, .L97+12
 1499 0062 134B     		ldr	r3, .L97+12
 1500 0064 1100     		movs	r1, r2
 1501 0066 1800     		movs	r0, r3
 1502 0068 FFF7FEFF 		bl	chSemSignalWait
 1503              		.loc 11 222 0
 1504 006c 104B     		ldr	r3, .L97+12
 1505 006e 1800     		movs	r0, r3
 1506 0070 FFF7FEFF 		bl	queue_isempty
 1507 0074 0300     		movs	r3, r0
 1508 0076 1900     		movs	r1, r3
 1509 0078 0320     		movs	r0, #3
 1510 007a FFF7FEFF 		bl	_test_assert
 1511 007e 031E     		subs	r3, r0, #0
 1512 0080 0DD1     		bne	.L96
 1513              		.loc 11 223 0
 1514 0082 0B4B     		ldr	r3, .L97+12
 1515 0084 9B68     		ldr	r3, [r3, #8]
 1516 0086 5A42     		rsbs	r2, r3, #0
 1517 0088 5341     		adcs	r3, r3, r2
 1518 008a DBB2     		uxtb	r3, r3
 1519 008c 1900     		movs	r1, r3
 1520 008e 0420     		movs	r0, #4
 1521 0090 FFF7FEFF 		bl	_test_assert
 1522 0094 04E0     		b	.L89
 1523              	.L94:
 1524              		.loc 11 218 0
 1525 0096 C046     		nop
 1526 0098 02E0     		b	.L89
 1527              	.L95:
 1528              		.loc 11 219 0
 1529 009a C046     		nop
 1530 009c 00E0     		b	.L89
ARM GAS  /tmp/cc0aws4r.s 			page 28


 1531              	.L96:
 1532              		.loc 11 222 0
 1533 009e C046     		nop
 1534              	.L89:
 1535              		.loc 11 224 0
 1536 00a0 02B0     		add	sp, sp, #8
 1537              		@ sp needed
 1538 00a2 10BD     		pop	{r4, pc}
 1539              	.L98:
 1540              		.align	2
 1541              	.L97:
 1542 00a4 00000000 		.word	wa
 1543 00a8 00000000 		.word	thread3
 1544 00ac 00000000 		.word	threads
 1545 00b0 00000000 		.word	sem1
 1546              		.cfi_endproc
 1547              	.LFE160:
 1548              		.size	sem3_execute, .-sem3_execute
 1549              		.global	testsem3
 1550              		.section	.rodata
 1551              		.align	2
 1552              	.LC36:
 1553 0048 53656D61 		.ascii	"Semaphores, atomic signal-wait\000"
 1553      70686F72 
 1553      65732C20 
 1553      61746F6D 
 1553      69632073 
 1554              		.section	.rodata.testsem3,"a",%progbits
 1555              		.align	2
 1556              		.type	testsem3, %object
 1557              		.size	testsem3, 16
 1558              	testsem3:
 1559 0000 48000000 		.word	.LC36
 1560 0004 00000000 		.word	sem3_setup
 1561 0008 00000000 		.word	0
 1562 000c 00000000 		.word	sem3_execute
 1563              		.section	.text.thread4,"ax",%progbits
 1564              		.align	1
 1565              		.p2align 4,,15
 1566              		.syntax unified
 1567              		.code	16
 1568              		.thumb_func
 1569              		.fpu softvfp
 1570              		.type	thread4, %function
 1571              	thread4:
 1572              	.LFB161:
 1573              		.loc 11 241 0
 1574              		.cfi_startproc
 1575              		@ args = 0, pretend = 0, frame = 8
 1576              		@ frame_needed = 0, uses_anonymous_args = 0
 1577 0000 00B5     		push	{lr}
 1578              		.cfi_def_cfa_offset 4
 1579              		.cfi_offset 14, -4
 1580 0002 83B0     		sub	sp, sp, #12
 1581              		.cfi_def_cfa_offset 16
 1582 0004 0190     		str	r0, [sp, #4]
 1583              		.loc 11 243 0
ARM GAS  /tmp/cc0aws4r.s 			page 29


 1584 0006 019B     		ldr	r3, [sp, #4]
 1585 0008 1800     		movs	r0, r3
 1586 000a FFF7FEFF 		bl	chBSemSignal
 1587              		.loc 11 244 0
 1588 000e C046     		nop
 1589 0010 03B0     		add	sp, sp, #12
 1590              		@ sp needed
 1591 0012 00BD     		pop	{pc}
 1592              		.cfi_endproc
 1593              	.LFE161:
 1594              		.size	thread4, .-thread4
 1595              		.section	.text.sem4_execute,"ax",%progbits
 1596              		.align	1
 1597              		.p2align 4,,15
 1598              		.syntax unified
 1599              		.code	16
 1600              		.thumb_func
 1601              		.fpu softvfp
 1602              		.type	sem4_execute, %function
 1603              	sem4_execute:
 1604              	.LFB162:
 1605              		.loc 11 246 0
 1606              		.cfi_startproc
 1607              		@ args = 0, pretend = 0, frame = 16
 1608              		@ frame_needed = 0, uses_anonymous_args = 0
 1609 0000 10B5     		push	{r4, lr}
 1610              		.cfi_def_cfa_offset 8
 1611              		.cfi_offset 4, -8
 1612              		.cfi_offset 14, -4
 1613 0002 86B0     		sub	sp, sp, #24
 1614              		.cfi_def_cfa_offset 32
 1615              		.loc 11 250 0
 1616 0004 03AB     		add	r3, sp, #12
 1617 0006 0121     		movs	r1, #1
 1618 0008 1800     		movs	r0, r3
 1619 000a FFF7FEFF 		bl	chBSemObjectInit
 1620              		.loc 11 251 0
 1621 000e 03AB     		add	r3, sp, #12
 1622 0010 0121     		movs	r1, #1
 1623 0012 1800     		movs	r0, r3
 1624 0014 FFF7FEFF 		bl	chBSemReset
 1625              		.loc 11 252 0
 1626 0018 FFF7FEFF 		bl	chSysLock
 1627 001c 03AB     		add	r3, sp, #12
 1628 001e 1800     		movs	r0, r3
 1629 0020 FFF7FEFF 		bl	chBSemGetStateI
 1630 0024 0300     		movs	r3, r0
 1631 0026 1900     		movs	r1, r3
 1632 0028 0120     		movs	r0, #1
 1633 002a FFF7FEFF 		bl	_test_assert
 1634 002e 031E     		subs	r3, r0, #0
 1635 0030 02D0     		beq	.L101
 1636              		.loc 11 252 0 is_stmt 0 discriminator 1
 1637 0032 FFF7FEFF 		bl	chSysUnlock
 1638 0036 95E0     		b	.L100
 1639              	.L101:
 1640              		.loc 11 252 0 discriminator 2
ARM GAS  /tmp/cc0aws4r.s 			page 30


 1641 0038 FFF7FEFF 		bl	chSysUnlock
 1642              		.loc 11 255 0 is_stmt 1 discriminator 2
 1643 003c 4A4B     		ldr	r3, .L109
 1644 003e 1C68     		ldr	r4, [r3]
 1645              		.loc 11 256 0 discriminator 2
 1646 0040 FFF7FEFF 		bl	chThdGetPriorityX
 1647 0044 0300     		movs	r3, r0
 1648              		.loc 11 255 0 discriminator 2
 1649 0046 5A1E     		subs	r2, r3, #1
 1650 0048 4848     		ldr	r0, .L109+4
 1651 004a A823     		movs	r3, #168
 1652 004c 5900     		lsls	r1, r3, #1
 1653 004e 03AB     		add	r3, sp, #12
 1654 0050 0093     		str	r3, [sp]
 1655 0052 0300     		movs	r3, r0
 1656 0054 2000     		movs	r0, r4
 1657 0056 FFF7FEFF 		bl	chThdCreateStatic
 1658 005a 0200     		movs	r2, r0
 1659 005c 444B     		ldr	r3, .L109+8
 1660 005e 1A60     		str	r2, [r3]
 1661              		.loc 11 259 0 discriminator 2
 1662 0060 03AB     		add	r3, sp, #12
 1663 0062 1800     		movs	r0, r3
 1664 0064 FFF7FEFF 		bl	chBSemWait
 1665              		.loc 11 262 0 discriminator 2
 1666 0068 FFF7FEFF 		bl	chSysLock
 1667 006c 03AB     		add	r3, sp, #12
 1668 006e 1800     		movs	r0, r3
 1669 0070 FFF7FEFF 		bl	chBSemGetStateI
 1670 0074 0300     		movs	r3, r0
 1671 0076 1900     		movs	r1, r3
 1672 0078 0220     		movs	r0, #2
 1673 007a FFF7FEFF 		bl	_test_assert
 1674 007e 031E     		subs	r3, r0, #0
 1675 0080 02D0     		beq	.L103
 1676              		.loc 11 262 0 is_stmt 0 discriminator 1
 1677 0082 FFF7FEFF 		bl	chSysUnlock
 1678 0086 6DE0     		b	.L100
 1679              	.L103:
 1680              		.loc 11 262 0 discriminator 2
 1681 0088 FFF7FEFF 		bl	chSysUnlock
 1682              		.loc 11 266 0 is_stmt 1 discriminator 2
 1683 008c 03AB     		add	r3, sp, #12
 1684 008e 1800     		movs	r0, r3
 1685 0090 FFF7FEFF 		bl	chBSemSignal
 1686              		.loc 11 267 0 discriminator 2
 1687 0094 FFF7FEFF 		bl	chSysLock
 1688 0098 03AB     		add	r3, sp, #12
 1689 009a 1800     		movs	r0, r3
 1690 009c FFF7FEFF 		bl	chBSemGetStateI
 1691 00a0 0300     		movs	r3, r0
 1692 00a2 5A1E     		subs	r2, r3, #1
 1693 00a4 9341     		sbcs	r3, r3, r2
 1694 00a6 DBB2     		uxtb	r3, r3
 1695 00a8 0122     		movs	r2, #1
 1696 00aa 5340     		eors	r3, r2
 1697 00ac DBB2     		uxtb	r3, r3
ARM GAS  /tmp/cc0aws4r.s 			page 31


 1698 00ae 1A1C     		adds	r2, r3, #0
 1699 00b0 0123     		movs	r3, #1
 1700 00b2 1340     		ands	r3, r2
 1701 00b4 DBB2     		uxtb	r3, r3
 1702 00b6 1900     		movs	r1, r3
 1703 00b8 0320     		movs	r0, #3
 1704 00ba FFF7FEFF 		bl	_test_assert
 1705 00be 031E     		subs	r3, r0, #0
 1706 00c0 02D0     		beq	.L104
 1707              		.loc 11 267 0 is_stmt 0 discriminator 1
 1708 00c2 FFF7FEFF 		bl	chSysUnlock
 1709 00c6 4DE0     		b	.L100
 1710              	.L104:
 1711              		.loc 11 267 0 discriminator 2
 1712 00c8 FFF7FEFF 		bl	chSysUnlock
 1713              		.loc 11 268 0 is_stmt 1 discriminator 2
 1714 00cc FFF7FEFF 		bl	chSysLock
 1715 00d0 03AB     		add	r3, sp, #12
 1716 00d2 1800     		movs	r0, r3
 1717 00d4 FFF7FEFF 		bl	chSemGetCounterI
 1718 00d8 0300     		movs	r3, r0
 1719 00da 013B     		subs	r3, r3, #1
 1720 00dc 5A42     		rsbs	r2, r3, #0
 1721 00de 5341     		adcs	r3, r3, r2
 1722 00e0 DBB2     		uxtb	r3, r3
 1723 00e2 1900     		movs	r1, r3
 1724 00e4 0420     		movs	r0, #4
 1725 00e6 FFF7FEFF 		bl	_test_assert
 1726 00ea 031E     		subs	r3, r0, #0
 1727 00ec 02D0     		beq	.L105
 1728              		.loc 11 268 0 is_stmt 0 discriminator 1
 1729 00ee FFF7FEFF 		bl	chSysUnlock
 1730 00f2 37E0     		b	.L100
 1731              	.L105:
 1732              		.loc 11 268 0 discriminator 2
 1733 00f4 FFF7FEFF 		bl	chSysUnlock
 1734              		.loc 11 271 0 is_stmt 1 discriminator 2
 1735 00f8 03AB     		add	r3, sp, #12
 1736 00fa 1800     		movs	r0, r3
 1737 00fc FFF7FEFF 		bl	chBSemSignal
 1738              		.loc 11 272 0 discriminator 2
 1739 0100 FFF7FEFF 		bl	chSysLock
 1740 0104 03AB     		add	r3, sp, #12
 1741 0106 1800     		movs	r0, r3
 1742 0108 FFF7FEFF 		bl	chBSemGetStateI
 1743 010c 0300     		movs	r3, r0
 1744 010e 5A1E     		subs	r2, r3, #1
 1745 0110 9341     		sbcs	r3, r3, r2
 1746 0112 DBB2     		uxtb	r3, r3
 1747 0114 0122     		movs	r2, #1
 1748 0116 5340     		eors	r3, r2
 1749 0118 DBB2     		uxtb	r3, r3
 1750 011a 1A1C     		adds	r2, r3, #0
 1751 011c 0123     		movs	r3, #1
 1752 011e 1340     		ands	r3, r2
 1753 0120 DBB2     		uxtb	r3, r3
 1754 0122 1900     		movs	r1, r3
ARM GAS  /tmp/cc0aws4r.s 			page 32


 1755 0124 0320     		movs	r0, #3
 1756 0126 FFF7FEFF 		bl	_test_assert
 1757 012a 031E     		subs	r3, r0, #0
 1758 012c 02D0     		beq	.L106
 1759              		.loc 11 272 0 is_stmt 0 discriminator 1
 1760 012e FFF7FEFF 		bl	chSysUnlock
 1761 0132 17E0     		b	.L100
 1762              	.L106:
 1763              		.loc 11 272 0 discriminator 2
 1764 0134 FFF7FEFF 		bl	chSysUnlock
 1765              		.loc 11 273 0 is_stmt 1 discriminator 2
 1766 0138 FFF7FEFF 		bl	chSysLock
 1767 013c 03AB     		add	r3, sp, #12
 1768 013e 1800     		movs	r0, r3
 1769 0140 FFF7FEFF 		bl	chSemGetCounterI
 1770 0144 0300     		movs	r3, r0
 1771 0146 013B     		subs	r3, r3, #1
 1772 0148 5A42     		rsbs	r2, r3, #0
 1773 014a 5341     		adcs	r3, r3, r2
 1774 014c DBB2     		uxtb	r3, r3
 1775 014e 1900     		movs	r1, r3
 1776 0150 0520     		movs	r0, #5
 1777 0152 FFF7FEFF 		bl	_test_assert
 1778 0156 031E     		subs	r3, r0, #0
 1779 0158 02D0     		beq	.L107
 1780              		.loc 11 273 0 is_stmt 0 discriminator 1
 1781 015a FFF7FEFF 		bl	chSysUnlock
 1782 015e 01E0     		b	.L100
 1783              	.L107:
 1784              		.loc 11 273 0 discriminator 2
 1785 0160 FFF7FEFF 		bl	chSysUnlock
 1786              	.L100:
 1787              		.loc 11 274 0 is_stmt 1
 1788 0164 06B0     		add	sp, sp, #24
 1789              		@ sp needed
 1790 0166 10BD     		pop	{r4, pc}
 1791              	.L110:
 1792              		.align	2
 1793              	.L109:
 1794 0168 00000000 		.word	wa
 1795 016c 00000000 		.word	thread4
 1796 0170 00000000 		.word	threads
 1797              		.cfi_endproc
 1798              	.LFE162:
 1799              		.size	sem4_execute, .-sem4_execute
 1800              		.global	testsem4
 1801              		.section	.rodata
 1802 0067 00       		.align	2
 1803              	.LC40:
 1804 0068 42696E61 		.ascii	"Binary Semaphores, functionality\000"
 1804      72792053 
 1804      656D6170 
 1804      686F7265 
 1804      732C2066 
 1805              		.section	.rodata.testsem4,"a",%progbits
 1806              		.align	2
 1807              		.type	testsem4, %object
ARM GAS  /tmp/cc0aws4r.s 			page 33


 1808              		.size	testsem4, 16
 1809              	testsem4:
 1810 0000 68000000 		.word	.LC40
 1811 0004 00000000 		.word	0
 1812 0008 00000000 		.word	0
 1813 000c 00000000 		.word	sem4_execute
 1814              		.global	patternsem
 1815              		.section	.rodata.patternsem,"a",%progbits
 1816              		.align	2
 1817              		.type	patternsem, %object
 1818              		.size	patternsem, 20
 1819              	patternsem:
 1820 0000 00000000 		.word	testsem1
 1821 0004 00000000 		.word	testsem2
 1822 0008 00000000 		.word	testsem3
 1823 000c 00000000 		.word	testsem4
 1824 0010 00000000 		.word	0
 1825              		.section	.rodata.__func__.4993,"a",%progbits
 1826              		.align	2
 1827              		.type	__func__.4993, %object
 1828              		.size	__func__.4993, 12
 1829              	__func__.4993:
 1830 0000 63685379 		.ascii	"chSysUnlock\000"
 1830      73556E6C 
 1830      6F636B00 
 1831              		.text
 1832              	.Letext0:
 1833              		.file 12 "/home/felix/opt/gcc-arm-none-eabi-6-2017-q1-update/lib/gcc/arm-none-eabi/6.3.1/include/s
 1834              		.file 13 "/home/felix/opt/gcc-arm-none-eabi-6-2017-q1-update/arm-none-eabi/include/machine/_defaul
 1835              		.file 14 "/home/felix/opt/gcc-arm-none-eabi-6-2017-q1-update/arm-none-eabi/include/sys/_stdint.h"
 1836              		.file 15 "ChibiOS/os/rt/ports/ARMCMx/compilers/GCC/chtypes.h"
 1837              		.file 16 "ChibiOS/os/rt/include/chsystypes.h"
 1838              		.file 17 "ChibiOS/os/rt/ports/ARMCMx/chcore.h"
 1839              		.file 18 "ChibiOS/os/hal/ports/STM32/LLD/TIMv1/stm32_tim.h"
 1840              		.file 19 "ChibiOS/os/rt/include/chdebug.h"
 1841              		.file 20 "ChibiOS/os/rt/include/chmtx.h"
 1842              		.file 21 "ChibiOS/os/rt/include/chregistry.h"
 1843              		.file 22 "ChibiOS/os/ext/CMSIS/ST/STM32F0xx/system_stm32f0xx.h"
 1844              		.file 23 "ChibiOS/test/rt/test.h"