ARM GAS  /tmp/cc0aws4r.s 			page 1


   1              		.cpu cortex-m0
   2              		.eabi_attribute 20, 1
   3              		.eabi_attribute 21, 1
   4              		.eabi_attribute 23, 3
   5              		.eabi_attribute 24, 1
   6              		.eabi_attribute 25, 1
   7              		.eabi_attribute 26, 1
   8              		.eabi_attribute 30, 6
   9              		.eabi_attribute 34, 0
  10              		.eabi_attribute 18, 4
  11              		.file	"testsem.c"
  12              		.text
  13              	.Ltext0:
  14              		.cfi_sections	.debug_frame
  15              		.section	.text.port_lock,"ax",%progbits
  16              		.align	1
  17              		.p2align 4,,15
  18              		.syntax unified
  19              		.code	16
  20              		.thumb_func
  21              		.fpu softvfp
  22              		.type	port_lock, %function
  23              	port_lock:
  24              	.LFB38:
  25              		.file 1 "ChibiOS/os/rt/ports/ARMCMx/chcore_v6m.h"
  26              		.loc 1 330 0
  27              		.cfi_startproc
  28              		@ args = 0, pretend = 0, frame = 0
  29              		@ frame_needed = 0, uses_anonymous_args = 0
  30              		@ link register save eliminated.
  31              	.LBB6:
  32              	.LBB7:
  33              		.file 2 "ChibiOS/os/ext/CMSIS/include/core_cmFunc.h"
  34              		.loc 2 344 0
  35              		.syntax divided
  36              	@ 344 "ChibiOS/os/ext/CMSIS/include/core_cmFunc.h" 1
  37 0000 72B6     		cpsid i
  38              	@ 0 "" 2
  39              		.thumb
  40              		.syntax unified
  41              	.LBE7:
  42              	.LBE6:
  43              		.loc 1 333 0
  44 0002 C046     		nop
  45              		@ sp needed
  46 0004 7047     		bx	lr
  47              		.cfi_endproc
  48              	.LFE38:
  49              		.size	port_lock, .-port_lock
  50 0006 C046     		.section	.text.port_unlock,"ax",%progbits
  51              		.align	1
  52              		.p2align 4,,15
  53              		.syntax unified
  54              		.code	16
  55              		.thumb_func
  56              		.fpu softvfp
  57              		.type	port_unlock, %function
ARM GAS  /tmp/cc0aws4r.s 			page 2


  58              	port_unlock:
  59              	.LFB39:
  60              		.loc 1 339 0
  61              		.cfi_startproc
  62              		@ args = 0, pretend = 0, frame = 0
  63              		@ frame_needed = 0, uses_anonymous_args = 0
  64              		@ link register save eliminated.
  65              	.LBB8:
  66              	.LBB9:
  67              		.loc 2 333 0
  68              		.syntax divided
  69              	@ 333 "ChibiOS/os/ext/CMSIS/include/core_cmFunc.h" 1
  70 0000 62B6     		cpsie i
  71              	@ 0 "" 2
  72              		.thumb
  73              		.syntax unified
  74              	.LBE9:
  75              	.LBE8:
  76              		.loc 1 342 0
  77 0002 C046     		nop
  78              		@ sp needed
  79 0004 7047     		bx	lr
  80              		.cfi_endproc
  81              	.LFE39:
  82              		.size	port_unlock, .-port_unlock
  83 0006 C046     		.section	.text.st_lld_get_counter,"ax",%progbits
  84              		.align	1
  85              		.p2align 4,,15
  86              		.syntax unified
  87              		.code	16
  88              		.thumb_func
  89              		.fpu softvfp
  90              		.type	st_lld_get_counter, %function
  91              	st_lld_get_counter:
  92              	.LFB46:
  93              		.file 3 "ChibiOS/os/hal/ports/STM32/LLD/TIMv1/st_lld.h"
  94              		.loc 3 139 0
  95              		.cfi_startproc
  96              		@ args = 0, pretend = 0, frame = 0
  97              		@ frame_needed = 0, uses_anonymous_args = 0
  98              		@ link register save eliminated.
  99              		.loc 3 141 0
 100 0000 024B     		ldr	r3, .L5
 101 0002 5B6A     		ldr	r3, [r3, #36]
 102 0004 9BB2     		uxth	r3, r3
 103              		.loc 3 142 0
 104 0006 1800     		movs	r0, r3
 105              		@ sp needed
 106 0008 7047     		bx	lr
 107              	.L6:
 108 000a C046     		.align	2
 109              	.L5:
 110 000c 00040040 		.word	1073742848
 111              		.cfi_endproc
 112              	.LFE46:
 113              		.size	st_lld_get_counter, .-st_lld_get_counter
 114              		.section	.text.port_timer_get_time,"ax",%progbits
ARM GAS  /tmp/cc0aws4r.s 			page 3


 115              		.align	1
 116              		.p2align 4,,15
 117              		.syntax unified
 118              		.code	16
 119              		.thumb_func
 120              		.fpu softvfp
 121              		.type	port_timer_get_time, %function
 122              	port_timer_get_time:
 123              	.LFB55:
 124              		.file 4 "ChibiOS/os/rt/ports/ARMCMx/chcore_timer.h"
 125              		.loc 4 105 0
 126              		.cfi_startproc
 127              		@ args = 0, pretend = 0, frame = 0
 128              		@ frame_needed = 0, uses_anonymous_args = 0
 129 0000 10B5     		push	{r4, lr}
 130              		.cfi_def_cfa_offset 8
 131              		.cfi_offset 4, -8
 132              		.cfi_offset 14, -4
 133              		.loc 4 107 0
 134 0002 FFF7FEFF 		bl	st_lld_get_counter
 135 0006 0300     		movs	r3, r0
 136              		.loc 4 108 0
 137 0008 1800     		movs	r0, r3
 138              		@ sp needed
 139 000a 10BD     		pop	{r4, pc}
 140              		.cfi_endproc
 141              	.LFE55:
 142              		.size	port_timer_get_time, .-port_timer_get_time
 143              		.section	.text.queue_isempty,"ax",%progbits
 144              		.align	1
 145              		.p2align 4,,15
 146              		.syntax unified
 147              		.code	16
 148              		.thumb_func
 149              		.fpu softvfp
 150              		.type	queue_isempty, %function
 151              	queue_isempty:
 152              	.LFB61:
 153              		.file 5 "ChibiOS/os/rt/include/chschd.h"
 154              		.loc 5 616 0
 155              		.cfi_startproc
 156              		@ args = 0, pretend = 0, frame = 8
 157              		@ frame_needed = 0, uses_anonymous_args = 0
 158              		@ link register save eliminated.
 159 0000 82B0     		sub	sp, sp, #8
 160              		.cfi_def_cfa_offset 8
 161 0002 0190     		str	r0, [sp, #4]
 162              		.loc 5 618 0
 163 0004 019B     		ldr	r3, [sp, #4]
 164 0006 1A68     		ldr	r2, [r3]
 165 0008 019B     		ldr	r3, [sp, #4]
 166 000a D31A     		subs	r3, r2, r3
 167 000c 5A42     		rsbs	r2, r3, #0
 168 000e 5341     		adcs	r3, r3, r2
 169 0010 DBB2     		uxtb	r3, r3
 170              		.loc 5 619 0
 171 0012 1800     		movs	r0, r3
ARM GAS  /tmp/cc0aws4r.s 			page 4


 172 0014 02B0     		add	sp, sp, #8
 173              		@ sp needed
 174 0016 7047     		bx	lr
 175              		.cfi_endproc
 176              	.LFE61:
 177              		.size	queue_isempty, .-queue_isempty
 178              		.section	.text.chSysLock,"ax",%progbits
 179              		.align	1
 180              		.p2align 4,,15
 181              		.syntax unified
 182              		.code	16
 183              		.thumb_func
 184              		.fpu softvfp
 185              		.type	chSysLock, %function
 186              	chSysLock:
 187              	.LFB77:
 188              		.file 6 "ChibiOS/os/rt/include/chsys.h"
 189              		.loc 6 346 0
 190              		.cfi_startproc
 191              		@ args = 0, pretend = 0, frame = 0
 192              		@ frame_needed = 0, uses_anonymous_args = 0
 193 0000 10B5     		push	{r4, lr}
 194              		.cfi_def_cfa_offset 8
 195              		.cfi_offset 4, -8
 196              		.cfi_offset 14, -4
 197              		.loc 6 348 0
 198 0002 FFF7FEFF 		bl	port_lock
 199              		.loc 6 350 0
 200 0006 FFF7FEFF 		bl	_dbg_check_lock
 201              		.loc 6 351 0
 202 000a C046     		nop
 203              		@ sp needed
 204 000c 10BD     		pop	{r4, pc}
 205              		.cfi_endproc
 206              	.LFE77:
 207              		.size	chSysLock, .-chSysLock
 208 000e C046     		.section	.text.chSysUnlock,"ax",%progbits
 209              		.align	1
 210              		.p2align 4,,15
 211              		.syntax unified
 212              		.code	16
 213              		.thumb_func
 214              		.fpu softvfp
 215              		.type	chSysUnlock, %function
 216              	chSysUnlock:
 217              	.LFB78:
 218              		.loc 6 358 0
 219              		.cfi_startproc
 220              		@ args = 0, pretend = 0, frame = 0
 221              		@ frame_needed = 0, uses_anonymous_args = 0
 222 0000 10B5     		push	{r4, lr}
 223              		.cfi_def_cfa_offset 8
 224              		.cfi_offset 4, -8
 225              		.cfi_offset 14, -4
 226              		.loc 6 360 0
 227 0002 FFF7FEFF 		bl	_dbg_check_unlock
 228              		.loc 6 367 0
ARM GAS  /tmp/cc0aws4r.s 			page 5


 229 0006 0A4B     		ldr	r3, .L14
 230 0008 1A68     		ldr	r2, [r3]
 231 000a 094B     		ldr	r3, .L14
 232 000c 9A42     		cmp	r2, r3
 233 000e 0BD0     		beq	.L13
 234              		.loc 6 367 0 is_stmt 0 discriminator 2
 235 0010 074B     		ldr	r3, .L14
 236 0012 9B69     		ldr	r3, [r3, #24]
 237 0014 9A68     		ldr	r2, [r3, #8]
 238 0016 064B     		ldr	r3, .L14
 239 0018 1B68     		ldr	r3, [r3]
 240 001a 9B68     		ldr	r3, [r3, #8]
 241 001c 9A42     		cmp	r2, r3
 242 001e 03D2     		bcs	.L13
 243              		.loc 6 367 0 discriminator 3
 244 0020 044B     		ldr	r3, .L14+4
 245 0022 1800     		movs	r0, r3
 246 0024 FFF7FEFF 		bl	chSysHalt
 247              	.L13:
 248              		.loc 6 371 0 is_stmt 1
 249 0028 FFF7FEFF 		bl	port_unlock
 250              		.loc 6 372 0
 251 002c C046     		nop
 252              		@ sp needed
 253 002e 10BD     		pop	{r4, pc}
 254              	.L15:
 255              		.align	2
 256              	.L14:
 257 0030 00000000 		.word	ch
 258 0034 00000000 		.word	__func__.4993
 259              		.cfi_endproc
 260              	.LFE78:
 261              		.size	chSysUnlock, .-chSysUnlock
 262              		.section	.text.chVTGetSystemTimeX,"ax",%progbits
 263              		.align	1
 264              		.p2align 4,,15
 265              		.syntax unified
 266              		.code	16
 267              		.thumb_func
 268              		.fpu softvfp
 269              		.type	chVTGetSystemTimeX, %function
 270              	chVTGetSystemTimeX:
 271              	.LFB85:
 272              		.file 7 "ChibiOS/os/rt/include/chvt.h"
 273              		.loc 7 228 0
 274              		.cfi_startproc
 275              		@ args = 0, pretend = 0, frame = 0
 276              		@ frame_needed = 0, uses_anonymous_args = 0
 277 0000 10B5     		push	{r4, lr}
 278              		.cfi_def_cfa_offset 8
 279              		.cfi_offset 4, -8
 280              		.cfi_offset 14, -4
 281              		.loc 7 233 0
 282 0002 FFF7FEFF 		bl	port_timer_get_time
 283 0006 0300     		movs	r3, r0
 284              		.loc 7 235 0
 285 0008 1800     		movs	r0, r3
ARM GAS  /tmp/cc0aws4r.s 			page 6


 286              		@ sp needed
 287 000a 10BD     		pop	{r4, pc}
 288              		.cfi_endproc
 289              	.LFE85:
 290              		.size	chVTGetSystemTimeX, .-chVTGetSystemTimeX
 291              		.section	.text.chVTGetSystemTime,"ax",%progbits
 292              		.align	1
 293              		.p2align 4,,15
 294              		.syntax unified
 295              		.code	16
 296              		.thumb_func
 297              		.fpu softvfp
 298              		.type	chVTGetSystemTime, %function
 299              	chVTGetSystemTime:
 300              	.LFB86:
 301              		.loc 7 247 0
 302              		.cfi_startproc
 303              		@ args = 0, pretend = 0, frame = 8
 304              		@ frame_needed = 0, uses_anonymous_args = 0
 305 0000 10B5     		push	{r4, lr}
 306              		.cfi_def_cfa_offset 8
 307              		.cfi_offset 4, -8
 308              		.cfi_offset 14, -4
 309 0002 82B0     		sub	sp, sp, #8
 310              		.cfi_def_cfa_offset 16
 311              		.loc 7 250 0
 312 0004 FFF7FEFF 		bl	chSysLock
 313              		.loc 7 251 0
 314 0008 6B46     		mov	r3, sp
 315 000a 9C1D     		adds	r4, r3, #6
 316 000c FFF7FEFF 		bl	chVTGetSystemTimeX
 317 0010 0300     		movs	r3, r0
 318 0012 2380     		strh	r3, [r4]
 319              		.loc 7 252 0
 320 0014 FFF7FEFF 		bl	chSysUnlock
 321              		.loc 7 254 0
 322 0018 6B46     		mov	r3, sp
 323 001a 0633     		adds	r3, r3, #6
 324 001c 1B88     		ldrh	r3, [r3]
 325              		.loc 7 255 0
 326 001e 1800     		movs	r0, r3
 327 0020 02B0     		add	sp, sp, #8
 328              		@ sp needed
 329 0022 10BD     		pop	{r4, pc}
 330              		.cfi_endproc
 331              	.LFE86:
 332              		.size	chVTGetSystemTime, .-chVTGetSystemTime
 333              		.section	.text.chThdGetSelfX,"ax",%progbits
 334              		.align	1
 335              		.p2align 4,,15
 336              		.syntax unified
 337              		.code	16
 338              		.thumb_func
 339              		.fpu softvfp
 340              		.type	chThdGetSelfX, %function
 341              	chThdGetSelfX:
 342              	.LFB99:
ARM GAS  /tmp/cc0aws4r.s 			page 7


 343              		.file 8 "ChibiOS/os/rt/include/chthreads.h"
 344              		.loc 8 174 0
 345              		.cfi_startproc
 346              		@ args = 0, pretend = 0, frame = 0
 347              		@ frame_needed = 0, uses_anonymous_args = 0
 348              		@ link register save eliminated.
 349              		.loc 8 176 0
 350 0000 014B     		ldr	r3, .L22
 351 0002 9B69     		ldr	r3, [r3, #24]
 352              		.loc 8 177 0
 353 0004 1800     		movs	r0, r3
 354              		@ sp needed
 355 0006 7047     		bx	lr
 356              	.L23:
 357              		.align	2
 358              	.L22:
 359 0008 00000000 		.word	ch
 360              		.cfi_endproc
 361              	.LFE99:
 362              		.size	chThdGetSelfX, .-chThdGetSelfX
 363              		.section	.text.chThdGetPriorityX,"ax",%progbits
 364              		.align	1
 365              		.p2align 4,,15
 366              		.syntax unified
 367              		.code	16
 368              		.thumb_func
 369              		.fpu softvfp
 370              		.type	chThdGetPriorityX, %function
 371              	chThdGetPriorityX:
 372              	.LFB100:
 373              		.loc 8 187 0
 374              		.cfi_startproc
 375              		@ args = 0, pretend = 0, frame = 0
 376              		@ frame_needed = 0, uses_anonymous_args = 0
 377 0000 10B5     		push	{r4, lr}
 378              		.cfi_def_cfa_offset 8
 379              		.cfi_offset 4, -8
 380              		.cfi_offset 14, -4
 381              		.loc 8 189 0
 382 0002 FFF7FEFF 		bl	chThdGetSelfX
 383 0006 0300     		movs	r3, r0
 384 0008 9B68     		ldr	r3, [r3, #8]
 385              		.loc 8 190 0
 386 000a 1800     		movs	r0, r3
 387              		@ sp needed
 388 000c 10BD     		pop	{r4, pc}
 389              		.cfi_endproc
 390              	.LFE100:
 391              		.size	chThdGetPriorityX, .-chThdGetPriorityX
 392 000e C046     		.section	.text.chSemGetCounterI,"ax",%progbits
 393              		.align	1
 394              		.p2align 4,,15
 395              		.syntax unified
 396              		.code	16
 397              		.thumb_func
 398              		.fpu softvfp
 399              		.type	chSemGetCounterI, %function
ARM GAS  /tmp/cc0aws4r.s 			page 8


 400              	chSemGetCounterI:
 401              	.LFB113:
 402              		.file 9 "ChibiOS/os/rt/include/chsem.h"
 403              		.loc 9 149 0
 404              		.cfi_startproc
 405              		@ args = 0, pretend = 0, frame = 8
 406              		@ frame_needed = 0, uses_anonymous_args = 0
 407 0000 00B5     		push	{lr}
 408              		.cfi_def_cfa_offset 4
 409              		.cfi_offset 14, -4
 410 0002 83B0     		sub	sp, sp, #12
 411              		.cfi_def_cfa_offset 16
 412 0004 0190     		str	r0, [sp, #4]
 413              		.loc 9 151 0
 414 0006 FFF7FEFF 		bl	chDbgCheckClassI
 415              		.loc 9 153 0
 416 000a 019B     		ldr	r3, [sp, #4]
 417 000c 9B68     		ldr	r3, [r3, #8]
 418              		.loc 9 154 0
 419 000e 1800     		movs	r0, r3
 420 0010 03B0     		add	sp, sp, #12
 421              		@ sp needed
 422 0012 00BD     		pop	{pc}
 423              		.cfi_endproc
 424              	.LFE113:
 425              		.size	chSemGetCounterI, .-chSemGetCounterI
 426              		.section	.text.chBSemObjectInit,"ax",%progbits
 427              		.align	1
 428              		.p2align 4,,15
 429              		.syntax unified
 430              		.code	16
 431              		.thumb_func
 432              		.fpu softvfp
 433              		.type	chBSemObjectInit, %function
 434              	chBSemObjectInit:
 435              	.LFB114:
 436              		.file 10 "ChibiOS/os/rt/include/chbsem.h"
 437              		.loc 10 124 0
 438              		.cfi_startproc
 439              		@ args = 0, pretend = 0, frame = 8
 440              		@ frame_needed = 0, uses_anonymous_args = 0
 441 0000 00B5     		push	{lr}
 442              		.cfi_def_cfa_offset 4
 443              		.cfi_offset 14, -4
 444 0002 83B0     		sub	sp, sp, #12
 445              		.cfi_def_cfa_offset 16
 446 0004 0190     		str	r0, [sp, #4]
 447 0006 0A00     		movs	r2, r1
 448 0008 6B46     		mov	r3, sp
 449 000a 0333     		adds	r3, r3, #3
 450 000c 1A70     		strb	r2, [r3]
 451              		.loc 10 126 0
 452 000e 0198     		ldr	r0, [sp, #4]
 453 0010 6B46     		mov	r3, sp
 454 0012 0333     		adds	r3, r3, #3
 455 0014 1B78     		ldrb	r3, [r3]
 456 0016 0122     		movs	r2, #1
ARM GAS  /tmp/cc0aws4r.s 			page 9


 457 0018 5340     		eors	r3, r2
 458 001a DBB2     		uxtb	r3, r3
 459 001c 1900     		movs	r1, r3
 460 001e FFF7FEFF 		bl	chSemObjectInit
 461              		.loc 10 127 0
 462 0022 C046     		nop
 463 0024 03B0     		add	sp, sp, #12
 464              		@ sp needed
 465 0026 00BD     		pop	{pc}
 466              		.cfi_endproc
 467              	.LFE114:
 468              		.size	chBSemObjectInit, .-chBSemObjectInit
 469              		.section	.text.chBSemWait,"ax",%progbits
 470              		.align	1
 471              		.p2align 4,,15
 472              		.syntax unified
 473              		.code	16
 474              		.thumb_func
 475              		.fpu softvfp
 476              		.type	chBSemWait, %function
 477              	chBSemWait:
 478              	.LFB115:
 479              		.loc 10 141 0
 480              		.cfi_startproc
 481              		@ args = 0, pretend = 0, frame = 8
 482              		@ frame_needed = 0, uses_anonymous_args = 0
 483 0000 00B5     		push	{lr}
 484              		.cfi_def_cfa_offset 4
 485              		.cfi_offset 14, -4
 486 0002 83B0     		sub	sp, sp, #12
 487              		.cfi_def_cfa_offset 16
 488 0004 0190     		str	r0, [sp, #4]
 489              		.loc 10 143 0
 490 0006 019B     		ldr	r3, [sp, #4]
 491 0008 1800     		movs	r0, r3
 492 000a FFF7FEFF 		bl	chSemWait
 493 000e 0300     		movs	r3, r0
 494              		.loc 10 144 0
 495 0010 1800     		movs	r0, r3
 496 0012 03B0     		add	sp, sp, #12
 497              		@ sp needed
 498 0014 00BD     		pop	{pc}
 499              		.cfi_endproc
 500              	.LFE115:
 501              		.size	chBSemWait, .-chBSemWait
 502 0016 C046     		.section	.text.chBSemReset,"ax",%progbits
 503              		.align	1
 504              		.p2align 4,,15
 505              		.syntax unified
 506              		.code	16
 507              		.thumb_func
 508              		.fpu softvfp
 509              		.type	chBSemReset, %function
 510              	chBSemReset:
 511              	.LFB120:
 512              		.loc 10 253 0
 513              		.cfi_startproc
ARM GAS  /tmp/cc0aws4r.s 			page 10


 514              		@ args = 0, pretend = 0, frame = 8
 515              		@ frame_needed = 0, uses_anonymous_args = 0
 516 0000 00B5     		push	{lr}
 517              		.cfi_def_cfa_offset 4
 518              		.cfi_offset 14, -4
 519 0002 83B0     		sub	sp, sp, #12
 520              		.cfi_def_cfa_offset 16
 521 0004 0190     		str	r0, [sp, #4]
 522 0006 0A00     		movs	r2, r1
 523 0008 6B46     		mov	r3, sp
 524 000a 0333     		adds	r3, r3, #3
 525 000c 1A70     		strb	r2, [r3]
 526              		.loc 10 255 0
 527 000e 0198     		ldr	r0, [sp, #4]
 528 0010 6B46     		mov	r3, sp
 529 0012 0333     		adds	r3, r3, #3
 530 0014 1B78     		ldrb	r3, [r3]
 531 0016 0122     		movs	r2, #1
 532 0018 5340     		eors	r3, r2
 533 001a DBB2     		uxtb	r3, r3
 534 001c 1900     		movs	r1, r3
 535 001e FFF7FEFF 		bl	chSemReset
 536              		.loc 10 256 0
 537 0022 C046     		nop
 538 0024 03B0     		add	sp, sp, #12
 539              		@ sp needed
 540 0026 00BD     		pop	{pc}
 541              		.cfi_endproc
 542              	.LFE120:
 543              		.size	chBSemReset, .-chBSemReset
 544              		.section	.text.chBSemSignalI,"ax",%progbits
 545              		.align	1
 546              		.p2align 4,,15
 547              		.syntax unified
 548              		.code	16
 549              		.thumb_func
 550              		.fpu softvfp
 551              		.type	chBSemSignalI, %function
 552              	chBSemSignalI:
 553              	.LFB121:
 554              		.loc 10 266 0
 555              		.cfi_startproc
 556              		@ args = 0, pretend = 0, frame = 8
 557              		@ frame_needed = 0, uses_anonymous_args = 0
 558 0000 00B5     		push	{lr}
 559              		.cfi_def_cfa_offset 4
 560              		.cfi_offset 14, -4
 561 0002 83B0     		sub	sp, sp, #12
 562              		.cfi_def_cfa_offset 16
 563 0004 0190     		str	r0, [sp, #4]
 564              		.loc 10 268 0
 565 0006 FFF7FEFF 		bl	chDbgCheckClassI
 566              		.loc 10 270 0
 567 000a 019B     		ldr	r3, [sp, #4]
 568 000c 9B68     		ldr	r3, [r3, #8]
 569 000e 002B     		cmp	r3, #0
 570 0010 03DC     		bgt	.L34
ARM GAS  /tmp/cc0aws4r.s 			page 11


 571              		.loc 10 271 0
 572 0012 019B     		ldr	r3, [sp, #4]
 573 0014 1800     		movs	r0, r3
 574 0016 FFF7FEFF 		bl	chSemSignalI
 575              	.L34:
 576              		.loc 10 273 0
 577 001a C046     		nop
 578 001c 03B0     		add	sp, sp, #12
 579              		@ sp needed
 580 001e 00BD     		pop	{pc}
 581              		.cfi_endproc
 582              	.LFE121:
 583              		.size	chBSemSignalI, .-chBSemSignalI
 584              		.section	.text.chBSemSignal,"ax",%progbits
 585              		.align	1
 586              		.p2align 4,,15
 587              		.syntax unified
 588              		.code	16
 589              		.thumb_func
 590              		.fpu softvfp
 591              		.type	chBSemSignal, %function
 592              	chBSemSignal:
 593              	.LFB122:
 594              		.loc 10 282 0
 595              		.cfi_startproc
 596              		@ args = 0, pretend = 0, frame = 8
 597              		@ frame_needed = 0, uses_anonymous_args = 0
 598 0000 00B5     		push	{lr}
 599              		.cfi_def_cfa_offset 4
 600              		.cfi_offset 14, -4
 601 0002 83B0     		sub	sp, sp, #12
 602              		.cfi_def_cfa_offset 16
 603 0004 0190     		str	r0, [sp, #4]
 604              		.loc 10 284 0
 605 0006 FFF7FEFF 		bl	chSysLock
 606              		.loc 10 285 0
 607 000a 019B     		ldr	r3, [sp, #4]
 608 000c 1800     		movs	r0, r3
 609 000e FFF7FEFF 		bl	chBSemSignalI
 610              		.loc 10 286 0
 611 0012 FFF7FEFF 		bl	chSchRescheduleS
 612              		.loc 10 287 0
 613 0016 FFF7FEFF 		bl	chSysUnlock
 614              		.loc 10 288 0
 615 001a C046     		nop
 616 001c 03B0     		add	sp, sp, #12
 617              		@ sp needed
 618 001e 00BD     		pop	{pc}
 619              		.cfi_endproc
 620              	.LFE122:
 621              		.size	chBSemSignal, .-chBSemSignal
 622              		.section	.text.chBSemGetStateI,"ax",%progbits
 623              		.align	1
 624              		.p2align 4,,15
 625              		.syntax unified
 626              		.code	16
 627              		.thumb_func
ARM GAS  /tmp/cc0aws4r.s 			page 12


 628              		.fpu softvfp
 629              		.type	chBSemGetStateI, %function
 630              	chBSemGetStateI:
 631              	.LFB123:
 632              		.loc 10 300 0
 633              		.cfi_startproc
 634              		@ args = 0, pretend = 0, frame = 8
 635              		@ frame_needed = 0, uses_anonymous_args = 0
 636 0000 00B5     		push	{lr}
 637              		.cfi_def_cfa_offset 4
 638              		.cfi_offset 14, -4
 639 0002 83B0     		sub	sp, sp, #12
 640              		.cfi_def_cfa_offset 16
 641 0004 0190     		str	r0, [sp, #4]
 642              		.loc 10 302 0
 643 0006 FFF7FEFF 		bl	chDbgCheckClassI
 644              		.loc 10 304 0
 645 000a 019B     		ldr	r3, [sp, #4]
 646 000c 9B68     		ldr	r3, [r3, #8]
 647 000e 5A1E     		subs	r2, r3, #1
 648 0010 1343     		orrs	r3, r2
 649 0012 DB0F     		lsrs	r3, r3, #31
 650 0014 DBB2     		uxtb	r3, r3
 651              		.loc 10 305 0
 652 0016 1800     		movs	r0, r3
 653 0018 03B0     		add	sp, sp, #12
 654              		@ sp needed
 655 001a 00BD     		pop	{pc}
 656              		.cfi_endproc
 657              	.LFE123:
 658              		.size	chBSemGetStateI, .-chBSemGetStateI
 659              		.section	.data.sem1,"aw",%progbits
 660              		.align	2
 661              		.type	sem1, %object
 662              		.size	sem1, 12
 663              	sem1:
 664 0000 00000000 		.word	sem1
 665 0004 00000000 		.word	sem1
 666 0008 00000000 		.word	0
 667              		.section	.text.sem1_setup,"ax",%progbits
 668              		.align	1
 669              		.p2align 4,,15
 670              		.syntax unified
 671              		.code	16
 672              		.thumb_func
 673              		.fpu softvfp
 674              		.type	sem1_setup, %function
 675              	sem1_setup:
 676              	.LFB152:
 677              		.file 11 "ChibiOS/test/rt/testsem.c"
 678              		.loc 11 72 0
 679              		.cfi_startproc
 680              		@ args = 0, pretend = 0, frame = 0
 681              		@ frame_needed = 0, uses_anonymous_args = 0
 682 0000 10B5     		push	{r4, lr}
 683              		.cfi_def_cfa_offset 8
 684              		.cfi_offset 4, -8
ARM GAS  /tmp/cc0aws4r.s 			page 13


 685              		.cfi_offset 14, -4
 686              		.loc 11 74 0
 687 0002 034B     		ldr	r3, .L39
 688 0004 0021     		movs	r1, #0
 689 0006 1800     		movs	r0, r3
 690 0008 FFF7FEFF 		bl	chSemObjectInit
 691              		.loc 11 75 0
 692 000c C046     		nop
 693              		@ sp needed
 694 000e 10BD     		pop	{r4, pc}
 695              	.L40:
 696              		.align	2
 697              	.L39:
 698 0010 00000000 		.word	sem1
 699              		.cfi_endproc
 700              	.LFE152:
 701              		.size	sem1_setup, .-sem1_setup
 702              		.section	.text.thread1,"ax",%progbits
 703              		.align	1
 704              		.p2align 4,,15
 705              		.syntax unified
 706              		.code	16
 707              		.thumb_func
 708              		.fpu softvfp
 709              		.type	thread1, %function
 710              	thread1:
 711              	.LFB153:
 712              		.loc 11 77 0
 713              		.cfi_startproc
 714              		@ args = 0, pretend = 0, frame = 8
 715              		@ frame_needed = 0, uses_anonymous_args = 0
 716 0000 00B5     		push	{lr}
 717              		.cfi_def_cfa_offset 4
 718              		.cfi_offset 14, -4
 719 0002 83B0     		sub	sp, sp, #12
 720              		.cfi_def_cfa_offset 16
 721 0004 0190     		str	r0, [sp, #4]
 722              		.loc 11 79 0
 723 0006 064B     		ldr	r3, .L42
 724 0008 1800     		movs	r0, r3
 725 000a FFF7FEFF 		bl	chSemWait
 726              		.loc 11 80 0
 727 000e 019B     		ldr	r3, [sp, #4]
 728 0010 1B78     		ldrb	r3, [r3]
 729 0012 1800     		movs	r0, r3
 730 0014 FFF7FEFF 		bl	test_emit_token
 731              		.loc 11 81 0
 732 0018 C046     		nop
 733 001a 03B0     		add	sp, sp, #12
 734              		@ sp needed
 735 001c 00BD     		pop	{pc}
 736              	.L43:
 737 001e C046     		.align	2
 738              	.L42:
 739 0020 00000000 		.word	sem1
 740              		.cfi_endproc
 741              	.LFE153:
ARM GAS  /tmp/cc0aws4r.s 			page 14


 742              		.size	thread1, .-thread1
 743              		.section	.rodata
 744              		.align	2
 745              	.LC7:
 746 0000 4100     		.ascii	"A\000"
 747 0002 0000     		.align	2
 748              	.LC10:
 749 0004 4200     		.ascii	"B\000"
 750 0006 0000     		.align	2
 751              	.LC12:
 752 0008 4300     		.ascii	"C\000"
 753 000a 0000     		.align	2
 754              	.LC14:
 755 000c 4400     		.ascii	"D\000"
 756 000e 0000     		.align	2
 757              	.LC16:
 758 0010 4500     		.ascii	"E\000"
 759 0012 0000     		.align	2
 760              	.LC19:
 761 0014 41424344 		.ascii	"ABCDE\000"
 761      4500
 762              		.section	.text.sem1_execute,"ax",%progbits
 763              		.align	1
 764              		.p2align 4,,15
 765              		.syntax unified
 766              		.code	16
 767              		.thumb_func
 768              		.fpu softvfp
 769              		.type	sem1_execute, %function
 770              	sem1_execute:
 771              	.LFB154:
 772              		.loc 11 83 0
 773              		.cfi_startproc
 774              		@ args = 0, pretend = 0, frame = 0
 775              		@ frame_needed = 0, uses_anonymous_args = 0
 776 0000 10B5     		push	{r4, lr}
 777              		.cfi_def_cfa_offset 8
 778              		.cfi_offset 4, -8
 779              		.cfi_offset 14, -4
 780 0002 82B0     		sub	sp, sp, #8
 781              		.cfi_def_cfa_offset 16
 782              		.loc 11 85 0
 783 0004 574B     		ldr	r3, .L49
 784 0006 1C68     		ldr	r4, [r3]
 785 0008 FFF7FEFF 		bl	chThdGetPriorityX
 786 000c 0300     		movs	r3, r0
 787 000e 5A1D     		adds	r2, r3, #5
 788 0010 5548     		ldr	r0, .L49+4
 789 0012 A823     		movs	r3, #168
 790 0014 5900     		lsls	r1, r3, #1
 791 0016 554B     		ldr	r3, .L49+8
 792 0018 0093     		str	r3, [sp]
 793 001a 0300     		movs	r3, r0
 794 001c 2000     		movs	r0, r4
 795 001e FFF7FEFF 		bl	chThdCreateStatic
 796 0022 0200     		movs	r2, r0
 797 0024 524B     		ldr	r3, .L49+12
ARM GAS  /tmp/cc0aws4r.s 			page 15


 798 0026 1A60     		str	r2, [r3]
 799              		.loc 11 86 0
 800 0028 4E4B     		ldr	r3, .L49
 801 002a 5C68     		ldr	r4, [r3, #4]
 802 002c FFF7FEFF 		bl	chThdGetPriorityX
 803 0030 0300     		movs	r3, r0
 804 0032 5A1C     		adds	r2, r3, #1
 805 0034 4C48     		ldr	r0, .L49+4
 806 0036 A823     		movs	r3, #168
 807 0038 5900     		lsls	r1, r3, #1
 808 003a 4E4B     		ldr	r3, .L49+16
 809 003c 0093     		str	r3, [sp]
 810 003e 0300     		movs	r3, r0
 811 0040 2000     		movs	r0, r4
 812 0042 FFF7FEFF 		bl	chThdCreateStatic
 813 0046 0200     		movs	r2, r0
 814 0048 494B     		ldr	r3, .L49+12
 815 004a 5A60     		str	r2, [r3, #4]
 816              		.loc 11 87 0
 817 004c 454B     		ldr	r3, .L49
 818 004e 9C68     		ldr	r4, [r3, #8]
 819 0050 FFF7FEFF 		bl	chThdGetPriorityX
 820 0054 0300     		movs	r3, r0
 821 0056 DA1C     		adds	r2, r3, #3
 822 0058 4348     		ldr	r0, .L49+4
 823 005a A823     		movs	r3, #168
 824 005c 5900     		lsls	r1, r3, #1
 825 005e 464B     		ldr	r3, .L49+20
 826 0060 0093     		str	r3, [sp]
 827 0062 0300     		movs	r3, r0
 828 0064 2000     		movs	r0, r4
 829 0066 FFF7FEFF 		bl	chThdCreateStatic
 830 006a 0200     		movs	r2, r0
 831 006c 404B     		ldr	r3, .L49+12
 832 006e 9A60     		str	r2, [r3, #8]
 833              		.loc 11 88 0
 834 0070 3C4B     		ldr	r3, .L49
 835 0072 DC68     		ldr	r4, [r3, #12]
 836 0074 FFF7FEFF 		bl	chThdGetPriorityX
 837 0078 0300     		movs	r3, r0
 838 007a 1A1D     		adds	r2, r3, #4
 839 007c 3A48     		ldr	r0, .L49+4
 840 007e A823     		movs	r3, #168
 841 0080 5900     		lsls	r1, r3, #1
 842 0082 3E4B     		ldr	r3, .L49+24
 843 0084 0093     		str	r3, [sp]
 844 0086 0300     		movs	r3, r0
 845 0088 2000     		movs	r0, r4
 846 008a FFF7FEFF 		bl	chThdCreateStatic
 847 008e 0200     		movs	r2, r0
 848 0090 374B     		ldr	r3, .L49+12
 849 0092 DA60     		str	r2, [r3, #12]
 850              		.loc 11 89 0
 851 0094 334B     		ldr	r3, .L49
 852 0096 1C69     		ldr	r4, [r3, #16]
 853 0098 FFF7FEFF 		bl	chThdGetPriorityX
 854 009c 0300     		movs	r3, r0
ARM GAS  /tmp/cc0aws4r.s 			page 16


 855 009e 9A1C     		adds	r2, r3, #2
 856 00a0 3148     		ldr	r0, .L49+4
 857 00a2 A823     		movs	r3, #168
 858 00a4 5900     		lsls	r1, r3, #1
 859 00a6 364B     		ldr	r3, .L49+28
 860 00a8 0093     		str	r3, [sp]
 861 00aa 0300     		movs	r3, r0
 862 00ac 2000     		movs	r0, r4
 863 00ae FFF7FEFF 		bl	chThdCreateStatic
 864 00b2 0200     		movs	r2, r0
 865 00b4 2E4B     		ldr	r3, .L49+12
 866 00b6 1A61     		str	r2, [r3, #16]
 867              		.loc 11 90 0
 868 00b8 324B     		ldr	r3, .L49+32
 869 00ba 1800     		movs	r0, r3
 870 00bc FFF7FEFF 		bl	chSemSignal
 871              		.loc 11 91 0
 872 00c0 304B     		ldr	r3, .L49+32
 873 00c2 1800     		movs	r0, r3
 874 00c4 FFF7FEFF 		bl	chSemSignal
 875              		.loc 11 92 0
 876 00c8 2E4B     		ldr	r3, .L49+32
 877 00ca 1800     		movs	r0, r3
 878 00cc FFF7FEFF 		bl	chSemSignal
 879              		.loc 11 93 0
 880 00d0 2C4B     		ldr	r3, .L49+32
 881 00d2 1800     		movs	r0, r3
 882 00d4 FFF7FEFF 		bl	chSemSignal
 883              		.loc 11 94 0
 884 00d8 2A4B     		ldr	r3, .L49+32
 885 00da 1800     		movs	r0, r3
 886 00dc FFF7FEFF 		bl	chSemSignal
 887              		.loc 11 95 0
 888 00e0 FFF7FEFF 		bl	test_wait_threads
 889              		.loc 11 99 0
 890 00e4 284B     		ldr	r3, .L49+36
 891 00e6 1900     		movs	r1, r3
 892 00e8 0120     		movs	r0, #1
 893 00ea FFF7FEFF 		bl	_test_assert_sequence
 894 00ee 031E     		subs	r3, r0, #0
 895 00f0 35D1     		bne	.L48
 896              		.loc 11 101 0
 897 00f2 1C4B     		ldr	r3, .L49
 898 00f4 1C68     		ldr	r4, [r3]
 899 00f6 FFF7FEFF 		bl	chThdGetPriorityX
 900 00fa 0300     		movs	r3, r0
 901 00fc 5A1D     		adds	r2, r3, #5
 902 00fe 1A48     		ldr	r0, .L49+4
 903 0100 A823     		movs	r3, #168
 904 0102 5900     		lsls	r1, r3, #1
 905 0104 194B     		ldr	r3, .L49+8
 906 0106 0093     		str	r3, [sp]
 907 0108 0300     		movs	r3, r0
 908 010a 2000     		movs	r0, r4
 909 010c FFF7FEFF 		bl	chThdCreateStatic
 910 0110 0200     		movs	r2, r0
 911 0112 174B     		ldr	r3, .L49+12
ARM GAS  /tmp/cc0aws4r.s 			page 17


 912 0114 1A60     		str	r2, [r3]
 913              		.loc 11 102 0
 914 0116 FFF7FEFF 		bl	chSysLock
 915              		.loc 11 103 0
 916 011a 1A4B     		ldr	r3, .L49+32
 917 011c 0221     		movs	r1, #2
 918 011e 1800     		movs	r0, r3
 919 0120 FFF7FEFF 		bl	chSemAddCounterI
 920              		.loc 11 104 0
 921 0124 FFF7FEFF 		bl	chSchRescheduleS
 922              		.loc 11 105 0
 923 0128 FFF7FEFF 		bl	chSysUnlock
 924              		.loc 11 106 0
 925 012c FFF7FEFF 		bl	test_wait_threads
 926              		.loc 11 107 0
 927 0130 FFF7FEFF 		bl	chSysLock
 928 0134 134B     		ldr	r3, .L49+32
 929 0136 1800     		movs	r0, r3
 930 0138 FFF7FEFF 		bl	chSemGetCounterI
 931 013c 0300     		movs	r3, r0
 932 013e 013B     		subs	r3, r3, #1
 933 0140 5A42     		rsbs	r2, r3, #0
 934 0142 5341     		adcs	r3, r3, r2
 935 0144 DBB2     		uxtb	r3, r3
 936 0146 1900     		movs	r1, r3
 937 0148 0220     		movs	r0, #2
 938 014a FFF7FEFF 		bl	_test_assert
 939 014e 031E     		subs	r3, r0, #0
 940 0150 02D0     		beq	.L47
 941              		.loc 11 107 0 is_stmt 0 discriminator 1
 942 0152 FFF7FEFF 		bl	chSysUnlock
 943 0156 03E0     		b	.L44
 944              	.L47:
 945              		.loc 11 107 0 discriminator 2
 946 0158 FFF7FEFF 		bl	chSysUnlock
 947 015c 00E0     		b	.L44
 948              	.L48:
 949              		.loc 11 99 0 is_stmt 1
 950 015e C046     		nop
 951              	.L44:
 952              		.loc 11 108 0
 953 0160 02B0     		add	sp, sp, #8
 954              		@ sp needed
 955 0162 10BD     		pop	{r4, pc}
 956              	.L50:
 957              		.align	2
 958              	.L49:
 959 0164 00000000 		.word	wa
 960 0168 00000000 		.word	thread1
 961 016c 00000000 		.word	.LC7
 962 0170 00000000 		.word	threads
 963 0174 04000000 		.word	.LC10
 964 0178 08000000 		.word	.LC12
 965 017c 0C000000 		.word	.LC14
 966 0180 10000000 		.word	.LC16
 967 0184 00000000 		.word	sem1
 968 0188 14000000 		.word	.LC19
ARM GAS  /tmp/cc0aws4r.s 			page 18


 969              		.cfi_endproc
 970              	.LFE154:
 971              		.size	sem1_execute, .-sem1_execute
 972              		.global	testsem1
 973              		.section	.rodata
 974 001a 0000     		.align	2
 975              	.LC21:
 976 001c 53656D61 		.ascii	"Semaphores, enqueuing\000"
 976      70686F72 
 976      65732C20 
 976      656E7175 
 976      6575696E 
 977              		.section	.rodata.testsem1,"a",%progbits
 978              		.align	2
 979              		.type	testsem1, %object
 980              		.size	testsem1, 16
 981              	testsem1:
 982 0000 1C000000 		.word	.LC21
 983 0004 00000000 		.word	sem1_setup
 984 0008 00000000 		.word	0
 985 000c 00000000 		.word	sem1_execute
 986              		.section	.text.sem2_setup,"ax",%progbits
 987              		.align	1
 988              		.p2align 4,,15
 989              		.syntax unified
 990              		.code	16
 991              		.thumb_func
 992              		.fpu softvfp
 993              		.type	sem2_setup, %function
 994              	sem2_setup:
 995              	.LFB155:
 996              		.loc 11 128 0
 997              		.cfi_startproc
 998              		@ args = 0, pretend = 0, frame = 0
 999              		@ frame_needed = 0, uses_anonymous_args = 0
 1000 0000 10B5     		push	{r4, lr}
 1001              		.cfi_def_cfa_offset 8
 1002              		.cfi_offset 4, -8
 1003              		.cfi_offset 14, -4
 1004              		.loc 11 130 0
 1005 0002 034B     		ldr	r3, .L52
 1006 0004 0021     		movs	r1, #0
 1007 0006 1800     		movs	r0, r3
 1008 0008 FFF7FEFF 		bl	chSemObjectInit
 1009              		.loc 11 131 0
 1010 000c C046     		nop
 1011              		@ sp needed
 1012 000e 10BD     		pop	{r4, pc}
 1013              	.L53:
 1014              		.align	2
 1015              	.L52:
 1016 0010 00000000 		.word	sem1
 1017              		.cfi_endproc
 1018              	.LFE155:
 1019              		.size	sem2_setup, .-sem2_setup
 1020              		.section	.text.thread2,"ax",%progbits
 1021              		.align	1
ARM GAS  /tmp/cc0aws4r.s 			page 19


 1022              		.p2align 4,,15
 1023              		.syntax unified
 1024              		.code	16
 1025              		.thumb_func
 1026              		.fpu softvfp
 1027              		.type	thread2, %function
 1028              	thread2:
 1029              	.LFB156:
 1030              		.loc 11 133 0
 1031              		.cfi_startproc
 1032              		@ args = 0, pretend = 0, frame = 8
 1033              		@ frame_needed = 0, uses_anonymous_args = 0
 1034 0000 00B5     		push	{lr}
 1035              		.cfi_def_cfa_offset 4
 1036              		.cfi_offset 14, -4
 1037 0002 83B0     		sub	sp, sp, #12
 1038              		.cfi_def_cfa_offset 16
 1039 0004 0190     		str	r0, [sp, #4]
 1040              		.loc 11 136 0
 1041 0006 FA23     		movs	r3, #250
 1042 0008 5B00     		lsls	r3, r3, #1
 1043 000a 1800     		movs	r0, r3
 1044 000c FFF7FEFF 		bl	chThdSleep
 1045              		.loc 11 137 0
 1046 0010 FFF7FEFF 		bl	chSysLock
 1047              		.loc 11 138 0
 1048 0014 054B     		ldr	r3, .L55
 1049 0016 1800     		movs	r0, r3
 1050 0018 FFF7FEFF 		bl	chSemSignalI
 1051              		.loc 11 139 0
 1052 001c FFF7FEFF 		bl	chSchRescheduleS
 1053              		.loc 11 140 0
 1054 0020 FFF7FEFF 		bl	chSysUnlock
 1055              		.loc 11 141 0
 1056 0024 C046     		nop
 1057 0026 03B0     		add	sp, sp, #12
 1058              		@ sp needed
 1059 0028 00BD     		pop	{pc}
 1060              	.L56:
 1061 002a C046     		.align	2
 1062              	.L55:
 1063 002c 00000000 		.word	sem1
 1064              		.cfi_endproc
 1065              	.LFE156:
 1066              		.size	thread2, .-thread2
 1067              		.section	.text.sem2_execute,"ax",%progbits
 1068              		.align	1
 1069              		.p2align 4,,15
 1070              		.syntax unified
 1071              		.code	16
 1072              		.thumb_func
 1073              		.fpu softvfp
 1074              		.type	sem2_execute, %function
 1075              	sem2_execute:
 1076              	.LFB157:
 1077              		.loc 11 143 0
 1078              		.cfi_startproc
ARM GAS  /tmp/cc0aws4r.s 			page 20


 1079              		@ args = 0, pretend = 0, frame = 16
 1080              		@ frame_needed = 0, uses_anonymous_args = 0
 1081 0000 10B5     		push	{r4, lr}
 1082              		.cfi_def_cfa_offset 8
 1083              		.cfi_offset 4, -8
 1084              		.cfi_offset 14, -4
 1085 0002 86B0     		sub	sp, sp, #24
 1086              		.cfi_def_cfa_offset 32
 1087              		.loc 11 151 0
 1088 0004 6B4B     		ldr	r3, .L81
 1089 0006 0021     		movs	r1, #0
 1090 0008 1800     		movs	r0, r3
 1091 000a FFF7FEFF 		bl	chSemWaitTimeout
 1092 000e 0300     		movs	r3, r0
 1093 0010 0493     		str	r3, [sp, #16]
 1094              		.loc 11 152 0
 1095 0012 049B     		ldr	r3, [sp, #16]
 1096 0014 0133     		adds	r3, r3, #1
 1097 0016 5A42     		rsbs	r2, r3, #0
 1098 0018 5341     		adcs	r3, r3, r2
 1099 001a DBB2     		uxtb	r3, r3
 1100 001c 1900     		movs	r1, r3
 1101 001e 0120     		movs	r0, #1
 1102 0020 FFF7FEFF 		bl	_test_assert
 1103 0024 031E     		subs	r3, r0, #0
 1104 0026 00D0     		beq	.LCB745
 1105 0028 AFE0     		b	.L71	@long jump
 1106              	.LCB745:
 1107              		.loc 11 153 0
 1108 002a 624B     		ldr	r3, .L81
 1109 002c 1800     		movs	r0, r3
 1110 002e FFF7FEFF 		bl	queue_isempty
 1111 0032 0300     		movs	r3, r0
 1112 0034 1900     		movs	r1, r3
 1113 0036 0220     		movs	r0, #2
 1114 0038 FFF7FEFF 		bl	_test_assert
 1115 003c 031E     		subs	r3, r0, #0
 1116 003e 00D0     		beq	.LCB755
 1117 0040 A5E0     		b	.L72	@long jump
 1118              	.LCB755:
 1119              		.loc 11 154 0
 1120 0042 5C4B     		ldr	r3, .L81
 1121 0044 9B68     		ldr	r3, [r3, #8]
 1122 0046 5A42     		rsbs	r2, r3, #0
 1123 0048 5341     		adcs	r3, r3, r2
 1124 004a DBB2     		uxtb	r3, r3
 1125 004c 1900     		movs	r1, r3
 1126 004e 0320     		movs	r0, #3
 1127 0050 FFF7FEFF 		bl	_test_assert
 1128 0054 031E     		subs	r3, r0, #0
 1129 0056 00D0     		beq	.LCB765
 1130 0058 9BE0     		b	.L73	@long jump
 1131              	.LCB765:
 1132              		.loc 11 159 0
 1133 005a 574B     		ldr	r3, .L81+4
 1134 005c 1C68     		ldr	r4, [r3]
 1135 005e FFF7FEFF 		bl	chThdGetPriorityX
ARM GAS  /tmp/cc0aws4r.s 			page 21


 1136 0062 0300     		movs	r3, r0
 1137 0064 5A1E     		subs	r2, r3, #1
 1138 0066 5548     		ldr	r0, .L81+8
 1139 0068 A823     		movs	r3, #168
 1140 006a 5900     		lsls	r1, r3, #1
 1141 006c 0023     		movs	r3, #0
 1142 006e 0093     		str	r3, [sp]
 1143 0070 0300     		movs	r3, r0
 1144 0072 2000     		movs	r0, r4
 1145 0074 FFF7FEFF 		bl	chThdCreateStatic
 1146 0078 0200     		movs	r2, r0
 1147 007a 514B     		ldr	r3, .L81+12
 1148 007c 1A60     		str	r2, [r3]
 1149              		.loc 11 161 0
 1150 007e 514A     		ldr	r2, .L81+16
 1151 0080 4C4B     		ldr	r3, .L81
 1152 0082 1100     		movs	r1, r2
 1153 0084 1800     		movs	r0, r3
 1154 0086 FFF7FEFF 		bl	chSemWaitTimeout
 1155 008a 0300     		movs	r3, r0
 1156 008c 0493     		str	r3, [sp, #16]
 1157              		.loc 11 162 0
 1158 008e FFF7FEFF 		bl	test_wait_threads
 1159              		.loc 11 163 0
 1160 0092 049B     		ldr	r3, [sp, #16]
 1161 0094 5A42     		rsbs	r2, r3, #0
 1162 0096 5341     		adcs	r3, r3, r2
 1163 0098 DBB2     		uxtb	r3, r3
 1164 009a 1900     		movs	r1, r3
 1165 009c 0420     		movs	r0, #4
 1166 009e FFF7FEFF 		bl	_test_assert
 1167 00a2 031E     		subs	r3, r0, #0
 1168 00a4 00D0     		beq	.LCB798
 1169 00a6 76E0     		b	.L74	@long jump
 1170              	.LCB798:
 1171              		.loc 11 164 0
 1172 00a8 424B     		ldr	r3, .L81
 1173 00aa 1800     		movs	r0, r3
 1174 00ac FFF7FEFF 		bl	queue_isempty
 1175 00b0 0300     		movs	r3, r0
 1176 00b2 1900     		movs	r1, r3
 1177 00b4 0520     		movs	r0, #5
 1178 00b6 FFF7FEFF 		bl	_test_assert
 1179 00ba 031E     		subs	r3, r0, #0
 1180 00bc 00D0     		beq	.LCB808
 1181 00be 6CE0     		b	.L75	@long jump
 1182              	.LCB808:
 1183              		.loc 11 165 0
 1184 00c0 3C4B     		ldr	r3, .L81
 1185 00c2 9B68     		ldr	r3, [r3, #8]
 1186 00c4 5A42     		rsbs	r2, r3, #0
 1187 00c6 5341     		adcs	r3, r3, r2
 1188 00c8 DBB2     		uxtb	r3, r3
 1189 00ca 1900     		movs	r1, r3
 1190 00cc 0620     		movs	r0, #6
 1191 00ce FFF7FEFF 		bl	_test_assert
 1192 00d2 031E     		subs	r3, r0, #0
ARM GAS  /tmp/cc0aws4r.s 			page 22


 1193 00d4 63D1     		bne	.L76
 1194              		.loc 11 170 0
 1195 00d6 FFF7FEFF 		bl	test_wait_tick
 1196              		.loc 11 171 0
 1197 00da FFF7FEFF 		bl	chVTGetSystemTime
 1198 00de 0300     		movs	r3, r0
 1199 00e0 1A00     		movs	r2, r3
 1200 00e2 0E23     		movs	r3, #14
 1201 00e4 6B44     		add	r3, r3, sp
 1202 00e6 3849     		ldr	r1, .L81+20
 1203 00e8 8C46     		mov	ip, r1
 1204 00ea 6244     		add	r2, r2, ip
 1205 00ec 1A80     		strh	r2, [r3]
 1206              		.loc 11 172 0
 1207 00ee 0023     		movs	r3, #0
 1208 00f0 0593     		str	r3, [sp, #20]
 1209 00f2 33E0     		b	.L65
 1210              	.L69:
 1211              		.loc 11 173 0
 1212 00f4 059B     		ldr	r3, [sp, #20]
 1213 00f6 DBB2     		uxtb	r3, r3
 1214 00f8 4133     		adds	r3, r3, #65
 1215 00fa DBB2     		uxtb	r3, r3
 1216 00fc 1800     		movs	r0, r3
 1217 00fe FFF7FEFF 		bl	test_emit_token
 1218              		.loc 11 174 0
 1219 0102 FA23     		movs	r3, #250
 1220 0104 5A00     		lsls	r2, r3, #1
 1221 0106 2B4B     		ldr	r3, .L81
 1222 0108 1100     		movs	r1, r2
 1223 010a 1800     		movs	r0, r3
 1224 010c FFF7FEFF 		bl	chSemWaitTimeout
 1225 0110 0300     		movs	r3, r0
 1226 0112 0493     		str	r3, [sp, #16]
 1227              		.loc 11 175 0
 1228 0114 049B     		ldr	r3, [sp, #16]
 1229 0116 0133     		adds	r3, r3, #1
 1230 0118 5A42     		rsbs	r2, r3, #0
 1231 011a 5341     		adcs	r3, r3, r2
 1232 011c DBB2     		uxtb	r3, r3
 1233 011e 1900     		movs	r1, r3
 1234 0120 0720     		movs	r0, #7
 1235 0122 FFF7FEFF 		bl	_test_assert
 1236 0126 031E     		subs	r3, r0, #0
 1237 0128 3BD1     		bne	.L77
 1238              		.loc 11 176 0
 1239 012a 224B     		ldr	r3, .L81
 1240 012c 1800     		movs	r0, r3
 1241 012e FFF7FEFF 		bl	queue_isempty
 1242 0132 0300     		movs	r3, r0
 1243 0134 1900     		movs	r1, r3
 1244 0136 0820     		movs	r0, #8
 1245 0138 FFF7FEFF 		bl	_test_assert
 1246 013c 031E     		subs	r3, r0, #0
 1247 013e 32D1     		bne	.L78
 1248              		.loc 11 177 0
 1249 0140 1C4B     		ldr	r3, .L81
ARM GAS  /tmp/cc0aws4r.s 			page 23


 1250 0142 9B68     		ldr	r3, [r3, #8]
 1251 0144 5A42     		rsbs	r2, r3, #0
 1252 0146 5341     		adcs	r3, r3, r2
 1253 0148 DBB2     		uxtb	r3, r3
 1254 014a 1900     		movs	r1, r3
 1255 014c 0920     		movs	r0, #9
 1256 014e FFF7FEFF 		bl	_test_assert
 1257 0152 031E     		subs	r3, r0, #0
 1258 0154 29D1     		bne	.L79
 1259              		.loc 11 172 0 discriminator 2
 1260 0156 059B     		ldr	r3, [sp, #20]
 1261 0158 0133     		adds	r3, r3, #1
 1262 015a 0593     		str	r3, [sp, #20]
 1263              	.L65:
 1264              		.loc 11 172 0 is_stmt 0 discriminator 1
 1265 015c 059B     		ldr	r3, [sp, #20]
 1266 015e 042B     		cmp	r3, #4
 1267 0160 C8DD     		ble	.L69
 1268              		.loc 11 179 0 is_stmt 1
 1269 0162 1A4B     		ldr	r3, .L81+24
 1270 0164 1900     		movs	r1, r3
 1271 0166 0A20     		movs	r0, #10
 1272 0168 FFF7FEFF 		bl	_test_assert_sequence
 1273 016c 031E     		subs	r3, r0, #0
 1274 016e 1ED1     		bne	.L80
 1275              		.loc 11 180 0
 1276 0170 0E23     		movs	r3, #14
 1277 0172 6B44     		add	r3, r3, sp
 1278 0174 1B88     		ldrh	r3, [r3]
 1279 0176 1433     		adds	r3, r3, #20
 1280 0178 9AB2     		uxth	r2, r3
 1281 017a 0E23     		movs	r3, #14
 1282 017c 6B44     		add	r3, r3, sp
 1283 017e 1B88     		ldrh	r3, [r3]
 1284 0180 1900     		movs	r1, r3
 1285 0182 0B20     		movs	r0, #11
 1286 0184 FFF7FEFF 		bl	_test_assert_time_window
 1287 0188 12E0     		b	.L57
 1288              	.L71:
 1289              		.loc 11 152 0
 1290 018a C046     		nop
 1291 018c 10E0     		b	.L57
 1292              	.L72:
 1293              		.loc 11 153 0
 1294 018e C046     		nop
 1295 0190 0EE0     		b	.L57
 1296              	.L73:
 1297              		.loc 11 154 0
 1298 0192 C046     		nop
 1299 0194 0CE0     		b	.L57
 1300              	.L74:
 1301              		.loc 11 163 0
 1302 0196 C046     		nop
 1303 0198 0AE0     		b	.L57
 1304              	.L75:
 1305              		.loc 11 164 0
 1306 019a C046     		nop
ARM GAS  /tmp/cc0aws4r.s 			page 24


 1307 019c 08E0     		b	.L57
 1308              	.L76:
 1309              		.loc 11 165 0
 1310 019e C046     		nop
 1311 01a0 06E0     		b	.L57
 1312              	.L77:
 1313              		.loc 11 175 0
 1314 01a2 C046     		nop
 1315 01a4 04E0     		b	.L57
 1316              	.L78:
 1317              		.loc 11 176 0
 1318 01a6 C046     		nop
 1319 01a8 02E0     		b	.L57
 1320              	.L79:
 1321              		.loc 11 177 0
 1322 01aa C046     		nop
 1323 01ac 00E0     		b	.L57
 1324              	.L80:
 1325              		.loc 11 179 0
 1326 01ae C046     		nop
 1327              	.L57:
 1328              		.loc 11 181 0
 1329 01b0 06B0     		add	sp, sp, #24
 1330              		@ sp needed
 1331 01b2 10BD     		pop	{r4, pc}
 1332              	.L82:
 1333              		.align	2
 1334              	.L81:
 1335 01b4 00000000 		.word	sem1
 1336 01b8 00000000 		.word	wa
 1337 01bc 00000000 		.word	thread2
 1338 01c0 00000000 		.word	threads
 1339 01c4 88130000 		.word	5000
 1340 01c8 C4090000 		.word	2500
 1341 01cc 14000000 		.word	.LC19
 1342              		.cfi_endproc
 1343              	.LFE157:
 1344              		.size	sem2_execute, .-sem2_execute
 1345              		.global	testsem2
 1346              		.section	.rodata
 1347 0032 0000     		.align	2
 1348              	.LC29:
 1349 0034 53656D61 		.ascii	"Semaphores, timeout\000"
 1349      70686F72 
 1349      65732C20 
 1349      74696D65 
 1349      6F757400 
 1350              		.section	.rodata.testsem2,"a",%progbits
 1351              		.align	2
 1352              		.type	testsem2, %object
 1353              		.size	testsem2, 16
 1354              	testsem2:
 1355 0000 34000000 		.word	.LC29
 1356 0004 00000000 		.word	sem2_setup
 1357 0008 00000000 		.word	0
 1358 000c 00000000 		.word	sem2_execute
 1359              		.section	.text.sem3_setup,"ax",%progbits
ARM GAS  /tmp/cc0aws4r.s 			page 25


 1360              		.align	1
 1361              		.p2align 4,,15
 1362              		.syntax unified
 1363              		.code	16
 1364              		.thumb_func
 1365              		.fpu softvfp
 1366              		.type	sem3_setup, %function
 1367              	sem3_setup:
 1368              	.LFB158:
 1369              		.loc 11 202 0
 1370              		.cfi_startproc
 1371              		@ args = 0, pretend = 0, frame = 0
 1372              		@ frame_needed = 0, uses_anonymous_args = 0
 1373 0000 10B5     		push	{r4, lr}
 1374              		.cfi_def_cfa_offset 8
 1375              		.cfi_offset 4, -8
 1376              		.cfi_offset 14, -4
 1377              		.loc 11 204 0
 1378 0002 034B     		ldr	r3, .L84
 1379 0004 0021     		movs	r1, #0
 1380 0006 1800     		movs	r0, r3
 1381 0008 FFF7FEFF 		bl	chSemObjectInit
 1382              		.loc 11 205 0
 1383 000c C046     		nop
 1384              		@ sp needed
 1385 000e 10BD     		pop	{r4, pc}
 1386              	.L85:
 1387              		.align	2
 1388              	.L84:
 1389 0010 00000000 		.word	sem1
 1390              		.cfi_endproc
 1391              	.LFE158:
 1392              		.size	sem3_setup, .-sem3_setup
 1393              		.section	.text.thread3,"ax",%progbits
 1394              		.align	1
 1395              		.p2align 4,,15
 1396              		.syntax unified
 1397              		.code	16
 1398              		.thumb_func
 1399              		.fpu softvfp
 1400              		.type	thread3, %function
 1401              	thread3:
 1402              	.LFB159:
 1403              		.loc 11 207 0
 1404              		.cfi_startproc
 1405              		@ args = 0, pretend = 0, frame = 8
 1406              		@ frame_needed = 0, uses_anonymous_args = 0
 1407 0000 00B5     		push	{lr}
 1408              		.cfi_def_cfa_offset 4
 1409              		.cfi_offset 14, -4
 1410 0002 83B0     		sub	sp, sp, #12
 1411              		.cfi_def_cfa_offset 16
 1412 0004 0190     		str	r0, [sp, #4]
 1413              		.loc 11 210 0
 1414 0006 054B     		ldr	r3, .L87
 1415 0008 1800     		movs	r0, r3
 1416 000a FFF7FEFF 		bl	chSemWait
ARM GAS  /tmp/cc0aws4r.s 			page 26


 1417              		.loc 11 211 0
 1418 000e 034B     		ldr	r3, .L87
 1419 0010 1800     		movs	r0, r3
 1420 0012 FFF7FEFF 		bl	chSemSignal
 1421              		.loc 11 212 0
 1422 0016 C046     		nop
 1423 0018 03B0     		add	sp, sp, #12
 1424              		@ sp needed
 1425 001a 00BD     		pop	{pc}
 1426              	.L88:
 1427              		.align	2
 1428              	.L87:
 1429 001c 00000000 		.word	sem1
 1430              		.cfi_endproc
 1431              	.LFE159:
 1432              		.size	thread3, .-thread3
 1433              		.section	.text.sem3_execute,"ax",%progbits
 1434              		.align	1
 1435              		.p2align 4,,15
 1436              		.syntax unified
 1437              		.code	16
 1438              		.thumb_func
 1439              		.fpu softvfp
 1440              		.type	sem3_execute, %function
 1441              	sem3_execute:
 1442              	.LFB160:
 1443              		.loc 11 214 0
 1444              		.cfi_startproc
 1445              		@ args = 0, pretend = 0, frame = 0
 1446              		@ frame_needed = 0, uses_anonymous_args = 0
 1447 0000 10B5     		push	{r4, lr}
 1448              		.cfi_def_cfa_offset 8
 1449              		.cfi_offset 4, -8
 1450              		.cfi_offset 14, -4
 1451 0002 82B0     		sub	sp, sp, #8
 1452              		.cfi_def_cfa_offset 16
 1453              		.loc 11 216 0
 1454 0004 274B     		ldr	r3, .L97
 1455 0006 1C68     		ldr	r4, [r3]
 1456 0008 FFF7FEFF 		bl	chThdGetPriorityX
 1457 000c 0300     		movs	r3, r0
 1458 000e 5A1C     		adds	r2, r3, #1
 1459 0010 2548     		ldr	r0, .L97+4
 1460 0012 A823     		movs	r3, #168
 1461 0014 5900     		lsls	r1, r3, #1
 1462 0016 0023     		movs	r3, #0
 1463 0018 0093     		str	r3, [sp]
 1464 001a 0300     		movs	r3, r0
 1465 001c 2000     		movs	r0, r4
 1466 001e FFF7FEFF 		bl	chThdCreateStatic
 1467 0022 0200     		movs	r2, r0
 1468 0024 214B     		ldr	r3, .L97+8
 1469 0026 1A60     		str	r2, [r3]
 1470              		.loc 11 217 0
 1471 0028 214A     		ldr	r2, .L97+12
 1472 002a 214B     		ldr	r3, .L97+12
 1473 002c 1100     		movs	r1, r2
ARM GAS  /tmp/cc0aws4r.s 			page 27


 1474 002e 1800     		movs	r0, r3
 1475 0030 FFF7FEFF 		bl	chSemSignalWait
 1476              		.loc 11 218 0
 1477 0034 1E4B     		ldr	r3, .L97+12
 1478 0036 1800     		movs	r0, r3
 1479 0038 FFF7FEFF 		bl	queue_isempty
 1480 003c 0300     		movs	r3, r0
 1481 003e 1900     		movs	r1, r3
 1482 0040 0120     		movs	r0, #1
 1483 0042 FFF7FEFF 		bl	_test_assert
 1484 0046 031E     		subs	r3, r0, #0
 1485 0048 25D1     		bne	.L94
 1486              		.loc 11 219 0
 1487 004a 194B     		ldr	r3, .L97+12
 1488 004c 9B68     		ldr	r3, [r3, #8]
 1489 004e 5A42     		rsbs	r2, r3, #0
 1490 0050 5341     		adcs	r3, r3, r2
 1491 0052 DBB2     		uxtb	r3, r3
 1492 0054 1900     		movs	r1, r3
 1493 0056 0220     		movs	r0, #2
 1494 0058 FFF7FEFF 		bl	_test_assert
 1495 005c 031E     		subs	r3, r0, #0
 1496 005e 1CD1     		bne	.L95
 1497              		.loc 11 221 0
 1498 0060 134A     		ldr	r2, .L97+12
 1499 0062 134B     		ldr	r3, .L97+12
 1500 0064 1100     		movs	r1, r2
 1501 0066 1800     		movs	r0, r3
 1502 0068 FFF7FEFF 		bl	chSemSignalWait
 1503              		.loc 11 222 0
 1504 006c 104B     		ldr	r3, .L97+12
 1505 006e 1800     		movs	r0, r3
 1506 0070 FFF7FEFF 		bl	queue_isempty
 1507 0074 0300     		movs	r3, r0
 1508 0076 1900     		movs	r1, r3
 1509 0078 0320     		movs	r0, #3
 1510 007a FFF7FEFF 		bl	_test_assert
 1511 007e 031E     		subs	r3, r0, #0
 1512 0080 0DD1     		bne	.L96
 1513              		.loc 11 223 0
 1514 0082 0B4B     		ldr	r3, .L97+12
 1515 0084 9B68     		ldr	r3, [r3, #8]
 1516 0086 5A42     		rsbs	r2, r3, #0
 1517 0088 5341     		adcs	r3, r3, r2
 1518 008a DBB2     		uxtb	r3, r3
 1519 008c 1900     		movs	r1, r3
 1520 008e 0420     		movs	r0, #4
 1521 0090 FFF7FEFF 		bl	_test_assert
 1522 0094 04E0     		b	.L89
 1523              	.L94:
 1524              		.loc 11 218 0
 1525 0096 C046     		nop
 1526 0098 02E0     		b	.L89
 1527              	.L95:
 1528              		.loc 11 219 0
 1529 009a C046     		nop
 1530 009c 00E0     		b	.L89
ARM GAS  /tmp/cc0aws4r.s 			page 28


 1531              	.L96:
 1532              		.loc 11 222 0
 1533 009e C046     		nop
 1534              	.L89:
 1535              		.loc 11 224 0
 1536 00a0 02B0     		add	sp, sp, #8
 1537              		@ sp needed
 1538 00a2 10BD     		pop	{r4, pc}
 1539              	.L98:
 1540              		.align	2
 1541              	.L97:
 1542 00a4 00000000 		.word	wa
 1543 00a8 00000000 		.word	thread3
 1544 00ac 00000000 		.word	threads
 1545 00b0 00000000 		.word	sem1
 1546              		.cfi_endproc
 1547              	.LFE160:
 1548              		.size	sem3_execute, .-sem3_execute
 1549              		.global	testsem3
 1550              		.section	.rodata
 1551              		.align	2
 1552              	.LC36:
 1553 0048 53656D61 		.ascii	"Semaphores, atomic signal-wait\000"
 1553      70686F72 
 1553      65732C20 
 1553      61746F6D 
 1553      69632073 
 1554              		.section	.rodata.testsem3,"a",%progbits
 1555              		.align	2
 1556              		.type	testsem3, %object
 1557              		.size	testsem3, 16
 1558              	testsem3:
 1559 0000 48000000 		.word	.LC36
 1560 0004 00000000 		.word	sem3_setup
 1561 0008 00000000 		.word	0
 1562 000c 00000000 		.word	sem3_execute
 1563              		.section	.text.thread4,"ax",%progbits
 1564              		.align	1
 1565              		.p2align 4,,15
 1566              		.syntax unified
 1567              		.code	16
 1568              		.thumb_func
 1569              		.fpu softvfp
 1570              		.type	thread4, %function
 1571              	thread4:
 1572              	.LFB161:
 1573              		.loc 11 241 0
 1574              		.cfi_startproc
 1575              		@ args = 0, pretend = 0, frame = 8
 1576              		@ frame_needed = 0, uses_anonymous_args = 0
 1577 0000 00B5     		push	{lr}
 1578              		.cfi_def_cfa_offset 4
 1579              		.cfi_offset 14, -4
 1580 0002 83B0     		sub	sp, sp, #12
 1581              		.cfi_def_cfa_offset 16
 1582 0004 0190     		str	r0, [sp, #4]
 1583              		.loc 11 243 0
ARM GAS  /tmp/cc0aws4r.s 			page 29


 1584 0006 019B     		ldr	r3, [sp, #4]
 1585 0008 1800     		movs	r0, r3
 1586 000a FFF7FEFF 		bl	chBSemSignal
 1587              		.loc 11 244 0
 1588 000e C046     		nop
 1589 0010 03B0     		add	sp, sp, #12
 1590              		@ sp needed
 1591 0012 00BD     		pop	{pc}
 1592              		.cfi_endproc
 1593              	.LFE161:
 1594              		.size	thread4, .-thread4
 1595              		.section	.text.sem4_execute,"ax",%progbits
 1596              		.align	1
 1597              		.p2align 4,,15
 1598              		.syntax unified
 1599              		.code	16
 1600              		.thumb_func
 1601              		.fpu softvfp
 1602              		.type	sem4_execute, %function
 1603              	sem4_execute:
 1604              	.LFB162:
 1605              		.loc 11 246 0
 1606              		.cfi_startproc
 1607              		@ args = 0, pretend = 0, frame = 16
 1608              		@ frame_needed = 0, uses_anonymous_args = 0
 1609 0000 10B5     		push	{r4, lr}
 1610              		.cfi_def_cfa_offset 8
 1611              		.cfi_offset 4, -8
 1612              		.cfi_offset 14, -4
 1613 0002 86B0     		sub	sp, sp, #24
 1614              		.cfi_def_cfa_offset 32
 1615              		.loc 11 250 0
 1616 0004 03AB     		add	r3, sp, #12
 1617 0006 0121     		movs	r1, #1
 1618 0008 1800     		movs	r0, r3
 1619 000a FFF7FEFF 		bl	chBSemObjectInit
 1620              		.loc 11 251 0
 1621 000e 03AB     		add	r3, sp, #12
 1622 0010 0121     		movs	r1, #1
 1623 0012 1800     		movs	r0, r3
 1624 0014 FFF7FEFF 		bl	chBSemReset
 1625              		.loc 11 252 0
 1626 0018 FFF7FEFF 		bl	chSysLock
 1627 001c 03AB     		add	r3, sp, #12
 1628 001e 1800     		movs	r0, r3
 1629 0020 FFF7FEFF 		bl	chBSemGetStateI
 1630 0024 0300     		movs	r3, r0
 1631 0026 1900     		movs	r1, r3
 1632 0028 0120     		movs	r0, #1
 1633 002a FFF7FEFF 		bl	_test_assert
 1634 002e 031E     		subs	r3, r0, #0
 1635 0030 02D0     		beq	.L101
 1636              		.loc 11 252 0 is_stmt 0 discriminator 1
 1637 0032 FFF7FEFF 		bl	chSysUnlock
 1638 0036 95E0     		b	.L100
 1639              	.L101:
 1640              		.loc 11 252 0 discriminator 2
ARM GAS  /tmp/cc0aws4r.s 			page 30


 1641 0038 FFF7FEFF 		bl	chSysUnlock
 1642              		.loc 11 255 0 is_stmt 1 discriminator 2
 1643 003c 4A4B     		ldr	r3, .L109
 1644 003e 1C68     		ldr	r4, [r3]
 1645              		.loc 11 256 0 discriminator 2
 1646 0040 FFF7FEFF 		bl	chThdGetPriorityX
 1647 0044 0300     		movs	r3, r0
 1648              		.loc 11 255 0 discriminator 2
 1649 0046 5A1E     		subs	r2, r3, #1
 1650 0048 4848     		ldr	r0, .L109+4
 1651 004a A823     		movs	r3, #168
 1652 004c 5900     		lsls	r1, r3, #1
 1653 004e 03AB     		add	r3, sp, #12
 1654 0050 0093     		str	r3, [sp]
 1655 0052 0300     		movs	r3, r0
 1656 0054 2000     		movs	r0, r4
 1657 0056 FFF7FEFF 		bl	chThdCreateStatic
 1658 005a 0200     		movs	r2, r0
 1659 005c 444B     		ldr	r3, .L109+8
 1660 005e 1A60     		str	r2, [r3]
 1661              		.loc 11 259 0 discriminator 2
 1662 0060 03AB     		add	r3, sp, #12
 1663 0062 1800     		movs	r0, r3
 1664 0064 FFF7FEFF 		bl	chBSemWait
 1665              		.loc 11 262 0 discriminator 2
 1666 0068 FFF7FEFF 		bl	chSysLock
 1667 006c 03AB     		add	r3, sp, #12
 1668 006e 1800     		movs	r0, r3
 1669 0070 FFF7FEFF 		bl	chBSemGetStateI
 1670 0074 0300     		movs	r3, r0
 1671 0076 1900     		movs	r1, r3
 1672 0078 0220     		movs	r0, #2
 1673 007a FFF7FEFF 		bl	_test_assert
 1674 007e 031E     		subs	r3, r0, #0
 1675 0080 02D0     		beq	.L103
 1676              		.loc 11 262 0 is_stmt 0 discriminator 1
 1677 0082 FFF7FEFF 		bl	chSysUnlock
 1678 0086 6DE0     		b	.L100
 1679              	.L103:
 1680              		.loc 11 262 0 discriminator 2
 1681 0088 FFF7FEFF 		bl	chSysUnlock
 1682              		.loc 11 266 0 is_stmt 1 discriminator 2
 1683 008c 03AB     		add	r3, sp, #12
 1684 008e 1800     		movs	r0, r3
 1685 0090 FFF7FEFF 		bl	chBSemSignal
 1686              		.loc 11 267 0 discriminator 2
 1687 0094 FFF7FEFF 		bl	chSysLock
 1688 0098 03AB     		add	r3, sp, #12
 1689 009a 1800     		movs	r0, r3
 1690 009c FFF7FEFF 		bl	chBSemGetStateI
 1691 00a0 0300     		movs	r3, r0
 1692 00a2 5A1E     		subs	r2, r3, #1
 1693 00a4 9341     		sbcs	r3, r3, r2
 1694 00a6 DBB2     		uxtb	r3, r3
 1695 00a8 0122     		movs	r2, #1
 1696 00aa 5340     		eors	r3, r2
 1697 00ac DBB2     		uxtb	r3, r3
ARM GAS  /tmp/cc0aws4r.s 			page 31


 1698 00ae 1A1C     		adds	r2, r3, #0
 1699 00b0 0123     		movs	r3, #1
 1700 00b2 1340     		ands	r3, r2
 1701 00b4 DBB2     		uxtb	r3, r3
 1702 00b6 1900     		movs	r1, r3
 1703 00b8 0320     		movs	r0, #3
 1704 00ba FFF7FEFF 		bl	_test_assert
 1705 00be 031E     		subs	r3, r0, #0
 1706 00c0 02D0     		beq	.L104
 1707              		.loc 11 267 0 is_stmt 0 discriminator 1
 1708 00c2 FFF7FEFF 		bl	chSysUnlock
 1709 00c6 4DE0     		b	.L100
 1710              	.L104:
 1711              		.loc 11 267 0 discriminator 2
 1712 00c8 FFF7FEFF 		bl	chSysUnlock
 1713              		.loc 11 268 0 is_stmt 1 discriminator 2
 1714 00cc FFF7FEFF 		bl	chSysLock
 1715 00d0 03AB     		add	r3, sp, #12
 1716 00d2 1800     		movs	r0, r3
 1717 00d4 FFF7FEFF 		bl	chSemGetCounterI
 1718 00d8 0300     		movs	r3, r0
 1719 00da 013B     		subs	r3, r3, #1
 1720 00dc 5A42     		rsbs	r2, r3, #0
 1721 00de 5341     		adcs	r3, r3, r2
 1722 00e0 DBB2     		uxtb	r3, r3
 1723 00e2 1900     		movs	r1, r3
 1724 00e4 0420     		movs	r0, #4
 1725 00e6 FFF7FEFF 		bl	_test_assert
 1726 00ea 031E     		subs	r3, r0, #0
 1727 00ec 02D0     		beq	.L105
 1728              		.loc 11 268 0 is_stmt 0 discriminator 1
 1729 00ee FFF7FEFF 		bl	chSysUnlock
 1730 00f2 37E0     		b	.L100
 1731              	.L105:
 1732              		.loc 11 268 0 discriminator 2
 1733 00f4 FFF7FEFF 		bl	chSysUnlock
 1734              		.loc 11 271 0 is_stmt 1 discriminator 2
 1735 00f8 03AB     		add	r3, sp, #12
 1736 00fa 1800     		movs	r0, r3
 1737 00fc FFF7FEFF 		bl	chBSemSignal
 1738              		.loc 11 272 0 discriminator 2
 1739 0100 FFF7FEFF 		bl	chSysLock
 1740 0104 03AB     		add	r3, sp, #12
 1741 0106 1800     		movs	r0, r3
 1742 0108 FFF7FEFF 		bl	chBSemGetStateI
 1743 010c 0300     		movs	r3, r0
 1744 010e 5A1E     		subs	r2, r3, #1
 1745 0110 9341     		sbcs	r3, r3, r2
 1746 0112 DBB2     		uxtb	r3, r3
 1747 0114 0122     		movs	r2, #1
 1748 0116 5340     		eors	r3, r2
 1749 0118 DBB2     		uxtb	r3, r3
 1750 011a 1A1C     		adds	r2, r3, #0
 1751 011c 0123     		movs	r3, #1
 1752 011e 1340     		ands	r3, r2
 1753 0120 DBB2     		uxtb	r3, r3
 1754 0122 1900     		movs	r1, r3
ARM GAS  /tmp/cc0aws4r.s 			page 32


 1755 0124 0320     		movs	r0, #3
 1756 0126 FFF7FEFF 		bl	_test_assert
 1757 012a 031E     		subs	r3, r0, #0
 1758 012c 02D0     		beq	.L106
 1759              		.loc 11 272 0 is_stmt 0 discriminator 1
 1760 012e FFF7FEFF 		bl	chSysUnlock
 1761 0132 17E0     		b	.L100
 1762              	.L106:
 1763              		.loc 11 272 0 discriminator 2
 1764 0134 FFF7FEFF 		bl	chSysUnlock
 1765              		.loc 11 273 0 is_stmt 1 discriminator 2
 1766 0138 FFF7FEFF 		bl	chSysLock
 1767 013c 03AB     		add	r3, sp, #12
 1768 013e 1800     		movs	r0, r3
 1769 0140 FFF7FEFF 		bl	chSemGetCounterI
 1770 0144 0300     		movs	r3, r0
 1771 0146 013B     		subs	r3, r3, #1
 1772 0148 5A42     		rsbs	r2, r3, #0
 1773 014a 5341     		adcs	r3, r3, r2
 1774 014c DBB2     		uxtb	r3, r3
 1775 014e 1900     		movs	r1, r3
 1776 0150 0520     		movs	r0, #5
 1777 0152 FFF7FEFF 		bl	_test_assert
 1778 0156 031E     		subs	r3, r0, #0
 1779 0158 02D0     		beq	.L107
 1780              		.loc 11 273 0 is_stmt 0 discriminator 1
 1781 015a FFF7FEFF 		bl	chSysUnlock
 1782 015e 01E0     		b	.L100
 1783              	.L107:
 1784              		.loc 11 273 0 discriminator 2
 1785 0160 FFF7FEFF 		bl	chSysUnlock
 1786              	.L100:
 1787              		.loc 11 274 0 is_stmt 1
 1788 0164 06B0     		add	sp, sp, #24
 1789              		@ sp needed
 1790 0166 10BD     		pop	{r4, pc}
 1791              	.L110:
 1792              		.align	2
 1793              	.L109:
 1794 0168 00000000 		.word	wa
 1795 016c 00000000 		.word	thread4
 1796 0170 00000000 		.word	threads
 1797              		.cfi_endproc
 1798              	.LFE162:
 1799              		.size	sem4_execute, .-sem4_execute
 1800              		.global	testsem4
 1801              		.section	.rodata
 1802 0067 00       		.align	2
 1803              	.LC40:
 1804 0068 42696E61 		.ascii	"Binary Semaphores, functionality\000"
 1804      72792053 
 1804      656D6170 
 1804      686F7265 
 1804      732C2066 
 1805              		.section	.rodata.testsem4,"a",%progbits
 1806              		.align	2
 1807              		.type	testsem4, %object
ARM GAS  /tmp/cc0aws4r.s 			page 33


 1808              		.size	testsem4, 16
 1809              	testsem4:
 1810 0000 68000000 		.word	.LC40
 1811 0004 00000000 		.word	0
 1812 0008 00000000 		.word	0
 1813 000c 00000000 		.word	sem4_execute
 1814              		.global	patternsem
 1815              		.section	.rodata.patternsem,"a",%progbits
 1816              		.align	2
 1817              		.type	patternsem, %object
 1818              		.size	patternsem, 20
 1819              	patternsem:
 1820 0000 00000000 		.word	testsem1
 1821 0004 00000000 		.word	testsem2
 1822 0008 00000000 		.word	testsem3
 1823 000c 00000000 		.word	testsem4
 1824 0010 00000000 		.word	0
 1825              		.section	.rodata.__func__.4993,"a",%progbits
 1826              		.align	2
 1827              		.type	__func__.4993, %object
 1828              		.size	__func__.4993, 12
 1829              	__func__.4993:
 1830 0000 63685379 		.ascii	"chSysUnlock\000"
 1830      73556E6C 
 1830      6F636B00 
 1831              		.text
 1832              	.Letext0:
 1833              		.file 12 "/home/felix/opt/gcc-arm-none-eabi-6-2017-q1-update/lib/gcc/arm-none-eabi/6.3.1/include/s
 1834              		.file 13 "/home/felix/opt/gcc-arm-none-eabi-6-2017-q1-update/arm-none-eabi/include/machine/_defaul
 1835              		.file 14 "/home/felix/opt/gcc-arm-none-eabi-6-2017-q1-update/arm-none-eabi/include/sys/_stdint.h"
 1836              		.file 15 "ChibiOS/os/rt/ports/ARMCMx/compilers/GCC/chtypes.h"
 1837              		.file 16 "ChibiOS/os/rt/include/chsystypes.h"
 1838              		.file 17 "ChibiOS/os/rt/ports/ARMCMx/chcore.h"
 1839              		.file 18 "ChibiOS/os/hal/ports/STM32/LLD/TIMv1/stm32_tim.h"
 1840              		.file 19 "ChibiOS/os/rt/include/chdebug.h"
 1841              		.file 20 "ChibiOS/os/rt/include/chmtx.h"
 1842              		.file 21 "ChibiOS/os/rt/include/chregistry.h"
 1843              		.file 22 "ChibiOS/os/ext/CMSIS/ST/STM32F0xx/system_stm32f0xx.h"
 1844              		.file 23 "ChibiOS/test/rt/test.h"
 1845              		.section	.debug_info,"",%progbits
 1846              	.Ldebug_info0:
 1847 0000 010F0000 		.4byte	0xf01
 1848 0004 0400     		.2byte	0x4
 1849 0006 00000000 		.4byte	.Ldebug_abbrev0
 1850 000a 04       		.byte	0x4
 1851 000b 01       		.uleb128 0x1
 1852 000c 18030000 		.4byte	.LASF201
 1853 0010 0C       		.byte	0xc
 1854 0011 60010000 		.4byte	.LASF202
 1855 0015 4D040000 		.4byte	.LASF203
 1856 0019 00000000 		.4byte	.Ldebug_ranges0+0
 1857 001d 00000000 		.4byte	0
 1858 0021 00000000 		.4byte	.Ldebug_line0
 1859 0025 02       		.uleb128 0x2
 1860 0026 04       		.byte	0x4
 1861 0027 05       		.byte	0x5
 1862 0028 696E7400 		.ascii	"int\000"
ARM GAS  /tmp/cc0aws4r.s 			page 34


 1863 002c 03       		.uleb128 0x3
 1864 002d CD020000 		.4byte	.LASF4
 1865 0031 0C       		.byte	0xc
 1866 0032 D8       		.byte	0xd8
 1867 0033 37000000 		.4byte	0x37
 1868 0037 04       		.uleb128 0x4
 1869 0038 04       		.byte	0x4
 1870 0039 07       		.byte	0x7
 1871 003a 9A000000 		.4byte	.LASF0
 1872 003e 04       		.uleb128 0x4
 1873 003f 08       		.byte	0x8
 1874 0040 05       		.byte	0x5
 1875 0041 3A050000 		.4byte	.LASF1
 1876 0045 04       		.uleb128 0x4
 1877 0046 08       		.byte	0x8
 1878 0047 04       		.byte	0x4
 1879 0048 10060000 		.4byte	.LASF2
 1880 004c 04       		.uleb128 0x4
 1881 004d 01       		.byte	0x1
 1882 004e 06       		.byte	0x6
 1883 004f C1080000 		.4byte	.LASF3
 1884 0053 03       		.uleb128 0x3
 1885 0054 74070000 		.4byte	.LASF5
 1886 0058 0D       		.byte	0xd
 1887 0059 2B       		.byte	0x2b
 1888 005a 5E000000 		.4byte	0x5e
 1889 005e 04       		.uleb128 0x4
 1890 005f 01       		.byte	0x1
 1891 0060 08       		.byte	0x8
 1892 0061 27080000 		.4byte	.LASF6
 1893 0065 04       		.uleb128 0x4
 1894 0066 02       		.byte	0x2
 1895 0067 05       		.byte	0x5
 1896 0068 86060000 		.4byte	.LASF7
 1897 006c 03       		.uleb128 0x3
 1898 006d 52020000 		.4byte	.LASF8
 1899 0071 0D       		.byte	0xd
 1900 0072 39       		.byte	0x39
 1901 0073 77000000 		.4byte	0x77
 1902 0077 04       		.uleb128 0x4
 1903 0078 02       		.byte	0x2
 1904 0079 07       		.byte	0x7
 1905 007a DA080000 		.4byte	.LASF9
 1906 007e 03       		.uleb128 0x3
 1907 007f E2000000 		.4byte	.LASF10
 1908 0083 0D       		.byte	0xd
 1909 0084 4D       		.byte	0x4d
 1910 0085 89000000 		.4byte	0x89
 1911 0089 04       		.uleb128 0x4
 1912 008a 04       		.byte	0x4
 1913 008b 05       		.byte	0x5
 1914 008c AD060000 		.4byte	.LASF11
 1915 0090 03       		.uleb128 0x3
 1916 0091 3B080000 		.4byte	.LASF12
 1917 0095 0D       		.byte	0xd
 1918 0096 4F       		.byte	0x4f
 1919 0097 9B000000 		.4byte	0x9b
ARM GAS  /tmp/cc0aws4r.s 			page 35


 1920 009b 04       		.uleb128 0x4
 1921 009c 04       		.byte	0x4
 1922 009d 07       		.byte	0x7
 1923 009e BA070000 		.4byte	.LASF13
 1924 00a2 03       		.uleb128 0x3
 1925 00a3 EF030000 		.4byte	.LASF14
 1926 00a7 0D       		.byte	0xd
 1927 00a8 69       		.byte	0x69
 1928 00a9 AD000000 		.4byte	0xad
 1929 00ad 04       		.uleb128 0x4
 1930 00ae 08       		.byte	0x8
 1931 00af 07       		.byte	0x7
 1932 00b0 20020000 		.4byte	.LASF15
 1933 00b4 03       		.uleb128 0x3
 1934 00b5 D8040000 		.4byte	.LASF16
 1935 00b9 0E       		.byte	0xe
 1936 00ba 18       		.byte	0x18
 1937 00bb 53000000 		.4byte	0x53
 1938 00bf 03       		.uleb128 0x3
 1939 00c0 1C060000 		.4byte	.LASF17
 1940 00c4 0E       		.byte	0xe
 1941 00c5 24       		.byte	0x24
 1942 00c6 6C000000 		.4byte	0x6c
 1943 00ca 03       		.uleb128 0x3
 1944 00cb EE070000 		.4byte	.LASF18
 1945 00cf 0E       		.byte	0xe
 1946 00d0 2C       		.byte	0x2c
 1947 00d1 7E000000 		.4byte	0x7e
 1948 00d5 03       		.uleb128 0x3
 1949 00d6 A9010000 		.4byte	.LASF19
 1950 00da 0E       		.byte	0xe
 1951 00db 30       		.byte	0x30
 1952 00dc 90000000 		.4byte	0x90
 1953 00e0 05       		.uleb128 0x5
 1954 00e1 D5000000 		.4byte	0xd5
 1955 00e5 03       		.uleb128 0x3
 1956 00e6 27070000 		.4byte	.LASF20
 1957 00ea 0E       		.byte	0xe
 1958 00eb 3C       		.byte	0x3c
 1959 00ec A2000000 		.4byte	0xa2
 1960 00f0 03       		.uleb128 0x3
 1961 00f1 DA050000 		.4byte	.LASF21
 1962 00f5 0F       		.byte	0xf
 1963 00f6 3C       		.byte	0x3c
 1964 00f7 B4000000 		.4byte	0xb4
 1965 00fb 03       		.uleb128 0x3
 1966 00fc AE040000 		.4byte	.LASF22
 1967 0100 0F       		.byte	0xf
 1968 0101 3D       		.byte	0x3d
 1969 0102 B4000000 		.4byte	0xb4
 1970 0106 03       		.uleb128 0x3
 1971 0107 B2070000 		.4byte	.LASF23
 1972 010b 0F       		.byte	0xf
 1973 010c 3E       		.byte	0x3e
 1974 010d B4000000 		.4byte	0xb4
 1975 0111 03       		.uleb128 0x3
 1976 0112 F5010000 		.4byte	.LASF24
ARM GAS  /tmp/cc0aws4r.s 			page 36


 1977 0116 0F       		.byte	0xf
 1978 0117 40       		.byte	0x40
 1979 0118 D5000000 		.4byte	0xd5
 1980 011c 03       		.uleb128 0x3
 1981 011d 6A050000 		.4byte	.LASF25
 1982 0121 0F       		.byte	0xf
 1983 0122 41       		.byte	0x41
 1984 0123 CA000000 		.4byte	0xca
 1985 0127 03       		.uleb128 0x3
 1986 0128 BE010000 		.4byte	.LASF26
 1987 012c 0F       		.byte	0xf
 1988 012d 43       		.byte	0x43
 1989 012e D5000000 		.4byte	0xd5
 1990 0132 03       		.uleb128 0x3
 1991 0133 5D020000 		.4byte	.LASF27
 1992 0137 0F       		.byte	0xf
 1993 0138 45       		.byte	0x45
 1994 0139 CA000000 		.4byte	0xca
 1995 013d 03       		.uleb128 0x3
 1996 013e 5C000000 		.4byte	.LASF28
 1997 0142 10       		.byte	0x10
 1998 0143 35       		.byte	0x35
 1999 0144 BF000000 		.4byte	0xbf
 2000 0148 03       		.uleb128 0x3
 2001 0149 C4020000 		.4byte	.LASF29
 2002 014d 10       		.byte	0x10
 2003 014e 3F       		.byte	0x3f
 2004 014f 53010000 		.4byte	0x153
 2005 0153 06       		.uleb128 0x6
 2006 0154 11050000 		.4byte	.LASF50
 2007 0158 48       		.byte	0x48
 2008 0159 05       		.byte	0x5
 2009 015a C2       		.byte	0xc2
 2010 015b 4C020000 		.4byte	0x24c
 2011 015f 07       		.uleb128 0x7
 2012 0160 06070000 		.4byte	.LASF30
 2013 0164 05       		.byte	0x5
 2014 0165 C3       		.byte	0xc3
 2015 0166 57020000 		.4byte	0x257
 2016 016a 00       		.byte	0
 2017 016b 07       		.uleb128 0x7
 2018 016c A2070000 		.4byte	.LASF31
 2019 0170 05       		.byte	0x5
 2020 0171 C5       		.byte	0xc5
 2021 0172 57020000 		.4byte	0x257
 2022 0176 04       		.byte	0x4
 2023 0177 07       		.uleb128 0x7
 2024 0178 55000000 		.4byte	.LASF32
 2025 017c 05       		.byte	0x5
 2026 017d C7       		.byte	0xc7
 2027 017e 11010000 		.4byte	0x111
 2028 0182 08       		.byte	0x8
 2029 0183 07       		.uleb128 0x7
 2030 0184 30070000 		.4byte	.LASF33
 2031 0188 05       		.byte	0x5
 2032 0189 C8       		.byte	0xc8
 2033 018a E4040000 		.4byte	0x4e4
ARM GAS  /tmp/cc0aws4r.s 			page 37


 2034 018e 0C       		.byte	0xc
 2035 018f 07       		.uleb128 0x7
 2036 0190 8C020000 		.4byte	.LASF34
 2037 0194 05       		.byte	0x5
 2038 0195 CA       		.byte	0xca
 2039 0196 57020000 		.4byte	0x257
 2040 019a 10       		.byte	0x10
 2041 019b 07       		.uleb128 0x7
 2042 019c BD040000 		.4byte	.LASF35
 2043 01a0 05       		.byte	0x5
 2044 01a1 CB       		.byte	0xcb
 2045 01a2 57020000 		.4byte	0x257
 2046 01a6 14       		.byte	0x14
 2047 01a7 07       		.uleb128 0x7
 2048 01a8 38040000 		.4byte	.LASF36
 2049 01ac 05       		.byte	0x5
 2050 01ad D2       		.byte	0xd2
 2051 01ae E5070000 		.4byte	0x7e5
 2052 01b2 18       		.byte	0x18
 2053 01b3 07       		.uleb128 0x7
 2054 01b4 CD040000 		.4byte	.LASF37
 2055 01b8 05       		.byte	0x5
 2056 01b9 D8       		.byte	0xd8
 2057 01ba FC070000 		.4byte	0x7fc
 2058 01be 1C       		.byte	0x1c
 2059 01bf 07       		.uleb128 0x7
 2060 01c0 C5040000 		.4byte	.LASF38
 2061 01c4 05       		.byte	0x5
 2062 01c5 DD       		.byte	0xdd
 2063 01c6 FB000000 		.4byte	0xfb
 2064 01ca 20       		.byte	0x20
 2065 01cb 07       		.uleb128 0x7
 2066 01cc 81050000 		.4byte	.LASF39
 2067 01d0 05       		.byte	0x5
 2068 01d1 E1       		.byte	0xe1
 2069 01d2 F0000000 		.4byte	0xf0
 2070 01d6 21       		.byte	0x21
 2071 01d7 07       		.uleb128 0x7
 2072 01d8 5C080000 		.4byte	.LASF40
 2073 01dc 05       		.byte	0x5
 2074 01dd E6       		.byte	0xe6
 2075 01de 06010000 		.4byte	0x106
 2076 01e2 22       		.byte	0x22
 2077 01e3 08       		.uleb128 0x8
 2078 01e4 705F7500 		.ascii	"p_u\000"
 2079 01e8 05       		.byte	0x5
 2080 01e9 3101     		.2byte	0x131
 2081 01eb 20070000 		.4byte	0x720
 2082 01ef 24       		.byte	0x24
 2083 01f0 09       		.uleb128 0x9
 2084 01f1 20000000 		.4byte	.LASF41
 2085 01f5 05       		.byte	0x5
 2086 01f6 3601     		.2byte	0x136
 2087 01f8 5D020000 		.4byte	0x25d
 2088 01fc 28       		.byte	0x28
 2089 01fd 09       		.uleb128 0x9
 2090 01fe 8F000000 		.4byte	.LASF42
ARM GAS  /tmp/cc0aws4r.s 			page 38


 2091 0202 05       		.byte	0x5
 2092 0203 3C01     		.2byte	0x13c
 2093 0205 81020000 		.4byte	0x281
 2094 0209 2C       		.byte	0x2c
 2095 020a 09       		.uleb128 0x9
 2096 020b D4050000 		.4byte	.LASF43
 2097 020f 05       		.byte	0x5
 2098 0210 4001     		.2byte	0x140
 2099 0212 1C010000 		.4byte	0x11c
 2100 0216 34       		.byte	0x34
 2101 0217 09       		.uleb128 0x9
 2102 0218 9A060000 		.4byte	.LASF44
 2103 021c 05       		.byte	0x5
 2104 021d 4601     		.2byte	0x146
 2105 021f 27010000 		.4byte	0x127
 2106 0223 38       		.byte	0x38
 2107 0224 09       		.uleb128 0x9
 2108 0225 F7040000 		.4byte	.LASF45
 2109 0229 05       		.byte	0x5
 2110 022a 4D01     		.2byte	0x14d
 2111 022c DF070000 		.4byte	0x7df
 2112 0230 3C       		.byte	0x3c
 2113 0231 09       		.uleb128 0x9
 2114 0232 70060000 		.4byte	.LASF46
 2115 0236 05       		.byte	0x5
 2116 0237 5101     		.2byte	0x151
 2117 0239 11010000 		.4byte	0x111
 2118 023d 40       		.byte	0x40
 2119 023e 09       		.uleb128 0x9
 2120 023f EF040000 		.4byte	.LASF47
 2121 0243 05       		.byte	0x5
 2122 0244 5801     		.2byte	0x158
 2123 0246 39030000 		.4byte	0x339
 2124 024a 44       		.byte	0x44
 2125 024b 00       		.byte	0
 2126 024c 03       		.uleb128 0x3
 2127 024d 82040000 		.4byte	.LASF48
 2128 0251 10       		.byte	0x10
 2129 0252 44       		.byte	0x44
 2130 0253 57020000 		.4byte	0x257
 2131 0257 0A       		.uleb128 0xa
 2132 0258 04       		.byte	0x4
 2133 0259 48010000 		.4byte	0x148
 2134 025d 03       		.uleb128 0x3
 2135 025e D3000000 		.4byte	.LASF49
 2136 0262 10       		.byte	0x10
 2137 0263 49       		.byte	0x49
 2138 0264 68020000 		.4byte	0x268
 2139 0268 06       		.uleb128 0x6
 2140 0269 00000000 		.4byte	.LASF51
 2141 026d 04       		.byte	0x4
 2142 026e 05       		.byte	0x5
 2143 026f B0       		.byte	0xb0
 2144 0270 81020000 		.4byte	0x281
 2145 0274 07       		.uleb128 0x7
 2146 0275 06070000 		.4byte	.LASF30
 2147 0279 05       		.byte	0x5
ARM GAS  /tmp/cc0aws4r.s 			page 39


 2148 027a B1       		.byte	0xb1
 2149 027b 57020000 		.4byte	0x257
 2150 027f 00       		.byte	0
 2151 0280 00       		.byte	0
 2152 0281 03       		.uleb128 0x3
 2153 0282 10000000 		.4byte	.LASF52
 2154 0286 10       		.byte	0x10
 2155 0287 50       		.byte	0x50
 2156 0288 91020000 		.4byte	0x291
 2157 028c 0B       		.uleb128 0xb
 2158 028d 81020000 		.4byte	0x281
 2159 0291 06       		.uleb128 0x6
 2160 0292 4F010000 		.4byte	.LASF53
 2161 0296 08       		.byte	0x8
 2162 0297 05       		.byte	0x5
 2163 0298 B7       		.byte	0xb7
 2164 0299 B6020000 		.4byte	0x2b6
 2165 029d 07       		.uleb128 0x7
 2166 029e 06070000 		.4byte	.LASF30
 2167 02a2 05       		.byte	0x5
 2168 02a3 B8       		.byte	0xb8
 2169 02a4 57020000 		.4byte	0x257
 2170 02a8 00       		.byte	0
 2171 02a9 07       		.uleb128 0x7
 2172 02aa A2070000 		.4byte	.LASF31
 2173 02ae 05       		.byte	0x5
 2174 02af B9       		.byte	0xb9
 2175 02b0 57020000 		.4byte	0x257
 2176 02b4 04       		.byte	0x4
 2177 02b5 00       		.byte	0
 2178 02b6 03       		.uleb128 0x3
 2179 02b7 D9070000 		.4byte	.LASF54
 2180 02bb 10       		.byte	0x10
 2181 02bc 57       		.byte	0x57
 2182 02bd C1020000 		.4byte	0x2c1
 2183 02c1 0C       		.uleb128 0xc
 2184 02c2 1E010000 		.4byte	.LASF55
 2185 02c6 1C       		.byte	0x1c
 2186 02c7 05       		.byte	0x5
 2187 02c8 9001     		.2byte	0x190
 2188 02ca 1D030000 		.4byte	0x31d
 2189 02ce 09       		.uleb128 0x9
 2190 02cf 48050000 		.4byte	.LASF56
 2191 02d3 05       		.byte	0x5
 2192 02d4 9101     		.2byte	0x191
 2193 02d6 81020000 		.4byte	0x281
 2194 02da 00       		.byte	0
 2195 02db 09       		.uleb128 0x9
 2196 02dc CA010000 		.4byte	.LASF57
 2197 02e0 05       		.byte	0x5
 2198 02e1 9201     		.2byte	0x192
 2199 02e3 11010000 		.4byte	0x111
 2200 02e7 08       		.byte	0x8
 2201 02e8 09       		.uleb128 0x9
 2202 02e9 ED080000 		.4byte	.LASF58
 2203 02ed 05       		.byte	0x5
 2204 02ee 9401     		.2byte	0x194
ARM GAS  /tmp/cc0aws4r.s 			page 40


 2205 02f0 E4040000 		.4byte	0x4e4
 2206 02f4 0C       		.byte	0xc
 2207 02f5 09       		.uleb128 0x9
 2208 02f6 62050000 		.4byte	.LASF59
 2209 02fa 05       		.byte	0x5
 2210 02fb 9701     		.2byte	0x197
 2211 02fd 57020000 		.4byte	0x257
 2212 0301 10       		.byte	0x10
 2213 0302 09       		.uleb128 0x9
 2214 0303 C2050000 		.4byte	.LASF60
 2215 0307 05       		.byte	0x5
 2216 0308 9801     		.2byte	0x198
 2217 030a 57020000 		.4byte	0x257
 2218 030e 14       		.byte	0x14
 2219 030f 09       		.uleb128 0x9
 2220 0310 90060000 		.4byte	.LASF61
 2221 0314 05       		.byte	0x5
 2222 0315 9B01     		.2byte	0x19b
 2223 0317 57020000 		.4byte	0x257
 2224 031b 18       		.byte	0x18
 2225 031c 00       		.byte	0
 2226 031d 03       		.uleb128 0x3
 2227 031e 8A010000 		.4byte	.LASF62
 2228 0322 10       		.byte	0x10
 2229 0323 5C       		.byte	0x5c
 2230 0324 28030000 		.4byte	0x328
 2231 0328 0A       		.uleb128 0xa
 2232 0329 04       		.byte	0x4
 2233 032a 2E030000 		.4byte	0x32e
 2234 032e 0D       		.uleb128 0xd
 2235 032f 39030000 		.4byte	0x339
 2236 0333 0E       		.uleb128 0xe
 2237 0334 39030000 		.4byte	0x339
 2238 0338 00       		.byte	0
 2239 0339 0F       		.uleb128 0xf
 2240 033a 04       		.byte	0x4
 2241 033b 0B       		.uleb128 0xb
 2242 033c 39030000 		.4byte	0x339
 2243 0340 03       		.uleb128 0x3
 2244 0341 89050000 		.4byte	.LASF63
 2245 0345 10       		.byte	0x10
 2246 0346 61       		.byte	0x61
 2247 0347 4B030000 		.4byte	0x34b
 2248 034b 0C       		.uleb128 0xc
 2249 034c FD010000 		.4byte	.LASF64
 2250 0350 14       		.byte	0x14
 2251 0351 05       		.byte	0x5
 2252 0352 6B01     		.2byte	0x16b
 2253 0354 9A030000 		.4byte	0x39a
 2254 0358 09       		.uleb128 0x9
 2255 0359 77080000 		.4byte	.LASF65
 2256 035d 05       		.byte	0x5
 2257 035e 6C01     		.2byte	0x16c
 2258 0360 02080000 		.4byte	0x802
 2259 0364 00       		.byte	0
 2260 0365 09       		.uleb128 0x9
 2261 0366 37090000 		.4byte	.LASF66
ARM GAS  /tmp/cc0aws4r.s 			page 41


 2262 036a 05       		.byte	0x5
 2263 036b 6D01     		.2byte	0x16d
 2264 036d 02080000 		.4byte	0x802
 2265 0371 04       		.byte	0x4
 2266 0372 09       		.uleb128 0x9
 2267 0373 44040000 		.4byte	.LASF67
 2268 0377 05       		.byte	0x5
 2269 0378 6E01     		.2byte	0x16e
 2270 037a 3D010000 		.4byte	0x13d
 2271 037e 08       		.byte	0x8
 2272 037f 09       		.uleb128 0x9
 2273 0380 23090000 		.4byte	.LASF68
 2274 0384 05       		.byte	0x5
 2275 0385 6F01     		.2byte	0x16f
 2276 0387 1D030000 		.4byte	0x31d
 2277 038b 0C       		.byte	0xc
 2278 038c 09       		.uleb128 0x9
 2279 038d D6010000 		.4byte	.LASF69
 2280 0391 05       		.byte	0x5
 2281 0392 7101     		.2byte	0x171
 2282 0394 39030000 		.4byte	0x339
 2283 0398 10       		.byte	0x10
 2284 0399 00       		.byte	0
 2285 039a 03       		.uleb128 0x3
 2286 039b 46080000 		.4byte	.LASF70
 2287 039f 10       		.byte	0x10
 2288 03a0 66       		.byte	0x66
 2289 03a1 A5030000 		.4byte	0x3a5
 2290 03a5 0C       		.uleb128 0xc
 2291 03a6 A5020000 		.4byte	.LASF71
 2292 03aa 0C       		.byte	0xc
 2293 03ab 05       		.byte	0x5
 2294 03ac 7B01     		.2byte	0x17b
 2295 03ae E7030000 		.4byte	0x3e7
 2296 03b2 09       		.uleb128 0x9
 2297 03b3 77080000 		.4byte	.LASF65
 2298 03b7 05       		.byte	0x5
 2299 03b8 7C01     		.2byte	0x17c
 2300 03ba 02080000 		.4byte	0x802
 2301 03be 00       		.byte	0
 2302 03bf 09       		.uleb128 0x9
 2303 03c0 37090000 		.4byte	.LASF66
 2304 03c4 05       		.byte	0x5
 2305 03c5 7E01     		.2byte	0x17e
 2306 03c7 02080000 		.4byte	0x802
 2307 03cb 04       		.byte	0x4
 2308 03cc 09       		.uleb128 0x9
 2309 03cd 44040000 		.4byte	.LASF67
 2310 03d1 05       		.byte	0x5
 2311 03d2 8001     		.2byte	0x180
 2312 03d4 3D010000 		.4byte	0x13d
 2313 03d8 08       		.byte	0x8
 2314 03d9 09       		.uleb128 0x9
 2315 03da 95040000 		.4byte	.LASF72
 2316 03de 05       		.byte	0x5
 2317 03df 8801     		.2byte	0x188
 2318 03e1 3D010000 		.4byte	0x13d
ARM GAS  /tmp/cc0aws4r.s 			page 42


 2319 03e5 0A       		.byte	0xa
 2320 03e6 00       		.byte	0
 2321 03e7 03       		.uleb128 0x3
 2322 03e8 2B050000 		.4byte	.LASF73
 2323 03ec 10       		.byte	0x10
 2324 03ed 6B       		.byte	0x6b
 2325 03ee F2030000 		.4byte	0x3f2
 2326 03f2 10       		.uleb128 0x10
 2327 03f3 99010000 		.4byte	.LASF74
 2328 03f7 1404     		.2byte	0x414
 2329 03f9 05       		.byte	0x5
 2330 03fa A201     		.2byte	0x1a2
 2331 03fc 35040000 		.4byte	0x435
 2332 0400 09       		.uleb128 0x9
 2333 0401 CA050000 		.4byte	.LASF75
 2334 0405 05       		.byte	0x5
 2335 0406 AA01     		.2byte	0x1aa
 2336 0408 EB070000 		.4byte	0x7eb
 2337 040c 00       		.byte	0
 2338 040d 09       		.uleb128 0x9
 2339 040e 78020000 		.4byte	.LASF76
 2340 0412 05       		.byte	0x5
 2341 0413 AF01     		.2byte	0x1af
 2342 0415 32010000 		.4byte	0x132
 2343 0419 04       		.byte	0x4
 2344 041a 09       		.uleb128 0x9
 2345 041b 3A060000 		.4byte	.LASF77
 2346 041f 05       		.byte	0x5
 2347 0420 B301     		.2byte	0x1b3
 2348 0422 32010000 		.4byte	0x132
 2349 0426 08       		.byte	0x8
 2350 0427 09       		.uleb128 0x9
 2351 0428 F6070000 		.4byte	.LASF78
 2352 042c 05       		.byte	0x5
 2353 042d B901     		.2byte	0x1b9
 2354 042f 15070000 		.4byte	0x715
 2355 0433 0C       		.byte	0xc
 2356 0434 00       		.byte	0
 2357 0435 03       		.uleb128 0x3
 2358 0436 8F080000 		.4byte	.LASF79
 2359 043a 10       		.byte	0x10
 2360 043b 70       		.byte	0x70
 2361 043c 40040000 		.4byte	0x440
 2362 0440 10       		.uleb128 0x10
 2363 0441 F1060000 		.4byte	.LASF80
 2364 0445 6805     		.2byte	0x568
 2365 0447 05       		.byte	0x5
 2366 0448 C201     		.2byte	0x1c2
 2367 044a 92040000 		.4byte	0x492
 2368 044e 09       		.uleb128 0x9
 2369 044f 36070000 		.4byte	.LASF81
 2370 0453 05       		.byte	0x5
 2371 0454 C601     		.2byte	0x1c6
 2372 0456 B6020000 		.4byte	0x2b6
 2373 045a 00       		.byte	0
 2374 045b 09       		.uleb128 0x9
 2375 045c 17010000 		.4byte	.LASF82
ARM GAS  /tmp/cc0aws4r.s 			page 43


 2376 0460 05       		.byte	0x5
 2377 0461 CA01     		.2byte	0x1ca
 2378 0463 9A030000 		.4byte	0x39a
 2379 0467 1C       		.byte	0x1c
 2380 0468 08       		.uleb128 0x8
 2381 0469 64626700 		.ascii	"dbg\000"
 2382 046d 05       		.byte	0x5
 2383 046e CE01     		.2byte	0x1ce
 2384 0470 E7030000 		.4byte	0x3e7
 2385 0474 28       		.byte	0x28
 2386 0475 11       		.uleb128 0x11
 2387 0476 F2050000 		.4byte	.LASF83
 2388 047a 05       		.byte	0x5
 2389 047b D201     		.2byte	0x1d2
 2390 047d 48010000 		.4byte	0x148
 2391 0481 3C04     		.2byte	0x43c
 2392 0483 11       		.uleb128 0x11
 2393 0484 2C010000 		.4byte	.LASF84
 2394 0488 05       		.byte	0x5
 2395 0489 E301     		.2byte	0x1e3
 2396 048b 08080000 		.4byte	0x808
 2397 048f 8804     		.2byte	0x488
 2398 0491 00       		.byte	0
 2399 0492 04       		.uleb128 0x4
 2400 0493 04       		.byte	0x4
 2401 0494 07       		.byte	0x7
 2402 0495 A9070000 		.4byte	.LASF85
 2403 0499 12       		.uleb128 0x12
 2404 049a E0000000 		.4byte	0xe0
 2405 049e A9040000 		.4byte	0x4a9
 2406 04a2 13       		.uleb128 0x13
 2407 04a3 92040000 		.4byte	0x492
 2408 04a7 01       		.byte	0x1
 2409 04a8 00       		.byte	0
 2410 04a9 05       		.uleb128 0x5
 2411 04aa 99040000 		.4byte	0x499
 2412 04ae 14       		.uleb128 0x14
 2413 04af 30000000 		.4byte	.LASF124
 2414 04b3 16       		.byte	0x16
 2415 04b4 4C       		.byte	0x4c
 2416 04b5 D5000000 		.4byte	0xd5
 2417 04b9 12       		.uleb128 0x12
 2418 04ba E0000000 		.4byte	0xe0
 2419 04be C9040000 		.4byte	0x4c9
 2420 04c2 13       		.uleb128 0x13
 2421 04c3 92040000 		.4byte	0x492
 2422 04c7 03       		.byte	0x3
 2423 04c8 00       		.byte	0
 2424 04c9 05       		.uleb128 0x5
 2425 04ca B9040000 		.4byte	0x4b9
 2426 04ce 03       		.uleb128 0x3
 2427 04cf 4C000000 		.4byte	.LASF86
 2428 04d3 11       		.byte	0x11
 2429 04d4 65       		.byte	0x65
 2430 04d5 39030000 		.4byte	0x339
 2431 04d9 03       		.uleb128 0x3
 2432 04da F3080000 		.4byte	.LASF87
ARM GAS  /tmp/cc0aws4r.s 			page 44


 2433 04de 11       		.byte	0x11
 2434 04df 6D       		.byte	0x6d
 2435 04e0 E5000000 		.4byte	0xe5
 2436 04e4 06       		.uleb128 0x6
 2437 04e5 70050000 		.4byte	.LASF88
 2438 04e9 04       		.byte	0x4
 2439 04ea 11       		.byte	0x11
 2440 04eb 89       		.byte	0x89
 2441 04ec FD040000 		.4byte	0x4fd
 2442 04f0 15       		.uleb128 0x15
 2443 04f1 72313300 		.ascii	"r13\000"
 2444 04f5 11       		.byte	0x11
 2445 04f6 8A       		.byte	0x8a
 2446 04f7 6F050000 		.4byte	0x56f
 2447 04fb 00       		.byte	0
 2448 04fc 00       		.byte	0
 2449 04fd 06       		.uleb128 0x6
 2450 04fe B6060000 		.4byte	.LASF89
 2451 0502 24       		.byte	0x24
 2452 0503 01       		.byte	0x1
 2453 0504 A4       		.byte	0xa4
 2454 0505 6F050000 		.4byte	0x56f
 2455 0509 15       		.uleb128 0x15
 2456 050a 723800   		.ascii	"r8\000"
 2457 050d 01       		.byte	0x1
 2458 050e A5       		.byte	0xa5
 2459 050f CE040000 		.4byte	0x4ce
 2460 0513 00       		.byte	0
 2461 0514 15       		.uleb128 0x15
 2462 0515 723900   		.ascii	"r9\000"
 2463 0518 01       		.byte	0x1
 2464 0519 A6       		.byte	0xa6
 2465 051a CE040000 		.4byte	0x4ce
 2466 051e 04       		.byte	0x4
 2467 051f 15       		.uleb128 0x15
 2468 0520 72313000 		.ascii	"r10\000"
 2469 0524 01       		.byte	0x1
 2470 0525 A7       		.byte	0xa7
 2471 0526 CE040000 		.4byte	0x4ce
 2472 052a 08       		.byte	0x8
 2473 052b 15       		.uleb128 0x15
 2474 052c 72313100 		.ascii	"r11\000"
 2475 0530 01       		.byte	0x1
 2476 0531 A8       		.byte	0xa8
 2477 0532 CE040000 		.4byte	0x4ce
 2478 0536 0C       		.byte	0xc
 2479 0537 15       		.uleb128 0x15
 2480 0538 723400   		.ascii	"r4\000"
 2481 053b 01       		.byte	0x1
 2482 053c A9       		.byte	0xa9
 2483 053d CE040000 		.4byte	0x4ce
 2484 0541 10       		.byte	0x10
 2485 0542 15       		.uleb128 0x15
 2486 0543 723500   		.ascii	"r5\000"
 2487 0546 01       		.byte	0x1
 2488 0547 AA       		.byte	0xaa
 2489 0548 CE040000 		.4byte	0x4ce
ARM GAS  /tmp/cc0aws4r.s 			page 45


 2490 054c 14       		.byte	0x14
 2491 054d 15       		.uleb128 0x15
 2492 054e 723600   		.ascii	"r6\000"
 2493 0551 01       		.byte	0x1
 2494 0552 AB       		.byte	0xab
 2495 0553 CE040000 		.4byte	0x4ce
 2496 0557 18       		.byte	0x18
 2497 0558 15       		.uleb128 0x15
 2498 0559 723700   		.ascii	"r7\000"
 2499 055c 01       		.byte	0x1
 2500 055d AC       		.byte	0xac
 2501 055e CE040000 		.4byte	0x4ce
 2502 0562 1C       		.byte	0x1c
 2503 0563 15       		.uleb128 0x15
 2504 0564 6C7200   		.ascii	"lr\000"
 2505 0567 01       		.byte	0x1
 2506 0568 AD       		.byte	0xad
 2507 0569 CE040000 		.4byte	0x4ce
 2508 056d 20       		.byte	0x20
 2509 056e 00       		.byte	0
 2510 056f 0A       		.uleb128 0xa
 2511 0570 04       		.byte	0x4
 2512 0571 FD040000 		.4byte	0x4fd
 2513 0575 16       		.uleb128 0x16
 2514 0576 60       		.byte	0x60
 2515 0577 12       		.byte	0x12
 2516 0578 A101     		.2byte	0x1a1
 2517 057a 81060000 		.4byte	0x681
 2518 057e 08       		.uleb128 0x8
 2519 057f 43523100 		.ascii	"CR1\000"
 2520 0583 12       		.byte	0x12
 2521 0584 A201     		.2byte	0x1a2
 2522 0586 E0000000 		.4byte	0xe0
 2523 058a 00       		.byte	0
 2524 058b 08       		.uleb128 0x8
 2525 058c 43523200 		.ascii	"CR2\000"
 2526 0590 12       		.byte	0x12
 2527 0591 A301     		.2byte	0x1a3
 2528 0593 E0000000 		.4byte	0xe0
 2529 0597 04       		.byte	0x4
 2530 0598 09       		.uleb128 0x9
 2531 0599 0C050000 		.4byte	.LASF90
 2532 059d 12       		.byte	0x12
 2533 059e A401     		.2byte	0x1a4
 2534 05a0 E0000000 		.4byte	0xe0
 2535 05a4 08       		.byte	0x8
 2536 05a5 09       		.uleb128 0x9
 2537 05a6 FA030000 		.4byte	.LASF91
 2538 05aa 12       		.byte	0x12
 2539 05ab A501     		.2byte	0x1a5
 2540 05ad E0000000 		.4byte	0xe0
 2541 05b1 0C       		.byte	0xc
 2542 05b2 08       		.uleb128 0x8
 2543 05b3 535200   		.ascii	"SR\000"
 2544 05b6 12       		.byte	0x12
 2545 05b7 A601     		.2byte	0x1a6
 2546 05b9 E0000000 		.4byte	0xe0
ARM GAS  /tmp/cc0aws4r.s 			page 46


 2547 05bd 10       		.byte	0x10
 2548 05be 08       		.uleb128 0x8
 2549 05bf 45475200 		.ascii	"EGR\000"
 2550 05c3 12       		.byte	0x12
 2551 05c4 A701     		.2byte	0x1a7
 2552 05c6 E0000000 		.4byte	0xe0
 2553 05ca 14       		.byte	0x14
 2554 05cb 09       		.uleb128 0x9
 2555 05cc 0E020000 		.4byte	.LASF92
 2556 05d0 12       		.byte	0x12
 2557 05d1 A801     		.2byte	0x1a8
 2558 05d3 E0000000 		.4byte	0xe0
 2559 05d7 18       		.byte	0x18
 2560 05d8 09       		.uleb128 0x9
 2561 05d9 14020000 		.4byte	.LASF93
 2562 05dd 12       		.byte	0x12
 2563 05de A901     		.2byte	0x1a9
 2564 05e0 E0000000 		.4byte	0xe0
 2565 05e4 1C       		.byte	0x1c
 2566 05e5 09       		.uleb128 0x9
 2567 05e6 3F040000 		.4byte	.LASF94
 2568 05ea 12       		.byte	0x12
 2569 05eb AA01     		.2byte	0x1aa
 2570 05ed E0000000 		.4byte	0xe0
 2571 05f1 20       		.byte	0x20
 2572 05f2 08       		.uleb128 0x8
 2573 05f3 434E5400 		.ascii	"CNT\000"
 2574 05f7 12       		.byte	0x12
 2575 05f8 AB01     		.2byte	0x1ab
 2576 05fa E0000000 		.4byte	0xe0
 2577 05fe 24       		.byte	0x24
 2578 05ff 08       		.uleb128 0x8
 2579 0600 50534300 		.ascii	"PSC\000"
 2580 0604 12       		.byte	0x12
 2581 0605 AC01     		.2byte	0x1ac
 2582 0607 E0000000 		.4byte	0xe0
 2583 060b 28       		.byte	0x28
 2584 060c 08       		.uleb128 0x8
 2585 060d 41525200 		.ascii	"ARR\000"
 2586 0611 12       		.byte	0x12
 2587 0612 AD01     		.2byte	0x1ad
 2588 0614 E0000000 		.4byte	0xe0
 2589 0618 2C       		.byte	0x2c
 2590 0619 08       		.uleb128 0x8
 2591 061a 52435200 		.ascii	"RCR\000"
 2592 061e 12       		.byte	0x12
 2593 061f AE01     		.2byte	0x1ae
 2594 0621 E0000000 		.4byte	0xe0
 2595 0625 30       		.byte	0x30
 2596 0626 08       		.uleb128 0x8
 2597 0627 43435200 		.ascii	"CCR\000"
 2598 062b 12       		.byte	0x12
 2599 062c AF01     		.2byte	0x1af
 2600 062e C9040000 		.4byte	0x4c9
 2601 0632 34       		.byte	0x34
 2602 0633 09       		.uleb128 0x9
 2603 0634 D1010000 		.4byte	.LASF95
ARM GAS  /tmp/cc0aws4r.s 			page 47


 2604 0638 12       		.byte	0x12
 2605 0639 B001     		.2byte	0x1b0
 2606 063b E0000000 		.4byte	0xe0
 2607 063f 44       		.byte	0x44
 2608 0640 08       		.uleb128 0x8
 2609 0641 44435200 		.ascii	"DCR\000"
 2610 0645 12       		.byte	0x12
 2611 0646 B101     		.2byte	0x1b1
 2612 0648 E0000000 		.4byte	0xe0
 2613 064c 48       		.byte	0x48
 2614 064d 09       		.uleb128 0x9
 2615 064e 85010000 		.4byte	.LASF96
 2616 0652 12       		.byte	0x12
 2617 0653 B201     		.2byte	0x1b2
 2618 0655 E0000000 		.4byte	0xe0
 2619 0659 4C       		.byte	0x4c
 2620 065a 08       		.uleb128 0x8
 2621 065b 4F5200   		.ascii	"OR\000"
 2622 065e 12       		.byte	0x12
 2623 065f B301     		.2byte	0x1b3
 2624 0661 E0000000 		.4byte	0xe0
 2625 0665 50       		.byte	0x50
 2626 0666 09       		.uleb128 0x9
 2627 0667 1A020000 		.4byte	.LASF97
 2628 066b 12       		.byte	0x12
 2629 066c B401     		.2byte	0x1b4
 2630 066e E0000000 		.4byte	0xe0
 2631 0672 54       		.byte	0x54
 2632 0673 09       		.uleb128 0x9
 2633 0674 C2060000 		.4byte	.LASF98
 2634 0678 12       		.byte	0x12
 2635 0679 B501     		.2byte	0x1b5
 2636 067b A9040000 		.4byte	0x4a9
 2637 067f 58       		.byte	0x58
 2638 0680 00       		.byte	0
 2639 0681 17       		.uleb128 0x17
 2640 0682 06030000 		.4byte	.LASF99
 2641 0686 12       		.byte	0x12
 2642 0687 B601     		.2byte	0x1b6
 2643 0689 75050000 		.4byte	0x575
 2644 068d 18       		.uleb128 0x18
 2645 068e 10       		.byte	0x10
 2646 068f 13       		.byte	0x13
 2647 0690 51       		.byte	0x51
 2648 0691 C6060000 		.4byte	0x6c6
 2649 0695 07       		.uleb128 0x7
 2650 0696 BC020000 		.4byte	.LASF100
 2651 069a 13       		.byte	0x13
 2652 069b 55       		.byte	0x55
 2653 069c 3D010000 		.4byte	0x13d
 2654 06a0 00       		.byte	0
 2655 06a1 07       		.uleb128 0x7
 2656 06a2 B7040000 		.4byte	.LASF101
 2657 06a6 13       		.byte	0x13
 2658 06a7 59       		.byte	0x59
 2659 06a8 57020000 		.4byte	0x257
 2660 06ac 04       		.byte	0x4
ARM GAS  /tmp/cc0aws4r.s 			page 48


 2661 06ad 07       		.uleb128 0x7
 2662 06ae 37020000 		.4byte	.LASF102
 2663 06b2 13       		.byte	0x13
 2664 06b3 5D       		.byte	0x5d
 2665 06b4 39030000 		.4byte	0x339
 2666 06b8 08       		.byte	0x8
 2667 06b9 07       		.uleb128 0x7
 2668 06ba EC000000 		.4byte	.LASF103
 2669 06be 13       		.byte	0x13
 2670 06bf 61       		.byte	0x61
 2671 06c0 B4000000 		.4byte	0xb4
 2672 06c4 0C       		.byte	0xc
 2673 06c5 00       		.byte	0
 2674 06c6 03       		.uleb128 0x3
 2675 06c7 03080000 		.4byte	.LASF104
 2676 06cb 13       		.byte	0x13
 2677 06cc 62       		.byte	0x62
 2678 06cd 8D060000 		.4byte	0x68d
 2679 06d1 19       		.uleb128 0x19
 2680 06d2 0804     		.2byte	0x408
 2681 06d4 13       		.byte	0x13
 2682 06d5 67       		.byte	0x67
 2683 06d6 FF060000 		.4byte	0x6ff
 2684 06da 07       		.uleb128 0x7
 2685 06db 23050000 		.4byte	.LASF105
 2686 06df 13       		.byte	0x13
 2687 06e0 6B       		.byte	0x6b
 2688 06e1 37000000 		.4byte	0x37
 2689 06e5 00       		.byte	0
 2690 06e6 07       		.uleb128 0x7
 2691 06e7 BB050000 		.4byte	.LASF106
 2692 06eb 13       		.byte	0x13
 2693 06ec 6F       		.byte	0x6f
 2694 06ed FF060000 		.4byte	0x6ff
 2695 06f1 04       		.byte	0x4
 2696 06f2 07       		.uleb128 0x7
 2697 06f3 E5040000 		.4byte	.LASF107
 2698 06f7 13       		.byte	0x13
 2699 06f8 73       		.byte	0x73
 2700 06f9 05070000 		.4byte	0x705
 2701 06fd 08       		.byte	0x8
 2702 06fe 00       		.byte	0
 2703 06ff 0A       		.uleb128 0xa
 2704 0700 04       		.byte	0x4
 2705 0701 C6060000 		.4byte	0x6c6
 2706 0705 12       		.uleb128 0x12
 2707 0706 C6060000 		.4byte	0x6c6
 2708 070a 15070000 		.4byte	0x715
 2709 070e 13       		.uleb128 0x13
 2710 070f 92040000 		.4byte	0x492
 2711 0713 3F       		.byte	0x3f
 2712 0714 00       		.byte	0
 2713 0715 03       		.uleb128 0x3
 2714 0716 A8080000 		.4byte	.LASF108
 2715 071a 13       		.byte	0x13
 2716 071b 74       		.byte	0x74
 2717 071c D1060000 		.4byte	0x6d1
ARM GAS  /tmp/cc0aws4r.s 			page 49


 2718 0720 1A       		.uleb128 0x1a
 2719 0721 04       		.byte	0x4
 2720 0722 05       		.byte	0x5
 2721 0723 FA       		.byte	0xfa
 2722 0724 7D070000 		.4byte	0x77d
 2723 0728 1B       		.uleb128 0x1b
 2724 0729 D4020000 		.4byte	.LASF109
 2725 072d 05       		.byte	0x5
 2726 072e 0101     		.2byte	0x101
 2727 0730 1C010000 		.4byte	0x11c
 2728 0734 1B       		.uleb128 0x1b
 2729 0735 6E090000 		.4byte	.LASF110
 2730 0739 05       		.byte	0x5
 2731 073a 0801     		.2byte	0x108
 2732 073c 1C010000 		.4byte	0x11c
 2733 0740 1B       		.uleb128 0x1b
 2734 0741 06010000 		.4byte	.LASF111
 2735 0745 05       		.byte	0x5
 2736 0746 0F01     		.2byte	0x10f
 2737 0748 39030000 		.4byte	0x339
 2738 074c 1B       		.uleb128 0x1b
 2739 074d A2080000 		.4byte	.LASF112
 2740 0751 05       		.byte	0x5
 2741 0752 1601     		.2byte	0x116
 2742 0754 7D070000 		.4byte	0x77d
 2743 0758 1B       		.uleb128 0x1b
 2744 0759 9B080000 		.4byte	.LASF113
 2745 075d 05       		.byte	0x5
 2746 075e 1E01     		.2byte	0x11e
 2747 0760 A8070000 		.4byte	0x7a8
 2748 0764 1B       		.uleb128 0x1b
 2749 0765 40000000 		.4byte	.LASF114
 2750 0769 05       		.byte	0x5
 2751 076a 2701     		.2byte	0x127
 2752 076c DF070000 		.4byte	0x7df
 2753 0770 1B       		.uleb128 0x1b
 2754 0771 3B010000 		.4byte	.LASF115
 2755 0775 05       		.byte	0x5
 2756 0776 2F01     		.2byte	0x12f
 2757 0778 27010000 		.4byte	0x127
 2758 077c 00       		.byte	0
 2759 077d 0A       		.uleb128 0xa
 2760 077e 04       		.byte	0x4
 2761 077f 4C020000 		.4byte	0x24c
 2762 0783 06       		.uleb128 0x6
 2763 0784 E8010000 		.4byte	.LASF116
 2764 0788 0C       		.byte	0xc
 2765 0789 09       		.byte	0x9
 2766 078a 34       		.byte	0x34
 2767 078b A8070000 		.4byte	0x7a8
 2768 078f 07       		.uleb128 0x7
 2769 0790 82000000 		.4byte	.LASF117
 2770 0794 09       		.byte	0x9
 2771 0795 35       		.byte	0x35
 2772 0796 81020000 		.4byte	0x281
 2773 079a 00       		.byte	0
 2774 079b 07       		.uleb128 0x7
ARM GAS  /tmp/cc0aws4r.s 			page 50


 2775 079c 93010000 		.4byte	.LASF118
 2776 07a0 09       		.byte	0x9
 2777 07a1 37       		.byte	0x37
 2778 07a2 32010000 		.4byte	0x132
 2779 07a6 08       		.byte	0x8
 2780 07a7 00       		.byte	0
 2781 07a8 0A       		.uleb128 0xa
 2782 07a9 04       		.byte	0x4
 2783 07aa 83070000 		.4byte	0x783
 2784 07ae 06       		.uleb128 0x6
 2785 07af E6030000 		.4byte	.LASF119
 2786 07b3 10       		.byte	0x10
 2787 07b4 14       		.byte	0x14
 2788 07b5 39       		.byte	0x39
 2789 07b6 DF070000 		.4byte	0x7df
 2790 07ba 07       		.uleb128 0x7
 2791 07bb A5060000 		.4byte	.LASF120
 2792 07bf 14       		.byte	0x14
 2793 07c0 3A       		.byte	0x3a
 2794 07c1 81020000 		.4byte	0x281
 2795 07c5 00       		.byte	0
 2796 07c6 07       		.uleb128 0x7
 2797 07c7 7A000000 		.4byte	.LASF121
 2798 07cb 14       		.byte	0x14
 2799 07cc 3C       		.byte	0x3c
 2800 07cd 57020000 		.4byte	0x257
 2801 07d1 08       		.byte	0x8
 2802 07d2 07       		.uleb128 0x7
 2803 07d3 BA080000 		.4byte	.LASF122
 2804 07d7 14       		.byte	0x14
 2805 07d8 3E       		.byte	0x3e
 2806 07d9 65090000 		.4byte	0x965
 2807 07dd 0C       		.byte	0xc
 2808 07de 00       		.byte	0
 2809 07df 0A       		.uleb128 0xa
 2810 07e0 04       		.byte	0x4
 2811 07e1 AE070000 		.4byte	0x7ae
 2812 07e5 0A       		.uleb128 0xa
 2813 07e6 04       		.byte	0x4
 2814 07e7 F7070000 		.4byte	0x7f7
 2815 07eb 05       		.uleb128 0x5
 2816 07ec E5070000 		.4byte	0x7e5
 2817 07f0 04       		.uleb128 0x4
 2818 07f1 01       		.byte	0x1
 2819 07f2 08       		.byte	0x8
 2820 07f3 47000000 		.4byte	.LASF123
 2821 07f7 0B       		.uleb128 0xb
 2822 07f8 F0070000 		.4byte	0x7f0
 2823 07fc 0A       		.uleb128 0xa
 2824 07fd 04       		.byte	0x4
 2825 07fe D9040000 		.4byte	0x4d9
 2826 0802 0A       		.uleb128 0xa
 2827 0803 04       		.byte	0x4
 2828 0804 40030000 		.4byte	0x340
 2829 0808 12       		.uleb128 0x12
 2830 0809 D9040000 		.4byte	0x4d9
 2831 080d 18080000 		.4byte	0x818
ARM GAS  /tmp/cc0aws4r.s 			page 51


 2832 0811 13       		.uleb128 0x13
 2833 0812 92040000 		.4byte	0x492
 2834 0816 1B       		.byte	0x1b
 2835 0817 00       		.byte	0
 2836 0818 1C       		.uleb128 0x1c
 2837 0819 636800   		.ascii	"ch\000"
 2838 081c 05       		.byte	0x5
 2839 081d 0902     		.2byte	0x209
 2840 081f 35040000 		.4byte	0x435
 2841 0823 18       		.uleb128 0x18
 2842 0824 16       		.byte	0x16
 2843 0825 15       		.byte	0x15
 2844 0826 34       		.byte	0x34
 2845 0827 04090000 		.4byte	0x904
 2846 082b 07       		.uleb128 0x7
 2847 082c 94070000 		.4byte	.LASF125
 2848 0830 15       		.byte	0x15
 2849 0831 35       		.byte	0x35
 2850 0832 04090000 		.4byte	0x904
 2851 0836 00       		.byte	0
 2852 0837 07       		.uleb128 0x7
 2853 0838 A5050000 		.4byte	.LASF126
 2854 083c 15       		.byte	0x15
 2855 083d 36       		.byte	0x36
 2856 083e B4000000 		.4byte	0xb4
 2857 0842 04       		.byte	0x4
 2858 0843 07       		.uleb128 0x7
 2859 0844 EA050000 		.4byte	.LASF127
 2860 0848 15       		.byte	0x15
 2861 0849 37       		.byte	0x37
 2862 084a B4000000 		.4byte	0xb4
 2863 084e 05       		.byte	0x5
 2864 084f 07       		.uleb128 0x7
 2865 0850 7B060000 		.4byte	.LASF128
 2866 0854 15       		.byte	0x15
 2867 0855 38       		.byte	0x38
 2868 0856 BF000000 		.4byte	0xbf
 2869 085a 06       		.byte	0x6
 2870 085b 07       		.uleb128 0x7
 2871 085c 7A010000 		.4byte	.LASF129
 2872 0860 15       		.byte	0x15
 2873 0861 39       		.byte	0x39
 2874 0862 B4000000 		.4byte	0xb4
 2875 0866 08       		.byte	0x8
 2876 0867 07       		.uleb128 0x7
 2877 0868 B2010000 		.4byte	.LASF130
 2878 086c 15       		.byte	0x15
 2879 086d 3A       		.byte	0x3a
 2880 086e B4000000 		.4byte	0xb4
 2881 0872 09       		.byte	0x9
 2882 0873 07       		.uleb128 0x7
 2883 0874 DB020000 		.4byte	.LASF131
 2884 0878 15       		.byte	0x15
 2885 0879 3B       		.byte	0x3b
 2886 087a B4000000 		.4byte	0xb4
 2887 087e 0A       		.byte	0xa
 2888 087f 07       		.uleb128 0x7
ARM GAS  /tmp/cc0aws4r.s 			page 52


 2889 0880 68070000 		.4byte	.LASF132
 2890 0884 15       		.byte	0x15
 2891 0885 3C       		.byte	0x3c
 2892 0886 B4000000 		.4byte	0xb4
 2893 088a 0B       		.byte	0xb
 2894 088b 07       		.uleb128 0x7
 2895 088c 1D040000 		.4byte	.LASF133
 2896 0890 15       		.byte	0x15
 2897 0891 3D       		.byte	0x3d
 2898 0892 B4000000 		.4byte	0xb4
 2899 0896 0C       		.byte	0xc
 2900 0897 07       		.uleb128 0x7
 2901 0898 CD080000 		.4byte	.LASF134
 2902 089c 15       		.byte	0x15
 2903 089d 3E       		.byte	0x3e
 2904 089e B4000000 		.4byte	0xb4
 2905 08a2 0D       		.byte	0xd
 2906 08a3 07       		.uleb128 0x7
 2907 08a4 6D000000 		.4byte	.LASF135
 2908 08a8 15       		.byte	0x15
 2909 08a9 3F       		.byte	0x3f
 2910 08aa B4000000 		.4byte	0xb4
 2911 08ae 0E       		.byte	0xe
 2912 08af 07       		.uleb128 0x7
 2913 08b0 F5000000 		.4byte	.LASF136
 2914 08b4 15       		.byte	0x15
 2915 08b5 40       		.byte	0x40
 2916 08b6 B4000000 		.4byte	0xb4
 2917 08ba 0F       		.byte	0xf
 2918 08bb 07       		.uleb128 0x7
 2919 08bc 28040000 		.4byte	.LASF137
 2920 08c0 15       		.byte	0x15
 2921 08c1 41       		.byte	0x41
 2922 08c2 B4000000 		.4byte	0xb4
 2923 08c6 10       		.byte	0x10
 2924 08c7 07       		.uleb128 0x7
 2925 08c8 CC070000 		.4byte	.LASF138
 2926 08cc 15       		.byte	0x15
 2927 08cd 43       		.byte	0x43
 2928 08ce B4000000 		.4byte	0xb4
 2929 08d2 11       		.byte	0x11
 2930 08d3 07       		.uleb128 0x7
 2931 08d4 42010000 		.4byte	.LASF139
 2932 08d8 15       		.byte	0x15
 2933 08d9 44       		.byte	0x44
 2934 08da B4000000 		.4byte	0xb4
 2935 08de 12       		.byte	0x12
 2936 08df 07       		.uleb128 0x7
 2937 08e0 99050000 		.4byte	.LASF140
 2938 08e4 15       		.byte	0x15
 2939 08e5 45       		.byte	0x45
 2940 08e6 B4000000 		.4byte	0xb4
 2941 08ea 13       		.byte	0x13
 2942 08eb 07       		.uleb128 0x7
 2943 08ec F7020000 		.4byte	.LASF141
 2944 08f0 15       		.byte	0x15
 2945 08f1 46       		.byte	0x46
ARM GAS  /tmp/cc0aws4r.s 			page 53


 2946 08f2 B4000000 		.4byte	0xb4
 2947 08f6 14       		.byte	0x14
 2948 08f7 07       		.uleb128 0x7
 2949 08f8 5C070000 		.4byte	.LASF142
 2950 08fc 15       		.byte	0x15
 2951 08fd 48       		.byte	0x48
 2952 08fe B4000000 		.4byte	0xb4
 2953 0902 15       		.byte	0x15
 2954 0903 00       		.byte	0
 2955 0904 12       		.uleb128 0x12
 2956 0905 F0070000 		.4byte	0x7f0
 2957 0909 14090000 		.4byte	0x914
 2958 090d 13       		.uleb128 0x13
 2959 090e 92040000 		.4byte	0x492
 2960 0912 03       		.byte	0x3
 2961 0913 00       		.byte	0
 2962 0914 03       		.uleb128 0x3
 2963 0915 30060000 		.4byte	.LASF143
 2964 0919 15       		.byte	0x15
 2965 091a 49       		.byte	0x49
 2966 091b 23080000 		.4byte	0x823
 2967 091f 0B       		.uleb128 0xb
 2968 0920 14090000 		.4byte	0x914
 2969 0924 14       		.uleb128 0x14
 2970 0925 1A090000 		.4byte	.LASF144
 2971 0929 15       		.byte	0x15
 2972 092a 6E       		.byte	0x6e
 2973 092b 1F090000 		.4byte	0x91f
 2974 092f 03       		.uleb128 0x3
 2975 0930 80020000 		.4byte	.LASF145
 2976 0934 09       		.byte	0x9
 2977 0935 38       		.byte	0x38
 2978 0936 83070000 		.4byte	0x783
 2979 093a 18       		.uleb128 0x18
 2980 093b 0C       		.byte	0xc
 2981 093c 0A       		.byte	0xa
 2982 093d 4B       		.byte	0x4b
 2983 093e 4F090000 		.4byte	0x94f
 2984 0942 07       		.uleb128 0x7
 2985 0943 63080000 		.4byte	.LASF146
 2986 0947 0A       		.byte	0xa
 2987 0948 4C       		.byte	0x4c
 2988 0949 2F090000 		.4byte	0x92f
 2989 094d 00       		.byte	0
 2990 094e 00       		.byte	0
 2991 094f 03       		.uleb128 0x3
 2992 0950 5B090000 		.4byte	.LASF147
 2993 0954 0A       		.byte	0xa
 2994 0955 4D       		.byte	0x4d
 2995 0956 3A090000 		.4byte	0x93a
 2996 095a 03       		.uleb128 0x3
 2997 095b 12080000 		.4byte	.LASF148
 2998 095f 14       		.byte	0x14
 2999 0960 34       		.byte	0x34
 3000 0961 AE070000 		.4byte	0x7ae
 3001 0965 0A       		.uleb128 0xa
 3002 0966 04       		.byte	0x4
ARM GAS  /tmp/cc0aws4r.s 			page 54


 3003 0967 5A090000 		.4byte	0x95a
 3004 096b 04       		.uleb128 0x4
 3005 096c 01       		.byte	0x1
 3006 096d 02       		.byte	0x2
 3007 096e 12030000 		.4byte	.LASF149
 3008 0972 06       		.uleb128 0x6
 3009 0973 6F020000 		.4byte	.LASF150
 3010 0977 10       		.byte	0x10
 3011 0978 17       		.byte	0x17
 3012 0979 3B       		.byte	0x3b
 3013 097a AF090000 		.4byte	0x9af
 3014 097e 07       		.uleb128 0x7
 3015 097f 7E070000 		.4byte	.LASF151
 3016 0983 17       		.byte	0x17
 3017 0984 3C       		.byte	0x3c
 3018 0985 E5070000 		.4byte	0x7e5
 3019 0989 00       		.byte	0
 3020 098a 07       		.uleb128 0x7
 3021 098b 35080000 		.4byte	.LASF152
 3022 098f 17       		.byte	0x17
 3023 0990 3D       		.byte	0x3d
 3024 0991 B5090000 		.4byte	0x9b5
 3025 0995 04       		.byte	0x4
 3026 0996 07       		.uleb128 0x7
 3027 0997 78050000 		.4byte	.LASF153
 3028 099b 17       		.byte	0x17
 3029 099c 3E       		.byte	0x3e
 3030 099d B5090000 		.4byte	0x9b5
 3031 09a1 08       		.byte	0x8
 3032 09a2 07       		.uleb128 0x7
 3033 09a3 1B050000 		.4byte	.LASF154
 3034 09a7 17       		.byte	0x17
 3035 09a8 3F       		.byte	0x3f
 3036 09a9 B5090000 		.4byte	0x9b5
 3037 09ad 0C       		.byte	0xc
 3038 09ae 00       		.byte	0
 3039 09af 0B       		.uleb128 0xb
 3040 09b0 72090000 		.4byte	0x972
 3041 09b4 1D       		.uleb128 0x1d
 3042 09b5 0A       		.uleb128 0xa
 3043 09b6 04       		.byte	0x4
 3044 09b7 B4090000 		.4byte	0x9b4
 3045 09bb 19       		.uleb128 0x19
 3046 09bc 9006     		.2byte	0x690
 3047 09be 17       		.byte	0x17
 3048 09bf 44       		.byte	0x44
 3049 09c0 000A0000 		.4byte	0xa00
 3050 09c4 15       		.uleb128 0x15
 3051 09c5 543000   		.ascii	"T0\000"
 3052 09c8 17       		.byte	0x17
 3053 09c9 45       		.byte	0x45
 3054 09ca 000A0000 		.4byte	0xa00
 3055 09ce 00       		.byte	0
 3056 09cf 1E       		.uleb128 0x1e
 3057 09d0 543100   		.ascii	"T1\000"
 3058 09d3 17       		.byte	0x17
 3059 09d4 46       		.byte	0x46
ARM GAS  /tmp/cc0aws4r.s 			page 55


 3060 09d5 000A0000 		.4byte	0xa00
 3061 09d9 5001     		.2byte	0x150
 3062 09db 1E       		.uleb128 0x1e
 3063 09dc 543200   		.ascii	"T2\000"
 3064 09df 17       		.byte	0x17
 3065 09e0 47       		.byte	0x47
 3066 09e1 000A0000 		.4byte	0xa00
 3067 09e5 A002     		.2byte	0x2a0
 3068 09e7 1E       		.uleb128 0x1e
 3069 09e8 543300   		.ascii	"T3\000"
 3070 09eb 17       		.byte	0x17
 3071 09ec 48       		.byte	0x48
 3072 09ed 000A0000 		.4byte	0xa00
 3073 09f1 F003     		.2byte	0x3f0
 3074 09f3 1E       		.uleb128 0x1e
 3075 09f4 543400   		.ascii	"T4\000"
 3076 09f7 17       		.byte	0x17
 3077 09f8 49       		.byte	0x49
 3078 09f9 000A0000 		.4byte	0xa00
 3079 09fd 4005     		.2byte	0x540
 3080 09ff 00       		.byte	0
 3081 0a00 12       		.uleb128 0x12
 3082 0a01 D9040000 		.4byte	0x4d9
 3083 0a05 100A0000 		.4byte	0xa10
 3084 0a09 13       		.uleb128 0x13
 3085 0a0a 92040000 		.4byte	0x492
 3086 0a0e 29       		.byte	0x29
 3087 0a0f 00       		.byte	0
 3088 0a10 1F       		.uleb128 0x1f
 3089 0a11 6A080000 		.4byte	.LASF204
 3090 0a15 9006     		.2byte	0x690
 3091 0a17 17       		.byte	0x17
 3092 0a18 43       		.byte	0x43
 3093 0a19 330A0000 		.4byte	0xa33
 3094 0a1d 20       		.uleb128 0x20
 3095 0a1e 776100   		.ascii	"wa\000"
 3096 0a21 17       		.byte	0x17
 3097 0a22 4A       		.byte	0x4a
 3098 0a23 BB090000 		.4byte	0x9bb
 3099 0a27 21       		.uleb128 0x21
 3100 0a28 66000000 		.4byte	.LASF155
 3101 0a2c 17       		.byte	0x17
 3102 0a2d 4B       		.byte	0x4b
 3103 0a2e 330A0000 		.4byte	0xa33
 3104 0a32 00       		.byte	0
 3105 0a33 12       		.uleb128 0x12
 3106 0a34 B4000000 		.4byte	0xb4
 3107 0a38 440A0000 		.4byte	0xa44
 3108 0a3c 22       		.uleb128 0x22
 3109 0a3d 92040000 		.4byte	0x492
 3110 0a41 8F06     		.2byte	0x68f
 3111 0a43 00       		.byte	0
 3112 0a44 14       		.uleb128 0x14
 3113 0a45 41020000 		.4byte	.LASF156
 3114 0a49 17       		.byte	0x17
 3115 0a4a 4F       		.byte	0x4f
 3116 0a4b 6B090000 		.4byte	0x96b
ARM GAS  /tmp/cc0aws4r.s 			page 56


 3117 0a4f 12       		.uleb128 0x12
 3118 0a50 57020000 		.4byte	0x257
 3119 0a54 5F0A0000 		.4byte	0xa5f
 3120 0a58 13       		.uleb128 0x13
 3121 0a59 92040000 		.4byte	0x492
 3122 0a5d 04       		.byte	0x4
 3123 0a5e 00       		.byte	0
 3124 0a5f 14       		.uleb128 0x14
 3125 0a60 E6070000 		.4byte	.LASF157
 3126 0a64 17       		.byte	0x17
 3127 0a65 A7       		.byte	0xa7
 3128 0a66 4F0A0000 		.4byte	0xa4f
 3129 0a6a 14       		.uleb128 0x14
 3130 0a6b 01010000 		.4byte	.LASF158
 3131 0a6f 17       		.byte	0x17
 3132 0a70 A8       		.byte	0xa8
 3133 0a71 100A0000 		.4byte	0xa10
 3134 0a75 12       		.uleb128 0x12
 3135 0a76 3B030000 		.4byte	0x33b
 3136 0a7a 800A0000 		.4byte	0xa80
 3137 0a7e 23       		.uleb128 0x23
 3138 0a7f 00       		.byte	0
 3139 0a80 0B       		.uleb128 0xb
 3140 0a81 750A0000 		.4byte	0xa75
 3141 0a85 24       		.uleb128 0x24
 3142 0a86 776100   		.ascii	"wa\000"
 3143 0a89 17       		.byte	0x17
 3144 0a8a A9       		.byte	0xa9
 3145 0a8b 800A0000 		.4byte	0xa80
 3146 0a8f 14       		.uleb128 0x14
 3147 0a90 3F090000 		.4byte	.LASF159
 3148 0a94 17       		.byte	0x17
 3149 0a95 AA       		.byte	0xaa
 3150 0a96 6B090000 		.4byte	0x96b
 3151 0a9a 25       		.uleb128 0x25
 3152 0a9b 8A000000 		.4byte	.LASF165
 3153 0a9f 0B       		.byte	0xb
 3154 0aa0 3B       		.byte	0x3b
 3155 0aa1 2F090000 		.4byte	0x92f
 3156 0aa5 05       		.uleb128 0x5
 3157 0aa6 03       		.byte	0x3
 3158 0aa7 00000000 		.4byte	sem1
 3159 0aab 26       		.uleb128 0x26
 3160 0aac 43060000 		.4byte	.LASF160
 3161 0ab0 0B       		.byte	0xb
 3162 0ab1 6E       		.byte	0x6e
 3163 0ab2 AF090000 		.4byte	0x9af
 3164 0ab6 05       		.uleb128 0x5
 3165 0ab7 03       		.byte	0x3
 3166 0ab8 00000000 		.4byte	testsem1
 3167 0abc 26       		.uleb128 0x26
 3168 0abd 4C060000 		.4byte	.LASF161
 3169 0ac1 0B       		.byte	0xb
 3170 0ac2 B7       		.byte	0xb7
 3171 0ac3 AF090000 		.4byte	0x9af
 3172 0ac7 05       		.uleb128 0x5
 3173 0ac8 03       		.byte	0x3
ARM GAS  /tmp/cc0aws4r.s 			page 57


 3174 0ac9 00000000 		.4byte	testsem2
 3175 0acd 26       		.uleb128 0x26
 3176 0ace 55060000 		.4byte	.LASF162
 3177 0ad2 0B       		.byte	0xb
 3178 0ad3 E2       		.byte	0xe2
 3179 0ad4 AF090000 		.4byte	0x9af
 3180 0ad8 05       		.uleb128 0x5
 3181 0ad9 03       		.byte	0x3
 3182 0ada 00000000 		.4byte	testsem3
 3183 0ade 27       		.uleb128 0x27
 3184 0adf 5E060000 		.4byte	.LASF163
 3185 0ae3 0B       		.byte	0xb
 3186 0ae4 1401     		.2byte	0x114
 3187 0ae6 AF090000 		.4byte	0x9af
 3188 0aea 05       		.uleb128 0x5
 3189 0aeb 03       		.byte	0x3
 3190 0aec 00000000 		.4byte	testsem4
 3191 0af0 12       		.uleb128 0x12
 3192 0af1 0B0B0000 		.4byte	0xb0b
 3193 0af5 000B0000 		.4byte	0xb00
 3194 0af9 13       		.uleb128 0x13
 3195 0afa 92040000 		.4byte	0x492
 3196 0afe 04       		.byte	0x4
 3197 0aff 00       		.byte	0
 3198 0b00 0B       		.uleb128 0xb
 3199 0b01 F00A0000 		.4byte	0xaf0
 3200 0b05 0A       		.uleb128 0xa
 3201 0b06 04       		.byte	0x4
 3202 0b07 AF090000 		.4byte	0x9af
 3203 0b0b 0B       		.uleb128 0xb
 3204 0b0c 050B0000 		.4byte	0xb05
 3205 0b10 27       		.uleb128 0x27
 3206 0b11 25060000 		.4byte	.LASF164
 3207 0b15 0B       		.byte	0xb
 3208 0b16 1F01     		.2byte	0x11f
 3209 0b18 000B0000 		.4byte	0xb00
 3210 0b1c 05       		.uleb128 0x5
 3211 0b1d 03       		.byte	0x3
 3212 0b1e 00000000 		.4byte	patternsem
 3213 0b22 28       		.uleb128 0x28
 3214 0b23 1A080000 		.4byte	.LASF167
 3215 0b27 0B       		.byte	0xb
 3216 0b28 F6       		.byte	0xf6
 3217 0b29 00000000 		.4byte	.LFB162
 3218 0b2d 74010000 		.4byte	.LFE162-.LFB162
 3219 0b31 01       		.uleb128 0x1
 3220 0b32 9C       		.byte	0x9c
 3221 0b33 460B0000 		.4byte	0xb46
 3222 0b37 25       		.uleb128 0x25
 3223 0b38 E0040000 		.4byte	.LASF166
 3224 0b3c 0B       		.byte	0xb
 3225 0b3d F7       		.byte	0xf7
 3226 0b3e 4F090000 		.4byte	0x94f
 3227 0b42 02       		.uleb128 0x2
 3228 0b43 91       		.byte	0x91
 3229 0b44 6C       		.sleb128 -20
 3230 0b45 00       		.byte	0
ARM GAS  /tmp/cc0aws4r.s 			page 58


 3231 0b46 28       		.uleb128 0x28
 3232 0b47 54070000 		.4byte	.LASF168
 3233 0b4b 0B       		.byte	0xb
 3234 0b4c F1       		.byte	0xf1
 3235 0b4d 00000000 		.4byte	.LFB161
 3236 0b51 14000000 		.4byte	.LFE161-.LFB161
 3237 0b55 01       		.uleb128 0x1
 3238 0b56 9C       		.byte	0x9c
 3239 0b57 680B0000 		.4byte	0xb68
 3240 0b5b 29       		.uleb128 0x29
 3241 0b5c 7000     		.ascii	"p\000"
 3242 0b5e 0B       		.byte	0xb
 3243 0b5f F1       		.byte	0xf1
 3244 0b60 39030000 		.4byte	0x339
 3245 0b64 02       		.uleb128 0x2
 3246 0b65 91       		.byte	0x91
 3247 0b66 74       		.sleb128 -12
 3248 0b67 00       		.byte	0
 3249 0b68 2A       		.uleb128 0x2a
 3250 0b69 0D070000 		.4byte	.LASF170
 3251 0b6d 0B       		.byte	0xb
 3252 0b6e D6       		.byte	0xd6
 3253 0b6f 00000000 		.4byte	.LFB160
 3254 0b73 B4000000 		.4byte	.LFE160-.LFB160
 3255 0b77 01       		.uleb128 0x1
 3256 0b78 9C       		.byte	0x9c
 3257 0b79 28       		.uleb128 0x28
 3258 0b7a 4C070000 		.4byte	.LASF169
 3259 0b7e 0B       		.byte	0xb
 3260 0b7f CF       		.byte	0xcf
 3261 0b80 00000000 		.4byte	.LFB159
 3262 0b84 20000000 		.4byte	.LFE159-.LFB159
 3263 0b88 01       		.uleb128 0x1
 3264 0b89 9C       		.byte	0x9c
 3265 0b8a 9B0B0000 		.4byte	0xb9b
 3266 0b8e 29       		.uleb128 0x29
 3267 0b8f 7000     		.ascii	"p\000"
 3268 0b91 0B       		.byte	0xb
 3269 0b92 CF       		.byte	0xcf
 3270 0b93 39030000 		.4byte	0x339
 3271 0b97 02       		.uleb128 0x2
 3272 0b98 91       		.byte	0x91
 3273 0b99 74       		.sleb128 -12
 3274 0b9a 00       		.byte	0
 3275 0b9b 2A       		.uleb128 0x2a
 3276 0b9c DD010000 		.4byte	.LASF171
 3277 0ba0 0B       		.byte	0xb
 3278 0ba1 CA       		.byte	0xca
 3279 0ba2 00000000 		.4byte	.LFB158
 3280 0ba6 14000000 		.4byte	.LFE158-.LFB158
 3281 0baa 01       		.uleb128 0x1
 3282 0bab 9C       		.byte	0x9c
 3283 0bac 28       		.uleb128 0x28
 3284 0bad 1A070000 		.4byte	.LASF172
 3285 0bb1 0B       		.byte	0xb
 3286 0bb2 8F       		.byte	0x8f
 3287 0bb3 00000000 		.4byte	.LFB157
ARM GAS  /tmp/cc0aws4r.s 			page 59


 3288 0bb7 D0010000 		.4byte	.LFE157-.LFB157
 3289 0bbb 01       		.uleb128 0x1
 3290 0bbc 9C       		.byte	0x9c
 3291 0bbd EA0B0000 		.4byte	0xbea
 3292 0bc1 2B       		.uleb128 0x2b
 3293 0bc2 6900     		.ascii	"i\000"
 3294 0bc4 0B       		.byte	0xb
 3295 0bc5 90       		.byte	0x90
 3296 0bc6 25000000 		.4byte	0x25
 3297 0bca 02       		.uleb128 0x2
 3298 0bcb 91       		.byte	0x91
 3299 0bcc 74       		.sleb128 -12
 3300 0bcd 25       		.uleb128 0x25
 3301 0bce A7000000 		.4byte	.LASF173
 3302 0bd2 0B       		.byte	0xb
 3303 0bd3 91       		.byte	0x91
 3304 0bd4 3D010000 		.4byte	0x13d
 3305 0bd8 02       		.uleb128 0x2
 3306 0bd9 91       		.byte	0x91
 3307 0bda 6E       		.sleb128 -18
 3308 0bdb 2B       		.uleb128 0x2b
 3309 0bdc 6D736700 		.ascii	"msg\000"
 3310 0be0 0B       		.byte	0xb
 3311 0be1 92       		.byte	0x92
 3312 0be2 1C010000 		.4byte	0x11c
 3313 0be6 02       		.uleb128 0x2
 3314 0be7 91       		.byte	0x91
 3315 0be8 70       		.sleb128 -16
 3316 0be9 00       		.byte	0
 3317 0bea 28       		.uleb128 0x28
 3318 0beb 44070000 		.4byte	.LASF174
 3319 0bef 0B       		.byte	0xb
 3320 0bf0 85       		.byte	0x85
 3321 0bf1 00000000 		.4byte	.LFB156
 3322 0bf5 30000000 		.4byte	.LFE156-.LFB156
 3323 0bf9 01       		.uleb128 0x1
 3324 0bfa 9C       		.byte	0x9c
 3325 0bfb 0C0C0000 		.4byte	0xc0c
 3326 0bff 29       		.uleb128 0x29
 3327 0c00 7000     		.ascii	"p\000"
 3328 0c02 0B       		.byte	0xb
 3329 0c03 85       		.byte	0x85
 3330 0c04 39030000 		.4byte	0x339
 3331 0c08 02       		.uleb128 0x2
 3332 0c09 91       		.byte	0x91
 3333 0c0a 74       		.sleb128 -12
 3334 0c0b 00       		.byte	0
 3335 0c0c 2A       		.uleb128 0x2a
 3336 0c0d 01050000 		.4byte	.LASF175
 3337 0c11 0B       		.byte	0xb
 3338 0c12 80       		.byte	0x80
 3339 0c13 00000000 		.4byte	.LFB155
 3340 0c17 14000000 		.4byte	.LFE155-.LFB155
 3341 0c1b 01       		.uleb128 0x1
 3342 0c1c 9C       		.byte	0x9c
 3343 0c1d 2A       		.uleb128 0x2a
 3344 0c1e A1040000 		.4byte	.LASF176
ARM GAS  /tmp/cc0aws4r.s 			page 60


 3345 0c22 0B       		.byte	0xb
 3346 0c23 53       		.byte	0x53
 3347 0c24 00000000 		.4byte	.LFB154
 3348 0c28 8C010000 		.4byte	.LFE154-.LFB154
 3349 0c2c 01       		.uleb128 0x1
 3350 0c2d 9C       		.byte	0x9c
 3351 0c2e 28       		.uleb128 0x28
 3352 0c2f 3C070000 		.4byte	.LASF177
 3353 0c33 0B       		.byte	0xb
 3354 0c34 4D       		.byte	0x4d
 3355 0c35 00000000 		.4byte	.LFB153
 3356 0c39 24000000 		.4byte	.LFE153-.LFB153
 3357 0c3d 01       		.uleb128 0x1
 3358 0c3e 9C       		.byte	0x9c
 3359 0c3f 500C0000 		.4byte	0xc50
 3360 0c43 29       		.uleb128 0x29
 3361 0c44 7000     		.ascii	"p\000"
 3362 0c46 0B       		.byte	0xb
 3363 0c47 4D       		.byte	0x4d
 3364 0c48 39030000 		.4byte	0x339
 3365 0c4c 02       		.uleb128 0x2
 3366 0c4d 91       		.byte	0x91
 3367 0c4e 74       		.sleb128 -12
 3368 0c4f 00       		.byte	0
 3369 0c50 2A       		.uleb128 0x2a
 3370 0c51 C7060000 		.4byte	.LASF178
 3371 0c55 0B       		.byte	0xb
 3372 0c56 48       		.byte	0x48
 3373 0c57 00000000 		.4byte	.LFB152
 3374 0c5b 14000000 		.4byte	.LFE152-.LFB152
 3375 0c5f 01       		.uleb128 0x1
 3376 0c60 9C       		.byte	0x9c
 3377 0c61 2C       		.uleb128 0x2c
 3378 0c62 7F080000 		.4byte	.LASF183
 3379 0c66 0A       		.byte	0xa
 3380 0c67 2C01     		.2byte	0x12c
 3381 0c69 6B090000 		.4byte	0x96b
 3382 0c6d 00000000 		.4byte	.LFB123
 3383 0c71 1C000000 		.4byte	.LFE123-.LFB123
 3384 0c75 01       		.uleb128 0x1
 3385 0c76 9C       		.byte	0x9c
 3386 0c77 8B0C0000 		.4byte	0xc8b
 3387 0c7b 2D       		.uleb128 0x2d
 3388 0c7c 62737000 		.ascii	"bsp\000"
 3389 0c80 0A       		.byte	0xa
 3390 0c81 2C01     		.2byte	0x12c
 3391 0c83 8B0C0000 		.4byte	0xc8b
 3392 0c87 02       		.uleb128 0x2
 3393 0c88 91       		.byte	0x91
 3394 0c89 74       		.sleb128 -12
 3395 0c8a 00       		.byte	0
 3396 0c8b 0A       		.uleb128 0xa
 3397 0c8c 04       		.byte	0x4
 3398 0c8d 4F090000 		.4byte	0x94f
 3399 0c91 2E       		.uleb128 0x2e
 3400 0c92 B3000000 		.4byte	.LASF179
 3401 0c96 0A       		.byte	0xa
ARM GAS  /tmp/cc0aws4r.s 			page 61


 3402 0c97 1A01     		.2byte	0x11a
 3403 0c99 00000000 		.4byte	.LFB122
 3404 0c9d 20000000 		.4byte	.LFE122-.LFB122
 3405 0ca1 01       		.uleb128 0x1
 3406 0ca2 9C       		.byte	0x9c
 3407 0ca3 B70C0000 		.4byte	0xcb7
 3408 0ca7 2D       		.uleb128 0x2d
 3409 0ca8 62737000 		.ascii	"bsp\000"
 3410 0cac 0A       		.byte	0xa
 3411 0cad 1A01     		.2byte	0x11a
 3412 0caf 8B0C0000 		.4byte	0xc8b
 3413 0cb3 02       		.uleb128 0x2
 3414 0cb4 91       		.byte	0x91
 3415 0cb5 74       		.sleb128 -12
 3416 0cb6 00       		.byte	0
 3417 0cb7 2E       		.uleb128 0x2e
 3418 0cb8 AD050000 		.4byte	.LASF180
 3419 0cbc 0A       		.byte	0xa
 3420 0cbd 0A01     		.2byte	0x10a
 3421 0cbf 00000000 		.4byte	.LFB121
 3422 0cc3 20000000 		.4byte	.LFE121-.LFB121
 3423 0cc7 01       		.uleb128 0x1
 3424 0cc8 9C       		.byte	0x9c
 3425 0cc9 DD0C0000 		.4byte	0xcdd
 3426 0ccd 2D       		.uleb128 0x2d
 3427 0cce 62737000 		.ascii	"bsp\000"
 3428 0cd2 0A       		.byte	0xa
 3429 0cd3 0A01     		.2byte	0x10a
 3430 0cd5 8B0C0000 		.4byte	0xc8b
 3431 0cd9 02       		.uleb128 0x2
 3432 0cda 91       		.byte	0x91
 3433 0cdb 74       		.sleb128 -12
 3434 0cdc 00       		.byte	0
 3435 0cdd 28       		.uleb128 0x28
 3436 0cde 4F090000 		.4byte	.LASF181
 3437 0ce2 0A       		.byte	0xa
 3438 0ce3 FD       		.byte	0xfd
 3439 0ce4 00000000 		.4byte	.LFB120
 3440 0ce8 28000000 		.4byte	.LFE120-.LFB120
 3441 0cec 01       		.uleb128 0x1
 3442 0ced 9C       		.byte	0x9c
 3443 0cee 0F0D0000 		.4byte	0xd0f
 3444 0cf2 29       		.uleb128 0x29
 3445 0cf3 62737000 		.ascii	"bsp\000"
 3446 0cf7 0A       		.byte	0xa
 3447 0cf8 FD       		.byte	0xfd
 3448 0cf9 8B0C0000 		.4byte	0xc8b
 3449 0cfd 02       		.uleb128 0x2
 3450 0cfe 91       		.byte	0x91
 3451 0cff 74       		.sleb128 -12
 3452 0d00 2F       		.uleb128 0x2f
 3453 0d01 2A000000 		.4byte	.LASF182
 3454 0d05 0A       		.byte	0xa
 3455 0d06 FD       		.byte	0xfd
 3456 0d07 6B090000 		.4byte	0x96b
 3457 0d0b 02       		.uleb128 0x2
 3458 0d0c 91       		.byte	0x91
ARM GAS  /tmp/cc0aws4r.s 			page 62


 3459 0d0d 73       		.sleb128 -13
 3460 0d0e 00       		.byte	0
 3461 0d0f 30       		.uleb128 0x30
 3462 0d10 FB060000 		.4byte	.LASF184
 3463 0d14 0A       		.byte	0xa
 3464 0d15 8D       		.byte	0x8d
 3465 0d16 1C010000 		.4byte	0x11c
 3466 0d1a 00000000 		.4byte	.LFB115
 3467 0d1e 16000000 		.4byte	.LFE115-.LFB115
 3468 0d22 01       		.uleb128 0x1
 3469 0d23 9C       		.byte	0x9c
 3470 0d24 370D0000 		.4byte	0xd37
 3471 0d28 29       		.uleb128 0x29
 3472 0d29 62737000 		.ascii	"bsp\000"
 3473 0d2d 0A       		.byte	0xa
 3474 0d2e 8D       		.byte	0x8d
 3475 0d2f 8B0C0000 		.4byte	0xc8b
 3476 0d33 02       		.uleb128 0x2
 3477 0d34 91       		.byte	0x91
 3478 0d35 74       		.sleb128 -12
 3479 0d36 00       		.byte	0
 3480 0d37 28       		.uleb128 0x28
 3481 0d38 83070000 		.4byte	.LASF185
 3482 0d3c 0A       		.byte	0xa
 3483 0d3d 7C       		.byte	0x7c
 3484 0d3e 00000000 		.4byte	.LFB114
 3485 0d42 28000000 		.4byte	.LFE114-.LFB114
 3486 0d46 01       		.uleb128 0x1
 3487 0d47 9C       		.byte	0x9c
 3488 0d48 690D0000 		.4byte	0xd69
 3489 0d4c 29       		.uleb128 0x29
 3490 0d4d 62737000 		.ascii	"bsp\000"
 3491 0d51 0A       		.byte	0xa
 3492 0d52 7C       		.byte	0x7c
 3493 0d53 8B0C0000 		.4byte	0xc8b
 3494 0d57 02       		.uleb128 0x2
 3495 0d58 91       		.byte	0x91
 3496 0d59 74       		.sleb128 -12
 3497 0d5a 2F       		.uleb128 0x2f
 3498 0d5b 2A000000 		.4byte	.LASF182
 3499 0d5f 0A       		.byte	0xa
 3500 0d60 7C       		.byte	0x7c
 3501 0d61 6B090000 		.4byte	0x96b
 3502 0d65 02       		.uleb128 0x2
 3503 0d66 91       		.byte	0x91
 3504 0d67 73       		.sleb128 -13
 3505 0d68 00       		.byte	0
 3506 0d69 30       		.uleb128 0x30
 3507 0d6a 94020000 		.4byte	.LASF186
 3508 0d6e 09       		.byte	0x9
 3509 0d6f 95       		.byte	0x95
 3510 0d70 32010000 		.4byte	0x132
 3511 0d74 00000000 		.4byte	.LFB113
 3512 0d78 14000000 		.4byte	.LFE113-.LFB113
 3513 0d7c 01       		.uleb128 0x1
 3514 0d7d 9C       		.byte	0x9c
 3515 0d7e 900D0000 		.4byte	0xd90
ARM GAS  /tmp/cc0aws4r.s 			page 63


 3516 0d82 29       		.uleb128 0x29
 3517 0d83 737000   		.ascii	"sp\000"
 3518 0d86 09       		.byte	0x9
 3519 0d87 95       		.byte	0x95
 3520 0d88 900D0000 		.4byte	0xd90
 3521 0d8c 02       		.uleb128 0x2
 3522 0d8d 91       		.byte	0x91
 3523 0d8e 74       		.sleb128 -12
 3524 0d8f 00       		.byte	0
 3525 0d90 0A       		.uleb128 0xa
 3526 0d91 04       		.byte	0x4
 3527 0d92 2F090000 		.4byte	0x92f
 3528 0d96 31       		.uleb128 0x31
 3529 0d97 DF060000 		.4byte	.LASF187
 3530 0d9b 08       		.byte	0x8
 3531 0d9c BB       		.byte	0xbb
 3532 0d9d 11010000 		.4byte	0x111
 3533 0da1 00000000 		.4byte	.LFB100
 3534 0da5 0E000000 		.4byte	.LFE100-.LFB100
 3535 0da9 01       		.uleb128 0x1
 3536 0daa 9C       		.byte	0x9c
 3537 0dab 32       		.uleb128 0x32
 3538 0dac 0C090000 		.4byte	.LASF188
 3539 0db0 08       		.byte	0x8
 3540 0db1 AE       		.byte	0xae
 3541 0db2 57020000 		.4byte	0x257
 3542 0db6 00000000 		.4byte	.LFB99
 3543 0dba 0C000000 		.4byte	.LFE99-.LFB99
 3544 0dbe 01       		.uleb128 0x1
 3545 0dbf 9C       		.byte	0x9c
 3546 0dc0 30       		.uleb128 0x30
 3547 0dc1 50050000 		.4byte	.LASF189
 3548 0dc5 07       		.byte	0x7
 3549 0dc6 F7       		.byte	0xf7
 3550 0dc7 3D010000 		.4byte	0x13d
 3551 0dcb 00000000 		.4byte	.LFB86
 3552 0dcf 24000000 		.4byte	.LFE86-.LFB86
 3553 0dd3 01       		.uleb128 0x1
 3554 0dd4 9C       		.byte	0x9c
 3555 0dd5 E80D0000 		.4byte	0xde8
 3556 0dd9 25       		.uleb128 0x25
 3557 0dda E2050000 		.4byte	.LASF190
 3558 0dde 07       		.byte	0x7
 3559 0ddf F8       		.byte	0xf8
 3560 0de0 3D010000 		.4byte	0x13d
 3561 0de4 02       		.uleb128 0x2
 3562 0de5 91       		.byte	0x91
 3563 0de6 76       		.sleb128 -10
 3564 0de7 00       		.byte	0
 3565 0de8 31       		.uleb128 0x31
 3566 0de9 C0000000 		.4byte	.LASF191
 3567 0ded 07       		.byte	0x7
 3568 0dee E4       		.byte	0xe4
 3569 0def 3D010000 		.4byte	0x13d
 3570 0df3 00000000 		.4byte	.LFB85
 3571 0df7 0C000000 		.4byte	.LFE85-.LFB85
 3572 0dfb 01       		.uleb128 0x1
ARM GAS  /tmp/cc0aws4r.s 			page 64


 3573 0dfc 9C       		.byte	0x9c
 3574 0dfd 2E       		.uleb128 0x2e
 3575 0dfe 63020000 		.4byte	.LASF192
 3576 0e02 06       		.byte	0x6
 3577 0e03 6601     		.2byte	0x166
 3578 0e05 00000000 		.4byte	.LFB78
 3579 0e09 38000000 		.4byte	.LFE78-.LFB78
 3580 0e0d 01       		.uleb128 0x1
 3581 0e0e 9C       		.byte	0x9c
 3582 0e0f 230E0000 		.4byte	0xe23
 3583 0e13 33       		.uleb128 0x33
 3584 0e14 67060000 		.4byte	.LASF205
 3585 0e18 330E0000 		.4byte	0xe33
 3586 0e1c 05       		.uleb128 0x5
 3587 0e1d 03       		.byte	0x3
 3588 0e1e 00000000 		.4byte	__func__.4993
 3589 0e22 00       		.byte	0
 3590 0e23 12       		.uleb128 0x12
 3591 0e24 F7070000 		.4byte	0x7f7
 3592 0e28 330E0000 		.4byte	0xe33
 3593 0e2c 13       		.uleb128 0x13
 3594 0e2d 92040000 		.4byte	0x492
 3595 0e31 0B       		.byte	0xb
 3596 0e32 00       		.byte	0
 3597 0e33 0B       		.uleb128 0xb
 3598 0e34 230E0000 		.4byte	0xe23
 3599 0e38 34       		.uleb128 0x34
 3600 0e39 13040000 		.4byte	.LASF193
 3601 0e3d 06       		.byte	0x6
 3602 0e3e 5A01     		.2byte	0x15a
 3603 0e40 00000000 		.4byte	.LFB77
 3604 0e44 0E000000 		.4byte	.LFE77-.LFB77
 3605 0e48 01       		.uleb128 0x1
 3606 0e49 9C       		.byte	0x9c
 3607 0e4a 35       		.uleb128 0x35
 3608 0e4b FE080000 		.4byte	.LASF194
 3609 0e4f 05       		.byte	0x5
 3610 0e50 6802     		.2byte	0x268
 3611 0e52 6B090000 		.4byte	0x96b
 3612 0e56 00000000 		.4byte	.LFB61
 3613 0e5a 18000000 		.4byte	.LFE61-.LFB61
 3614 0e5e 01       		.uleb128 0x1
 3615 0e5f 9C       		.byte	0x9c
 3616 0e60 740E0000 		.4byte	0xe74
 3617 0e64 2D       		.uleb128 0x2d
 3618 0e65 74717000 		.ascii	"tqp\000"
 3619 0e69 05       		.byte	0x5
 3620 0e6a 6802     		.2byte	0x268
 3621 0e6c 740E0000 		.4byte	0xe74
 3622 0e70 02       		.uleb128 0x2
 3623 0e71 91       		.byte	0x91
 3624 0e72 7C       		.sleb128 -4
 3625 0e73 00       		.byte	0
 3626 0e74 0A       		.uleb128 0xa
 3627 0e75 04       		.byte	0x4
 3628 0e76 8C020000 		.4byte	0x28c
 3629 0e7a 31       		.uleb128 0x31
ARM GAS  /tmp/cc0aws4r.s 			page 65


 3630 0e7b FF030000 		.4byte	.LASF195
 3631 0e7f 04       		.byte	0x4
 3632 0e80 69       		.byte	0x69
 3633 0e81 3D010000 		.4byte	0x13d
 3634 0e85 00000000 		.4byte	.LFB55
 3635 0e89 0C000000 		.4byte	.LFE55-.LFB55
 3636 0e8d 01       		.uleb128 0x1
 3637 0e8e 9C       		.byte	0x9c
 3638 0e8f 32       		.uleb128 0x32
 3639 0e90 FD050000 		.4byte	.LASF196
 3640 0e94 03       		.byte	0x3
 3641 0e95 8B       		.byte	0x8b
 3642 0e96 3D010000 		.4byte	0x13d
 3643 0e9a 00000000 		.4byte	.LFB46
 3644 0e9e 10000000 		.4byte	.LFE46-.LFB46
 3645 0ea2 01       		.uleb128 0x1
 3646 0ea3 9C       		.byte	0x9c
 3647 0ea4 36       		.uleb128 0x36
 3648 0ea5 2B090000 		.4byte	.LASF197
 3649 0ea9 01       		.byte	0x1
 3650 0eaa 5301     		.2byte	0x153
 3651 0eac 00000000 		.4byte	.LFB39
 3652 0eb0 06000000 		.4byte	.LFE39-.LFB39
 3653 0eb4 01       		.uleb128 0x1
 3654 0eb5 9C       		.byte	0x9c
 3655 0eb6 CB0E0000 		.4byte	0xecb
 3656 0eba 37       		.uleb128 0x37
 3657 0ebb FB0E0000 		.4byte	0xefb
 3658 0ebf 00000000 		.4byte	.LBB8
 3659 0ec3 02000000 		.4byte	.LBE8-.LBB8
 3660 0ec7 01       		.byte	0x1
 3661 0ec8 5501     		.2byte	0x155
 3662 0eca 00       		.byte	0
 3663 0ecb 36       		.uleb128 0x36
 3664 0ecc 0D010000 		.4byte	.LASF198
 3665 0ed0 01       		.byte	0x1
 3666 0ed1 4A01     		.2byte	0x14a
 3667 0ed3 00000000 		.4byte	.LFB38
 3668 0ed7 06000000 		.4byte	.LFE38-.LFB38
 3669 0edb 01       		.uleb128 0x1
 3670 0edc 9C       		.byte	0x9c
 3671 0edd F20E0000 		.4byte	0xef2
 3672 0ee1 37       		.uleb128 0x37
 3673 0ee2 F20E0000 		.4byte	0xef2
 3674 0ee6 00000000 		.4byte	.LBB6
 3675 0eea 02000000 		.4byte	.LBE6-.LBB6
 3676 0eee 01       		.byte	0x1
 3677 0eef 4C01     		.2byte	0x14c
 3678 0ef1 00       		.byte	0
 3679 0ef2 38       		.uleb128 0x38
 3680 0ef3 E9020000 		.4byte	.LASF199
 3681 0ef7 02       		.byte	0x2
 3682 0ef8 5601     		.2byte	0x156
 3683 0efa 03       		.byte	0x3
 3684 0efb 38       		.uleb128 0x38
 3685 0efc D2060000 		.4byte	.LASF200
 3686 0f00 02       		.byte	0x2
ARM GAS  /tmp/cc0aws4r.s 			page 66


 3687 0f01 4B01     		.2byte	0x14b
 3688 0f03 03       		.byte	0x3
 3689 0f04 00       		.byte	0
 3690              		.section	.debug_abbrev,"",%progbits
 3691              	.Ldebug_abbrev0:
 3692 0000 01       		.uleb128 0x1
 3693 0001 11       		.uleb128 0x11
 3694 0002 01       		.byte	0x1
 3695 0003 25       		.uleb128 0x25
 3696 0004 0E       		.uleb128 0xe
 3697 0005 13       		.uleb128 0x13
 3698 0006 0B       		.uleb128 0xb
 3699 0007 03       		.uleb128 0x3
 3700 0008 0E       		.uleb128 0xe
 3701 0009 1B       		.uleb128 0x1b
 3702 000a 0E       		.uleb128 0xe
 3703 000b 55       		.uleb128 0x55
 3704 000c 17       		.uleb128 0x17
 3705 000d 11       		.uleb128 0x11
 3706 000e 01       		.uleb128 0x1
 3707 000f 10       		.uleb128 0x10
 3708 0010 17       		.uleb128 0x17
 3709 0011 00       		.byte	0
 3710 0012 00       		.byte	0
 3711 0013 02       		.uleb128 0x2
 3712 0014 24       		.uleb128 0x24
 3713 0015 00       		.byte	0
 3714 0016 0B       		.uleb128 0xb
 3715 0017 0B       		.uleb128 0xb
 3716 0018 3E       		.uleb128 0x3e
 3717 0019 0B       		.uleb128 0xb
 3718 001a 03       		.uleb128 0x3
 3719 001b 08       		.uleb128 0x8
 3720 001c 00       		.byte	0
 3721 001d 00       		.byte	0
 3722 001e 03       		.uleb128 0x3
 3723 001f 16       		.uleb128 0x16
 3724 0020 00       		.byte	0
 3725 0021 03       		.uleb128 0x3
 3726 0022 0E       		.uleb128 0xe
 3727 0023 3A       		.uleb128 0x3a
 3728 0024 0B       		.uleb128 0xb
 3729 0025 3B       		.uleb128 0x3b
 3730 0026 0B       		.uleb128 0xb
 3731 0027 49       		.uleb128 0x49
 3732 0028 13       		.uleb128 0x13
 3733 0029 00       		.byte	0
 3734 002a 00       		.byte	0
 3735 002b 04       		.uleb128 0x4
 3736 002c 24       		.uleb128 0x24
 3737 002d 00       		.byte	0
 3738 002e 0B       		.uleb128 0xb
 3739 002f 0B       		.uleb128 0xb
 3740 0030 3E       		.uleb128 0x3e
 3741 0031 0B       		.uleb128 0xb
 3742 0032 03       		.uleb128 0x3
 3743 0033 0E       		.uleb128 0xe
ARM GAS  /tmp/cc0aws4r.s 			page 67


 3744 0034 00       		.byte	0
 3745 0035 00       		.byte	0
 3746 0036 05       		.uleb128 0x5
 3747 0037 35       		.uleb128 0x35
 3748 0038 00       		.byte	0
 3749 0039 49       		.uleb128 0x49
 3750 003a 13       		.uleb128 0x13
 3751 003b 00       		.byte	0
 3752 003c 00       		.byte	0
 3753 003d 06       		.uleb128 0x6
 3754 003e 13       		.uleb128 0x13
 3755 003f 01       		.byte	0x1
 3756 0040 03       		.uleb128 0x3
 3757 0041 0E       		.uleb128 0xe
 3758 0042 0B       		.uleb128 0xb
 3759 0043 0B       		.uleb128 0xb
 3760 0044 3A       		.uleb128 0x3a
 3761 0045 0B       		.uleb128 0xb
 3762 0046 3B       		.uleb128 0x3b
 3763 0047 0B       		.uleb128 0xb
 3764 0048 01       		.uleb128 0x1
 3765 0049 13       		.uleb128 0x13
 3766 004a 00       		.byte	0
 3767 004b 00       		.byte	0
 3768 004c 07       		.uleb128 0x7
 3769 004d 0D       		.uleb128 0xd
 3770 004e 00       		.byte	0
 3771 004f 03       		.uleb128 0x3
 3772 0050 0E       		.uleb128 0xe
 3773 0051 3A       		.uleb128 0x3a
 3774 0052 0B       		.uleb128 0xb
 3775 0053 3B       		.uleb128 0x3b
 3776 0054 0B       		.uleb128 0xb
 3777 0055 49       		.uleb128 0x49
 3778 0056 13       		.uleb128 0x13
 3779 0057 38       		.uleb128 0x38
 3780 0058 0B       		.uleb128 0xb
 3781 0059 00       		.byte	0
 3782 005a 00       		.byte	0
 3783 005b 08       		.uleb128 0x8
 3784 005c 0D       		.uleb128 0xd
 3785 005d 00       		.byte	0
 3786 005e 03       		.uleb128 0x3
 3787 005f 08       		.uleb128 0x8
 3788 0060 3A       		.uleb128 0x3a
 3789 0061 0B       		.uleb128 0xb
 3790 0062 3B       		.uleb128 0x3b
 3791 0063 05       		.uleb128 0x5
 3792 0064 49       		.uleb128 0x49
 3793 0065 13       		.uleb128 0x13
 3794 0066 38       		.uleb128 0x38
 3795 0067 0B       		.uleb128 0xb
 3796 0068 00       		.byte	0
 3797 0069 00       		.byte	0
 3798 006a 09       		.uleb128 0x9
 3799 006b 0D       		.uleb128 0xd
 3800 006c 00       		.byte	0
ARM GAS  /tmp/cc0aws4r.s 			page 68


 3801 006d 03       		.uleb128 0x3
 3802 006e 0E       		.uleb128 0xe
 3803 006f 3A       		.uleb128 0x3a
 3804 0070 0B       		.uleb128 0xb
 3805 0071 3B       		.uleb128 0x3b
 3806 0072 05       		.uleb128 0x5
 3807 0073 49       		.uleb128 0x49
 3808 0074 13       		.uleb128 0x13
 3809 0075 38       		.uleb128 0x38
 3810 0076 0B       		.uleb128 0xb
 3811 0077 00       		.byte	0
 3812 0078 00       		.byte	0
 3813 0079 0A       		.uleb128 0xa
 3814 007a 0F       		.uleb128 0xf
 3815 007b 00       		.byte	0
 3816 007c 0B       		.uleb128 0xb
 3817 007d 0B       		.uleb128 0xb
 3818 007e 49       		.uleb128 0x49
 3819 007f 13       		.uleb128 0x13
 3820 0080 00       		.byte	0
 3821 0081 00       		.byte	0
 3822 0082 0B       		.uleb128 0xb
 3823 0083 26       		.uleb128 0x26
 3824 0084 00       		.byte	0
 3825 0085 49       		.uleb128 0x49
 3826 0086 13       		.uleb128 0x13
 3827 0087 00       		.byte	0
 3828 0088 00       		.byte	0
 3829 0089 0C       		.uleb128 0xc
 3830 008a 13       		.uleb128 0x13
 3831 008b 01       		.byte	0x1
 3832 008c 03       		.uleb128 0x3
 3833 008d 0E       		.uleb128 0xe
 3834 008e 0B       		.uleb128 0xb
 3835 008f 0B       		.uleb128 0xb
 3836 0090 3A       		.uleb128 0x3a
 3837 0091 0B       		.uleb128 0xb
 3838 0092 3B       		.uleb128 0x3b
 3839 0093 05       		.uleb128 0x5
 3840 0094 01       		.uleb128 0x1
 3841 0095 13       		.uleb128 0x13
 3842 0096 00       		.byte	0
 3843 0097 00       		.byte	0
 3844 0098 0D       		.uleb128 0xd
 3845 0099 15       		.uleb128 0x15
 3846 009a 01       		.byte	0x1
 3847 009b 27       		.uleb128 0x27
 3848 009c 19       		.uleb128 0x19
 3849 009d 01       		.uleb128 0x1
 3850 009e 13       		.uleb128 0x13
 3851 009f 00       		.byte	0
 3852 00a0 00       		.byte	0
 3853 00a1 0E       		.uleb128 0xe
 3854 00a2 05       		.uleb128 0x5
 3855 00a3 00       		.byte	0
 3856 00a4 49       		.uleb128 0x49
 3857 00a5 13       		.uleb128 0x13
ARM GAS  /tmp/cc0aws4r.s 			page 69


 3858 00a6 00       		.byte	0
 3859 00a7 00       		.byte	0
 3860 00a8 0F       		.uleb128 0xf
 3861 00a9 0F       		.uleb128 0xf
 3862 00aa 00       		.byte	0
 3863 00ab 0B       		.uleb128 0xb
 3864 00ac 0B       		.uleb128 0xb
 3865 00ad 00       		.byte	0
 3866 00ae 00       		.byte	0
 3867 00af 10       		.uleb128 0x10
 3868 00b0 13       		.uleb128 0x13
 3869 00b1 01       		.byte	0x1
 3870 00b2 03       		.uleb128 0x3
 3871 00b3 0E       		.uleb128 0xe
 3872 00b4 0B       		.uleb128 0xb
 3873 00b5 05       		.uleb128 0x5
 3874 00b6 3A       		.uleb128 0x3a
 3875 00b7 0B       		.uleb128 0xb
 3876 00b8 3B       		.uleb128 0x3b
 3877 00b9 05       		.uleb128 0x5
 3878 00ba 01       		.uleb128 0x1
 3879 00bb 13       		.uleb128 0x13
 3880 00bc 00       		.byte	0
 3881 00bd 00       		.byte	0
 3882 00be 11       		.uleb128 0x11
 3883 00bf 0D       		.uleb128 0xd
 3884 00c0 00       		.byte	0
 3885 00c1 03       		.uleb128 0x3
 3886 00c2 0E       		.uleb128 0xe
 3887 00c3 3A       		.uleb128 0x3a
 3888 00c4 0B       		.uleb128 0xb
 3889 00c5 3B       		.uleb128 0x3b
 3890 00c6 05       		.uleb128 0x5
 3891 00c7 49       		.uleb128 0x49
 3892 00c8 13       		.uleb128 0x13
 3893 00c9 38       		.uleb128 0x38
 3894 00ca 05       		.uleb128 0x5
 3895 00cb 00       		.byte	0
 3896 00cc 00       		.byte	0
 3897 00cd 12       		.uleb128 0x12
 3898 00ce 01       		.uleb128 0x1
 3899 00cf 01       		.byte	0x1
 3900 00d0 49       		.uleb128 0x49
 3901 00d1 13       		.uleb128 0x13
 3902 00d2 01       		.uleb128 0x1
 3903 00d3 13       		.uleb128 0x13
 3904 00d4 00       		.byte	0
 3905 00d5 00       		.byte	0
 3906 00d6 13       		.uleb128 0x13
 3907 00d7 21       		.uleb128 0x21
 3908 00d8 00       		.byte	0
 3909 00d9 49       		.uleb128 0x49
 3910 00da 13       		.uleb128 0x13
 3911 00db 2F       		.uleb128 0x2f
 3912 00dc 0B       		.uleb128 0xb
 3913 00dd 00       		.byte	0
 3914 00de 00       		.byte	0
ARM GAS  /tmp/cc0aws4r.s 			page 70


 3915 00df 14       		.uleb128 0x14
 3916 00e0 34       		.uleb128 0x34
 3917 00e1 00       		.byte	0
 3918 00e2 03       		.uleb128 0x3
 3919 00e3 0E       		.uleb128 0xe
 3920 00e4 3A       		.uleb128 0x3a
 3921 00e5 0B       		.uleb128 0xb
 3922 00e6 3B       		.uleb128 0x3b
 3923 00e7 0B       		.uleb128 0xb
 3924 00e8 49       		.uleb128 0x49
 3925 00e9 13       		.uleb128 0x13
 3926 00ea 3F       		.uleb128 0x3f
 3927 00eb 19       		.uleb128 0x19
 3928 00ec 3C       		.uleb128 0x3c
 3929 00ed 19       		.uleb128 0x19
 3930 00ee 00       		.byte	0
 3931 00ef 00       		.byte	0
 3932 00f0 15       		.uleb128 0x15
 3933 00f1 0D       		.uleb128 0xd
 3934 00f2 00       		.byte	0
 3935 00f3 03       		.uleb128 0x3
 3936 00f4 08       		.uleb128 0x8
 3937 00f5 3A       		.uleb128 0x3a
 3938 00f6 0B       		.uleb128 0xb
 3939 00f7 3B       		.uleb128 0x3b
 3940 00f8 0B       		.uleb128 0xb
 3941 00f9 49       		.uleb128 0x49
 3942 00fa 13       		.uleb128 0x13
 3943 00fb 38       		.uleb128 0x38
 3944 00fc 0B       		.uleb128 0xb
 3945 00fd 00       		.byte	0
 3946 00fe 00       		.byte	0
 3947 00ff 16       		.uleb128 0x16
 3948 0100 13       		.uleb128 0x13
 3949 0101 01       		.byte	0x1
 3950 0102 0B       		.uleb128 0xb
 3951 0103 0B       		.uleb128 0xb
 3952 0104 3A       		.uleb128 0x3a
 3953 0105 0B       		.uleb128 0xb
 3954 0106 3B       		.uleb128 0x3b
 3955 0107 05       		.uleb128 0x5
 3956 0108 01       		.uleb128 0x1
 3957 0109 13       		.uleb128 0x13
 3958 010a 00       		.byte	0
 3959 010b 00       		.byte	0
 3960 010c 17       		.uleb128 0x17
 3961 010d 16       		.uleb128 0x16
 3962 010e 00       		.byte	0
 3963 010f 03       		.uleb128 0x3
 3964 0110 0E       		.uleb128 0xe
 3965 0111 3A       		.uleb128 0x3a
 3966 0112 0B       		.uleb128 0xb
 3967 0113 3B       		.uleb128 0x3b
 3968 0114 05       		.uleb128 0x5
 3969 0115 49       		.uleb128 0x49
 3970 0116 13       		.uleb128 0x13
 3971 0117 00       		.byte	0
ARM GAS  /tmp/cc0aws4r.s 			page 71


 3972 0118 00       		.byte	0
 3973 0119 18       		.uleb128 0x18
 3974 011a 13       		.uleb128 0x13
 3975 011b 01       		.byte	0x1
 3976 011c 0B       		.uleb128 0xb
 3977 011d 0B       		.uleb128 0xb
 3978 011e 3A       		.uleb128 0x3a
 3979 011f 0B       		.uleb128 0xb
 3980 0120 3B       		.uleb128 0x3b
 3981 0121 0B       		.uleb128 0xb
 3982 0122 01       		.uleb128 0x1
 3983 0123 13       		.uleb128 0x13
 3984 0124 00       		.byte	0
 3985 0125 00       		.byte	0
 3986 0126 19       		.uleb128 0x19
 3987 0127 13       		.uleb128 0x13
 3988 0128 01       		.byte	0x1
 3989 0129 0B       		.uleb128 0xb
 3990 012a 05       		.uleb128 0x5
 3991 012b 3A       		.uleb128 0x3a
 3992 012c 0B       		.uleb128 0xb
 3993 012d 3B       		.uleb128 0x3b
 3994 012e 0B       		.uleb128 0xb
 3995 012f 01       		.uleb128 0x1
 3996 0130 13       		.uleb128 0x13
 3997 0131 00       		.byte	0
 3998 0132 00       		.byte	0
 3999 0133 1A       		.uleb128 0x1a
 4000 0134 17       		.uleb128 0x17
 4001 0135 01       		.byte	0x1
 4002 0136 0B       		.uleb128 0xb
 4003 0137 0B       		.uleb128 0xb
 4004 0138 3A       		.uleb128 0x3a
 4005 0139 0B       		.uleb128 0xb
 4006 013a 3B       		.uleb128 0x3b
 4007 013b 0B       		.uleb128 0xb
 4008 013c 01       		.uleb128 0x1
 4009 013d 13       		.uleb128 0x13
 4010 013e 00       		.byte	0
 4011 013f 00       		.byte	0
 4012 0140 1B       		.uleb128 0x1b
 4013 0141 0D       		.uleb128 0xd
 4014 0142 00       		.byte	0
 4015 0143 03       		.uleb128 0x3
 4016 0144 0E       		.uleb128 0xe
 4017 0145 3A       		.uleb128 0x3a
 4018 0146 0B       		.uleb128 0xb
 4019 0147 3B       		.uleb128 0x3b
 4020 0148 05       		.uleb128 0x5
 4021 0149 49       		.uleb128 0x49
 4022 014a 13       		.uleb128 0x13
 4023 014b 00       		.byte	0
 4024 014c 00       		.byte	0
 4025 014d 1C       		.uleb128 0x1c
 4026 014e 34       		.uleb128 0x34
 4027 014f 00       		.byte	0
 4028 0150 03       		.uleb128 0x3
ARM GAS  /tmp/cc0aws4r.s 			page 72


 4029 0151 08       		.uleb128 0x8
 4030 0152 3A       		.uleb128 0x3a
 4031 0153 0B       		.uleb128 0xb
 4032 0154 3B       		.uleb128 0x3b
 4033 0155 05       		.uleb128 0x5
 4034 0156 49       		.uleb128 0x49
 4035 0157 13       		.uleb128 0x13
 4036 0158 3F       		.uleb128 0x3f
 4037 0159 19       		.uleb128 0x19
 4038 015a 3C       		.uleb128 0x3c
 4039 015b 19       		.uleb128 0x19
 4040 015c 00       		.byte	0
 4041 015d 00       		.byte	0
 4042 015e 1D       		.uleb128 0x1d
 4043 015f 15       		.uleb128 0x15
 4044 0160 00       		.byte	0
 4045 0161 27       		.uleb128 0x27
 4046 0162 19       		.uleb128 0x19
 4047 0163 00       		.byte	0
 4048 0164 00       		.byte	0
 4049 0165 1E       		.uleb128 0x1e
 4050 0166 0D       		.uleb128 0xd
 4051 0167 00       		.byte	0
 4052 0168 03       		.uleb128 0x3
 4053 0169 08       		.uleb128 0x8
 4054 016a 3A       		.uleb128 0x3a
 4055 016b 0B       		.uleb128 0xb
 4056 016c 3B       		.uleb128 0x3b
 4057 016d 0B       		.uleb128 0xb
 4058 016e 49       		.uleb128 0x49
 4059 016f 13       		.uleb128 0x13
 4060 0170 38       		.uleb128 0x38
 4061 0171 05       		.uleb128 0x5
 4062 0172 00       		.byte	0
 4063 0173 00       		.byte	0
 4064 0174 1F       		.uleb128 0x1f
 4065 0175 17       		.uleb128 0x17
 4066 0176 01       		.byte	0x1
 4067 0177 03       		.uleb128 0x3
 4068 0178 0E       		.uleb128 0xe
 4069 0179 0B       		.uleb128 0xb
 4070 017a 05       		.uleb128 0x5
 4071 017b 3A       		.uleb128 0x3a
 4072 017c 0B       		.uleb128 0xb
 4073 017d 3B       		.uleb128 0x3b
 4074 017e 0B       		.uleb128 0xb
 4075 017f 01       		.uleb128 0x1
 4076 0180 13       		.uleb128 0x13
 4077 0181 00       		.byte	0
 4078 0182 00       		.byte	0
 4079 0183 20       		.uleb128 0x20
 4080 0184 0D       		.uleb128 0xd
 4081 0185 00       		.byte	0
 4082 0186 03       		.uleb128 0x3
 4083 0187 08       		.uleb128 0x8
 4084 0188 3A       		.uleb128 0x3a
 4085 0189 0B       		.uleb128 0xb
ARM GAS  /tmp/cc0aws4r.s 			page 73


 4086 018a 3B       		.uleb128 0x3b
 4087 018b 0B       		.uleb128 0xb
 4088 018c 49       		.uleb128 0x49
 4089 018d 13       		.uleb128 0x13
 4090 018e 00       		.byte	0
 4091 018f 00       		.byte	0
 4092 0190 21       		.uleb128 0x21
 4093 0191 0D       		.uleb128 0xd
 4094 0192 00       		.byte	0
 4095 0193 03       		.uleb128 0x3
 4096 0194 0E       		.uleb128 0xe
 4097 0195 3A       		.uleb128 0x3a
 4098 0196 0B       		.uleb128 0xb
 4099 0197 3B       		.uleb128 0x3b
 4100 0198 0B       		.uleb128 0xb
 4101 0199 49       		.uleb128 0x49
 4102 019a 13       		.uleb128 0x13
 4103 019b 00       		.byte	0
 4104 019c 00       		.byte	0
 4105 019d 22       		.uleb128 0x22
 4106 019e 21       		.uleb128 0x21
 4107 019f 00       		.byte	0
 4108 01a0 49       		.uleb128 0x49
 4109 01a1 13       		.uleb128 0x13
 4110 01a2 2F       		.uleb128 0x2f
 4111 01a3 05       		.uleb128 0x5
 4112 01a4 00       		.byte	0
 4113 01a5 00       		.byte	0
 4114 01a6 23       		.uleb128 0x23
 4115 01a7 21       		.uleb128 0x21
 4116 01a8 00       		.byte	0
 4117 01a9 00       		.byte	0
 4118 01aa 00       		.byte	0
 4119 01ab 24       		.uleb128 0x24
 4120 01ac 34       		.uleb128 0x34
 4121 01ad 00       		.byte	0
 4122 01ae 03       		.uleb128 0x3
 4123 01af 08       		.uleb128 0x8
 4124 01b0 3A       		.uleb128 0x3a
 4125 01b1 0B       		.uleb128 0xb
 4126 01b2 3B       		.uleb128 0x3b
 4127 01b3 0B       		.uleb128 0xb
 4128 01b4 49       		.uleb128 0x49
 4129 01b5 13       		.uleb128 0x13
 4130 01b6 3F       		.uleb128 0x3f
 4131 01b7 19       		.uleb128 0x19
 4132 01b8 3C       		.uleb128 0x3c
 4133 01b9 19       		.uleb128 0x19
 4134 01ba 00       		.byte	0
 4135 01bb 00       		.byte	0
 4136 01bc 25       		.uleb128 0x25
 4137 01bd 34       		.uleb128 0x34
 4138 01be 00       		.byte	0
 4139 01bf 03       		.uleb128 0x3
 4140 01c0 0E       		.uleb128 0xe
 4141 01c1 3A       		.uleb128 0x3a
 4142 01c2 0B       		.uleb128 0xb
ARM GAS  /tmp/cc0aws4r.s 			page 74


 4143 01c3 3B       		.uleb128 0x3b
 4144 01c4 0B       		.uleb128 0xb
 4145 01c5 49       		.uleb128 0x49
 4146 01c6 13       		.uleb128 0x13
 4147 01c7 02       		.uleb128 0x2
 4148 01c8 18       		.uleb128 0x18
 4149 01c9 00       		.byte	0
 4150 01ca 00       		.byte	0
 4151 01cb 26       		.uleb128 0x26
 4152 01cc 34       		.uleb128 0x34
 4153 01cd 00       		.byte	0
 4154 01ce 03       		.uleb128 0x3
 4155 01cf 0E       		.uleb128 0xe
 4156 01d0 3A       		.uleb128 0x3a
 4157 01d1 0B       		.uleb128 0xb
 4158 01d2 3B       		.uleb128 0x3b
 4159 01d3 0B       		.uleb128 0xb
 4160 01d4 49       		.uleb128 0x49
 4161 01d5 13       		.uleb128 0x13
 4162 01d6 3F       		.uleb128 0x3f
 4163 01d7 19       		.uleb128 0x19
 4164 01d8 02       		.uleb128 0x2
 4165 01d9 18       		.uleb128 0x18
 4166 01da 00       		.byte	0
 4167 01db 00       		.byte	0
 4168 01dc 27       		.uleb128 0x27
 4169 01dd 34       		.uleb128 0x34
 4170 01de 00       		.byte	0
 4171 01df 03       		.uleb128 0x3
 4172 01e0 0E       		.uleb128 0xe
 4173 01e1 3A       		.uleb128 0x3a
 4174 01e2 0B       		.uleb128 0xb
 4175 01e3 3B       		.uleb128 0x3b
 4176 01e4 05       		.uleb128 0x5
 4177 01e5 49       		.uleb128 0x49
 4178 01e6 13       		.uleb128 0x13
 4179 01e7 3F       		.uleb128 0x3f
 4180 01e8 19       		.uleb128 0x19
 4181 01e9 02       		.uleb128 0x2
 4182 01ea 18       		.uleb128 0x18
 4183 01eb 00       		.byte	0
 4184 01ec 00       		.byte	0
 4185 01ed 28       		.uleb128 0x28
 4186 01ee 2E       		.uleb128 0x2e
 4187 01ef 01       		.byte	0x1
 4188 01f0 03       		.uleb128 0x3
 4189 01f1 0E       		.uleb128 0xe
 4190 01f2 3A       		.uleb128 0x3a
 4191 01f3 0B       		.uleb128 0xb
 4192 01f4 3B       		.uleb128 0x3b
 4193 01f5 0B       		.uleb128 0xb
 4194 01f6 27       		.uleb128 0x27
 4195 01f7 19       		.uleb128 0x19
 4196 01f8 11       		.uleb128 0x11
 4197 01f9 01       		.uleb128 0x1
 4198 01fa 12       		.uleb128 0x12
 4199 01fb 06       		.uleb128 0x6
ARM GAS  /tmp/cc0aws4r.s 			page 75


 4200 01fc 40       		.uleb128 0x40
 4201 01fd 18       		.uleb128 0x18
 4202 01fe 9642     		.uleb128 0x2116
 4203 0200 19       		.uleb128 0x19
 4204 0201 01       		.uleb128 0x1
 4205 0202 13       		.uleb128 0x13
 4206 0203 00       		.byte	0
 4207 0204 00       		.byte	0
 4208 0205 29       		.uleb128 0x29
 4209 0206 05       		.uleb128 0x5
 4210 0207 00       		.byte	0
 4211 0208 03       		.uleb128 0x3
 4212 0209 08       		.uleb128 0x8
 4213 020a 3A       		.uleb128 0x3a
 4214 020b 0B       		.uleb128 0xb
 4215 020c 3B       		.uleb128 0x3b
 4216 020d 0B       		.uleb128 0xb
 4217 020e 49       		.uleb128 0x49
 4218 020f 13       		.uleb128 0x13
 4219 0210 02       		.uleb128 0x2
 4220 0211 18       		.uleb128 0x18
 4221 0212 00       		.byte	0
 4222 0213 00       		.byte	0
 4223 0214 2A       		.uleb128 0x2a
 4224 0215 2E       		.uleb128 0x2e
 4225 0216 00       		.byte	0
 4226 0217 03       		.uleb128 0x3
 4227 0218 0E       		.uleb128 0xe
 4228 0219 3A       		.uleb128 0x3a
 4229 021a 0B       		.uleb128 0xb
 4230 021b 3B       		.uleb128 0x3b
 4231 021c 0B       		.uleb128 0xb
 4232 021d 27       		.uleb128 0x27
 4233 021e 19       		.uleb128 0x19
 4234 021f 11       		.uleb128 0x11
 4235 0220 01       		.uleb128 0x1
 4236 0221 12       		.uleb128 0x12
 4237 0222 06       		.uleb128 0x6
 4238 0223 40       		.uleb128 0x40
 4239 0224 18       		.uleb128 0x18
 4240 0225 9642     		.uleb128 0x2116
 4241 0227 19       		.uleb128 0x19
 4242 0228 00       		.byte	0
 4243 0229 00       		.byte	0
 4244 022a 2B       		.uleb128 0x2b
 4245 022b 34       		.uleb128 0x34
 4246 022c 00       		.byte	0
 4247 022d 03       		.uleb128 0x3
 4248 022e 08       		.uleb128 0x8
 4249 022f 3A       		.uleb128 0x3a
 4250 0230 0B       		.uleb128 0xb
 4251 0231 3B       		.uleb128 0x3b
 4252 0232 0B       		.uleb128 0xb
 4253 0233 49       		.uleb128 0x49
 4254 0234 13       		.uleb128 0x13
 4255 0235 02       		.uleb128 0x2
 4256 0236 18       		.uleb128 0x18
ARM GAS  /tmp/cc0aws4r.s 			page 76


 4257 0237 00       		.byte	0
 4258 0238 00       		.byte	0
 4259 0239 2C       		.uleb128 0x2c
 4260 023a 2E       		.uleb128 0x2e
 4261 023b 01       		.byte	0x1
 4262 023c 03       		.uleb128 0x3
 4263 023d 0E       		.uleb128 0xe
 4264 023e 3A       		.uleb128 0x3a
 4265 023f 0B       		.uleb128 0xb
 4266 0240 3B       		.uleb128 0x3b
 4267 0241 05       		.uleb128 0x5
 4268 0242 27       		.uleb128 0x27
 4269 0243 19       		.uleb128 0x19
 4270 0244 49       		.uleb128 0x49
 4271 0245 13       		.uleb128 0x13
 4272 0246 11       		.uleb128 0x11
 4273 0247 01       		.uleb128 0x1
 4274 0248 12       		.uleb128 0x12
 4275 0249 06       		.uleb128 0x6
 4276 024a 40       		.uleb128 0x40
 4277 024b 18       		.uleb128 0x18
 4278 024c 9642     		.uleb128 0x2116
 4279 024e 19       		.uleb128 0x19
 4280 024f 01       		.uleb128 0x1
 4281 0250 13       		.uleb128 0x13
 4282 0251 00       		.byte	0
 4283 0252 00       		.byte	0
 4284 0253 2D       		.uleb128 0x2d
 4285 0254 05       		.uleb128 0x5
 4286 0255 00       		.byte	0
 4287 0256 03       		.uleb128 0x3
 4288 0257 08       		.uleb128 0x8
 4289 0258 3A       		.uleb128 0x3a
 4290 0259 0B       		.uleb128 0xb
 4291 025a 3B       		.uleb128 0x3b
 4292 025b 05       		.uleb128 0x5
 4293 025c 49       		.uleb128 0x49
 4294 025d 13       		.uleb128 0x13
 4295 025e 02       		.uleb128 0x2
 4296 025f 18       		.uleb128 0x18
 4297 0260 00       		.byte	0
 4298 0261 00       		.byte	0
 4299 0262 2E       		.uleb128 0x2e
 4300 0263 2E       		.uleb128 0x2e
 4301 0264 01       		.byte	0x1
 4302 0265 03       		.uleb128 0x3
 4303 0266 0E       		.uleb128 0xe
 4304 0267 3A       		.uleb128 0x3a
 4305 0268 0B       		.uleb128 0xb
 4306 0269 3B       		.uleb128 0x3b
 4307 026a 05       		.uleb128 0x5
 4308 026b 27       		.uleb128 0x27
 4309 026c 19       		.uleb128 0x19
 4310 026d 11       		.uleb128 0x11
 4311 026e 01       		.uleb128 0x1
 4312 026f 12       		.uleb128 0x12
 4313 0270 06       		.uleb128 0x6
ARM GAS  /tmp/cc0aws4r.s 			page 77


 4314 0271 40       		.uleb128 0x40
 4315 0272 18       		.uleb128 0x18
 4316 0273 9642     		.uleb128 0x2116
 4317 0275 19       		.uleb128 0x19
 4318 0276 01       		.uleb128 0x1
 4319 0277 13       		.uleb128 0x13
 4320 0278 00       		.byte	0
 4321 0279 00       		.byte	0
 4322 027a 2F       		.uleb128 0x2f
 4323 027b 05       		.uleb128 0x5
 4324 027c 00       		.byte	0
 4325 027d 03       		.uleb128 0x3
 4326 027e 0E       		.uleb128 0xe
 4327 027f 3A       		.uleb128 0x3a
 4328 0280 0B       		.uleb128 0xb
 4329 0281 3B       		.uleb128 0x3b
 4330 0282 0B       		.uleb128 0xb
 4331 0283 49       		.uleb128 0x49
 4332 0284 13       		.uleb128 0x13
 4333 0285 02       		.uleb128 0x2
 4334 0286 18       		.uleb128 0x18
 4335 0287 00       		.byte	0
 4336 0288 00       		.byte	0
 4337 0289 30       		.uleb128 0x30
 4338 028a 2E       		.uleb128 0x2e
 4339 028b 01       		.byte	0x1
 4340 028c 03       		.uleb128 0x3
 4341 028d 0E       		.uleb128 0xe
 4342 028e 3A       		.uleb128 0x3a
 4343 028f 0B       		.uleb128 0xb
 4344 0290 3B       		.uleb128 0x3b
 4345 0291 0B       		.uleb128 0xb
 4346 0292 27       		.uleb128 0x27
 4347 0293 19       		.uleb128 0x19
 4348 0294 49       		.uleb128 0x49
 4349 0295 13       		.uleb128 0x13
 4350 0296 11       		.uleb128 0x11
 4351 0297 01       		.uleb128 0x1
 4352 0298 12       		.uleb128 0x12
 4353 0299 06       		.uleb128 0x6
 4354 029a 40       		.uleb128 0x40
 4355 029b 18       		.uleb128 0x18
 4356 029c 9642     		.uleb128 0x2116
 4357 029e 19       		.uleb128 0x19
 4358 029f 01       		.uleb128 0x1
 4359 02a0 13       		.uleb128 0x13
 4360 02a1 00       		.byte	0
 4361 02a2 00       		.byte	0
 4362 02a3 31       		.uleb128 0x31
 4363 02a4 2E       		.uleb128 0x2e
 4364 02a5 00       		.byte	0
 4365 02a6 03       		.uleb128 0x3
 4366 02a7 0E       		.uleb128 0xe
 4367 02a8 3A       		.uleb128 0x3a
 4368 02a9 0B       		.uleb128 0xb
 4369 02aa 3B       		.uleb128 0x3b
 4370 02ab 0B       		.uleb128 0xb
ARM GAS  /tmp/cc0aws4r.s 			page 78


 4371 02ac 27       		.uleb128 0x27
 4372 02ad 19       		.uleb128 0x19
 4373 02ae 49       		.uleb128 0x49
 4374 02af 13       		.uleb128 0x13
 4375 02b0 11       		.uleb128 0x11
 4376 02b1 01       		.uleb128 0x1
 4377 02b2 12       		.uleb128 0x12
 4378 02b3 06       		.uleb128 0x6
 4379 02b4 40       		.uleb128 0x40
 4380 02b5 18       		.uleb128 0x18
 4381 02b6 9642     		.uleb128 0x2116
 4382 02b8 19       		.uleb128 0x19
 4383 02b9 00       		.byte	0
 4384 02ba 00       		.byte	0
 4385 02bb 32       		.uleb128 0x32
 4386 02bc 2E       		.uleb128 0x2e
 4387 02bd 00       		.byte	0
 4388 02be 03       		.uleb128 0x3
 4389 02bf 0E       		.uleb128 0xe
 4390 02c0 3A       		.uleb128 0x3a
 4391 02c1 0B       		.uleb128 0xb
 4392 02c2 3B       		.uleb128 0x3b
 4393 02c3 0B       		.uleb128 0xb
 4394 02c4 27       		.uleb128 0x27
 4395 02c5 19       		.uleb128 0x19
 4396 02c6 49       		.uleb128 0x49
 4397 02c7 13       		.uleb128 0x13
 4398 02c8 11       		.uleb128 0x11
 4399 02c9 01       		.uleb128 0x1
 4400 02ca 12       		.uleb128 0x12
 4401 02cb 06       		.uleb128 0x6
 4402 02cc 40       		.uleb128 0x40
 4403 02cd 18       		.uleb128 0x18
 4404 02ce 9742     		.uleb128 0x2117
 4405 02d0 19       		.uleb128 0x19
 4406 02d1 00       		.byte	0
 4407 02d2 00       		.byte	0
 4408 02d3 33       		.uleb128 0x33
 4409 02d4 34       		.uleb128 0x34
 4410 02d5 00       		.byte	0
 4411 02d6 03       		.uleb128 0x3
 4412 02d7 0E       		.uleb128 0xe
 4413 02d8 49       		.uleb128 0x49
 4414 02d9 13       		.uleb128 0x13
 4415 02da 34       		.uleb128 0x34
 4416 02db 19       		.uleb128 0x19
 4417 02dc 02       		.uleb128 0x2
 4418 02dd 18       		.uleb128 0x18
 4419 02de 00       		.byte	0
 4420 02df 00       		.byte	0
 4421 02e0 34       		.uleb128 0x34
 4422 02e1 2E       		.uleb128 0x2e
 4423 02e2 00       		.byte	0
 4424 02e3 03       		.uleb128 0x3
 4425 02e4 0E       		.uleb128 0xe
 4426 02e5 3A       		.uleb128 0x3a
 4427 02e6 0B       		.uleb128 0xb
ARM GAS  /tmp/cc0aws4r.s 			page 79


 4428 02e7 3B       		.uleb128 0x3b
 4429 02e8 05       		.uleb128 0x5
 4430 02e9 27       		.uleb128 0x27
 4431 02ea 19       		.uleb128 0x19
 4432 02eb 11       		.uleb128 0x11
 4433 02ec 01       		.uleb128 0x1
 4434 02ed 12       		.uleb128 0x12
 4435 02ee 06       		.uleb128 0x6
 4436 02ef 40       		.uleb128 0x40
 4437 02f0 18       		.uleb128 0x18
 4438 02f1 9642     		.uleb128 0x2116
 4439 02f3 19       		.uleb128 0x19
 4440 02f4 00       		.byte	0
 4441 02f5 00       		.byte	0
 4442 02f6 35       		.uleb128 0x35
 4443 02f7 2E       		.uleb128 0x2e
 4444 02f8 01       		.byte	0x1
 4445 02f9 03       		.uleb128 0x3
 4446 02fa 0E       		.uleb128 0xe
 4447 02fb 3A       		.uleb128 0x3a
 4448 02fc 0B       		.uleb128 0xb
 4449 02fd 3B       		.uleb128 0x3b
 4450 02fe 05       		.uleb128 0x5
 4451 02ff 27       		.uleb128 0x27
 4452 0300 19       		.uleb128 0x19
 4453 0301 49       		.uleb128 0x49
 4454 0302 13       		.uleb128 0x13
 4455 0303 11       		.uleb128 0x11
 4456 0304 01       		.uleb128 0x1
 4457 0305 12       		.uleb128 0x12
 4458 0306 06       		.uleb128 0x6
 4459 0307 40       		.uleb128 0x40
 4460 0308 18       		.uleb128 0x18
 4461 0309 9742     		.uleb128 0x2117
 4462 030b 19       		.uleb128 0x19
 4463 030c 01       		.uleb128 0x1
 4464 030d 13       		.uleb128 0x13
 4465 030e 00       		.byte	0
 4466 030f 00       		.byte	0
 4467 0310 36       		.uleb128 0x36
 4468 0311 2E       		.uleb128 0x2e
 4469 0312 01       		.byte	0x1
 4470 0313 03       		.uleb128 0x3
 4471 0314 0E       		.uleb128 0xe
 4472 0315 3A       		.uleb128 0x3a
 4473 0316 0B       		.uleb128 0xb
 4474 0317 3B       		.uleb128 0x3b
 4475 0318 05       		.uleb128 0x5
 4476 0319 27       		.uleb128 0x27
 4477 031a 19       		.uleb128 0x19
 4478 031b 11       		.uleb128 0x11
 4479 031c 01       		.uleb128 0x1
 4480 031d 12       		.uleb128 0x12
 4481 031e 06       		.uleb128 0x6
 4482 031f 40       		.uleb128 0x40
 4483 0320 18       		.uleb128 0x18
 4484 0321 9742     		.uleb128 0x2117
ARM GAS  /tmp/cc0aws4r.s 			page 80


 4485 0323 19       		.uleb128 0x19
 4486 0324 01       		.uleb128 0x1
 4487 0325 13       		.uleb128 0x13
 4488 0326 00       		.byte	0
 4489 0327 00       		.byte	0
 4490 0328 37       		.uleb128 0x37
 4491 0329 1D       		.uleb128 0x1d
 4492 032a 00       		.byte	0
 4493 032b 31       		.uleb128 0x31
 4494 032c 13       		.uleb128 0x13
 4495 032d 11       		.uleb128 0x11
 4496 032e 01       		.uleb128 0x1
 4497 032f 12       		.uleb128 0x12
 4498 0330 06       		.uleb128 0x6
 4499 0331 58       		.uleb128 0x58
 4500 0332 0B       		.uleb128 0xb
 4501 0333 59       		.uleb128 0x59
 4502 0334 05       		.uleb128 0x5
 4503 0335 00       		.byte	0
 4504 0336 00       		.byte	0
 4505 0337 38       		.uleb128 0x38
 4506 0338 2E       		.uleb128 0x2e
 4507 0339 00       		.byte	0
 4508 033a 03       		.uleb128 0x3
 4509 033b 0E       		.uleb128 0xe
 4510 033c 3A       		.uleb128 0x3a
 4511 033d 0B       		.uleb128 0xb
 4512 033e 3B       		.uleb128 0x3b
 4513 033f 05       		.uleb128 0x5
 4514 0340 27       		.uleb128 0x27
 4515 0341 19       		.uleb128 0x19
 4516 0342 20       		.uleb128 0x20
 4517 0343 0B       		.uleb128 0xb
 4518 0344 00       		.byte	0
 4519 0345 00       		.byte	0
 4520 0346 00       		.byte	0
 4521              		.section	.debug_aranges,"",%progbits
 4522 0000 FC000000 		.4byte	0xfc
 4523 0004 0200     		.2byte	0x2
 4524 0006 00000000 		.4byte	.Ldebug_info0
 4525 000a 04       		.byte	0x4
 4526 000b 00       		.byte	0
 4527 000c 0000     		.2byte	0
 4528 000e 0000     		.2byte	0
 4529 0010 00000000 		.4byte	.LFB38
 4530 0014 06000000 		.4byte	.LFE38-.LFB38
 4531 0018 00000000 		.4byte	.LFB39
 4532 001c 06000000 		.4byte	.LFE39-.LFB39
 4533 0020 00000000 		.4byte	.LFB46
 4534 0024 10000000 		.4byte	.LFE46-.LFB46
 4535 0028 00000000 		.4byte	.LFB55
 4536 002c 0C000000 		.4byte	.LFE55-.LFB55
 4537 0030 00000000 		.4byte	.LFB61
 4538 0034 18000000 		.4byte	.LFE61-.LFB61
 4539 0038 00000000 		.4byte	.LFB77
 4540 003c 0E000000 		.4byte	.LFE77-.LFB77
 4541 0040 00000000 		.4byte	.LFB78
ARM GAS  /tmp/cc0aws4r.s 			page 81


 4542 0044 38000000 		.4byte	.LFE78-.LFB78
 4543 0048 00000000 		.4byte	.LFB85
 4544 004c 0C000000 		.4byte	.LFE85-.LFB85
 4545 0050 00000000 		.4byte	.LFB86
 4546 0054 24000000 		.4byte	.LFE86-.LFB86
 4547 0058 00000000 		.4byte	.LFB99
 4548 005c 0C000000 		.4byte	.LFE99-.LFB99
 4549 0060 00000000 		.4byte	.LFB100
 4550 0064 0E000000 		.4byte	.LFE100-.LFB100
 4551 0068 00000000 		.4byte	.LFB113
 4552 006c 14000000 		.4byte	.LFE113-.LFB113
 4553 0070 00000000 		.4byte	.LFB114
 4554 0074 28000000 		.4byte	.LFE114-.LFB114
 4555 0078 00000000 		.4byte	.LFB115
 4556 007c 16000000 		.4byte	.LFE115-.LFB115
 4557 0080 00000000 		.4byte	.LFB120
 4558 0084 28000000 		.4byte	.LFE120-.LFB120
 4559 0088 00000000 		.4byte	.LFB121
 4560 008c 20000000 		.4byte	.LFE121-.LFB121
 4561 0090 00000000 		.4byte	.LFB122
 4562 0094 20000000 		.4byte	.LFE122-.LFB122
 4563 0098 00000000 		.4byte	.LFB123
 4564 009c 1C000000 		.4byte	.LFE123-.LFB123
 4565 00a0 00000000 		.4byte	.LFB152
 4566 00a4 14000000 		.4byte	.LFE152-.LFB152
 4567 00a8 00000000 		.4byte	.LFB153
 4568 00ac 24000000 		.4byte	.LFE153-.LFB153
 4569 00b0 00000000 		.4byte	.LFB154
 4570 00b4 8C010000 		.4byte	.LFE154-.LFB154
 4571 00b8 00000000 		.4byte	.LFB155
 4572 00bc 14000000 		.4byte	.LFE155-.LFB155
 4573 00c0 00000000 		.4byte	.LFB156
 4574 00c4 30000000 		.4byte	.LFE156-.LFB156
 4575 00c8 00000000 		.4byte	.LFB157
 4576 00cc D0010000 		.4byte	.LFE157-.LFB157
 4577 00d0 00000000 		.4byte	.LFB158
 4578 00d4 14000000 		.4byte	.LFE158-.LFB158
 4579 00d8 00000000 		.4byte	.LFB159
 4580 00dc 20000000 		.4byte	.LFE159-.LFB159
 4581 00e0 00000000 		.4byte	.LFB160
 4582 00e4 B4000000 		.4byte	.LFE160-.LFB160
 4583 00e8 00000000 		.4byte	.LFB161
 4584 00ec 14000000 		.4byte	.LFE161-.LFB161
 4585 00f0 00000000 		.4byte	.LFB162
 4586 00f4 74010000 		.4byte	.LFE162-.LFB162
 4587 00f8 00000000 		.4byte	0
 4588 00fc 00000000 		.4byte	0
 4589              		.section	.debug_ranges,"",%progbits
 4590              	.Ldebug_ranges0:
 4591 0000 00000000 		.4byte	.LFB38
 4592 0004 06000000 		.4byte	.LFE38
 4593 0008 00000000 		.4byte	.LFB39
 4594 000c 06000000 		.4byte	.LFE39
 4595 0010 00000000 		.4byte	.LFB46
 4596 0014 10000000 		.4byte	.LFE46
 4597 0018 00000000 		.4byte	.LFB55
 4598 001c 0C000000 		.4byte	.LFE55
ARM GAS  /tmp/cc0aws4r.s 			page 82


 4599 0020 00000000 		.4byte	.LFB61
 4600 0024 18000000 		.4byte	.LFE61
 4601 0028 00000000 		.4byte	.LFB77
 4602 002c 0E000000 		.4byte	.LFE77
 4603 0030 00000000 		.4byte	.LFB78
 4604 0034 38000000 		.4byte	.LFE78
 4605 0038 00000000 		.4byte	.LFB85
 4606 003c 0C000000 		.4byte	.LFE85
 4607 0040 00000000 		.4byte	.LFB86
 4608 0044 24000000 		.4byte	.LFE86
 4609 0048 00000000 		.4byte	.LFB99
 4610 004c 0C000000 		.4byte	.LFE99
 4611 0050 00000000 		.4byte	.LFB100
 4612 0054 0E000000 		.4byte	.LFE100
 4613 0058 00000000 		.4byte	.LFB113
 4614 005c 14000000 		.4byte	.LFE113
 4615 0060 00000000 		.4byte	.LFB114
 4616 0064 28000000 		.4byte	.LFE114
 4617 0068 00000000 		.4byte	.LFB115
 4618 006c 16000000 		.4byte	.LFE115
 4619 0070 00000000 		.4byte	.LFB120
 4620 0074 28000000 		.4byte	.LFE120
 4621 0078 00000000 		.4byte	.LFB121
 4622 007c 20000000 		.4byte	.LFE121
 4623 0080 00000000 		.4byte	.LFB122
 4624 0084 20000000 		.4byte	.LFE122
 4625 0088 00000000 		.4byte	.LFB123
 4626 008c 1C000000 		.4byte	.LFE123
 4627 0090 00000000 		.4byte	.LFB152
 4628 0094 14000000 		.4byte	.LFE152
 4629 0098 00000000 		.4byte	.LFB153
 4630 009c 24000000 		.4byte	.LFE153
 4631 00a0 00000000 		.4byte	.LFB154
 4632 00a4 8C010000 		.4byte	.LFE154
 4633 00a8 00000000 		.4byte	.LFB155
 4634 00ac 14000000 		.4byte	.LFE155
 4635 00b0 00000000 		.4byte	.LFB156
 4636 00b4 30000000 		.4byte	.LFE156
 4637 00b8 00000000 		.4byte	.LFB157
 4638 00bc D0010000 		.4byte	.LFE157
 4639 00c0 00000000 		.4byte	.LFB158
 4640 00c4 14000000 		.4byte	.LFE158
 4641 00c8 00000000 		.4byte	.LFB159
 4642 00cc 20000000 		.4byte	.LFE159
 4643 00d0 00000000 		.4byte	.LFB160
 4644 00d4 B4000000 		.4byte	.LFE160
 4645 00d8 00000000 		.4byte	.LFB161
 4646 00dc 14000000 		.4byte	.LFE161
 4647 00e0 00000000 		.4byte	.LFB162
 4648 00e4 74010000 		.4byte	.LFE162
 4649 00e8 00000000 		.4byte	0
 4650 00ec 00000000 		.4byte	0
 4651              		.section	.debug_line,"",%progbits
 4652              	.Ldebug_line0:
 4653 0000 74060000 		.section	.debug_str,"MS",%progbits,1
 4653      02001603 
 4653      00000201 
ARM GAS  /tmp/cc0aws4r.s 			page 83


 4653      FB0E0D00 
 4653      01010101 
 4654              	.LASF51:
 4655 0000 63685F74 		.ascii	"ch_threads_list\000"
 4655      68726561 
 4655      64735F6C 
 4655      69737400 
 4656              	.LASF52:
 4657 0010 74687265 		.ascii	"threads_queue_t\000"
 4657      6164735F 
 4657      71756575 
 4657      655F7400 
 4658              	.LASF41:
 4659 0020 705F7761 		.ascii	"p_waiting\000"
 4659      6974696E 
 4659      6700
 4660              	.LASF182:
 4661 002a 74616B65 		.ascii	"taken\000"
 4661      6E00
 4662              	.LASF124:
 4663 0030 53797374 		.ascii	"SystemCoreClock\000"
 4663      656D436F 
 4663      7265436C 
 4663      6F636B00 
 4664              	.LASF114:
 4665 0040 77746D74 		.ascii	"wtmtxp\000"
 4665      787000
 4666              	.LASF123:
 4667 0047 63686172 		.ascii	"char\000"
 4667      00
 4668              	.LASF86:
 4669 004c 72656761 		.ascii	"regarm_t\000"
 4669      726D5F74 
 4669      00
 4670              	.LASF32:
 4671 0055 705F7072 		.ascii	"p_prio\000"
 4671      696F00
 4672              	.LASF28:
 4673 005c 73797374 		.ascii	"systime_t\000"
 4673      696D655F 
 4673      7400
 4674              	.LASF155:
 4675 0066 62756666 		.ascii	"buffer\000"
 4675      657200
 4676              	.LASF135:
 4677 006d 63665F6F 		.ascii	"cf_off_older\000"
 4677      66665F6F 
 4677      6C646572 
 4677      00
 4678              	.LASF121:
 4679 007a 6D5F6F77 		.ascii	"m_owner\000"
 4679      6E657200 
 4680              	.LASF117:
 4681 0082 735F7175 		.ascii	"s_queue\000"
 4681      65756500 
 4682              	.LASF165:
 4683 008a 73656D31 		.ascii	"sem1\000"
ARM GAS  /tmp/cc0aws4r.s 			page 84


 4683      00
 4684              	.LASF42:
 4685 008f 705F6D73 		.ascii	"p_msgqueue\000"
 4685      67717565 
 4685      756500
 4686              	.LASF0:
 4687 009a 756E7369 		.ascii	"unsigned int\000"
 4687      676E6564 
 4687      20696E74 
 4687      00
 4688              	.LASF173:
 4689 00a7 74617267 		.ascii	"target_time\000"
 4689      65745F74 
 4689      696D6500 
 4690              	.LASF179:
 4691 00b3 63684253 		.ascii	"chBSemSignal\000"
 4691      656D5369 
 4691      676E616C 
 4691      00
 4692              	.LASF191:
 4693 00c0 63685654 		.ascii	"chVTGetSystemTimeX\000"
 4693      47657453 
 4693      79737465 
 4693      6D54696D 
 4693      655800
 4694              	.LASF49:
 4695 00d3 74687265 		.ascii	"threads_list_t\000"
 4695      6164735F 
 4695      6C697374 
 4695      5F7400
 4696              	.LASF10:
 4697 00e2 5F5F696E 		.ascii	"__int32_t\000"
 4697      7433325F 
 4697      7400
 4698              	.LASF103:
 4699 00ec 73655F73 		.ascii	"se_state\000"
 4699      74617465 
 4699      00
 4700              	.LASF136:
 4701 00f5 63665F6F 		.ascii	"cf_off_name\000"
 4701      66665F6E 
 4701      616D6500 
 4702              	.LASF158:
 4703 0101 74657374 		.ascii	"test\000"
 4703      00
 4704              	.LASF111:
 4705 0106 77746F62 		.ascii	"wtobjp\000"
 4705      6A7000
 4706              	.LASF198:
 4707 010d 706F7274 		.ascii	"port_lock\000"
 4707      5F6C6F63 
 4707      6B00
 4708              	.LASF82:
 4709 0117 76746C69 		.ascii	"vtlist\000"
 4709      737400
 4710              	.LASF55:
 4711 011e 63685F72 		.ascii	"ch_ready_list\000"
ARM GAS  /tmp/cc0aws4r.s 			page 85


 4711      65616479 
 4711      5F6C6973 
 4711      7400
 4712              	.LASF84:
 4713 012c 69646C65 		.ascii	"idle_thread_wa\000"
 4713      5F746872 
 4713      6561645F 
 4713      776100
 4714              	.LASF115:
 4715 013b 65776D61 		.ascii	"ewmask\000"
 4715      736B00
 4716              	.LASF139:
 4717 0142 63665F6F 		.ascii	"cf_off_flags\000"
 4717      66665F66 
 4717      6C616773 
 4717      00
 4718              	.LASF53:
 4719 014f 63685F74 		.ascii	"ch_threads_queue\000"
 4719      68726561 
 4719      64735F71 
 4719      75657565 
 4719      00
 4720              	.LASF202:
 4721 0160 43686962 		.ascii	"ChibiOS/test/rt/testsem.c\000"
 4721      694F532F 
 4721      74657374 
 4721      2F72742F 
 4721      74657374 
 4722              	.LASF129:
 4723 017a 63685F70 		.ascii	"ch_ptrsize\000"
 4723      74727369 
 4723      7A6500
 4724              	.LASF96:
 4725 0185 444D4152 		.ascii	"DMAR\000"
 4725      00
 4726              	.LASF62:
 4727 018a 76746675 		.ascii	"vtfunc_t\000"
 4727      6E635F74 
 4727      00
 4728              	.LASF118:
 4729 0193 735F636E 		.ascii	"s_cnt\000"
 4729      7400
 4730              	.LASF74:
 4731 0199 63685F73 		.ascii	"ch_system_debug\000"
 4731      79737465 
 4731      6D5F6465 
 4731      62756700 
 4732              	.LASF19:
 4733 01a9 75696E74 		.ascii	"uint32_t\000"
 4733      33325F74 
 4733      00
 4734              	.LASF130:
 4735 01b2 63685F74 		.ascii	"ch_timesize\000"
 4735      696D6573 
 4735      697A6500 
 4736              	.LASF26:
 4737 01be 6576656E 		.ascii	"eventmask_t\000"
ARM GAS  /tmp/cc0aws4r.s 			page 86


 4737      746D6173 
 4737      6B5F7400 
 4738              	.LASF57:
 4739 01ca 725F7072 		.ascii	"r_prio\000"
 4739      696F00
 4740              	.LASF95:
 4741 01d1 42445452 		.ascii	"BDTR\000"
 4741      00
 4742              	.LASF69:
 4743 01d6 76745F70 		.ascii	"vt_par\000"
 4743      617200
 4744              	.LASF171:
 4745 01dd 73656D33 		.ascii	"sem3_setup\000"
 4745      5F736574 
 4745      757000
 4746              	.LASF116:
 4747 01e8 63685F73 		.ascii	"ch_semaphore\000"
 4747      656D6170 
 4747      686F7265 
 4747      00
 4748              	.LASF24:
 4749 01f5 74707269 		.ascii	"tprio_t\000"
 4749      6F5F7400 
 4750              	.LASF64:
 4751 01fd 63685F76 		.ascii	"ch_virtual_timer\000"
 4751      69727475 
 4751      616C5F74 
 4751      696D6572 
 4751      00
 4752              	.LASF92:
 4753 020e 43434D52 		.ascii	"CCMR1\000"
 4753      3100
 4754              	.LASF93:
 4755 0214 43434D52 		.ascii	"CCMR2\000"
 4755      3200
 4756              	.LASF97:
 4757 021a 43434D52 		.ascii	"CCMR3\000"
 4757      3300
 4758              	.LASF15:
 4759 0220 6C6F6E67 		.ascii	"long long unsigned int\000"
 4759      206C6F6E 
 4759      6720756E 
 4759      7369676E 
 4759      65642069 
 4760              	.LASF102:
 4761 0237 73655F77 		.ascii	"se_wtobjp\000"
 4761      746F626A 
 4761      7000
 4762              	.LASF156:
 4763 0241 74657374 		.ascii	"test_global_fail\000"
 4763      5F676C6F 
 4763      62616C5F 
 4763      6661696C 
 4763      00
 4764              	.LASF8:
 4765 0252 5F5F7569 		.ascii	"__uint16_t\000"
 4765      6E743136 
ARM GAS  /tmp/cc0aws4r.s 			page 87


 4765      5F7400
 4766              	.LASF27:
 4767 025d 636E745F 		.ascii	"cnt_t\000"
 4767      7400
 4768              	.LASF192:
 4769 0263 63685379 		.ascii	"chSysUnlock\000"
 4769      73556E6C 
 4769      6F636B00 
 4770              	.LASF150:
 4771 026f 74657374 		.ascii	"testcase\000"
 4771      63617365 
 4771      00
 4772              	.LASF76:
 4773 0278 6973725F 		.ascii	"isr_cnt\000"
 4773      636E7400 
 4774              	.LASF145:
 4775 0280 73656D61 		.ascii	"semaphore_t\000"
 4775      70686F72 
 4775      655F7400 
 4776              	.LASF34:
 4777 028c 705F6E65 		.ascii	"p_newer\000"
 4777      77657200 
 4778              	.LASF186:
 4779 0294 63685365 		.ascii	"chSemGetCounterI\000"
 4779      6D476574 
 4779      436F756E 
 4779      74657249 
 4779      00
 4780              	.LASF71:
 4781 02a5 63685F76 		.ascii	"ch_virtual_timers_list\000"
 4781      69727475 
 4781      616C5F74 
 4781      696D6572 
 4781      735F6C69 
 4782              	.LASF100:
 4783 02bc 73655F74 		.ascii	"se_time\000"
 4783      696D6500 
 4784              	.LASF29:
 4785 02c4 74687265 		.ascii	"thread_t\000"
 4785      61645F74 
 4785      00
 4786              	.LASF4:
 4787 02cd 73697A65 		.ascii	"size_t\000"
 4787      5F7400
 4788              	.LASF109:
 4789 02d4 7264796D 		.ascii	"rdymsg\000"
 4789      736700
 4790              	.LASF131:
 4791 02db 63685F74 		.ascii	"ch_threadsize\000"
 4791      68726561 
 4791      6473697A 
 4791      6500
 4792              	.LASF199:
 4793 02e9 5F5F6469 		.ascii	"__disable_irq\000"
 4793      7361626C 
 4793      655F6972 
 4793      7100
ARM GAS  /tmp/cc0aws4r.s 			page 88


 4794              	.LASF141:
 4795 02f7 63665F6F 		.ascii	"cf_off_preempt\000"
 4795      66665F70 
 4795      7265656D 
 4795      707400
 4796              	.LASF99:
 4797 0306 73746D33 		.ascii	"stm32_tim_t\000"
 4797      325F7469 
 4797      6D5F7400 
 4798              	.LASF149:
 4799 0312 5F426F6F 		.ascii	"_Bool\000"
 4799      6C00
 4800              	.LASF201:
 4801 0318 474E5520 		.ascii	"GNU C11 6.3.1 20170215 (release) [ARM/embedded-6-br"
 4801      43313120 
 4801      362E332E 
 4801      31203230 
 4801      31373032 
 4802 034b 616E6368 		.ascii	"anch revision 245512] -mcpu=cortex-m0 -mno-thumb-in"
 4802      20726576 
 4802      6973696F 
 4802      6E203234 
 4802      35353132 
 4803 037e 74657277 		.ascii	"terwork -mthumb -ggdb -O0 -fomit-frame-pointer -fal"
 4803      6F726B20 
 4803      2D6D7468 
 4803      756D6220 
 4803      2D676764 
 4804 03b1 69676E2D 		.ascii	"ign-functions=16 -ffunction-sections -fdata-section"
 4804      66756E63 
 4804      74696F6E 
 4804      733D3136 
 4804      202D6666 
 4805 03e4 7300     		.ascii	"s\000"
 4806              	.LASF119:
 4807 03e6 63685F6D 		.ascii	"ch_mutex\000"
 4807      75746578 
 4807      00
 4808              	.LASF14:
 4809 03ef 5F5F7569 		.ascii	"__uint64_t\000"
 4809      6E743634 
 4809      5F7400
 4810              	.LASF91:
 4811 03fa 44494552 		.ascii	"DIER\000"
 4811      00
 4812              	.LASF195:
 4813 03ff 706F7274 		.ascii	"port_timer_get_time\000"
 4813      5F74696D 
 4813      65725F67 
 4813      65745F74 
 4813      696D6500 
 4814              	.LASF193:
 4815 0413 63685379 		.ascii	"chSysLock\000"
 4815      734C6F63 
 4815      6B00
 4816              	.LASF133:
 4817 041d 63665F6F 		.ascii	"cf_off_ctx\000"
ARM GAS  /tmp/cc0aws4r.s 			page 89


 4817      66665F63 
 4817      747800
 4818              	.LASF137:
 4819 0428 63665F6F 		.ascii	"cf_off_stklimit\000"
 4819      66665F73 
 4819      746B6C69 
 4819      6D697400 
 4820              	.LASF36:
 4821 0438 705F6E61 		.ascii	"p_name\000"
 4821      6D6500
 4822              	.LASF94:
 4823 043f 43434552 		.ascii	"CCER\000"
 4823      00
 4824              	.LASF67:
 4825 0444 76745F64 		.ascii	"vt_delta\000"
 4825      656C7461 
 4825      00
 4826              	.LASF203:
 4827 044d 2F686F6D 		.ascii	"/home/felix/Desktop/workspace/esho/UltrasonicCortex"
 4827      652F6665 
 4827      6C69782F 
 4827      4465736B 
 4827      746F702F 
 4828 0480 2F00     		.ascii	"/\000"
 4829              	.LASF48:
 4830 0482 74687265 		.ascii	"thread_reference_t\000"
 4830      61645F72 
 4830      65666572 
 4830      656E6365 
 4830      5F7400
 4831              	.LASF72:
 4832 0495 76745F6C 		.ascii	"vt_lasttime\000"
 4832      61737474 
 4832      696D6500 
 4833              	.LASF176:
 4834 04a1 73656D31 		.ascii	"sem1_execute\000"
 4834      5F657865 
 4834      63757465 
 4834      00
 4835              	.LASF22:
 4836 04ae 74737461 		.ascii	"tstate_t\000"
 4836      74655F74 
 4836      00
 4837              	.LASF101:
 4838 04b7 73655F74 		.ascii	"se_tp\000"
 4838      7000
 4839              	.LASF35:
 4840 04bd 705F6F6C 		.ascii	"p_older\000"
 4840      64657200 
 4841              	.LASF38:
 4842 04c5 705F7374 		.ascii	"p_state\000"
 4842      61746500 
 4843              	.LASF37:
 4844 04cd 705F7374 		.ascii	"p_stklimit\000"
 4844      6B6C696D 
 4844      697400
 4845              	.LASF16:
ARM GAS  /tmp/cc0aws4r.s 			page 90


 4846 04d8 75696E74 		.ascii	"uint8_t\000"
 4846      385F7400 
 4847              	.LASF166:
 4848 04e0 6273656D 		.ascii	"bsem\000"
 4848      00
 4849              	.LASF107:
 4850 04e5 74625F62 		.ascii	"tb_buffer\000"
 4850      75666665 
 4850      7200
 4851              	.LASF47:
 4852 04ef 705F6D70 		.ascii	"p_mpool\000"
 4852      6F6F6C00 
 4853              	.LASF45:
 4854 04f7 705F6D74 		.ascii	"p_mtxlist\000"
 4854      786C6973 
 4854      7400
 4855              	.LASF175:
 4856 0501 73656D32 		.ascii	"sem2_setup\000"
 4856      5F736574 
 4856      757000
 4857              	.LASF90:
 4858 050c 534D4352 		.ascii	"SMCR\000"
 4858      00
 4859              	.LASF50:
 4860 0511 63685F74 		.ascii	"ch_thread\000"
 4860      68726561 
 4860      6400
 4861              	.LASF154:
 4862 051b 65786563 		.ascii	"execute\000"
 4862      75746500 
 4863              	.LASF105:
 4864 0523 74625F73 		.ascii	"tb_size\000"
 4864      697A6500 
 4865              	.LASF73:
 4866 052b 73797374 		.ascii	"system_debug_t\000"
 4866      656D5F64 
 4866      65627567 
 4866      5F7400
 4867              	.LASF1:
 4868 053a 6C6F6E67 		.ascii	"long long int\000"
 4868      206C6F6E 
 4868      6720696E 
 4868      7400
 4869              	.LASF56:
 4870 0548 725F7175 		.ascii	"r_queue\000"
 4870      65756500 
 4871              	.LASF189:
 4872 0550 63685654 		.ascii	"chVTGetSystemTime\000"
 4872      47657453 
 4872      79737465 
 4872      6D54696D 
 4872      6500
 4873              	.LASF59:
 4874 0562 725F6E65 		.ascii	"r_newer\000"
 4874      77657200 
 4875              	.LASF25:
 4876 056a 6D73675F 		.ascii	"msg_t\000"
ARM GAS  /tmp/cc0aws4r.s 			page 91


 4876      7400
 4877              	.LASF88:
 4878 0570 636F6E74 		.ascii	"context\000"
 4878      65787400 
 4879              	.LASF153:
 4880 0578 74656172 		.ascii	"teardown\000"
 4880      646F776E 
 4880      00
 4881              	.LASF39:
 4882 0581 705F666C 		.ascii	"p_flags\000"
 4882      61677300 
 4883              	.LASF63:
 4884 0589 76697274 		.ascii	"virtual_timer_t\000"
 4884      75616C5F 
 4884      74696D65 
 4884      725F7400 
 4885              	.LASF140:
 4886 0599 63665F6F 		.ascii	"cf_off_refs\000"
 4886      66665F72 
 4886      65667300 
 4887              	.LASF126:
 4888 05a5 63685F7A 		.ascii	"ch_zero\000"
 4888      65726F00 
 4889              	.LASF180:
 4890 05ad 63684253 		.ascii	"chBSemSignalI\000"
 4890      656D5369 
 4890      676E616C 
 4890      4900
 4891              	.LASF106:
 4892 05bb 74625F70 		.ascii	"tb_ptr\000"
 4892      747200
 4893              	.LASF60:
 4894 05c2 725F6F6C 		.ascii	"r_older\000"
 4894      64657200 
 4895              	.LASF75:
 4896 05ca 70616E69 		.ascii	"panic_msg\000"
 4896      635F6D73 
 4896      6700
 4897              	.LASF43:
 4898 05d4 705F6D73 		.ascii	"p_msg\000"
 4898      6700
 4899              	.LASF21:
 4900 05da 746D6F64 		.ascii	"tmode_t\000"
 4900      655F7400 
 4901              	.LASF190:
 4902 05e2 73797374 		.ascii	"systime\000"
 4902      696D6500 
 4903              	.LASF127:
 4904 05ea 63685F73 		.ascii	"ch_size\000"
 4904      697A6500 
 4905              	.LASF83:
 4906 05f2 6D61696E 		.ascii	"mainthread\000"
 4906      74687265 
 4906      616400
 4907              	.LASF196:
 4908 05fd 73745F6C 		.ascii	"st_lld_get_counter\000"
 4908      6C645F67 
ARM GAS  /tmp/cc0aws4r.s 			page 92


 4908      65745F63 
 4908      6F756E74 
 4908      657200
 4909              	.LASF2:
 4910 0610 6C6F6E67 		.ascii	"long double\000"
 4910      20646F75 
 4910      626C6500 
 4911              	.LASF17:
 4912 061c 75696E74 		.ascii	"uint16_t\000"
 4912      31365F74 
 4912      00
 4913              	.LASF164:
 4914 0625 70617474 		.ascii	"patternsem\000"
 4914      65726E73 
 4914      656D00
 4915              	.LASF143:
 4916 0630 63686465 		.ascii	"chdebug_t\000"
 4916      6275675F 
 4916      7400
 4917              	.LASF77:
 4918 063a 6C6F636B 		.ascii	"lock_cnt\000"
 4918      5F636E74 
 4918      00
 4919              	.LASF160:
 4920 0643 74657374 		.ascii	"testsem1\000"
 4920      73656D31 
 4920      00
 4921              	.LASF161:
 4922 064c 74657374 		.ascii	"testsem2\000"
 4922      73656D32 
 4922      00
 4923              	.LASF162:
 4924 0655 74657374 		.ascii	"testsem3\000"
 4924      73656D33 
 4924      00
 4925              	.LASF163:
 4926 065e 74657374 		.ascii	"testsem4\000"
 4926      73656D34 
 4926      00
 4927              	.LASF205:
 4928 0667 5F5F6675 		.ascii	"__func__\000"
 4928      6E635F5F 
 4928      00
 4929              	.LASF46:
 4930 0670 705F7265 		.ascii	"p_realprio\000"
 4930      616C7072 
 4930      696F00
 4931              	.LASF128:
 4932 067b 63685F76 		.ascii	"ch_version\000"
 4932      65727369 
 4932      6F6E00
 4933              	.LASF7:
 4934 0686 73686F72 		.ascii	"short int\000"
 4934      7420696E 
 4934      7400
 4935              	.LASF61:
 4936 0690 725F6375 		.ascii	"r_current\000"
ARM GAS  /tmp/cc0aws4r.s 			page 93


 4936      7272656E 
 4936      7400
 4937              	.LASF44:
 4938 069a 705F6570 		.ascii	"p_epending\000"
 4938      656E6469 
 4938      6E6700
 4939              	.LASF120:
 4940 06a5 6D5F7175 		.ascii	"m_queue\000"
 4940      65756500 
 4941              	.LASF11:
 4942 06ad 6C6F6E67 		.ascii	"long int\000"
 4942      20696E74 
 4942      00
 4943              	.LASF89:
 4944 06b6 706F7274 		.ascii	"port_intctx\000"
 4944      5F696E74 
 4944      63747800 
 4945              	.LASF98:
 4946 06c2 43435852 		.ascii	"CCXR\000"
 4946      00
 4947              	.LASF178:
 4948 06c7 73656D31 		.ascii	"sem1_setup\000"
 4948      5F736574 
 4948      757000
 4949              	.LASF200:
 4950 06d2 5F5F656E 		.ascii	"__enable_irq\000"
 4950      61626C65 
 4950      5F697271 
 4950      00
 4951              	.LASF187:
 4952 06df 63685468 		.ascii	"chThdGetPriorityX\000"
 4952      64476574 
 4952      5072696F 
 4952      72697479 
 4952      5800
 4953              	.LASF80:
 4954 06f1 63685F73 		.ascii	"ch_system\000"
 4954      79737465 
 4954      6D00
 4955              	.LASF184:
 4956 06fb 63684253 		.ascii	"chBSemWait\000"
 4956      656D5761 
 4956      697400
 4957              	.LASF30:
 4958 0706 705F6E65 		.ascii	"p_next\000"
 4958      787400
 4959              	.LASF170:
 4960 070d 73656D33 		.ascii	"sem3_execute\000"
 4960      5F657865 
 4960      63757465 
 4960      00
 4961              	.LASF172:
 4962 071a 73656D32 		.ascii	"sem2_execute\000"
 4962      5F657865 
 4962      63757465 
 4962      00
 4963              	.LASF20:
ARM GAS  /tmp/cc0aws4r.s 			page 94


 4964 0727 75696E74 		.ascii	"uint64_t\000"
 4964      36345F74 
 4964      00
 4965              	.LASF33:
 4966 0730 705F6374 		.ascii	"p_ctx\000"
 4966      7800
 4967              	.LASF81:
 4968 0736 726C6973 		.ascii	"rlist\000"
 4968      7400
 4969              	.LASF177:
 4970 073c 74687265 		.ascii	"thread1\000"
 4970      61643100 
 4971              	.LASF174:
 4972 0744 74687265 		.ascii	"thread2\000"
 4972      61643200 
 4973              	.LASF169:
 4974 074c 74687265 		.ascii	"thread3\000"
 4974      61643300 
 4975              	.LASF168:
 4976 0754 74687265 		.ascii	"thread4\000"
 4976      61643400 
 4977              	.LASF142:
 4978 075c 63665F6F 		.ascii	"cf_off_time\000"
 4978      66665F74 
 4978      696D6500 
 4979              	.LASF132:
 4980 0768 63665F6F 		.ascii	"cf_off_prio\000"
 4980      66665F70 
 4980      72696F00 
 4981              	.LASF5:
 4982 0774 5F5F7569 		.ascii	"__uint8_t\000"
 4982      6E74385F 
 4982      7400
 4983              	.LASF151:
 4984 077e 6E616D65 		.ascii	"name\000"
 4984      00
 4985              	.LASF185:
 4986 0783 63684253 		.ascii	"chBSemObjectInit\000"
 4986      656D4F62 
 4986      6A656374 
 4986      496E6974 
 4986      00
 4987              	.LASF125:
 4988 0794 63685F69 		.ascii	"ch_identifier\000"
 4988      64656E74 
 4988      69666965 
 4988      7200
 4989              	.LASF31:
 4990 07a2 705F7072 		.ascii	"p_prev\000"
 4990      657600
 4991              	.LASF85:
 4992 07a9 73697A65 		.ascii	"sizetype\000"
 4992      74797065 
 4992      00
 4993              	.LASF23:
 4994 07b2 74726566 		.ascii	"trefs_t\000"
 4994      735F7400 
ARM GAS  /tmp/cc0aws4r.s 			page 95


 4995              	.LASF13:
 4996 07ba 6C6F6E67 		.ascii	"long unsigned int\000"
 4996      20756E73 
 4996      69676E65 
 4996      6420696E 
 4996      7400
 4997              	.LASF138:
 4998 07cc 63665F6F 		.ascii	"cf_off_state\000"
 4998      66665F73 
 4998      74617465 
 4998      00
 4999              	.LASF54:
 5000 07d9 72656164 		.ascii	"ready_list_t\000"
 5000      795F6C69 
 5000      73745F74 
 5000      00
 5001              	.LASF157:
 5002 07e6 74687265 		.ascii	"threads\000"
 5002      61647300 
 5003              	.LASF18:
 5004 07ee 696E7433 		.ascii	"int32_t\000"
 5004      325F7400 
 5005              	.LASF78:
 5006 07f6 74726163 		.ascii	"trace_buffer\000"
 5006      655F6275 
 5006      66666572 
 5006      00
 5007              	.LASF104:
 5008 0803 63685F73 		.ascii	"ch_swc_event_t\000"
 5008      77635F65 
 5008      76656E74 
 5008      5F7400
 5009              	.LASF148:
 5010 0812 6D757465 		.ascii	"mutex_t\000"
 5010      785F7400 
 5011              	.LASF167:
 5012 081a 73656D34 		.ascii	"sem4_execute\000"
 5012      5F657865 
 5012      63757465 
 5012      00
 5013              	.LASF6:
 5014 0827 756E7369 		.ascii	"unsigned char\000"
 5014      676E6564 
 5014      20636861 
 5014      7200
 5015              	.LASF152:
 5016 0835 73657475 		.ascii	"setup\000"
 5016      7000
 5017              	.LASF12:
 5018 083b 5F5F7569 		.ascii	"__uint32_t\000"
 5018      6E743332 
 5018      5F7400
 5019              	.LASF70:
 5020 0846 76697274 		.ascii	"virtual_timers_list_t\000"
 5020      75616C5F 
 5020      74696D65 
 5020      72735F6C 
ARM GAS  /tmp/cc0aws4r.s 			page 96


 5020      6973745F 
 5021              	.LASF40:
 5022 085c 705F7265 		.ascii	"p_refs\000"
 5022      667300
 5023              	.LASF146:
 5024 0863 62735F73 		.ascii	"bs_sem\000"
 5024      656D00
 5025              	.LASF204:
 5026 086a 74657374 		.ascii	"test_buffers\000"
 5026      5F627566 
 5026      66657273 
 5026      00
 5027              	.LASF65:
 5028 0877 76745F6E 		.ascii	"vt_next\000"
 5028      65787400 
 5029              	.LASF183:
 5030 087f 63684253 		.ascii	"chBSemGetStateI\000"
 5030      656D4765 
 5030      74537461 
 5030      74654900 
 5031              	.LASF79:
 5032 088f 63685F73 		.ascii	"ch_system_t\000"
 5032      79737465 
 5032      6D5F7400 
 5033              	.LASF113:
 5034 089b 77747365 		.ascii	"wtsemp\000"
 5034      6D7000
 5035              	.LASF112:
 5036 08a2 77747472 		.ascii	"wttrp\000"
 5036      7000
 5037              	.LASF108:
 5038 08a8 63685F74 		.ascii	"ch_trace_buffer_t\000"
 5038      72616365 
 5038      5F627566 
 5038      6665725F 
 5038      7400
 5039              	.LASF122:
 5040 08ba 6D5F6E65 		.ascii	"m_next\000"
 5040      787400
 5041              	.LASF3:
 5042 08c1 7369676E 		.ascii	"signed char\000"
 5042      65642063 
 5042      68617200 
 5043              	.LASF134:
 5044 08cd 63665F6F 		.ascii	"cf_off_newer\000"
 5044      66665F6E 
 5044      65776572 
 5044      00
 5045              	.LASF9:
 5046 08da 73686F72 		.ascii	"short unsigned int\000"
 5046      7420756E 
 5046      7369676E 
 5046      65642069 
 5046      6E7400
 5047              	.LASF58:
 5048 08ed 725F6374 		.ascii	"r_ctx\000"
 5048      7800
ARM GAS  /tmp/cc0aws4r.s 			page 97


 5049              	.LASF87:
 5050 08f3 73746B61 		.ascii	"stkalign_t\000"
 5050      6C69676E 
 5050      5F7400
 5051              	.LASF194:
 5052 08fe 71756575 		.ascii	"queue_isempty\000"
 5052      655F6973 
 5052      656D7074 
 5052      7900
 5053              	.LASF188:
 5054 090c 63685468 		.ascii	"chThdGetSelfX\000"
 5054      64476574 
 5054      53656C66 
 5054      5800
 5055              	.LASF144:
 5056 091a 63685F64 		.ascii	"ch_debug\000"
 5056      65627567 
 5056      00
 5057              	.LASF68:
 5058 0923 76745F66 		.ascii	"vt_func\000"
 5058      756E6300 
 5059              	.LASF197:
 5060 092b 706F7274 		.ascii	"port_unlock\000"
 5060      5F756E6C 
 5060      6F636B00 
 5061              	.LASF66:
 5062 0937 76745F70 		.ascii	"vt_prev\000"
 5062      72657600 
 5063              	.LASF159:
 5064 093f 74657374 		.ascii	"test_timer_done\000"
 5064      5F74696D 
 5064      65725F64 
 5064      6F6E6500 
 5065              	.LASF181:
 5066 094f 63684253 		.ascii	"chBSemReset\000"
 5066      656D5265 
 5066      73657400 
 5067              	.LASF147:
 5068 095b 62696E61 		.ascii	"binary_semaphore_t\000"
 5068      72795F73 
 5068      656D6170 
 5068      686F7265 
 5068      5F7400
 5069              	.LASF110:
 5070 096e 65786974 		.ascii	"exitcode\000"
 5070      636F6465 
 5070      00
 5071              		.ident	"GCC: (GNU Tools for ARM Embedded Processors 6-2017-q1-update) 6.3.1 20170215 (release) [AR
ARM GAS  /tmp/cc0aws4r.s 			page 98


DEFINED SYMBOLS
                            *ABS*:0000000000000000 testsem.c
     /tmp/cc0aws4r.s:16     .text.port_lock:0000000000000000 $t
     /tmp/cc0aws4r.s:23     .text.port_lock:0000000000000000 port_lock
     /tmp/cc0aws4r.s:51     .text.port_unlock:0000000000000000 $t
     /tmp/cc0aws4r.s:58     .text.port_unlock:0000000000000000 port_unlock
     /tmp/cc0aws4r.s:84     .text.st_lld_get_counter:0000000000000000 $t
     /tmp/cc0aws4r.s:91     .text.st_lld_get_counter:0000000000000000 st_lld_get_counter
     /tmp/cc0aws4r.s:110    .text.st_lld_get_counter:000000000000000c $d
     /tmp/cc0aws4r.s:115    .text.port_timer_get_time:0000000000000000 $t
     /tmp/cc0aws4r.s:122    .text.port_timer_get_time:0000000000000000 port_timer_get_time
     /tmp/cc0aws4r.s:144    .text.queue_isempty:0000000000000000 $t
     /tmp/cc0aws4r.s:151    .text.queue_isempty:0000000000000000 queue_isempty
     /tmp/cc0aws4r.s:179    .text.chSysLock:0000000000000000 $t
     /tmp/cc0aws4r.s:186    .text.chSysLock:0000000000000000 chSysLock
     /tmp/cc0aws4r.s:209    .text.chSysUnlock:0000000000000000 $t
     /tmp/cc0aws4r.s:216    .text.chSysUnlock:0000000000000000 chSysUnlock
     /tmp/cc0aws4r.s:257    .text.chSysUnlock:0000000000000030 $d
     /tmp/cc0aws4r.s:1829   .rodata.__func__.4993:0000000000000000 __func__.4993
     /tmp/cc0aws4r.s:263    .text.chVTGetSystemTimeX:0000000000000000 $t
     /tmp/cc0aws4r.s:270    .text.chVTGetSystemTimeX:0000000000000000 chVTGetSystemTimeX
     /tmp/cc0aws4r.s:292    .text.chVTGetSystemTime:0000000000000000 $t
     /tmp/cc0aws4r.s:299    .text.chVTGetSystemTime:0000000000000000 chVTGetSystemTime
     /tmp/cc0aws4r.s:334    .text.chThdGetSelfX:0000000000000000 $t
     /tmp/cc0aws4r.s:341    .text.chThdGetSelfX:0000000000000000 chThdGetSelfX
     /tmp/cc0aws4r.s:359    .text.chThdGetSelfX:0000000000000008 $d
     /tmp/cc0aws4r.s:364    .text.chThdGetPriorityX:0000000000000000 $t
     /tmp/cc0aws4r.s:371    .text.chThdGetPriorityX:0000000000000000 chThdGetPriorityX
     /tmp/cc0aws4r.s:393    .text.chSemGetCounterI:0000000000000000 $t
     /tmp/cc0aws4r.s:400    .text.chSemGetCounterI:0000000000000000 chSemGetCounterI
     /tmp/cc0aws4r.s:427    .text.chBSemObjectInit:0000000000000000 $t
     /tmp/cc0aws4r.s:434    .text.chBSemObjectInit:0000000000000000 chBSemObjectInit
     /tmp/cc0aws4r.s:470    .text.chBSemWait:0000000000000000 $t
     /tmp/cc0aws4r.s:477    .text.chBSemWait:0000000000000000 chBSemWait
     /tmp/cc0aws4r.s:503    .text.chBSemReset:0000000000000000 $t
     /tmp/cc0aws4r.s:510    .text.chBSemReset:0000000000000000 chBSemReset
     /tmp/cc0aws4r.s:545    .text.chBSemSignalI:0000000000000000 $t
     /tmp/cc0aws4r.s:552    .text.chBSemSignalI:0000000000000000 chBSemSignalI
     /tmp/cc0aws4r.s:585    .text.chBSemSignal:0000000000000000 $t
     /tmp/cc0aws4r.s:592    .text.chBSemSignal:0000000000000000 chBSemSignal
     /tmp/cc0aws4r.s:623    .text.chBSemGetStateI:0000000000000000 $t
     /tmp/cc0aws4r.s:630    .text.chBSemGetStateI:0000000000000000 chBSemGetStateI
     /tmp/cc0aws4r.s:660    .data.sem1:0000000000000000 $d
     /tmp/cc0aws4r.s:663    .data.sem1:0000000000000000 sem1
     /tmp/cc0aws4r.s:668    .text.sem1_setup:0000000000000000 $t
     /tmp/cc0aws4r.s:675    .text.sem1_setup:0000000000000000 sem1_setup
     /tmp/cc0aws4r.s:698    .text.sem1_setup:0000000000000010 $d
     /tmp/cc0aws4r.s:703    .text.thread1:0000000000000000 $t
     /tmp/cc0aws4r.s:710    .text.thread1:0000000000000000 thread1
     /tmp/cc0aws4r.s:739    .text.thread1:0000000000000020 $d
     /tmp/cc0aws4r.s:744    .rodata:0000000000000000 $d
     /tmp/cc0aws4r.s:763    .text.sem1_execute:0000000000000000 $t
     /tmp/cc0aws4r.s:770    .text.sem1_execute:0000000000000000 sem1_execute
     /tmp/cc0aws4r.s:959    .text.sem1_execute:0000000000000164 $d
     /tmp/cc0aws4r.s:981    .rodata.testsem1:0000000000000000 testsem1
     /tmp/cc0aws4r.s:978    .rodata.testsem1:0000000000000000 $d
     /tmp/cc0aws4r.s:987    .text.sem2_setup:0000000000000000 $t
ARM GAS  /tmp/cc0aws4r.s 			page 99


     /tmp/cc0aws4r.s:994    .text.sem2_setup:0000000000000000 sem2_setup
     /tmp/cc0aws4r.s:1016   .text.sem2_setup:0000000000000010 $d
     /tmp/cc0aws4r.s:1021   .text.thread2:0000000000000000 $t
     /tmp/cc0aws4r.s:1028   .text.thread2:0000000000000000 thread2
     /tmp/cc0aws4r.s:1063   .text.thread2:000000000000002c $d
     /tmp/cc0aws4r.s:1068   .text.sem2_execute:0000000000000000 $t
     /tmp/cc0aws4r.s:1075   .text.sem2_execute:0000000000000000 sem2_execute
     /tmp/cc0aws4r.s:1335   .text.sem2_execute:00000000000001b4 $d
     /tmp/cc0aws4r.s:1354   .rodata.testsem2:0000000000000000 testsem2
     /tmp/cc0aws4r.s:1351   .rodata.testsem2:0000000000000000 $d
     /tmp/cc0aws4r.s:1360   .text.sem3_setup:0000000000000000 $t
     /tmp/cc0aws4r.s:1367   .text.sem3_setup:0000000000000000 sem3_setup
     /tmp/cc0aws4r.s:1389   .text.sem3_setup:0000000000000010 $d
     /tmp/cc0aws4r.s:1394   .text.thread3:0000000000000000 $t
     /tmp/cc0aws4r.s:1401   .text.thread3:0000000000000000 thread3
     /tmp/cc0aws4r.s:1429   .text.thread3:000000000000001c $d
     /tmp/cc0aws4r.s:1434   .text.sem3_execute:0000000000000000 $t
     /tmp/cc0aws4r.s:1441   .text.sem3_execute:0000000000000000 sem3_execute
     /tmp/cc0aws4r.s:1542   .text.sem3_execute:00000000000000a4 $d
     /tmp/cc0aws4r.s:1558   .rodata.testsem3:0000000000000000 testsem3
     /tmp/cc0aws4r.s:1555   .rodata.testsem3:0000000000000000 $d
     /tmp/cc0aws4r.s:1564   .text.thread4:0000000000000000 $t
     /tmp/cc0aws4r.s:1571   .text.thread4:0000000000000000 thread4
     /tmp/cc0aws4r.s:1596   .text.sem4_execute:0000000000000000 $t
     /tmp/cc0aws4r.s:1603   .text.sem4_execute:0000000000000000 sem4_execute
     /tmp/cc0aws4r.s:1794   .text.sem4_execute:0000000000000168 $d
     /tmp/cc0aws4r.s:1809   .rodata.testsem4:0000000000000000 testsem4
     /tmp/cc0aws4r.s:1806   .rodata.testsem4:0000000000000000 $d
     /tmp/cc0aws4r.s:1819   .rodata.patternsem:0000000000000000 patternsem
     /tmp/cc0aws4r.s:1816   .rodata.patternsem:0000000000000000 $d
     /tmp/cc0aws4r.s:1826   .rodata.__func__.4993:0000000000000000 $d
                     .debug_frame:0000000000000010 $d

UNDEFINED SYMBOLS
_dbg_check_lock
_dbg_check_unlock
chSysHalt
ch
chDbgCheckClassI
chSemObjectInit
chSemWait
chSemReset
chSemSignalI
chSchRescheduleS
test_emit_token
chThdCreateStatic
chSemSignal
test_wait_threads
_test_assert_sequence
chSemAddCounterI
_test_assert
wa
threads
chThdSleep
chSemWaitTimeout
test_wait_tick
_test_assert_time_window
ARM GAS  /tmp/cc0aws4r.s 			page 100


chSemSignalWait
