ARM GAS  /tmp/cc27PM82.s 			page 1


   1              		.cpu cortex-m0
   2              		.eabi_attribute 20, 1
   3              		.eabi_attribute 21, 1
   4              		.eabi_attribute 23, 3
   5              		.eabi_attribute 24, 1
   6              		.eabi_attribute 25, 1
   7              		.eabi_attribute 26, 1
   8              		.eabi_attribute 30, 6
   9              		.eabi_attribute 34, 0
  10              		.eabi_attribute 18, 4
  11              		.file	"testevt.c"
  12              		.text
  13              	.Ltext0:
  14              		.cfi_sections	.debug_frame
  15              		.section	.text.port_lock,"ax",%progbits
  16              		.align	1
  17              		.p2align 4,,15
  18              		.syntax unified
  19              		.code	16
  20              		.thumb_func
  21              		.fpu softvfp
  22              		.type	port_lock, %function
  23              	port_lock:
  24              	.LFB38:
  25              		.file 1 "ChibiOS/os/rt/ports/ARMCMx/chcore_v6m.h"
  26              		.loc 1 330 0
  27              		.cfi_startproc
  28              		@ args = 0, pretend = 0, frame = 0
  29              		@ frame_needed = 0, uses_anonymous_args = 0
  30              		@ link register save eliminated.
  31              	.LBB6:
  32              	.LBB7:
  33              		.file 2 "ChibiOS/os/ext/CMSIS/include/core_cmFunc.h"
  34              		.loc 2 344 0
  35              		.syntax divided
  36              	@ 344 "ChibiOS/os/ext/CMSIS/include/core_cmFunc.h" 1
  37 0000 72B6     		cpsid i
  38              	@ 0 "" 2
  39              		.thumb
  40              		.syntax unified
  41              	.LBE7:
  42              	.LBE6:
  43              		.loc 1 333 0
  44 0002 C046     		nop
  45              		@ sp needed
  46 0004 7047     		bx	lr
  47              		.cfi_endproc
  48              	.LFE38:
  49              		.size	port_lock, .-port_lock
  50 0006 C046     		.section	.text.port_unlock,"ax",%progbits
  51              		.align	1
  52              		.p2align 4,,15
  53              		.syntax unified
  54              		.code	16
  55              		.thumb_func
  56              		.fpu softvfp
  57              		.type	port_unlock, %function
ARM GAS  /tmp/cc27PM82.s 			page 2


  58              	port_unlock:
  59              	.LFB39:
  60              		.loc 1 339 0
  61              		.cfi_startproc
  62              		@ args = 0, pretend = 0, frame = 0
  63              		@ frame_needed = 0, uses_anonymous_args = 0
  64              		@ link register save eliminated.
  65              	.LBB8:
  66              	.LBB9:
  67              		.loc 2 333 0
  68              		.syntax divided
  69              	@ 333 "ChibiOS/os/ext/CMSIS/include/core_cmFunc.h" 1
  70 0000 62B6     		cpsie i
  71              	@ 0 "" 2
  72              		.thumb
  73              		.syntax unified
  74              	.LBE9:
  75              	.LBE8:
  76              		.loc 1 342 0
  77 0002 C046     		nop
  78              		@ sp needed
  79 0004 7047     		bx	lr
  80              		.cfi_endproc
  81              	.LFE39:
  82              		.size	port_unlock, .-port_unlock
  83 0006 C046     		.section	.text.st_lld_get_counter,"ax",%progbits
  84              		.align	1
  85              		.p2align 4,,15
  86              		.syntax unified
  87              		.code	16
  88              		.thumb_func
  89              		.fpu softvfp
  90              		.type	st_lld_get_counter, %function
  91              	st_lld_get_counter:
  92              	.LFB46:
  93              		.file 3 "ChibiOS/os/hal/ports/STM32/LLD/TIMv1/st_lld.h"
  94              		.loc 3 139 0
  95              		.cfi_startproc
  96              		@ args = 0, pretend = 0, frame = 0
  97              		@ frame_needed = 0, uses_anonymous_args = 0
  98              		@ link register save eliminated.
  99              		.loc 3 141 0
 100 0000 024B     		ldr	r3, .L5
 101 0002 5B6A     		ldr	r3, [r3, #36]
 102 0004 9BB2     		uxth	r3, r3
 103              		.loc 3 142 0
 104 0006 1800     		movs	r0, r3
 105              		@ sp needed
 106 0008 7047     		bx	lr
 107              	.L6:
 108 000a C046     		.align	2
 109              	.L5:
 110 000c 00040040 		.word	1073742848
 111              		.cfi_endproc
 112              	.LFE46:
 113              		.size	st_lld_get_counter, .-st_lld_get_counter
 114              		.section	.text.port_timer_get_time,"ax",%progbits
ARM GAS  /tmp/cc27PM82.s 			page 3


 115              		.align	1
 116              		.p2align 4,,15
 117              		.syntax unified
 118              		.code	16
 119              		.thumb_func
 120              		.fpu softvfp
 121              		.type	port_timer_get_time, %function
 122              	port_timer_get_time:
 123              	.LFB55:
 124              		.file 4 "ChibiOS/os/rt/ports/ARMCMx/chcore_timer.h"
 125              		.loc 4 105 0
 126              		.cfi_startproc
 127              		@ args = 0, pretend = 0, frame = 0
 128              		@ frame_needed = 0, uses_anonymous_args = 0
 129 0000 10B5     		push	{r4, lr}
 130              		.cfi_def_cfa_offset 8
 131              		.cfi_offset 4, -8
 132              		.cfi_offset 14, -4
 133              		.loc 4 107 0
 134 0002 FFF7FEFF 		bl	st_lld_get_counter
 135 0006 0300     		movs	r3, r0
 136              		.loc 4 108 0
 137 0008 1800     		movs	r0, r3
 138              		@ sp needed
 139 000a 10BD     		pop	{r4, pc}
 140              		.cfi_endproc
 141              	.LFE55:
 142              		.size	port_timer_get_time, .-port_timer_get_time
 143              		.section	.text.chSysLock,"ax",%progbits
 144              		.align	1
 145              		.p2align 4,,15
 146              		.syntax unified
 147              		.code	16
 148              		.thumb_func
 149              		.fpu softvfp
 150              		.type	chSysLock, %function
 151              	chSysLock:
 152              	.LFB77:
 153              		.file 5 "ChibiOS/os/rt/include/chsys.h"
 154              		.loc 5 346 0
 155              		.cfi_startproc
 156              		@ args = 0, pretend = 0, frame = 0
 157              		@ frame_needed = 0, uses_anonymous_args = 0
 158 0000 10B5     		push	{r4, lr}
 159              		.cfi_def_cfa_offset 8
 160              		.cfi_offset 4, -8
 161              		.cfi_offset 14, -4
 162              		.loc 5 348 0
 163 0002 FFF7FEFF 		bl	port_lock
 164              		.loc 5 350 0
 165 0006 FFF7FEFF 		bl	_dbg_check_lock
 166              		.loc 5 351 0
 167 000a C046     		nop
 168              		@ sp needed
 169 000c 10BD     		pop	{r4, pc}
 170              		.cfi_endproc
 171              	.LFE77:
ARM GAS  /tmp/cc27PM82.s 			page 4


 172              		.size	chSysLock, .-chSysLock
 173 000e C046     		.section	.text.chSysUnlock,"ax",%progbits
 174              		.align	1
 175              		.p2align 4,,15
 176              		.syntax unified
 177              		.code	16
 178              		.thumb_func
 179              		.fpu softvfp
 180              		.type	chSysUnlock, %function
 181              	chSysUnlock:
 182              	.LFB78:
 183              		.loc 5 358 0
 184              		.cfi_startproc
 185              		@ args = 0, pretend = 0, frame = 0
 186              		@ frame_needed = 0, uses_anonymous_args = 0
 187 0000 10B5     		push	{r4, lr}
 188              		.cfi_def_cfa_offset 8
 189              		.cfi_offset 4, -8
 190              		.cfi_offset 14, -4
 191              		.loc 5 360 0
 192 0002 FFF7FEFF 		bl	_dbg_check_unlock
 193              		.loc 5 367 0
 194 0006 0A4B     		ldr	r3, .L12
 195 0008 1A68     		ldr	r2, [r3]
 196 000a 094B     		ldr	r3, .L12
 197 000c 9A42     		cmp	r2, r3
 198 000e 0BD0     		beq	.L11
 199              		.loc 5 367 0 is_stmt 0 discriminator 2
 200 0010 074B     		ldr	r3, .L12
 201 0012 9B69     		ldr	r3, [r3, #24]
 202 0014 9A68     		ldr	r2, [r3, #8]
 203 0016 064B     		ldr	r3, .L12
 204 0018 1B68     		ldr	r3, [r3]
 205 001a 9B68     		ldr	r3, [r3, #8]
 206 001c 9A42     		cmp	r2, r3
 207 001e 03D2     		bcs	.L11
 208              		.loc 5 367 0 discriminator 3
 209 0020 044B     		ldr	r3, .L12+4
 210 0022 1800     		movs	r0, r3
 211 0024 FFF7FEFF 		bl	chSysHalt
 212              	.L11:
 213              		.loc 5 371 0 is_stmt 1
 214 0028 FFF7FEFF 		bl	port_unlock
 215              		.loc 5 372 0
 216 002c C046     		nop
 217              		@ sp needed
 218 002e 10BD     		pop	{r4, pc}
 219              	.L13:
 220              		.align	2
 221              	.L12:
 222 0030 00000000 		.word	ch
 223 0034 00000000 		.word	__func__.4993
 224              		.cfi_endproc
 225              	.LFE78:
 226              		.size	chSysUnlock, .-chSysUnlock
 227              		.section	.text.chVTGetSystemTimeX,"ax",%progbits
 228              		.align	1
ARM GAS  /tmp/cc27PM82.s 			page 5


 229              		.p2align 4,,15
 230              		.syntax unified
 231              		.code	16
 232              		.thumb_func
 233              		.fpu softvfp
 234              		.type	chVTGetSystemTimeX, %function
 235              	chVTGetSystemTimeX:
 236              	.LFB85:
 237              		.file 6 "ChibiOS/os/rt/include/chvt.h"
 238              		.loc 6 228 0
 239              		.cfi_startproc
 240              		@ args = 0, pretend = 0, frame = 0
 241              		@ frame_needed = 0, uses_anonymous_args = 0
 242 0000 10B5     		push	{r4, lr}
 243              		.cfi_def_cfa_offset 8
 244              		.cfi_offset 4, -8
 245              		.cfi_offset 14, -4
 246              		.loc 6 233 0
 247 0002 FFF7FEFF 		bl	port_timer_get_time
 248 0006 0300     		movs	r3, r0
 249              		.loc 6 235 0
 250 0008 1800     		movs	r0, r3
 251              		@ sp needed
 252 000a 10BD     		pop	{r4, pc}
 253              		.cfi_endproc
 254              	.LFE85:
 255              		.size	chVTGetSystemTimeX, .-chVTGetSystemTimeX
 256              		.section	.text.chVTGetSystemTime,"ax",%progbits
 257              		.align	1
 258              		.p2align 4,,15
 259              		.syntax unified
 260              		.code	16
 261              		.thumb_func
 262              		.fpu softvfp
 263              		.type	chVTGetSystemTime, %function
 264              	chVTGetSystemTime:
 265              	.LFB86:
 266              		.loc 6 247 0
 267              		.cfi_startproc
 268              		@ args = 0, pretend = 0, frame = 8
 269              		@ frame_needed = 0, uses_anonymous_args = 0
 270 0000 10B5     		push	{r4, lr}
 271              		.cfi_def_cfa_offset 8
 272              		.cfi_offset 4, -8
 273              		.cfi_offset 14, -4
 274 0002 82B0     		sub	sp, sp, #8
 275              		.cfi_def_cfa_offset 16
 276              		.loc 6 250 0
 277 0004 FFF7FEFF 		bl	chSysLock
 278              		.loc 6 251 0
 279 0008 6B46     		mov	r3, sp
 280 000a 9C1D     		adds	r4, r3, #6
 281 000c FFF7FEFF 		bl	chVTGetSystemTimeX
 282 0010 0300     		movs	r3, r0
 283 0012 2380     		strh	r3, [r4]
 284              		.loc 6 252 0
 285 0014 FFF7FEFF 		bl	chSysUnlock
ARM GAS  /tmp/cc27PM82.s 			page 6


 286              		.loc 6 254 0
 287 0018 6B46     		mov	r3, sp
 288 001a 0633     		adds	r3, r3, #6
 289 001c 1B88     		ldrh	r3, [r3]
 290              		.loc 6 255 0
 291 001e 1800     		movs	r0, r3
 292 0020 02B0     		add	sp, sp, #8
 293              		@ sp needed
 294 0022 10BD     		pop	{r4, pc}
 295              		.cfi_endproc
 296              	.LFE86:
 297              		.size	chVTGetSystemTime, .-chVTGetSystemTime
 298              		.section	.text.chThdGetSelfX,"ax",%progbits
 299              		.align	1
 300              		.p2align 4,,15
 301              		.syntax unified
 302              		.code	16
 303              		.thumb_func
 304              		.fpu softvfp
 305              		.type	chThdGetSelfX, %function
 306              	chThdGetSelfX:
 307              	.LFB99:
 308              		.file 7 "ChibiOS/os/rt/include/chthreads.h"
 309              		.loc 7 174 0
 310              		.cfi_startproc
 311              		@ args = 0, pretend = 0, frame = 0
 312              		@ frame_needed = 0, uses_anonymous_args = 0
 313              		@ link register save eliminated.
 314              		.loc 7 176 0
 315 0000 014B     		ldr	r3, .L20
 316 0002 9B69     		ldr	r3, [r3, #24]
 317              		.loc 7 177 0
 318 0004 1800     		movs	r0, r3
 319              		@ sp needed
 320 0006 7047     		bx	lr
 321              	.L21:
 322              		.align	2
 323              	.L20:
 324 0008 00000000 		.word	ch
 325              		.cfi_endproc
 326              	.LFE99:
 327              		.size	chThdGetSelfX, .-chThdGetSelfX
 328              		.section	.text.chThdGetPriorityX,"ax",%progbits
 329              		.align	1
 330              		.p2align 4,,15
 331              		.syntax unified
 332              		.code	16
 333              		.thumb_func
 334              		.fpu softvfp
 335              		.type	chThdGetPriorityX, %function
 336              	chThdGetPriorityX:
 337              	.LFB100:
 338              		.loc 7 187 0
 339              		.cfi_startproc
 340              		@ args = 0, pretend = 0, frame = 0
 341              		@ frame_needed = 0, uses_anonymous_args = 0
 342 0000 10B5     		push	{r4, lr}
ARM GAS  /tmp/cc27PM82.s 			page 7


 343              		.cfi_def_cfa_offset 8
 344              		.cfi_offset 4, -8
 345              		.cfi_offset 14, -4
 346              		.loc 7 189 0
 347 0002 FFF7FEFF 		bl	chThdGetSelfX
 348 0006 0300     		movs	r3, r0
 349 0008 9B68     		ldr	r3, [r3, #8]
 350              		.loc 7 190 0
 351 000a 1800     		movs	r0, r3
 352              		@ sp needed
 353 000c 10BD     		pop	{r4, pc}
 354              		.cfi_endproc
 355              	.LFE100:
 356              		.size	chThdGetPriorityX, .-chThdGetPriorityX
 357 000e C046     		.section	.text.chEvtObjectInit,"ax",%progbits
 358              		.align	1
 359              		.p2align 4,,15
 360              		.syntax unified
 361              		.code	16
 362              		.thumb_func
 363              		.fpu softvfp
 364              		.type	chEvtObjectInit, %function
 365              	chEvtObjectInit:
 366              	.LFB126:
 367              		.file 8 "ChibiOS/os/rt/include/chevents.h"
 368              		.loc 8 170 0
 369              		.cfi_startproc
 370              		@ args = 0, pretend = 0, frame = 8
 371              		@ frame_needed = 0, uses_anonymous_args = 0
 372              		@ link register save eliminated.
 373 0000 82B0     		sub	sp, sp, #8
 374              		.cfi_def_cfa_offset 8
 375 0002 0190     		str	r0, [sp, #4]
 376              		.loc 8 172 0
 377 0004 019B     		ldr	r3, [sp, #4]
 378 0006 019A     		ldr	r2, [sp, #4]
 379 0008 1A60     		str	r2, [r3]
 380              		.loc 8 173 0
 381 000a C046     		nop
 382 000c 02B0     		add	sp, sp, #8
 383              		@ sp needed
 384 000e 7047     		bx	lr
 385              		.cfi_endproc
 386              	.LFE126:
 387              		.size	chEvtObjectInit, .-chEvtObjectInit
 388              		.section	.text.chEvtRegisterMask,"ax",%progbits
 389              		.align	1
 390              		.p2align 4,,15
 391              		.syntax unified
 392              		.code	16
 393              		.thumb_func
 394              		.fpu softvfp
 395              		.type	chEvtRegisterMask, %function
 396              	chEvtRegisterMask:
 397              	.LFB127:
 398              		.loc 8 191 0
 399              		.cfi_startproc
ARM GAS  /tmp/cc27PM82.s 			page 8


 400              		@ args = 0, pretend = 0, frame = 16
 401              		@ frame_needed = 0, uses_anonymous_args = 0
 402 0000 00B5     		push	{lr}
 403              		.cfi_def_cfa_offset 4
 404              		.cfi_offset 14, -4
 405 0002 85B0     		sub	sp, sp, #20
 406              		.cfi_def_cfa_offset 24
 407 0004 0390     		str	r0, [sp, #12]
 408 0006 0291     		str	r1, [sp, #8]
 409 0008 0192     		str	r2, [sp, #4]
 410              		.loc 8 193 0
 411 000a 0123     		movs	r3, #1
 412 000c 5B42     		rsbs	r3, r3, #0
 413 000e 019A     		ldr	r2, [sp, #4]
 414 0010 0299     		ldr	r1, [sp, #8]
 415 0012 0398     		ldr	r0, [sp, #12]
 416 0014 FFF7FEFF 		bl	chEvtRegisterMaskWithFlags
 417              		.loc 8 194 0
 418 0018 C046     		nop
 419 001a 05B0     		add	sp, sp, #20
 420              		@ sp needed
 421 001c 00BD     		pop	{pc}
 422              		.cfi_endproc
 423              	.LFE127:
 424              		.size	chEvtRegisterMask, .-chEvtRegisterMask
 425 001e C046     		.section	.text.chEvtIsListeningI,"ax",%progbits
 426              		.align	1
 427              		.p2align 4,,15
 428              		.syntax unified
 429              		.code	16
 430              		.thumb_func
 431              		.fpu softvfp
 432              		.type	chEvtIsListeningI, %function
 433              	chEvtIsListeningI:
 434              	.LFB129:
 435              		.loc 8 224 0
 436              		.cfi_startproc
 437              		@ args = 0, pretend = 0, frame = 8
 438              		@ frame_needed = 0, uses_anonymous_args = 0
 439              		@ link register save eliminated.
 440 0000 82B0     		sub	sp, sp, #8
 441              		.cfi_def_cfa_offset 8
 442 0002 0190     		str	r0, [sp, #4]
 443              		.loc 8 226 0
 444 0004 019B     		ldr	r3, [sp, #4]
 445 0006 1A68     		ldr	r2, [r3]
 446 0008 019B     		ldr	r3, [sp, #4]
 447 000a D31A     		subs	r3, r2, r3
 448 000c 5A1E     		subs	r2, r3, #1
 449 000e 9341     		sbcs	r3, r3, r2
 450 0010 DBB2     		uxtb	r3, r3
 451              		.loc 8 227 0
 452 0012 1800     		movs	r0, r3
 453 0014 02B0     		add	sp, sp, #8
 454              		@ sp needed
 455 0016 7047     		bx	lr
 456              		.cfi_endproc
ARM GAS  /tmp/cc27PM82.s 			page 9


 457              	.LFE129:
 458              		.size	chEvtIsListeningI, .-chEvtIsListeningI
 459              		.section	.text.chEvtBroadcast,"ax",%progbits
 460              		.align	1
 461              		.p2align 4,,15
 462              		.syntax unified
 463              		.code	16
 464              		.thumb_func
 465              		.fpu softvfp
 466              		.type	chEvtBroadcast, %function
 467              	chEvtBroadcast:
 468              	.LFB130:
 469              		.loc 8 237 0
 470              		.cfi_startproc
 471              		@ args = 0, pretend = 0, frame = 8
 472              		@ frame_needed = 0, uses_anonymous_args = 0
 473 0000 00B5     		push	{lr}
 474              		.cfi_def_cfa_offset 4
 475              		.cfi_offset 14, -4
 476 0002 83B0     		sub	sp, sp, #12
 477              		.cfi_def_cfa_offset 16
 478 0004 0190     		str	r0, [sp, #4]
 479              		.loc 8 239 0
 480 0006 019B     		ldr	r3, [sp, #4]
 481 0008 0021     		movs	r1, #0
 482 000a 1800     		movs	r0, r3
 483 000c FFF7FEFF 		bl	chEvtBroadcastFlags
 484              		.loc 8 240 0
 485 0010 C046     		nop
 486 0012 03B0     		add	sp, sp, #12
 487              		@ sp needed
 488 0014 00BD     		pop	{pc}
 489              		.cfi_endproc
 490              	.LFE130:
 491              		.size	chEvtBroadcast, .-chEvtBroadcast
 492 0016 C046     		.section	.data.es1,"aw",%progbits
 493              		.align	2
 494              		.type	es1, %object
 495              		.size	es1, 4
 496              	es1:
 497 0000 00000000 		.word	es1
 498              		.section	.data.es2,"aw",%progbits
 499              		.align	2
 500              		.type	es2, %object
 501              		.size	es2, 4
 502              	es2:
 503 0000 00000000 		.word	es2
 504              		.section	.text.evt1_setup,"ax",%progbits
 505              		.align	1
 506              		.p2align 4,,15
 507              		.syntax unified
 508              		.code	16
 509              		.thumb_func
 510              		.fpu softvfp
 511              		.type	evt1_setup, %function
 512              	evt1_setup:
 513              	.LFB152:
ARM GAS  /tmp/cc27PM82.s 			page 10


 514              		.file 9 "ChibiOS/test/rt/testevt.c"
 515              		.loc 9 75 0
 516              		.cfi_startproc
 517              		@ args = 0, pretend = 0, frame = 0
 518              		@ frame_needed = 0, uses_anonymous_args = 0
 519 0000 10B5     		push	{r4, lr}
 520              		.cfi_def_cfa_offset 8
 521              		.cfi_offset 4, -8
 522              		.cfi_offset 14, -4
 523              		.loc 9 77 0
 524 0002 0123     		movs	r3, #1
 525 0004 5B42     		rsbs	r3, r3, #0
 526 0006 1800     		movs	r0, r3
 527 0008 FFF7FEFF 		bl	chEvtGetAndClearEvents
 528              		.loc 9 78 0
 529 000c C046     		nop
 530              		@ sp needed
 531 000e 10BD     		pop	{r4, pc}
 532              		.cfi_endproc
 533              	.LFE152:
 534              		.size	evt1_setup, .-evt1_setup
 535              		.section	.text.h1,"ax",%progbits
 536              		.align	1
 537              		.p2align 4,,15
 538              		.syntax unified
 539              		.code	16
 540              		.thumb_func
 541              		.fpu softvfp
 542              		.type	h1, %function
 543              	h1:
 544              	.LFB153:
 545              		.loc 9 80 0
 546              		.cfi_startproc
 547              		@ args = 0, pretend = 0, frame = 8
 548              		@ frame_needed = 0, uses_anonymous_args = 0
 549 0000 00B5     		push	{lr}
 550              		.cfi_def_cfa_offset 4
 551              		.cfi_offset 14, -4
 552 0002 83B0     		sub	sp, sp, #12
 553              		.cfi_def_cfa_offset 16
 554 0004 0190     		str	r0, [sp, #4]
 555              		.loc 9 80 0
 556 0006 4120     		movs	r0, #65
 557 0008 FFF7FEFF 		bl	test_emit_token
 558 000c C046     		nop
 559 000e 03B0     		add	sp, sp, #12
 560              		@ sp needed
 561 0010 00BD     		pop	{pc}
 562              		.cfi_endproc
 563              	.LFE153:
 564              		.size	h1, .-h1
 565 0012 C046     		.section	.text.h2,"ax",%progbits
 566              		.align	1
 567              		.p2align 4,,15
 568              		.syntax unified
 569              		.code	16
 570              		.thumb_func
ARM GAS  /tmp/cc27PM82.s 			page 11


 571              		.fpu softvfp
 572              		.type	h2, %function
 573              	h2:
 574              	.LFB154:
 575              		.loc 9 81 0
 576              		.cfi_startproc
 577              		@ args = 0, pretend = 0, frame = 8
 578              		@ frame_needed = 0, uses_anonymous_args = 0
 579 0000 00B5     		push	{lr}
 580              		.cfi_def_cfa_offset 4
 581              		.cfi_offset 14, -4
 582 0002 83B0     		sub	sp, sp, #12
 583              		.cfi_def_cfa_offset 16
 584 0004 0190     		str	r0, [sp, #4]
 585              		.loc 9 81 0
 586 0006 4220     		movs	r0, #66
 587 0008 FFF7FEFF 		bl	test_emit_token
 588 000c C046     		nop
 589 000e 03B0     		add	sp, sp, #12
 590              		@ sp needed
 591 0010 00BD     		pop	{pc}
 592              		.cfi_endproc
 593              	.LFE154:
 594              		.size	h2, .-h2
 595 0012 C046     		.section	.text.h3,"ax",%progbits
 596              		.align	1
 597              		.p2align 4,,15
 598              		.syntax unified
 599              		.code	16
 600              		.thumb_func
 601              		.fpu softvfp
 602              		.type	h3, %function
 603              	h3:
 604              	.LFB155:
 605              		.loc 9 82 0
 606              		.cfi_startproc
 607              		@ args = 0, pretend = 0, frame = 8
 608              		@ frame_needed = 0, uses_anonymous_args = 0
 609 0000 00B5     		push	{lr}
 610              		.cfi_def_cfa_offset 4
 611              		.cfi_offset 14, -4
 612 0002 83B0     		sub	sp, sp, #12
 613              		.cfi_def_cfa_offset 16
 614 0004 0190     		str	r0, [sp, #4]
 615              		.loc 9 82 0
 616 0006 4320     		movs	r0, #67
 617 0008 FFF7FEFF 		bl	test_emit_token
 618 000c C046     		nop
 619 000e 03B0     		add	sp, sp, #12
 620              		@ sp needed
 621 0010 00BD     		pop	{pc}
 622              		.cfi_endproc
 623              	.LFE155:
 624              		.size	h3, .-h3
 625 0012 C046     		.section	.rodata.evhndl,"a",%progbits
 626              		.align	2
 627              		.type	evhndl, %object
ARM GAS  /tmp/cc27PM82.s 			page 12


 628              		.size	evhndl, 12
 629              	evhndl:
 630 0000 00000000 		.word	h1
 631 0004 00000000 		.word	h2
 632 0008 00000000 		.word	h3
 633              		.section	.rodata
 634              		.align	2
 635              	.LC5:
 636 0000 41424300 		.ascii	"ABC\000"
 637              		.section	.text.evt1_execute,"ax",%progbits
 638              		.align	1
 639              		.p2align 4,,15
 640              		.syntax unified
 641              		.code	16
 642              		.thumb_func
 643              		.fpu softvfp
 644              		.type	evt1_execute, %function
 645              	evt1_execute:
 646              	.LFB156:
 647              		.loc 9 85 0
 648              		.cfi_startproc
 649              		@ args = 0, pretend = 0, frame = 40
 650              		@ frame_needed = 0, uses_anonymous_args = 0
 651 0000 00B5     		push	{lr}
 652              		.cfi_def_cfa_offset 4
 653              		.cfi_offset 14, -4
 654 0002 8BB0     		sub	sp, sp, #44
 655              		.cfi_def_cfa_offset 48
 656              		.loc 9 91 0
 657 0004 2C4B     		ldr	r3, .L43
 658 0006 1800     		movs	r0, r3
 659 0008 FFF7FEFF 		bl	chEvtObjectInit
 660              		.loc 9 92 0
 661 000c 05A9     		add	r1, sp, #20
 662 000e 2A4B     		ldr	r3, .L43
 663 0010 0122     		movs	r2, #1
 664 0012 1800     		movs	r0, r3
 665 0014 FFF7FEFF 		bl	chEvtRegisterMask
 666              		.loc 9 93 0
 667 0018 6946     		mov	r1, sp
 668 001a 274B     		ldr	r3, .L43
 669 001c 0222     		movs	r2, #2
 670 001e 1800     		movs	r0, r3
 671 0020 FFF7FEFF 		bl	chEvtRegisterMask
 672              		.loc 9 94 0
 673 0024 244B     		ldr	r3, .L43
 674 0026 1800     		movs	r0, r3
 675 0028 FFF7FEFF 		bl	chEvtIsListeningI
 676 002c 0300     		movs	r3, r0
 677 002e 1900     		movs	r1, r3
 678 0030 0120     		movs	r0, #1
 679 0032 FFF7FEFF 		bl	_test_assert
 680 0036 031E     		subs	r3, r0, #0
 681 0038 36D1     		bne	.L40
 682              		.loc 9 95 0
 683 003a 05AA     		add	r2, sp, #20
 684 003c 1E4B     		ldr	r3, .L43
ARM GAS  /tmp/cc27PM82.s 			page 13


 685 003e 1100     		movs	r1, r2
 686 0040 1800     		movs	r0, r3
 687 0042 FFF7FEFF 		bl	chEvtUnregister
 688              		.loc 9 96 0
 689 0046 1C4B     		ldr	r3, .L43
 690 0048 1800     		movs	r0, r3
 691 004a FFF7FEFF 		bl	chEvtIsListeningI
 692 004e 0300     		movs	r3, r0
 693 0050 1900     		movs	r1, r3
 694 0052 0220     		movs	r0, #2
 695 0054 FFF7FEFF 		bl	_test_assert
 696 0058 031E     		subs	r3, r0, #0
 697 005a 27D1     		bne	.L41
 698              		.loc 9 97 0
 699 005c 6A46     		mov	r2, sp
 700 005e 164B     		ldr	r3, .L43
 701 0060 1100     		movs	r1, r2
 702 0062 1800     		movs	r0, r3
 703 0064 FFF7FEFF 		bl	chEvtUnregister
 704              		.loc 9 98 0
 705 0068 134B     		ldr	r3, .L43
 706 006a 1800     		movs	r0, r3
 707 006c FFF7FEFF 		bl	chEvtIsListeningI
 708 0070 0300     		movs	r3, r0
 709 0072 5A1E     		subs	r2, r3, #1
 710 0074 9341     		sbcs	r3, r3, r2
 711 0076 DBB2     		uxtb	r3, r3
 712 0078 0122     		movs	r2, #1
 713 007a 5340     		eors	r3, r2
 714 007c DBB2     		uxtb	r3, r3
 715 007e 1A1C     		adds	r2, r3, #0
 716 0080 0123     		movs	r3, #1
 717 0082 1340     		ands	r3, r2
 718 0084 DBB2     		uxtb	r3, r3
 719 0086 1900     		movs	r1, r3
 720 0088 0320     		movs	r0, #3
 721 008a FFF7FEFF 		bl	_test_assert
 722 008e 031E     		subs	r3, r0, #0
 723 0090 0ED1     		bne	.L42
 724              		.loc 9 103 0
 725 0092 0A4B     		ldr	r3, .L43+4
 726 0094 0721     		movs	r1, #7
 727 0096 1800     		movs	r0, r3
 728 0098 FFF7FEFF 		bl	chEvtDispatch
 729              		.loc 9 104 0
 730 009c 084B     		ldr	r3, .L43+8
 731 009e 1900     		movs	r1, r3
 732 00a0 0420     		movs	r0, #4
 733 00a2 FFF7FEFF 		bl	_test_assert_sequence
 734 00a6 04E0     		b	.L33
 735              	.L40:
 736              		.loc 9 94 0
 737 00a8 C046     		nop
 738 00aa 02E0     		b	.L33
 739              	.L41:
 740              		.loc 9 96 0
 741 00ac C046     		nop
ARM GAS  /tmp/cc27PM82.s 			page 14


 742 00ae 00E0     		b	.L33
 743              	.L42:
 744              		.loc 9 98 0
 745 00b0 C046     		nop
 746              	.L33:
 747              		.loc 9 105 0
 748 00b2 0BB0     		add	sp, sp, #44
 749              		@ sp needed
 750 00b4 00BD     		pop	{pc}
 751              	.L44:
 752 00b6 C046     		.align	2
 753              	.L43:
 754 00b8 00000000 		.word	es1
 755 00bc 00000000 		.word	evhndl
 756 00c0 00000000 		.word	.LC5
 757              		.cfi_endproc
 758              	.LFE156:
 759              		.size	evt1_execute, .-evt1_execute
 760              		.global	testevt1
 761              		.section	.rodata
 762              		.align	2
 763              	.LC7:
 764 0004 4576656E 		.ascii	"Events, registration and dispatch\000"
 764      74732C20 
 764      72656769 
 764      73747261 
 764      74696F6E 
 765              		.section	.rodata.testevt1,"a",%progbits
 766              		.align	2
 767              		.type	testevt1, %object
 768              		.size	testevt1, 16
 769              	testevt1:
 770 0000 04000000 		.word	.LC7
 771 0004 00000000 		.word	evt1_setup
 772 0008 00000000 		.word	0
 773 000c 00000000 		.word	evt1_execute
 774              		.section	.text.evt2_setup,"ax",%progbits
 775              		.align	1
 776              		.p2align 4,,15
 777              		.syntax unified
 778              		.code	16
 779              		.thumb_func
 780              		.fpu softvfp
 781              		.type	evt2_setup, %function
 782              	evt2_setup:
 783              	.LFB157:
 784              		.loc 9 128 0
 785              		.cfi_startproc
 786              		@ args = 0, pretend = 0, frame = 0
 787              		@ frame_needed = 0, uses_anonymous_args = 0
 788 0000 10B5     		push	{r4, lr}
 789              		.cfi_def_cfa_offset 8
 790              		.cfi_offset 4, -8
 791              		.cfi_offset 14, -4
 792              		.loc 9 130 0
 793 0002 0123     		movs	r3, #1
 794 0004 5B42     		rsbs	r3, r3, #0
ARM GAS  /tmp/cc27PM82.s 			page 15


 795 0006 1800     		movs	r0, r3
 796 0008 FFF7FEFF 		bl	chEvtGetAndClearEvents
 797              		.loc 9 131 0
 798 000c C046     		nop
 799              		@ sp needed
 800 000e 10BD     		pop	{r4, pc}
 801              		.cfi_endproc
 802              	.LFE157:
 803              		.size	evt2_setup, .-evt2_setup
 804              		.section	.text.thread1,"ax",%progbits
 805              		.align	1
 806              		.p2align 4,,15
 807              		.syntax unified
 808              		.code	16
 809              		.thumb_func
 810              		.fpu softvfp
 811              		.type	thread1, %function
 812              	thread1:
 813              	.LFB158:
 814              		.loc 9 133 0
 815              		.cfi_startproc
 816              		@ args = 0, pretend = 0, frame = 8
 817              		@ frame_needed = 0, uses_anonymous_args = 0
 818 0000 00B5     		push	{lr}
 819              		.cfi_def_cfa_offset 4
 820              		.cfi_offset 14, -4
 821 0002 83B0     		sub	sp, sp, #12
 822              		.cfi_def_cfa_offset 16
 823 0004 0190     		str	r0, [sp, #4]
 824              		.loc 9 135 0
 825 0006 FA23     		movs	r3, #250
 826 0008 5B00     		lsls	r3, r3, #1
 827 000a 1800     		movs	r0, r3
 828 000c FFF7FEFF 		bl	chThdSleep
 829              		.loc 9 136 0
 830 0010 019B     		ldr	r3, [sp, #4]
 831 0012 0121     		movs	r1, #1
 832 0014 1800     		movs	r0, r3
 833 0016 FFF7FEFF 		bl	chEvtSignal
 834              		.loc 9 137 0
 835 001a C046     		nop
 836 001c 03B0     		add	sp, sp, #12
 837              		@ sp needed
 838 001e 00BD     		pop	{pc}
 839              		.cfi_endproc
 840              	.LFE158:
 841              		.size	thread1, .-thread1
 842              		.section	.text.thread2,"ax",%progbits
 843              		.align	1
 844              		.p2align 4,,15
 845              		.syntax unified
 846              		.code	16
 847              		.thumb_func
 848              		.fpu softvfp
 849              		.type	thread2, %function
 850              	thread2:
 851              	.LFB159:
ARM GAS  /tmp/cc27PM82.s 			page 16


 852              		.loc 9 139 0
 853              		.cfi_startproc
 854              		@ args = 0, pretend = 0, frame = 8
 855              		@ frame_needed = 0, uses_anonymous_args = 0
 856 0000 00B5     		push	{lr}
 857              		.cfi_def_cfa_offset 4
 858              		.cfi_offset 14, -4
 859 0002 83B0     		sub	sp, sp, #12
 860              		.cfi_def_cfa_offset 16
 861 0004 0190     		str	r0, [sp, #4]
 862              		.loc 9 142 0
 863 0006 084B     		ldr	r3, .L48
 864 0008 1800     		movs	r0, r3
 865 000a FFF7FEFF 		bl	chEvtBroadcast
 866              		.loc 9 143 0
 867 000e FA23     		movs	r3, #250
 868 0010 5B00     		lsls	r3, r3, #1
 869 0012 1800     		movs	r0, r3
 870 0014 FFF7FEFF 		bl	chThdSleep
 871              		.loc 9 144 0
 872 0018 044B     		ldr	r3, .L48+4
 873 001a 1800     		movs	r0, r3
 874 001c FFF7FEFF 		bl	chEvtBroadcast
 875              		.loc 9 145 0
 876 0020 C046     		nop
 877 0022 03B0     		add	sp, sp, #12
 878              		@ sp needed
 879 0024 00BD     		pop	{pc}
 880              	.L49:
 881 0026 C046     		.align	2
 882              	.L48:
 883 0028 00000000 		.word	es1
 884 002c 00000000 		.word	es2
 885              		.cfi_endproc
 886              	.LFE159:
 887              		.size	thread2, .-thread2
 888              		.section	.rodata
 889 0026 0000     		.align	2
 890              	.LC16:
 891 0028 4100     		.ascii	"A\000"
 892              		.section	.text.evt2_execute,"ax",%progbits
 893              		.align	1
 894              		.p2align 4,,15
 895              		.syntax unified
 896              		.code	16
 897              		.thumb_func
 898              		.fpu softvfp
 899              		.type	evt2_execute, %function
 900              	evt2_execute:
 901              	.LFB160:
 902              		.loc 9 147 0
 903              		.cfi_startproc
 904              		@ args = 0, pretend = 0, frame = 48
 905              		@ frame_needed = 0, uses_anonymous_args = 0
 906 0000 30B5     		push	{r4, r5, lr}
 907              		.cfi_def_cfa_offset 12
 908              		.cfi_offset 4, -12
ARM GAS  /tmp/cc27PM82.s 			page 17


 909              		.cfi_offset 5, -8
 910              		.cfi_offset 14, -4
 911 0002 8FB0     		sub	sp, sp, #60
 912              		.cfi_def_cfa_offset 72
 913              		.loc 9 155 0
 914 0004 0720     		movs	r0, #7
 915 0006 FFF7FEFF 		bl	chEvtAddEvents
 916              		.loc 9 156 0
 917 000a 0123     		movs	r3, #1
 918 000c 5B42     		rsbs	r3, r3, #0
 919 000e 1800     		movs	r0, r3
 920 0010 FFF7FEFF 		bl	chEvtWaitOne
 921 0014 0300     		movs	r3, r0
 922 0016 0D93     		str	r3, [sp, #52]
 923              		.loc 9 157 0
 924 0018 0D9B     		ldr	r3, [sp, #52]
 925 001a 013B     		subs	r3, r3, #1
 926 001c 5A42     		rsbs	r2, r3, #0
 927 001e 5341     		adcs	r3, r3, r2
 928 0020 DBB2     		uxtb	r3, r3
 929 0022 1900     		movs	r1, r3
 930 0024 0120     		movs	r0, #1
 931 0026 FFF7FEFF 		bl	_test_assert
 932 002a 031E     		subs	r3, r0, #0
 933 002c 00D0     		beq	.LCB598
 934 002e 95E1     		b	.L69	@long jump
 935              	.LCB598:
 936              		.loc 9 158 0
 937 0030 0123     		movs	r3, #1
 938 0032 5B42     		rsbs	r3, r3, #0
 939 0034 1800     		movs	r0, r3
 940 0036 FFF7FEFF 		bl	chEvtWaitOne
 941 003a 0300     		movs	r3, r0
 942 003c 0D93     		str	r3, [sp, #52]
 943              		.loc 9 159 0
 944 003e 0D9B     		ldr	r3, [sp, #52]
 945 0040 023B     		subs	r3, r3, #2
 946 0042 5A42     		rsbs	r2, r3, #0
 947 0044 5341     		adcs	r3, r3, r2
 948 0046 DBB2     		uxtb	r3, r3
 949 0048 1900     		movs	r1, r3
 950 004a 0220     		movs	r0, #2
 951 004c FFF7FEFF 		bl	_test_assert
 952 0050 031E     		subs	r3, r0, #0
 953 0052 00D0     		beq	.LCB614
 954 0054 84E1     		b	.L70	@long jump
 955              	.LCB614:
 956              		.loc 9 160 0
 957 0056 0123     		movs	r3, #1
 958 0058 5B42     		rsbs	r3, r3, #0
 959 005a 1800     		movs	r0, r3
 960 005c FFF7FEFF 		bl	chEvtWaitOne
 961 0060 0300     		movs	r3, r0
 962 0062 0D93     		str	r3, [sp, #52]
 963              		.loc 9 161 0
 964 0064 0D9B     		ldr	r3, [sp, #52]
 965 0066 043B     		subs	r3, r3, #4
ARM GAS  /tmp/cc27PM82.s 			page 18


 966 0068 5A42     		rsbs	r2, r3, #0
 967 006a 5341     		adcs	r3, r3, r2
 968 006c DBB2     		uxtb	r3, r3
 969 006e 1900     		movs	r1, r3
 970 0070 0320     		movs	r0, #3
 971 0072 FFF7FEFF 		bl	_test_assert
 972 0076 031E     		subs	r3, r0, #0
 973 0078 00D0     		beq	.LCB630
 974 007a 73E1     		b	.L71	@long jump
 975              	.LCB630:
 976              		.loc 9 162 0
 977 007c 0123     		movs	r3, #1
 978 007e 5B42     		rsbs	r3, r3, #0
 979 0080 1800     		movs	r0, r3
 980 0082 FFF7FEFF 		bl	chEvtGetAndClearEvents
 981 0086 0300     		movs	r3, r0
 982 0088 0D93     		str	r3, [sp, #52]
 983              		.loc 9 163 0
 984 008a 0D9B     		ldr	r3, [sp, #52]
 985 008c 5A42     		rsbs	r2, r3, #0
 986 008e 5341     		adcs	r3, r3, r2
 987 0090 DBB2     		uxtb	r3, r3
 988 0092 1900     		movs	r1, r3
 989 0094 0420     		movs	r0, #4
 990 0096 FFF7FEFF 		bl	_test_assert
 991 009a 031E     		subs	r3, r0, #0
 992 009c 00D0     		beq	.LCB645
 993 009e 63E1     		b	.L72	@long jump
 994              	.LCB645:
 995              		.loc 9 168 0
 996 00a0 FFF7FEFF 		bl	test_wait_tick
 997              		.loc 9 169 0
 998 00a4 FFF7FEFF 		bl	chVTGetSystemTime
 999 00a8 0300     		movs	r3, r0
 1000 00aa 1A00     		movs	r2, r3
 1001 00ac 3223     		movs	r3, #50
 1002 00ae 6B44     		add	r3, r3, sp
 1003 00b0 F532     		adds	r2, r2, #245
 1004 00b2 FF32     		adds	r2, r2, #255
 1005 00b4 1A80     		strh	r2, [r3]
 1006              		.loc 9 170 0
 1007 00b6 B94B     		ldr	r3, .L84
 1008 00b8 1C68     		ldr	r4, [r3]
 1009 00ba FFF7FEFF 		bl	chThdGetPriorityX
 1010 00be 0300     		movs	r3, r0
 1011 00c0 5D1E     		subs	r5, r3, #1
 1012              		.loc 9 171 0
 1013 00c2 FFF7FEFF 		bl	chThdGetSelfX
 1014              		.loc 9 170 0
 1015 00c6 B64A     		ldr	r2, .L84+4
 1016 00c8 A823     		movs	r3, #168
 1017 00ca 5900     		lsls	r1, r3, #1
 1018 00cc 0090     		str	r0, [sp]
 1019 00ce 1300     		movs	r3, r2
 1020 00d0 2A00     		movs	r2, r5
 1021 00d2 2000     		movs	r0, r4
 1022 00d4 FFF7FEFF 		bl	chThdCreateStatic
ARM GAS  /tmp/cc27PM82.s 			page 19


 1023 00d8 0200     		movs	r2, r0
 1024 00da B24B     		ldr	r3, .L84+8
 1025 00dc 1A60     		str	r2, [r3]
 1026              		.loc 9 172 0
 1027 00de 0123     		movs	r3, #1
 1028 00e0 5B42     		rsbs	r3, r3, #0
 1029 00e2 1800     		movs	r0, r3
 1030 00e4 FFF7FEFF 		bl	chEvtWaitOne
 1031 00e8 0300     		movs	r3, r0
 1032 00ea 0D93     		str	r3, [sp, #52]
 1033              		.loc 9 173 0
 1034 00ec 3223     		movs	r3, #50
 1035 00ee 6B44     		add	r3, r3, sp
 1036 00f0 1B88     		ldrh	r3, [r3]
 1037 00f2 3233     		adds	r3, r3, #50
 1038 00f4 9AB2     		uxth	r2, r3
 1039 00f6 3223     		movs	r3, #50
 1040 00f8 6B44     		add	r3, r3, sp
 1041 00fa 1B88     		ldrh	r3, [r3]
 1042 00fc 1900     		movs	r1, r3
 1043 00fe 0520     		movs	r0, #5
 1044 0100 FFF7FEFF 		bl	_test_assert_time_window
 1045 0104 031E     		subs	r3, r0, #0
 1046 0106 00D0     		beq	.LCB691
 1047 0108 30E1     		b	.L73	@long jump
 1048              	.LCB691:
 1049              		.loc 9 174 0
 1050 010a 0D9B     		ldr	r3, [sp, #52]
 1051 010c 013B     		subs	r3, r3, #1
 1052 010e 5A42     		rsbs	r2, r3, #0
 1053 0110 5341     		adcs	r3, r3, r2
 1054 0112 DBB2     		uxtb	r3, r3
 1055 0114 1900     		movs	r1, r3
 1056 0116 0620     		movs	r0, #6
 1057 0118 FFF7FEFF 		bl	_test_assert
 1058 011c 031E     		subs	r3, r0, #0
 1059 011e 00D0     		beq	.LCB701
 1060 0120 26E1     		b	.L74	@long jump
 1061              	.LCB701:
 1062              		.loc 9 175 0
 1063 0122 0123     		movs	r3, #1
 1064 0124 5B42     		rsbs	r3, r3, #0
 1065 0126 1800     		movs	r0, r3
 1066 0128 FFF7FEFF 		bl	chEvtGetAndClearEvents
 1067 012c 0300     		movs	r3, r0
 1068 012e 0D93     		str	r3, [sp, #52]
 1069              		.loc 9 176 0
 1070 0130 0D9B     		ldr	r3, [sp, #52]
 1071 0132 5A42     		rsbs	r2, r3, #0
 1072 0134 5341     		adcs	r3, r3, r2
 1073 0136 DBB2     		uxtb	r3, r3
 1074 0138 1900     		movs	r1, r3
 1075 013a 0720     		movs	r0, #7
 1076 013c FFF7FEFF 		bl	_test_assert
 1077 0140 031E     		subs	r3, r0, #0
 1078 0142 00D0     		beq	.LCB716
 1079 0144 16E1     		b	.L75	@long jump
ARM GAS  /tmp/cc27PM82.s 			page 20


 1080              	.LCB716:
 1081              		.loc 9 177 0
 1082 0146 FFF7FEFF 		bl	test_wait_threads
 1083              		.loc 9 182 0
 1084 014a 0520     		movs	r0, #5
 1085 014c FFF7FEFF 		bl	chEvtAddEvents
 1086              		.loc 9 183 0
 1087 0150 0123     		movs	r3, #1
 1088 0152 5B42     		rsbs	r3, r3, #0
 1089 0154 1800     		movs	r0, r3
 1090 0156 FFF7FEFF 		bl	chEvtWaitAny
 1091 015a 0300     		movs	r3, r0
 1092 015c 0D93     		str	r3, [sp, #52]
 1093              		.loc 9 184 0
 1094 015e 0D9B     		ldr	r3, [sp, #52]
 1095 0160 053B     		subs	r3, r3, #5
 1096 0162 5A42     		rsbs	r2, r3, #0
 1097 0164 5341     		adcs	r3, r3, r2
 1098 0166 DBB2     		uxtb	r3, r3
 1099 0168 1900     		movs	r1, r3
 1100 016a 0820     		movs	r0, #8
 1101 016c FFF7FEFF 		bl	_test_assert
 1102 0170 031E     		subs	r3, r0, #0
 1103 0172 00D0     		beq	.LCB735
 1104 0174 00E1     		b	.L76	@long jump
 1105              	.LCB735:
 1106              		.loc 9 185 0
 1107 0176 0123     		movs	r3, #1
 1108 0178 5B42     		rsbs	r3, r3, #0
 1109 017a 1800     		movs	r0, r3
 1110 017c FFF7FEFF 		bl	chEvtGetAndClearEvents
 1111 0180 0300     		movs	r3, r0
 1112 0182 0D93     		str	r3, [sp, #52]
 1113              		.loc 9 186 0
 1114 0184 0D9B     		ldr	r3, [sp, #52]
 1115 0186 5A42     		rsbs	r2, r3, #0
 1116 0188 5341     		adcs	r3, r3, r2
 1117 018a DBB2     		uxtb	r3, r3
 1118 018c 1900     		movs	r1, r3
 1119 018e 0920     		movs	r0, #9
 1120 0190 FFF7FEFF 		bl	_test_assert
 1121 0194 031E     		subs	r3, r0, #0
 1122 0196 00D0     		beq	.LCB750
 1123 0198 F0E0     		b	.L77	@long jump
 1124              	.LCB750:
 1125              		.loc 9 191 0
 1126 019a FFF7FEFF 		bl	test_wait_tick
 1127              		.loc 9 192 0
 1128 019e FFF7FEFF 		bl	chVTGetSystemTime
 1129 01a2 0300     		movs	r3, r0
 1130 01a4 1A00     		movs	r2, r3
 1131 01a6 3223     		movs	r3, #50
 1132 01a8 6B44     		add	r3, r3, sp
 1133 01aa F532     		adds	r2, r2, #245
 1134 01ac FF32     		adds	r2, r2, #255
 1135 01ae 1A80     		strh	r2, [r3]
 1136              		.loc 9 193 0
ARM GAS  /tmp/cc27PM82.s 			page 21


 1137 01b0 7A4B     		ldr	r3, .L84
 1138 01b2 1C68     		ldr	r4, [r3]
 1139 01b4 FFF7FEFF 		bl	chThdGetPriorityX
 1140 01b8 0300     		movs	r3, r0
 1141 01ba 5D1E     		subs	r5, r3, #1
 1142              		.loc 9 194 0
 1143 01bc FFF7FEFF 		bl	chThdGetSelfX
 1144              		.loc 9 193 0
 1145 01c0 774A     		ldr	r2, .L84+4
 1146 01c2 A823     		movs	r3, #168
 1147 01c4 5900     		lsls	r1, r3, #1
 1148 01c6 0090     		str	r0, [sp]
 1149 01c8 1300     		movs	r3, r2
 1150 01ca 2A00     		movs	r2, r5
 1151 01cc 2000     		movs	r0, r4
 1152 01ce FFF7FEFF 		bl	chThdCreateStatic
 1153 01d2 0200     		movs	r2, r0
 1154 01d4 734B     		ldr	r3, .L84+8
 1155 01d6 1A60     		str	r2, [r3]
 1156              		.loc 9 195 0
 1157 01d8 0123     		movs	r3, #1
 1158 01da 5B42     		rsbs	r3, r3, #0
 1159 01dc 1800     		movs	r0, r3
 1160 01de FFF7FEFF 		bl	chEvtWaitAny
 1161 01e2 0300     		movs	r3, r0
 1162 01e4 0D93     		str	r3, [sp, #52]
 1163              		.loc 9 196 0
 1164 01e6 3223     		movs	r3, #50
 1165 01e8 6B44     		add	r3, r3, sp
 1166 01ea 1B88     		ldrh	r3, [r3]
 1167 01ec 3233     		adds	r3, r3, #50
 1168 01ee 9AB2     		uxth	r2, r3
 1169 01f0 3223     		movs	r3, #50
 1170 01f2 6B44     		add	r3, r3, sp
 1171 01f4 1B88     		ldrh	r3, [r3]
 1172 01f6 1900     		movs	r1, r3
 1173 01f8 0A20     		movs	r0, #10
 1174 01fa FFF7FEFF 		bl	_test_assert_time_window
 1175 01fe 031E     		subs	r3, r0, #0
 1176 0200 00D0     		beq	.LCB796
 1177 0202 BDE0     		b	.L78	@long jump
 1178              	.LCB796:
 1179              		.loc 9 197 0
 1180 0204 0D9B     		ldr	r3, [sp, #52]
 1181 0206 013B     		subs	r3, r3, #1
 1182 0208 5A42     		rsbs	r2, r3, #0
 1183 020a 5341     		adcs	r3, r3, r2
 1184 020c DBB2     		uxtb	r3, r3
 1185 020e 1900     		movs	r1, r3
 1186 0210 0B20     		movs	r0, #11
 1187 0212 FFF7FEFF 		bl	_test_assert
 1188 0216 031E     		subs	r3, r0, #0
 1189 0218 00D0     		beq	.LCB806
 1190 021a B3E0     		b	.L79	@long jump
 1191              	.LCB806:
 1192              		.loc 9 198 0
 1193 021c 0123     		movs	r3, #1
ARM GAS  /tmp/cc27PM82.s 			page 22


 1194 021e 5B42     		rsbs	r3, r3, #0
 1195 0220 1800     		movs	r0, r3
 1196 0222 FFF7FEFF 		bl	chEvtGetAndClearEvents
 1197 0226 0300     		movs	r3, r0
 1198 0228 0D93     		str	r3, [sp, #52]
 1199              		.loc 9 199 0
 1200 022a 0D9B     		ldr	r3, [sp, #52]
 1201 022c 5A42     		rsbs	r2, r3, #0
 1202 022e 5341     		adcs	r3, r3, r2
 1203 0230 DBB2     		uxtb	r3, r3
 1204 0232 1900     		movs	r1, r3
 1205 0234 0C20     		movs	r0, #12
 1206 0236 FFF7FEFF 		bl	_test_assert
 1207 023a 031E     		subs	r3, r0, #0
 1208 023c 00D0     		beq	.LCB821
 1209 023e A3E0     		b	.L80	@long jump
 1210              	.LCB821:
 1211              		.loc 9 200 0
 1212 0240 FFF7FEFF 		bl	test_wait_threads
 1213              		.loc 9 205 0
 1214 0244 584B     		ldr	r3, .L84+12
 1215 0246 1800     		movs	r0, r3
 1216 0248 FFF7FEFF 		bl	chEvtObjectInit
 1217              		.loc 9 206 0
 1218 024c 574B     		ldr	r3, .L84+16
 1219 024e 1800     		movs	r0, r3
 1220 0250 FFF7FEFF 		bl	chEvtObjectInit
 1221              		.loc 9 207 0
 1222 0254 07A9     		add	r1, sp, #28
 1223 0256 544B     		ldr	r3, .L84+12
 1224 0258 0122     		movs	r2, #1
 1225 025a 1800     		movs	r0, r3
 1226 025c FFF7FEFF 		bl	chEvtRegisterMask
 1227              		.loc 9 208 0
 1228 0260 02A9     		add	r1, sp, #8
 1229 0262 524B     		ldr	r3, .L84+16
 1230 0264 0422     		movs	r2, #4
 1231 0266 1800     		movs	r0, r3
 1232 0268 FFF7FEFF 		bl	chEvtRegisterMask
 1233              		.loc 9 209 0
 1234 026c FFF7FEFF 		bl	test_wait_tick
 1235              		.loc 9 210 0
 1236 0270 FFF7FEFF 		bl	chVTGetSystemTime
 1237 0274 0300     		movs	r3, r0
 1238 0276 1A00     		movs	r2, r3
 1239 0278 3223     		movs	r3, #50
 1240 027a 6B44     		add	r3, r3, sp
 1241 027c F532     		adds	r2, r2, #245
 1242 027e FF32     		adds	r2, r2, #255
 1243 0280 1A80     		strh	r2, [r3]
 1244              		.loc 9 211 0
 1245 0282 464B     		ldr	r3, .L84
 1246 0284 1C68     		ldr	r4, [r3]
 1247 0286 FFF7FEFF 		bl	chThdGetPriorityX
 1248 028a 0300     		movs	r3, r0
 1249 028c 5A1E     		subs	r2, r3, #1
 1250 028e 4848     		ldr	r0, .L84+20
ARM GAS  /tmp/cc27PM82.s 			page 23


 1251 0290 A823     		movs	r3, #168
 1252 0292 5900     		lsls	r1, r3, #1
 1253 0294 474B     		ldr	r3, .L84+24
 1254 0296 0093     		str	r3, [sp]
 1255 0298 0300     		movs	r3, r0
 1256 029a 2000     		movs	r0, r4
 1257 029c FFF7FEFF 		bl	chThdCreateStatic
 1258 02a0 0200     		movs	r2, r0
 1259 02a2 404B     		ldr	r3, .L84+8
 1260 02a4 1A60     		str	r2, [r3]
 1261              		.loc 9 213 0
 1262 02a6 0520     		movs	r0, #5
 1263 02a8 FFF7FEFF 		bl	chEvtWaitAll
 1264 02ac 0300     		movs	r3, r0
 1265 02ae 0D93     		str	r3, [sp, #52]
 1266              		.loc 9 214 0
 1267 02b0 3223     		movs	r3, #50
 1268 02b2 6B44     		add	r3, r3, sp
 1269 02b4 1B88     		ldrh	r3, [r3]
 1270 02b6 3233     		adds	r3, r3, #50
 1271 02b8 9AB2     		uxth	r2, r3
 1272 02ba 3223     		movs	r3, #50
 1273 02bc 6B44     		add	r3, r3, sp
 1274 02be 1B88     		ldrh	r3, [r3]
 1275 02c0 1900     		movs	r1, r3
 1276 02c2 0D20     		movs	r0, #13
 1277 02c4 FFF7FEFF 		bl	_test_assert_time_window
 1278 02c8 031E     		subs	r3, r0, #0
 1279 02ca 5FD1     		bne	.L81
 1280              		.loc 9 215 0
 1281 02cc 0123     		movs	r3, #1
 1282 02ce 5B42     		rsbs	r3, r3, #0
 1283 02d0 1800     		movs	r0, r3
 1284 02d2 FFF7FEFF 		bl	chEvtGetAndClearEvents
 1285 02d6 0300     		movs	r3, r0
 1286 02d8 0D93     		str	r3, [sp, #52]
 1287              		.loc 9 216 0
 1288 02da 0D9B     		ldr	r3, [sp, #52]
 1289 02dc 5A42     		rsbs	r2, r3, #0
 1290 02de 5341     		adcs	r3, r3, r2
 1291 02e0 DBB2     		uxtb	r3, r3
 1292 02e2 1900     		movs	r1, r3
 1293 02e4 0E20     		movs	r0, #14
 1294 02e6 FFF7FEFF 		bl	_test_assert
 1295 02ea 031E     		subs	r3, r0, #0
 1296 02ec 50D1     		bne	.L82
 1297              		.loc 9 217 0
 1298 02ee FFF7FEFF 		bl	test_wait_threads
 1299              		.loc 9 218 0
 1300 02f2 07AA     		add	r2, sp, #28
 1301 02f4 2C4B     		ldr	r3, .L84+12
 1302 02f6 1100     		movs	r1, r2
 1303 02f8 1800     		movs	r0, r3
 1304 02fa FFF7FEFF 		bl	chEvtUnregister
 1305              		.loc 9 219 0
 1306 02fe 02AA     		add	r2, sp, #8
 1307 0300 2A4B     		ldr	r3, .L84+16
ARM GAS  /tmp/cc27PM82.s 			page 24


 1308 0302 1100     		movs	r1, r2
 1309 0304 1800     		movs	r0, r3
 1310 0306 FFF7FEFF 		bl	chEvtUnregister
 1311              		.loc 9 220 0
 1312 030a 274B     		ldr	r3, .L84+12
 1313 030c 1800     		movs	r0, r3
 1314 030e FFF7FEFF 		bl	chEvtIsListeningI
 1315 0312 0300     		movs	r3, r0
 1316 0314 5A1E     		subs	r2, r3, #1
 1317 0316 9341     		sbcs	r3, r3, r2
 1318 0318 DBB2     		uxtb	r3, r3
 1319 031a 0122     		movs	r2, #1
 1320 031c 5340     		eors	r3, r2
 1321 031e DBB2     		uxtb	r3, r3
 1322 0320 1A1C     		adds	r2, r3, #0
 1323 0322 0123     		movs	r3, #1
 1324 0324 1340     		ands	r3, r2
 1325 0326 DBB2     		uxtb	r3, r3
 1326 0328 1900     		movs	r1, r3
 1327 032a 0F20     		movs	r0, #15
 1328 032c FFF7FEFF 		bl	_test_assert
 1329 0330 031E     		subs	r3, r0, #0
 1330 0332 2FD1     		bne	.L83
 1331              		.loc 9 221 0
 1332 0334 1D4B     		ldr	r3, .L84+16
 1333 0336 1800     		movs	r0, r3
 1334 0338 FFF7FEFF 		bl	chEvtIsListeningI
 1335 033c 0300     		movs	r3, r0
 1336 033e 5A1E     		subs	r2, r3, #1
 1337 0340 9341     		sbcs	r3, r3, r2
 1338 0342 DBB2     		uxtb	r3, r3
 1339 0344 0122     		movs	r2, #1
 1340 0346 5340     		eors	r3, r2
 1341 0348 DBB2     		uxtb	r3, r3
 1342 034a 1A1C     		adds	r2, r3, #0
 1343 034c 0123     		movs	r3, #1
 1344 034e 1340     		ands	r3, r2
 1345 0350 DBB2     		uxtb	r3, r3
 1346 0352 1900     		movs	r1, r3
 1347 0354 1020     		movs	r0, #16
 1348 0356 FFF7FEFF 		bl	_test_assert
 1349 035a 1CE0     		b	.L50
 1350              	.L69:
 1351              		.loc 9 157 0
 1352 035c C046     		nop
 1353 035e 1AE0     		b	.L50
 1354              	.L70:
 1355              		.loc 9 159 0
 1356 0360 C046     		nop
 1357 0362 18E0     		b	.L50
 1358              	.L71:
 1359              		.loc 9 161 0
 1360 0364 C046     		nop
 1361 0366 16E0     		b	.L50
 1362              	.L72:
 1363              		.loc 9 163 0
 1364 0368 C046     		nop
ARM GAS  /tmp/cc27PM82.s 			page 25


 1365 036a 14E0     		b	.L50
 1366              	.L73:
 1367              		.loc 9 173 0
 1368 036c C046     		nop
 1369 036e 12E0     		b	.L50
 1370              	.L74:
 1371              		.loc 9 174 0
 1372 0370 C046     		nop
 1373 0372 10E0     		b	.L50
 1374              	.L75:
 1375              		.loc 9 176 0
 1376 0374 C046     		nop
 1377 0376 0EE0     		b	.L50
 1378              	.L76:
 1379              		.loc 9 184 0
 1380 0378 C046     		nop
 1381 037a 0CE0     		b	.L50
 1382              	.L77:
 1383              		.loc 9 186 0
 1384 037c C046     		nop
 1385 037e 0AE0     		b	.L50
 1386              	.L78:
 1387              		.loc 9 196 0
 1388 0380 C046     		nop
 1389 0382 08E0     		b	.L50
 1390              	.L79:
 1391              		.loc 9 197 0
 1392 0384 C046     		nop
 1393 0386 06E0     		b	.L50
 1394              	.L80:
 1395              		.loc 9 199 0
 1396 0388 C046     		nop
 1397 038a 04E0     		b	.L50
 1398              	.L81:
 1399              		.loc 9 214 0
 1400 038c C046     		nop
 1401 038e 02E0     		b	.L50
 1402              	.L82:
 1403              		.loc 9 216 0
 1404 0390 C046     		nop
 1405 0392 00E0     		b	.L50
 1406              	.L83:
 1407              		.loc 9 220 0
 1408 0394 C046     		nop
 1409              	.L50:
 1410              		.loc 9 222 0
 1411 0396 0FB0     		add	sp, sp, #60
 1412              		@ sp needed
 1413 0398 30BD     		pop	{r4, r5, pc}
 1414              	.L85:
 1415 039a C046     		.align	2
 1416              	.L84:
 1417 039c 00000000 		.word	wa
 1418 03a0 00000000 		.word	thread1
 1419 03a4 00000000 		.word	threads
 1420 03a8 00000000 		.word	es1
 1421 03ac 00000000 		.word	es2
ARM GAS  /tmp/cc27PM82.s 			page 26


 1422 03b0 00000000 		.word	thread2
 1423 03b4 28000000 		.word	.LC16
 1424              		.cfi_endproc
 1425              	.LFE160:
 1426              		.size	evt2_execute, .-evt2_execute
 1427              		.global	testevt2
 1428              		.section	.rodata
 1429 002a 0000     		.align	2
 1430              	.LC18:
 1431 002c 4576656E 		.ascii	"Events, wait and broadcast\000"
 1431      74732C20 
 1431      77616974 
 1431      20616E64 
 1431      2062726F 
 1432              		.section	.rodata.testevt2,"a",%progbits
 1433              		.align	2
 1434              		.type	testevt2, %object
 1435              		.size	testevt2, 16
 1436              	testevt2:
 1437 0000 2C000000 		.word	.LC18
 1438 0004 00000000 		.word	evt2_setup
 1439 0008 00000000 		.word	0
 1440 000c 00000000 		.word	evt2_execute
 1441              		.section	.text.evt3_setup,"ax",%progbits
 1442              		.align	1
 1443              		.p2align 4,,15
 1444              		.syntax unified
 1445              		.code	16
 1446              		.thumb_func
 1447              		.fpu softvfp
 1448              		.type	evt3_setup, %function
 1449              	evt3_setup:
 1450              	.LFB161:
 1451              		.loc 9 247 0
 1452              		.cfi_startproc
 1453              		@ args = 0, pretend = 0, frame = 0
 1454              		@ frame_needed = 0, uses_anonymous_args = 0
 1455 0000 10B5     		push	{r4, lr}
 1456              		.cfi_def_cfa_offset 8
 1457              		.cfi_offset 4, -8
 1458              		.cfi_offset 14, -4
 1459              		.loc 9 249 0
 1460 0002 0123     		movs	r3, #1
 1461 0004 5B42     		rsbs	r3, r3, #0
 1462 0006 1800     		movs	r0, r3
 1463 0008 FFF7FEFF 		bl	chEvtGetAndClearEvents
 1464              		.loc 9 250 0
 1465 000c C046     		nop
 1466              		@ sp needed
 1467 000e 10BD     		pop	{r4, pc}
 1468              		.cfi_endproc
 1469              	.LFE161:
 1470              		.size	evt3_setup, .-evt3_setup
 1471              		.section	.text.evt3_execute,"ax",%progbits
 1472              		.align	1
 1473              		.p2align 4,,15
 1474              		.syntax unified
ARM GAS  /tmp/cc27PM82.s 			page 27


 1475              		.code	16
 1476              		.thumb_func
 1477              		.fpu softvfp
 1478              		.type	evt3_execute, %function
 1479              	evt3_execute:
 1480              	.LFB162:
 1481              		.loc 9 252 0
 1482              		.cfi_startproc
 1483              		@ args = 0, pretend = 0, frame = 8
 1484              		@ frame_needed = 0, uses_anonymous_args = 0
 1485 0000 00B5     		push	{lr}
 1486              		.cfi_def_cfa_offset 4
 1487              		.cfi_offset 14, -4
 1488 0002 83B0     		sub	sp, sp, #12
 1489              		.cfi_def_cfa_offset 16
 1490              		.loc 9 258 0
 1491 0004 0123     		movs	r3, #1
 1492 0006 5B42     		rsbs	r3, r3, #0
 1493 0008 0021     		movs	r1, #0
 1494 000a 1800     		movs	r0, r3
 1495 000c FFF7FEFF 		bl	chEvtWaitOneTimeout
 1496 0010 0300     		movs	r3, r0
 1497 0012 0193     		str	r3, [sp, #4]
 1498              		.loc 9 259 0
 1499 0014 019B     		ldr	r3, [sp, #4]
 1500 0016 5A42     		rsbs	r2, r3, #0
 1501 0018 5341     		adcs	r3, r3, r2
 1502 001a DBB2     		uxtb	r3, r3
 1503 001c 1900     		movs	r1, r3
 1504 001e 0120     		movs	r0, #1
 1505 0020 FFF7FEFF 		bl	_test_assert
 1506 0024 031E     		subs	r3, r0, #0
 1507 0026 58D1     		bne	.L94
 1508              		.loc 9 260 0
 1509 0028 0123     		movs	r3, #1
 1510 002a 5B42     		rsbs	r3, r3, #0
 1511 002c 0021     		movs	r1, #0
 1512 002e 1800     		movs	r0, r3
 1513 0030 FFF7FEFF 		bl	chEvtWaitAnyTimeout
 1514 0034 0300     		movs	r3, r0
 1515 0036 0193     		str	r3, [sp, #4]
 1516              		.loc 9 261 0
 1517 0038 019B     		ldr	r3, [sp, #4]
 1518 003a 5A42     		rsbs	r2, r3, #0
 1519 003c 5341     		adcs	r3, r3, r2
 1520 003e DBB2     		uxtb	r3, r3
 1521 0040 1900     		movs	r1, r3
 1522 0042 0220     		movs	r0, #2
 1523 0044 FFF7FEFF 		bl	_test_assert
 1524 0048 031E     		subs	r3, r0, #0
 1525 004a 48D1     		bne	.L95
 1526              		.loc 9 262 0
 1527 004c 0123     		movs	r3, #1
 1528 004e 5B42     		rsbs	r3, r3, #0
 1529 0050 0021     		movs	r1, #0
 1530 0052 1800     		movs	r0, r3
 1531 0054 FFF7FEFF 		bl	chEvtWaitAllTimeout
ARM GAS  /tmp/cc27PM82.s 			page 28


 1532 0058 0300     		movs	r3, r0
 1533 005a 0193     		str	r3, [sp, #4]
 1534              		.loc 9 263 0
 1535 005c 019B     		ldr	r3, [sp, #4]
 1536 005e 5A42     		rsbs	r2, r3, #0
 1537 0060 5341     		adcs	r3, r3, r2
 1538 0062 DBB2     		uxtb	r3, r3
 1539 0064 1900     		movs	r1, r3
 1540 0066 0320     		movs	r0, #3
 1541 0068 FFF7FEFF 		bl	_test_assert
 1542 006c 031E     		subs	r3, r0, #0
 1543 006e 38D1     		bne	.L96
 1544              		.loc 9 264 0
 1545 0070 0123     		movs	r3, #1
 1546 0072 5B42     		rsbs	r3, r3, #0
 1547 0074 0A21     		movs	r1, #10
 1548 0076 1800     		movs	r0, r3
 1549 0078 FFF7FEFF 		bl	chEvtWaitOneTimeout
 1550 007c 0300     		movs	r3, r0
 1551 007e 0193     		str	r3, [sp, #4]
 1552              		.loc 9 265 0
 1553 0080 019B     		ldr	r3, [sp, #4]
 1554 0082 5A42     		rsbs	r2, r3, #0
 1555 0084 5341     		adcs	r3, r3, r2
 1556 0086 DBB2     		uxtb	r3, r3
 1557 0088 1900     		movs	r1, r3
 1558 008a 0420     		movs	r0, #4
 1559 008c FFF7FEFF 		bl	_test_assert
 1560 0090 031E     		subs	r3, r0, #0
 1561 0092 28D1     		bne	.L97
 1562              		.loc 9 266 0
 1563 0094 0123     		movs	r3, #1
 1564 0096 5B42     		rsbs	r3, r3, #0
 1565 0098 0A21     		movs	r1, #10
 1566 009a 1800     		movs	r0, r3
 1567 009c FFF7FEFF 		bl	chEvtWaitAnyTimeout
 1568 00a0 0300     		movs	r3, r0
 1569 00a2 0193     		str	r3, [sp, #4]
 1570              		.loc 9 267 0
 1571 00a4 019B     		ldr	r3, [sp, #4]
 1572 00a6 5A42     		rsbs	r2, r3, #0
 1573 00a8 5341     		adcs	r3, r3, r2
 1574 00aa DBB2     		uxtb	r3, r3
 1575 00ac 1900     		movs	r1, r3
 1576 00ae 0520     		movs	r0, #5
 1577 00b0 FFF7FEFF 		bl	_test_assert
 1578 00b4 031E     		subs	r3, r0, #0
 1579 00b6 18D1     		bne	.L98
 1580              		.loc 9 268 0
 1581 00b8 0123     		movs	r3, #1
 1582 00ba 5B42     		rsbs	r3, r3, #0
 1583 00bc 0A21     		movs	r1, #10
 1584 00be 1800     		movs	r0, r3
 1585 00c0 FFF7FEFF 		bl	chEvtWaitAllTimeout
 1586 00c4 0300     		movs	r3, r0
 1587 00c6 0193     		str	r3, [sp, #4]
 1588              		.loc 9 269 0
ARM GAS  /tmp/cc27PM82.s 			page 29


 1589 00c8 019B     		ldr	r3, [sp, #4]
 1590 00ca 5A42     		rsbs	r2, r3, #0
 1591 00cc 5341     		adcs	r3, r3, r2
 1592 00ce DBB2     		uxtb	r3, r3
 1593 00d0 1900     		movs	r1, r3
 1594 00d2 0620     		movs	r0, #6
 1595 00d4 FFF7FEFF 		bl	_test_assert
 1596 00d8 08E0     		b	.L87
 1597              	.L94:
 1598              		.loc 9 259 0
 1599 00da C046     		nop
 1600 00dc 06E0     		b	.L87
 1601              	.L95:
 1602              		.loc 9 261 0
 1603 00de C046     		nop
 1604 00e0 04E0     		b	.L87
 1605              	.L96:
 1606              		.loc 9 263 0
 1607 00e2 C046     		nop
 1608 00e4 02E0     		b	.L87
 1609              	.L97:
 1610              		.loc 9 265 0
 1611 00e6 C046     		nop
 1612 00e8 00E0     		b	.L87
 1613              	.L98:
 1614              		.loc 9 267 0
 1615 00ea C046     		nop
 1616              	.L87:
 1617              		.loc 9 270 0
 1618 00ec 03B0     		add	sp, sp, #12
 1619              		@ sp needed
 1620 00ee 00BD     		pop	{pc}
 1621              		.cfi_endproc
 1622              	.LFE162:
 1623              		.size	evt3_execute, .-evt3_execute
 1624              		.global	testevt3
 1625              		.section	.rodata
 1626 0047 00       		.align	2
 1627              	.LC19:
 1628 0048 4576656E 		.ascii	"Events, timeouts\000"
 1628      74732C20 
 1628      74696D65 
 1628      6F757473 
 1628      00
 1629              		.section	.rodata.testevt3,"a",%progbits
 1630              		.align	2
 1631              		.type	testevt3, %object
 1632              		.size	testevt3, 16
 1633              	testevt3:
 1634 0000 48000000 		.word	.LC19
 1635 0004 00000000 		.word	evt3_setup
 1636 0008 00000000 		.word	0
 1637 000c 00000000 		.word	evt3_execute
 1638              		.global	patternevt
 1639              		.section	.rodata.patternevt,"a",%progbits
 1640              		.align	2
 1641              		.type	patternevt, %object
ARM GAS  /tmp/cc27PM82.s 			page 30


 1642              		.size	patternevt, 16
 1643              	patternevt:
 1644 0000 00000000 		.word	testevt1
 1645 0004 00000000 		.word	testevt2
 1646 0008 00000000 		.word	testevt3
 1647 000c 00000000 		.word	0
 1648              		.section	.rodata.__func__.4993,"a",%progbits
 1649              		.align	2
 1650              		.type	__func__.4993, %object
 1651              		.size	__func__.4993, 12
 1652              	__func__.4993:
 1653 0000 63685379 		.ascii	"chSysUnlock\000"
 1653      73556E6C 
 1653      6F636B00 
 1654              		.text
 1655              	.Letext0:
 1656              		.file 10 "/home/felix/opt/gcc-arm-none-eabi-6-2017-q1-update/lib/gcc/arm-none-eabi/6.3.1/include/s
 1657              		.file 11 "/home/felix/opt/gcc-arm-none-eabi-6-2017-q1-update/arm-none-eabi/include/machine/_defaul
 1658              		.file 12 "/home/felix/opt/gcc-arm-none-eabi-6-2017-q1-update/arm-none-eabi/include/sys/_stdint.h"
 1659              		.file 13 "ChibiOS/os/rt/ports/ARMCMx/compilers/GCC/chtypes.h"
 1660              		.file 14 "ChibiOS/os/rt/include/chsystypes.h"
 1661              		.file 15 "ChibiOS/os/rt/include/chschd.h"
 1662              		.file 16 "ChibiOS/os/rt/ports/ARMCMx/chcore.h"
 1663              		.file 17 "ChibiOS/os/hal/ports/STM32/LLD/TIMv1/stm32_tim.h"
 1664              		.file 18 "ChibiOS/os/rt/include/chdebug.h"
 1665              		.file 19 "ChibiOS/os/rt/include/chsem.h"
 1666              		.file 20 "ChibiOS/os/rt/include/chmtx.h"
 1667              		.file 21 "ChibiOS/os/rt/include/chregistry.h"
 1668              		.file 22 "ChibiOS/os/ext/CMSIS/ST/STM32F0xx/system_stm32f0xx.h"
 1669              		.file 23 "ChibiOS/test/rt/test.h"