ARM GAS  /tmp/ccvIBBGd.s 			page 1


   1              		.cpu cortex-m0
   2              		.eabi_attribute 20, 1
   3              		.eabi_attribute 21, 1
   4              		.eabi_attribute 23, 3
   5              		.eabi_attribute 24, 1
   6              		.eabi_attribute 25, 1
   7              		.eabi_attribute 26, 1
   8              		.eabi_attribute 30, 6
   9              		.eabi_attribute 34, 0
  10              		.eabi_attribute 18, 4
  11              		.file	"testdyn.c"
  12              		.text
  13              	.Ltext0:
  14              		.cfi_sections	.debug_frame
  15              		.section	.text.chThdGetSelfX,"ax",%progbits
  16              		.align	1
  17              		.p2align 4,,15
  18              		.syntax unified
  19              		.code	16
  20              		.thumb_func
  21              		.fpu softvfp
  22              		.type	chThdGetSelfX, %function
  23              	chThdGetSelfX:
  24              	.LFB99:
  25              		.file 1 "ChibiOS/os/rt/include/chthreads.h"
  26              		.loc 1 174 0
  27              		.cfi_startproc
  28              		@ args = 0, pretend = 0, frame = 0
  29              		@ frame_needed = 0, uses_anonymous_args = 0
  30              		@ link register save eliminated.
  31              		.loc 1 176 0
  32 0000 014B     		ldr	r3, .L3
  33 0002 9B69     		ldr	r3, [r3, #24]
  34              		.loc 1 177 0
  35 0004 1800     		movs	r0, r3
  36              		@ sp needed
  37 0006 7047     		bx	lr
  38              	.L4:
  39              		.align	2
  40              	.L3:
  41 0008 00000000 		.word	ch
  42              		.cfi_endproc
  43              	.LFE99:
  44              		.size	chThdGetSelfX, .-chThdGetSelfX
  45              		.section	.text.chThdGetPriorityX,"ax",%progbits
  46              		.align	1
  47              		.p2align 4,,15
  48              		.syntax unified
  49              		.code	16
  50              		.thumb_func
  51              		.fpu softvfp
  52              		.type	chThdGetPriorityX, %function
  53              	chThdGetPriorityX:
  54              	.LFB100:
  55              		.loc 1 187 0
  56              		.cfi_startproc
  57              		@ args = 0, pretend = 0, frame = 0
ARM GAS  /tmp/ccvIBBGd.s 			page 2


  58              		@ frame_needed = 0, uses_anonymous_args = 0
  59 0000 10B5     		push	{r4, lr}
  60              		.cfi_def_cfa_offset 8
  61              		.cfi_offset 4, -8
  62              		.cfi_offset 14, -4
  63              		.loc 1 189 0
  64 0002 FFF7FEFF 		bl	chThdGetSelfX
  65 0006 0300     		movs	r3, r0
  66 0008 9B68     		ldr	r3, [r3, #8]
  67              		.loc 1 190 0
  68 000a 1800     		movs	r0, r3
  69              		@ sp needed
  70 000c 10BD     		pop	{r4, pc}
  71              		.cfi_endproc
  72              	.LFE100:
  73              		.size	chThdGetPriorityX, .-chThdGetPriorityX
  74 000e C046     		.section	.bss.heap1,"aw",%nobits
  75              		.align	3
  76              		.type	heap1, %object
  77              		.size	heap1, 32
  78              	heap1:
  79 0000 00000000 		.space	32
  79      00000000 
  79      00000000 
  79      00000000 
  79      00000000 
  80              		.section	.bss.mp1,"aw",%nobits
  81              		.align	2
  82              		.type	mp1, %object
  83              		.size	mp1, 12
  84              	mp1:
  85 0000 00000000 		.space	12
  85      00000000 
  85      00000000 
  86              		.section	.text.thread,"ax",%progbits
  87              		.align	1
  88              		.p2align 4,,15
  89              		.syntax unified
  90              		.code	16
  91              		.thumb_func
  92              		.fpu softvfp
  93              		.type	thread, %function
  94              	thread:
  95              	.LFB152:
  96              		.file 2 "ChibiOS/test/rt/testdyn.c"
  97              		.loc 2 71 0
  98              		.cfi_startproc
  99              		@ args = 0, pretend = 0, frame = 8
 100              		@ frame_needed = 0, uses_anonymous_args = 0
 101 0000 00B5     		push	{lr}
 102              		.cfi_def_cfa_offset 4
 103              		.cfi_offset 14, -4
 104 0002 83B0     		sub	sp, sp, #12
 105              		.cfi_def_cfa_offset 16
 106 0004 0190     		str	r0, [sp, #4]
 107              		.loc 2 73 0
 108 0006 019B     		ldr	r3, [sp, #4]
ARM GAS  /tmp/ccvIBBGd.s 			page 3


 109 0008 1B78     		ldrb	r3, [r3]
 110 000a 1800     		movs	r0, r3
 111 000c FFF7FEFF 		bl	test_emit_token
 112              		.loc 2 74 0
 113 0010 C046     		nop
 114 0012 03B0     		add	sp, sp, #12
 115              		@ sp needed
 116 0014 00BD     		pop	{pc}
 117              		.cfi_endproc
 118              	.LFE152:
 119              		.size	thread, .-thread
 120 0016 C046     		.section	.text.dyn1_setup,"ax",%progbits
 121              		.align	1
 122              		.p2align 4,,15
 123              		.syntax unified
 124              		.code	16
 125              		.thumb_func
 126              		.fpu softvfp
 127              		.type	dyn1_setup, %function
 128              	dyn1_setup:
 129              	.LFB153:
 130              		.loc 2 77 0
 131              		.cfi_startproc
 132              		@ args = 0, pretend = 0, frame = 0
 133              		@ frame_needed = 0, uses_anonymous_args = 0
 134 0000 10B5     		push	{r4, lr}
 135              		.cfi_def_cfa_offset 8
 136              		.cfi_offset 4, -8
 137              		.cfi_offset 14, -4
 138              		.loc 2 79 0
 139 0002 D223     		movs	r3, #210
 140 0004 DA00     		lsls	r2, r3, #3
 141 0006 0349     		ldr	r1, .L9
 142 0008 034B     		ldr	r3, .L9+4
 143 000a 1800     		movs	r0, r3
 144 000c FFF7FEFF 		bl	chHeapObjectInit
 145              		.loc 2 80 0
 146 0010 C046     		nop
 147              		@ sp needed
 148 0012 10BD     		pop	{r4, pc}
 149              	.L10:
 150              		.align	2
 151              	.L9:
 152 0014 00000000 		.word	test
 153 0018 00000000 		.word	heap1
 154              		.cfi_endproc
 155              	.LFE153:
 156              		.size	dyn1_setup, .-dyn1_setup
 157              		.section	.rodata
 158              		.align	2
 159              	.LC5:
 160 0000 4100     		.ascii	"A\000"
 161 0002 0000     		.align	2
 162              	.LC8:
 163 0004 4200     		.ascii	"B\000"
 164 0006 0000     		.align	2
 165              	.LC10:
ARM GAS  /tmp/ccvIBBGd.s 			page 4


 166 0008 4300     		.ascii	"C\000"
 167 000a 0000     		.align	2
 168              	.LC12:
 169 000c 414200   		.ascii	"AB\000"
 170              		.section	.text.dyn1_execute,"ax",%progbits
 171              		.align	1
 172              		.p2align 4,,15
 173              		.syntax unified
 174              		.code	16
 175              		.thumb_func
 176              		.fpu softvfp
 177              		.type	dyn1_execute, %function
 178              	dyn1_execute:
 179              	.LFB154:
 180              		.loc 2 82 0
 181              		.cfi_startproc
 182              		@ args = 0, pretend = 0, frame = 16
 183              		@ frame_needed = 0, uses_anonymous_args = 0
 184 0000 10B5     		push	{r4, lr}
 185              		.cfi_def_cfa_offset 8
 186              		.cfi_offset 4, -8
 187              		.cfi_offset 14, -4
 188 0002 86B0     		sub	sp, sp, #24
 189              		.cfi_def_cfa_offset 32
 190              		.loc 2 85 0
 191 0004 FFF7FEFF 		bl	chThdGetPriorityX
 192 0008 0300     		movs	r3, r0
 193 000a 0593     		str	r3, [sp, #20]
 194              		.loc 2 87 0
 195 000c 02AA     		add	r2, sp, #8
 196 000e 474B     		ldr	r3, .L23
 197 0010 1100     		movs	r1, r2
 198 0012 1800     		movs	r0, r3
 199 0014 FFF7FEFF 		bl	chHeapStatus
 200              		.loc 2 89 0
 201 0018 059B     		ldr	r3, [sp, #20]
 202 001a 5A1E     		subs	r2, r3, #1
 203 001c 444C     		ldr	r4, .L23+4
 204 001e A823     		movs	r3, #168
 205 0020 5900     		lsls	r1, r3, #1
 206 0022 4248     		ldr	r0, .L23
 207 0024 434B     		ldr	r3, .L23+8
 208 0026 0093     		str	r3, [sp]
 209 0028 2300     		movs	r3, r4
 210 002a FFF7FEFF 		bl	chThdCreateFromHeap
 211 002e 0200     		movs	r2, r0
 212 0030 414B     		ldr	r3, .L23+12
 213 0032 1A60     		str	r2, [r3]
 214              		.loc 2 92 0
 215 0034 059B     		ldr	r3, [sp, #20]
 216 0036 9A1E     		subs	r2, r3, #2
 217 0038 3D4C     		ldr	r4, .L23+4
 218 003a A823     		movs	r3, #168
 219 003c 5900     		lsls	r1, r3, #1
 220 003e 3B48     		ldr	r0, .L23
 221 0040 3E4B     		ldr	r3, .L23+16
 222 0042 0093     		str	r3, [sp]
ARM GAS  /tmp/ccvIBBGd.s 			page 5


 223 0044 2300     		movs	r3, r4
 224 0046 FFF7FEFF 		bl	chThdCreateFromHeap
 225 004a 0200     		movs	r2, r0
 226 004c 3A4B     		ldr	r3, .L23+12
 227 004e 5A60     		str	r2, [r3, #4]
 228              		.loc 2 96 0
 229 0050 03AA     		add	r2, sp, #12
 230 0052 364B     		ldr	r3, .L23
 231 0054 1100     		movs	r1, r2
 232 0056 1800     		movs	r0, r3
 233 0058 FFF7FEFF 		bl	chHeapStatus
 234              		.loc 2 97 0
 235 005c 039A     		ldr	r2, [sp, #12]
 236 005e 334B     		ldr	r3, .L23
 237 0060 1100     		movs	r1, r2
 238 0062 1800     		movs	r0, r3
 239 0064 FFF7FEFF 		bl	chHeapAlloc
 240 0068 0300     		movs	r3, r0
 241 006a 0493     		str	r3, [sp, #16]
 242              		.loc 2 98 0
 243 006c 059B     		ldr	r3, [sp, #20]
 244 006e DA1E     		subs	r2, r3, #3
 245 0070 2F4C     		ldr	r4, .L23+4
 246 0072 A823     		movs	r3, #168
 247 0074 5900     		lsls	r1, r3, #1
 248 0076 2D48     		ldr	r0, .L23
 249 0078 314B     		ldr	r3, .L23+20
 250 007a 0093     		str	r3, [sp]
 251 007c 2300     		movs	r3, r4
 252 007e FFF7FEFF 		bl	chThdCreateFromHeap
 253 0082 0200     		movs	r2, r0
 254 0084 2C4B     		ldr	r3, .L23+12
 255 0086 9A60     		str	r2, [r3, #8]
 256              		.loc 2 101 0
 257 0088 049B     		ldr	r3, [sp, #16]
 258 008a 1800     		movs	r0, r3
 259 008c FFF7FEFF 		bl	chHeapFree
 260              		.loc 2 103 0
 261 0090 294B     		ldr	r3, .L23+12
 262 0092 1B68     		ldr	r3, [r3]
 263 0094 002B     		cmp	r3, #0
 264 0096 11D0     		beq	.L12
 265              		.loc 2 103 0 is_stmt 0 discriminator 1
 266 0098 274B     		ldr	r3, .L23+12
 267 009a 5B68     		ldr	r3, [r3, #4]
 268 009c 002B     		cmp	r3, #0
 269 009e 0DD0     		beq	.L12
 270              		.loc 2 103 0 discriminator 3
 271 00a0 254B     		ldr	r3, .L23+12
 272 00a2 9B68     		ldr	r3, [r3, #8]
 273 00a4 002B     		cmp	r3, #0
 274 00a6 09D1     		bne	.L12
 275              		.loc 2 103 0 discriminator 5
 276 00a8 234B     		ldr	r3, .L23+12
 277 00aa DB68     		ldr	r3, [r3, #12]
 278 00ac 002B     		cmp	r3, #0
 279 00ae 05D1     		bne	.L12
ARM GAS  /tmp/ccvIBBGd.s 			page 6


 280              		.loc 2 103 0 discriminator 7
 281 00b0 214B     		ldr	r3, .L23+12
 282 00b2 1B69     		ldr	r3, [r3, #16]
 283 00b4 002B     		cmp	r3, #0
 284 00b6 01D1     		bne	.L12
 285              		.loc 2 103 0 discriminator 9
 286 00b8 0123     		movs	r3, #1
 287 00ba 00E0     		b	.L13
 288              	.L12:
 289              		.loc 2 103 0 discriminator 10
 290 00bc 0023     		movs	r3, #0
 291              	.L13:
 292              		.loc 2 103 0 discriminator 12
 293 00be 1A1C     		adds	r2, r3, #0
 294 00c0 0123     		movs	r3, #1
 295 00c2 1340     		ands	r3, r2
 296 00c4 DBB2     		uxtb	r3, r3
 297 00c6 1900     		movs	r1, r3
 298 00c8 0120     		movs	r0, #1
 299 00ca FFF7FEFF 		bl	_test_assert
 300 00ce 031E     		subs	r3, r0, #0
 301 00d0 24D1     		bne	.L20
 302              		.loc 2 111 0 is_stmt 1
 303 00d2 FFF7FEFF 		bl	test_wait_threads
 304              		.loc 2 112 0
 305 00d6 1B4B     		ldr	r3, .L23+24
 306 00d8 1900     		movs	r1, r3
 307 00da 0220     		movs	r0, #2
 308 00dc FFF7FEFF 		bl	_test_assert_sequence
 309 00e0 031E     		subs	r3, r0, #0
 310 00e2 1DD1     		bne	.L21
 311              		.loc 2 115 0
 312 00e4 03AA     		add	r2, sp, #12
 313 00e6 114B     		ldr	r3, .L23
 314 00e8 1100     		movs	r1, r2
 315 00ea 1800     		movs	r0, r3
 316 00ec FFF7FEFF 		bl	chHeapStatus
 317 00f0 0300     		movs	r3, r0
 318 00f2 013B     		subs	r3, r3, #1
 319 00f4 5A42     		rsbs	r2, r3, #0
 320 00f6 5341     		adcs	r3, r3, r2
 321 00f8 DBB2     		uxtb	r3, r3
 322 00fa 1900     		movs	r1, r3
 323 00fc 0320     		movs	r0, #3
 324 00fe FFF7FEFF 		bl	_test_assert
 325 0102 031E     		subs	r3, r0, #0
 326 0104 0ED1     		bne	.L22
 327              		.loc 2 116 0
 328 0106 039A     		ldr	r2, [sp, #12]
 329 0108 029B     		ldr	r3, [sp, #8]
 330 010a D31A     		subs	r3, r2, r3
 331 010c 5A42     		rsbs	r2, r3, #0
 332 010e 5341     		adcs	r3, r3, r2
 333 0110 DBB2     		uxtb	r3, r3
 334 0112 1900     		movs	r1, r3
 335 0114 0420     		movs	r0, #4
 336 0116 FFF7FEFF 		bl	_test_assert
ARM GAS  /tmp/ccvIBBGd.s 			page 7


 337 011a 04E0     		b	.L11
 338              	.L20:
 339              		.loc 2 103 0
 340 011c C046     		nop
 341 011e 02E0     		b	.L11
 342              	.L21:
 343              		.loc 2 112 0
 344 0120 C046     		nop
 345 0122 00E0     		b	.L11
 346              	.L22:
 347              		.loc 2 115 0
 348 0124 C046     		nop
 349              	.L11:
 350              		.loc 2 117 0
 351 0126 06B0     		add	sp, sp, #24
 352              		@ sp needed
 353 0128 10BD     		pop	{r4, pc}
 354              	.L24:
 355 012a C046     		.align	2
 356              	.L23:
 357 012c 00000000 		.word	heap1
 358 0130 00000000 		.word	thread
 359 0134 00000000 		.word	.LC5
 360 0138 00000000 		.word	threads
 361 013c 04000000 		.word	.LC8
 362 0140 08000000 		.word	.LC10
 363 0144 0C000000 		.word	.LC12
 364              		.cfi_endproc
 365              	.LFE154:
 366              		.size	dyn1_execute, .-dyn1_execute
 367              		.global	testdyn1
 368              		.section	.rodata
 369 000f 00       		.align	2
 370              	.LC14:
 371 0010 44796E61 		.ascii	"Dynamic APIs, threads creation from heap\000"
 371      6D696320 
 371      41504973 
 371      2C207468 
 371      72656164 
 372              		.section	.rodata.testdyn1,"a",%progbits
 373              		.align	2
 374              		.type	testdyn1, %object
 375              		.size	testdyn1, 16
 376              	testdyn1:
 377 0000 10000000 		.word	.LC14
 378 0004 00000000 		.word	dyn1_setup
 379 0008 00000000 		.word	0
 380 000c 00000000 		.word	dyn1_execute
 381              		.section	.text.dyn2_setup,"ax",%progbits
 382              		.align	1
 383              		.p2align 4,,15
 384              		.syntax unified
 385              		.code	16
 386              		.thumb_func
 387              		.fpu softvfp
 388              		.type	dyn2_setup, %function
 389              	dyn2_setup:
ARM GAS  /tmp/ccvIBBGd.s 			page 8


 390              	.LFB155:
 391              		.loc 2 138 0
 392              		.cfi_startproc
 393              		@ args = 0, pretend = 0, frame = 0
 394              		@ frame_needed = 0, uses_anonymous_args = 0
 395 0000 10B5     		push	{r4, lr}
 396              		.cfi_def_cfa_offset 8
 397              		.cfi_offset 4, -8
 398              		.cfi_offset 14, -4
 399              		.loc 2 140 0
 400 0002 A823     		movs	r3, #168
 401 0004 5900     		lsls	r1, r3, #1
 402 0006 034B     		ldr	r3, .L26
 403 0008 0022     		movs	r2, #0
 404 000a 1800     		movs	r0, r3
 405 000c FFF7FEFF 		bl	chPoolObjectInit
 406              		.loc 2 141 0
 407 0010 C046     		nop
 408              		@ sp needed
 409 0012 10BD     		pop	{r4, pc}
 410              	.L27:
 411              		.align	2
 412              	.L26:
 413 0014 00000000 		.word	mp1
 414              		.cfi_endproc
 415              	.LFE155:
 416              		.size	dyn2_setup, .-dyn2_setup
 417              		.section	.rodata
 418 0039 000000   		.align	2
 419              	.LC23:
 420 003c 4400     		.ascii	"D\000"
 421 003e 0000     		.align	2
 422              	.LC25:
 423 0040 4500     		.ascii	"E\000"
 424 0042 0000     		.align	2
 425              	.LC27:
 426 0044 41424344 		.ascii	"ABCD\000"
 426      00
 427              		.section	.text.dyn2_execute,"ax",%progbits
 428              		.align	1
 429              		.p2align 4,,15
 430              		.syntax unified
 431              		.code	16
 432              		.thumb_func
 433              		.fpu softvfp
 434              		.type	dyn2_execute, %function
 435              	dyn2_execute:
 436              	.LFB156:
 437              		.loc 2 143 0
 438              		.cfi_startproc
 439              		@ args = 0, pretend = 0, frame = 8
 440              		@ frame_needed = 0, uses_anonymous_args = 0
 441 0000 00B5     		push	{lr}
 442              		.cfi_def_cfa_offset 4
 443              		.cfi_offset 14, -4
 444 0002 83B0     		sub	sp, sp, #12
 445              		.cfi_def_cfa_offset 16
ARM GAS  /tmp/ccvIBBGd.s 			page 9


 446              		.loc 2 145 0
 447 0004 FFF7FEFF 		bl	chThdGetPriorityX
 448 0008 0300     		movs	r3, r0
 449 000a 0093     		str	r3, [sp]
 450              		.loc 2 148 0
 451 000c 0023     		movs	r3, #0
 452 000e 0193     		str	r3, [sp, #4]
 453 0010 0BE0     		b	.L29
 454              	.L30:
 455              		.loc 2 149 0 discriminator 3
 456 0012 4B4B     		ldr	r3, .L42
 457 0014 019A     		ldr	r2, [sp, #4]
 458 0016 9200     		lsls	r2, r2, #2
 459 0018 D258     		ldr	r2, [r2, r3]
 460 001a 4A4B     		ldr	r3, .L42+4
 461 001c 1100     		movs	r1, r2
 462 001e 1800     		movs	r0, r3
 463 0020 FFF7FEFF 		bl	chPoolFree
 464              		.loc 2 148 0 discriminator 3
 465 0024 019B     		ldr	r3, [sp, #4]
 466 0026 0133     		adds	r3, r3, #1
 467 0028 0193     		str	r3, [sp, #4]
 468              	.L29:
 469              		.loc 2 148 0 is_stmt 0 discriminator 1
 470 002a 019B     		ldr	r3, [sp, #4]
 471 002c 032B     		cmp	r3, #3
 472 002e F0DD     		ble	.L30
 473              		.loc 2 152 0 is_stmt 1
 474 0030 009B     		ldr	r3, [sp]
 475 0032 591E     		subs	r1, r3, #1
 476 0034 444B     		ldr	r3, .L42+8
 477 0036 454A     		ldr	r2, .L42+12
 478 0038 4248     		ldr	r0, .L42+4
 479 003a FFF7FEFF 		bl	chThdCreateFromMemoryPool
 480 003e 0200     		movs	r2, r0
 481 0040 434B     		ldr	r3, .L42+16
 482 0042 1A60     		str	r2, [r3]
 483              		.loc 2 153 0
 484 0044 009B     		ldr	r3, [sp]
 485 0046 991E     		subs	r1, r3, #2
 486 0048 424B     		ldr	r3, .L42+20
 487 004a 404A     		ldr	r2, .L42+12
 488 004c 3D48     		ldr	r0, .L42+4
 489 004e FFF7FEFF 		bl	chThdCreateFromMemoryPool
 490 0052 0200     		movs	r2, r0
 491 0054 3E4B     		ldr	r3, .L42+16
 492 0056 5A60     		str	r2, [r3, #4]
 493              		.loc 2 154 0
 494 0058 009B     		ldr	r3, [sp]
 495 005a D91E     		subs	r1, r3, #3
 496 005c 3E4B     		ldr	r3, .L42+24
 497 005e 3B4A     		ldr	r2, .L42+12
 498 0060 3848     		ldr	r0, .L42+4
 499 0062 FFF7FEFF 		bl	chThdCreateFromMemoryPool
 500 0066 0200     		movs	r2, r0
 501 0068 394B     		ldr	r3, .L42+16
 502 006a 9A60     		str	r2, [r3, #8]
ARM GAS  /tmp/ccvIBBGd.s 			page 10


 503              		.loc 2 155 0
 504 006c 009B     		ldr	r3, [sp]
 505 006e 191F     		subs	r1, r3, #4
 506 0070 3A4B     		ldr	r3, .L42+28
 507 0072 364A     		ldr	r2, .L42+12
 508 0074 3348     		ldr	r0, .L42+4
 509 0076 FFF7FEFF 		bl	chThdCreateFromMemoryPool
 510 007a 0200     		movs	r2, r0
 511 007c 344B     		ldr	r3, .L42+16
 512 007e DA60     		str	r2, [r3, #12]
 513              		.loc 2 156 0
 514 0080 009B     		ldr	r3, [sp]
 515 0082 591F     		subs	r1, r3, #5
 516 0084 364B     		ldr	r3, .L42+32
 517 0086 314A     		ldr	r2, .L42+12
 518 0088 2E48     		ldr	r0, .L42+4
 519 008a FFF7FEFF 		bl	chThdCreateFromMemoryPool
 520 008e 0200     		movs	r2, r0
 521 0090 2F4B     		ldr	r3, .L42+16
 522 0092 1A61     		str	r2, [r3, #16]
 523              		.loc 2 158 0
 524 0094 2E4B     		ldr	r3, .L42+16
 525 0096 1B68     		ldr	r3, [r3]
 526 0098 002B     		cmp	r3, #0
 527 009a 11D0     		beq	.L31
 528              		.loc 2 158 0 is_stmt 0 discriminator 1
 529 009c 2C4B     		ldr	r3, .L42+16
 530 009e 5B68     		ldr	r3, [r3, #4]
 531 00a0 002B     		cmp	r3, #0
 532 00a2 0DD0     		beq	.L31
 533              		.loc 2 158 0 discriminator 3
 534 00a4 2A4B     		ldr	r3, .L42+16
 535 00a6 9B68     		ldr	r3, [r3, #8]
 536 00a8 002B     		cmp	r3, #0
 537 00aa 09D0     		beq	.L31
 538              		.loc 2 158 0 discriminator 5
 539 00ac 284B     		ldr	r3, .L42+16
 540 00ae DB68     		ldr	r3, [r3, #12]
 541 00b0 002B     		cmp	r3, #0
 542 00b2 05D0     		beq	.L31
 543              		.loc 2 158 0 discriminator 7
 544 00b4 264B     		ldr	r3, .L42+16
 545 00b6 1B69     		ldr	r3, [r3, #16]
 546 00b8 002B     		cmp	r3, #0
 547 00ba 01D1     		bne	.L31
 548              		.loc 2 158 0 discriminator 9
 549 00bc 0123     		movs	r3, #1
 550 00be 00E0     		b	.L32
 551              	.L31:
 552              		.loc 2 158 0 discriminator 10
 553 00c0 0023     		movs	r3, #0
 554              	.L32:
 555              		.loc 2 158 0 discriminator 12
 556 00c2 1A1C     		adds	r2, r3, #0
 557 00c4 0123     		movs	r3, #1
 558 00c6 1340     		ands	r3, r2
 559 00c8 DBB2     		uxtb	r3, r3
ARM GAS  /tmp/ccvIBBGd.s 			page 11


 560 00ca 1900     		movs	r1, r3
 561 00cc 0120     		movs	r0, #1
 562 00ce FFF7FEFF 		bl	_test_assert
 563 00d2 031E     		subs	r3, r0, #0
 564 00d4 2CD1     		bne	.L39
 565              		.loc 2 166 0 is_stmt 1
 566 00d6 FFF7FEFF 		bl	test_wait_threads
 567              		.loc 2 167 0
 568 00da 224B     		ldr	r3, .L42+36
 569 00dc 1900     		movs	r1, r3
 570 00de 0220     		movs	r0, #2
 571 00e0 FFF7FEFF 		bl	_test_assert_sequence
 572 00e4 031E     		subs	r3, r0, #0
 573 00e6 25D1     		bne	.L40
 574              		.loc 2 170 0
 575 00e8 0023     		movs	r3, #0
 576 00ea 0193     		str	r3, [sp, #4]
 577 00ec 10E0     		b	.L36
 578              	.L38:
 579              		.loc 2 171 0
 580 00ee 154B     		ldr	r3, .L42+4
 581 00f0 1800     		movs	r0, r3
 582 00f2 FFF7FEFF 		bl	chPoolAlloc
 583 00f6 0300     		movs	r3, r0
 584 00f8 5A1E     		subs	r2, r3, #1
 585 00fa 9341     		sbcs	r3, r3, r2
 586 00fc DBB2     		uxtb	r3, r3
 587 00fe 1900     		movs	r1, r3
 588 0100 0320     		movs	r0, #3
 589 0102 FFF7FEFF 		bl	_test_assert
 590 0106 031E     		subs	r3, r0, #0
 591 0108 16D1     		bne	.L41
 592              		.loc 2 170 0 discriminator 2
 593 010a 019B     		ldr	r3, [sp, #4]
 594 010c 0133     		adds	r3, r3, #1
 595 010e 0193     		str	r3, [sp, #4]
 596              	.L36:
 597              		.loc 2 170 0 is_stmt 0 discriminator 1
 598 0110 019B     		ldr	r3, [sp, #4]
 599 0112 032B     		cmp	r3, #3
 600 0114 EBDD     		ble	.L38
 601              		.loc 2 172 0 is_stmt 1
 602 0116 0B4B     		ldr	r3, .L42+4
 603 0118 1800     		movs	r0, r3
 604 011a FFF7FEFF 		bl	chPoolAlloc
 605 011e 0300     		movs	r3, r0
 606 0120 5A42     		rsbs	r2, r3, #0
 607 0122 5341     		adcs	r3, r3, r2
 608 0124 DBB2     		uxtb	r3, r3
 609 0126 1900     		movs	r1, r3
 610 0128 0420     		movs	r0, #4
 611 012a FFF7FEFF 		bl	_test_assert
 612 012e 04E0     		b	.L28
 613              	.L39:
 614              		.loc 2 158 0
 615 0130 C046     		nop
 616 0132 02E0     		b	.L28
ARM GAS  /tmp/ccvIBBGd.s 			page 12


 617              	.L40:
 618              		.loc 2 167 0
 619 0134 C046     		nop
 620 0136 00E0     		b	.L28
 621              	.L41:
 622              		.loc 2 171 0
 623 0138 C046     		nop
 624              	.L28:
 625              		.loc 2 173 0
 626 013a 03B0     		add	sp, sp, #12
 627              		@ sp needed
 628 013c 00BD     		pop	{pc}
 629              	.L43:
 630 013e C046     		.align	2
 631              	.L42:
 632 0140 00000000 		.word	wa
 633 0144 00000000 		.word	mp1
 634 0148 00000000 		.word	.LC5
 635 014c 00000000 		.word	thread
 636 0150 00000000 		.word	threads
 637 0154 04000000 		.word	.LC8
 638 0158 08000000 		.word	.LC10
 639 015c 3C000000 		.word	.LC23
 640 0160 40000000 		.word	.LC25
 641 0164 44000000 		.word	.LC27
 642              		.cfi_endproc
 643              	.LFE156:
 644              		.size	dyn2_execute, .-dyn2_execute
 645              		.global	testdyn2
 646              		.section	.rodata
 647 0049 000000   		.align	2
 648              	.LC29:
 649 004c 44796E61 		.ascii	"Dynamic APIs, threads creation from memory pool\000"
 649      6D696320 
 649      41504973 
 649      2C207468 
 649      72656164 
 650              		.section	.rodata.testdyn2,"a",%progbits
 651              		.align	2
 652              		.type	testdyn2, %object
 653              		.size	testdyn2, 16
 654              	testdyn2:
 655 0000 4C000000 		.word	.LC29
 656 0004 00000000 		.word	dyn2_setup
 657 0008 00000000 		.word	0
 658 000c 00000000 		.word	dyn2_execute
 659              		.section	.text.regfind,"ax",%progbits
 660              		.align	1
 661              		.p2align 4,,15
 662              		.syntax unified
 663              		.code	16
 664              		.thumb_func
 665              		.fpu softvfp
 666              		.type	regfind, %function
 667              	regfind:
 668              	.LFB157:
 669              		.loc 2 192 0
ARM GAS  /tmp/ccvIBBGd.s 			page 13


 670              		.cfi_startproc
 671              		@ args = 0, pretend = 0, frame = 16
 672              		@ frame_needed = 0, uses_anonymous_args = 0
 673 0000 00B5     		push	{lr}
 674              		.cfi_def_cfa_offset 4
 675              		.cfi_offset 14, -4
 676 0002 85B0     		sub	sp, sp, #20
 677              		.cfi_def_cfa_offset 24
 678 0004 0190     		str	r0, [sp, #4]
 679              		.loc 2 194 0
 680 0006 0B23     		movs	r3, #11
 681 0008 6B44     		add	r3, r3, sp
 682 000a 0022     		movs	r2, #0
 683 000c 1A70     		strb	r2, [r3]
 684              		.loc 2 196 0
 685 000e FFF7FEFF 		bl	chRegFirstThread
 686 0012 0300     		movs	r3, r0
 687 0014 0393     		str	r3, [sp, #12]
 688              	.L45:
 689              		.loc 2 198 0 discriminator 1
 690 0016 0B23     		movs	r3, #11
 691 0018 6B44     		add	r3, r3, sp
 692 001a 1B78     		ldrb	r3, [r3]
 693 001c 0399     		ldr	r1, [sp, #12]
 694 001e 019A     		ldr	r2, [sp, #4]
 695 0020 8A1A     		subs	r2, r1, r2
 696 0022 5142     		rsbs	r1, r2, #0
 697 0024 4A41     		adcs	r2, r2, r1
 698 0026 D2B2     		uxtb	r2, r2
 699 0028 1A43     		orrs	r2, r3
 700 002a 0B23     		movs	r3, #11
 701 002c 6B44     		add	r3, r3, sp
 702 002e 511E     		subs	r1, r2, #1
 703 0030 8A41     		sbcs	r2, r2, r1
 704 0032 1A70     		strb	r2, [r3]
 705              		.loc 2 199 0 discriminator 1
 706 0034 039B     		ldr	r3, [sp, #12]
 707 0036 1800     		movs	r0, r3
 708 0038 FFF7FEFF 		bl	chRegNextThread
 709 003c 0300     		movs	r3, r0
 710 003e 0393     		str	r3, [sp, #12]
 711              		.loc 2 200 0 discriminator 1
 712 0040 039B     		ldr	r3, [sp, #12]
 713 0042 002B     		cmp	r3, #0
 714 0044 E7D1     		bne	.L45
 715              		.loc 2 201 0
 716 0046 0B23     		movs	r3, #11
 717 0048 6B44     		add	r3, r3, sp
 718 004a 1B78     		ldrb	r3, [r3]
 719              		.loc 2 202 0
 720 004c 1800     		movs	r0, r3
 721 004e 05B0     		add	sp, sp, #20
 722              		@ sp needed
 723 0050 00BD     		pop	{pc}
 724              		.cfi_endproc
 725              	.LFE157:
 726              		.size	regfind, .-regfind
ARM GAS  /tmp/ccvIBBGd.s 			page 14


 727 0052 C046     		.section	.text.dyn3_setup,"ax",%progbits
 728              		.align	1
 729              		.p2align 4,,15
 730              		.syntax unified
 731              		.code	16
 732              		.thumb_func
 733              		.fpu softvfp
 734              		.type	dyn3_setup, %function
 735              	dyn3_setup:
 736              	.LFB158:
 737              		.loc 2 204 0
 738              		.cfi_startproc
 739              		@ args = 0, pretend = 0, frame = 0
 740              		@ frame_needed = 0, uses_anonymous_args = 0
 741 0000 10B5     		push	{r4, lr}
 742              		.cfi_def_cfa_offset 8
 743              		.cfi_offset 4, -8
 744              		.cfi_offset 14, -4
 745              		.loc 2 206 0
 746 0002 D223     		movs	r3, #210
 747 0004 DA00     		lsls	r2, r3, #3
 748 0006 0349     		ldr	r1, .L48
 749 0008 034B     		ldr	r3, .L48+4
 750 000a 1800     		movs	r0, r3
 751 000c FFF7FEFF 		bl	chHeapObjectInit
 752              		.loc 2 207 0
 753 0010 C046     		nop
 754              		@ sp needed
 755 0012 10BD     		pop	{r4, pc}
 756              	.L49:
 757              		.align	2
 758              	.L48:
 759 0014 00000000 		.word	test
 760 0018 00000000 		.word	heap1
 761              		.cfi_endproc
 762              	.LFE158:
 763              		.size	dyn3_setup, .-dyn3_setup
 764              		.section	.text.dyn3_execute,"ax",%progbits
 765              		.align	1
 766              		.p2align 4,,15
 767              		.syntax unified
 768              		.code	16
 769              		.thumb_func
 770              		.fpu softvfp
 771              		.type	dyn3_execute, %function
 772              	dyn3_execute:
 773              	.LFB159:
 774              		.loc 2 209 0
 775              		.cfi_startproc
 776              		@ args = 0, pretend = 0, frame = 8
 777              		@ frame_needed = 0, uses_anonymous_args = 0
 778 0000 10B5     		push	{r4, lr}
 779              		.cfi_def_cfa_offset 8
 780              		.cfi_offset 4, -8
 781              		.cfi_offset 14, -4
 782 0002 84B0     		sub	sp, sp, #16
 783              		.cfi_def_cfa_offset 24
ARM GAS  /tmp/ccvIBBGd.s 			page 15


 784              		.loc 2 211 0
 785 0004 FFF7FEFF 		bl	chThdGetPriorityX
 786 0008 0300     		movs	r3, r0
 787 000a 0393     		str	r3, [sp, #12]
 788              		.loc 2 214 0
 789 000c 039B     		ldr	r3, [sp, #12]
 790 000e 5A1E     		subs	r2, r3, #1
 791 0010 674C     		ldr	r4, .L74
 792 0012 A823     		movs	r3, #168
 793 0014 5900     		lsls	r1, r3, #1
 794 0016 6748     		ldr	r0, .L74+4
 795 0018 674B     		ldr	r3, .L74+8
 796 001a 0093     		str	r3, [sp]
 797 001c 2300     		movs	r3, r4
 798 001e FFF7FEFF 		bl	chThdCreateFromHeap
 799 0022 0300     		movs	r3, r0
 800 0024 0293     		str	r3, [sp, #8]
 801              		.loc 2 215 0
 802 0026 029B     		ldr	r3, [sp, #8]
 803 0028 2222     		movs	r2, #34
 804 002a 9B5C     		ldrb	r3, [r3, r2]
 805 002c 013B     		subs	r3, r3, #1
 806 002e 5A42     		rsbs	r2, r3, #0
 807 0030 5341     		adcs	r3, r3, r2
 808 0032 DBB2     		uxtb	r3, r3
 809 0034 1900     		movs	r1, r3
 810 0036 0120     		movs	r0, #1
 811 0038 FFF7FEFF 		bl	_test_assert
 812 003c 031E     		subs	r3, r0, #0
 813 003e 00D0     		beq	.LCB605
 814 0040 9EE0     		b	.L63	@long jump
 815              	.LCB605:
 816              		.loc 2 216 0
 817 0042 029B     		ldr	r3, [sp, #8]
 818 0044 1800     		movs	r0, r3
 819 0046 FFF7FEFF 		bl	chThdAddRef
 820              		.loc 2 217 0
 821 004a 029B     		ldr	r3, [sp, #8]
 822 004c 2222     		movs	r2, #34
 823 004e 9B5C     		ldrb	r3, [r3, r2]
 824 0050 023B     		subs	r3, r3, #2
 825 0052 5A42     		rsbs	r2, r3, #0
 826 0054 5341     		adcs	r3, r3, r2
 827 0056 DBB2     		uxtb	r3, r3
 828 0058 1900     		movs	r1, r3
 829 005a 0220     		movs	r0, #2
 830 005c FFF7FEFF 		bl	_test_assert
 831 0060 031E     		subs	r3, r0, #0
 832 0062 00D0     		beq	.LCB620
 833 0064 8EE0     		b	.L64	@long jump
 834              	.LCB620:
 835              		.loc 2 218 0
 836 0066 029B     		ldr	r3, [sp, #8]
 837 0068 1800     		movs	r0, r3
 838 006a FFF7FEFF 		bl	chThdRelease
 839              		.loc 2 219 0
 840 006e 029B     		ldr	r3, [sp, #8]
ARM GAS  /tmp/ccvIBBGd.s 			page 16


 841 0070 2222     		movs	r2, #34
 842 0072 9B5C     		ldrb	r3, [r3, r2]
 843 0074 013B     		subs	r3, r3, #1
 844 0076 5A42     		rsbs	r2, r3, #0
 845 0078 5341     		adcs	r3, r3, r2
 846 007a DBB2     		uxtb	r3, r3
 847 007c 1900     		movs	r1, r3
 848 007e 0320     		movs	r0, #3
 849 0080 FFF7FEFF 		bl	_test_assert
 850 0084 031E     		subs	r3, r0, #0
 851 0086 00D0     		beq	.LCB635
 852 0088 7EE0     		b	.L65	@long jump
 853              	.LCB635:
 854              		.loc 2 222 0
 855 008a 029B     		ldr	r3, [sp, #8]
 856 008c 1800     		movs	r0, r3
 857 008e FFF7FEFF 		bl	regfind
 858 0092 0300     		movs	r3, r0
 859 0094 1900     		movs	r1, r3
 860 0096 0420     		movs	r0, #4
 861 0098 FFF7FEFF 		bl	_test_assert
 862 009c 031E     		subs	r3, r0, #0
 863 009e 00D0     		beq	.LCB645
 864 00a0 74E0     		b	.L66	@long jump
 865              	.LCB645:
 866              		.loc 2 223 0
 867 00a2 029B     		ldr	r3, [sp, #8]
 868 00a4 1800     		movs	r0, r3
 869 00a6 FFF7FEFF 		bl	regfind
 870 00aa 0300     		movs	r3, r0
 871 00ac 1900     		movs	r1, r3
 872 00ae 0520     		movs	r0, #5
 873 00b0 FFF7FEFF 		bl	_test_assert
 874 00b4 031E     		subs	r3, r0, #0
 875 00b6 00D0     		beq	.LCB655
 876 00b8 6AE0     		b	.L67	@long jump
 877              	.LCB655:
 878              		.loc 2 226 0
 879 00ba 029B     		ldr	r3, [sp, #8]
 880 00bc 1800     		movs	r0, r3
 881 00be FFF7FEFF 		bl	chThdRelease
 882              		.loc 2 227 0
 883 00c2 029B     		ldr	r3, [sp, #8]
 884 00c4 2222     		movs	r2, #34
 885 00c6 9B5C     		ldrb	r3, [r3, r2]
 886 00c8 5A42     		rsbs	r2, r3, #0
 887 00ca 5341     		adcs	r3, r3, r2
 888 00cc DBB2     		uxtb	r3, r3
 889 00ce 1900     		movs	r1, r3
 890 00d0 0620     		movs	r0, #6
 891 00d2 FFF7FEFF 		bl	_test_assert
 892 00d6 031E     		subs	r3, r0, #0
 893 00d8 5CD1     		bne	.L68
 894              		.loc 2 228 0
 895 00da 029B     		ldr	r3, [sp, #8]
 896 00dc 2022     		movs	r2, #32
 897 00de 9B5C     		ldrb	r3, [r3, r2]
ARM GAS  /tmp/ccvIBBGd.s 			page 17


 898 00e0 5A42     		rsbs	r2, r3, #0
 899 00e2 5341     		adcs	r3, r3, r2
 900 00e4 DBB2     		uxtb	r3, r3
 901 00e6 1900     		movs	r1, r3
 902 00e8 0720     		movs	r0, #7
 903 00ea FFF7FEFF 		bl	_test_assert
 904 00ee 031E     		subs	r3, r0, #0
 905 00f0 52D1     		bne	.L69
 906              		.loc 2 229 0
 907 00f2 029B     		ldr	r3, [sp, #8]
 908 00f4 1800     		movs	r0, r3
 909 00f6 FFF7FEFF 		bl	regfind
 910 00fa 0300     		movs	r3, r0
 911 00fc 1900     		movs	r1, r3
 912 00fe 0820     		movs	r0, #8
 913 0100 FFF7FEFF 		bl	_test_assert
 914 0104 031E     		subs	r3, r0, #0
 915 0106 49D1     		bne	.L70
 916              		.loc 2 230 0
 917 0108 029B     		ldr	r3, [sp, #8]
 918 010a 1800     		movs	r0, r3
 919 010c FFF7FEFF 		bl	regfind
 920 0110 0300     		movs	r3, r0
 921 0112 1900     		movs	r1, r3
 922 0114 0920     		movs	r0, #9
 923 0116 FFF7FEFF 		bl	_test_assert
 924 011a 031E     		subs	r3, r0, #0
 925 011c 40D1     		bne	.L71
 926              		.loc 2 231 0
 927 011e FA23     		movs	r3, #250
 928 0120 5B00     		lsls	r3, r3, #1
 929 0122 1800     		movs	r0, r3
 930 0124 FFF7FEFF 		bl	chThdSleep
 931              		.loc 2 232 0
 932 0128 029B     		ldr	r3, [sp, #8]
 933 012a 2022     		movs	r2, #32
 934 012c 9B5C     		ldrb	r3, [r3, r2]
 935 012e 0F3B     		subs	r3, r3, #15
 936 0130 5A42     		rsbs	r2, r3, #0
 937 0132 5341     		adcs	r3, r3, r2
 938 0134 DBB2     		uxtb	r3, r3
 939 0136 1900     		movs	r1, r3
 940 0138 0A20     		movs	r0, #10
 941 013a FFF7FEFF 		bl	_test_assert
 942 013e 031E     		subs	r3, r0, #0
 943 0140 30D1     		bne	.L72
 944              		.loc 2 235 0
 945 0142 029B     		ldr	r3, [sp, #8]
 946 0144 1800     		movs	r0, r3
 947 0146 FFF7FEFF 		bl	regfind
 948 014a 0300     		movs	r3, r0
 949 014c 1900     		movs	r1, r3
 950 014e 0B20     		movs	r0, #11
 951 0150 FFF7FEFF 		bl	_test_assert
 952 0154 031E     		subs	r3, r0, #0
 953 0156 27D1     		bne	.L73
 954              		.loc 2 236 0
ARM GAS  /tmp/ccvIBBGd.s 			page 18


 955 0158 029B     		ldr	r3, [sp, #8]
 956 015a 1800     		movs	r0, r3
 957 015c FFF7FEFF 		bl	regfind
 958 0160 0300     		movs	r3, r0
 959 0162 5A1E     		subs	r2, r3, #1
 960 0164 9341     		sbcs	r3, r3, r2
 961 0166 DBB2     		uxtb	r3, r3
 962 0168 0122     		movs	r2, #1
 963 016a 5340     		eors	r3, r2
 964 016c DBB2     		uxtb	r3, r3
 965 016e 1A1C     		adds	r2, r3, #0
 966 0170 0123     		movs	r3, #1
 967 0172 1340     		ands	r3, r2
 968 0174 DBB2     		uxtb	r3, r3
 969 0176 1900     		movs	r1, r3
 970 0178 0C20     		movs	r0, #12
 971 017a FFF7FEFF 		bl	_test_assert
 972 017e 14E0     		b	.L50
 973              	.L63:
 974              		.loc 2 215 0
 975 0180 C046     		nop
 976 0182 12E0     		b	.L50
 977              	.L64:
 978              		.loc 2 217 0
 979 0184 C046     		nop
 980 0186 10E0     		b	.L50
 981              	.L65:
 982              		.loc 2 219 0
 983 0188 C046     		nop
 984 018a 0EE0     		b	.L50
 985              	.L66:
 986              		.loc 2 222 0
 987 018c C046     		nop
 988 018e 0CE0     		b	.L50
 989              	.L67:
 990              		.loc 2 223 0
 991 0190 C046     		nop
 992 0192 0AE0     		b	.L50
 993              	.L68:
 994              		.loc 2 227 0
 995 0194 C046     		nop
 996 0196 08E0     		b	.L50
 997              	.L69:
 998              		.loc 2 228 0
 999 0198 C046     		nop
 1000 019a 06E0     		b	.L50
 1001              	.L70:
 1002              		.loc 2 229 0
 1003 019c C046     		nop
 1004 019e 04E0     		b	.L50
 1005              	.L71:
 1006              		.loc 2 230 0
 1007 01a0 C046     		nop
 1008 01a2 02E0     		b	.L50
 1009              	.L72:
 1010              		.loc 2 232 0
 1011 01a4 C046     		nop
ARM GAS  /tmp/ccvIBBGd.s 			page 19


 1012 01a6 00E0     		b	.L50
 1013              	.L73:
 1014              		.loc 2 235 0
 1015 01a8 C046     		nop
 1016              	.L50:
 1017              		.loc 2 237 0
 1018 01aa 04B0     		add	sp, sp, #16
 1019              		@ sp needed
 1020 01ac 10BD     		pop	{r4, pc}
 1021              	.L75:
 1022 01ae C046     		.align	2
 1023              	.L74:
 1024 01b0 00000000 		.word	thread
 1025 01b4 00000000 		.word	heap1
 1026 01b8 00000000 		.word	.LC5
 1027              		.cfi_endproc
 1028              	.LFE159:
 1029              		.size	dyn3_execute, .-dyn3_execute
 1030              		.global	testdyn3
 1031              		.section	.rodata
 1032              		.align	2
 1033              	.LC35:
 1034 007c 44796E61 		.ascii	"Dynamic APIs, registry and references\000"
 1034      6D696320 
 1034      41504973 
 1034      2C207265 
 1034      67697374 
 1035              		.section	.rodata.testdyn3,"a",%progbits
 1036              		.align	2
 1037              		.type	testdyn3, %object
 1038              		.size	testdyn3, 16
 1039              	testdyn3:
 1040 0000 7C000000 		.word	.LC35
 1041 0004 00000000 		.word	dyn3_setup
 1042 0008 00000000 		.word	0
 1043 000c 00000000 		.word	dyn3_execute
 1044              		.global	patterndyn
 1045              		.section	.rodata.patterndyn,"a",%progbits
 1046              		.align	2
 1047              		.type	patterndyn, %object
 1048              		.size	patterndyn, 16
 1049              	patterndyn:
 1050 0000 00000000 		.word	testdyn1
 1051 0004 00000000 		.word	testdyn2
 1052 0008 00000000 		.word	testdyn3
 1053 000c 00000000 		.word	0
 1054              		.text
 1055              	.Letext0:
 1056              		.file 3 "/home/felix/opt/gcc-arm-none-eabi-6-2017-q1-update/lib/gcc/arm-none-eabi/6.3.1/include/st
 1057              		.file 4 "/home/felix/opt/gcc-arm-none-eabi-6-2017-q1-update/arm-none-eabi/include/machine/_default
 1058              		.file 5 "/home/felix/opt/gcc-arm-none-eabi-6-2017-q1-update/arm-none-eabi/include/sys/_stdint.h"
 1059              		.file 6 "ChibiOS/os/rt/ports/ARMCMx/compilers/GCC/chtypes.h"
 1060              		.file 7 "ChibiOS/os/rt/include/chsystypes.h"
 1061              		.file 8 "ChibiOS/os/rt/include/chschd.h"
 1062              		.file 9 "ChibiOS/os/rt/ports/ARMCMx/chcore.h"
 1063              		.file 10 "ChibiOS/os/rt/ports/ARMCMx/chcore_v6m.h"
 1064              		.file 11 "ChibiOS/os/rt/include/chdebug.h"
ARM GAS  /tmp/ccvIBBGd.s 			page 20


 1065              		.file 12 "ChibiOS/os/rt/include/chsem.h"
 1066              		.file 13 "ChibiOS/os/rt/include/chmtx.h"
 1067              		.file 14 "ChibiOS/os/rt/include/chregistry.h"
 1068              		.file 15 "ChibiOS/os/ext/CMSIS/ST/STM32F0xx/system_stm32f0xx.h"
 1069              		.file 16 "ChibiOS/os/rt/include/chmemcore.h"
 1070              		.file 17 "ChibiOS/os/rt/include/chheap.h"
 1071              		.file 18 "ChibiOS/os/rt/include/chmempools.h"
 1072              		.file 19 "ChibiOS/test/rt/test.h"
 1073              		.section	.debug_info,"",%progbits
 1074              	.Ldebug_info0:
 1075 0000 310C0000 		.4byte	0xc31
 1076 0004 0400     		.2byte	0x4
 1077 0006 00000000 		.4byte	.Ldebug_abbrev0
 1078 000a 04       		.byte	0x4
 1079 000b 01       		.uleb128 0x1
 1080 000c EC020000 		.4byte	.LASF181
 1081 0010 0C       		.byte	0xc
 1082 0011 95020000 		.4byte	.LASF182
 1083 0015 09040000 		.4byte	.LASF183
 1084 0019 00000000 		.4byte	.Ldebug_ranges0+0
 1085 001d 00000000 		.4byte	0
 1086 0021 00000000 		.4byte	.Ldebug_line0
 1087 0025 02       		.uleb128 0x2
 1088 0026 04       		.byte	0x4
 1089 0027 05       		.byte	0x5
 1090 0028 696E7400 		.ascii	"int\000"
 1091 002c 03       		.uleb128 0x3
 1092 002d BB020000 		.4byte	.LASF4
 1093 0031 03       		.byte	0x3
 1094 0032 D8       		.byte	0xd8
 1095 0033 37000000 		.4byte	0x37
 1096 0037 04       		.uleb128 0x4
 1097 0038 04       		.byte	0x4
 1098 0039 07       		.byte	0x7
 1099 003a C3000000 		.4byte	.LASF0
 1100 003e 04       		.uleb128 0x4
 1101 003f 08       		.byte	0x8
 1102 0040 05       		.byte	0x5
 1103 0041 E2040000 		.4byte	.LASF1
 1104 0045 04       		.uleb128 0x4
 1105 0046 08       		.byte	0x8
 1106 0047 04       		.byte	0x4
 1107 0048 B7050000 		.4byte	.LASF2
 1108 004c 04       		.uleb128 0x4
 1109 004d 01       		.byte	0x1
 1110 004e 06       		.byte	0x6
 1111 004f CB070000 		.4byte	.LASF3
 1112 0053 03       		.uleb128 0x3
 1113 0054 94060000 		.4byte	.LASF5
 1114 0058 04       		.byte	0x4
 1115 0059 2B       		.byte	0x2b
 1116 005a 5E000000 		.4byte	0x5e
 1117 005e 04       		.uleb128 0x4
 1118 005f 01       		.byte	0x1
 1119 0060 08       		.byte	0x8
 1120 0061 3D070000 		.4byte	.LASF6
 1121 0065 04       		.uleb128 0x4
ARM GAS  /tmp/ccvIBBGd.s 			page 21


 1122 0066 02       		.byte	0x2
 1123 0067 05       		.byte	0x5
 1124 0068 FC050000 		.4byte	.LASF7
 1125 006c 03       		.uleb128 0x3
 1126 006d 43020000 		.4byte	.LASF8
 1127 0071 04       		.byte	0x4
 1128 0072 39       		.byte	0x39
 1129 0073 77000000 		.4byte	0x77
 1130 0077 04       		.uleb128 0x4
 1131 0078 02       		.byte	0x2
 1132 0079 07       		.byte	0x7
 1133 007a E4070000 		.4byte	.LASF9
 1134 007e 03       		.uleb128 0x3
 1135 007f EC000000 		.4byte	.LASF10
 1136 0083 04       		.byte	0x4
 1137 0084 4D       		.byte	0x4d
 1138 0085 89000000 		.4byte	0x89
 1139 0089 04       		.uleb128 0x4
 1140 008a 04       		.byte	0x4
 1141 008b 05       		.byte	0x5
 1142 008c 2F060000 		.4byte	.LASF11
 1143 0090 03       		.uleb128 0x3
 1144 0091 51070000 		.4byte	.LASF12
 1145 0095 04       		.byte	0x4
 1146 0096 4F       		.byte	0x4f
 1147 0097 9B000000 		.4byte	0x9b
 1148 009b 04       		.uleb128 0x4
 1149 009c 04       		.byte	0x4
 1150 009d 07       		.byte	0x7
 1151 009e D6060000 		.4byte	.LASF13
 1152 00a2 03       		.uleb128 0x3
 1153 00a3 C3030000 		.4byte	.LASF14
 1154 00a7 04       		.byte	0x4
 1155 00a8 69       		.byte	0x69
 1156 00a9 AD000000 		.4byte	0xad
 1157 00ad 04       		.uleb128 0x4
 1158 00ae 08       		.byte	0x8
 1159 00af 07       		.byte	0x7
 1160 00b0 09020000 		.4byte	.LASF15
 1161 00b4 03       		.uleb128 0x3
 1162 00b5 87040000 		.4byte	.LASF16
 1163 00b9 05       		.byte	0x5
 1164 00ba 18       		.byte	0x18
 1165 00bb 53000000 		.4byte	0x53
 1166 00bf 03       		.uleb128 0x3
 1167 00c0 C3050000 		.4byte	.LASF17
 1168 00c4 05       		.byte	0x5
 1169 00c5 24       		.byte	0x24
 1170 00c6 6C000000 		.4byte	0x6c
 1171 00ca 03       		.uleb128 0x3
 1172 00cb 0A070000 		.4byte	.LASF18
 1173 00cf 05       		.byte	0x5
 1174 00d0 2C       		.byte	0x2c
 1175 00d1 7E000000 		.4byte	0x7e
 1176 00d5 03       		.uleb128 0x3
 1177 00d6 9C010000 		.4byte	.LASF19
 1178 00da 05       		.byte	0x5
ARM GAS  /tmp/ccvIBBGd.s 			page 22


 1179 00db 30       		.byte	0x30
 1180 00dc 90000000 		.4byte	0x90
 1181 00e0 03       		.uleb128 0x3
 1182 00e1 67060000 		.4byte	.LASF20
 1183 00e5 05       		.byte	0x5
 1184 00e6 3C       		.byte	0x3c
 1185 00e7 A2000000 		.4byte	0xa2
 1186 00eb 03       		.uleb128 0x3
 1187 00ec 9C050000 		.4byte	.LASF21
 1188 00f0 06       		.byte	0x6
 1189 00f1 3C       		.byte	0x3c
 1190 00f2 B4000000 		.4byte	0xb4
 1191 00f6 03       		.uleb128 0x3
 1192 00f7 5D040000 		.4byte	.LASF22
 1193 00fb 06       		.byte	0x6
 1194 00fc 3D       		.byte	0x3d
 1195 00fd B4000000 		.4byte	0xb4
 1196 0101 03       		.uleb128 0x3
 1197 0102 CE060000 		.4byte	.LASF23
 1198 0106 06       		.byte	0x6
 1199 0107 3E       		.byte	0x3e
 1200 0108 B4000000 		.4byte	0xb4
 1201 010c 03       		.uleb128 0x3
 1202 010d D8010000 		.4byte	.LASF24
 1203 0111 06       		.byte	0x6
 1204 0112 40       		.byte	0x40
 1205 0113 D5000000 		.4byte	0xd5
 1206 0117 03       		.uleb128 0x3
 1207 0118 00050000 		.4byte	.LASF25
 1208 011c 06       		.byte	0x6
 1209 011d 41       		.byte	0x41
 1210 011e CA000000 		.4byte	0xca
 1211 0122 03       		.uleb128 0x3
 1212 0123 B1010000 		.4byte	.LASF26
 1213 0127 06       		.byte	0x6
 1214 0128 43       		.byte	0x43
 1215 0129 D5000000 		.4byte	0xd5
 1216 012d 03       		.uleb128 0x3
 1217 012e 4E020000 		.4byte	.LASF27
 1218 0132 06       		.byte	0x6
 1219 0133 45       		.byte	0x45
 1220 0134 CA000000 		.4byte	0xca
 1221 0138 03       		.uleb128 0x3
 1222 0139 8A000000 		.4byte	.LASF28
 1223 013d 07       		.byte	0x7
 1224 013e 35       		.byte	0x35
 1225 013f BF000000 		.4byte	0xbf
 1226 0143 03       		.uleb128 0x3
 1227 0144 8C020000 		.4byte	.LASF29
 1228 0148 07       		.byte	0x7
 1229 0149 3F       		.byte	0x3f
 1230 014a 4E010000 		.4byte	0x14e
 1231 014e 05       		.uleb128 0x5
 1232 014f B3040000 		.4byte	.LASF50
 1233 0153 48       		.byte	0x48
 1234 0154 08       		.byte	0x8
 1235 0155 C2       		.byte	0xc2
ARM GAS  /tmp/ccvIBBGd.s 			page 23


 1236 0156 47020000 		.4byte	0x247
 1237 015a 06       		.uleb128 0x6
 1238 015b 60060000 		.4byte	.LASF30
 1239 015f 08       		.byte	0x8
 1240 0160 C3       		.byte	0xc3
 1241 0161 52020000 		.4byte	0x252
 1242 0165 00       		.byte	0
 1243 0166 06       		.uleb128 0x6
 1244 0167 BE060000 		.4byte	.LASF31
 1245 016b 08       		.byte	0x8
 1246 016c C5       		.byte	0xc5
 1247 016d 52020000 		.4byte	0x252
 1248 0171 04       		.byte	0x4
 1249 0172 06       		.uleb128 0x6
 1250 0173 6F000000 		.4byte	.LASF32
 1251 0177 08       		.byte	0x8
 1252 0178 C7       		.byte	0xc7
 1253 0179 0C010000 		.4byte	0x10c
 1254 017d 08       		.byte	0x8
 1255 017e 06       		.uleb128 0x6
 1256 017f 70060000 		.4byte	.LASF33
 1257 0183 08       		.byte	0x8
 1258 0184 C8       		.byte	0xc8
 1259 0185 B0040000 		.4byte	0x4b0
 1260 0189 0C       		.byte	0xc
 1261 018a 06       		.uleb128 0x6
 1262 018b 65020000 		.4byte	.LASF34
 1263 018f 08       		.byte	0x8
 1264 0190 CA       		.byte	0xca
 1265 0191 52020000 		.4byte	0x252
 1266 0195 10       		.byte	0x10
 1267 0196 06       		.uleb128 0x6
 1268 0197 6C040000 		.4byte	.LASF35
 1269 019b 08       		.byte	0x8
 1270 019c CB       		.byte	0xcb
 1271 019d 52020000 		.4byte	0x252
 1272 01a1 14       		.byte	0x14
 1273 01a2 06       		.uleb128 0x6
 1274 01a3 E9030000 		.4byte	.LASF36
 1275 01a7 08       		.byte	0x8
 1276 01a8 D2       		.byte	0xd2
 1277 01a9 99060000 		.4byte	0x699
 1278 01ad 18       		.byte	0x18
 1279 01ae 06       		.uleb128 0x6
 1280 01af 7C040000 		.4byte	.LASF37
 1281 01b3 08       		.byte	0x8
 1282 01b4 D8       		.byte	0xd8
 1283 01b5 B0060000 		.4byte	0x6b0
 1284 01b9 1C       		.byte	0x1c
 1285 01ba 06       		.uleb128 0x6
 1286 01bb 74040000 		.4byte	.LASF38
 1287 01bf 08       		.byte	0x8
 1288 01c0 DD       		.byte	0xdd
 1289 01c1 F6000000 		.4byte	0xf6
 1290 01c5 20       		.byte	0x20
 1291 01c6 06       		.uleb128 0x6
 1292 01c7 24050000 		.4byte	.LASF39
ARM GAS  /tmp/ccvIBBGd.s 			page 24


 1293 01cb 08       		.byte	0x8
 1294 01cc E1       		.byte	0xe1
 1295 01cd EB000000 		.4byte	0xeb
 1296 01d1 21       		.byte	0x21
 1297 01d2 06       		.uleb128 0x6
 1298 01d3 72070000 		.4byte	.LASF40
 1299 01d7 08       		.byte	0x8
 1300 01d8 E6       		.byte	0xe6
 1301 01d9 01010000 		.4byte	0x101
 1302 01dd 22       		.byte	0x22
 1303 01de 07       		.uleb128 0x7
 1304 01df 705F7500 		.ascii	"p_u\000"
 1305 01e3 08       		.byte	0x8
 1306 01e4 3101     		.2byte	0x131
 1307 01e6 D4050000 		.4byte	0x5d4
 1308 01ea 24       		.byte	0x24
 1309 01eb 08       		.uleb128 0x8
 1310 01ec 32000000 		.4byte	.LASF41
 1311 01f0 08       		.byte	0x8
 1312 01f1 3601     		.2byte	0x136
 1313 01f3 58020000 		.4byte	0x258
 1314 01f7 28       		.byte	0x28
 1315 01f8 08       		.uleb128 0x8
 1316 01f9 B8000000 		.4byte	.LASF42
 1317 01fd 08       		.byte	0x8
 1318 01fe 3C01     		.2byte	0x13c
 1319 0200 7C020000 		.4byte	0x27c
 1320 0204 2C       		.byte	0x2c
 1321 0205 08       		.uleb128 0x8
 1322 0206 96050000 		.4byte	.LASF43
 1323 020a 08       		.byte	0x8
 1324 020b 4001     		.2byte	0x140
 1325 020d 17010000 		.4byte	0x117
 1326 0211 34       		.byte	0x34
 1327 0212 08       		.uleb128 0x8
 1328 0213 1C060000 		.4byte	.LASF44
 1329 0217 08       		.byte	0x8
 1330 0218 4601     		.2byte	0x146
 1331 021a 22010000 		.4byte	0x122
 1332 021e 38       		.byte	0x38
 1333 021f 08       		.uleb128 0x8
 1334 0220 A9040000 		.4byte	.LASF45
 1335 0224 08       		.byte	0x8
 1336 0225 4D01     		.2byte	0x14d
 1337 0227 93060000 		.4byte	0x693
 1338 022b 3C       		.byte	0x3c
 1339 022c 08       		.uleb128 0x8
 1340 022d E6050000 		.4byte	.LASF46
 1341 0231 08       		.byte	0x8
 1342 0232 5101     		.2byte	0x151
 1343 0234 0C010000 		.4byte	0x10c
 1344 0238 40       		.byte	0x40
 1345 0239 08       		.uleb128 0x8
 1346 023a A1040000 		.4byte	.LASF47
 1347 023e 08       		.byte	0x8
 1348 023f 5801     		.2byte	0x158
 1349 0241 2F030000 		.4byte	0x32f
ARM GAS  /tmp/ccvIBBGd.s 			page 25


 1350 0245 44       		.byte	0x44
 1351 0246 00       		.byte	0
 1352 0247 03       		.uleb128 0x3
 1353 0248 3E040000 		.4byte	.LASF48
 1354 024c 07       		.byte	0x7
 1355 024d 44       		.byte	0x44
 1356 024e 52020000 		.4byte	0x252
 1357 0252 09       		.uleb128 0x9
 1358 0253 04       		.byte	0x4
 1359 0254 43010000 		.4byte	0x143
 1360 0258 03       		.uleb128 0x3
 1361 0259 DD000000 		.4byte	.LASF49
 1362 025d 07       		.byte	0x7
 1363 025e 49       		.byte	0x49
 1364 025f 63020000 		.4byte	0x263
 1365 0263 05       		.uleb128 0x5
 1366 0264 09000000 		.4byte	.LASF51
 1367 0268 04       		.byte	0x4
 1368 0269 08       		.byte	0x8
 1369 026a B0       		.byte	0xb0
 1370 026b 7C020000 		.4byte	0x27c
 1371 026f 06       		.uleb128 0x6
 1372 0270 60060000 		.4byte	.LASF30
 1373 0274 08       		.byte	0x8
 1374 0275 B1       		.byte	0xb1
 1375 0276 52020000 		.4byte	0x252
 1376 027a 00       		.byte	0
 1377 027b 00       		.byte	0
 1378 027c 03       		.uleb128 0x3
 1379 027d 22000000 		.4byte	.LASF52
 1380 0281 07       		.byte	0x7
 1381 0282 50       		.byte	0x50
 1382 0283 87020000 		.4byte	0x287
 1383 0287 05       		.uleb128 0x5
 1384 0288 54010000 		.4byte	.LASF53
 1385 028c 08       		.byte	0x8
 1386 028d 08       		.byte	0x8
 1387 028e B7       		.byte	0xb7
 1388 028f AC020000 		.4byte	0x2ac
 1389 0293 06       		.uleb128 0x6
 1390 0294 60060000 		.4byte	.LASF30
 1391 0298 08       		.byte	0x8
 1392 0299 B8       		.byte	0xb8
 1393 029a 52020000 		.4byte	0x252
 1394 029e 00       		.byte	0
 1395 029f 06       		.uleb128 0x6
 1396 02a0 BE060000 		.4byte	.LASF31
 1397 02a4 08       		.byte	0x8
 1398 02a5 B9       		.byte	0xb9
 1399 02a6 52020000 		.4byte	0x252
 1400 02aa 04       		.byte	0x4
 1401 02ab 00       		.byte	0
 1402 02ac 03       		.uleb128 0x3
 1403 02ad F5060000 		.4byte	.LASF54
 1404 02b1 07       		.byte	0x7
 1405 02b2 57       		.byte	0x57
 1406 02b3 B7020000 		.4byte	0x2b7
ARM GAS  /tmp/ccvIBBGd.s 			page 26


 1407 02b7 0A       		.uleb128 0xa
 1408 02b8 23010000 		.4byte	.LASF55
 1409 02bc 1C       		.byte	0x1c
 1410 02bd 08       		.byte	0x8
 1411 02be 9001     		.2byte	0x190
 1412 02c0 13030000 		.4byte	0x313
 1413 02c4 08       		.uleb128 0x8
 1414 02c5 F0040000 		.4byte	.LASF56
 1415 02c9 08       		.byte	0x8
 1416 02ca 9101     		.2byte	0x191
 1417 02cc 7C020000 		.4byte	0x27c
 1418 02d0 00       		.byte	0
 1419 02d1 08       		.uleb128 0x8
 1420 02d2 BD010000 		.4byte	.LASF57
 1421 02d6 08       		.byte	0x8
 1422 02d7 9201     		.2byte	0x192
 1423 02d9 0C010000 		.4byte	0x10c
 1424 02dd 08       		.byte	0x8
 1425 02de 08       		.uleb128 0x8
 1426 02df F7070000 		.4byte	.LASF58
 1427 02e3 08       		.byte	0x8
 1428 02e4 9401     		.2byte	0x194
 1429 02e6 B0040000 		.4byte	0x4b0
 1430 02ea 0C       		.byte	0xc
 1431 02eb 08       		.uleb128 0x8
 1432 02ec F8040000 		.4byte	.LASF59
 1433 02f0 08       		.byte	0x8
 1434 02f1 9701     		.2byte	0x197
 1435 02f3 52020000 		.4byte	0x252
 1436 02f7 10       		.byte	0x10
 1437 02f8 08       		.uleb128 0x8
 1438 02f9 67050000 		.4byte	.LASF60
 1439 02fd 08       		.byte	0x8
 1440 02fe 9801     		.2byte	0x198
 1441 0300 52020000 		.4byte	0x252
 1442 0304 14       		.byte	0x14
 1443 0305 08       		.uleb128 0x8
 1444 0306 12060000 		.4byte	.LASF61
 1445 030a 08       		.byte	0x8
 1446 030b 9B01     		.2byte	0x19b
 1447 030d 52020000 		.4byte	0x252
 1448 0311 18       		.byte	0x18
 1449 0312 00       		.byte	0
 1450 0313 03       		.uleb128 0x3
 1451 0314 70010000 		.4byte	.LASF62
 1452 0318 07       		.byte	0x7
 1453 0319 5C       		.byte	0x5c
 1454 031a 1E030000 		.4byte	0x31e
 1455 031e 09       		.uleb128 0x9
 1456 031f 04       		.byte	0x4
 1457 0320 24030000 		.4byte	0x324
 1458 0324 0B       		.uleb128 0xb
 1459 0325 2F030000 		.4byte	0x32f
 1460 0329 0C       		.uleb128 0xc
 1461 032a 2F030000 		.4byte	0x32f
 1462 032e 00       		.byte	0
 1463 032f 0D       		.uleb128 0xd
ARM GAS  /tmp/ccvIBBGd.s 			page 27


 1464 0330 04       		.byte	0x4
 1465 0331 0E       		.uleb128 0xe
 1466 0332 2F030000 		.4byte	0x32f
 1467 0336 03       		.uleb128 0x3
 1468 0337 37050000 		.4byte	.LASF63
 1469 033b 07       		.byte	0x7
 1470 033c 61       		.byte	0x61
 1471 033d 41030000 		.4byte	0x341
 1472 0341 0A       		.uleb128 0xa
 1473 0342 EB010000 		.4byte	.LASF64
 1474 0346 14       		.byte	0x14
 1475 0347 08       		.byte	0x8
 1476 0348 6B01     		.2byte	0x16b
 1477 034a 90030000 		.4byte	0x390
 1478 034e 08       		.uleb128 0x8
 1479 034f 98070000 		.4byte	.LASF65
 1480 0353 08       		.byte	0x8
 1481 0354 6C01     		.2byte	0x16c
 1482 0356 B6060000 		.4byte	0x6b6
 1483 035a 00       		.byte	0
 1484 035b 08       		.uleb128 0x8
 1485 035c 27080000 		.4byte	.LASF66
 1486 0360 08       		.byte	0x8
 1487 0361 6D01     		.2byte	0x16d
 1488 0363 B6060000 		.4byte	0x6b6
 1489 0367 04       		.byte	0x4
 1490 0368 08       		.uleb128 0x8
 1491 0369 00040000 		.4byte	.LASF67
 1492 036d 08       		.byte	0x8
 1493 036e 6E01     		.2byte	0x16e
 1494 0370 38010000 		.4byte	0x138
 1495 0374 08       		.byte	0x8
 1496 0375 08       		.uleb128 0x8
 1497 0376 1F080000 		.4byte	.LASF68
 1498 037a 08       		.byte	0x8
 1499 037b 6F01     		.2byte	0x16f
 1500 037d 13030000 		.4byte	0x313
 1501 0381 0C       		.byte	0xc
 1502 0382 08       		.uleb128 0x8
 1503 0383 C4010000 		.4byte	.LASF69
 1504 0387 08       		.byte	0x8
 1505 0388 7101     		.2byte	0x171
 1506 038a 2F030000 		.4byte	0x32f
 1507 038e 10       		.byte	0x10
 1508 038f 00       		.byte	0
 1509 0390 03       		.uleb128 0x3
 1510 0391 5C070000 		.4byte	.LASF70
 1511 0395 07       		.byte	0x7
 1512 0396 66       		.byte	0x66
 1513 0397 9B030000 		.4byte	0x39b
 1514 039b 0A       		.uleb128 0xa
 1515 039c 6D020000 		.4byte	.LASF71
 1516 03a0 0C       		.byte	0xc
 1517 03a1 08       		.byte	0x8
 1518 03a2 7B01     		.2byte	0x17b
 1519 03a4 DD030000 		.4byte	0x3dd
 1520 03a8 08       		.uleb128 0x8
ARM GAS  /tmp/ccvIBBGd.s 			page 28


 1521 03a9 98070000 		.4byte	.LASF65
 1522 03ad 08       		.byte	0x8
 1523 03ae 7C01     		.2byte	0x17c
 1524 03b0 B6060000 		.4byte	0x6b6
 1525 03b4 00       		.byte	0
 1526 03b5 08       		.uleb128 0x8
 1527 03b6 27080000 		.4byte	.LASF66
 1528 03ba 08       		.byte	0x8
 1529 03bb 7E01     		.2byte	0x17e
 1530 03bd B6060000 		.4byte	0x6b6
 1531 03c1 04       		.byte	0x4
 1532 03c2 08       		.uleb128 0x8
 1533 03c3 00040000 		.4byte	.LASF67
 1534 03c7 08       		.byte	0x8
 1535 03c8 8001     		.2byte	0x180
 1536 03ca 38010000 		.4byte	0x138
 1537 03ce 08       		.byte	0x8
 1538 03cf 08       		.uleb128 0x8
 1539 03d0 51040000 		.4byte	.LASF72
 1540 03d4 08       		.byte	0x8
 1541 03d5 8801     		.2byte	0x188
 1542 03d7 38010000 		.4byte	0x138
 1543 03db 0A       		.byte	0xa
 1544 03dc 00       		.byte	0
 1545 03dd 03       		.uleb128 0x3
 1546 03de D3040000 		.4byte	.LASF73
 1547 03e2 07       		.byte	0x7
 1548 03e3 6B       		.byte	0x6b
 1549 03e4 E8030000 		.4byte	0x3e8
 1550 03e8 0F       		.uleb128 0xf
 1551 03e9 85010000 		.4byte	.LASF74
 1552 03ed 1404     		.2byte	0x414
 1553 03ef 08       		.byte	0x8
 1554 03f0 A201     		.2byte	0x1a2
 1555 03f2 2B040000 		.4byte	0x42b
 1556 03f6 08       		.uleb128 0x8
 1557 03f7 8C050000 		.4byte	.LASF75
 1558 03fb 08       		.byte	0x8
 1559 03fc AA01     		.2byte	0x1aa
 1560 03fe 9F060000 		.4byte	0x69f
 1561 0402 00       		.byte	0
 1562 0403 08       		.uleb128 0x8
 1563 0404 5D020000 		.4byte	.LASF76
 1564 0408 08       		.byte	0x8
 1565 0409 AF01     		.2byte	0x1af
 1566 040b 2D010000 		.4byte	0x12d
 1567 040f 04       		.byte	0x4
 1568 0410 08       		.uleb128 0x8
 1569 0411 DD050000 		.4byte	.LASF77
 1570 0415 08       		.byte	0x8
 1571 0416 B301     		.2byte	0x1b3
 1572 0418 2D010000 		.4byte	0x12d
 1573 041c 08       		.byte	0x8
 1574 041d 08       		.uleb128 0x8
 1575 041e 12070000 		.4byte	.LASF78
 1576 0422 08       		.byte	0x8
 1577 0423 B901     		.2byte	0x1b9
ARM GAS  /tmp/ccvIBBGd.s 			page 29


 1578 0425 C9050000 		.4byte	0x5c9
 1579 0429 0C       		.byte	0xc
 1580 042a 00       		.byte	0
 1581 042b 03       		.uleb128 0x3
 1582 042c A0070000 		.4byte	.LASF79
 1583 0430 07       		.byte	0x7
 1584 0431 70       		.byte	0x70
 1585 0432 36040000 		.4byte	0x436
 1586 0436 0F       		.uleb128 0xf
 1587 0437 56060000 		.4byte	.LASF80
 1588 043b 6805     		.2byte	0x568
 1589 043d 08       		.byte	0x8
 1590 043e C201     		.2byte	0x1c2
 1591 0440 88040000 		.4byte	0x488
 1592 0444 08       		.uleb128 0x8
 1593 0445 76060000 		.4byte	.LASF81
 1594 0449 08       		.byte	0x8
 1595 044a C601     		.2byte	0x1c6
 1596 044c AC020000 		.4byte	0x2ac
 1597 0450 00       		.byte	0
 1598 0451 08       		.uleb128 0x8
 1599 0452 1C010000 		.4byte	.LASF82
 1600 0456 08       		.byte	0x8
 1601 0457 CA01     		.2byte	0x1ca
 1602 0459 90030000 		.4byte	0x390
 1603 045d 1C       		.byte	0x1c
 1604 045e 07       		.uleb128 0x7
 1605 045f 64626700 		.ascii	"dbg\000"
 1606 0463 08       		.byte	0x8
 1607 0464 CE01     		.2byte	0x1ce
 1608 0466 DD030000 		.4byte	0x3dd
 1609 046a 28       		.byte	0x28
 1610 046b 10       		.uleb128 0x10
 1611 046c AC050000 		.4byte	.LASF83
 1612 0470 08       		.byte	0x8
 1613 0471 D201     		.2byte	0x1d2
 1614 0473 43010000 		.4byte	0x143
 1615 0477 3C04     		.2byte	0x43c
 1616 0479 10       		.uleb128 0x10
 1617 047a 31010000 		.4byte	.LASF84
 1618 047e 08       		.byte	0x8
 1619 047f E301     		.2byte	0x1e3
 1620 0481 BC060000 		.4byte	0x6bc
 1621 0485 8804     		.2byte	0x488
 1622 0487 00       		.byte	0
 1623 0488 04       		.uleb128 0x4
 1624 0489 04       		.byte	0x4
 1625 048a 07       		.byte	0x7
 1626 048b C5060000 		.4byte	.LASF85
 1627 048f 11       		.uleb128 0x11
 1628 0490 3C000000 		.4byte	.LASF114
 1629 0494 0F       		.byte	0xf
 1630 0495 4C       		.byte	0x4c
 1631 0496 D5000000 		.4byte	0xd5
 1632 049a 03       		.uleb128 0x3
 1633 049b 66000000 		.4byte	.LASF86
 1634 049f 09       		.byte	0x9
ARM GAS  /tmp/ccvIBBGd.s 			page 30


 1635 04a0 65       		.byte	0x65
 1636 04a1 2F030000 		.4byte	0x32f
 1637 04a5 03       		.uleb128 0x3
 1638 04a6 FD070000 		.4byte	.LASF87
 1639 04aa 09       		.byte	0x9
 1640 04ab 6D       		.byte	0x6d
 1641 04ac E0000000 		.4byte	0xe0
 1642 04b0 05       		.uleb128 0x5
 1643 04b1 06050000 		.4byte	.LASF88
 1644 04b5 04       		.byte	0x4
 1645 04b6 09       		.byte	0x9
 1646 04b7 89       		.byte	0x89
 1647 04b8 C9040000 		.4byte	0x4c9
 1648 04bc 12       		.uleb128 0x12
 1649 04bd 72313300 		.ascii	"r13\000"
 1650 04c1 09       		.byte	0x9
 1651 04c2 8A       		.byte	0x8a
 1652 04c3 3B050000 		.4byte	0x53b
 1653 04c7 00       		.byte	0
 1654 04c8 00       		.byte	0
 1655 04c9 05       		.uleb128 0x5
 1656 04ca 38060000 		.4byte	.LASF89
 1657 04ce 24       		.byte	0x24
 1658 04cf 0A       		.byte	0xa
 1659 04d0 A4       		.byte	0xa4
 1660 04d1 3B050000 		.4byte	0x53b
 1661 04d5 12       		.uleb128 0x12
 1662 04d6 723800   		.ascii	"r8\000"
 1663 04d9 0A       		.byte	0xa
 1664 04da A5       		.byte	0xa5
 1665 04db 9A040000 		.4byte	0x49a
 1666 04df 00       		.byte	0
 1667 04e0 12       		.uleb128 0x12
 1668 04e1 723900   		.ascii	"r9\000"
 1669 04e4 0A       		.byte	0xa
 1670 04e5 A6       		.byte	0xa6
 1671 04e6 9A040000 		.4byte	0x49a
 1672 04ea 04       		.byte	0x4
 1673 04eb 12       		.uleb128 0x12
 1674 04ec 72313000 		.ascii	"r10\000"
 1675 04f0 0A       		.byte	0xa
 1676 04f1 A7       		.byte	0xa7
 1677 04f2 9A040000 		.4byte	0x49a
 1678 04f6 08       		.byte	0x8
 1679 04f7 12       		.uleb128 0x12
 1680 04f8 72313100 		.ascii	"r11\000"
 1681 04fc 0A       		.byte	0xa
 1682 04fd A8       		.byte	0xa8
 1683 04fe 9A040000 		.4byte	0x49a
 1684 0502 0C       		.byte	0xc
 1685 0503 12       		.uleb128 0x12
 1686 0504 723400   		.ascii	"r4\000"
 1687 0507 0A       		.byte	0xa
 1688 0508 A9       		.byte	0xa9
 1689 0509 9A040000 		.4byte	0x49a
 1690 050d 10       		.byte	0x10
 1691 050e 12       		.uleb128 0x12
ARM GAS  /tmp/ccvIBBGd.s 			page 31


 1692 050f 723500   		.ascii	"r5\000"
 1693 0512 0A       		.byte	0xa
 1694 0513 AA       		.byte	0xaa
 1695 0514 9A040000 		.4byte	0x49a
 1696 0518 14       		.byte	0x14
 1697 0519 12       		.uleb128 0x12
 1698 051a 723600   		.ascii	"r6\000"
 1699 051d 0A       		.byte	0xa
 1700 051e AB       		.byte	0xab
 1701 051f 9A040000 		.4byte	0x49a
 1702 0523 18       		.byte	0x18
 1703 0524 12       		.uleb128 0x12
 1704 0525 723700   		.ascii	"r7\000"
 1705 0528 0A       		.byte	0xa
 1706 0529 AC       		.byte	0xac
 1707 052a 9A040000 		.4byte	0x49a
 1708 052e 1C       		.byte	0x1c
 1709 052f 12       		.uleb128 0x12
 1710 0530 6C7200   		.ascii	"lr\000"
 1711 0533 0A       		.byte	0xa
 1712 0534 AD       		.byte	0xad
 1713 0535 9A040000 		.4byte	0x49a
 1714 0539 20       		.byte	0x20
 1715 053a 00       		.byte	0
 1716 053b 09       		.uleb128 0x9
 1717 053c 04       		.byte	0x4
 1718 053d C9040000 		.4byte	0x4c9
 1719 0541 13       		.uleb128 0x13
 1720 0542 10       		.byte	0x10
 1721 0543 0B       		.byte	0xb
 1722 0544 51       		.byte	0x51
 1723 0545 7A050000 		.4byte	0x57a
 1724 0549 06       		.uleb128 0x6
 1725 054a 84020000 		.4byte	.LASF90
 1726 054e 0B       		.byte	0xb
 1727 054f 55       		.byte	0x55
 1728 0550 38010000 		.4byte	0x138
 1729 0554 00       		.byte	0
 1730 0555 06       		.uleb128 0x6
 1731 0556 66040000 		.4byte	.LASF91
 1732 055a 0B       		.byte	0xb
 1733 055b 59       		.byte	0x59
 1734 055c 52020000 		.4byte	0x252
 1735 0560 04       		.byte	0x4
 1736 0561 06       		.uleb128 0x6
 1737 0562 20020000 		.4byte	.LASF92
 1738 0566 0B       		.byte	0xb
 1739 0567 5D       		.byte	0x5d
 1740 0568 2F030000 		.4byte	0x32f
 1741 056c 08       		.byte	0x8
 1742 056d 06       		.uleb128 0x6
 1743 056e F6000000 		.4byte	.LASF93
 1744 0572 0B       		.byte	0xb
 1745 0573 61       		.byte	0x61
 1746 0574 B4000000 		.4byte	0xb4
 1747 0578 0C       		.byte	0xc
 1748 0579 00       		.byte	0
ARM GAS  /tmp/ccvIBBGd.s 			page 32


 1749 057a 03       		.uleb128 0x3
 1750 057b 26070000 		.4byte	.LASF94
 1751 057f 0B       		.byte	0xb
 1752 0580 62       		.byte	0x62
 1753 0581 41050000 		.4byte	0x541
 1754 0585 14       		.uleb128 0x14
 1755 0586 0804     		.2byte	0x408
 1756 0588 0B       		.byte	0xb
 1757 0589 67       		.byte	0x67
 1758 058a B3050000 		.4byte	0x5b3
 1759 058e 06       		.uleb128 0x6
 1760 058f CB040000 		.4byte	.LASF95
 1761 0593 0B       		.byte	0xb
 1762 0594 6B       		.byte	0x6b
 1763 0595 37000000 		.4byte	0x37
 1764 0599 00       		.byte	0
 1765 059a 06       		.uleb128 0x6
 1766 059b 60050000 		.4byte	.LASF96
 1767 059f 0B       		.byte	0xb
 1768 05a0 6F       		.byte	0x6f
 1769 05a1 B3050000 		.4byte	0x5b3
 1770 05a5 04       		.byte	0x4
 1771 05a6 06       		.uleb128 0x6
 1772 05a7 8F040000 		.4byte	.LASF97
 1773 05ab 0B       		.byte	0xb
 1774 05ac 73       		.byte	0x73
 1775 05ad B9050000 		.4byte	0x5b9
 1776 05b1 08       		.byte	0x8
 1777 05b2 00       		.byte	0
 1778 05b3 09       		.uleb128 0x9
 1779 05b4 04       		.byte	0x4
 1780 05b5 7A050000 		.4byte	0x57a
 1781 05b9 15       		.uleb128 0x15
 1782 05ba 7A050000 		.4byte	0x57a
 1783 05be C9050000 		.4byte	0x5c9
 1784 05c2 16       		.uleb128 0x16
 1785 05c3 88040000 		.4byte	0x488
 1786 05c7 3F       		.byte	0x3f
 1787 05c8 00       		.byte	0
 1788 05c9 03       		.uleb128 0x3
 1789 05ca B2070000 		.4byte	.LASF98
 1790 05ce 0B       		.byte	0xb
 1791 05cf 74       		.byte	0x74
 1792 05d0 85050000 		.4byte	0x585
 1793 05d4 17       		.uleb128 0x17
 1794 05d5 04       		.byte	0x4
 1795 05d6 08       		.byte	0x8
 1796 05d7 FA       		.byte	0xfa
 1797 05d8 31060000 		.4byte	0x631
 1798 05dc 18       		.uleb128 0x18
 1799 05dd C2020000 		.4byte	.LASF99
 1800 05e1 08       		.byte	0x8
 1801 05e2 0101     		.2byte	0x101
 1802 05e4 17010000 		.4byte	0x117
 1803 05e8 18       		.uleb128 0x18
 1804 05e9 5D080000 		.4byte	.LASF100
 1805 05ed 08       		.byte	0x8
ARM GAS  /tmp/ccvIBBGd.s 			page 33


 1806 05ee 0801     		.2byte	0x108
 1807 05f0 17010000 		.4byte	0x117
 1808 05f4 18       		.uleb128 0x18
 1809 05f5 15010000 		.4byte	.LASF101
 1810 05f9 08       		.byte	0x8
 1811 05fa 0F01     		.2byte	0x10f
 1812 05fc 2F030000 		.4byte	0x32f
 1813 0600 18       		.uleb128 0x18
 1814 0601 AC070000 		.4byte	.LASF102
 1815 0605 08       		.byte	0x8
 1816 0606 1601     		.2byte	0x116
 1817 0608 31060000 		.4byte	0x631
 1818 060c 18       		.uleb128 0x18
 1819 060d 1F070000 		.4byte	.LASF103
 1820 0611 08       		.byte	0x8
 1821 0612 1E01     		.2byte	0x11e
 1822 0614 5C060000 		.4byte	0x65c
 1823 0618 18       		.uleb128 0x18
 1824 0619 4C000000 		.4byte	.LASF104
 1825 061d 08       		.byte	0x8
 1826 061e 2701     		.2byte	0x127
 1827 0620 93060000 		.4byte	0x693
 1828 0624 18       		.uleb128 0x18
 1829 0625 40010000 		.4byte	.LASF105
 1830 0629 08       		.byte	0x8
 1831 062a 2F01     		.2byte	0x12f
 1832 062c 22010000 		.4byte	0x122
 1833 0630 00       		.byte	0
 1834 0631 09       		.uleb128 0x9
 1835 0632 04       		.byte	0x4
 1836 0633 47020000 		.4byte	0x247
 1837 0637 05       		.uleb128 0x5
 1838 0638 CB010000 		.4byte	.LASF106
 1839 063c 0C       		.byte	0xc
 1840 063d 0C       		.byte	0xc
 1841 063e 34       		.byte	0x34
 1842 063f 5C060000 		.4byte	0x65c
 1843 0643 06       		.uleb128 0x6
 1844 0644 B0000000 		.4byte	.LASF107
 1845 0648 0C       		.byte	0xc
 1846 0649 35       		.byte	0x35
 1847 064a 7C020000 		.4byte	0x27c
 1848 064e 00       		.byte	0
 1849 064f 06       		.uleb128 0x6
 1850 0650 7F010000 		.4byte	.LASF108
 1851 0654 0C       		.byte	0xc
 1852 0655 37       		.byte	0x37
 1853 0656 2D010000 		.4byte	0x12d
 1854 065a 08       		.byte	0x8
 1855 065b 00       		.byte	0
 1856 065c 09       		.uleb128 0x9
 1857 065d 04       		.byte	0x4
 1858 065e 37060000 		.4byte	0x637
 1859 0662 05       		.uleb128 0x5
 1860 0663 BA030000 		.4byte	.LASF109
 1861 0667 10       		.byte	0x10
 1862 0668 0D       		.byte	0xd
ARM GAS  /tmp/ccvIBBGd.s 			page 34


 1863 0669 39       		.byte	0x39
 1864 066a 93060000 		.4byte	0x693
 1865 066e 06       		.uleb128 0x6
 1866 066f 27060000 		.4byte	.LASF110
 1867 0673 0D       		.byte	0xd
 1868 0674 3A       		.byte	0x3a
 1869 0675 7C020000 		.4byte	0x27c
 1870 0679 00       		.byte	0
 1871 067a 06       		.uleb128 0x6
 1872 067b A8000000 		.4byte	.LASF111
 1873 067f 0D       		.byte	0xd
 1874 0680 3C       		.byte	0x3c
 1875 0681 52020000 		.4byte	0x252
 1876 0685 08       		.byte	0x8
 1877 0686 06       		.uleb128 0x6
 1878 0687 C4070000 		.4byte	.LASF112
 1879 068b 0D       		.byte	0xd
 1880 068c 3E       		.byte	0x3e
 1881 068d EE070000 		.4byte	0x7ee
 1882 0691 0C       		.byte	0xc
 1883 0692 00       		.byte	0
 1884 0693 09       		.uleb128 0x9
 1885 0694 04       		.byte	0x4
 1886 0695 62060000 		.4byte	0x662
 1887 0699 09       		.uleb128 0x9
 1888 069a 04       		.byte	0x4
 1889 069b AB060000 		.4byte	0x6ab
 1890 069f 19       		.uleb128 0x19
 1891 06a0 99060000 		.4byte	0x699
 1892 06a4 04       		.uleb128 0x4
 1893 06a5 01       		.byte	0x1
 1894 06a6 08       		.byte	0x8
 1895 06a7 61000000 		.4byte	.LASF113
 1896 06ab 0E       		.uleb128 0xe
 1897 06ac A4060000 		.4byte	0x6a4
 1898 06b0 09       		.uleb128 0x9
 1899 06b1 04       		.byte	0x4
 1900 06b2 A5040000 		.4byte	0x4a5
 1901 06b6 09       		.uleb128 0x9
 1902 06b7 04       		.byte	0x4
 1903 06b8 36030000 		.4byte	0x336
 1904 06bc 15       		.uleb128 0x15
 1905 06bd A5040000 		.4byte	0x4a5
 1906 06c1 CC060000 		.4byte	0x6cc
 1907 06c5 16       		.uleb128 0x16
 1908 06c6 88040000 		.4byte	0x488
 1909 06ca 1B       		.byte	0x1b
 1910 06cb 00       		.byte	0
 1911 06cc 1A       		.uleb128 0x1a
 1912 06cd 636800   		.ascii	"ch\000"
 1913 06d0 08       		.byte	0x8
 1914 06d1 0902     		.2byte	0x209
 1915 06d3 2B040000 		.4byte	0x42b
 1916 06d7 13       		.uleb128 0x13
 1917 06d8 16       		.byte	0x16
 1918 06d9 0E       		.byte	0xe
 1919 06da 34       		.byte	0x34
ARM GAS  /tmp/ccvIBBGd.s 			page 35


 1920 06db B8070000 		.4byte	0x7b8
 1921 06df 06       		.uleb128 0x6
 1922 06e0 B0060000 		.4byte	.LASF115
 1923 06e4 0E       		.byte	0xe
 1924 06e5 35       		.byte	0x35
 1925 06e6 B8070000 		.4byte	0x7b8
 1926 06ea 00       		.byte	0
 1927 06eb 06       		.uleb128 0x6
 1928 06ec 53050000 		.4byte	.LASF116
 1929 06f0 0E       		.byte	0xe
 1930 06f1 36       		.byte	0x36
 1931 06f2 B4000000 		.4byte	0xb4
 1932 06f6 04       		.byte	0x4
 1933 06f7 06       		.uleb128 0x6
 1934 06f8 A4050000 		.4byte	.LASF117
 1935 06fc 0E       		.byte	0xe
 1936 06fd 37       		.byte	0x37
 1937 06fe B4000000 		.4byte	0xb4
 1938 0702 05       		.byte	0x5
 1939 0703 06       		.uleb128 0x6
 1940 0704 F1050000 		.4byte	.LASF118
 1941 0708 0E       		.byte	0xe
 1942 0709 38       		.byte	0x38
 1943 070a BF000000 		.4byte	0xbf
 1944 070e 06       		.byte	0x6
 1945 070f 06       		.uleb128 0x6
 1946 0710 65010000 		.4byte	.LASF119
 1947 0714 0E       		.byte	0xe
 1948 0715 39       		.byte	0x39
 1949 0716 B4000000 		.4byte	0xb4
 1950 071a 08       		.byte	0x8
 1951 071b 06       		.uleb128 0x6
 1952 071c A5010000 		.4byte	.LASF120
 1953 0720 0E       		.byte	0xe
 1954 0721 3A       		.byte	0x3a
 1955 0722 B4000000 		.4byte	0xb4
 1956 0726 09       		.byte	0x9
 1957 0727 06       		.uleb128 0x6
 1958 0728 C9020000 		.4byte	.LASF121
 1959 072c 0E       		.byte	0xe
 1960 072d 3B       		.byte	0x3b
 1961 072e B4000000 		.4byte	0xb4
 1962 0732 0A       		.byte	0xa
 1963 0733 06       		.uleb128 0x6
 1964 0734 88060000 		.4byte	.LASF122
 1965 0738 0E       		.byte	0xe
 1966 0739 3C       		.byte	0x3c
 1967 073a B4000000 		.4byte	0xb4
 1968 073e 0B       		.byte	0xb
 1969 073f 06       		.uleb128 0x6
 1970 0740 CE030000 		.4byte	.LASF123
 1971 0744 0E       		.byte	0xe
 1972 0745 3D       		.byte	0x3d
 1973 0746 B4000000 		.4byte	0xb4
 1974 074a 0C       		.byte	0xc
 1975 074b 06       		.uleb128 0x6
 1976 074c D7070000 		.4byte	.LASF124
ARM GAS  /tmp/ccvIBBGd.s 			page 36


 1977 0750 0E       		.byte	0xe
 1978 0751 3E       		.byte	0x3e
 1979 0752 B4000000 		.4byte	0xb4
 1980 0756 0D       		.byte	0xd
 1981 0757 06       		.uleb128 0x6
 1982 0758 9B000000 		.4byte	.LASF125
 1983 075c 0E       		.byte	0xe
 1984 075d 3F       		.byte	0x3f
 1985 075e B4000000 		.4byte	0xb4
 1986 0762 0E       		.byte	0xe
 1987 0763 06       		.uleb128 0x6
 1988 0764 FF000000 		.4byte	.LASF126
 1989 0768 0E       		.byte	0xe
 1990 0769 40       		.byte	0x40
 1991 076a B4000000 		.4byte	0xb4
 1992 076e 0F       		.byte	0xf
 1993 076f 06       		.uleb128 0x6
 1994 0770 D9030000 		.4byte	.LASF127
 1995 0774 0E       		.byte	0xe
 1996 0775 41       		.byte	0x41
 1997 0776 B4000000 		.4byte	0xb4
 1998 077a 10       		.byte	0x10
 1999 077b 06       		.uleb128 0x6
 2000 077c E8060000 		.4byte	.LASF128
 2001 0780 0E       		.byte	0xe
 2002 0781 43       		.byte	0x43
 2003 0782 B4000000 		.4byte	0xb4
 2004 0786 11       		.byte	0x11
 2005 0787 06       		.uleb128 0x6
 2006 0788 47010000 		.4byte	.LASF129
 2007 078c 0E       		.byte	0xe
 2008 078d 44       		.byte	0x44
 2009 078e B4000000 		.4byte	0xb4
 2010 0792 12       		.byte	0x12
 2011 0793 06       		.uleb128 0x6
 2012 0794 47050000 		.4byte	.LASF130
 2013 0798 0E       		.byte	0xe
 2014 0799 45       		.byte	0x45
 2015 079a B4000000 		.4byte	0xb4
 2016 079e 13       		.byte	0x13
 2017 079f 06       		.uleb128 0x6
 2018 07a0 D7020000 		.4byte	.LASF131
 2019 07a4 0E       		.byte	0xe
 2020 07a5 46       		.byte	0x46
 2021 07a6 B4000000 		.4byte	0xb4
 2022 07aa 14       		.byte	0x14
 2023 07ab 06       		.uleb128 0x6
 2024 07ac 7C060000 		.4byte	.LASF132
 2025 07b0 0E       		.byte	0xe
 2026 07b1 48       		.byte	0x48
 2027 07b2 B4000000 		.4byte	0xb4
 2028 07b6 15       		.byte	0x15
 2029 07b7 00       		.byte	0
 2030 07b8 15       		.uleb128 0x15
 2031 07b9 A4060000 		.4byte	0x6a4
 2032 07bd C8070000 		.4byte	0x7c8
 2033 07c1 16       		.uleb128 0x16
ARM GAS  /tmp/ccvIBBGd.s 			page 37


 2034 07c2 88040000 		.4byte	0x488
 2035 07c6 03       		.byte	0x3
 2036 07c7 00       		.byte	0
 2037 07c8 03       		.uleb128 0x3
 2038 07c9 CC050000 		.4byte	.LASF133
 2039 07cd 0E       		.byte	0xe
 2040 07ce 49       		.byte	0x49
 2041 07cf D7060000 		.4byte	0x6d7
 2042 07d3 0E       		.uleb128 0xe
 2043 07d4 C8070000 		.4byte	0x7c8
 2044 07d8 11       		.uleb128 0x11
 2045 07d9 16080000 		.4byte	.LASF134
 2046 07dd 0E       		.byte	0xe
 2047 07de 6E       		.byte	0x6e
 2048 07df D3070000 		.4byte	0x7d3
 2049 07e3 03       		.uleb128 0x3
 2050 07e4 35070000 		.4byte	.LASF135
 2051 07e8 0D       		.byte	0xd
 2052 07e9 34       		.byte	0x34
 2053 07ea 62060000 		.4byte	0x662
 2054 07ee 09       		.uleb128 0x9
 2055 07ef 04       		.byte	0x4
 2056 07f0 E3070000 		.4byte	0x7e3
 2057 07f4 04       		.uleb128 0x4
 2058 07f5 01       		.byte	0x1
 2059 07f6 02       		.byte	0x2
 2060 07f7 E6020000 		.4byte	.LASF136
 2061 07fb 03       		.uleb128 0x3
 2062 07fc 9E060000 		.4byte	.LASF137
 2063 0800 10       		.byte	0x10
 2064 0801 34       		.byte	0x34
 2065 0802 06080000 		.4byte	0x806
 2066 0806 09       		.uleb128 0x9
 2067 0807 04       		.byte	0x4
 2068 0808 0C080000 		.4byte	0x80c
 2069 080c 1B       		.uleb128 0x1b
 2070 080d 2F030000 		.4byte	0x32f
 2071 0811 1B080000 		.4byte	0x81b
 2072 0815 0C       		.uleb128 0xc
 2073 0816 2C000000 		.4byte	0x2c
 2074 081a 00       		.byte	0
 2075 081b 03       		.uleb128 0x3
 2076 081c 6F050000 		.4byte	.LASF138
 2077 0820 11       		.byte	0x11
 2078 0821 3C       		.byte	0x3c
 2079 0822 26080000 		.4byte	0x826
 2080 0826 05       		.uleb128 0x5
 2081 0827 06060000 		.4byte	.LASF139
 2082 082b 20       		.byte	0x20
 2083 082c 11       		.byte	0x11
 2084 082d 4F       		.byte	0x4f
 2085 082e 57080000 		.4byte	0x857
 2086 0832 06       		.uleb128 0x6
 2087 0833 F5030000 		.4byte	.LASF140
 2088 0837 11       		.byte	0x11
 2089 0838 50       		.byte	0x50
 2090 0839 FB070000 		.4byte	0x7fb
ARM GAS  /tmp/ccvIBBGd.s 			page 38


 2091 083d 00       		.byte	0
 2092 083e 06       		.uleb128 0x6
 2093 083f 95010000 		.4byte	.LASF141
 2094 0843 11       		.byte	0x11
 2095 0844 52       		.byte	0x52
 2096 0845 76080000 		.4byte	0x876
 2097 0849 08       		.byte	0x8
 2098 084a 06       		.uleb128 0x6
 2099 084b C5040000 		.4byte	.LASF142
 2100 084f 11       		.byte	0x11
 2101 0850 54       		.byte	0x54
 2102 0851 E3070000 		.4byte	0x7e3
 2103 0855 10       		.byte	0x10
 2104 0856 00       		.byte	0
 2105 0857 17       		.uleb128 0x17
 2106 0858 04       		.byte	0x4
 2107 0859 11       		.byte	0x11
 2108 085a 44       		.byte	0x44
 2109 085b 76080000 		.4byte	0x876
 2110 085f 1C       		.uleb128 0x1c
 2111 0860 D0000000 		.4byte	.LASF143
 2112 0864 11       		.byte	0x11
 2113 0865 45       		.byte	0x45
 2114 0866 97080000 		.4byte	0x897
 2115 086a 1C       		.uleb128 0x1c
 2116 086b 0B010000 		.4byte	.LASF144
 2117 086f 11       		.byte	0x11
 2118 0870 46       		.byte	0x46
 2119 0871 9D080000 		.4byte	0x89d
 2120 0875 00       		.byte	0
 2121 0876 1D       		.uleb128 0x1d
 2122 0877 AF020000 		.4byte	.LASF158
 2123 087b 08       		.byte	0x8
 2124 087c 11       		.byte	0x11
 2125 087d 41       		.byte	0x41
 2126 087e 97080000 		.4byte	0x897
 2127 0882 1C       		.uleb128 0x1c
 2128 0883 57080000 		.4byte	.LASF145
 2129 0887 11       		.byte	0x11
 2130 0888 42       		.byte	0x42
 2131 0889 A5040000 		.4byte	0x4a5
 2132 088d 1E       		.uleb128 0x1e
 2133 088e 6800     		.ascii	"h\000"
 2134 0890 11       		.byte	0x11
 2135 0891 49       		.byte	0x49
 2136 0892 A3080000 		.4byte	0x8a3
 2137 0896 00       		.byte	0
 2138 0897 09       		.uleb128 0x9
 2139 0898 04       		.byte	0x4
 2140 0899 76080000 		.4byte	0x876
 2141 089d 09       		.uleb128 0x9
 2142 089e 04       		.byte	0x4
 2143 089f 1B080000 		.4byte	0x81b
 2144 08a3 13       		.uleb128 0x13
 2145 08a4 08       		.byte	0x8
 2146 08a5 11       		.byte	0x11
 2147 08a6 43       		.byte	0x43
ARM GAS  /tmp/ccvIBBGd.s 			page 39


 2148 08a7 C2080000 		.4byte	0x8c2
 2149 08ab 12       		.uleb128 0x12
 2150 08ac 7500     		.ascii	"u\000"
 2151 08ae 11       		.byte	0x11
 2152 08af 47       		.byte	0x47
 2153 08b0 57080000 		.4byte	0x857
 2154 08b4 00       		.byte	0
 2155 08b5 06       		.uleb128 0x6
 2156 08b6 5B050000 		.4byte	.LASF146
 2157 08ba 11       		.byte	0x11
 2158 08bb 48       		.byte	0x48
 2159 08bc 2C000000 		.4byte	0x2c
 2160 08c0 04       		.byte	0x4
 2161 08c1 00       		.byte	0
 2162 08c2 05       		.uleb128 0x5
 2163 08c3 8C070000 		.4byte	.LASF147
 2164 08c7 04       		.byte	0x4
 2165 08c8 12       		.byte	0x12
 2166 08c9 38       		.byte	0x38
 2167 08ca DB080000 		.4byte	0x8db
 2168 08ce 06       		.uleb128 0x6
 2169 08cf 2A020000 		.4byte	.LASF148
 2170 08d3 12       		.byte	0x12
 2171 08d4 39       		.byte	0x39
 2172 08d5 DB080000 		.4byte	0x8db
 2173 08d9 00       		.byte	0
 2174 08da 00       		.byte	0
 2175 08db 09       		.uleb128 0x9
 2176 08dc 04       		.byte	0x4
 2177 08dd C2080000 		.4byte	0x8c2
 2178 08e1 13       		.uleb128 0x13
 2179 08e2 0C       		.byte	0xc
 2180 08e3 12       		.byte	0x12
 2181 08e4 40       		.byte	0x40
 2182 08e5 0E090000 		.4byte	0x90e
 2183 08e9 06       		.uleb128 0x6
 2184 08ea 99040000 		.4byte	.LASF149
 2185 08ee 12       		.byte	0x12
 2186 08ef 41       		.byte	0x41
 2187 08f0 DB080000 		.4byte	0x8db
 2188 08f4 00       		.byte	0
 2189 08f5 06       		.uleb128 0x6
 2190 08f6 7D050000 		.4byte	.LASF150
 2191 08fa 12       		.byte	0x12
 2192 08fb 42       		.byte	0x42
 2193 08fc 2C000000 		.4byte	0x2c
 2194 0900 04       		.byte	0x4
 2195 0901 06       		.uleb128 0x6
 2196 0902 66080000 		.4byte	.LASF151
 2197 0906 12       		.byte	0x12
 2198 0907 44       		.byte	0x44
 2199 0908 FB070000 		.4byte	0x7fb
 2200 090c 08       		.byte	0x8
 2201 090d 00       		.byte	0
 2202 090e 03       		.uleb128 0x3
 2203 090f 53000000 		.4byte	.LASF152
 2204 0913 12       		.byte	0x12
ARM GAS  /tmp/ccvIBBGd.s 			page 40


 2205 0914 46       		.byte	0x46
 2206 0915 E1080000 		.4byte	0x8e1
 2207 0919 05       		.uleb128 0x5
 2208 091a 54020000 		.4byte	.LASF153
 2209 091e 10       		.byte	0x10
 2210 091f 13       		.byte	0x13
 2211 0920 3B       		.byte	0x3b
 2212 0921 56090000 		.4byte	0x956
 2213 0925 06       		.uleb128 0x6
 2214 0926 AB060000 		.4byte	.LASF154
 2215 092a 13       		.byte	0x13
 2216 092b 3C       		.byte	0x3c
 2217 092c 99060000 		.4byte	0x699
 2218 0930 00       		.byte	0
 2219 0931 06       		.uleb128 0x6
 2220 0932 4B070000 		.4byte	.LASF155
 2221 0936 13       		.byte	0x13
 2222 0937 3D       		.byte	0x3d
 2223 0938 5C090000 		.4byte	0x95c
 2224 093c 04       		.byte	0x4
 2225 093d 06       		.uleb128 0x6
 2226 093e 0E050000 		.4byte	.LASF156
 2227 0942 13       		.byte	0x13
 2228 0943 3E       		.byte	0x3e
 2229 0944 5C090000 		.4byte	0x95c
 2230 0948 08       		.byte	0x8
 2231 0949 06       		.uleb128 0x6
 2232 094a BD040000 		.4byte	.LASF157
 2233 094e 13       		.byte	0x13
 2234 094f 3F       		.byte	0x3f
 2235 0950 5C090000 		.4byte	0x95c
 2236 0954 0C       		.byte	0xc
 2237 0955 00       		.byte	0
 2238 0956 0E       		.uleb128 0xe
 2239 0957 19090000 		.4byte	0x919
 2240 095b 1F       		.uleb128 0x1f
 2241 095c 09       		.uleb128 0x9
 2242 095d 04       		.byte	0x4
 2243 095e 5B090000 		.4byte	0x95b
 2244 0962 14       		.uleb128 0x14
 2245 0963 9006     		.2byte	0x690
 2246 0965 13       		.byte	0x13
 2247 0966 44       		.byte	0x44
 2248 0967 A7090000 		.4byte	0x9a7
 2249 096b 12       		.uleb128 0x12
 2250 096c 543000   		.ascii	"T0\000"
 2251 096f 13       		.byte	0x13
 2252 0970 45       		.byte	0x45
 2253 0971 A7090000 		.4byte	0x9a7
 2254 0975 00       		.byte	0
 2255 0976 20       		.uleb128 0x20
 2256 0977 543100   		.ascii	"T1\000"
 2257 097a 13       		.byte	0x13
 2258 097b 46       		.byte	0x46
 2259 097c A7090000 		.4byte	0x9a7
 2260 0980 5001     		.2byte	0x150
 2261 0982 20       		.uleb128 0x20
ARM GAS  /tmp/ccvIBBGd.s 			page 41


 2262 0983 543200   		.ascii	"T2\000"
 2263 0986 13       		.byte	0x13
 2264 0987 47       		.byte	0x47
 2265 0988 A7090000 		.4byte	0x9a7
 2266 098c A002     		.2byte	0x2a0
 2267 098e 20       		.uleb128 0x20
 2268 098f 543300   		.ascii	"T3\000"
 2269 0992 13       		.byte	0x13
 2270 0993 48       		.byte	0x48
 2271 0994 A7090000 		.4byte	0x9a7
 2272 0998 F003     		.2byte	0x3f0
 2273 099a 20       		.uleb128 0x20
 2274 099b 543400   		.ascii	"T4\000"
 2275 099e 13       		.byte	0x13
 2276 099f 49       		.byte	0x49
 2277 09a0 A7090000 		.4byte	0x9a7
 2278 09a4 4005     		.2byte	0x540
 2279 09a6 00       		.byte	0
 2280 09a7 15       		.uleb128 0x15
 2281 09a8 A5040000 		.4byte	0x4a5
 2282 09ac B7090000 		.4byte	0x9b7
 2283 09b0 16       		.uleb128 0x16
 2284 09b1 88040000 		.4byte	0x488
 2285 09b5 29       		.byte	0x29
 2286 09b6 00       		.byte	0
 2287 09b7 21       		.uleb128 0x21
 2288 09b8 7F070000 		.4byte	.LASF159
 2289 09bc 9006     		.2byte	0x690
 2290 09be 13       		.byte	0x13
 2291 09bf 43       		.byte	0x43
 2292 09c0 DA090000 		.4byte	0x9da
 2293 09c4 1E       		.uleb128 0x1e
 2294 09c5 776100   		.ascii	"wa\000"
 2295 09c8 13       		.byte	0x13
 2296 09c9 4A       		.byte	0x4a
 2297 09ca 62090000 		.4byte	0x962
 2298 09ce 1C       		.uleb128 0x1c
 2299 09cf 94000000 		.4byte	.LASF160
 2300 09d3 13       		.byte	0x13
 2301 09d4 4B       		.byte	0x4b
 2302 09d5 DA090000 		.4byte	0x9da
 2303 09d9 00       		.byte	0
 2304 09da 15       		.uleb128 0x15
 2305 09db B4000000 		.4byte	0xb4
 2306 09df EB090000 		.4byte	0x9eb
 2307 09e3 22       		.uleb128 0x22
 2308 09e4 88040000 		.4byte	0x488
 2309 09e8 8F06     		.2byte	0x68f
 2310 09ea 00       		.byte	0
 2311 09eb 11       		.uleb128 0x11
 2312 09ec 32020000 		.4byte	.LASF161
 2313 09f0 13       		.byte	0x13
 2314 09f1 4F       		.byte	0x4f
 2315 09f2 F4070000 		.4byte	0x7f4
 2316 09f6 15       		.uleb128 0x15
 2317 09f7 52020000 		.4byte	0x252
 2318 09fb 060A0000 		.4byte	0xa06
ARM GAS  /tmp/ccvIBBGd.s 			page 42


 2319 09ff 16       		.uleb128 0x16
 2320 0a00 88040000 		.4byte	0x488
 2321 0a04 04       		.byte	0x4
 2322 0a05 00       		.byte	0
 2323 0a06 11       		.uleb128 0x11
 2324 0a07 02070000 		.4byte	.LASF162
 2325 0a0b 13       		.byte	0x13
 2326 0a0c A7       		.byte	0xa7
 2327 0a0d F6090000 		.4byte	0x9f6
 2328 0a11 11       		.uleb128 0x11
 2329 0a12 10010000 		.4byte	.LASF163
 2330 0a16 13       		.byte	0x13
 2331 0a17 A8       		.byte	0xa8
 2332 0a18 B7090000 		.4byte	0x9b7
 2333 0a1c 15       		.uleb128 0x15
 2334 0a1d 31030000 		.4byte	0x331
 2335 0a21 270A0000 		.4byte	0xa27
 2336 0a25 23       		.uleb128 0x23
 2337 0a26 00       		.byte	0
 2338 0a27 0E       		.uleb128 0xe
 2339 0a28 1C0A0000 		.4byte	0xa1c
 2340 0a2c 24       		.uleb128 0x24
 2341 0a2d 776100   		.ascii	"wa\000"
 2342 0a30 13       		.byte	0x13
 2343 0a31 A9       		.byte	0xa9
 2344 0a32 270A0000 		.4byte	0xa27
 2345 0a36 11       		.uleb128 0x11
 2346 0a37 2F080000 		.4byte	.LASF164
 2347 0a3b 13       		.byte	0x13
 2348 0a3c AA       		.byte	0xaa
 2349 0a3d F4070000 		.4byte	0x7f4
 2350 0a41 25       		.uleb128 0x25
 2351 0a42 79070000 		.4byte	.LASF165
 2352 0a46 02       		.byte	0x2
 2353 0a47 36       		.byte	0x36
 2354 0a48 1B080000 		.4byte	0x81b
 2355 0a4c 05       		.uleb128 0x5
 2356 0a4d 03       		.byte	0x3
 2357 0a4e 00000000 		.4byte	heap1
 2358 0a52 26       		.uleb128 0x26
 2359 0a53 6D703100 		.ascii	"mp1\000"
 2360 0a57 02       		.byte	0x2
 2361 0a58 39       		.byte	0x39
 2362 0a59 0E090000 		.4byte	0x90e
 2363 0a5d 05       		.uleb128 0x5
 2364 0a5e 03       		.byte	0x3
 2365 0a5f 00000000 		.4byte	mp1
 2366 0a63 27       		.uleb128 0x27
 2367 0a64 00000000 		.4byte	.LASF166
 2368 0a68 02       		.byte	0x2
 2369 0a69 77       		.byte	0x77
 2370 0a6a 56090000 		.4byte	0x956
 2371 0a6e 05       		.uleb128 0x5
 2372 0a6f 03       		.byte	0x3
 2373 0a70 00000000 		.4byte	testdyn1
 2374 0a74 27       		.uleb128 0x27
 2375 0a75 81000000 		.4byte	.LASF167
ARM GAS  /tmp/ccvIBBGd.s 			page 43


 2376 0a79 02       		.byte	0x2
 2377 0a7a AF       		.byte	0xaf
 2378 0a7b 56090000 		.4byte	0x956
 2379 0a7f 05       		.uleb128 0x5
 2380 0a80 03       		.byte	0x3
 2381 0a81 00000000 		.4byte	testdyn2
 2382 0a85 27       		.uleb128 0x27
 2383 0a86 19000000 		.4byte	.LASF168
 2384 0a8a 02       		.byte	0x2
 2385 0a8b EF       		.byte	0xef
 2386 0a8c 56090000 		.4byte	0x956
 2387 0a90 05       		.uleb128 0x5
 2388 0a91 03       		.byte	0x3
 2389 0a92 00000000 		.4byte	testdyn3
 2390 0a96 15       		.uleb128 0x15
 2391 0a97 B10A0000 		.4byte	0xab1
 2392 0a9b A60A0000 		.4byte	0xaa6
 2393 0a9f 16       		.uleb128 0x16
 2394 0aa0 88040000 		.4byte	0x488
 2395 0aa4 03       		.byte	0x3
 2396 0aa5 00       		.byte	0
 2397 0aa6 0E       		.uleb128 0xe
 2398 0aa7 960A0000 		.4byte	0xa96
 2399 0aab 09       		.uleb128 0x9
 2400 0aac 04       		.byte	0x4
 2401 0aad 56090000 		.4byte	0x956
 2402 0ab1 0E       		.uleb128 0xe
 2403 0ab2 AB0A0000 		.4byte	0xaab
 2404 0ab6 27       		.uleb128 0x27
 2405 0ab7 76000000 		.4byte	.LASF169
 2406 0abb 02       		.byte	0x2
 2407 0abc FB       		.byte	0xfb
 2408 0abd A60A0000 		.4byte	0xaa6
 2409 0ac1 05       		.uleb128 0x5
 2410 0ac2 03       		.byte	0x3
 2411 0ac3 00000000 		.4byte	patterndyn
 2412 0ac7 28       		.uleb128 0x28
 2413 0ac8 17050000 		.4byte	.LASF172
 2414 0acc 02       		.byte	0x2
 2415 0acd D1       		.byte	0xd1
 2416 0ace 00000000 		.4byte	.LFB159
 2417 0ad2 BC010000 		.4byte	.LFE159-.LFB159
 2418 0ad6 01       		.uleb128 0x1
 2419 0ad7 9C       		.byte	0x9c
 2420 0ad8 F80A0000 		.4byte	0xaf8
 2421 0adc 26       		.uleb128 0x26
 2422 0add 747000   		.ascii	"tp\000"
 2423 0ae0 02       		.byte	0x2
 2424 0ae1 D2       		.byte	0xd2
 2425 0ae2 52020000 		.4byte	0x252
 2426 0ae6 02       		.uleb128 0x2
 2427 0ae7 91       		.byte	0x91
 2428 0ae8 70       		.sleb128 -16
 2429 0ae9 25       		.uleb128 0x25
 2430 0aea F0030000 		.4byte	.LASF170
 2431 0aee 02       		.byte	0x2
 2432 0aef D3       		.byte	0xd3
ARM GAS  /tmp/ccvIBBGd.s 			page 44


 2433 0af0 0C010000 		.4byte	0x10c
 2434 0af4 02       		.uleb128 0x2
 2435 0af5 91       		.byte	0x91
 2436 0af6 74       		.sleb128 -12
 2437 0af7 00       		.byte	0
 2438 0af8 29       		.uleb128 0x29
 2439 0af9 2C050000 		.4byte	.LASF174
 2440 0afd 02       		.byte	0x2
 2441 0afe CC       		.byte	0xcc
 2442 0aff 00000000 		.4byte	.LFB158
 2443 0b03 1C000000 		.4byte	.LFE158-.LFB158
 2444 0b07 01       		.uleb128 0x1
 2445 0b08 9C       		.byte	0x9c
 2446 0b09 2A       		.uleb128 0x2a
 2447 0b0a D5000000 		.4byte	.LASF184
 2448 0b0e 02       		.byte	0x2
 2449 0b0f C0       		.byte	0xc0
 2450 0b10 F4070000 		.4byte	0x7f4
 2451 0b14 00000000 		.4byte	.LFB157
 2452 0b18 52000000 		.4byte	.LFE157-.LFB157
 2453 0b1c 01       		.uleb128 0x1
 2454 0b1d 9C       		.byte	0x9c
 2455 0b1e 4C0B0000 		.4byte	0xb4c
 2456 0b22 2B       		.uleb128 0x2b
 2457 0b23 747000   		.ascii	"tp\000"
 2458 0b26 02       		.byte	0x2
 2459 0b27 C0       		.byte	0xc0
 2460 0b28 52020000 		.4byte	0x252
 2461 0b2c 02       		.uleb128 0x2
 2462 0b2d 91       		.byte	0x91
 2463 0b2e 6C       		.sleb128 -20
 2464 0b2f 26       		.uleb128 0x26
 2465 0b30 66747000 		.ascii	"ftp\000"
 2466 0b34 02       		.byte	0x2
 2467 0b35 C1       		.byte	0xc1
 2468 0b36 52020000 		.4byte	0x252
 2469 0b3a 02       		.uleb128 0x2
 2470 0b3b 91       		.byte	0x91
 2471 0b3c 74       		.sleb128 -12
 2472 0b3d 25       		.uleb128 0x25
 2473 0b3e 79010000 		.4byte	.LASF171
 2474 0b42 02       		.byte	0x2
 2475 0b43 C2       		.byte	0xc2
 2476 0b44 F4070000 		.4byte	0x7f4
 2477 0b48 02       		.uleb128 0x2
 2478 0b49 91       		.byte	0x91
 2479 0b4a 73       		.sleb128 -13
 2480 0b4b 00       		.byte	0
 2481 0b4c 28       		.uleb128 0x28
 2482 0b4d FC010000 		.4byte	.LASF173
 2483 0b51 02       		.byte	0x2
 2484 0b52 8F       		.byte	0x8f
 2485 0b53 00000000 		.4byte	.LFB156
 2486 0b57 68010000 		.4byte	.LFE156-.LFB156
 2487 0b5b 01       		.uleb128 0x1
 2488 0b5c 9C       		.byte	0x9c
 2489 0b5d 7C0B0000 		.4byte	0xb7c
ARM GAS  /tmp/ccvIBBGd.s 			page 45


 2490 0b61 26       		.uleb128 0x26
 2491 0b62 6900     		.ascii	"i\000"
 2492 0b64 02       		.byte	0x2
 2493 0b65 90       		.byte	0x90
 2494 0b66 25000000 		.4byte	0x25
 2495 0b6a 02       		.uleb128 0x2
 2496 0b6b 91       		.byte	0x91
 2497 0b6c 74       		.sleb128 -12
 2498 0b6d 25       		.uleb128 0x25
 2499 0b6e F0030000 		.4byte	.LASF170
 2500 0b72 02       		.byte	0x2
 2501 0b73 91       		.byte	0x91
 2502 0b74 0C010000 		.4byte	0x10c
 2503 0b78 02       		.uleb128 0x2
 2504 0b79 91       		.byte	0x91
 2505 0b7a 70       		.sleb128 -16
 2506 0b7b 00       		.byte	0
 2507 0b7c 29       		.uleb128 0x29
 2508 0b7d 4C080000 		.4byte	.LASF175
 2509 0b81 02       		.byte	0x2
 2510 0b82 8A       		.byte	0x8a
 2511 0b83 00000000 		.4byte	.LFB155
 2512 0b87 18000000 		.4byte	.LFE155-.LFB155
 2513 0b8b 01       		.uleb128 0x1
 2514 0b8c 9C       		.byte	0x9c
 2515 0b8d 28       		.uleb128 0x28
 2516 0b8e 3F080000 		.4byte	.LASF176
 2517 0b92 02       		.byte	0x2
 2518 0b93 52       		.byte	0x52
 2519 0b94 00000000 		.4byte	.LFB154
 2520 0b98 48010000 		.4byte	.LFE154-.LFB154
 2521 0b9c 01       		.uleb128 0x1
 2522 0b9d 9C       		.byte	0x9c
 2523 0b9e D70B0000 		.4byte	0xbd7
 2524 0ba2 26       		.uleb128 0x26
 2525 0ba3 6E00     		.ascii	"n\000"
 2526 0ba5 02       		.byte	0x2
 2527 0ba6 53       		.byte	0x53
 2528 0ba7 2C000000 		.4byte	0x2c
 2529 0bab 02       		.uleb128 0x2
 2530 0bac 91       		.byte	0x91
 2531 0bad 6C       		.sleb128 -20
 2532 0bae 26       		.uleb128 0x26
 2533 0baf 737A00   		.ascii	"sz\000"
 2534 0bb2 02       		.byte	0x2
 2535 0bb3 53       		.byte	0x53
 2536 0bb4 2C000000 		.4byte	0x2c
 2537 0bb8 02       		.uleb128 0x2
 2538 0bb9 91       		.byte	0x91
 2539 0bba 68       		.sleb128 -24
 2540 0bbb 26       		.uleb128 0x26
 2541 0bbc 703100   		.ascii	"p1\000"
 2542 0bbf 02       		.byte	0x2
 2543 0bc0 54       		.byte	0x54
 2544 0bc1 2F030000 		.4byte	0x32f
 2545 0bc5 02       		.uleb128 0x2
 2546 0bc6 91       		.byte	0x91
ARM GAS  /tmp/ccvIBBGd.s 			page 46


 2547 0bc7 70       		.sleb128 -16
 2548 0bc8 25       		.uleb128 0x25
 2549 0bc9 F0030000 		.4byte	.LASF170
 2550 0bcd 02       		.byte	0x2
 2551 0bce 55       		.byte	0x55
 2552 0bcf 0C010000 		.4byte	0x10c
 2553 0bd3 02       		.uleb128 0x2
 2554 0bd4 91       		.byte	0x91
 2555 0bd5 74       		.sleb128 -12
 2556 0bd6 00       		.byte	0
 2557 0bd7 29       		.uleb128 0x29
 2558 0bd8 E0010000 		.4byte	.LASF177
 2559 0bdc 02       		.byte	0x2
 2560 0bdd 4D       		.byte	0x4d
 2561 0bde 00000000 		.4byte	.LFB153
 2562 0be2 1C000000 		.4byte	.LFE153-.LFB153
 2563 0be6 01       		.uleb128 0x1
 2564 0be7 9C       		.byte	0x9c
 2565 0be8 28       		.uleb128 0x28
 2566 0be9 D6050000 		.4byte	.LASF178
 2567 0bed 02       		.byte	0x2
 2568 0bee 47       		.byte	0x47
 2569 0bef 00000000 		.4byte	.LFB152
 2570 0bf3 16000000 		.4byte	.LFE152-.LFB152
 2571 0bf7 01       		.uleb128 0x1
 2572 0bf8 9C       		.byte	0x9c
 2573 0bf9 0A0C0000 		.4byte	0xc0a
 2574 0bfd 2B       		.uleb128 0x2b
 2575 0bfe 7000     		.ascii	"p\000"
 2576 0c00 02       		.byte	0x2
 2577 0c01 47       		.byte	0x47
 2578 0c02 2F030000 		.4byte	0x32f
 2579 0c06 02       		.uleb128 0x2
 2580 0c07 91       		.byte	0x91
 2581 0c08 74       		.sleb128 -12
 2582 0c09 00       		.byte	0
 2583 0c0a 2C       		.uleb128 0x2c
 2584 0c0b 44060000 		.4byte	.LASF179
 2585 0c0f 01       		.byte	0x1
 2586 0c10 BB       		.byte	0xbb
 2587 0c11 0C010000 		.4byte	0x10c
 2588 0c15 00000000 		.4byte	.LFB100
 2589 0c19 0E000000 		.4byte	.LFE100-.LFB100
 2590 0c1d 01       		.uleb128 0x1
 2591 0c1e 9C       		.byte	0x9c
 2592 0c1f 2D       		.uleb128 0x2d
 2593 0c20 08080000 		.4byte	.LASF180
 2594 0c24 01       		.byte	0x1
 2595 0c25 AE       		.byte	0xae
 2596 0c26 52020000 		.4byte	0x252
 2597 0c2a 00000000 		.4byte	.LFB99
 2598 0c2e 0C000000 		.4byte	.LFE99-.LFB99
 2599 0c32 01       		.uleb128 0x1
 2600 0c33 9C       		.byte	0x9c
 2601 0c34 00       		.byte	0
 2602              		.section	.debug_abbrev,"",%progbits
 2603              	.Ldebug_abbrev0:
ARM GAS  /tmp/ccvIBBGd.s 			page 47


 2604 0000 01       		.uleb128 0x1
 2605 0001 11       		.uleb128 0x11
 2606 0002 01       		.byte	0x1
 2607 0003 25       		.uleb128 0x25
 2608 0004 0E       		.uleb128 0xe
 2609 0005 13       		.uleb128 0x13
 2610 0006 0B       		.uleb128 0xb
 2611 0007 03       		.uleb128 0x3
 2612 0008 0E       		.uleb128 0xe
 2613 0009 1B       		.uleb128 0x1b
 2614 000a 0E       		.uleb128 0xe
 2615 000b 55       		.uleb128 0x55
 2616 000c 17       		.uleb128 0x17
 2617 000d 11       		.uleb128 0x11
 2618 000e 01       		.uleb128 0x1
 2619 000f 10       		.uleb128 0x10
 2620 0010 17       		.uleb128 0x17
 2621 0011 00       		.byte	0
 2622 0012 00       		.byte	0
 2623 0013 02       		.uleb128 0x2
 2624 0014 24       		.uleb128 0x24
 2625 0015 00       		.byte	0
 2626 0016 0B       		.uleb128 0xb
 2627 0017 0B       		.uleb128 0xb
 2628 0018 3E       		.uleb128 0x3e
 2629 0019 0B       		.uleb128 0xb
 2630 001a 03       		.uleb128 0x3
 2631 001b 08       		.uleb128 0x8
 2632 001c 00       		.byte	0
 2633 001d 00       		.byte	0
 2634 001e 03       		.uleb128 0x3
 2635 001f 16       		.uleb128 0x16
 2636 0020 00       		.byte	0
 2637 0021 03       		.uleb128 0x3
 2638 0022 0E       		.uleb128 0xe
 2639 0023 3A       		.uleb128 0x3a
 2640 0024 0B       		.uleb128 0xb
 2641 0025 3B       		.uleb128 0x3b
 2642 0026 0B       		.uleb128 0xb
 2643 0027 49       		.uleb128 0x49
 2644 0028 13       		.uleb128 0x13
 2645 0029 00       		.byte	0
 2646 002a 00       		.byte	0
 2647 002b 04       		.uleb128 0x4
 2648 002c 24       		.uleb128 0x24
 2649 002d 00       		.byte	0
 2650 002e 0B       		.uleb128 0xb
 2651 002f 0B       		.uleb128 0xb
 2652 0030 3E       		.uleb128 0x3e
 2653 0031 0B       		.uleb128 0xb
 2654 0032 03       		.uleb128 0x3
 2655 0033 0E       		.uleb128 0xe
 2656 0034 00       		.byte	0
 2657 0035 00       		.byte	0
 2658 0036 05       		.uleb128 0x5
 2659 0037 13       		.uleb128 0x13
 2660 0038 01       		.byte	0x1
ARM GAS  /tmp/ccvIBBGd.s 			page 48


 2661 0039 03       		.uleb128 0x3
 2662 003a 0E       		.uleb128 0xe
 2663 003b 0B       		.uleb128 0xb
 2664 003c 0B       		.uleb128 0xb
 2665 003d 3A       		.uleb128 0x3a
 2666 003e 0B       		.uleb128 0xb
 2667 003f 3B       		.uleb128 0x3b
 2668 0040 0B       		.uleb128 0xb
 2669 0041 01       		.uleb128 0x1
 2670 0042 13       		.uleb128 0x13
 2671 0043 00       		.byte	0
 2672 0044 00       		.byte	0
 2673 0045 06       		.uleb128 0x6
 2674 0046 0D       		.uleb128 0xd
 2675 0047 00       		.byte	0
 2676 0048 03       		.uleb128 0x3
 2677 0049 0E       		.uleb128 0xe
 2678 004a 3A       		.uleb128 0x3a
 2679 004b 0B       		.uleb128 0xb
 2680 004c 3B       		.uleb128 0x3b
 2681 004d 0B       		.uleb128 0xb
 2682 004e 49       		.uleb128 0x49
 2683 004f 13       		.uleb128 0x13
 2684 0050 38       		.uleb128 0x38
 2685 0051 0B       		.uleb128 0xb
 2686 0052 00       		.byte	0
 2687 0053 00       		.byte	0
 2688 0054 07       		.uleb128 0x7
 2689 0055 0D       		.uleb128 0xd
 2690 0056 00       		.byte	0
 2691 0057 03       		.uleb128 0x3
 2692 0058 08       		.uleb128 0x8
 2693 0059 3A       		.uleb128 0x3a
 2694 005a 0B       		.uleb128 0xb
 2695 005b 3B       		.uleb128 0x3b
 2696 005c 05       		.uleb128 0x5
 2697 005d 49       		.uleb128 0x49
 2698 005e 13       		.uleb128 0x13
 2699 005f 38       		.uleb128 0x38
 2700 0060 0B       		.uleb128 0xb
 2701 0061 00       		.byte	0
 2702 0062 00       		.byte	0
 2703 0063 08       		.uleb128 0x8
 2704 0064 0D       		.uleb128 0xd
 2705 0065 00       		.byte	0
 2706 0066 03       		.uleb128 0x3
 2707 0067 0E       		.uleb128 0xe
 2708 0068 3A       		.uleb128 0x3a
 2709 0069 0B       		.uleb128 0xb
 2710 006a 3B       		.uleb128 0x3b
 2711 006b 05       		.uleb128 0x5
 2712 006c 49       		.uleb128 0x49
 2713 006d 13       		.uleb128 0x13
 2714 006e 38       		.uleb128 0x38
 2715 006f 0B       		.uleb128 0xb
 2716 0070 00       		.byte	0
 2717 0071 00       		.byte	0
ARM GAS  /tmp/ccvIBBGd.s 			page 49


 2718 0072 09       		.uleb128 0x9
 2719 0073 0F       		.uleb128 0xf
 2720 0074 00       		.byte	0
 2721 0075 0B       		.uleb128 0xb
 2722 0076 0B       		.uleb128 0xb
 2723 0077 49       		.uleb128 0x49
 2724 0078 13       		.uleb128 0x13
 2725 0079 00       		.byte	0
 2726 007a 00       		.byte	0
 2727 007b 0A       		.uleb128 0xa
 2728 007c 13       		.uleb128 0x13
 2729 007d 01       		.byte	0x1
 2730 007e 03       		.uleb128 0x3
 2731 007f 0E       		.uleb128 0xe
 2732 0080 0B       		.uleb128 0xb
 2733 0081 0B       		.uleb128 0xb
 2734 0082 3A       		.uleb128 0x3a
 2735 0083 0B       		.uleb128 0xb
 2736 0084 3B       		.uleb128 0x3b
 2737 0085 05       		.uleb128 0x5
 2738 0086 01       		.uleb128 0x1
 2739 0087 13       		.uleb128 0x13
 2740 0088 00       		.byte	0
 2741 0089 00       		.byte	0
 2742 008a 0B       		.uleb128 0xb
 2743 008b 15       		.uleb128 0x15
 2744 008c 01       		.byte	0x1
 2745 008d 27       		.uleb128 0x27
 2746 008e 19       		.uleb128 0x19
 2747 008f 01       		.uleb128 0x1
 2748 0090 13       		.uleb128 0x13
 2749 0091 00       		.byte	0
 2750 0092 00       		.byte	0
 2751 0093 0C       		.uleb128 0xc
 2752 0094 05       		.uleb128 0x5
 2753 0095 00       		.byte	0
 2754 0096 49       		.uleb128 0x49
 2755 0097 13       		.uleb128 0x13
 2756 0098 00       		.byte	0
 2757 0099 00       		.byte	0
 2758 009a 0D       		.uleb128 0xd
 2759 009b 0F       		.uleb128 0xf
 2760 009c 00       		.byte	0
 2761 009d 0B       		.uleb128 0xb
 2762 009e 0B       		.uleb128 0xb
 2763 009f 00       		.byte	0
 2764 00a0 00       		.byte	0
 2765 00a1 0E       		.uleb128 0xe
 2766 00a2 26       		.uleb128 0x26
 2767 00a3 00       		.byte	0
 2768 00a4 49       		.uleb128 0x49
 2769 00a5 13       		.uleb128 0x13
 2770 00a6 00       		.byte	0
 2771 00a7 00       		.byte	0
 2772 00a8 0F       		.uleb128 0xf
 2773 00a9 13       		.uleb128 0x13
 2774 00aa 01       		.byte	0x1
ARM GAS  /tmp/ccvIBBGd.s 			page 50


 2775 00ab 03       		.uleb128 0x3
 2776 00ac 0E       		.uleb128 0xe
 2777 00ad 0B       		.uleb128 0xb
 2778 00ae 05       		.uleb128 0x5
 2779 00af 3A       		.uleb128 0x3a
 2780 00b0 0B       		.uleb128 0xb
 2781 00b1 3B       		.uleb128 0x3b
 2782 00b2 05       		.uleb128 0x5
 2783 00b3 01       		.uleb128 0x1
 2784 00b4 13       		.uleb128 0x13
 2785 00b5 00       		.byte	0
 2786 00b6 00       		.byte	0
 2787 00b7 10       		.uleb128 0x10
 2788 00b8 0D       		.uleb128 0xd
 2789 00b9 00       		.byte	0
 2790 00ba 03       		.uleb128 0x3
 2791 00bb 0E       		.uleb128 0xe
 2792 00bc 3A       		.uleb128 0x3a
 2793 00bd 0B       		.uleb128 0xb
 2794 00be 3B       		.uleb128 0x3b
 2795 00bf 05       		.uleb128 0x5
 2796 00c0 49       		.uleb128 0x49
 2797 00c1 13       		.uleb128 0x13
 2798 00c2 38       		.uleb128 0x38
 2799 00c3 05       		.uleb128 0x5
 2800 00c4 00       		.byte	0
 2801 00c5 00       		.byte	0
 2802 00c6 11       		.uleb128 0x11
 2803 00c7 34       		.uleb128 0x34
 2804 00c8 00       		.byte	0
 2805 00c9 03       		.uleb128 0x3
 2806 00ca 0E       		.uleb128 0xe
 2807 00cb 3A       		.uleb128 0x3a
 2808 00cc 0B       		.uleb128 0xb
 2809 00cd 3B       		.uleb128 0x3b
 2810 00ce 0B       		.uleb128 0xb
 2811 00cf 49       		.uleb128 0x49
 2812 00d0 13       		.uleb128 0x13
 2813 00d1 3F       		.uleb128 0x3f
 2814 00d2 19       		.uleb128 0x19
 2815 00d3 3C       		.uleb128 0x3c
 2816 00d4 19       		.uleb128 0x19
 2817 00d5 00       		.byte	0
 2818 00d6 00       		.byte	0
 2819 00d7 12       		.uleb128 0x12
 2820 00d8 0D       		.uleb128 0xd
 2821 00d9 00       		.byte	0
 2822 00da 03       		.uleb128 0x3
 2823 00db 08       		.uleb128 0x8
 2824 00dc 3A       		.uleb128 0x3a
 2825 00dd 0B       		.uleb128 0xb
 2826 00de 3B       		.uleb128 0x3b
 2827 00df 0B       		.uleb128 0xb
 2828 00e0 49       		.uleb128 0x49
 2829 00e1 13       		.uleb128 0x13
 2830 00e2 38       		.uleb128 0x38
 2831 00e3 0B       		.uleb128 0xb
ARM GAS  /tmp/ccvIBBGd.s 			page 51


 2832 00e4 00       		.byte	0
 2833 00e5 00       		.byte	0
 2834 00e6 13       		.uleb128 0x13
 2835 00e7 13       		.uleb128 0x13
 2836 00e8 01       		.byte	0x1
 2837 00e9 0B       		.uleb128 0xb
 2838 00ea 0B       		.uleb128 0xb
 2839 00eb 3A       		.uleb128 0x3a
 2840 00ec 0B       		.uleb128 0xb
 2841 00ed 3B       		.uleb128 0x3b
 2842 00ee 0B       		.uleb128 0xb
 2843 00ef 01       		.uleb128 0x1
 2844 00f0 13       		.uleb128 0x13
 2845 00f1 00       		.byte	0
 2846 00f2 00       		.byte	0
 2847 00f3 14       		.uleb128 0x14
 2848 00f4 13       		.uleb128 0x13
 2849 00f5 01       		.byte	0x1
 2850 00f6 0B       		.uleb128 0xb
 2851 00f7 05       		.uleb128 0x5
 2852 00f8 3A       		.uleb128 0x3a
 2853 00f9 0B       		.uleb128 0xb
 2854 00fa 3B       		.uleb128 0x3b
 2855 00fb 0B       		.uleb128 0xb
 2856 00fc 01       		.uleb128 0x1
 2857 00fd 13       		.uleb128 0x13
 2858 00fe 00       		.byte	0
 2859 00ff 00       		.byte	0
 2860 0100 15       		.uleb128 0x15
 2861 0101 01       		.uleb128 0x1
 2862 0102 01       		.byte	0x1
 2863 0103 49       		.uleb128 0x49
 2864 0104 13       		.uleb128 0x13
 2865 0105 01       		.uleb128 0x1
 2866 0106 13       		.uleb128 0x13
 2867 0107 00       		.byte	0
 2868 0108 00       		.byte	0
 2869 0109 16       		.uleb128 0x16
 2870 010a 21       		.uleb128 0x21
 2871 010b 00       		.byte	0
 2872 010c 49       		.uleb128 0x49
 2873 010d 13       		.uleb128 0x13
 2874 010e 2F       		.uleb128 0x2f
 2875 010f 0B       		.uleb128 0xb
 2876 0110 00       		.byte	0
 2877 0111 00       		.byte	0
 2878 0112 17       		.uleb128 0x17
 2879 0113 17       		.uleb128 0x17
 2880 0114 01       		.byte	0x1
 2881 0115 0B       		.uleb128 0xb
 2882 0116 0B       		.uleb128 0xb
 2883 0117 3A       		.uleb128 0x3a
 2884 0118 0B       		.uleb128 0xb
 2885 0119 3B       		.uleb128 0x3b
 2886 011a 0B       		.uleb128 0xb
 2887 011b 01       		.uleb128 0x1
 2888 011c 13       		.uleb128 0x13
ARM GAS  /tmp/ccvIBBGd.s 			page 52


 2889 011d 00       		.byte	0
 2890 011e 00       		.byte	0
 2891 011f 18       		.uleb128 0x18
 2892 0120 0D       		.uleb128 0xd
 2893 0121 00       		.byte	0
 2894 0122 03       		.uleb128 0x3
 2895 0123 0E       		.uleb128 0xe
 2896 0124 3A       		.uleb128 0x3a
 2897 0125 0B       		.uleb128 0xb
 2898 0126 3B       		.uleb128 0x3b
 2899 0127 05       		.uleb128 0x5
 2900 0128 49       		.uleb128 0x49
 2901 0129 13       		.uleb128 0x13
 2902 012a 00       		.byte	0
 2903 012b 00       		.byte	0
 2904 012c 19       		.uleb128 0x19
 2905 012d 35       		.uleb128 0x35
 2906 012e 00       		.byte	0
 2907 012f 49       		.uleb128 0x49
 2908 0130 13       		.uleb128 0x13
 2909 0131 00       		.byte	0
 2910 0132 00       		.byte	0
 2911 0133 1A       		.uleb128 0x1a
 2912 0134 34       		.uleb128 0x34
 2913 0135 00       		.byte	0
 2914 0136 03       		.uleb128 0x3
 2915 0137 08       		.uleb128 0x8
 2916 0138 3A       		.uleb128 0x3a
 2917 0139 0B       		.uleb128 0xb
 2918 013a 3B       		.uleb128 0x3b
 2919 013b 05       		.uleb128 0x5
 2920 013c 49       		.uleb128 0x49
 2921 013d 13       		.uleb128 0x13
 2922 013e 3F       		.uleb128 0x3f
 2923 013f 19       		.uleb128 0x19
 2924 0140 3C       		.uleb128 0x3c
 2925 0141 19       		.uleb128 0x19
 2926 0142 00       		.byte	0
 2927 0143 00       		.byte	0
 2928 0144 1B       		.uleb128 0x1b
 2929 0145 15       		.uleb128 0x15
 2930 0146 01       		.byte	0x1
 2931 0147 27       		.uleb128 0x27
 2932 0148 19       		.uleb128 0x19
 2933 0149 49       		.uleb128 0x49
 2934 014a 13       		.uleb128 0x13
 2935 014b 01       		.uleb128 0x1
 2936 014c 13       		.uleb128 0x13
 2937 014d 00       		.byte	0
 2938 014e 00       		.byte	0
 2939 014f 1C       		.uleb128 0x1c
 2940 0150 0D       		.uleb128 0xd
 2941 0151 00       		.byte	0
 2942 0152 03       		.uleb128 0x3
 2943 0153 0E       		.uleb128 0xe
 2944 0154 3A       		.uleb128 0x3a
 2945 0155 0B       		.uleb128 0xb
ARM GAS  /tmp/ccvIBBGd.s 			page 53


 2946 0156 3B       		.uleb128 0x3b
 2947 0157 0B       		.uleb128 0xb
 2948 0158 49       		.uleb128 0x49
 2949 0159 13       		.uleb128 0x13
 2950 015a 00       		.byte	0
 2951 015b 00       		.byte	0
 2952 015c 1D       		.uleb128 0x1d
 2953 015d 17       		.uleb128 0x17
 2954 015e 01       		.byte	0x1
 2955 015f 03       		.uleb128 0x3
 2956 0160 0E       		.uleb128 0xe
 2957 0161 0B       		.uleb128 0xb
 2958 0162 0B       		.uleb128 0xb
 2959 0163 3A       		.uleb128 0x3a
 2960 0164 0B       		.uleb128 0xb
 2961 0165 3B       		.uleb128 0x3b
 2962 0166 0B       		.uleb128 0xb
 2963 0167 01       		.uleb128 0x1
 2964 0168 13       		.uleb128 0x13
 2965 0169 00       		.byte	0
 2966 016a 00       		.byte	0
 2967 016b 1E       		.uleb128 0x1e
 2968 016c 0D       		.uleb128 0xd
 2969 016d 00       		.byte	0
 2970 016e 03       		.uleb128 0x3
 2971 016f 08       		.uleb128 0x8
 2972 0170 3A       		.uleb128 0x3a
 2973 0171 0B       		.uleb128 0xb
 2974 0172 3B       		.uleb128 0x3b
 2975 0173 0B       		.uleb128 0xb
 2976 0174 49       		.uleb128 0x49
 2977 0175 13       		.uleb128 0x13
 2978 0176 00       		.byte	0
 2979 0177 00       		.byte	0
 2980 0178 1F       		.uleb128 0x1f
 2981 0179 15       		.uleb128 0x15
 2982 017a 00       		.byte	0
 2983 017b 27       		.uleb128 0x27
 2984 017c 19       		.uleb128 0x19
 2985 017d 00       		.byte	0
 2986 017e 00       		.byte	0
 2987 017f 20       		.uleb128 0x20
 2988 0180 0D       		.uleb128 0xd
 2989 0181 00       		.byte	0
 2990 0182 03       		.uleb128 0x3
 2991 0183 08       		.uleb128 0x8
 2992 0184 3A       		.uleb128 0x3a
 2993 0185 0B       		.uleb128 0xb
 2994 0186 3B       		.uleb128 0x3b
 2995 0187 0B       		.uleb128 0xb
 2996 0188 49       		.uleb128 0x49
 2997 0189 13       		.uleb128 0x13
 2998 018a 38       		.uleb128 0x38
 2999 018b 05       		.uleb128 0x5
 3000 018c 00       		.byte	0
 3001 018d 00       		.byte	0
 3002 018e 21       		.uleb128 0x21
ARM GAS  /tmp/ccvIBBGd.s 			page 54


 3003 018f 17       		.uleb128 0x17
 3004 0190 01       		.byte	0x1
 3005 0191 03       		.uleb128 0x3
 3006 0192 0E       		.uleb128 0xe
 3007 0193 0B       		.uleb128 0xb
 3008 0194 05       		.uleb128 0x5
 3009 0195 3A       		.uleb128 0x3a
 3010 0196 0B       		.uleb128 0xb
 3011 0197 3B       		.uleb128 0x3b
 3012 0198 0B       		.uleb128 0xb
 3013 0199 01       		.uleb128 0x1
 3014 019a 13       		.uleb128 0x13
 3015 019b 00       		.byte	0
 3016 019c 00       		.byte	0
 3017 019d 22       		.uleb128 0x22
 3018 019e 21       		.uleb128 0x21
 3019 019f 00       		.byte	0
 3020 01a0 49       		.uleb128 0x49
 3021 01a1 13       		.uleb128 0x13
 3022 01a2 2F       		.uleb128 0x2f
 3023 01a3 05       		.uleb128 0x5
 3024 01a4 00       		.byte	0
 3025 01a5 00       		.byte	0
 3026 01a6 23       		.uleb128 0x23
 3027 01a7 21       		.uleb128 0x21
 3028 01a8 00       		.byte	0
 3029 01a9 00       		.byte	0
 3030 01aa 00       		.byte	0
 3031 01ab 24       		.uleb128 0x24
 3032 01ac 34       		.uleb128 0x34
 3033 01ad 00       		.byte	0
 3034 01ae 03       		.uleb128 0x3
 3035 01af 08       		.uleb128 0x8
 3036 01b0 3A       		.uleb128 0x3a
 3037 01b1 0B       		.uleb128 0xb
 3038 01b2 3B       		.uleb128 0x3b
 3039 01b3 0B       		.uleb128 0xb
 3040 01b4 49       		.uleb128 0x49
 3041 01b5 13       		.uleb128 0x13
 3042 01b6 3F       		.uleb128 0x3f
 3043 01b7 19       		.uleb128 0x19
 3044 01b8 3C       		.uleb128 0x3c
 3045 01b9 19       		.uleb128 0x19
 3046 01ba 00       		.byte	0
 3047 01bb 00       		.byte	0
 3048 01bc 25       		.uleb128 0x25
 3049 01bd 34       		.uleb128 0x34
 3050 01be 00       		.byte	0
 3051 01bf 03       		.uleb128 0x3
 3052 01c0 0E       		.uleb128 0xe
 3053 01c1 3A       		.uleb128 0x3a
 3054 01c2 0B       		.uleb128 0xb
 3055 01c3 3B       		.uleb128 0x3b
 3056 01c4 0B       		.uleb128 0xb
 3057 01c5 49       		.uleb128 0x49
 3058 01c6 13       		.uleb128 0x13
 3059 01c7 02       		.uleb128 0x2
ARM GAS  /tmp/ccvIBBGd.s 			page 55


 3060 01c8 18       		.uleb128 0x18
 3061 01c9 00       		.byte	0
 3062 01ca 00       		.byte	0
 3063 01cb 26       		.uleb128 0x26
 3064 01cc 34       		.uleb128 0x34
 3065 01cd 00       		.byte	0
 3066 01ce 03       		.uleb128 0x3
 3067 01cf 08       		.uleb128 0x8
 3068 01d0 3A       		.uleb128 0x3a
 3069 01d1 0B       		.uleb128 0xb
 3070 01d2 3B       		.uleb128 0x3b
 3071 01d3 0B       		.uleb128 0xb
 3072 01d4 49       		.uleb128 0x49
 3073 01d5 13       		.uleb128 0x13
 3074 01d6 02       		.uleb128 0x2
 3075 01d7 18       		.uleb128 0x18
 3076 01d8 00       		.byte	0
 3077 01d9 00       		.byte	0
 3078 01da 27       		.uleb128 0x27
 3079 01db 34       		.uleb128 0x34
 3080 01dc 00       		.byte	0
 3081 01dd 03       		.uleb128 0x3
 3082 01de 0E       		.uleb128 0xe
 3083 01df 3A       		.uleb128 0x3a
 3084 01e0 0B       		.uleb128 0xb
 3085 01e1 3B       		.uleb128 0x3b
 3086 01e2 0B       		.uleb128 0xb
 3087 01e3 49       		.uleb128 0x49
 3088 01e4 13       		.uleb128 0x13
 3089 01e5 3F       		.uleb128 0x3f
 3090 01e6 19       		.uleb128 0x19
 3091 01e7 02       		.uleb128 0x2
 3092 01e8 18       		.uleb128 0x18
 3093 01e9 00       		.byte	0
 3094 01ea 00       		.byte	0
 3095 01eb 28       		.uleb128 0x28
 3096 01ec 2E       		.uleb128 0x2e
 3097 01ed 01       		.byte	0x1
 3098 01ee 03       		.uleb128 0x3
 3099 01ef 0E       		.uleb128 0xe
 3100 01f0 3A       		.uleb128 0x3a
 3101 01f1 0B       		.uleb128 0xb
 3102 01f2 3B       		.uleb128 0x3b
 3103 01f3 0B       		.uleb128 0xb
 3104 01f4 27       		.uleb128 0x27
 3105 01f5 19       		.uleb128 0x19
 3106 01f6 11       		.uleb128 0x11
 3107 01f7 01       		.uleb128 0x1
 3108 01f8 12       		.uleb128 0x12
 3109 01f9 06       		.uleb128 0x6
 3110 01fa 40       		.uleb128 0x40
 3111 01fb 18       		.uleb128 0x18
 3112 01fc 9642     		.uleb128 0x2116
 3113 01fe 19       		.uleb128 0x19
 3114 01ff 01       		.uleb128 0x1
 3115 0200 13       		.uleb128 0x13
 3116 0201 00       		.byte	0
ARM GAS  /tmp/ccvIBBGd.s 			page 56


 3117 0202 00       		.byte	0
 3118 0203 29       		.uleb128 0x29
 3119 0204 2E       		.uleb128 0x2e
 3120 0205 00       		.byte	0
 3121 0206 03       		.uleb128 0x3
 3122 0207 0E       		.uleb128 0xe
 3123 0208 3A       		.uleb128 0x3a
 3124 0209 0B       		.uleb128 0xb
 3125 020a 3B       		.uleb128 0x3b
 3126 020b 0B       		.uleb128 0xb
 3127 020c 27       		.uleb128 0x27
 3128 020d 19       		.uleb128 0x19
 3129 020e 11       		.uleb128 0x11
 3130 020f 01       		.uleb128 0x1
 3131 0210 12       		.uleb128 0x12
 3132 0211 06       		.uleb128 0x6
 3133 0212 40       		.uleb128 0x40
 3134 0213 18       		.uleb128 0x18
 3135 0214 9642     		.uleb128 0x2116
 3136 0216 19       		.uleb128 0x19
 3137 0217 00       		.byte	0
 3138 0218 00       		.byte	0
 3139 0219 2A       		.uleb128 0x2a
 3140 021a 2E       		.uleb128 0x2e
 3141 021b 01       		.byte	0x1
 3142 021c 03       		.uleb128 0x3
 3143 021d 0E       		.uleb128 0xe
 3144 021e 3A       		.uleb128 0x3a
 3145 021f 0B       		.uleb128 0xb
 3146 0220 3B       		.uleb128 0x3b
 3147 0221 0B       		.uleb128 0xb
 3148 0222 27       		.uleb128 0x27
 3149 0223 19       		.uleb128 0x19
 3150 0224 49       		.uleb128 0x49
 3151 0225 13       		.uleb128 0x13
 3152 0226 11       		.uleb128 0x11
 3153 0227 01       		.uleb128 0x1
 3154 0228 12       		.uleb128 0x12
 3155 0229 06       		.uleb128 0x6
 3156 022a 40       		.uleb128 0x40
 3157 022b 18       		.uleb128 0x18
 3158 022c 9642     		.uleb128 0x2116
 3159 022e 19       		.uleb128 0x19
 3160 022f 01       		.uleb128 0x1
 3161 0230 13       		.uleb128 0x13
 3162 0231 00       		.byte	0
 3163 0232 00       		.byte	0
 3164 0233 2B       		.uleb128 0x2b
 3165 0234 05       		.uleb128 0x5
 3166 0235 00       		.byte	0
 3167 0236 03       		.uleb128 0x3
 3168 0237 08       		.uleb128 0x8
 3169 0238 3A       		.uleb128 0x3a
 3170 0239 0B       		.uleb128 0xb
 3171 023a 3B       		.uleb128 0x3b
 3172 023b 0B       		.uleb128 0xb
 3173 023c 49       		.uleb128 0x49
ARM GAS  /tmp/ccvIBBGd.s 			page 57


 3174 023d 13       		.uleb128 0x13
 3175 023e 02       		.uleb128 0x2
 3176 023f 18       		.uleb128 0x18
 3177 0240 00       		.byte	0
 3178 0241 00       		.byte	0
 3179 0242 2C       		.uleb128 0x2c
 3180 0243 2E       		.uleb128 0x2e
 3181 0244 00       		.byte	0
 3182 0245 03       		.uleb128 0x3
 3183 0246 0E       		.uleb128 0xe
 3184 0247 3A       		.uleb128 0x3a
 3185 0248 0B       		.uleb128 0xb
 3186 0249 3B       		.uleb128 0x3b
 3187 024a 0B       		.uleb128 0xb
 3188 024b 27       		.uleb128 0x27
 3189 024c 19       		.uleb128 0x19
 3190 024d 49       		.uleb128 0x49
 3191 024e 13       		.uleb128 0x13
 3192 024f 11       		.uleb128 0x11
 3193 0250 01       		.uleb128 0x1
 3194 0251 12       		.uleb128 0x12
 3195 0252 06       		.uleb128 0x6
 3196 0253 40       		.uleb128 0x40
 3197 0254 18       		.uleb128 0x18
 3198 0255 9642     		.uleb128 0x2116
 3199 0257 19       		.uleb128 0x19
 3200 0258 00       		.byte	0
 3201 0259 00       		.byte	0
 3202 025a 2D       		.uleb128 0x2d
 3203 025b 2E       		.uleb128 0x2e
 3204 025c 00       		.byte	0
 3205 025d 03       		.uleb128 0x3
 3206 025e 0E       		.uleb128 0xe
 3207 025f 3A       		.uleb128 0x3a
 3208 0260 0B       		.uleb128 0xb
 3209 0261 3B       		.uleb128 0x3b
 3210 0262 0B       		.uleb128 0xb
 3211 0263 27       		.uleb128 0x27
 3212 0264 19       		.uleb128 0x19
 3213 0265 49       		.uleb128 0x49
 3214 0266 13       		.uleb128 0x13
 3215 0267 11       		.uleb128 0x11
 3216 0268 01       		.uleb128 0x1
 3217 0269 12       		.uleb128 0x12
 3218 026a 06       		.uleb128 0x6
 3219 026b 40       		.uleb128 0x40
 3220 026c 18       		.uleb128 0x18
 3221 026d 9742     		.uleb128 0x2117
 3222 026f 19       		.uleb128 0x19
 3223 0270 00       		.byte	0
 3224 0271 00       		.byte	0
 3225 0272 00       		.byte	0
 3226              		.section	.debug_aranges,"",%progbits
 3227 0000 64000000 		.4byte	0x64
 3228 0004 0200     		.2byte	0x2
 3229 0006 00000000 		.4byte	.Ldebug_info0
 3230 000a 04       		.byte	0x4
ARM GAS  /tmp/ccvIBBGd.s 			page 58


 3231 000b 00       		.byte	0
 3232 000c 0000     		.2byte	0
 3233 000e 0000     		.2byte	0
 3234 0010 00000000 		.4byte	.LFB99
 3235 0014 0C000000 		.4byte	.LFE99-.LFB99
 3236 0018 00000000 		.4byte	.LFB100
 3237 001c 0E000000 		.4byte	.LFE100-.LFB100
 3238 0020 00000000 		.4byte	.LFB152
 3239 0024 16000000 		.4byte	.LFE152-.LFB152
 3240 0028 00000000 		.4byte	.LFB153
 3241 002c 1C000000 		.4byte	.LFE153-.LFB153
 3242 0030 00000000 		.4byte	.LFB154
 3243 0034 48010000 		.4byte	.LFE154-.LFB154
 3244 0038 00000000 		.4byte	.LFB155
 3245 003c 18000000 		.4byte	.LFE155-.LFB155
 3246 0040 00000000 		.4byte	.LFB156
 3247 0044 68010000 		.4byte	.LFE156-.LFB156
 3248 0048 00000000 		.4byte	.LFB157
 3249 004c 52000000 		.4byte	.LFE157-.LFB157
 3250 0050 00000000 		.4byte	.LFB158
 3251 0054 1C000000 		.4byte	.LFE158-.LFB158
 3252 0058 00000000 		.4byte	.LFB159
 3253 005c BC010000 		.4byte	.LFE159-.LFB159
 3254 0060 00000000 		.4byte	0
 3255 0064 00000000 		.4byte	0
 3256              		.section	.debug_ranges,"",%progbits
 3257              	.Ldebug_ranges0:
 3258 0000 00000000 		.4byte	.LFB99
 3259 0004 0C000000 		.4byte	.LFE99
 3260 0008 00000000 		.4byte	.LFB100
 3261 000c 0E000000 		.4byte	.LFE100
 3262 0010 00000000 		.4byte	.LFB152
 3263 0014 16000000 		.4byte	.LFE152
 3264 0018 00000000 		.4byte	.LFB153
 3265 001c 1C000000 		.4byte	.LFE153
 3266 0020 00000000 		.4byte	.LFB154
 3267 0024 48010000 		.4byte	.LFE154
 3268 0028 00000000 		.4byte	.LFB155
 3269 002c 18000000 		.4byte	.LFE155
 3270 0030 00000000 		.4byte	.LFB156
 3271 0034 68010000 		.4byte	.LFE156
 3272 0038 00000000 		.4byte	.LFB157
 3273 003c 52000000 		.4byte	.LFE157
 3274 0040 00000000 		.4byte	.LFB158
 3275 0044 1C000000 		.4byte	.LFE158
 3276 0048 00000000 		.4byte	.LFB159
 3277 004c BC010000 		.4byte	.LFE159
 3278 0050 00000000 		.4byte	0
 3279 0054 00000000 		.4byte	0
 3280              		.section	.debug_line,"",%progbits
 3281              	.Ldebug_line0:
 3282 0000 27040000 		.section	.debug_str,"MS",%progbits,1
 3282      0200A002 
 3282      00000201 
 3282      FB0E0D00 
 3282      01010101 
 3283              	.LASF166:
ARM GAS  /tmp/ccvIBBGd.s 			page 59


 3284 0000 74657374 		.ascii	"testdyn1\000"
 3284      64796E31 
 3284      00
 3285              	.LASF51:
 3286 0009 63685F74 		.ascii	"ch_threads_list\000"
 3286      68726561 
 3286      64735F6C 
 3286      69737400 
 3287              	.LASF168:
 3288 0019 74657374 		.ascii	"testdyn3\000"
 3288      64796E33 
 3288      00
 3289              	.LASF52:
 3290 0022 74687265 		.ascii	"threads_queue_t\000"
 3290      6164735F 
 3290      71756575 
 3290      655F7400 
 3291              	.LASF41:
 3292 0032 705F7761 		.ascii	"p_waiting\000"
 3292      6974696E 
 3292      6700
 3293              	.LASF114:
 3294 003c 53797374 		.ascii	"SystemCoreClock\000"
 3294      656D436F 
 3294      7265436C 
 3294      6F636B00 
 3295              	.LASF104:
 3296 004c 77746D74 		.ascii	"wtmtxp\000"
 3296      787000
 3297              	.LASF152:
 3298 0053 6D656D6F 		.ascii	"memory_pool_t\000"
 3298      72795F70 
 3298      6F6F6C5F 
 3298      7400
 3299              	.LASF113:
 3300 0061 63686172 		.ascii	"char\000"
 3300      00
 3301              	.LASF86:
 3302 0066 72656761 		.ascii	"regarm_t\000"
 3302      726D5F74 
 3302      00
 3303              	.LASF32:
 3304 006f 705F7072 		.ascii	"p_prio\000"
 3304      696F00
 3305              	.LASF169:
 3306 0076 70617474 		.ascii	"patterndyn\000"
 3306      65726E64 
 3306      796E00
 3307              	.LASF167:
 3308 0081 74657374 		.ascii	"testdyn2\000"
 3308      64796E32 
 3308      00
 3309              	.LASF28:
 3310 008a 73797374 		.ascii	"systime_t\000"
 3310      696D655F 
 3310      7400
 3311              	.LASF160:
ARM GAS  /tmp/ccvIBBGd.s 			page 60


 3312 0094 62756666 		.ascii	"buffer\000"
 3312      657200
 3313              	.LASF125:
 3314 009b 63665F6F 		.ascii	"cf_off_older\000"
 3314      66665F6F 
 3314      6C646572 
 3314      00
 3315              	.LASF111:
 3316 00a8 6D5F6F77 		.ascii	"m_owner\000"
 3316      6E657200 
 3317              	.LASF107:
 3318 00b0 735F7175 		.ascii	"s_queue\000"
 3318      65756500 
 3319              	.LASF42:
 3320 00b8 705F6D73 		.ascii	"p_msgqueue\000"
 3320      67717565 
 3320      756500
 3321              	.LASF0:
 3322 00c3 756E7369 		.ascii	"unsigned int\000"
 3322      676E6564 
 3322      20696E74 
 3322      00
 3323              	.LASF143:
 3324 00d0 6E657874 		.ascii	"next\000"
 3324      00
 3325              	.LASF184:
 3326 00d5 72656766 		.ascii	"regfind\000"
 3326      696E6400 
 3327              	.LASF49:
 3328 00dd 74687265 		.ascii	"threads_list_t\000"
 3328      6164735F 
 3328      6C697374 
 3328      5F7400
 3329              	.LASF10:
 3330 00ec 5F5F696E 		.ascii	"__int32_t\000"
 3330      7433325F 
 3330      7400
 3331              	.LASF93:
 3332 00f6 73655F73 		.ascii	"se_state\000"
 3332      74617465 
 3332      00
 3333              	.LASF126:
 3334 00ff 63665F6F 		.ascii	"cf_off_name\000"
 3334      66665F6E 
 3334      616D6500 
 3335              	.LASF144:
 3336 010b 68656170 		.ascii	"heap\000"
 3336      00
 3337              	.LASF163:
 3338 0110 74657374 		.ascii	"test\000"
 3338      00
 3339              	.LASF101:
 3340 0115 77746F62 		.ascii	"wtobjp\000"
 3340      6A7000
 3341              	.LASF82:
 3342 011c 76746C69 		.ascii	"vtlist\000"
 3342      737400
ARM GAS  /tmp/ccvIBBGd.s 			page 61


 3343              	.LASF55:
 3344 0123 63685F72 		.ascii	"ch_ready_list\000"
 3344      65616479 
 3344      5F6C6973 
 3344      7400
 3345              	.LASF84:
 3346 0131 69646C65 		.ascii	"idle_thread_wa\000"
 3346      5F746872 
 3346      6561645F 
 3346      776100
 3347              	.LASF105:
 3348 0140 65776D61 		.ascii	"ewmask\000"
 3348      736B00
 3349              	.LASF129:
 3350 0147 63665F6F 		.ascii	"cf_off_flags\000"
 3350      66665F66 
 3350      6C616773 
 3350      00
 3351              	.LASF53:
 3352 0154 63685F74 		.ascii	"ch_threads_queue\000"
 3352      68726561 
 3352      64735F71 
 3352      75657565 
 3352      00
 3353              	.LASF119:
 3354 0165 63685F70 		.ascii	"ch_ptrsize\000"
 3354      74727369 
 3354      7A6500
 3355              	.LASF62:
 3356 0170 76746675 		.ascii	"vtfunc_t\000"
 3356      6E635F74 
 3356      00
 3357              	.LASF171:
 3358 0179 666F756E 		.ascii	"found\000"
 3358      6400
 3359              	.LASF108:
 3360 017f 735F636E 		.ascii	"s_cnt\000"
 3360      7400
 3361              	.LASF74:
 3362 0185 63685F73 		.ascii	"ch_system_debug\000"
 3362      79737465 
 3362      6D5F6465 
 3362      62756700 
 3363              	.LASF141:
 3364 0195 685F6672 		.ascii	"h_free\000"
 3364      656500
 3365              	.LASF19:
 3366 019c 75696E74 		.ascii	"uint32_t\000"
 3366      33325F74 
 3366      00
 3367              	.LASF120:
 3368 01a5 63685F74 		.ascii	"ch_timesize\000"
 3368      696D6573 
 3368      697A6500 
 3369              	.LASF26:
 3370 01b1 6576656E 		.ascii	"eventmask_t\000"
 3370      746D6173 
ARM GAS  /tmp/ccvIBBGd.s 			page 62


 3370      6B5F7400 
 3371              	.LASF57:
 3372 01bd 725F7072 		.ascii	"r_prio\000"
 3372      696F00
 3373              	.LASF69:
 3374 01c4 76745F70 		.ascii	"vt_par\000"
 3374      617200
 3375              	.LASF106:
 3376 01cb 63685F73 		.ascii	"ch_semaphore\000"
 3376      656D6170 
 3376      686F7265 
 3376      00
 3377              	.LASF24:
 3378 01d8 74707269 		.ascii	"tprio_t\000"
 3378      6F5F7400 
 3379              	.LASF177:
 3380 01e0 64796E31 		.ascii	"dyn1_setup\000"
 3380      5F736574 
 3380      757000
 3381              	.LASF64:
 3382 01eb 63685F76 		.ascii	"ch_virtual_timer\000"
 3382      69727475 
 3382      616C5F74 
 3382      696D6572 
 3382      00
 3383              	.LASF173:
 3384 01fc 64796E32 		.ascii	"dyn2_execute\000"
 3384      5F657865 
 3384      63757465 
 3384      00
 3385              	.LASF15:
 3386 0209 6C6F6E67 		.ascii	"long long unsigned int\000"
 3386      206C6F6E 
 3386      6720756E 
 3386      7369676E 
 3386      65642069 
 3387              	.LASF92:
 3388 0220 73655F77 		.ascii	"se_wtobjp\000"
 3388      746F626A 
 3388      7000
 3389              	.LASF148:
 3390 022a 70685F6E 		.ascii	"ph_next\000"
 3390      65787400 
 3391              	.LASF161:
 3392 0232 74657374 		.ascii	"test_global_fail\000"
 3392      5F676C6F 
 3392      62616C5F 
 3392      6661696C 
 3392      00
 3393              	.LASF8:
 3394 0243 5F5F7569 		.ascii	"__uint16_t\000"
 3394      6E743136 
 3394      5F7400
 3395              	.LASF27:
 3396 024e 636E745F 		.ascii	"cnt_t\000"
 3396      7400
 3397              	.LASF153:
ARM GAS  /tmp/ccvIBBGd.s 			page 63


 3398 0254 74657374 		.ascii	"testcase\000"
 3398      63617365 
 3398      00
 3399              	.LASF76:
 3400 025d 6973725F 		.ascii	"isr_cnt\000"
 3400      636E7400 
 3401              	.LASF34:
 3402 0265 705F6E65 		.ascii	"p_newer\000"
 3402      77657200 
 3403              	.LASF71:
 3404 026d 63685F76 		.ascii	"ch_virtual_timers_list\000"
 3404      69727475 
 3404      616C5F74 
 3404      696D6572 
 3404      735F6C69 
 3405              	.LASF90:
 3406 0284 73655F74 		.ascii	"se_time\000"
 3406      696D6500 
 3407              	.LASF29:
 3408 028c 74687265 		.ascii	"thread_t\000"
 3408      61645F74 
 3408      00
 3409              	.LASF182:
 3410 0295 43686962 		.ascii	"ChibiOS/test/rt/testdyn.c\000"
 3410      694F532F 
 3410      74657374 
 3410      2F72742F 
 3410      74657374 
 3411              	.LASF158:
 3412 02af 68656170 		.ascii	"heap_header\000"
 3412      5F686561 
 3412      64657200 
 3413              	.LASF4:
 3414 02bb 73697A65 		.ascii	"size_t\000"
 3414      5F7400
 3415              	.LASF99:
 3416 02c2 7264796D 		.ascii	"rdymsg\000"
 3416      736700
 3417              	.LASF121:
 3418 02c9 63685F74 		.ascii	"ch_threadsize\000"
 3418      68726561 
 3418      6473697A 
 3418      6500
 3419              	.LASF131:
 3420 02d7 63665F6F 		.ascii	"cf_off_preempt\000"
 3420      66665F70 
 3420      7265656D 
 3420      707400
 3421              	.LASF136:
 3422 02e6 5F426F6F 		.ascii	"_Bool\000"
 3422      6C00
 3423              	.LASF181:
 3424 02ec 474E5520 		.ascii	"GNU C11 6.3.1 20170215 (release) [ARM/embedded-6-br"
 3424      43313120 
 3424      362E332E 
 3424      31203230 
 3424      31373032 
ARM GAS  /tmp/ccvIBBGd.s 			page 64


 3425 031f 616E6368 		.ascii	"anch revision 245512] -mcpu=cortex-m0 -mno-thumb-in"
 3425      20726576 
 3425      6973696F 
 3425      6E203234 
 3425      35353132 
 3426 0352 74657277 		.ascii	"terwork -mthumb -ggdb -O0 -fomit-frame-pointer -fal"
 3426      6F726B20 
 3426      2D6D7468 
 3426      756D6220 
 3426      2D676764 
 3427 0385 69676E2D 		.ascii	"ign-functions=16 -ffunction-sections -fdata-section"
 3427      66756E63 
 3427      74696F6E 
 3427      733D3136 
 3427      202D6666 
 3428 03b8 7300     		.ascii	"s\000"
 3429              	.LASF109:
 3430 03ba 63685F6D 		.ascii	"ch_mutex\000"
 3430      75746578 
 3430      00
 3431              	.LASF14:
 3432 03c3 5F5F7569 		.ascii	"__uint64_t\000"
 3432      6E743634 
 3432      5F7400
 3433              	.LASF123:
 3434 03ce 63665F6F 		.ascii	"cf_off_ctx\000"
 3434      66665F63 
 3434      747800
 3435              	.LASF127:
 3436 03d9 63665F6F 		.ascii	"cf_off_stklimit\000"
 3436      66665F73 
 3436      746B6C69 
 3436      6D697400 
 3437              	.LASF36:
 3438 03e9 705F6E61 		.ascii	"p_name\000"
 3438      6D6500
 3439              	.LASF170:
 3440 03f0 7072696F 		.ascii	"prio\000"
 3440      00
 3441              	.LASF140:
 3442 03f5 685F7072 		.ascii	"h_provider\000"
 3442      6F766964 
 3442      657200
 3443              	.LASF67:
 3444 0400 76745F64 		.ascii	"vt_delta\000"
 3444      656C7461 
 3444      00
 3445              	.LASF183:
 3446 0409 2F686F6D 		.ascii	"/home/felix/Desktop/workspace/esho/UltrasonicCortex"
 3446      652F6665 
 3446      6C69782F 
 3446      4465736B 
 3446      746F702F 
 3447 043c 2F00     		.ascii	"/\000"
 3448              	.LASF48:
 3449 043e 74687265 		.ascii	"thread_reference_t\000"
 3449      61645F72 
ARM GAS  /tmp/ccvIBBGd.s 			page 65


 3449      65666572 
 3449      656E6365 
 3449      5F7400
 3450              	.LASF72:
 3451 0451 76745F6C 		.ascii	"vt_lasttime\000"
 3451      61737474 
 3451      696D6500 
 3452              	.LASF22:
 3453 045d 74737461 		.ascii	"tstate_t\000"
 3453      74655F74 
 3453      00
 3454              	.LASF91:
 3455 0466 73655F74 		.ascii	"se_tp\000"
 3455      7000
 3456              	.LASF35:
 3457 046c 705F6F6C 		.ascii	"p_older\000"
 3457      64657200 
 3458              	.LASF38:
 3459 0474 705F7374 		.ascii	"p_state\000"
 3459      61746500 
 3460              	.LASF37:
 3461 047c 705F7374 		.ascii	"p_stklimit\000"
 3461      6B6C696D 
 3461      697400
 3462              	.LASF16:
 3463 0487 75696E74 		.ascii	"uint8_t\000"
 3463      385F7400 
 3464              	.LASF97:
 3465 048f 74625F62 		.ascii	"tb_buffer\000"
 3465      75666665 
 3465      7200
 3466              	.LASF149:
 3467 0499 6D705F6E 		.ascii	"mp_next\000"
 3467      65787400 
 3468              	.LASF47:
 3469 04a1 705F6D70 		.ascii	"p_mpool\000"
 3469      6F6F6C00 
 3470              	.LASF45:
 3471 04a9 705F6D74 		.ascii	"p_mtxlist\000"
 3471      786C6973 
 3471      7400
 3472              	.LASF50:
 3473 04b3 63685F74 		.ascii	"ch_thread\000"
 3473      68726561 
 3473      6400
 3474              	.LASF157:
 3475 04bd 65786563 		.ascii	"execute\000"
 3475      75746500 
 3476              	.LASF142:
 3477 04c5 685F6D74 		.ascii	"h_mtx\000"
 3477      7800
 3478              	.LASF95:
 3479 04cb 74625F73 		.ascii	"tb_size\000"
 3479      697A6500 
 3480              	.LASF73:
 3481 04d3 73797374 		.ascii	"system_debug_t\000"
 3481      656D5F64 
ARM GAS  /tmp/ccvIBBGd.s 			page 66


 3481      65627567 
 3481      5F7400
 3482              	.LASF1:
 3483 04e2 6C6F6E67 		.ascii	"long long int\000"
 3483      206C6F6E 
 3483      6720696E 
 3483      7400
 3484              	.LASF56:
 3485 04f0 725F7175 		.ascii	"r_queue\000"
 3485      65756500 
 3486              	.LASF59:
 3487 04f8 725F6E65 		.ascii	"r_newer\000"
 3487      77657200 
 3488              	.LASF25:
 3489 0500 6D73675F 		.ascii	"msg_t\000"
 3489      7400
 3490              	.LASF88:
 3491 0506 636F6E74 		.ascii	"context\000"
 3491      65787400 
 3492              	.LASF156:
 3493 050e 74656172 		.ascii	"teardown\000"
 3493      646F776E 
 3493      00
 3494              	.LASF172:
 3495 0517 64796E33 		.ascii	"dyn3_execute\000"
 3495      5F657865 
 3495      63757465 
 3495      00
 3496              	.LASF39:
 3497 0524 705F666C 		.ascii	"p_flags\000"
 3497      61677300 
 3498              	.LASF174:
 3499 052c 64796E33 		.ascii	"dyn3_setup\000"
 3499      5F736574 
 3499      757000
 3500              	.LASF63:
 3501 0537 76697274 		.ascii	"virtual_timer_t\000"
 3501      75616C5F 
 3501      74696D65 
 3501      725F7400 
 3502              	.LASF130:
 3503 0547 63665F6F 		.ascii	"cf_off_refs\000"
 3503      66665F72 
 3503      65667300 
 3504              	.LASF116:
 3505 0553 63685F7A 		.ascii	"ch_zero\000"
 3505      65726F00 
 3506              	.LASF146:
 3507 055b 73697A65 		.ascii	"size\000"
 3507      00
 3508              	.LASF96:
 3509 0560 74625F70 		.ascii	"tb_ptr\000"
 3509      747200
 3510              	.LASF60:
 3511 0567 725F6F6C 		.ascii	"r_older\000"
 3511      64657200 
 3512              	.LASF138:
ARM GAS  /tmp/ccvIBBGd.s 			page 67


 3513 056f 6D656D6F 		.ascii	"memory_heap_t\000"
 3513      72795F68 
 3513      6561705F 
 3513      7400
 3514              	.LASF150:
 3515 057d 6D705F6F 		.ascii	"mp_object_size\000"
 3515      626A6563 
 3515      745F7369 
 3515      7A6500
 3516              	.LASF75:
 3517 058c 70616E69 		.ascii	"panic_msg\000"
 3517      635F6D73 
 3517      6700
 3518              	.LASF43:
 3519 0596 705F6D73 		.ascii	"p_msg\000"
 3519      6700
 3520              	.LASF21:
 3521 059c 746D6F64 		.ascii	"tmode_t\000"
 3521      655F7400 
 3522              	.LASF117:
 3523 05a4 63685F73 		.ascii	"ch_size\000"
 3523      697A6500 
 3524              	.LASF83:
 3525 05ac 6D61696E 		.ascii	"mainthread\000"
 3525      74687265 
 3525      616400
 3526              	.LASF2:
 3527 05b7 6C6F6E67 		.ascii	"long double\000"
 3527      20646F75 
 3527      626C6500 
 3528              	.LASF17:
 3529 05c3 75696E74 		.ascii	"uint16_t\000"
 3529      31365F74 
 3529      00
 3530              	.LASF133:
 3531 05cc 63686465 		.ascii	"chdebug_t\000"
 3531      6275675F 
 3531      7400
 3532              	.LASF178:
 3533 05d6 74687265 		.ascii	"thread\000"
 3533      616400
 3534              	.LASF77:
 3535 05dd 6C6F636B 		.ascii	"lock_cnt\000"
 3535      5F636E74 
 3535      00
 3536              	.LASF46:
 3537 05e6 705F7265 		.ascii	"p_realprio\000"
 3537      616C7072 
 3537      696F00
 3538              	.LASF118:
 3539 05f1 63685F76 		.ascii	"ch_version\000"
 3539      65727369 
 3539      6F6E00
 3540              	.LASF7:
 3541 05fc 73686F72 		.ascii	"short int\000"
 3541      7420696E 
 3541      7400
ARM GAS  /tmp/ccvIBBGd.s 			page 68


 3542              	.LASF139:
 3543 0606 6D656D6F 		.ascii	"memory_heap\000"
 3543      72795F68 
 3543      65617000 
 3544              	.LASF61:
 3545 0612 725F6375 		.ascii	"r_current\000"
 3545      7272656E 
 3545      7400
 3546              	.LASF44:
 3547 061c 705F6570 		.ascii	"p_epending\000"
 3547      656E6469 
 3547      6E6700
 3548              	.LASF110:
 3549 0627 6D5F7175 		.ascii	"m_queue\000"
 3549      65756500 
 3550              	.LASF11:
 3551 062f 6C6F6E67 		.ascii	"long int\000"
 3551      20696E74 
 3551      00
 3552              	.LASF89:
 3553 0638 706F7274 		.ascii	"port_intctx\000"
 3553      5F696E74 
 3553      63747800 
 3554              	.LASF179:
 3555 0644 63685468 		.ascii	"chThdGetPriorityX\000"
 3555      64476574 
 3555      5072696F 
 3555      72697479 
 3555      5800
 3556              	.LASF80:
 3557 0656 63685F73 		.ascii	"ch_system\000"
 3557      79737465 
 3557      6D00
 3558              	.LASF30:
 3559 0660 705F6E65 		.ascii	"p_next\000"
 3559      787400
 3560              	.LASF20:
 3561 0667 75696E74 		.ascii	"uint64_t\000"
 3561      36345F74 
 3561      00
 3562              	.LASF33:
 3563 0670 705F6374 		.ascii	"p_ctx\000"
 3563      7800
 3564              	.LASF81:
 3565 0676 726C6973 		.ascii	"rlist\000"
 3565      7400
 3566              	.LASF132:
 3567 067c 63665F6F 		.ascii	"cf_off_time\000"
 3567      66665F74 
 3567      696D6500 
 3568              	.LASF122:
 3569 0688 63665F6F 		.ascii	"cf_off_prio\000"
 3569      66665F70 
 3569      72696F00 
 3570              	.LASF5:
 3571 0694 5F5F7569 		.ascii	"__uint8_t\000"
 3571      6E74385F 
ARM GAS  /tmp/ccvIBBGd.s 			page 69


 3571      7400
 3572              	.LASF137:
 3573 069e 6D656D67 		.ascii	"memgetfunc_t\000"
 3573      65746675 
 3573      6E635F74 
 3573      00
 3574              	.LASF154:
 3575 06ab 6E616D65 		.ascii	"name\000"
 3575      00
 3576              	.LASF115:
 3577 06b0 63685F69 		.ascii	"ch_identifier\000"
 3577      64656E74 
 3577      69666965 
 3577      7200
 3578              	.LASF31:
 3579 06be 705F7072 		.ascii	"p_prev\000"
 3579      657600
 3580              	.LASF85:
 3581 06c5 73697A65 		.ascii	"sizetype\000"
 3581      74797065 
 3581      00
 3582              	.LASF23:
 3583 06ce 74726566 		.ascii	"trefs_t\000"
 3583      735F7400 
 3584              	.LASF13:
 3585 06d6 6C6F6E67 		.ascii	"long unsigned int\000"
 3585      20756E73 
 3585      69676E65 
 3585      6420696E 
 3585      7400
 3586              	.LASF128:
 3587 06e8 63665F6F 		.ascii	"cf_off_state\000"
 3587      66665F73 
 3587      74617465 
 3587      00
 3588              	.LASF54:
 3589 06f5 72656164 		.ascii	"ready_list_t\000"
 3589      795F6C69 
 3589      73745F74 
 3589      00
 3590              	.LASF162:
 3591 0702 74687265 		.ascii	"threads\000"
 3591      61647300 
 3592              	.LASF18:
 3593 070a 696E7433 		.ascii	"int32_t\000"
 3593      325F7400 
 3594              	.LASF78:
 3595 0712 74726163 		.ascii	"trace_buffer\000"
 3595      655F6275 
 3595      66666572 
 3595      00
 3596              	.LASF103:
 3597 071f 77747365 		.ascii	"wtsemp\000"
 3597      6D7000
 3598              	.LASF94:
 3599 0726 63685F73 		.ascii	"ch_swc_event_t\000"
 3599      77635F65 
ARM GAS  /tmp/ccvIBBGd.s 			page 70


 3599      76656E74 
 3599      5F7400
 3600              	.LASF135:
 3601 0735 6D757465 		.ascii	"mutex_t\000"
 3601      785F7400 
 3602              	.LASF6:
 3603 073d 756E7369 		.ascii	"unsigned char\000"
 3603      676E6564 
 3603      20636861 
 3603      7200
 3604              	.LASF155:
 3605 074b 73657475 		.ascii	"setup\000"
 3605      7000
 3606              	.LASF12:
 3607 0751 5F5F7569 		.ascii	"__uint32_t\000"
 3607      6E743332 
 3607      5F7400
 3608              	.LASF70:
 3609 075c 76697274 		.ascii	"virtual_timers_list_t\000"
 3609      75616C5F 
 3609      74696D65 
 3609      72735F6C 
 3609      6973745F 
 3610              	.LASF40:
 3611 0772 705F7265 		.ascii	"p_refs\000"
 3611      667300
 3612              	.LASF165:
 3613 0779 68656170 		.ascii	"heap1\000"
 3613      3100
 3614              	.LASF159:
 3615 077f 74657374 		.ascii	"test_buffers\000"
 3615      5F627566 
 3615      66657273 
 3615      00
 3616              	.LASF147:
 3617 078c 706F6F6C 		.ascii	"pool_header\000"
 3617      5F686561 
 3617      64657200 
 3618              	.LASF65:
 3619 0798 76745F6E 		.ascii	"vt_next\000"
 3619      65787400 
 3620              	.LASF79:
 3621 07a0 63685F73 		.ascii	"ch_system_t\000"
 3621      79737465 
 3621      6D5F7400 
 3622              	.LASF102:
 3623 07ac 77747472 		.ascii	"wttrp\000"
 3623      7000
 3624              	.LASF98:
 3625 07b2 63685F74 		.ascii	"ch_trace_buffer_t\000"
 3625      72616365 
 3625      5F627566 
 3625      6665725F 
 3625      7400
 3626              	.LASF112:
 3627 07c4 6D5F6E65 		.ascii	"m_next\000"
 3627      787400
ARM GAS  /tmp/ccvIBBGd.s 			page 71


 3628              	.LASF3:
 3629 07cb 7369676E 		.ascii	"signed char\000"
 3629      65642063 
 3629      68617200 
 3630              	.LASF124:
 3631 07d7 63665F6F 		.ascii	"cf_off_newer\000"
 3631      66665F6E 
 3631      65776572 
 3631      00
 3632              	.LASF9:
 3633 07e4 73686F72 		.ascii	"short unsigned int\000"
 3633      7420756E 
 3633      7369676E 
 3633      65642069 
 3633      6E7400
 3634              	.LASF58:
 3635 07f7 725F6374 		.ascii	"r_ctx\000"
 3635      7800
 3636              	.LASF87:
 3637 07fd 73746B61 		.ascii	"stkalign_t\000"
 3637      6C69676E 
 3637      5F7400
 3638              	.LASF180:
 3639 0808 63685468 		.ascii	"chThdGetSelfX\000"
 3639      64476574 
 3639      53656C66 
 3639      5800
 3640              	.LASF134:
 3641 0816 63685F64 		.ascii	"ch_debug\000"
 3641      65627567 
 3641      00
 3642              	.LASF68:
 3643 081f 76745F66 		.ascii	"vt_func\000"
 3643      756E6300 
 3644              	.LASF66:
 3645 0827 76745F70 		.ascii	"vt_prev\000"
 3645      72657600 
 3646              	.LASF164:
 3647 082f 74657374 		.ascii	"test_timer_done\000"
 3647      5F74696D 
 3647      65725F64 
 3647      6F6E6500 
 3648              	.LASF176:
 3649 083f 64796E31 		.ascii	"dyn1_execute\000"
 3649      5F657865 
 3649      63757465 
 3649      00
 3650              	.LASF175:
 3651 084c 64796E32 		.ascii	"dyn2_setup\000"
 3651      5F736574 
 3651      757000
 3652              	.LASF145:
 3653 0857 616C6967 		.ascii	"align\000"
 3653      6E00
 3654              	.LASF100:
 3655 085d 65786974 		.ascii	"exitcode\000"
 3655      636F6465 
ARM GAS  /tmp/ccvIBBGd.s 			page 72


 3655      00
 3656              	.LASF151:
 3657 0866 6D705F70 		.ascii	"mp_provider\000"
 3657      726F7669 
 3657      64657200 
 3658              		.ident	"GCC: (GNU Tools for ARM Embedded Processors 6-2017-q1-update) 6.3.1 20170215 (release) [AR
ARM GAS  /tmp/ccvIBBGd.s 			page 73


DEFINED SYMBOLS
                            *ABS*:0000000000000000 testdyn.c
     /tmp/ccvIBBGd.s:16     .text.chThdGetSelfX:0000000000000000 $t
     /tmp/ccvIBBGd.s:23     .text.chThdGetSelfX:0000000000000000 chThdGetSelfX
     /tmp/ccvIBBGd.s:41     .text.chThdGetSelfX:0000000000000008 $d
     /tmp/ccvIBBGd.s:46     .text.chThdGetPriorityX:0000000000000000 $t
     /tmp/ccvIBBGd.s:53     .text.chThdGetPriorityX:0000000000000000 chThdGetPriorityX
     /tmp/ccvIBBGd.s:75     .bss.heap1:0000000000000000 $d
     /tmp/ccvIBBGd.s:78     .bss.heap1:0000000000000000 heap1
     /tmp/ccvIBBGd.s:81     .bss.mp1:0000000000000000 $d
     /tmp/ccvIBBGd.s:84     .bss.mp1:0000000000000000 mp1
     /tmp/ccvIBBGd.s:87     .text.thread:0000000000000000 $t
     /tmp/ccvIBBGd.s:94     .text.thread:0000000000000000 thread
     /tmp/ccvIBBGd.s:121    .text.dyn1_setup:0000000000000000 $t
     /tmp/ccvIBBGd.s:128    .text.dyn1_setup:0000000000000000 dyn1_setup
     /tmp/ccvIBBGd.s:152    .text.dyn1_setup:0000000000000014 $d
     /tmp/ccvIBBGd.s:158    .rodata:0000000000000000 $d
     /tmp/ccvIBBGd.s:171    .text.dyn1_execute:0000000000000000 $t
     /tmp/ccvIBBGd.s:178    .text.dyn1_execute:0000000000000000 dyn1_execute
     /tmp/ccvIBBGd.s:357    .text.dyn1_execute:000000000000012c $d
     /tmp/ccvIBBGd.s:376    .rodata.testdyn1:0000000000000000 testdyn1
     /tmp/ccvIBBGd.s:373    .rodata.testdyn1:0000000000000000 $d
     /tmp/ccvIBBGd.s:382    .text.dyn2_setup:0000000000000000 $t
     /tmp/ccvIBBGd.s:389    .text.dyn2_setup:0000000000000000 dyn2_setup
     /tmp/ccvIBBGd.s:413    .text.dyn2_setup:0000000000000014 $d
     /tmp/ccvIBBGd.s:428    .text.dyn2_execute:0000000000000000 $t
     /tmp/ccvIBBGd.s:435    .text.dyn2_execute:0000000000000000 dyn2_execute
     /tmp/ccvIBBGd.s:632    .text.dyn2_execute:0000000000000140 $d
     /tmp/ccvIBBGd.s:654    .rodata.testdyn2:0000000000000000 testdyn2
     /tmp/ccvIBBGd.s:651    .rodata.testdyn2:0000000000000000 $d
     /tmp/ccvIBBGd.s:660    .text.regfind:0000000000000000 $t
     /tmp/ccvIBBGd.s:667    .text.regfind:0000000000000000 regfind
     /tmp/ccvIBBGd.s:728    .text.dyn3_setup:0000000000000000 $t
     /tmp/ccvIBBGd.s:735    .text.dyn3_setup:0000000000000000 dyn3_setup
     /tmp/ccvIBBGd.s:759    .text.dyn3_setup:0000000000000014 $d
     /tmp/ccvIBBGd.s:765    .text.dyn3_execute:0000000000000000 $t
     /tmp/ccvIBBGd.s:772    .text.dyn3_execute:0000000000000000 dyn3_execute
     /tmp/ccvIBBGd.s:1024   .text.dyn3_execute:00000000000001b0 $d
     /tmp/ccvIBBGd.s:1039   .rodata.testdyn3:0000000000000000 testdyn3
     /tmp/ccvIBBGd.s:1036   .rodata.testdyn3:0000000000000000 $d
     /tmp/ccvIBBGd.s:1049   .rodata.patterndyn:0000000000000000 patterndyn
     /tmp/ccvIBBGd.s:1046   .rodata.patterndyn:0000000000000000 $d
                     .debug_frame:0000000000000010 $d

UNDEFINED SYMBOLS
ch
test_emit_token
chHeapObjectInit
test
chHeapStatus
chThdCreateFromHeap
chHeapAlloc
chHeapFree
_test_assert
test_wait_threads
_test_assert_sequence
threads
ARM GAS  /tmp/ccvIBBGd.s 			page 74


chPoolObjectInit
chPoolFree
chThdCreateFromMemoryPool
chPoolAlloc
wa
chRegFirstThread
chRegNextThread
chThdAddRef
chThdRelease
chThdSleep
