ARM GAS  /tmp/ccinRW2a.s 			page 1


   1              		.cpu cortex-m0
   2              		.eabi_attribute 20, 1
   3              		.eabi_attribute 21, 1
   4              		.eabi_attribute 23, 3
   5              		.eabi_attribute 24, 1
   6              		.eabi_attribute 25, 1
   7              		.eabi_attribute 26, 1
   8              		.eabi_attribute 30, 6
   9              		.eabi_attribute 34, 0
  10              		.eabi_attribute 18, 4
  11              		.file	"testheap.c"
  12              		.text
  13              	.Ltext0:
  14              		.cfi_sections	.debug_frame
  15              		.section	.bss.test_heap,"aw",%nobits
  16              		.align	3
  17              		.type	test_heap, %object
  18              		.size	test_heap, 32
  19              	test_heap:
  20 0000 00000000 		.space	32
  20      00000000 
  20      00000000 
  20      00000000 
  20      00000000 
  21              		.section	.text.heap1_setup,"ax",%progbits
  22              		.align	1
  23              		.p2align 4,,15
  24              		.syntax unified
  25              		.code	16
  26              		.thumb_func
  27              		.fpu softvfp
  28              		.type	heap1_setup, %function
  29              	heap1_setup:
  30              	.LFB152:
  31              		.file 1 "ChibiOS/test/rt/testheap.c"
  32              		.loc 1 64 0
  33              		.cfi_startproc
  34              		@ args = 0, pretend = 0, frame = 0
  35              		@ frame_needed = 0, uses_anonymous_args = 0
  36 0000 10B5     		push	{r4, lr}
  37              		.cfi_def_cfa_offset 8
  38              		.cfi_offset 4, -8
  39              		.cfi_offset 14, -4
  40              		.loc 1 66 0
  41 0002 D223     		movs	r3, #210
  42 0004 DA00     		lsls	r2, r3, #3
  43 0006 0349     		ldr	r1, .L2
  44 0008 034B     		ldr	r3, .L2+4
  45 000a 1800     		movs	r0, r3
  46 000c FFF7FEFF 		bl	chHeapObjectInit
  47              		.loc 1 67 0
  48 0010 C046     		nop
  49              		@ sp needed
  50 0012 10BD     		pop	{r4, pc}
  51              	.L3:
  52              		.align	2
  53              	.L2:
ARM GAS  /tmp/ccinRW2a.s 			page 2


  54 0014 00000000 		.word	test
  55 0018 00000000 		.word	test_heap
  56              		.cfi_endproc
  57              	.LFE152:
  58              		.size	heap1_setup, .-heap1_setup
  59              		.section	.text.heap1_execute,"ax",%progbits
  60              		.align	1
  61              		.p2align 4,,15
  62              		.syntax unified
  63              		.code	16
  64              		.thumb_func
  65              		.fpu softvfp
  66              		.type	heap1_execute, %function
  67              	heap1_execute:
  68              	.LFB153:
  69              		.loc 1 69 0
  70              		.cfi_startproc
  71              		@ args = 0, pretend = 0, frame = 24
  72              		@ frame_needed = 0, uses_anonymous_args = 0
  73 0000 00B5     		push	{lr}
  74              		.cfi_def_cfa_offset 4
  75              		.cfi_offset 14, -4
  76 0002 87B0     		sub	sp, sp, #28
  77              		.cfi_def_cfa_offset 32
  78              		.loc 1 74 0
  79 0004 FFF7FEFF 		bl	chCoreGetStatusX
  80              		.loc 1 80 0
  81 0008 01AB     		add	r3, sp, #4
  82 000a 1900     		movs	r1, r3
  83 000c 0020     		movs	r0, #0
  84 000e FFF7FEFF 		bl	chHeapStatus
  85              		.loc 1 81 0
  86 0012 1021     		movs	r1, #16
  87 0014 0020     		movs	r0, #0
  88 0016 FFF7FEFF 		bl	chHeapAlloc
  89 001a 0300     		movs	r3, r0
  90 001c 0593     		str	r3, [sp, #20]
  91              		.loc 1 82 0
  92 001e 059B     		ldr	r3, [sp, #20]
  93 0020 5A1E     		subs	r2, r3, #1
  94 0022 9341     		sbcs	r3, r3, r2
  95 0024 DBB2     		uxtb	r3, r3
  96 0026 1900     		movs	r1, r3
  97 0028 0120     		movs	r0, #1
  98 002a FFF7FEFF 		bl	_test_assert
  99 002e 031E     		subs	r3, r0, #0
 100 0030 00D0     		beq	.LCB54
 101 0032 67E1     		b	.L22	@long jump
 102              	.LCB54:
 103              		.loc 1 83 0
 104 0034 059B     		ldr	r3, [sp, #20]
 105 0036 1800     		movs	r0, r3
 106 0038 FFF7FEFF 		bl	chHeapFree
 107              		.loc 1 84 0
 108 003c BD4B     		ldr	r3, .L33
 109 003e 1900     		movs	r1, r3
 110 0040 0020     		movs	r0, #0
ARM GAS  /tmp/ccinRW2a.s 			page 3


 111 0042 FFF7FEFF 		bl	chHeapAlloc
 112 0046 0300     		movs	r3, r0
 113 0048 0593     		str	r3, [sp, #20]
 114              		.loc 1 85 0
 115 004a 059B     		ldr	r3, [sp, #20]
 116 004c 5A42     		rsbs	r2, r3, #0
 117 004e 5341     		adcs	r3, r3, r2
 118 0050 DBB2     		uxtb	r3, r3
 119 0052 1900     		movs	r1, r3
 120 0054 0220     		movs	r0, #2
 121 0056 FFF7FEFF 		bl	_test_assert
 122 005a 031E     		subs	r3, r0, #0
 123 005c 00D0     		beq	.LCB72
 124 005e 53E1     		b	.L23	@long jump
 125              	.LCB72:
 126              		.loc 1 88 0
 127 0060 01AA     		add	r2, sp, #4
 128 0062 B54B     		ldr	r3, .L33+4
 129 0064 1100     		movs	r1, r2
 130 0066 1800     		movs	r0, r3
 131 0068 FFF7FEFF 		bl	chHeapStatus
 132              		.loc 1 91 0
 133 006c B24B     		ldr	r3, .L33+4
 134 006e 1021     		movs	r1, #16
 135 0070 1800     		movs	r0, r3
 136 0072 FFF7FEFF 		bl	chHeapAlloc
 137 0076 0300     		movs	r3, r0
 138 0078 0593     		str	r3, [sp, #20]
 139              		.loc 1 92 0
 140 007a AF4B     		ldr	r3, .L33+4
 141 007c 1021     		movs	r1, #16
 142 007e 1800     		movs	r0, r3
 143 0080 FFF7FEFF 		bl	chHeapAlloc
 144 0084 0300     		movs	r3, r0
 145 0086 0493     		str	r3, [sp, #16]
 146              		.loc 1 93 0
 147 0088 AB4B     		ldr	r3, .L33+4
 148 008a 1021     		movs	r1, #16
 149 008c 1800     		movs	r0, r3
 150 008e FFF7FEFF 		bl	chHeapAlloc
 151 0092 0300     		movs	r3, r0
 152 0094 0393     		str	r3, [sp, #12]
 153              		.loc 1 94 0
 154 0096 059B     		ldr	r3, [sp, #20]
 155 0098 1800     		movs	r0, r3
 156 009a FFF7FEFF 		bl	chHeapFree
 157              		.loc 1 95 0
 158 009e 049B     		ldr	r3, [sp, #16]
 159 00a0 1800     		movs	r0, r3
 160 00a2 FFF7FEFF 		bl	chHeapFree
 161              		.loc 1 96 0
 162 00a6 039B     		ldr	r3, [sp, #12]
 163 00a8 1800     		movs	r0, r3
 164 00aa FFF7FEFF 		bl	chHeapFree
 165              		.loc 1 97 0
 166 00ae 02AA     		add	r2, sp, #8
 167 00b0 A14B     		ldr	r3, .L33+4
ARM GAS  /tmp/ccinRW2a.s 			page 4


 168 00b2 1100     		movs	r1, r2
 169 00b4 1800     		movs	r0, r3
 170 00b6 FFF7FEFF 		bl	chHeapStatus
 171 00ba 0300     		movs	r3, r0
 172 00bc 013B     		subs	r3, r3, #1
 173 00be 5A42     		rsbs	r2, r3, #0
 174 00c0 5341     		adcs	r3, r3, r2
 175 00c2 DBB2     		uxtb	r3, r3
 176 00c4 1900     		movs	r1, r3
 177 00c6 0320     		movs	r0, #3
 178 00c8 FFF7FEFF 		bl	_test_assert
 179 00cc 031E     		subs	r3, r0, #0
 180 00ce 00D0     		beq	.LCB119
 181 00d0 1CE1     		b	.L24	@long jump
 182              	.LCB119:
 183              		.loc 1 100 0
 184 00d2 994B     		ldr	r3, .L33+4
 185 00d4 1021     		movs	r1, #16
 186 00d6 1800     		movs	r0, r3
 187 00d8 FFF7FEFF 		bl	chHeapAlloc
 188 00dc 0300     		movs	r3, r0
 189 00de 0593     		str	r3, [sp, #20]
 190              		.loc 1 101 0
 191 00e0 954B     		ldr	r3, .L33+4
 192 00e2 1021     		movs	r1, #16
 193 00e4 1800     		movs	r0, r3
 194 00e6 FFF7FEFF 		bl	chHeapAlloc
 195 00ea 0300     		movs	r3, r0
 196 00ec 0493     		str	r3, [sp, #16]
 197              		.loc 1 102 0
 198 00ee 924B     		ldr	r3, .L33+4
 199 00f0 1021     		movs	r1, #16
 200 00f2 1800     		movs	r0, r3
 201 00f4 FFF7FEFF 		bl	chHeapAlloc
 202 00f8 0300     		movs	r3, r0
 203 00fa 0393     		str	r3, [sp, #12]
 204              		.loc 1 103 0
 205 00fc 039B     		ldr	r3, [sp, #12]
 206 00fe 1800     		movs	r0, r3
 207 0100 FFF7FEFF 		bl	chHeapFree
 208              		.loc 1 104 0
 209 0104 049B     		ldr	r3, [sp, #16]
 210 0106 1800     		movs	r0, r3
 211 0108 FFF7FEFF 		bl	chHeapFree
 212              		.loc 1 105 0
 213 010c 059B     		ldr	r3, [sp, #20]
 214 010e 1800     		movs	r0, r3
 215 0110 FFF7FEFF 		bl	chHeapFree
 216              		.loc 1 106 0
 217 0114 02AA     		add	r2, sp, #8
 218 0116 884B     		ldr	r3, .L33+4
 219 0118 1100     		movs	r1, r2
 220 011a 1800     		movs	r0, r3
 221 011c FFF7FEFF 		bl	chHeapStatus
 222 0120 0300     		movs	r3, r0
 223 0122 013B     		subs	r3, r3, #1
 224 0124 5A42     		rsbs	r2, r3, #0
ARM GAS  /tmp/ccinRW2a.s 			page 5


 225 0126 5341     		adcs	r3, r3, r2
 226 0128 DBB2     		uxtb	r3, r3
 227 012a 1900     		movs	r1, r3
 228 012c 0420     		movs	r0, #4
 229 012e FFF7FEFF 		bl	_test_assert
 230 0132 031E     		subs	r3, r0, #0
 231 0134 00D0     		beq	.LCB161
 232 0136 EBE0     		b	.L25	@long jump
 233              	.LCB161:
 234              		.loc 1 109 0
 235 0138 7F4B     		ldr	r3, .L33+4
 236 013a 1121     		movs	r1, #17
 237 013c 1800     		movs	r0, r3
 238 013e FFF7FEFF 		bl	chHeapAlloc
 239 0142 0300     		movs	r3, r0
 240 0144 0593     		str	r3, [sp, #20]
 241              		.loc 1 110 0
 242 0146 7C4B     		ldr	r3, .L33+4
 243 0148 1021     		movs	r1, #16
 244 014a 1800     		movs	r0, r3
 245 014c FFF7FEFF 		bl	chHeapAlloc
 246 0150 0300     		movs	r3, r0
 247 0152 0493     		str	r3, [sp, #16]
 248              		.loc 1 111 0
 249 0154 059B     		ldr	r3, [sp, #20]
 250 0156 1800     		movs	r0, r3
 251 0158 FFF7FEFF 		bl	chHeapFree
 252              		.loc 1 112 0
 253 015c 02AA     		add	r2, sp, #8
 254 015e 764B     		ldr	r3, .L33+4
 255 0160 1100     		movs	r1, r2
 256 0162 1800     		movs	r0, r3
 257 0164 FFF7FEFF 		bl	chHeapStatus
 258 0168 0300     		movs	r3, r0
 259 016a 023B     		subs	r3, r3, #2
 260 016c 5A42     		rsbs	r2, r3, #0
 261 016e 5341     		adcs	r3, r3, r2
 262 0170 DBB2     		uxtb	r3, r3
 263 0172 1900     		movs	r1, r3
 264 0174 0520     		movs	r0, #5
 265 0176 FFF7FEFF 		bl	_test_assert
 266 017a 031E     		subs	r3, r0, #0
 267 017c 00D0     		beq	.LCB191
 268 017e C9E0     		b	.L26	@long jump
 269              	.LCB191:
 270              		.loc 1 113 0
 271 0180 6D4B     		ldr	r3, .L33+4
 272 0182 1021     		movs	r1, #16
 273 0184 1800     		movs	r0, r3
 274 0186 FFF7FEFF 		bl	chHeapAlloc
 275 018a 0300     		movs	r3, r0
 276 018c 0593     		str	r3, [sp, #20]
 277              		.loc 1 116 0
 278 018e 02AA     		add	r2, sp, #8
 279 0190 694B     		ldr	r3, .L33+4
 280 0192 1100     		movs	r1, r2
 281 0194 1800     		movs	r0, r3
ARM GAS  /tmp/ccinRW2a.s 			page 6


 282 0196 FFF7FEFF 		bl	chHeapStatus
 283 019a 0300     		movs	r3, r0
 284 019c 012B     		cmp	r3, #1
 285 019e 08D0     		beq	.L11
 286              		.loc 1 116 0 is_stmt 0 discriminator 2
 287 01a0 02AA     		add	r2, sp, #8
 288 01a2 654B     		ldr	r3, .L33+4
 289 01a4 1100     		movs	r1, r2
 290 01a6 1800     		movs	r0, r3
 291 01a8 FFF7FEFF 		bl	chHeapStatus
 292 01ac 0300     		movs	r3, r0
 293 01ae 022B     		cmp	r3, #2
 294 01b0 01D1     		bne	.L12
 295              	.L11:
 296              		.loc 1 116 0 discriminator 3
 297 01b2 0123     		movs	r3, #1
 298 01b4 00E0     		b	.L13
 299              	.L12:
 300              		.loc 1 116 0 discriminator 4
 301 01b6 0023     		movs	r3, #0
 302              	.L13:
 303              		.loc 1 116 0 discriminator 6
 304 01b8 1A1C     		adds	r2, r3, #0
 305 01ba 0123     		movs	r3, #1
 306 01bc 1340     		ands	r3, r2
 307 01be DBB2     		uxtb	r3, r3
 308 01c0 1900     		movs	r1, r3
 309 01c2 0620     		movs	r0, #6
 310 01c4 FFF7FEFF 		bl	_test_assert
 311 01c8 031E     		subs	r3, r0, #0
 312 01ca 00D0     		beq	.LCB232
 313 01cc A4E0     		b	.L27	@long jump
 314              	.LCB232:
 315              		.loc 1 118 0 is_stmt 1
 316 01ce 049B     		ldr	r3, [sp, #16]
 317 01d0 1800     		movs	r0, r3
 318 01d2 FFF7FEFF 		bl	chHeapFree
 319              		.loc 1 119 0
 320 01d6 059B     		ldr	r3, [sp, #20]
 321 01d8 1800     		movs	r0, r3
 322 01da FFF7FEFF 		bl	chHeapFree
 323              		.loc 1 120 0
 324 01de 02AA     		add	r2, sp, #8
 325 01e0 554B     		ldr	r3, .L33+4
 326 01e2 1100     		movs	r1, r2
 327 01e4 1800     		movs	r0, r3
 328 01e6 FFF7FEFF 		bl	chHeapStatus
 329 01ea 0300     		movs	r3, r0
 330 01ec 013B     		subs	r3, r3, #1
 331 01ee 5A42     		rsbs	r2, r3, #0
 332 01f0 5341     		adcs	r3, r3, r2
 333 01f2 DBB2     		uxtb	r3, r3
 334 01f4 1900     		movs	r1, r3
 335 01f6 0720     		movs	r0, #7
 336 01f8 FFF7FEFF 		bl	_test_assert
 337 01fc 031E     		subs	r3, r0, #0
 338 01fe 00D0     		beq	.LCB253
ARM GAS  /tmp/ccinRW2a.s 			page 7


 339 0200 8CE0     		b	.L28	@long jump
 340              	.LCB253:
 341              		.loc 1 123 0
 342 0202 4D4B     		ldr	r3, .L33+4
 343 0204 1021     		movs	r1, #16
 344 0206 1800     		movs	r0, r3
 345 0208 FFF7FEFF 		bl	chHeapAlloc
 346 020c 0300     		movs	r3, r0
 347 020e 0593     		str	r3, [sp, #20]
 348              		.loc 1 124 0
 349 0210 494B     		ldr	r3, .L33+4
 350 0212 1021     		movs	r1, #16
 351 0214 1800     		movs	r0, r3
 352 0216 FFF7FEFF 		bl	chHeapAlloc
 353 021a 0300     		movs	r3, r0
 354 021c 0493     		str	r3, [sp, #16]
 355              		.loc 1 125 0
 356 021e 059B     		ldr	r3, [sp, #20]
 357 0220 1800     		movs	r0, r3
 358 0222 FFF7FEFF 		bl	chHeapFree
 359              		.loc 1 126 0
 360 0226 02AA     		add	r2, sp, #8
 361 0228 434B     		ldr	r3, .L33+4
 362 022a 1100     		movs	r1, r2
 363 022c 1800     		movs	r0, r3
 364 022e FFF7FEFF 		bl	chHeapStatus
 365 0232 0300     		movs	r3, r0
 366 0234 023B     		subs	r3, r3, #2
 367 0236 5A42     		rsbs	r2, r3, #0
 368 0238 5341     		adcs	r3, r3, r2
 369 023a DBB2     		uxtb	r3, r3
 370 023c 1900     		movs	r1, r3
 371 023e 0820     		movs	r0, #8
 372 0240 FFF7FEFF 		bl	_test_assert
 373 0244 031E     		subs	r3, r0, #0
 374 0246 6BD1     		bne	.L29
 375              		.loc 1 127 0
 376 0248 3B4B     		ldr	r3, .L33+4
 377 024a 2021     		movs	r1, #32
 378 024c 1800     		movs	r0, r3
 379 024e FFF7FEFF 		bl	chHeapAlloc
 380 0252 0300     		movs	r3, r0
 381 0254 0593     		str	r3, [sp, #20]
 382              		.loc 1 128 0
 383 0256 059B     		ldr	r3, [sp, #20]
 384 0258 1800     		movs	r0, r3
 385 025a FFF7FEFF 		bl	chHeapFree
 386              		.loc 1 129 0
 387 025e 049B     		ldr	r3, [sp, #16]
 388 0260 1800     		movs	r0, r3
 389 0262 FFF7FEFF 		bl	chHeapFree
 390              		.loc 1 130 0
 391 0266 02AA     		add	r2, sp, #8
 392 0268 334B     		ldr	r3, .L33+4
 393 026a 1100     		movs	r1, r2
 394 026c 1800     		movs	r0, r3
 395 026e FFF7FEFF 		bl	chHeapStatus
ARM GAS  /tmp/ccinRW2a.s 			page 8


 396 0272 0300     		movs	r3, r0
 397 0274 013B     		subs	r3, r3, #1
 398 0276 5A42     		rsbs	r2, r3, #0
 399 0278 5341     		adcs	r3, r3, r2
 400 027a DBB2     		uxtb	r3, r3
 401 027c 1900     		movs	r1, r3
 402 027e 0920     		movs	r0, #9
 403 0280 FFF7FEFF 		bl	_test_assert
 404 0284 031E     		subs	r3, r0, #0
 405 0286 4DD1     		bne	.L30
 406              		.loc 1 133 0
 407 0288 02AA     		add	r2, sp, #8
 408 028a 2B4B     		ldr	r3, .L33+4
 409 028c 1100     		movs	r1, r2
 410 028e 1800     		movs	r0, r3
 411 0290 FFF7FEFF 		bl	chHeapStatus
 412              		.loc 1 134 0
 413 0294 029A     		ldr	r2, [sp, #8]
 414 0296 284B     		ldr	r3, .L33+4
 415 0298 1100     		movs	r1, r2
 416 029a 1800     		movs	r0, r3
 417 029c FFF7FEFF 		bl	chHeapAlloc
 418 02a0 0300     		movs	r3, r0
 419 02a2 0593     		str	r3, [sp, #20]
 420              		.loc 1 135 0
 421 02a4 02AA     		add	r2, sp, #8
 422 02a6 244B     		ldr	r3, .L33+4
 423 02a8 1100     		movs	r1, r2
 424 02aa 1800     		movs	r0, r3
 425 02ac FFF7FEFF 		bl	chHeapStatus
 426 02b0 0300     		movs	r3, r0
 427 02b2 5A42     		rsbs	r2, r3, #0
 428 02b4 5341     		adcs	r3, r3, r2
 429 02b6 DBB2     		uxtb	r3, r3
 430 02b8 1900     		movs	r1, r3
 431 02ba 0A20     		movs	r0, #10
 432 02bc FFF7FEFF 		bl	_test_assert
 433 02c0 031E     		subs	r3, r0, #0
 434 02c2 31D1     		bne	.L31
 435              		.loc 1 136 0
 436 02c4 059B     		ldr	r3, [sp, #20]
 437 02c6 1800     		movs	r0, r3
 438 02c8 FFF7FEFF 		bl	chHeapFree
 439              		.loc 1 138 0
 440 02cc 02AA     		add	r2, sp, #8
 441 02ce 1A4B     		ldr	r3, .L33+4
 442 02d0 1100     		movs	r1, r2
 443 02d2 1800     		movs	r0, r3
 444 02d4 FFF7FEFF 		bl	chHeapStatus
 445 02d8 0300     		movs	r3, r0
 446 02da 013B     		subs	r3, r3, #1
 447 02dc 5A42     		rsbs	r2, r3, #0
 448 02de 5341     		adcs	r3, r3, r2
 449 02e0 DBB2     		uxtb	r3, r3
 450 02e2 1900     		movs	r1, r3
 451 02e4 0B20     		movs	r0, #11
 452 02e6 FFF7FEFF 		bl	_test_assert
ARM GAS  /tmp/ccinRW2a.s 			page 9


 453 02ea 031E     		subs	r3, r0, #0
 454 02ec 1ED1     		bne	.L32
 455              		.loc 1 139 0
 456 02ee 029A     		ldr	r2, [sp, #8]
 457 02f0 019B     		ldr	r3, [sp, #4]
 458 02f2 D31A     		subs	r3, r2, r3
 459 02f4 5A42     		rsbs	r2, r3, #0
 460 02f6 5341     		adcs	r3, r3, r2
 461 02f8 DBB2     		uxtb	r3, r3
 462 02fa 1900     		movs	r1, r3
 463 02fc 0C20     		movs	r0, #12
 464 02fe FFF7FEFF 		bl	_test_assert
 465 0302 14E0     		b	.L4
 466              	.L22:
 467              		.loc 1 82 0
 468 0304 C046     		nop
 469 0306 12E0     		b	.L4
 470              	.L23:
 471              		.loc 1 85 0
 472 0308 C046     		nop
 473 030a 10E0     		b	.L4
 474              	.L24:
 475              		.loc 1 97 0
 476 030c C046     		nop
 477 030e 0EE0     		b	.L4
 478              	.L25:
 479              		.loc 1 106 0
 480 0310 C046     		nop
 481 0312 0CE0     		b	.L4
 482              	.L26:
 483              		.loc 1 112 0
 484 0314 C046     		nop
 485 0316 0AE0     		b	.L4
 486              	.L27:
 487              		.loc 1 116 0
 488 0318 C046     		nop
 489 031a 08E0     		b	.L4
 490              	.L28:
 491              		.loc 1 120 0
 492 031c C046     		nop
 493 031e 06E0     		b	.L4
 494              	.L29:
 495              		.loc 1 126 0
 496 0320 C046     		nop
 497 0322 04E0     		b	.L4
 498              	.L30:
 499              		.loc 1 130 0
 500 0324 C046     		nop
 501 0326 02E0     		b	.L4
 502              	.L31:
 503              		.loc 1 135 0
 504 0328 C046     		nop
 505 032a 00E0     		b	.L4
 506              	.L32:
 507              		.loc 1 138 0
 508 032c C046     		nop
 509              	.L4:
ARM GAS  /tmp/ccinRW2a.s 			page 10


 510              		.loc 1 140 0
 511 032e 07B0     		add	sp, sp, #28
 512              		@ sp needed
 513 0330 00BD     		pop	{pc}
 514              	.L34:
 515 0332 C046     		.align	2
 516              	.L33:
 517 0334 00FFFFFF 		.word	-256
 518 0338 00000000 		.word	test_heap
 519              		.cfi_endproc
 520              	.LFE153:
 521              		.size	heap1_execute, .-heap1_execute
 522              		.global	testheap1
 523              		.section	.rodata
 524              		.align	2
 525              	.LC3:
 526 0000 48656170 		.ascii	"Heap, allocation and fragmentation test\000"
 526      2C20616C 
 526      6C6F6361 
 526      74696F6E 
 526      20616E64 
 527              		.section	.rodata.testheap1,"a",%progbits
 528              		.align	2
 529              		.type	testheap1, %object
 530              		.size	testheap1, 16
 531              	testheap1:
 532 0000 00000000 		.word	.LC3
 533 0004 00000000 		.word	heap1_setup
 534 0008 00000000 		.word	0
 535 000c 00000000 		.word	heap1_execute
 536              		.global	patternheap
 537              		.section	.rodata.patternheap,"a",%progbits
 538              		.align	2
 539              		.type	patternheap, %object
 540              		.size	patternheap, 8
 541              	patternheap:
 542 0000 00000000 		.word	testheap1
 543 0004 00000000 		.word	0
 544              		.text
 545              	.Letext0:
 546              		.file 2 "/home/felix/opt/gcc-arm-none-eabi-6-2017-q1-update/lib/gcc/arm-none-eabi/6.3.1/include/st
 547              		.file 3 "/home/felix/opt/gcc-arm-none-eabi-6-2017-q1-update/arm-none-eabi/include/machine/_default
 548              		.file 4 "/home/felix/opt/gcc-arm-none-eabi-6-2017-q1-update/arm-none-eabi/include/sys/_stdint.h"
 549              		.file 5 "ChibiOS/os/rt/ports/ARMCMx/compilers/GCC/chtypes.h"
 550              		.file 6 "ChibiOS/os/rt/include/chsystypes.h"
 551              		.file 7 "ChibiOS/os/rt/include/chschd.h"
 552              		.file 8 "ChibiOS/os/rt/ports/ARMCMx/chcore.h"
 553              		.file 9 "ChibiOS/os/rt/ports/ARMCMx/chcore_v6m.h"
 554              		.file 10 "ChibiOS/os/rt/include/chdebug.h"
 555              		.file 11 "ChibiOS/os/rt/include/chsem.h"
 556              		.file 12 "ChibiOS/os/rt/include/chmtx.h"
 557              		.file 13 "ChibiOS/os/rt/include/chregistry.h"
 558              		.file 14 "ChibiOS/os/ext/CMSIS/ST/STM32F0xx/system_stm32f0xx.h"
 559              		.file 15 "ChibiOS/os/rt/include/chmemcore.h"
 560              		.file 16 "ChibiOS/os/rt/include/chheap.h"
 561              		.file 17 "ChibiOS/test/rt/test.h"
 562              		.section	.debug_info,"",%progbits
ARM GAS  /tmp/ccinRW2a.s 			page 11


 563              	.Ldebug_info0:
 564 0000 A10A0000 		.4byte	0xaa1
 565 0004 0400     		.2byte	0x4
 566 0006 00000000 		.4byte	.Ldebug_abbrev0
 567 000a 04       		.byte	0x4
 568 000b 01       		.uleb128 0x1
 569 000c BE020000 		.4byte	.LASF162
 570 0010 0C       		.byte	0xc
 571 0011 41000000 		.4byte	.LASF163
 572 0015 81010000 		.4byte	.LASF164
 573 0019 00000000 		.4byte	.Ldebug_ranges0+0
 574 001d 00000000 		.4byte	0
 575 0021 00000000 		.4byte	.Ldebug_line0
 576 0025 02       		.uleb128 0x2
 577 0026 04       		.byte	0x4
 578 0027 05       		.byte	0x5
 579 0028 696E7400 		.ascii	"int\000"
 580 002c 03       		.uleb128 0x3
 581 002d 8D020000 		.4byte	.LASF4
 582 0031 02       		.byte	0x2
 583 0032 D8       		.byte	0xd8
 584 0033 37000000 		.4byte	0x37
 585 0037 04       		.uleb128 0x4
 586 0038 04       		.byte	0x4
 587 0039 07       		.byte	0x7
 588 003a AA000000 		.4byte	.LASF0
 589 003e 04       		.uleb128 0x4
 590 003f 08       		.byte	0x8
 591 0040 05       		.byte	0x5
 592 0041 7E040000 		.4byte	.LASF1
 593 0045 04       		.uleb128 0x4
 594 0046 08       		.byte	0x8
 595 0047 04       		.byte	0x4
 596 0048 3A050000 		.4byte	.LASF2
 597 004c 04       		.uleb128 0x4
 598 004d 01       		.byte	0x1
 599 004e 06       		.byte	0x6
 600 004f 2D070000 		.4byte	.LASF3
 601 0053 03       		.uleb128 0x3
 602 0054 FE050000 		.4byte	.LASF5
 603 0058 03       		.byte	0x3
 604 0059 2B       		.byte	0x2b
 605 005a 5E000000 		.4byte	0x5e
 606 005e 04       		.uleb128 0x4
 607 005f 01       		.byte	0x1
 608 0060 08       		.byte	0x8
 609 0061 B1060000 		.4byte	.LASF6
 610 0065 04       		.uleb128 0x4
 611 0066 02       		.byte	0x2
 612 0067 05       		.byte	0x5
 613 0068 78050000 		.4byte	.LASF7
 614 006c 03       		.uleb128 0x3
 615 006d 2F020000 		.4byte	.LASF8
 616 0071 03       		.byte	0x3
 617 0072 39       		.byte	0x39
 618 0073 77000000 		.4byte	0x77
 619 0077 04       		.uleb128 0x4
ARM GAS  /tmp/ccinRW2a.s 			page 12


 620 0078 02       		.byte	0x2
 621 0079 07       		.byte	0x7
 622 007a 46070000 		.4byte	.LASF9
 623 007e 03       		.uleb128 0x3
 624 007f D7000000 		.4byte	.LASF10
 625 0083 03       		.byte	0x3
 626 0084 4D       		.byte	0x4d
 627 0085 89000000 		.4byte	0x89
 628 0089 04       		.uleb128 0x4
 629 008a 04       		.byte	0x4
 630 008b 05       		.byte	0x5
 631 008c AB050000 		.4byte	.LASF11
 632 0090 03       		.uleb128 0x3
 633 0091 C5060000 		.4byte	.LASF12
 634 0095 03       		.byte	0x3
 635 0096 4F       		.byte	0x4f
 636 0097 9B000000 		.4byte	0x9b
 637 009b 04       		.uleb128 0x4
 638 009c 04       		.byte	0x4
 639 009d 07       		.byte	0x7
 640 009e 4A060000 		.4byte	.LASF13
 641 00a2 03       		.uleb128 0x3
 642 00a3 95030000 		.4byte	.LASF14
 643 00a7 03       		.byte	0x3
 644 00a8 69       		.byte	0x69
 645 00a9 AD000000 		.4byte	0xad
 646 00ad 04       		.uleb128 0x4
 647 00ae 08       		.byte	0x8
 648 00af 07       		.byte	0x7
 649 00b0 F3010000 		.4byte	.LASF15
 650 00b4 03       		.uleb128 0x3
 651 00b5 2B040000 		.4byte	.LASF16
 652 00b9 04       		.byte	0x4
 653 00ba 18       		.byte	0x18
 654 00bb 53000000 		.4byte	0x53
 655 00bf 03       		.uleb128 0x3
 656 00c0 46050000 		.4byte	.LASF17
 657 00c4 04       		.byte	0x4
 658 00c5 24       		.byte	0x24
 659 00c6 6C000000 		.4byte	0x6c
 660 00ca 03       		.uleb128 0x3
 661 00cb 7E060000 		.4byte	.LASF18
 662 00cf 04       		.byte	0x4
 663 00d0 2C       		.byte	0x2c
 664 00d1 7E000000 		.4byte	0x7e
 665 00d5 03       		.uleb128 0x3
 666 00d6 9E010000 		.4byte	.LASF19
 667 00da 04       		.byte	0x4
 668 00db 30       		.byte	0x30
 669 00dc 90000000 		.4byte	0x90
 670 00e0 03       		.uleb128 0x3
 671 00e1 D1050000 		.4byte	.LASF20
 672 00e5 04       		.byte	0x4
 673 00e6 3C       		.byte	0x3c
 674 00e7 A2000000 		.4byte	0xa2
 675 00eb 03       		.uleb128 0x3
 676 00ec 1F050000 		.4byte	.LASF21
ARM GAS  /tmp/ccinRW2a.s 			page 13


 677 00f0 05       		.byte	0x5
 678 00f1 3C       		.byte	0x3c
 679 00f2 B4000000 		.4byte	0xb4
 680 00f6 03       		.uleb128 0x3
 681 00f7 01040000 		.4byte	.LASF22
 682 00fb 05       		.byte	0x5
 683 00fc 3D       		.byte	0x3d
 684 00fd B4000000 		.4byte	0xb4
 685 0101 03       		.uleb128 0x3
 686 0102 42060000 		.4byte	.LASF23
 687 0106 05       		.byte	0x5
 688 0107 3E       		.byte	0x3e
 689 0108 B4000000 		.4byte	0xb4
 690 010c 03       		.uleb128 0x3
 691 010d DA010000 		.4byte	.LASF24
 692 0111 05       		.byte	0x5
 693 0112 40       		.byte	0x40
 694 0113 D5000000 		.4byte	0xd5
 695 0117 03       		.uleb128 0x3
 696 0118 9C040000 		.4byte	.LASF25
 697 011c 05       		.byte	0x5
 698 011d 41       		.byte	0x41
 699 011e CA000000 		.4byte	0xca
 700 0122 03       		.uleb128 0x3
 701 0123 B3010000 		.4byte	.LASF26
 702 0127 05       		.byte	0x5
 703 0128 43       		.byte	0x43
 704 0129 D5000000 		.4byte	0xd5
 705 012d 03       		.uleb128 0x3
 706 012e 3A020000 		.4byte	.LASF27
 707 0132 05       		.byte	0x5
 708 0133 45       		.byte	0x45
 709 0134 CA000000 		.4byte	0xca
 710 0138 03       		.uleb128 0x3
 711 0139 71000000 		.4byte	.LASF28
 712 013d 06       		.byte	0x6
 713 013e 35       		.byte	0x35
 714 013f BF000000 		.4byte	0xbf
 715 0143 03       		.uleb128 0x3
 716 0144 78020000 		.4byte	.LASF29
 717 0148 06       		.byte	0x6
 718 0149 3F       		.byte	0x3f
 719 014a 4E010000 		.4byte	0x14e
 720 014e 05       		.uleb128 0x5
 721 014f 4F040000 		.4byte	.LASF50
 722 0153 48       		.byte	0x48
 723 0154 07       		.byte	0x7
 724 0155 C2       		.byte	0xc2
 725 0156 47020000 		.4byte	0x247
 726 015a 06       		.uleb128 0x6
 727 015b CA050000 		.4byte	.LASF30
 728 015f 07       		.byte	0x7
 729 0160 C3       		.byte	0xc3
 730 0161 52020000 		.4byte	0x252
 731 0165 00       		.byte	0
 732 0166 06       		.uleb128 0x6
 733 0167 28060000 		.4byte	.LASF31
ARM GAS  /tmp/ccinRW2a.s 			page 14


 734 016b 07       		.byte	0x7
 735 016c C5       		.byte	0xc5
 736 016d 52020000 		.4byte	0x252
 737 0171 04       		.byte	0x4
 738 0172 06       		.uleb128 0x6
 739 0173 6A000000 		.4byte	.LASF32
 740 0177 07       		.byte	0x7
 741 0178 C7       		.byte	0xc7
 742 0179 0C010000 		.4byte	0x10c
 743 017d 08       		.byte	0x8
 744 017e 06       		.uleb128 0x6
 745 017f DA050000 		.4byte	.LASF33
 746 0183 07       		.byte	0x7
 747 0184 C8       		.byte	0xc8
 748 0185 B0040000 		.4byte	0x4b0
 749 0189 0C       		.byte	0xc
 750 018a 06       		.uleb128 0x6
 751 018b 51020000 		.4byte	.LASF34
 752 018f 07       		.byte	0x7
 753 0190 CA       		.byte	0xca
 754 0191 52020000 		.4byte	0x252
 755 0195 10       		.byte	0x10
 756 0196 06       		.uleb128 0x6
 757 0197 10040000 		.4byte	.LASF35
 758 019b 07       		.byte	0x7
 759 019c CB       		.byte	0xcb
 760 019d 52020000 		.4byte	0x252
 761 01a1 14       		.byte	0x14
 762 01a2 06       		.uleb128 0x6
 763 01a3 BB030000 		.4byte	.LASF36
 764 01a7 07       		.byte	0x7
 765 01a8 D2       		.byte	0xd2
 766 01a9 99060000 		.4byte	0x699
 767 01ad 18       		.byte	0x18
 768 01ae 06       		.uleb128 0x6
 769 01af 20040000 		.4byte	.LASF37
 770 01b3 07       		.byte	0x7
 771 01b4 D8       		.byte	0xd8
 772 01b5 B0060000 		.4byte	0x6b0
 773 01b9 1C       		.byte	0x1c
 774 01ba 06       		.uleb128 0x6
 775 01bb 18040000 		.4byte	.LASF38
 776 01bf 07       		.byte	0x7
 777 01c0 DD       		.byte	0xdd
 778 01c1 F6000000 		.4byte	0xf6
 779 01c5 20       		.byte	0x20
 780 01c6 06       		.uleb128 0x6
 781 01c7 C1040000 		.4byte	.LASF39
 782 01cb 07       		.byte	0x7
 783 01cc E1       		.byte	0xe1
 784 01cd EB000000 		.4byte	0xeb
 785 01d1 21       		.byte	0x21
 786 01d2 06       		.uleb128 0x6
 787 01d3 E6060000 		.4byte	.LASF40
 788 01d7 07       		.byte	0x7
 789 01d8 E6       		.byte	0xe6
 790 01d9 01010000 		.4byte	0x101
ARM GAS  /tmp/ccinRW2a.s 			page 15


 791 01dd 22       		.byte	0x22
 792 01de 07       		.uleb128 0x7
 793 01df 705F7500 		.ascii	"p_u\000"
 794 01e3 07       		.byte	0x7
 795 01e4 3101     		.2byte	0x131
 796 01e6 D4050000 		.4byte	0x5d4
 797 01ea 24       		.byte	0x24
 798 01eb 08       		.uleb128 0x8
 799 01ec 20000000 		.4byte	.LASF41
 800 01f0 07       		.byte	0x7
 801 01f1 3601     		.2byte	0x136
 802 01f3 58020000 		.4byte	0x258
 803 01f7 28       		.byte	0x28
 804 01f8 08       		.uleb128 0x8
 805 01f9 9F000000 		.4byte	.LASF42
 806 01fd 07       		.byte	0x7
 807 01fe 3C01     		.2byte	0x13c
 808 0200 7C020000 		.4byte	0x27c
 809 0204 2C       		.byte	0x2c
 810 0205 08       		.uleb128 0x8
 811 0206 19050000 		.4byte	.LASF43
 812 020a 07       		.byte	0x7
 813 020b 4001     		.2byte	0x140
 814 020d 17010000 		.4byte	0x117
 815 0211 34       		.byte	0x34
 816 0212 08       		.uleb128 0x8
 817 0213 98050000 		.4byte	.LASF44
 818 0217 07       		.byte	0x7
 819 0218 4601     		.2byte	0x146
 820 021a 22010000 		.4byte	0x122
 821 021e 38       		.byte	0x38
 822 021f 08       		.uleb128 0x8
 823 0220 45040000 		.4byte	.LASF45
 824 0224 07       		.byte	0x7
 825 0225 4D01     		.2byte	0x14d
 826 0227 93060000 		.4byte	0x693
 827 022b 3C       		.byte	0x3c
 828 022c 08       		.uleb128 0x8
 829 022d 62050000 		.4byte	.LASF46
 830 0231 07       		.byte	0x7
 831 0232 5101     		.2byte	0x151
 832 0234 0C010000 		.4byte	0x10c
 833 0238 40       		.byte	0x40
 834 0239 08       		.uleb128 0x8
 835 023a 3D040000 		.4byte	.LASF47
 836 023e 07       		.byte	0x7
 837 023f 5801     		.2byte	0x158
 838 0241 2F030000 		.4byte	0x32f
 839 0245 44       		.byte	0x44
 840 0246 00       		.byte	0
 841 0247 03       		.uleb128 0x3
 842 0248 E2030000 		.4byte	.LASF48
 843 024c 06       		.byte	0x6
 844 024d 44       		.byte	0x44
 845 024e 52020000 		.4byte	0x252
 846 0252 09       		.uleb128 0x9
 847 0253 04       		.byte	0x4
ARM GAS  /tmp/ccinRW2a.s 			page 16


 848 0254 43010000 		.4byte	0x143
 849 0258 03       		.uleb128 0x3
 850 0259 C8000000 		.4byte	.LASF49
 851 025d 06       		.byte	0x6
 852 025e 49       		.byte	0x49
 853 025f 63020000 		.4byte	0x263
 854 0263 05       		.uleb128 0x5
 855 0264 00000000 		.4byte	.LASF51
 856 0268 04       		.byte	0x4
 857 0269 07       		.byte	0x7
 858 026a B0       		.byte	0xb0
 859 026b 7C020000 		.4byte	0x27c
 860 026f 06       		.uleb128 0x6
 861 0270 CA050000 		.4byte	.LASF30
 862 0274 07       		.byte	0x7
 863 0275 B1       		.byte	0xb1
 864 0276 52020000 		.4byte	0x252
 865 027a 00       		.byte	0
 866 027b 00       		.byte	0
 867 027c 03       		.uleb128 0x3
 868 027d 10000000 		.4byte	.LASF52
 869 0281 06       		.byte	0x6
 870 0282 50       		.byte	0x50
 871 0283 87020000 		.4byte	0x287
 872 0287 05       		.uleb128 0x5
 873 0288 3F010000 		.4byte	.LASF53
 874 028c 08       		.byte	0x8
 875 028d 07       		.byte	0x7
 876 028e B7       		.byte	0xb7
 877 028f AC020000 		.4byte	0x2ac
 878 0293 06       		.uleb128 0x6
 879 0294 CA050000 		.4byte	.LASF30
 880 0298 07       		.byte	0x7
 881 0299 B8       		.byte	0xb8
 882 029a 52020000 		.4byte	0x252
 883 029e 00       		.byte	0
 884 029f 06       		.uleb128 0x6
 885 02a0 28060000 		.4byte	.LASF31
 886 02a4 07       		.byte	0x7
 887 02a5 B9       		.byte	0xb9
 888 02a6 52020000 		.4byte	0x252
 889 02aa 04       		.byte	0x4
 890 02ab 00       		.byte	0
 891 02ac 03       		.uleb128 0x3
 892 02ad 69060000 		.4byte	.LASF54
 893 02b1 06       		.byte	0x6
 894 02b2 57       		.byte	0x57
 895 02b3 B7020000 		.4byte	0x2b7
 896 02b7 0A       		.uleb128 0xa
 897 02b8 0E010000 		.4byte	.LASF55
 898 02bc 1C       		.byte	0x1c
 899 02bd 07       		.byte	0x7
 900 02be 9001     		.2byte	0x190
 901 02c0 13030000 		.4byte	0x313
 902 02c4 08       		.uleb128 0x8
 903 02c5 8C040000 		.4byte	.LASF56
 904 02c9 07       		.byte	0x7
ARM GAS  /tmp/ccinRW2a.s 			page 17


 905 02ca 9101     		.2byte	0x191
 906 02cc 7C020000 		.4byte	0x27c
 907 02d0 00       		.byte	0
 908 02d1 08       		.uleb128 0x8
 909 02d2 BF010000 		.4byte	.LASF57
 910 02d6 07       		.byte	0x7
 911 02d7 9201     		.2byte	0x192
 912 02d9 0C010000 		.4byte	0x10c
 913 02dd 08       		.byte	0x8
 914 02de 08       		.uleb128 0x8
 915 02df 59070000 		.4byte	.LASF58
 916 02e3 07       		.byte	0x7
 917 02e4 9401     		.2byte	0x194
 918 02e6 B0040000 		.4byte	0x4b0
 919 02ea 0C       		.byte	0xc
 920 02eb 08       		.uleb128 0x8
 921 02ec 94040000 		.4byte	.LASF59
 922 02f0 07       		.byte	0x7
 923 02f1 9701     		.2byte	0x197
 924 02f3 52020000 		.4byte	0x252
 925 02f7 10       		.byte	0x10
 926 02f8 08       		.uleb128 0x8
 927 02f9 F9040000 		.4byte	.LASF60
 928 02fd 07       		.byte	0x7
 929 02fe 9801     		.2byte	0x198
 930 0300 52020000 		.4byte	0x252
 931 0304 14       		.byte	0x14
 932 0305 08       		.uleb128 0x8
 933 0306 8E050000 		.4byte	.LASF61
 934 030a 07       		.byte	0x7
 935 030b 9B01     		.2byte	0x19b
 936 030d 52020000 		.4byte	0x252
 937 0311 18       		.byte	0x18
 938 0312 00       		.byte	0
 939 0313 03       		.uleb128 0x3
 940 0314 5B010000 		.4byte	.LASF62
 941 0318 06       		.byte	0x6
 942 0319 5C       		.byte	0x5c
 943 031a 1E030000 		.4byte	0x31e
 944 031e 09       		.uleb128 0x9
 945 031f 04       		.byte	0x4
 946 0320 24030000 		.4byte	0x324
 947 0324 0B       		.uleb128 0xb
 948 0325 2F030000 		.4byte	0x32f
 949 0329 0C       		.uleb128 0xc
 950 032a 2F030000 		.4byte	0x32f
 951 032e 00       		.byte	0
 952 032f 0D       		.uleb128 0xd
 953 0330 04       		.byte	0x4
 954 0331 0E       		.uleb128 0xe
 955 0332 2F030000 		.4byte	0x32f
 956 0336 03       		.uleb128 0x3
 957 0337 C9040000 		.4byte	.LASF63
 958 033b 06       		.byte	0x6
 959 033c 61       		.byte	0x61
 960 033d 41030000 		.4byte	0x341
 961 0341 0A       		.uleb128 0xa
ARM GAS  /tmp/ccinRW2a.s 			page 18


 962 0342 E2010000 		.4byte	.LASF64
 963 0346 14       		.byte	0x14
 964 0347 07       		.byte	0x7
 965 0348 6B01     		.2byte	0x16b
 966 034a 90030000 		.4byte	0x390
 967 034e 08       		.uleb128 0x8
 968 034f FA060000 		.4byte	.LASF65
 969 0353 07       		.byte	0x7
 970 0354 6C01     		.2byte	0x16c
 971 0356 B6060000 		.4byte	0x6b6
 972 035a 00       		.byte	0
 973 035b 08       		.uleb128 0x8
 974 035c 7B070000 		.4byte	.LASF66
 975 0360 07       		.byte	0x7
 976 0361 6D01     		.2byte	0x16d
 977 0363 B6060000 		.4byte	0x6b6
 978 0367 04       		.byte	0x4
 979 0368 08       		.uleb128 0x8
 980 0369 D9030000 		.4byte	.LASF67
 981 036d 07       		.byte	0x7
 982 036e 6E01     		.2byte	0x16e
 983 0370 38010000 		.4byte	0x138
 984 0374 08       		.byte	0x8
 985 0375 08       		.uleb128 0x8
 986 0376 73070000 		.4byte	.LASF68
 987 037a 07       		.byte	0x7
 988 037b 6F01     		.2byte	0x16f
 989 037d 13030000 		.4byte	0x313
 990 0381 0C       		.byte	0xc
 991 0382 08       		.uleb128 0x8
 992 0383 C6010000 		.4byte	.LASF69
 993 0387 07       		.byte	0x7
 994 0388 7101     		.2byte	0x171
 995 038a 2F030000 		.4byte	0x32f
 996 038e 10       		.byte	0x10
 997 038f 00       		.byte	0
 998 0390 03       		.uleb128 0x3
 999 0391 D0060000 		.4byte	.LASF70
 1000 0395 06       		.byte	0x6
 1001 0396 66       		.byte	0x66
 1002 0397 9B030000 		.4byte	0x39b
 1003 039b 0A       		.uleb128 0xa
 1004 039c 59020000 		.4byte	.LASF71
 1005 03a0 0C       		.byte	0xc
 1006 03a1 07       		.byte	0x7
 1007 03a2 7B01     		.2byte	0x17b
 1008 03a4 DD030000 		.4byte	0x3dd
 1009 03a8 08       		.uleb128 0x8
 1010 03a9 FA060000 		.4byte	.LASF65
 1011 03ad 07       		.byte	0x7
 1012 03ae 7C01     		.2byte	0x17c
 1013 03b0 B6060000 		.4byte	0x6b6
 1014 03b4 00       		.byte	0
 1015 03b5 08       		.uleb128 0x8
 1016 03b6 7B070000 		.4byte	.LASF66
 1017 03ba 07       		.byte	0x7
 1018 03bb 7E01     		.2byte	0x17e
ARM GAS  /tmp/ccinRW2a.s 			page 19


 1019 03bd B6060000 		.4byte	0x6b6
 1020 03c1 04       		.byte	0x4
 1021 03c2 08       		.uleb128 0x8
 1022 03c3 D9030000 		.4byte	.LASF67
 1023 03c7 07       		.byte	0x7
 1024 03c8 8001     		.2byte	0x180
 1025 03ca 38010000 		.4byte	0x138
 1026 03ce 08       		.byte	0x8
 1027 03cf 08       		.uleb128 0x8
 1028 03d0 F5030000 		.4byte	.LASF72
 1029 03d4 07       		.byte	0x7
 1030 03d5 8801     		.2byte	0x188
 1031 03d7 38010000 		.4byte	0x138
 1032 03db 0A       		.byte	0xa
 1033 03dc 00       		.byte	0
 1034 03dd 03       		.uleb128 0x3
 1035 03de 6F040000 		.4byte	.LASF73
 1036 03e2 06       		.byte	0x6
 1037 03e3 6B       		.byte	0x6b
 1038 03e4 E8030000 		.4byte	0x3e8
 1039 03e8 0F       		.uleb128 0xf
 1040 03e9 6A010000 		.4byte	.LASF74
 1041 03ed 1404     		.2byte	0x414
 1042 03ef 07       		.byte	0x7
 1043 03f0 A201     		.2byte	0x1a2
 1044 03f2 2B040000 		.4byte	0x42b
 1045 03f6 08       		.uleb128 0x8
 1046 03f7 0F050000 		.4byte	.LASF75
 1047 03fb 07       		.byte	0x7
 1048 03fc AA01     		.2byte	0x1aa
 1049 03fe 9F060000 		.4byte	0x69f
 1050 0402 00       		.byte	0
 1051 0403 08       		.uleb128 0x8
 1052 0404 49020000 		.4byte	.LASF76
 1053 0408 07       		.byte	0x7
 1054 0409 AF01     		.2byte	0x1af
 1055 040b 2D010000 		.4byte	0x12d
 1056 040f 04       		.byte	0x4
 1057 0410 08       		.uleb128 0x8
 1058 0411 59050000 		.4byte	.LASF77
 1059 0415 07       		.byte	0x7
 1060 0416 B301     		.2byte	0x1b3
 1061 0418 2D010000 		.4byte	0x12d
 1062 041c 08       		.byte	0x8
 1063 041d 08       		.uleb128 0x8
 1064 041e 86060000 		.4byte	.LASF78
 1065 0422 07       		.byte	0x7
 1066 0423 B901     		.2byte	0x1b9
 1067 0425 C9050000 		.4byte	0x5c9
 1068 0429 0C       		.byte	0xc
 1069 042a 00       		.byte	0
 1070 042b 03       		.uleb128 0x3
 1071 042c 02070000 		.4byte	.LASF79
 1072 0430 06       		.byte	0x6
 1073 0431 70       		.byte	0x70
 1074 0432 36040000 		.4byte	0x436
 1075 0436 0F       		.uleb128 0xf
ARM GAS  /tmp/ccinRW2a.s 			page 20


 1076 0437 C0050000 		.4byte	.LASF80
 1077 043b 6805     		.2byte	0x568
 1078 043d 07       		.byte	0x7
 1079 043e C201     		.2byte	0x1c2
 1080 0440 88040000 		.4byte	0x488
 1081 0444 08       		.uleb128 0x8
 1082 0445 E0050000 		.4byte	.LASF81
 1083 0449 07       		.byte	0x7
 1084 044a C601     		.2byte	0x1c6
 1085 044c AC020000 		.4byte	0x2ac
 1086 0450 00       		.byte	0
 1087 0451 08       		.uleb128 0x8
 1088 0452 07010000 		.4byte	.LASF82
 1089 0456 07       		.byte	0x7
 1090 0457 CA01     		.2byte	0x1ca
 1091 0459 90030000 		.4byte	0x390
 1092 045d 1C       		.byte	0x1c
 1093 045e 07       		.uleb128 0x7
 1094 045f 64626700 		.ascii	"dbg\000"
 1095 0463 07       		.byte	0x7
 1096 0464 CE01     		.2byte	0x1ce
 1097 0466 DD030000 		.4byte	0x3dd
 1098 046a 28       		.byte	0x28
 1099 046b 10       		.uleb128 0x10
 1100 046c 2F050000 		.4byte	.LASF83
 1101 0470 07       		.byte	0x7
 1102 0471 D201     		.2byte	0x1d2
 1103 0473 43010000 		.4byte	0x143
 1104 0477 3C04     		.2byte	0x43c
 1105 0479 10       		.uleb128 0x10
 1106 047a 1C010000 		.4byte	.LASF84
 1107 047e 07       		.byte	0x7
 1108 047f E301     		.2byte	0x1e3
 1109 0481 BC060000 		.4byte	0x6bc
 1110 0485 8804     		.2byte	0x488
 1111 0487 00       		.byte	0
 1112 0488 04       		.uleb128 0x4
 1113 0489 04       		.byte	0x4
 1114 048a 07       		.byte	0x7
 1115 048b 39060000 		.4byte	.LASF85
 1116 048f 11       		.uleb128 0x11
 1117 0490 2A000000 		.4byte	.LASF114
 1118 0494 0E       		.byte	0xe
 1119 0495 4C       		.byte	0x4c
 1120 0496 D5000000 		.4byte	0xd5
 1121 049a 03       		.uleb128 0x3
 1122 049b 61000000 		.4byte	.LASF86
 1123 049f 08       		.byte	0x8
 1124 04a0 65       		.byte	0x65
 1125 04a1 2F030000 		.4byte	0x32f
 1126 04a5 03       		.uleb128 0x3
 1127 04a6 5F070000 		.4byte	.LASF87
 1128 04aa 08       		.byte	0x8
 1129 04ab 6D       		.byte	0x6d
 1130 04ac E0000000 		.4byte	0xe0
 1131 04b0 05       		.uleb128 0x5
 1132 04b1 B0040000 		.4byte	.LASF88
ARM GAS  /tmp/ccinRW2a.s 			page 21


 1133 04b5 04       		.byte	0x4
 1134 04b6 08       		.byte	0x8
 1135 04b7 89       		.byte	0x89
 1136 04b8 C9040000 		.4byte	0x4c9
 1137 04bc 12       		.uleb128 0x12
 1138 04bd 72313300 		.ascii	"r13\000"
 1139 04c1 08       		.byte	0x8
 1140 04c2 8A       		.byte	0x8a
 1141 04c3 3B050000 		.4byte	0x53b
 1142 04c7 00       		.byte	0
 1143 04c8 00       		.byte	0
 1144 04c9 05       		.uleb128 0x5
 1145 04ca B4050000 		.4byte	.LASF89
 1146 04ce 24       		.byte	0x24
 1147 04cf 09       		.byte	0x9
 1148 04d0 A4       		.byte	0xa4
 1149 04d1 3B050000 		.4byte	0x53b
 1150 04d5 12       		.uleb128 0x12
 1151 04d6 723800   		.ascii	"r8\000"
 1152 04d9 09       		.byte	0x9
 1153 04da A5       		.byte	0xa5
 1154 04db 9A040000 		.4byte	0x49a
 1155 04df 00       		.byte	0
 1156 04e0 12       		.uleb128 0x12
 1157 04e1 723900   		.ascii	"r9\000"
 1158 04e4 09       		.byte	0x9
 1159 04e5 A6       		.byte	0xa6
 1160 04e6 9A040000 		.4byte	0x49a
 1161 04ea 04       		.byte	0x4
 1162 04eb 12       		.uleb128 0x12
 1163 04ec 72313000 		.ascii	"r10\000"
 1164 04f0 09       		.byte	0x9
 1165 04f1 A7       		.byte	0xa7
 1166 04f2 9A040000 		.4byte	0x49a
 1167 04f6 08       		.byte	0x8
 1168 04f7 12       		.uleb128 0x12
 1169 04f8 72313100 		.ascii	"r11\000"
 1170 04fc 09       		.byte	0x9
 1171 04fd A8       		.byte	0xa8
 1172 04fe 9A040000 		.4byte	0x49a
 1173 0502 0C       		.byte	0xc
 1174 0503 12       		.uleb128 0x12
 1175 0504 723400   		.ascii	"r4\000"
 1176 0507 09       		.byte	0x9
 1177 0508 A9       		.byte	0xa9
 1178 0509 9A040000 		.4byte	0x49a
 1179 050d 10       		.byte	0x10
 1180 050e 12       		.uleb128 0x12
 1181 050f 723500   		.ascii	"r5\000"
 1182 0512 09       		.byte	0x9
 1183 0513 AA       		.byte	0xaa
 1184 0514 9A040000 		.4byte	0x49a
 1185 0518 14       		.byte	0x14
 1186 0519 12       		.uleb128 0x12
 1187 051a 723600   		.ascii	"r6\000"
 1188 051d 09       		.byte	0x9
 1189 051e AB       		.byte	0xab
ARM GAS  /tmp/ccinRW2a.s 			page 22


 1190 051f 9A040000 		.4byte	0x49a
 1191 0523 18       		.byte	0x18
 1192 0524 12       		.uleb128 0x12
 1193 0525 723700   		.ascii	"r7\000"
 1194 0528 09       		.byte	0x9
 1195 0529 AC       		.byte	0xac
 1196 052a 9A040000 		.4byte	0x49a
 1197 052e 1C       		.byte	0x1c
 1198 052f 12       		.uleb128 0x12
 1199 0530 6C7200   		.ascii	"lr\000"
 1200 0533 09       		.byte	0x9
 1201 0534 AD       		.byte	0xad
 1202 0535 9A040000 		.4byte	0x49a
 1203 0539 20       		.byte	0x20
 1204 053a 00       		.byte	0
 1205 053b 09       		.uleb128 0x9
 1206 053c 04       		.byte	0x4
 1207 053d C9040000 		.4byte	0x4c9
 1208 0541 13       		.uleb128 0x13
 1209 0542 10       		.byte	0x10
 1210 0543 0A       		.byte	0xa
 1211 0544 51       		.byte	0x51
 1212 0545 7A050000 		.4byte	0x57a
 1213 0549 06       		.uleb128 0x6
 1214 054a 70020000 		.4byte	.LASF90
 1215 054e 0A       		.byte	0xa
 1216 054f 55       		.byte	0x55
 1217 0550 38010000 		.4byte	0x138
 1218 0554 00       		.byte	0
 1219 0555 06       		.uleb128 0x6
 1220 0556 0A040000 		.4byte	.LASF91
 1221 055a 0A       		.byte	0xa
 1222 055b 59       		.byte	0x59
 1223 055c 52020000 		.4byte	0x252
 1224 0560 04       		.byte	0x4
 1225 0561 06       		.uleb128 0x6
 1226 0562 0A020000 		.4byte	.LASF92
 1227 0566 0A       		.byte	0xa
 1228 0567 5D       		.byte	0x5d
 1229 0568 2F030000 		.4byte	0x32f
 1230 056c 08       		.byte	0x8
 1231 056d 06       		.uleb128 0x6
 1232 056e E1000000 		.4byte	.LASF93
 1233 0572 0A       		.byte	0xa
 1234 0573 61       		.byte	0x61
 1235 0574 B4000000 		.4byte	0xb4
 1236 0578 0C       		.byte	0xc
 1237 0579 00       		.byte	0
 1238 057a 03       		.uleb128 0x3
 1239 057b 9A060000 		.4byte	.LASF94
 1240 057f 0A       		.byte	0xa
 1241 0580 62       		.byte	0x62
 1242 0581 41050000 		.4byte	0x541
 1243 0585 14       		.uleb128 0x14
 1244 0586 0804     		.2byte	0x408
 1245 0588 0A       		.byte	0xa
 1246 0589 67       		.byte	0x67
ARM GAS  /tmp/ccinRW2a.s 			page 23


 1247 058a B3050000 		.4byte	0x5b3
 1248 058e 06       		.uleb128 0x6
 1249 058f 67040000 		.4byte	.LASF95
 1250 0593 0A       		.byte	0xa
 1251 0594 6B       		.byte	0x6b
 1252 0595 37000000 		.4byte	0x37
 1253 0599 00       		.byte	0
 1254 059a 06       		.uleb128 0x6
 1255 059b F2040000 		.4byte	.LASF96
 1256 059f 0A       		.byte	0xa
 1257 05a0 6F       		.byte	0x6f
 1258 05a1 B3050000 		.4byte	0x5b3
 1259 05a5 04       		.byte	0x4
 1260 05a6 06       		.uleb128 0x6
 1261 05a7 33040000 		.4byte	.LASF97
 1262 05ab 0A       		.byte	0xa
 1263 05ac 73       		.byte	0x73
 1264 05ad B9050000 		.4byte	0x5b9
 1265 05b1 08       		.byte	0x8
 1266 05b2 00       		.byte	0
 1267 05b3 09       		.uleb128 0x9
 1268 05b4 04       		.byte	0x4
 1269 05b5 7A050000 		.4byte	0x57a
 1270 05b9 15       		.uleb128 0x15
 1271 05ba 7A050000 		.4byte	0x57a
 1272 05be C9050000 		.4byte	0x5c9
 1273 05c2 16       		.uleb128 0x16
 1274 05c3 88040000 		.4byte	0x488
 1275 05c7 3F       		.byte	0x3f
 1276 05c8 00       		.byte	0
 1277 05c9 03       		.uleb128 0x3
 1278 05ca 14070000 		.4byte	.LASF98
 1279 05ce 0A       		.byte	0xa
 1280 05cf 74       		.byte	0x74
 1281 05d0 85050000 		.4byte	0x585
 1282 05d4 17       		.uleb128 0x17
 1283 05d5 04       		.byte	0x4
 1284 05d6 07       		.byte	0x7
 1285 05d7 FA       		.byte	0xfa
 1286 05d8 31060000 		.4byte	0x631
 1287 05dc 18       		.uleb128 0x18
 1288 05dd 94020000 		.4byte	.LASF99
 1289 05e1 07       		.byte	0x7
 1290 05e2 0101     		.2byte	0x101
 1291 05e4 17010000 		.4byte	0x117
 1292 05e8 18       		.uleb128 0x18
 1293 05e9 99070000 		.4byte	.LASF100
 1294 05ed 07       		.byte	0x7
 1295 05ee 0801     		.2byte	0x108
 1296 05f0 17010000 		.4byte	0x117
 1297 05f4 18       		.uleb128 0x18
 1298 05f5 00010000 		.4byte	.LASF101
 1299 05f9 07       		.byte	0x7
 1300 05fa 0F01     		.2byte	0x10f
 1301 05fc 2F030000 		.4byte	0x32f
 1302 0600 18       		.uleb128 0x18
 1303 0601 0E070000 		.4byte	.LASF102
ARM GAS  /tmp/ccinRW2a.s 			page 24


 1304 0605 07       		.byte	0x7
 1305 0606 1601     		.2byte	0x116
 1306 0608 31060000 		.4byte	0x631
 1307 060c 18       		.uleb128 0x18
 1308 060d 93060000 		.4byte	.LASF103
 1309 0611 07       		.byte	0x7
 1310 0612 1E01     		.2byte	0x11e
 1311 0614 5C060000 		.4byte	0x65c
 1312 0618 18       		.uleb128 0x18
 1313 0619 3A000000 		.4byte	.LASF104
 1314 061d 07       		.byte	0x7
 1315 061e 2701     		.2byte	0x127
 1316 0620 93060000 		.4byte	0x693
 1317 0624 18       		.uleb128 0x18
 1318 0625 2B010000 		.4byte	.LASF105
 1319 0629 07       		.byte	0x7
 1320 062a 2F01     		.2byte	0x12f
 1321 062c 22010000 		.4byte	0x122
 1322 0630 00       		.byte	0
 1323 0631 09       		.uleb128 0x9
 1324 0632 04       		.byte	0x4
 1325 0633 47020000 		.4byte	0x247
 1326 0637 05       		.uleb128 0x5
 1327 0638 CD010000 		.4byte	.LASF106
 1328 063c 0C       		.byte	0xc
 1329 063d 0B       		.byte	0xb
 1330 063e 34       		.byte	0x34
 1331 063f 5C060000 		.4byte	0x65c
 1332 0643 06       		.uleb128 0x6
 1333 0644 97000000 		.4byte	.LASF107
 1334 0648 0B       		.byte	0xb
 1335 0649 35       		.byte	0x35
 1336 064a 7C020000 		.4byte	0x27c
 1337 064e 00       		.byte	0
 1338 064f 06       		.uleb128 0x6
 1339 0650 64010000 		.4byte	.LASF108
 1340 0654 0B       		.byte	0xb
 1341 0655 37       		.byte	0x37
 1342 0656 2D010000 		.4byte	0x12d
 1343 065a 08       		.byte	0x8
 1344 065b 00       		.byte	0
 1345 065c 09       		.uleb128 0x9
 1346 065d 04       		.byte	0x4
 1347 065e 37060000 		.4byte	0x637
 1348 0662 05       		.uleb128 0x5
 1349 0663 8C030000 		.4byte	.LASF109
 1350 0667 10       		.byte	0x10
 1351 0668 0C       		.byte	0xc
 1352 0669 39       		.byte	0x39
 1353 066a 93060000 		.4byte	0x693
 1354 066e 06       		.uleb128 0x6
 1355 066f A3050000 		.4byte	.LASF110
 1356 0673 0C       		.byte	0xc
 1357 0674 3A       		.byte	0x3a
 1358 0675 7C020000 		.4byte	0x27c
 1359 0679 00       		.byte	0
 1360 067a 06       		.uleb128 0x6
ARM GAS  /tmp/ccinRW2a.s 			page 25


 1361 067b 8F000000 		.4byte	.LASF111
 1362 067f 0C       		.byte	0xc
 1363 0680 3C       		.byte	0x3c
 1364 0681 52020000 		.4byte	0x252
 1365 0685 08       		.byte	0x8
 1366 0686 06       		.uleb128 0x6
 1367 0687 26070000 		.4byte	.LASF112
 1368 068b 0C       		.byte	0xc
 1369 068c 3E       		.byte	0x3e
 1370 068d EE070000 		.4byte	0x7ee
 1371 0691 0C       		.byte	0xc
 1372 0692 00       		.byte	0
 1373 0693 09       		.uleb128 0x9
 1374 0694 04       		.byte	0x4
 1375 0695 62060000 		.4byte	0x662
 1376 0699 09       		.uleb128 0x9
 1377 069a 04       		.byte	0x4
 1378 069b AB060000 		.4byte	0x6ab
 1379 069f 19       		.uleb128 0x19
 1380 06a0 99060000 		.4byte	0x699
 1381 06a4 04       		.uleb128 0x4
 1382 06a5 01       		.byte	0x1
 1383 06a6 08       		.byte	0x8
 1384 06a7 5C000000 		.4byte	.LASF113
 1385 06ab 0E       		.uleb128 0xe
 1386 06ac A4060000 		.4byte	0x6a4
 1387 06b0 09       		.uleb128 0x9
 1388 06b1 04       		.byte	0x4
 1389 06b2 A5040000 		.4byte	0x4a5
 1390 06b6 09       		.uleb128 0x9
 1391 06b7 04       		.byte	0x4
 1392 06b8 36030000 		.4byte	0x336
 1393 06bc 15       		.uleb128 0x15
 1394 06bd A5040000 		.4byte	0x4a5
 1395 06c1 CC060000 		.4byte	0x6cc
 1396 06c5 16       		.uleb128 0x16
 1397 06c6 88040000 		.4byte	0x488
 1398 06ca 1B       		.byte	0x1b
 1399 06cb 00       		.byte	0
 1400 06cc 1A       		.uleb128 0x1a
 1401 06cd 636800   		.ascii	"ch\000"
 1402 06d0 07       		.byte	0x7
 1403 06d1 0902     		.2byte	0x209
 1404 06d3 2B040000 		.4byte	0x42b
 1405 06d7 13       		.uleb128 0x13
 1406 06d8 16       		.byte	0x16
 1407 06d9 0D       		.byte	0xd
 1408 06da 34       		.byte	0x34
 1409 06db B8070000 		.4byte	0x7b8
 1410 06df 06       		.uleb128 0x6
 1411 06e0 1A060000 		.4byte	.LASF115
 1412 06e4 0D       		.byte	0xd
 1413 06e5 35       		.byte	0x35
 1414 06e6 B8070000 		.4byte	0x7b8
 1415 06ea 00       		.byte	0
 1416 06eb 06       		.uleb128 0x6
 1417 06ec E5040000 		.4byte	.LASF116
ARM GAS  /tmp/ccinRW2a.s 			page 26


 1418 06f0 0D       		.byte	0xd
 1419 06f1 36       		.byte	0x36
 1420 06f2 B4000000 		.4byte	0xb4
 1421 06f6 04       		.byte	0x4
 1422 06f7 06       		.uleb128 0x6
 1423 06f8 27050000 		.4byte	.LASF117
 1424 06fc 0D       		.byte	0xd
 1425 06fd 37       		.byte	0x37
 1426 06fe B4000000 		.4byte	0xb4
 1427 0702 05       		.byte	0x5
 1428 0703 06       		.uleb128 0x6
 1429 0704 6D050000 		.4byte	.LASF118
 1430 0708 0D       		.byte	0xd
 1431 0709 38       		.byte	0x38
 1432 070a BF000000 		.4byte	0xbf
 1433 070e 06       		.byte	0x6
 1434 070f 06       		.uleb128 0x6
 1435 0710 50010000 		.4byte	.LASF119
 1436 0714 0D       		.byte	0xd
 1437 0715 39       		.byte	0x39
 1438 0716 B4000000 		.4byte	0xb4
 1439 071a 08       		.byte	0x8
 1440 071b 06       		.uleb128 0x6
 1441 071c A7010000 		.4byte	.LASF120
 1442 0720 0D       		.byte	0xd
 1443 0721 3A       		.byte	0x3a
 1444 0722 B4000000 		.4byte	0xb4
 1445 0726 09       		.byte	0x9
 1446 0727 06       		.uleb128 0x6
 1447 0728 9B020000 		.4byte	.LASF121
 1448 072c 0D       		.byte	0xd
 1449 072d 3B       		.byte	0x3b
 1450 072e B4000000 		.4byte	0xb4
 1451 0732 0A       		.byte	0xa
 1452 0733 06       		.uleb128 0x6
 1453 0734 F2050000 		.4byte	.LASF122
 1454 0738 0D       		.byte	0xd
 1455 0739 3C       		.byte	0x3c
 1456 073a B4000000 		.4byte	0xb4
 1457 073e 0B       		.byte	0xb
 1458 073f 06       		.uleb128 0x6
 1459 0740 A0030000 		.4byte	.LASF123
 1460 0744 0D       		.byte	0xd
 1461 0745 3D       		.byte	0x3d
 1462 0746 B4000000 		.4byte	0xb4
 1463 074a 0C       		.byte	0xc
 1464 074b 06       		.uleb128 0x6
 1465 074c 39070000 		.4byte	.LASF124
 1466 0750 0D       		.byte	0xd
 1467 0751 3E       		.byte	0x3e
 1468 0752 B4000000 		.4byte	0xb4
 1469 0756 0D       		.byte	0xd
 1470 0757 06       		.uleb128 0x6
 1471 0758 82000000 		.4byte	.LASF125
 1472 075c 0D       		.byte	0xd
 1473 075d 3F       		.byte	0x3f
 1474 075e B4000000 		.4byte	0xb4
ARM GAS  /tmp/ccinRW2a.s 			page 27


 1475 0762 0E       		.byte	0xe
 1476 0763 06       		.uleb128 0x6
 1477 0764 EA000000 		.4byte	.LASF126
 1478 0768 0D       		.byte	0xd
 1479 0769 40       		.byte	0x40
 1480 076a B4000000 		.4byte	0xb4
 1481 076e 0F       		.byte	0xf
 1482 076f 06       		.uleb128 0x6
 1483 0770 AB030000 		.4byte	.LASF127
 1484 0774 0D       		.byte	0xd
 1485 0775 41       		.byte	0x41
 1486 0776 B4000000 		.4byte	0xb4
 1487 077a 10       		.byte	0x10
 1488 077b 06       		.uleb128 0x6
 1489 077c 5C060000 		.4byte	.LASF128
 1490 0780 0D       		.byte	0xd
 1491 0781 43       		.byte	0x43
 1492 0782 B4000000 		.4byte	0xb4
 1493 0786 11       		.byte	0x11
 1494 0787 06       		.uleb128 0x6
 1495 0788 32010000 		.4byte	.LASF129
 1496 078c 0D       		.byte	0xd
 1497 078d 44       		.byte	0x44
 1498 078e B4000000 		.4byte	0xb4
 1499 0792 12       		.byte	0x12
 1500 0793 06       		.uleb128 0x6
 1501 0794 D9040000 		.4byte	.LASF130
 1502 0798 0D       		.byte	0xd
 1503 0799 45       		.byte	0x45
 1504 079a B4000000 		.4byte	0xb4
 1505 079e 13       		.byte	0x13
 1506 079f 06       		.uleb128 0x6
 1507 07a0 A9020000 		.4byte	.LASF131
 1508 07a4 0D       		.byte	0xd
 1509 07a5 46       		.byte	0x46
 1510 07a6 B4000000 		.4byte	0xb4
 1511 07aa 14       		.byte	0x14
 1512 07ab 06       		.uleb128 0x6
 1513 07ac E6050000 		.4byte	.LASF132
 1514 07b0 0D       		.byte	0xd
 1515 07b1 48       		.byte	0x48
 1516 07b2 B4000000 		.4byte	0xb4
 1517 07b6 15       		.byte	0x15
 1518 07b7 00       		.byte	0
 1519 07b8 15       		.uleb128 0x15
 1520 07b9 A4060000 		.4byte	0x6a4
 1521 07bd C8070000 		.4byte	0x7c8
 1522 07c1 16       		.uleb128 0x16
 1523 07c2 88040000 		.4byte	0x488
 1524 07c6 03       		.byte	0x3
 1525 07c7 00       		.byte	0
 1526 07c8 03       		.uleb128 0x3
 1527 07c9 4F050000 		.4byte	.LASF133
 1528 07cd 0D       		.byte	0xd
 1529 07ce 49       		.byte	0x49
 1530 07cf D7060000 		.4byte	0x6d7
 1531 07d3 0E       		.uleb128 0xe
ARM GAS  /tmp/ccinRW2a.s 			page 28


 1532 07d4 C8070000 		.4byte	0x7c8
 1533 07d8 11       		.uleb128 0x11
 1534 07d9 6A070000 		.4byte	.LASF134
 1535 07dd 0D       		.byte	0xd
 1536 07de 6E       		.byte	0x6e
 1537 07df D3070000 		.4byte	0x7d3
 1538 07e3 03       		.uleb128 0x3
 1539 07e4 A9060000 		.4byte	.LASF135
 1540 07e8 0C       		.byte	0xc
 1541 07e9 34       		.byte	0x34
 1542 07ea 62060000 		.4byte	0x662
 1543 07ee 09       		.uleb128 0x9
 1544 07ef 04       		.byte	0x4
 1545 07f0 E3070000 		.4byte	0x7e3
 1546 07f4 04       		.uleb128 0x4
 1547 07f5 01       		.byte	0x1
 1548 07f6 02       		.byte	0x2
 1549 07f7 B8020000 		.4byte	.LASF136
 1550 07fb 03       		.uleb128 0x3
 1551 07fc 08060000 		.4byte	.LASF137
 1552 0800 0F       		.byte	0xf
 1553 0801 34       		.byte	0x34
 1554 0802 06080000 		.4byte	0x806
 1555 0806 09       		.uleb128 0x9
 1556 0807 04       		.byte	0x4
 1557 0808 0C080000 		.4byte	0x80c
 1558 080c 1B       		.uleb128 0x1b
 1559 080d 2F030000 		.4byte	0x32f
 1560 0811 1B080000 		.4byte	0x81b
 1561 0815 0C       		.uleb128 0xc
 1562 0816 2C000000 		.4byte	0x2c
 1563 081a 00       		.byte	0
 1564 081b 03       		.uleb128 0x3
 1565 081c 01050000 		.4byte	.LASF138
 1566 0820 10       		.byte	0x10
 1567 0821 3C       		.byte	0x3c
 1568 0822 26080000 		.4byte	0x826
 1569 0826 05       		.uleb128 0x5
 1570 0827 82050000 		.4byte	.LASF139
 1571 082b 20       		.byte	0x20
 1572 082c 10       		.byte	0x10
 1573 082d 4F       		.byte	0x4f
 1574 082e 57080000 		.4byte	0x857
 1575 0832 06       		.uleb128 0x6
 1576 0833 C2030000 		.4byte	.LASF140
 1577 0837 10       		.byte	0x10
 1578 0838 50       		.byte	0x50
 1579 0839 FB070000 		.4byte	0x7fb
 1580 083d 00       		.byte	0
 1581 083e 06       		.uleb128 0x6
 1582 083f 7A010000 		.4byte	.LASF141
 1583 0843 10       		.byte	0x10
 1584 0844 52       		.byte	0x52
 1585 0845 76080000 		.4byte	0x876
 1586 0849 08       		.byte	0x8
 1587 084a 06       		.uleb128 0x6
 1588 084b 61040000 		.4byte	.LASF142
ARM GAS  /tmp/ccinRW2a.s 			page 29


 1589 084f 10       		.byte	0x10
 1590 0850 54       		.byte	0x54
 1591 0851 E3070000 		.4byte	0x7e3
 1592 0855 10       		.byte	0x10
 1593 0856 00       		.byte	0
 1594 0857 17       		.uleb128 0x17
 1595 0858 04       		.byte	0x4
 1596 0859 10       		.byte	0x10
 1597 085a 44       		.byte	0x44
 1598 085b 76080000 		.4byte	0x876
 1599 085f 1C       		.uleb128 0x1c
 1600 0860 C3000000 		.4byte	.LASF143
 1601 0864 10       		.byte	0x10
 1602 0865 45       		.byte	0x45
 1603 0866 97080000 		.4byte	0x897
 1604 086a 1C       		.uleb128 0x1c
 1605 086b F6000000 		.4byte	.LASF144
 1606 086f 10       		.byte	0x10
 1607 0870 46       		.byte	0x46
 1608 0871 9D080000 		.4byte	0x89d
 1609 0875 00       		.byte	0
 1610 0876 1D       		.uleb128 0x1d
 1611 0877 81020000 		.4byte	.LASF152
 1612 087b 08       		.byte	0x8
 1613 087c 10       		.byte	0x10
 1614 087d 41       		.byte	0x41
 1615 087e 97080000 		.4byte	0x897
 1616 0882 1C       		.uleb128 0x1c
 1617 0883 93070000 		.4byte	.LASF145
 1618 0887 10       		.byte	0x10
 1619 0888 42       		.byte	0x42
 1620 0889 A5040000 		.4byte	0x4a5
 1621 088d 1E       		.uleb128 0x1e
 1622 088e 6800     		.ascii	"h\000"
 1623 0890 10       		.byte	0x10
 1624 0891 49       		.byte	0x49
 1625 0892 A3080000 		.4byte	0x8a3
 1626 0896 00       		.byte	0
 1627 0897 09       		.uleb128 0x9
 1628 0898 04       		.byte	0x4
 1629 0899 76080000 		.4byte	0x876
 1630 089d 09       		.uleb128 0x9
 1631 089e 04       		.byte	0x4
 1632 089f 1B080000 		.4byte	0x81b
 1633 08a3 13       		.uleb128 0x13
 1634 08a4 08       		.byte	0x8
 1635 08a5 10       		.byte	0x10
 1636 08a6 43       		.byte	0x43
 1637 08a7 C2080000 		.4byte	0x8c2
 1638 08ab 12       		.uleb128 0x12
 1639 08ac 7500     		.ascii	"u\000"
 1640 08ae 10       		.byte	0x10
 1641 08af 47       		.byte	0x47
 1642 08b0 57080000 		.4byte	0x857
 1643 08b4 00       		.byte	0
 1644 08b5 06       		.uleb128 0x6
 1645 08b6 ED040000 		.4byte	.LASF146
ARM GAS  /tmp/ccinRW2a.s 			page 30


 1646 08ba 10       		.byte	0x10
 1647 08bb 48       		.byte	0x48
 1648 08bc 2C000000 		.4byte	0x2c
 1649 08c0 04       		.byte	0x4
 1650 08c1 00       		.byte	0
 1651 08c2 05       		.uleb128 0x5
 1652 08c3 40020000 		.4byte	.LASF147
 1653 08c7 10       		.byte	0x10
 1654 08c8 11       		.byte	0x11
 1655 08c9 3B       		.byte	0x3b
 1656 08ca FF080000 		.4byte	0x8ff
 1657 08ce 06       		.uleb128 0x6
 1658 08cf 15060000 		.4byte	.LASF148
 1659 08d3 11       		.byte	0x11
 1660 08d4 3C       		.byte	0x3c
 1661 08d5 99060000 		.4byte	0x699
 1662 08d9 00       		.byte	0
 1663 08da 06       		.uleb128 0x6
 1664 08db BF060000 		.4byte	.LASF149
 1665 08df 11       		.byte	0x11
 1666 08e0 3D       		.byte	0x3d
 1667 08e1 05090000 		.4byte	0x905
 1668 08e5 04       		.byte	0x4
 1669 08e6 06       		.uleb128 0x6
 1670 08e7 B8040000 		.4byte	.LASF150
 1671 08eb 11       		.byte	0x11
 1672 08ec 3E       		.byte	0x3e
 1673 08ed 05090000 		.4byte	0x905
 1674 08f1 08       		.byte	0x8
 1675 08f2 06       		.uleb128 0x6
 1676 08f3 59040000 		.4byte	.LASF151
 1677 08f7 11       		.byte	0x11
 1678 08f8 3F       		.byte	0x3f
 1679 08f9 05090000 		.4byte	0x905
 1680 08fd 0C       		.byte	0xc
 1681 08fe 00       		.byte	0
 1682 08ff 0E       		.uleb128 0xe
 1683 0900 C2080000 		.4byte	0x8c2
 1684 0904 1F       		.uleb128 0x1f
 1685 0905 09       		.uleb128 0x9
 1686 0906 04       		.byte	0x4
 1687 0907 04090000 		.4byte	0x904
 1688 090b 14       		.uleb128 0x14
 1689 090c 9006     		.2byte	0x690
 1690 090e 11       		.byte	0x11
 1691 090f 44       		.byte	0x44
 1692 0910 50090000 		.4byte	0x950
 1693 0914 12       		.uleb128 0x12
 1694 0915 543000   		.ascii	"T0\000"
 1695 0918 11       		.byte	0x11
 1696 0919 45       		.byte	0x45
 1697 091a 50090000 		.4byte	0x950
 1698 091e 00       		.byte	0
 1699 091f 20       		.uleb128 0x20
 1700 0920 543100   		.ascii	"T1\000"
 1701 0923 11       		.byte	0x11
 1702 0924 46       		.byte	0x46
ARM GAS  /tmp/ccinRW2a.s 			page 31


 1703 0925 50090000 		.4byte	0x950
 1704 0929 5001     		.2byte	0x150
 1705 092b 20       		.uleb128 0x20
 1706 092c 543200   		.ascii	"T2\000"
 1707 092f 11       		.byte	0x11
 1708 0930 47       		.byte	0x47
 1709 0931 50090000 		.4byte	0x950
 1710 0935 A002     		.2byte	0x2a0
 1711 0937 20       		.uleb128 0x20
 1712 0938 543300   		.ascii	"T3\000"
 1713 093b 11       		.byte	0x11
 1714 093c 48       		.byte	0x48
 1715 093d 50090000 		.4byte	0x950
 1716 0941 F003     		.2byte	0x3f0
 1717 0943 20       		.uleb128 0x20
 1718 0944 543400   		.ascii	"T4\000"
 1719 0947 11       		.byte	0x11
 1720 0948 49       		.byte	0x49
 1721 0949 50090000 		.4byte	0x950
 1722 094d 4005     		.2byte	0x540
 1723 094f 00       		.byte	0
 1724 0950 15       		.uleb128 0x15
 1725 0951 A5040000 		.4byte	0x4a5
 1726 0955 60090000 		.4byte	0x960
 1727 0959 16       		.uleb128 0x16
 1728 095a 88040000 		.4byte	0x488
 1729 095e 29       		.byte	0x29
 1730 095f 00       		.byte	0
 1731 0960 21       		.uleb128 0x21
 1732 0961 ED060000 		.4byte	.LASF153
 1733 0965 9006     		.2byte	0x690
 1734 0967 11       		.byte	0x11
 1735 0968 43       		.byte	0x43
 1736 0969 83090000 		.4byte	0x983
 1737 096d 1E       		.uleb128 0x1e
 1738 096e 776100   		.ascii	"wa\000"
 1739 0971 11       		.byte	0x11
 1740 0972 4A       		.byte	0x4a
 1741 0973 0B090000 		.4byte	0x90b
 1742 0977 1C       		.uleb128 0x1c
 1743 0978 7B000000 		.4byte	.LASF154
 1744 097c 11       		.byte	0x11
 1745 097d 4B       		.byte	0x4b
 1746 097e 83090000 		.4byte	0x983
 1747 0982 00       		.byte	0
 1748 0983 15       		.uleb128 0x15
 1749 0984 B4000000 		.4byte	0xb4
 1750 0988 94090000 		.4byte	0x994
 1751 098c 22       		.uleb128 0x22
 1752 098d 88040000 		.4byte	0x488
 1753 0991 8F06     		.2byte	0x68f
 1754 0993 00       		.byte	0
 1755 0994 11       		.uleb128 0x11
 1756 0995 1E020000 		.4byte	.LASF155
 1757 0999 11       		.byte	0x11
 1758 099a 4F       		.byte	0x4f
 1759 099b F4070000 		.4byte	0x7f4
ARM GAS  /tmp/ccinRW2a.s 			page 32


 1760 099f 15       		.uleb128 0x15
 1761 09a0 52020000 		.4byte	0x252
 1762 09a4 AF090000 		.4byte	0x9af
 1763 09a8 16       		.uleb128 0x16
 1764 09a9 88040000 		.4byte	0x488
 1765 09ad 04       		.byte	0x4
 1766 09ae 00       		.byte	0
 1767 09af 11       		.uleb128 0x11
 1768 09b0 76060000 		.4byte	.LASF156
 1769 09b4 11       		.byte	0x11
 1770 09b5 A7       		.byte	0xa7
 1771 09b6 9F090000 		.4byte	0x99f
 1772 09ba 11       		.uleb128 0x11
 1773 09bb FB000000 		.4byte	.LASF157
 1774 09bf 11       		.byte	0x11
 1775 09c0 A8       		.byte	0xa8
 1776 09c1 60090000 		.4byte	0x960
 1777 09c5 15       		.uleb128 0x15
 1778 09c6 31030000 		.4byte	0x331
 1779 09ca D0090000 		.4byte	0x9d0
 1780 09ce 23       		.uleb128 0x23
 1781 09cf 00       		.byte	0
 1782 09d0 0E       		.uleb128 0xe
 1783 09d1 C5090000 		.4byte	0x9c5
 1784 09d5 24       		.uleb128 0x24
 1785 09d6 776100   		.ascii	"wa\000"
 1786 09d9 11       		.byte	0x11
 1787 09da A9       		.byte	0xa9
 1788 09db D0090000 		.4byte	0x9d0
 1789 09df 11       		.uleb128 0x11
 1790 09e0 83070000 		.4byte	.LASF158
 1791 09e4 11       		.byte	0x11
 1792 09e5 AA       		.byte	0xaa
 1793 09e6 F4070000 		.4byte	0x7f4
 1794 09ea 25       		.uleb128 0x25
 1795 09eb 2F060000 		.4byte	.LASF161
 1796 09ef 01       		.byte	0x1
 1797 09f0 33       		.byte	0x33
 1798 09f1 1B080000 		.4byte	0x81b
 1799 09f5 05       		.uleb128 0x5
 1800 09f6 03       		.byte	0x3
 1801 09f7 00000000 		.4byte	test_heap
 1802 09fb 26       		.uleb128 0x26
 1803 09fc 14020000 		.4byte	.LASF159
 1804 0a00 01       		.byte	0x1
 1805 0a01 8E       		.byte	0x8e
 1806 0a02 FF080000 		.4byte	0x8ff
 1807 0a06 05       		.uleb128 0x5
 1808 0a07 03       		.byte	0x3
 1809 0a08 00000000 		.4byte	testheap1
 1810 0a0c 15       		.uleb128 0x15
 1811 0a0d 270A0000 		.4byte	0xa27
 1812 0a11 1C0A0000 		.4byte	0xa1c
 1813 0a15 16       		.uleb128 0x16
 1814 0a16 88040000 		.4byte	0x488
 1815 0a1a 01       		.byte	0x1
 1816 0a1b 00       		.byte	0
ARM GAS  /tmp/ccinRW2a.s 			page 33


 1817 0a1c 0E       		.uleb128 0xe
 1818 0a1d 0C0A0000 		.4byte	0xa0c
 1819 0a21 09       		.uleb128 0x9
 1820 0a22 04       		.byte	0x4
 1821 0a23 FF080000 		.4byte	0x8ff
 1822 0a27 0E       		.uleb128 0xe
 1823 0a28 210A0000 		.4byte	0xa21
 1824 0a2c 26       		.uleb128 0x26
 1825 0a2d CD030000 		.4byte	.LASF160
 1826 0a31 01       		.byte	0x1
 1827 0a32 9A       		.byte	0x9a
 1828 0a33 1C0A0000 		.4byte	0xa1c
 1829 0a37 05       		.uleb128 0x5
 1830 0a38 03       		.byte	0x3
 1831 0a39 00000000 		.4byte	patternheap
 1832 0a3d 27       		.uleb128 0x27
 1833 0a3e A2040000 		.4byte	.LASF165
 1834 0a42 01       		.byte	0x1
 1835 0a43 45       		.byte	0x45
 1836 0a44 00000000 		.4byte	.LFB153
 1837 0a48 3C030000 		.4byte	.LFE153-.LFB153
 1838 0a4c 01       		.uleb128 0x1
 1839 0a4d 9C       		.byte	0x9c
 1840 0a4e 930A0000 		.4byte	0xa93
 1841 0a52 28       		.uleb128 0x28
 1842 0a53 703100   		.ascii	"p1\000"
 1843 0a56 01       		.byte	0x1
 1844 0a57 46       		.byte	0x46
 1845 0a58 2F030000 		.4byte	0x32f
 1846 0a5c 02       		.uleb128 0x2
 1847 0a5d 91       		.byte	0x91
 1848 0a5e 74       		.sleb128 -12
 1849 0a5f 28       		.uleb128 0x28
 1850 0a60 703200   		.ascii	"p2\000"
 1851 0a63 01       		.byte	0x1
 1852 0a64 46       		.byte	0x46
 1853 0a65 2F030000 		.4byte	0x32f
 1854 0a69 02       		.uleb128 0x2
 1855 0a6a 91       		.byte	0x91
 1856 0a6b 70       		.sleb128 -16
 1857 0a6c 28       		.uleb128 0x28
 1858 0a6d 703300   		.ascii	"p3\000"
 1859 0a70 01       		.byte	0x1
 1860 0a71 46       		.byte	0x46
 1861 0a72 2F030000 		.4byte	0x32f
 1862 0a76 02       		.uleb128 0x2
 1863 0a77 91       		.byte	0x91
 1864 0a78 6C       		.sleb128 -20
 1865 0a79 28       		.uleb128 0x28
 1866 0a7a 6E00     		.ascii	"n\000"
 1867 0a7c 01       		.byte	0x1
 1868 0a7d 47       		.byte	0x47
 1869 0a7e 2C000000 		.4byte	0x2c
 1870 0a82 02       		.uleb128 0x2
 1871 0a83 91       		.byte	0x91
 1872 0a84 68       		.sleb128 -24
 1873 0a85 28       		.uleb128 0x28
ARM GAS  /tmp/ccinRW2a.s 			page 34


 1874 0a86 737A00   		.ascii	"sz\000"
 1875 0a89 01       		.byte	0x1
 1876 0a8a 47       		.byte	0x47
 1877 0a8b 2C000000 		.4byte	0x2c
 1878 0a8f 02       		.uleb128 0x2
 1879 0a90 91       		.byte	0x91
 1880 0a91 64       		.sleb128 -28
 1881 0a92 00       		.byte	0
 1882 0a93 29       		.uleb128 0x29
 1883 0a94 B7000000 		.4byte	.LASF166
 1884 0a98 01       		.byte	0x1
 1885 0a99 40       		.byte	0x40
 1886 0a9a 00000000 		.4byte	.LFB152
 1887 0a9e 1C000000 		.4byte	.LFE152-.LFB152
 1888 0aa2 01       		.uleb128 0x1
 1889 0aa3 9C       		.byte	0x9c
 1890 0aa4 00       		.byte	0
 1891              		.section	.debug_abbrev,"",%progbits
 1892              	.Ldebug_abbrev0:
 1893 0000 01       		.uleb128 0x1
 1894 0001 11       		.uleb128 0x11
 1895 0002 01       		.byte	0x1
 1896 0003 25       		.uleb128 0x25
 1897 0004 0E       		.uleb128 0xe
 1898 0005 13       		.uleb128 0x13
 1899 0006 0B       		.uleb128 0xb
 1900 0007 03       		.uleb128 0x3
 1901 0008 0E       		.uleb128 0xe
 1902 0009 1B       		.uleb128 0x1b
 1903 000a 0E       		.uleb128 0xe
 1904 000b 55       		.uleb128 0x55
 1905 000c 17       		.uleb128 0x17
 1906 000d 11       		.uleb128 0x11
 1907 000e 01       		.uleb128 0x1
 1908 000f 10       		.uleb128 0x10
 1909 0010 17       		.uleb128 0x17
 1910 0011 00       		.byte	0
 1911 0012 00       		.byte	0
 1912 0013 02       		.uleb128 0x2
 1913 0014 24       		.uleb128 0x24
 1914 0015 00       		.byte	0
 1915 0016 0B       		.uleb128 0xb
 1916 0017 0B       		.uleb128 0xb
 1917 0018 3E       		.uleb128 0x3e
 1918 0019 0B       		.uleb128 0xb
 1919 001a 03       		.uleb128 0x3
 1920 001b 08       		.uleb128 0x8
 1921 001c 00       		.byte	0
 1922 001d 00       		.byte	0
 1923 001e 03       		.uleb128 0x3
 1924 001f 16       		.uleb128 0x16
 1925 0020 00       		.byte	0
 1926 0021 03       		.uleb128 0x3
 1927 0022 0E       		.uleb128 0xe
 1928 0023 3A       		.uleb128 0x3a
 1929 0024 0B       		.uleb128 0xb
 1930 0025 3B       		.uleb128 0x3b
ARM GAS  /tmp/ccinRW2a.s 			page 35


 1931 0026 0B       		.uleb128 0xb
 1932 0027 49       		.uleb128 0x49
 1933 0028 13       		.uleb128 0x13
 1934 0029 00       		.byte	0
 1935 002a 00       		.byte	0
 1936 002b 04       		.uleb128 0x4
 1937 002c 24       		.uleb128 0x24
 1938 002d 00       		.byte	0
 1939 002e 0B       		.uleb128 0xb
 1940 002f 0B       		.uleb128 0xb
 1941 0030 3E       		.uleb128 0x3e
 1942 0031 0B       		.uleb128 0xb
 1943 0032 03       		.uleb128 0x3
 1944 0033 0E       		.uleb128 0xe
 1945 0034 00       		.byte	0
 1946 0035 00       		.byte	0
 1947 0036 05       		.uleb128 0x5
 1948 0037 13       		.uleb128 0x13
 1949 0038 01       		.byte	0x1
 1950 0039 03       		.uleb128 0x3
 1951 003a 0E       		.uleb128 0xe
 1952 003b 0B       		.uleb128 0xb
 1953 003c 0B       		.uleb128 0xb
 1954 003d 3A       		.uleb128 0x3a
 1955 003e 0B       		.uleb128 0xb
 1956 003f 3B       		.uleb128 0x3b
 1957 0040 0B       		.uleb128 0xb
 1958 0041 01       		.uleb128 0x1
 1959 0042 13       		.uleb128 0x13
 1960 0043 00       		.byte	0
 1961 0044 00       		.byte	0
 1962 0045 06       		.uleb128 0x6
 1963 0046 0D       		.uleb128 0xd
 1964 0047 00       		.byte	0
 1965 0048 03       		.uleb128 0x3
 1966 0049 0E       		.uleb128 0xe
 1967 004a 3A       		.uleb128 0x3a
 1968 004b 0B       		.uleb128 0xb
 1969 004c 3B       		.uleb128 0x3b
 1970 004d 0B       		.uleb128 0xb
 1971 004e 49       		.uleb128 0x49
 1972 004f 13       		.uleb128 0x13
 1973 0050 38       		.uleb128 0x38
 1974 0051 0B       		.uleb128 0xb
 1975 0052 00       		.byte	0
 1976 0053 00       		.byte	0
 1977 0054 07       		.uleb128 0x7
 1978 0055 0D       		.uleb128 0xd
 1979 0056 00       		.byte	0
 1980 0057 03       		.uleb128 0x3
 1981 0058 08       		.uleb128 0x8
 1982 0059 3A       		.uleb128 0x3a
 1983 005a 0B       		.uleb128 0xb
 1984 005b 3B       		.uleb128 0x3b
 1985 005c 05       		.uleb128 0x5
 1986 005d 49       		.uleb128 0x49
 1987 005e 13       		.uleb128 0x13
ARM GAS  /tmp/ccinRW2a.s 			page 36


 1988 005f 38       		.uleb128 0x38
 1989 0060 0B       		.uleb128 0xb
 1990 0061 00       		.byte	0
 1991 0062 00       		.byte	0
 1992 0063 08       		.uleb128 0x8
 1993 0064 0D       		.uleb128 0xd
 1994 0065 00       		.byte	0
 1995 0066 03       		.uleb128 0x3
 1996 0067 0E       		.uleb128 0xe
 1997 0068 3A       		.uleb128 0x3a
 1998 0069 0B       		.uleb128 0xb
 1999 006a 3B       		.uleb128 0x3b
 2000 006b 05       		.uleb128 0x5
 2001 006c 49       		.uleb128 0x49
 2002 006d 13       		.uleb128 0x13
 2003 006e 38       		.uleb128 0x38
 2004 006f 0B       		.uleb128 0xb
 2005 0070 00       		.byte	0
 2006 0071 00       		.byte	0
 2007 0072 09       		.uleb128 0x9
 2008 0073 0F       		.uleb128 0xf
 2009 0074 00       		.byte	0
 2010 0075 0B       		.uleb128 0xb
 2011 0076 0B       		.uleb128 0xb
 2012 0077 49       		.uleb128 0x49
 2013 0078 13       		.uleb128 0x13
 2014 0079 00       		.byte	0
 2015 007a 00       		.byte	0
 2016 007b 0A       		.uleb128 0xa
 2017 007c 13       		.uleb128 0x13
 2018 007d 01       		.byte	0x1
 2019 007e 03       		.uleb128 0x3
 2020 007f 0E       		.uleb128 0xe
 2021 0080 0B       		.uleb128 0xb
 2022 0081 0B       		.uleb128 0xb
 2023 0082 3A       		.uleb128 0x3a
 2024 0083 0B       		.uleb128 0xb
 2025 0084 3B       		.uleb128 0x3b
 2026 0085 05       		.uleb128 0x5
 2027 0086 01       		.uleb128 0x1
 2028 0087 13       		.uleb128 0x13
 2029 0088 00       		.byte	0
 2030 0089 00       		.byte	0
 2031 008a 0B       		.uleb128 0xb
 2032 008b 15       		.uleb128 0x15
 2033 008c 01       		.byte	0x1
 2034 008d 27       		.uleb128 0x27
 2035 008e 19       		.uleb128 0x19
 2036 008f 01       		.uleb128 0x1
 2037 0090 13       		.uleb128 0x13
 2038 0091 00       		.byte	0
 2039 0092 00       		.byte	0
 2040 0093 0C       		.uleb128 0xc
 2041 0094 05       		.uleb128 0x5
 2042 0095 00       		.byte	0
 2043 0096 49       		.uleb128 0x49
 2044 0097 13       		.uleb128 0x13
ARM GAS  /tmp/ccinRW2a.s 			page 37


 2045 0098 00       		.byte	0
 2046 0099 00       		.byte	0
 2047 009a 0D       		.uleb128 0xd
 2048 009b 0F       		.uleb128 0xf
 2049 009c 00       		.byte	0
 2050 009d 0B       		.uleb128 0xb
 2051 009e 0B       		.uleb128 0xb
 2052 009f 00       		.byte	0
 2053 00a0 00       		.byte	0
 2054 00a1 0E       		.uleb128 0xe
 2055 00a2 26       		.uleb128 0x26
 2056 00a3 00       		.byte	0
 2057 00a4 49       		.uleb128 0x49
 2058 00a5 13       		.uleb128 0x13
 2059 00a6 00       		.byte	0
 2060 00a7 00       		.byte	0
 2061 00a8 0F       		.uleb128 0xf
 2062 00a9 13       		.uleb128 0x13
 2063 00aa 01       		.byte	0x1
 2064 00ab 03       		.uleb128 0x3
 2065 00ac 0E       		.uleb128 0xe
 2066 00ad 0B       		.uleb128 0xb
 2067 00ae 05       		.uleb128 0x5
 2068 00af 3A       		.uleb128 0x3a
 2069 00b0 0B       		.uleb128 0xb
 2070 00b1 3B       		.uleb128 0x3b
 2071 00b2 05       		.uleb128 0x5
 2072 00b3 01       		.uleb128 0x1
 2073 00b4 13       		.uleb128 0x13
 2074 00b5 00       		.byte	0
 2075 00b6 00       		.byte	0
 2076 00b7 10       		.uleb128 0x10
 2077 00b8 0D       		.uleb128 0xd
 2078 00b9 00       		.byte	0
 2079 00ba 03       		.uleb128 0x3
 2080 00bb 0E       		.uleb128 0xe
 2081 00bc 3A       		.uleb128 0x3a
 2082 00bd 0B       		.uleb128 0xb
 2083 00be 3B       		.uleb128 0x3b
 2084 00bf 05       		.uleb128 0x5
 2085 00c0 49       		.uleb128 0x49
 2086 00c1 13       		.uleb128 0x13
 2087 00c2 38       		.uleb128 0x38
 2088 00c3 05       		.uleb128 0x5
 2089 00c4 00       		.byte	0
 2090 00c5 00       		.byte	0
 2091 00c6 11       		.uleb128 0x11
 2092 00c7 34       		.uleb128 0x34
 2093 00c8 00       		.byte	0
 2094 00c9 03       		.uleb128 0x3
 2095 00ca 0E       		.uleb128 0xe
 2096 00cb 3A       		.uleb128 0x3a
 2097 00cc 0B       		.uleb128 0xb
 2098 00cd 3B       		.uleb128 0x3b
 2099 00ce 0B       		.uleb128 0xb
 2100 00cf 49       		.uleb128 0x49
 2101 00d0 13       		.uleb128 0x13
ARM GAS  /tmp/ccinRW2a.s 			page 38


 2102 00d1 3F       		.uleb128 0x3f
 2103 00d2 19       		.uleb128 0x19
 2104 00d3 3C       		.uleb128 0x3c
 2105 00d4 19       		.uleb128 0x19
 2106 00d5 00       		.byte	0
 2107 00d6 00       		.byte	0
 2108 00d7 12       		.uleb128 0x12
 2109 00d8 0D       		.uleb128 0xd
 2110 00d9 00       		.byte	0
 2111 00da 03       		.uleb128 0x3
 2112 00db 08       		.uleb128 0x8
 2113 00dc 3A       		.uleb128 0x3a
 2114 00dd 0B       		.uleb128 0xb
 2115 00de 3B       		.uleb128 0x3b
 2116 00df 0B       		.uleb128 0xb
 2117 00e0 49       		.uleb128 0x49
 2118 00e1 13       		.uleb128 0x13
 2119 00e2 38       		.uleb128 0x38
 2120 00e3 0B       		.uleb128 0xb
 2121 00e4 00       		.byte	0
 2122 00e5 00       		.byte	0
 2123 00e6 13       		.uleb128 0x13
 2124 00e7 13       		.uleb128 0x13
 2125 00e8 01       		.byte	0x1
 2126 00e9 0B       		.uleb128 0xb
 2127 00ea 0B       		.uleb128 0xb
 2128 00eb 3A       		.uleb128 0x3a
 2129 00ec 0B       		.uleb128 0xb
 2130 00ed 3B       		.uleb128 0x3b
 2131 00ee 0B       		.uleb128 0xb
 2132 00ef 01       		.uleb128 0x1
 2133 00f0 13       		.uleb128 0x13
 2134 00f1 00       		.byte	0
 2135 00f2 00       		.byte	0
 2136 00f3 14       		.uleb128 0x14
 2137 00f4 13       		.uleb128 0x13
 2138 00f5 01       		.byte	0x1
 2139 00f6 0B       		.uleb128 0xb
 2140 00f7 05       		.uleb128 0x5
 2141 00f8 3A       		.uleb128 0x3a
 2142 00f9 0B       		.uleb128 0xb
 2143 00fa 3B       		.uleb128 0x3b
 2144 00fb 0B       		.uleb128 0xb
 2145 00fc 01       		.uleb128 0x1
 2146 00fd 13       		.uleb128 0x13
 2147 00fe 00       		.byte	0
 2148 00ff 00       		.byte	0
 2149 0100 15       		.uleb128 0x15
 2150 0101 01       		.uleb128 0x1
 2151 0102 01       		.byte	0x1
 2152 0103 49       		.uleb128 0x49
 2153 0104 13       		.uleb128 0x13
 2154 0105 01       		.uleb128 0x1
 2155 0106 13       		.uleb128 0x13
 2156 0107 00       		.byte	0
 2157 0108 00       		.byte	0
 2158 0109 16       		.uleb128 0x16
ARM GAS  /tmp/ccinRW2a.s 			page 39


 2159 010a 21       		.uleb128 0x21
 2160 010b 00       		.byte	0
 2161 010c 49       		.uleb128 0x49
 2162 010d 13       		.uleb128 0x13
 2163 010e 2F       		.uleb128 0x2f
 2164 010f 0B       		.uleb128 0xb
 2165 0110 00       		.byte	0
 2166 0111 00       		.byte	0
 2167 0112 17       		.uleb128 0x17
 2168 0113 17       		.uleb128 0x17
 2169 0114 01       		.byte	0x1
 2170 0115 0B       		.uleb128 0xb
 2171 0116 0B       		.uleb128 0xb
 2172 0117 3A       		.uleb128 0x3a
 2173 0118 0B       		.uleb128 0xb
 2174 0119 3B       		.uleb128 0x3b
 2175 011a 0B       		.uleb128 0xb
 2176 011b 01       		.uleb128 0x1
 2177 011c 13       		.uleb128 0x13
 2178 011d 00       		.byte	0
 2179 011e 00       		.byte	0
 2180 011f 18       		.uleb128 0x18
 2181 0120 0D       		.uleb128 0xd
 2182 0121 00       		.byte	0
 2183 0122 03       		.uleb128 0x3
 2184 0123 0E       		.uleb128 0xe
 2185 0124 3A       		.uleb128 0x3a
 2186 0125 0B       		.uleb128 0xb
 2187 0126 3B       		.uleb128 0x3b
 2188 0127 05       		.uleb128 0x5
 2189 0128 49       		.uleb128 0x49
 2190 0129 13       		.uleb128 0x13
 2191 012a 00       		.byte	0
 2192 012b 00       		.byte	0
 2193 012c 19       		.uleb128 0x19
 2194 012d 35       		.uleb128 0x35
 2195 012e 00       		.byte	0
 2196 012f 49       		.uleb128 0x49
 2197 0130 13       		.uleb128 0x13
 2198 0131 00       		.byte	0
 2199 0132 00       		.byte	0
 2200 0133 1A       		.uleb128 0x1a
 2201 0134 34       		.uleb128 0x34
 2202 0135 00       		.byte	0
 2203 0136 03       		.uleb128 0x3
 2204 0137 08       		.uleb128 0x8
 2205 0138 3A       		.uleb128 0x3a
 2206 0139 0B       		.uleb128 0xb
 2207 013a 3B       		.uleb128 0x3b
 2208 013b 05       		.uleb128 0x5
 2209 013c 49       		.uleb128 0x49
 2210 013d 13       		.uleb128 0x13
 2211 013e 3F       		.uleb128 0x3f
 2212 013f 19       		.uleb128 0x19
 2213 0140 3C       		.uleb128 0x3c
 2214 0141 19       		.uleb128 0x19
 2215 0142 00       		.byte	0
ARM GAS  /tmp/ccinRW2a.s 			page 40


 2216 0143 00       		.byte	0
 2217 0144 1B       		.uleb128 0x1b
 2218 0145 15       		.uleb128 0x15
 2219 0146 01       		.byte	0x1
 2220 0147 27       		.uleb128 0x27
 2221 0148 19       		.uleb128 0x19
 2222 0149 49       		.uleb128 0x49
 2223 014a 13       		.uleb128 0x13
 2224 014b 01       		.uleb128 0x1
 2225 014c 13       		.uleb128 0x13
 2226 014d 00       		.byte	0
 2227 014e 00       		.byte	0
 2228 014f 1C       		.uleb128 0x1c
 2229 0150 0D       		.uleb128 0xd
 2230 0151 00       		.byte	0
 2231 0152 03       		.uleb128 0x3
 2232 0153 0E       		.uleb128 0xe
 2233 0154 3A       		.uleb128 0x3a
 2234 0155 0B       		.uleb128 0xb
 2235 0156 3B       		.uleb128 0x3b
 2236 0157 0B       		.uleb128 0xb
 2237 0158 49       		.uleb128 0x49
 2238 0159 13       		.uleb128 0x13
 2239 015a 00       		.byte	0
 2240 015b 00       		.byte	0
 2241 015c 1D       		.uleb128 0x1d
 2242 015d 17       		.uleb128 0x17
 2243 015e 01       		.byte	0x1
 2244 015f 03       		.uleb128 0x3
 2245 0160 0E       		.uleb128 0xe
 2246 0161 0B       		.uleb128 0xb
 2247 0162 0B       		.uleb128 0xb
 2248 0163 3A       		.uleb128 0x3a
 2249 0164 0B       		.uleb128 0xb
 2250 0165 3B       		.uleb128 0x3b
 2251 0166 0B       		.uleb128 0xb
 2252 0167 01       		.uleb128 0x1
 2253 0168 13       		.uleb128 0x13
 2254 0169 00       		.byte	0
 2255 016a 00       		.byte	0
 2256 016b 1E       		.uleb128 0x1e
 2257 016c 0D       		.uleb128 0xd
 2258 016d 00       		.byte	0
 2259 016e 03       		.uleb128 0x3
 2260 016f 08       		.uleb128 0x8
 2261 0170 3A       		.uleb128 0x3a
 2262 0171 0B       		.uleb128 0xb
 2263 0172 3B       		.uleb128 0x3b
 2264 0173 0B       		.uleb128 0xb
 2265 0174 49       		.uleb128 0x49
 2266 0175 13       		.uleb128 0x13
 2267 0176 00       		.byte	0
 2268 0177 00       		.byte	0
 2269 0178 1F       		.uleb128 0x1f
 2270 0179 15       		.uleb128 0x15
 2271 017a 00       		.byte	0
 2272 017b 27       		.uleb128 0x27
ARM GAS  /tmp/ccinRW2a.s 			page 41


 2273 017c 19       		.uleb128 0x19
 2274 017d 00       		.byte	0
 2275 017e 00       		.byte	0
 2276 017f 20       		.uleb128 0x20
 2277 0180 0D       		.uleb128 0xd
 2278 0181 00       		.byte	0
 2279 0182 03       		.uleb128 0x3
 2280 0183 08       		.uleb128 0x8
 2281 0184 3A       		.uleb128 0x3a
 2282 0185 0B       		.uleb128 0xb
 2283 0186 3B       		.uleb128 0x3b
 2284 0187 0B       		.uleb128 0xb
 2285 0188 49       		.uleb128 0x49
 2286 0189 13       		.uleb128 0x13
 2287 018a 38       		.uleb128 0x38
 2288 018b 05       		.uleb128 0x5
 2289 018c 00       		.byte	0
 2290 018d 00       		.byte	0
 2291 018e 21       		.uleb128 0x21
 2292 018f 17       		.uleb128 0x17
 2293 0190 01       		.byte	0x1
 2294 0191 03       		.uleb128 0x3
 2295 0192 0E       		.uleb128 0xe
 2296 0193 0B       		.uleb128 0xb
 2297 0194 05       		.uleb128 0x5
 2298 0195 3A       		.uleb128 0x3a
 2299 0196 0B       		.uleb128 0xb
 2300 0197 3B       		.uleb128 0x3b
 2301 0198 0B       		.uleb128 0xb
 2302 0199 01       		.uleb128 0x1
 2303 019a 13       		.uleb128 0x13
 2304 019b 00       		.byte	0
 2305 019c 00       		.byte	0
 2306 019d 22       		.uleb128 0x22
 2307 019e 21       		.uleb128 0x21
 2308 019f 00       		.byte	0
 2309 01a0 49       		.uleb128 0x49
 2310 01a1 13       		.uleb128 0x13
 2311 01a2 2F       		.uleb128 0x2f
 2312 01a3 05       		.uleb128 0x5
 2313 01a4 00       		.byte	0
 2314 01a5 00       		.byte	0
 2315 01a6 23       		.uleb128 0x23
 2316 01a7 21       		.uleb128 0x21
 2317 01a8 00       		.byte	0
 2318 01a9 00       		.byte	0
 2319 01aa 00       		.byte	0
 2320 01ab 24       		.uleb128 0x24
 2321 01ac 34       		.uleb128 0x34
 2322 01ad 00       		.byte	0
 2323 01ae 03       		.uleb128 0x3
 2324 01af 08       		.uleb128 0x8
 2325 01b0 3A       		.uleb128 0x3a
 2326 01b1 0B       		.uleb128 0xb
 2327 01b2 3B       		.uleb128 0x3b
 2328 01b3 0B       		.uleb128 0xb
 2329 01b4 49       		.uleb128 0x49
ARM GAS  /tmp/ccinRW2a.s 			page 42


 2330 01b5 13       		.uleb128 0x13
 2331 01b6 3F       		.uleb128 0x3f
 2332 01b7 19       		.uleb128 0x19
 2333 01b8 3C       		.uleb128 0x3c
 2334 01b9 19       		.uleb128 0x19
 2335 01ba 00       		.byte	0
 2336 01bb 00       		.byte	0
 2337 01bc 25       		.uleb128 0x25
 2338 01bd 34       		.uleb128 0x34
 2339 01be 00       		.byte	0
 2340 01bf 03       		.uleb128 0x3
 2341 01c0 0E       		.uleb128 0xe
 2342 01c1 3A       		.uleb128 0x3a
 2343 01c2 0B       		.uleb128 0xb
 2344 01c3 3B       		.uleb128 0x3b
 2345 01c4 0B       		.uleb128 0xb
 2346 01c5 49       		.uleb128 0x49
 2347 01c6 13       		.uleb128 0x13
 2348 01c7 02       		.uleb128 0x2
 2349 01c8 18       		.uleb128 0x18
 2350 01c9 00       		.byte	0
 2351 01ca 00       		.byte	0
 2352 01cb 26       		.uleb128 0x26
 2353 01cc 34       		.uleb128 0x34
 2354 01cd 00       		.byte	0
 2355 01ce 03       		.uleb128 0x3
 2356 01cf 0E       		.uleb128 0xe
 2357 01d0 3A       		.uleb128 0x3a
 2358 01d1 0B       		.uleb128 0xb
 2359 01d2 3B       		.uleb128 0x3b
 2360 01d3 0B       		.uleb128 0xb
 2361 01d4 49       		.uleb128 0x49
 2362 01d5 13       		.uleb128 0x13
 2363 01d6 3F       		.uleb128 0x3f
 2364 01d7 19       		.uleb128 0x19
 2365 01d8 02       		.uleb128 0x2
 2366 01d9 18       		.uleb128 0x18
 2367 01da 00       		.byte	0
 2368 01db 00       		.byte	0
 2369 01dc 27       		.uleb128 0x27
 2370 01dd 2E       		.uleb128 0x2e
 2371 01de 01       		.byte	0x1
 2372 01df 03       		.uleb128 0x3
 2373 01e0 0E       		.uleb128 0xe
 2374 01e1 3A       		.uleb128 0x3a
 2375 01e2 0B       		.uleb128 0xb
 2376 01e3 3B       		.uleb128 0x3b
 2377 01e4 0B       		.uleb128 0xb
 2378 01e5 27       		.uleb128 0x27
 2379 01e6 19       		.uleb128 0x19
 2380 01e7 11       		.uleb128 0x11
 2381 01e8 01       		.uleb128 0x1
 2382 01e9 12       		.uleb128 0x12
 2383 01ea 06       		.uleb128 0x6
 2384 01eb 40       		.uleb128 0x40
 2385 01ec 18       		.uleb128 0x18
 2386 01ed 9642     		.uleb128 0x2116
ARM GAS  /tmp/ccinRW2a.s 			page 43


 2387 01ef 19       		.uleb128 0x19
 2388 01f0 01       		.uleb128 0x1
 2389 01f1 13       		.uleb128 0x13
 2390 01f2 00       		.byte	0
 2391 01f3 00       		.byte	0
 2392 01f4 28       		.uleb128 0x28
 2393 01f5 34       		.uleb128 0x34
 2394 01f6 00       		.byte	0
 2395 01f7 03       		.uleb128 0x3
 2396 01f8 08       		.uleb128 0x8
 2397 01f9 3A       		.uleb128 0x3a
 2398 01fa 0B       		.uleb128 0xb
 2399 01fb 3B       		.uleb128 0x3b
 2400 01fc 0B       		.uleb128 0xb
 2401 01fd 49       		.uleb128 0x49
 2402 01fe 13       		.uleb128 0x13
 2403 01ff 02       		.uleb128 0x2
 2404 0200 18       		.uleb128 0x18
 2405 0201 00       		.byte	0
 2406 0202 00       		.byte	0
 2407 0203 29       		.uleb128 0x29
 2408 0204 2E       		.uleb128 0x2e
 2409 0205 00       		.byte	0
 2410 0206 03       		.uleb128 0x3
 2411 0207 0E       		.uleb128 0xe
 2412 0208 3A       		.uleb128 0x3a
 2413 0209 0B       		.uleb128 0xb
 2414 020a 3B       		.uleb128 0x3b
 2415 020b 0B       		.uleb128 0xb
 2416 020c 27       		.uleb128 0x27
 2417 020d 19       		.uleb128 0x19
 2418 020e 11       		.uleb128 0x11
 2419 020f 01       		.uleb128 0x1
 2420 0210 12       		.uleb128 0x12
 2421 0211 06       		.uleb128 0x6
 2422 0212 40       		.uleb128 0x40
 2423 0213 18       		.uleb128 0x18
 2424 0214 9642     		.uleb128 0x2116
 2425 0216 19       		.uleb128 0x19
 2426 0217 00       		.byte	0
 2427 0218 00       		.byte	0
 2428 0219 00       		.byte	0
 2429              		.section	.debug_aranges,"",%progbits
 2430 0000 24000000 		.4byte	0x24
 2431 0004 0200     		.2byte	0x2
 2432 0006 00000000 		.4byte	.Ldebug_info0
 2433 000a 04       		.byte	0x4
 2434 000b 00       		.byte	0
 2435 000c 0000     		.2byte	0
 2436 000e 0000     		.2byte	0
 2437 0010 00000000 		.4byte	.LFB152
 2438 0014 1C000000 		.4byte	.LFE152-.LFB152
 2439 0018 00000000 		.4byte	.LFB153
 2440 001c 3C030000 		.4byte	.LFE153-.LFB153
 2441 0020 00000000 		.4byte	0
 2442 0024 00000000 		.4byte	0
 2443              		.section	.debug_ranges,"",%progbits
ARM GAS  /tmp/ccinRW2a.s 			page 44


 2444              	.Ldebug_ranges0:
 2445 0000 00000000 		.4byte	.LFB152
 2446 0004 1C000000 		.4byte	.LFE152
 2447 0008 00000000 		.4byte	.LFB153
 2448 000c 3C030000 		.4byte	.LFE153
 2449 0010 00000000 		.4byte	0
 2450 0014 00000000 		.4byte	0
 2451              		.section	.debug_line,"",%progbits
 2452              	.Ldebug_line0:
 2453 0000 05030000 		.section	.debug_str,"MS",%progbits,1
 2453      02008202 
 2453      00000201 
 2453      FB0E0D00 
 2453      01010101 
 2454              	.LASF51:
 2455 0000 63685F74 		.ascii	"ch_threads_list\000"
 2455      68726561 
 2455      64735F6C 
 2455      69737400 
 2456              	.LASF52:
 2457 0010 74687265 		.ascii	"threads_queue_t\000"
 2457      6164735F 
 2457      71756575 
 2457      655F7400 
 2458              	.LASF41:
 2459 0020 705F7761 		.ascii	"p_waiting\000"
 2459      6974696E 
 2459      6700
 2460              	.LASF114:
 2461 002a 53797374 		.ascii	"SystemCoreClock\000"
 2461      656D436F 
 2461      7265436C 
 2461      6F636B00 
 2462              	.LASF104:
 2463 003a 77746D74 		.ascii	"wtmtxp\000"
 2463      787000
 2464              	.LASF163:
 2465 0041 43686962 		.ascii	"ChibiOS/test/rt/testheap.c\000"
 2465      694F532F 
 2465      74657374 
 2465      2F72742F 
 2465      74657374 
 2466              	.LASF113:
 2467 005c 63686172 		.ascii	"char\000"
 2467      00
 2468              	.LASF86:
 2469 0061 72656761 		.ascii	"regarm_t\000"
 2469      726D5F74 
 2469      00
 2470              	.LASF32:
 2471 006a 705F7072 		.ascii	"p_prio\000"
 2471      696F00
 2472              	.LASF28:
 2473 0071 73797374 		.ascii	"systime_t\000"
 2473      696D655F 
 2473      7400
 2474              	.LASF154:
ARM GAS  /tmp/ccinRW2a.s 			page 45


 2475 007b 62756666 		.ascii	"buffer\000"
 2475      657200
 2476              	.LASF125:
 2477 0082 63665F6F 		.ascii	"cf_off_older\000"
 2477      66665F6F 
 2477      6C646572 
 2477      00
 2478              	.LASF111:
 2479 008f 6D5F6F77 		.ascii	"m_owner\000"
 2479      6E657200 
 2480              	.LASF107:
 2481 0097 735F7175 		.ascii	"s_queue\000"
 2481      65756500 
 2482              	.LASF42:
 2483 009f 705F6D73 		.ascii	"p_msgqueue\000"
 2483      67717565 
 2483      756500
 2484              	.LASF0:
 2485 00aa 756E7369 		.ascii	"unsigned int\000"
 2485      676E6564 
 2485      20696E74 
 2485      00
 2486              	.LASF166:
 2487 00b7 68656170 		.ascii	"heap1_setup\000"
 2487      315F7365 
 2487      74757000 
 2488              	.LASF143:
 2489 00c3 6E657874 		.ascii	"next\000"
 2489      00
 2490              	.LASF49:
 2491 00c8 74687265 		.ascii	"threads_list_t\000"
 2491      6164735F 
 2491      6C697374 
 2491      5F7400
 2492              	.LASF10:
 2493 00d7 5F5F696E 		.ascii	"__int32_t\000"
 2493      7433325F 
 2493      7400
 2494              	.LASF93:
 2495 00e1 73655F73 		.ascii	"se_state\000"
 2495      74617465 
 2495      00
 2496              	.LASF126:
 2497 00ea 63665F6F 		.ascii	"cf_off_name\000"
 2497      66665F6E 
 2497      616D6500 
 2498              	.LASF144:
 2499 00f6 68656170 		.ascii	"heap\000"
 2499      00
 2500              	.LASF157:
 2501 00fb 74657374 		.ascii	"test\000"
 2501      00
 2502              	.LASF101:
 2503 0100 77746F62 		.ascii	"wtobjp\000"
 2503      6A7000
 2504              	.LASF82:
 2505 0107 76746C69 		.ascii	"vtlist\000"
ARM GAS  /tmp/ccinRW2a.s 			page 46


 2505      737400
 2506              	.LASF55:
 2507 010e 63685F72 		.ascii	"ch_ready_list\000"
 2507      65616479 
 2507      5F6C6973 
 2507      7400
 2508              	.LASF84:
 2509 011c 69646C65 		.ascii	"idle_thread_wa\000"
 2509      5F746872 
 2509      6561645F 
 2509      776100
 2510              	.LASF105:
 2511 012b 65776D61 		.ascii	"ewmask\000"
 2511      736B00
 2512              	.LASF129:
 2513 0132 63665F6F 		.ascii	"cf_off_flags\000"
 2513      66665F66 
 2513      6C616773 
 2513      00
 2514              	.LASF53:
 2515 013f 63685F74 		.ascii	"ch_threads_queue\000"
 2515      68726561 
 2515      64735F71 
 2515      75657565 
 2515      00
 2516              	.LASF119:
 2517 0150 63685F70 		.ascii	"ch_ptrsize\000"
 2517      74727369 
 2517      7A6500
 2518              	.LASF62:
 2519 015b 76746675 		.ascii	"vtfunc_t\000"
 2519      6E635F74 
 2519      00
 2520              	.LASF108:
 2521 0164 735F636E 		.ascii	"s_cnt\000"
 2521      7400
 2522              	.LASF74:
 2523 016a 63685F73 		.ascii	"ch_system_debug\000"
 2523      79737465 
 2523      6D5F6465 
 2523      62756700 
 2524              	.LASF141:
 2525 017a 685F6672 		.ascii	"h_free\000"
 2525      656500
 2526              	.LASF164:
 2527 0181 2F686F6D 		.ascii	"/home/felix/esho/Ultrasound/\000"
 2527      652F6665 
 2527      6C69782F 
 2527      6573686F 
 2527      2F556C74 
 2528              	.LASF19:
 2529 019e 75696E74 		.ascii	"uint32_t\000"
 2529      33325F74 
 2529      00
 2530              	.LASF120:
 2531 01a7 63685F74 		.ascii	"ch_timesize\000"
 2531      696D6573 
ARM GAS  /tmp/ccinRW2a.s 			page 47


 2531      697A6500 
 2532              	.LASF26:
 2533 01b3 6576656E 		.ascii	"eventmask_t\000"
 2533      746D6173 
 2533      6B5F7400 
 2534              	.LASF57:
 2535 01bf 725F7072 		.ascii	"r_prio\000"
 2535      696F00
 2536              	.LASF69:
 2537 01c6 76745F70 		.ascii	"vt_par\000"
 2537      617200
 2538              	.LASF106:
 2539 01cd 63685F73 		.ascii	"ch_semaphore\000"
 2539      656D6170 
 2539      686F7265 
 2539      00
 2540              	.LASF24:
 2541 01da 74707269 		.ascii	"tprio_t\000"
 2541      6F5F7400 
 2542              	.LASF64:
 2543 01e2 63685F76 		.ascii	"ch_virtual_timer\000"
 2543      69727475 
 2543      616C5F74 
 2543      696D6572 
 2543      00
 2544              	.LASF15:
 2545 01f3 6C6F6E67 		.ascii	"long long unsigned int\000"
 2545      206C6F6E 
 2545      6720756E 
 2545      7369676E 
 2545      65642069 
 2546              	.LASF92:
 2547 020a 73655F77 		.ascii	"se_wtobjp\000"
 2547      746F626A 
 2547      7000
 2548              	.LASF159:
 2549 0214 74657374 		.ascii	"testheap1\000"
 2549      68656170 
 2549      3100
 2550              	.LASF155:
 2551 021e 74657374 		.ascii	"test_global_fail\000"
 2551      5F676C6F 
 2551      62616C5F 
 2551      6661696C 
 2551      00
 2552              	.LASF8:
 2553 022f 5F5F7569 		.ascii	"__uint16_t\000"
 2553      6E743136 
 2553      5F7400
 2554              	.LASF27:
 2555 023a 636E745F 		.ascii	"cnt_t\000"
 2555      7400
 2556              	.LASF147:
 2557 0240 74657374 		.ascii	"testcase\000"
 2557      63617365 
 2557      00
 2558              	.LASF76:
ARM GAS  /tmp/ccinRW2a.s 			page 48


 2559 0249 6973725F 		.ascii	"isr_cnt\000"
 2559      636E7400 
 2560              	.LASF34:
 2561 0251 705F6E65 		.ascii	"p_newer\000"
 2561      77657200 
 2562              	.LASF71:
 2563 0259 63685F76 		.ascii	"ch_virtual_timers_list\000"
 2563      69727475 
 2563      616C5F74 
 2563      696D6572 
 2563      735F6C69 
 2564              	.LASF90:
 2565 0270 73655F74 		.ascii	"se_time\000"
 2565      696D6500 
 2566              	.LASF29:
 2567 0278 74687265 		.ascii	"thread_t\000"
 2567      61645F74 
 2567      00
 2568              	.LASF152:
 2569 0281 68656170 		.ascii	"heap_header\000"
 2569      5F686561 
 2569      64657200 
 2570              	.LASF4:
 2571 028d 73697A65 		.ascii	"size_t\000"
 2571      5F7400
 2572              	.LASF99:
 2573 0294 7264796D 		.ascii	"rdymsg\000"
 2573      736700
 2574              	.LASF121:
 2575 029b 63685F74 		.ascii	"ch_threadsize\000"
 2575      68726561 
 2575      6473697A 
 2575      6500
 2576              	.LASF131:
 2577 02a9 63665F6F 		.ascii	"cf_off_preempt\000"
 2577      66665F70 
 2577      7265656D 
 2577      707400
 2578              	.LASF136:
 2579 02b8 5F426F6F 		.ascii	"_Bool\000"
 2579      6C00
 2580              	.LASF162:
 2581 02be 474E5520 		.ascii	"GNU C11 6.3.1 20170215 (release) [ARM/embedded-6-br"
 2581      43313120 
 2581      362E332E 
 2581      31203230 
 2581      31373032 
 2582 02f1 616E6368 		.ascii	"anch revision 245512] -mcpu=cortex-m0 -mno-thumb-in"
 2582      20726576 
 2582      6973696F 
 2582      6E203234 
 2582      35353132 
 2583 0324 74657277 		.ascii	"terwork -mthumb -ggdb -O0 -fomit-frame-pointer -fal"
 2583      6F726B20 
 2583      2D6D7468 
 2583      756D6220 
 2583      2D676764 
ARM GAS  /tmp/ccinRW2a.s 			page 49


 2584 0357 69676E2D 		.ascii	"ign-functions=16 -ffunction-sections -fdata-section"
 2584      66756E63 
 2584      74696F6E 
 2584      733D3136 
 2584      202D6666 
 2585 038a 7300     		.ascii	"s\000"
 2586              	.LASF109:
 2587 038c 63685F6D 		.ascii	"ch_mutex\000"
 2587      75746578 
 2587      00
 2588              	.LASF14:
 2589 0395 5F5F7569 		.ascii	"__uint64_t\000"
 2589      6E743634 
 2589      5F7400
 2590              	.LASF123:
 2591 03a0 63665F6F 		.ascii	"cf_off_ctx\000"
 2591      66665F63 
 2591      747800
 2592              	.LASF127:
 2593 03ab 63665F6F 		.ascii	"cf_off_stklimit\000"
 2593      66665F73 
 2593      746B6C69 
 2593      6D697400 
 2594              	.LASF36:
 2595 03bb 705F6E61 		.ascii	"p_name\000"
 2595      6D6500
 2596              	.LASF140:
 2597 03c2 685F7072 		.ascii	"h_provider\000"
 2597      6F766964 
 2597      657200
 2598              	.LASF160:
 2599 03cd 70617474 		.ascii	"patternheap\000"
 2599      65726E68 
 2599      65617000 
 2600              	.LASF67:
 2601 03d9 76745F64 		.ascii	"vt_delta\000"
 2601      656C7461 
 2601      00
 2602              	.LASF48:
 2603 03e2 74687265 		.ascii	"thread_reference_t\000"
 2603      61645F72 
 2603      65666572 
 2603      656E6365 
 2603      5F7400
 2604              	.LASF72:
 2605 03f5 76745F6C 		.ascii	"vt_lasttime\000"
 2605      61737474 
 2605      696D6500 
 2606              	.LASF22:
 2607 0401 74737461 		.ascii	"tstate_t\000"
 2607      74655F74 
 2607      00
 2608              	.LASF91:
 2609 040a 73655F74 		.ascii	"se_tp\000"
 2609      7000
 2610              	.LASF35:
 2611 0410 705F6F6C 		.ascii	"p_older\000"
ARM GAS  /tmp/ccinRW2a.s 			page 50


 2611      64657200 
 2612              	.LASF38:
 2613 0418 705F7374 		.ascii	"p_state\000"
 2613      61746500 
 2614              	.LASF37:
 2615 0420 705F7374 		.ascii	"p_stklimit\000"
 2615      6B6C696D 
 2615      697400
 2616              	.LASF16:
 2617 042b 75696E74 		.ascii	"uint8_t\000"
 2617      385F7400 
 2618              	.LASF97:
 2619 0433 74625F62 		.ascii	"tb_buffer\000"
 2619      75666665 
 2619      7200
 2620              	.LASF47:
 2621 043d 705F6D70 		.ascii	"p_mpool\000"
 2621      6F6F6C00 
 2622              	.LASF45:
 2623 0445 705F6D74 		.ascii	"p_mtxlist\000"
 2623      786C6973 
 2623      7400
 2624              	.LASF50:
 2625 044f 63685F74 		.ascii	"ch_thread\000"
 2625      68726561 
 2625      6400
 2626              	.LASF151:
 2627 0459 65786563 		.ascii	"execute\000"
 2627      75746500 
 2628              	.LASF142:
 2629 0461 685F6D74 		.ascii	"h_mtx\000"
 2629      7800
 2630              	.LASF95:
 2631 0467 74625F73 		.ascii	"tb_size\000"
 2631      697A6500 
 2632              	.LASF73:
 2633 046f 73797374 		.ascii	"system_debug_t\000"
 2633      656D5F64 
 2633      65627567 
 2633      5F7400
 2634              	.LASF1:
 2635 047e 6C6F6E67 		.ascii	"long long int\000"
 2635      206C6F6E 
 2635      6720696E 
 2635      7400
 2636              	.LASF56:
 2637 048c 725F7175 		.ascii	"r_queue\000"
 2637      65756500 
 2638              	.LASF59:
 2639 0494 725F6E65 		.ascii	"r_newer\000"
 2639      77657200 
 2640              	.LASF25:
 2641 049c 6D73675F 		.ascii	"msg_t\000"
 2641      7400
 2642              	.LASF165:
 2643 04a2 68656170 		.ascii	"heap1_execute\000"
 2643      315F6578 
ARM GAS  /tmp/ccinRW2a.s 			page 51


 2643      65637574 
 2643      6500
 2644              	.LASF88:
 2645 04b0 636F6E74 		.ascii	"context\000"
 2645      65787400 
 2646              	.LASF150:
 2647 04b8 74656172 		.ascii	"teardown\000"
 2647      646F776E 
 2647      00
 2648              	.LASF39:
 2649 04c1 705F666C 		.ascii	"p_flags\000"
 2649      61677300 
 2650              	.LASF63:
 2651 04c9 76697274 		.ascii	"virtual_timer_t\000"
 2651      75616C5F 
 2651      74696D65 
 2651      725F7400 
 2652              	.LASF130:
 2653 04d9 63665F6F 		.ascii	"cf_off_refs\000"
 2653      66665F72 
 2653      65667300 
 2654              	.LASF116:
 2655 04e5 63685F7A 		.ascii	"ch_zero\000"
 2655      65726F00 
 2656              	.LASF146:
 2657 04ed 73697A65 		.ascii	"size\000"
 2657      00
 2658              	.LASF96:
 2659 04f2 74625F70 		.ascii	"tb_ptr\000"
 2659      747200
 2660              	.LASF60:
 2661 04f9 725F6F6C 		.ascii	"r_older\000"
 2661      64657200 
 2662              	.LASF138:
 2663 0501 6D656D6F 		.ascii	"memory_heap_t\000"
 2663      72795F68 
 2663      6561705F 
 2663      7400
 2664              	.LASF75:
 2665 050f 70616E69 		.ascii	"panic_msg\000"
 2665      635F6D73 
 2665      6700
 2666              	.LASF43:
 2667 0519 705F6D73 		.ascii	"p_msg\000"
 2667      6700
 2668              	.LASF21:
 2669 051f 746D6F64 		.ascii	"tmode_t\000"
 2669      655F7400 
 2670              	.LASF117:
 2671 0527 63685F73 		.ascii	"ch_size\000"
 2671      697A6500 
 2672              	.LASF83:
 2673 052f 6D61696E 		.ascii	"mainthread\000"
 2673      74687265 
 2673      616400
 2674              	.LASF2:
 2675 053a 6C6F6E67 		.ascii	"long double\000"
ARM GAS  /tmp/ccinRW2a.s 			page 52


 2675      20646F75 
 2675      626C6500 
 2676              	.LASF17:
 2677 0546 75696E74 		.ascii	"uint16_t\000"
 2677      31365F74 
 2677      00
 2678              	.LASF133:
 2679 054f 63686465 		.ascii	"chdebug_t\000"
 2679      6275675F 
 2679      7400
 2680              	.LASF77:
 2681 0559 6C6F636B 		.ascii	"lock_cnt\000"
 2681      5F636E74 
 2681      00
 2682              	.LASF46:
 2683 0562 705F7265 		.ascii	"p_realprio\000"
 2683      616C7072 
 2683      696F00
 2684              	.LASF118:
 2685 056d 63685F76 		.ascii	"ch_version\000"
 2685      65727369 
 2685      6F6E00
 2686              	.LASF7:
 2687 0578 73686F72 		.ascii	"short int\000"
 2687      7420696E 
 2687      7400
 2688              	.LASF139:
 2689 0582 6D656D6F 		.ascii	"memory_heap\000"
 2689      72795F68 
 2689      65617000 
 2690              	.LASF61:
 2691 058e 725F6375 		.ascii	"r_current\000"
 2691      7272656E 
 2691      7400
 2692              	.LASF44:
 2693 0598 705F6570 		.ascii	"p_epending\000"
 2693      656E6469 
 2693      6E6700
 2694              	.LASF110:
 2695 05a3 6D5F7175 		.ascii	"m_queue\000"
 2695      65756500 
 2696              	.LASF11:
 2697 05ab 6C6F6E67 		.ascii	"long int\000"
 2697      20696E74 
 2697      00
 2698              	.LASF89:
 2699 05b4 706F7274 		.ascii	"port_intctx\000"
 2699      5F696E74 
 2699      63747800 
 2700              	.LASF80:
 2701 05c0 63685F73 		.ascii	"ch_system\000"
 2701      79737465 
 2701      6D00
 2702              	.LASF30:
 2703 05ca 705F6E65 		.ascii	"p_next\000"
 2703      787400
 2704              	.LASF20:
ARM GAS  /tmp/ccinRW2a.s 			page 53


 2705 05d1 75696E74 		.ascii	"uint64_t\000"
 2705      36345F74 
 2705      00
 2706              	.LASF33:
 2707 05da 705F6374 		.ascii	"p_ctx\000"
 2707      7800
 2708              	.LASF81:
 2709 05e0 726C6973 		.ascii	"rlist\000"
 2709      7400
 2710              	.LASF132:
 2711 05e6 63665F6F 		.ascii	"cf_off_time\000"
 2711      66665F74 
 2711      696D6500 
 2712              	.LASF122:
 2713 05f2 63665F6F 		.ascii	"cf_off_prio\000"
 2713      66665F70 
 2713      72696F00 
 2714              	.LASF5:
 2715 05fe 5F5F7569 		.ascii	"__uint8_t\000"
 2715      6E74385F 
 2715      7400
 2716              	.LASF137:
 2717 0608 6D656D67 		.ascii	"memgetfunc_t\000"
 2717      65746675 
 2717      6E635F74 
 2717      00
 2718              	.LASF148:
 2719 0615 6E616D65 		.ascii	"name\000"
 2719      00
 2720              	.LASF115:
 2721 061a 63685F69 		.ascii	"ch_identifier\000"
 2721      64656E74 
 2721      69666965 
 2721      7200
 2722              	.LASF31:
 2723 0628 705F7072 		.ascii	"p_prev\000"
 2723      657600
 2724              	.LASF161:
 2725 062f 74657374 		.ascii	"test_heap\000"
 2725      5F686561 
 2725      7000
 2726              	.LASF85:
 2727 0639 73697A65 		.ascii	"sizetype\000"
 2727      74797065 
 2727      00
 2728              	.LASF23:
 2729 0642 74726566 		.ascii	"trefs_t\000"
 2729      735F7400 
 2730              	.LASF13:
 2731 064a 6C6F6E67 		.ascii	"long unsigned int\000"
 2731      20756E73 
 2731      69676E65 
 2731      6420696E 
 2731      7400
 2732              	.LASF128:
 2733 065c 63665F6F 		.ascii	"cf_off_state\000"
 2733      66665F73 
ARM GAS  /tmp/ccinRW2a.s 			page 54


 2733      74617465 
 2733      00
 2734              	.LASF54:
 2735 0669 72656164 		.ascii	"ready_list_t\000"
 2735      795F6C69 
 2735      73745F74 
 2735      00
 2736              	.LASF156:
 2737 0676 74687265 		.ascii	"threads\000"
 2737      61647300 
 2738              	.LASF18:
 2739 067e 696E7433 		.ascii	"int32_t\000"
 2739      325F7400 
 2740              	.LASF78:
 2741 0686 74726163 		.ascii	"trace_buffer\000"
 2741      655F6275 
 2741      66666572 
 2741      00
 2742              	.LASF103:
 2743 0693 77747365 		.ascii	"wtsemp\000"
 2743      6D7000
 2744              	.LASF94:
 2745 069a 63685F73 		.ascii	"ch_swc_event_t\000"
 2745      77635F65 
 2745      76656E74 
 2745      5F7400
 2746              	.LASF135:
 2747 06a9 6D757465 		.ascii	"mutex_t\000"
 2747      785F7400 
 2748              	.LASF6:
 2749 06b1 756E7369 		.ascii	"unsigned char\000"
 2749      676E6564 
 2749      20636861 
 2749      7200
 2750              	.LASF149:
 2751 06bf 73657475 		.ascii	"setup\000"
 2751      7000
 2752              	.LASF12:
 2753 06c5 5F5F7569 		.ascii	"__uint32_t\000"
 2753      6E743332 
 2753      5F7400
 2754              	.LASF70:
 2755 06d0 76697274 		.ascii	"virtual_timers_list_t\000"
 2755      75616C5F 
 2755      74696D65 
 2755      72735F6C 
 2755      6973745F 
 2756              	.LASF40:
 2757 06e6 705F7265 		.ascii	"p_refs\000"
 2757      667300
 2758              	.LASF153:
 2759 06ed 74657374 		.ascii	"test_buffers\000"
 2759      5F627566 
 2759      66657273 
 2759      00
 2760              	.LASF65:
 2761 06fa 76745F6E 		.ascii	"vt_next\000"
ARM GAS  /tmp/ccinRW2a.s 			page 55


 2761      65787400 
 2762              	.LASF79:
 2763 0702 63685F73 		.ascii	"ch_system_t\000"
 2763      79737465 
 2763      6D5F7400 
 2764              	.LASF102:
 2765 070e 77747472 		.ascii	"wttrp\000"
 2765      7000
 2766              	.LASF98:
 2767 0714 63685F74 		.ascii	"ch_trace_buffer_t\000"
 2767      72616365 
 2767      5F627566 
 2767      6665725F 
 2767      7400
 2768              	.LASF112:
 2769 0726 6D5F6E65 		.ascii	"m_next\000"
 2769      787400
 2770              	.LASF3:
 2771 072d 7369676E 		.ascii	"signed char\000"
 2771      65642063 
 2771      68617200 
 2772              	.LASF124:
 2773 0739 63665F6F 		.ascii	"cf_off_newer\000"
 2773      66665F6E 
 2773      65776572 
 2773      00
 2774              	.LASF9:
 2775 0746 73686F72 		.ascii	"short unsigned int\000"
 2775      7420756E 
 2775      7369676E 
 2775      65642069 
 2775      6E7400
 2776              	.LASF58:
 2777 0759 725F6374 		.ascii	"r_ctx\000"
 2777      7800
 2778              	.LASF87:
 2779 075f 73746B61 		.ascii	"stkalign_t\000"
 2779      6C69676E 
 2779      5F7400
 2780              	.LASF134:
 2781 076a 63685F64 		.ascii	"ch_debug\000"
 2781      65627567 
 2781      00
 2782              	.LASF68:
 2783 0773 76745F66 		.ascii	"vt_func\000"
 2783      756E6300 
 2784              	.LASF66:
 2785 077b 76745F70 		.ascii	"vt_prev\000"
 2785      72657600 
 2786              	.LASF158:
 2787 0783 74657374 		.ascii	"test_timer_done\000"
 2787      5F74696D 
 2787      65725F64 
 2787      6F6E6500 
 2788              	.LASF145:
 2789 0793 616C6967 		.ascii	"align\000"
 2789      6E00
ARM GAS  /tmp/ccinRW2a.s 			page 56


 2790              	.LASF100:
 2791 0799 65786974 		.ascii	"exitcode\000"
 2791      636F6465 
 2791      00
 2792              		.ident	"GCC: (GNU Tools for ARM Embedded Processors 6-2017-q1-update) 6.3.1 20170215 (release) [AR
ARM GAS  /tmp/ccinRW2a.s 			page 57


DEFINED SYMBOLS
                            *ABS*:0000000000000000 testheap.c
     /tmp/ccinRW2a.s:16     .bss.test_heap:0000000000000000 $d
     /tmp/ccinRW2a.s:19     .bss.test_heap:0000000000000000 test_heap
     /tmp/ccinRW2a.s:22     .text.heap1_setup:0000000000000000 $t
     /tmp/ccinRW2a.s:29     .text.heap1_setup:0000000000000000 heap1_setup
     /tmp/ccinRW2a.s:54     .text.heap1_setup:0000000000000014 $d
     /tmp/ccinRW2a.s:60     .text.heap1_execute:0000000000000000 $t
     /tmp/ccinRW2a.s:67     .text.heap1_execute:0000000000000000 heap1_execute
     /tmp/ccinRW2a.s:517    .text.heap1_execute:0000000000000334 $d
     /tmp/ccinRW2a.s:531    .rodata.testheap1:0000000000000000 testheap1
     /tmp/ccinRW2a.s:524    .rodata:0000000000000000 $d
     /tmp/ccinRW2a.s:528    .rodata.testheap1:0000000000000000 $d
     /tmp/ccinRW2a.s:541    .rodata.patternheap:0000000000000000 patternheap
     /tmp/ccinRW2a.s:538    .rodata.patternheap:0000000000000000 $d
                     .debug_frame:0000000000000010 $d

UNDEFINED SYMBOLS
chHeapObjectInit
test
chCoreGetStatusX
chHeapStatus
chHeapAlloc
_test_assert
chHeapFree
