ARM GAS  /tmp/ccBBWsqH.s 			page 1


   1              		.cpu cortex-m0
   2              		.eabi_attribute 20, 1
   3              		.eabi_attribute 21, 1
   4              		.eabi_attribute 23, 3
   5              		.eabi_attribute 24, 1
   6              		.eabi_attribute 25, 1
   7              		.eabi_attribute 26, 1
   8              		.eabi_attribute 30, 6
   9              		.eabi_attribute 34, 0
  10              		.eabi_attribute 18, 4
  11              		.file	"testmsg.c"
  12              		.text
  13              	.Ltext0:
  14              		.cfi_sections	.debug_frame
  15              		.section	.text.chThdGetSelfX,"ax",%progbits
  16              		.align	1
  17              		.p2align 4,,15
  18              		.syntax unified
  19              		.code	16
  20              		.thumb_func
  21              		.fpu softvfp
  22              		.type	chThdGetSelfX, %function
  23              	chThdGetSelfX:
  24              	.LFB99:
  25              		.file 1 "ChibiOS/os/rt/include/chthreads.h"
  26              		.loc 1 174 0
  27              		.cfi_startproc
  28              		@ args = 0, pretend = 0, frame = 0
  29              		@ frame_needed = 0, uses_anonymous_args = 0
  30              		@ link register save eliminated.
  31              		.loc 1 176 0
  32 0000 014B     		ldr	r3, .L3
  33 0002 9B69     		ldr	r3, [r3, #24]
  34              		.loc 1 177 0
  35 0004 1800     		movs	r0, r3
  36              		@ sp needed
  37 0006 7047     		bx	lr
  38              	.L4:
  39              		.align	2
  40              	.L3:
  41 0008 00000000 		.word	ch
  42              		.cfi_endproc
  43              	.LFE99:
  44              		.size	chThdGetSelfX, .-chThdGetSelfX
  45              		.section	.text.chThdGetPriorityX,"ax",%progbits
  46              		.align	1
  47              		.p2align 4,,15
  48              		.syntax unified
  49              		.code	16
  50              		.thumb_func
  51              		.fpu softvfp
  52              		.type	chThdGetPriorityX, %function
  53              	chThdGetPriorityX:
  54              	.LFB100:
  55              		.loc 1 187 0
  56              		.cfi_startproc
  57              		@ args = 0, pretend = 0, frame = 0
ARM GAS  /tmp/ccBBWsqH.s 			page 2


  58              		@ frame_needed = 0, uses_anonymous_args = 0
  59 0000 10B5     		push	{r4, lr}
  60              		.cfi_def_cfa_offset 8
  61              		.cfi_offset 4, -8
  62              		.cfi_offset 14, -4
  63              		.loc 1 189 0
  64 0002 FFF7FEFF 		bl	chThdGetSelfX
  65 0006 0300     		movs	r3, r0
  66 0008 9B68     		ldr	r3, [r3, #8]
  67              		.loc 1 190 0
  68 000a 1800     		movs	r0, r3
  69              		@ sp needed
  70 000c 10BD     		pop	{r4, pc}
  71              		.cfi_endproc
  72              	.LFE100:
  73              		.size	chThdGetPriorityX, .-chThdGetPriorityX
  74 000e C046     		.section	.text.chMsgGet,"ax",%progbits
  75              		.align	1
  76              		.p2align 4,,15
  77              		.syntax unified
  78              		.code	16
  79              		.thumb_func
  80              		.fpu softvfp
  81              		.type	chMsgGet, %function
  82              	chMsgGet:
  83              	.LFB133:
  84              		.file 2 "ChibiOS/os/rt/include/chmsg.h"
  85              		.loc 2 96 0
  86              		.cfi_startproc
  87              		@ args = 0, pretend = 0, frame = 8
  88              		@ frame_needed = 0, uses_anonymous_args = 0
  89              		@ link register save eliminated.
  90 0000 82B0     		sub	sp, sp, #8
  91              		.cfi_def_cfa_offset 8
  92 0002 0190     		str	r0, [sp, #4]
  93              		.loc 2 98 0
  94 0004 019B     		ldr	r3, [sp, #4]
  95 0006 5B6B     		ldr	r3, [r3, #52]
  96              		.loc 2 99 0
  97 0008 1800     		movs	r0, r3
  98 000a 02B0     		add	sp, sp, #8
  99              		@ sp needed
 100 000c 7047     		bx	lr
 101              		.cfi_endproc
 102              	.LFE133:
 103              		.size	chMsgGet, .-chMsgGet
 104 000e C046     		.section	.text.thread,"ax",%progbits
 105              		.align	1
 106              		.p2align 4,,15
 107              		.syntax unified
 108              		.code	16
 109              		.thumb_func
 110              		.fpu softvfp
 111              		.type	thread, %function
 112              	thread:
 113              	.LFB152:
 114              		.file 3 "ChibiOS/test/rt/testmsg.c"
ARM GAS  /tmp/ccBBWsqH.s 			page 3


 115              		.loc 3 59 0
 116              		.cfi_startproc
 117              		@ args = 0, pretend = 0, frame = 8
 118              		@ frame_needed = 0, uses_anonymous_args = 0
 119 0000 00B5     		push	{lr}
 120              		.cfi_def_cfa_offset 4
 121              		.cfi_offset 14, -4
 122 0002 83B0     		sub	sp, sp, #12
 123              		.cfi_def_cfa_offset 16
 124 0004 0190     		str	r0, [sp, #4]
 125              		.loc 3 61 0
 126 0006 019B     		ldr	r3, [sp, #4]
 127 0008 4121     		movs	r1, #65
 128 000a 1800     		movs	r0, r3
 129 000c FFF7FEFF 		bl	chMsgSend
 130              		.loc 3 62 0
 131 0010 019B     		ldr	r3, [sp, #4]
 132 0012 4221     		movs	r1, #66
 133 0014 1800     		movs	r0, r3
 134 0016 FFF7FEFF 		bl	chMsgSend
 135              		.loc 3 63 0
 136 001a 019B     		ldr	r3, [sp, #4]
 137 001c 4321     		movs	r1, #67
 138 001e 1800     		movs	r0, r3
 139 0020 FFF7FEFF 		bl	chMsgSend
 140              		.loc 3 64 0
 141 0024 C046     		nop
 142 0026 03B0     		add	sp, sp, #12
 143              		@ sp needed
 144 0028 00BD     		pop	{pc}
 145              		.cfi_endproc
 146              	.LFE152:
 147              		.size	thread, .-thread
 148 002a C046     		.section	.rodata
 149              		.align	2
 150              	.LC4:
 151 0000 41424300 		.ascii	"ABC\000"
 152              		.section	.text.msg1_execute,"ax",%progbits
 153              		.align	1
 154              		.p2align 4,,15
 155              		.syntax unified
 156              		.code	16
 157              		.thumb_func
 158              		.fpu softvfp
 159              		.type	msg1_execute, %function
 160              	msg1_execute:
 161              	.LFB153:
 162              		.loc 3 66 0
 163              		.cfi_startproc
 164              		@ args = 0, pretend = 0, frame = 8
 165              		@ frame_needed = 0, uses_anonymous_args = 0
 166 0000 30B5     		push	{r4, r5, lr}
 167              		.cfi_def_cfa_offset 12
 168              		.cfi_offset 4, -12
 169              		.cfi_offset 5, -8
 170              		.cfi_offset 14, -4
 171 0002 85B0     		sub	sp, sp, #20
ARM GAS  /tmp/ccBBWsqH.s 			page 4


 172              		.cfi_def_cfa_offset 32
 173              		.loc 3 73 0
 174 0004 2C4B     		ldr	r3, .L12
 175 0006 1C68     		ldr	r4, [r3]
 176 0008 FFF7FEFF 		bl	chThdGetPriorityX
 177 000c 0300     		movs	r3, r0
 178 000e 5D1C     		adds	r5, r3, #1
 179              		.loc 3 74 0
 180 0010 FFF7FEFF 		bl	chThdGetSelfX
 181              		.loc 3 73 0
 182 0014 294A     		ldr	r2, .L12+4
 183 0016 A823     		movs	r3, #168
 184 0018 5900     		lsls	r1, r3, #1
 185 001a 0090     		str	r0, [sp]
 186 001c 1300     		movs	r3, r2
 187 001e 2A00     		movs	r2, r5
 188 0020 2000     		movs	r0, r4
 189 0022 FFF7FEFF 		bl	chThdCreateStatic
 190 0026 0200     		movs	r2, r0
 191 0028 254B     		ldr	r3, .L12+8
 192 002a 1A60     		str	r2, [r3]
 193              		.loc 3 75 0
 194 002c FFF7FEFF 		bl	chMsgWait
 195 0030 0300     		movs	r3, r0
 196 0032 0393     		str	r3, [sp, #12]
 197              		.loc 3 76 0
 198 0034 039B     		ldr	r3, [sp, #12]
 199 0036 1800     		movs	r0, r3
 200 0038 FFF7FEFF 		bl	chMsgGet
 201 003c 0300     		movs	r3, r0
 202 003e 0293     		str	r3, [sp, #8]
 203              		.loc 3 77 0
 204 0040 029A     		ldr	r2, [sp, #8]
 205 0042 039B     		ldr	r3, [sp, #12]
 206 0044 1100     		movs	r1, r2
 207 0046 1800     		movs	r0, r3
 208 0048 FFF7FEFF 		bl	chMsgRelease
 209              		.loc 3 78 0
 210 004c 029B     		ldr	r3, [sp, #8]
 211 004e DBB2     		uxtb	r3, r3
 212 0050 1800     		movs	r0, r3
 213 0052 FFF7FEFF 		bl	test_emit_token
 214              		.loc 3 79 0
 215 0056 FFF7FEFF 		bl	chMsgWait
 216 005a 0300     		movs	r3, r0
 217 005c 0393     		str	r3, [sp, #12]
 218              		.loc 3 80 0
 219 005e 039B     		ldr	r3, [sp, #12]
 220 0060 1800     		movs	r0, r3
 221 0062 FFF7FEFF 		bl	chMsgGet
 222 0066 0300     		movs	r3, r0
 223 0068 0293     		str	r3, [sp, #8]
 224              		.loc 3 81 0
 225 006a 029A     		ldr	r2, [sp, #8]
 226 006c 039B     		ldr	r3, [sp, #12]
 227 006e 1100     		movs	r1, r2
 228 0070 1800     		movs	r0, r3
ARM GAS  /tmp/ccBBWsqH.s 			page 5


 229 0072 FFF7FEFF 		bl	chMsgRelease
 230              		.loc 3 82 0
 231 0076 029B     		ldr	r3, [sp, #8]
 232 0078 DBB2     		uxtb	r3, r3
 233 007a 1800     		movs	r0, r3
 234 007c FFF7FEFF 		bl	test_emit_token
 235              		.loc 3 83 0
 236 0080 FFF7FEFF 		bl	chMsgWait
 237 0084 0300     		movs	r3, r0
 238 0086 0393     		str	r3, [sp, #12]
 239              		.loc 3 84 0
 240 0088 039B     		ldr	r3, [sp, #12]
 241 008a 1800     		movs	r0, r3
 242 008c FFF7FEFF 		bl	chMsgGet
 243 0090 0300     		movs	r3, r0
 244 0092 0293     		str	r3, [sp, #8]
 245              		.loc 3 85 0
 246 0094 029A     		ldr	r2, [sp, #8]
 247 0096 039B     		ldr	r3, [sp, #12]
 248 0098 1100     		movs	r1, r2
 249 009a 1800     		movs	r0, r3
 250 009c FFF7FEFF 		bl	chMsgRelease
 251              		.loc 3 86 0
 252 00a0 029B     		ldr	r3, [sp, #8]
 253 00a2 DBB2     		uxtb	r3, r3
 254 00a4 1800     		movs	r0, r3
 255 00a6 FFF7FEFF 		bl	test_emit_token
 256              		.loc 3 87 0
 257 00aa 064B     		ldr	r3, .L12+12
 258 00ac 1900     		movs	r1, r3
 259 00ae 0120     		movs	r0, #1
 260 00b0 FFF7FEFF 		bl	_test_assert_sequence
 261              		.loc 3 88 0
 262 00b4 05B0     		add	sp, sp, #20
 263              		@ sp needed
 264 00b6 30BD     		pop	{r4, r5, pc}
 265              	.L13:
 266              		.align	2
 267              	.L12:
 268 00b8 00000000 		.word	wa
 269 00bc 00000000 		.word	thread
 270 00c0 00000000 		.word	threads
 271 00c4 00000000 		.word	.LC4
 272              		.cfi_endproc
 273              	.LFE153:
 274              		.size	msg1_execute, .-msg1_execute
 275              		.global	testmsg1
 276              		.section	.rodata
 277              		.align	2
 278              	.LC6:
 279 0004 4D657373 		.ascii	"Messages, loop\000"
 279      61676573 
 279      2C206C6F 
 279      6F7000
 280              		.section	.rodata.testmsg1,"a",%progbits
 281              		.align	2
 282              		.type	testmsg1, %object
ARM GAS  /tmp/ccBBWsqH.s 			page 6


 283              		.size	testmsg1, 16
 284              	testmsg1:
 285 0000 04000000 		.word	.LC6
 286 0004 00000000 		.word	0
 287 0008 00000000 		.word	0
 288 000c 00000000 		.word	msg1_execute
 289              		.global	patternmsg
 290              		.section	.rodata.patternmsg,"a",%progbits
 291              		.align	2
 292              		.type	patternmsg, %object
 293              		.size	patternmsg, 8
 294              	patternmsg:
 295 0000 00000000 		.word	testmsg1
 296 0004 00000000 		.word	0
 297              		.text
 298              	.Letext0:
 299              		.file 4 "/home/felix/opt/gcc-arm-none-eabi-6-2017-q1-update/lib/gcc/arm-none-eabi/6.3.1/include/st
 300              		.file 5 "/home/felix/opt/gcc-arm-none-eabi-6-2017-q1-update/arm-none-eabi/include/machine/_default
 301              		.file 6 "/home/felix/opt/gcc-arm-none-eabi-6-2017-q1-update/arm-none-eabi/include/sys/_stdint.h"
 302              		.file 7 "ChibiOS/os/rt/ports/ARMCMx/compilers/GCC/chtypes.h"
 303              		.file 8 "ChibiOS/os/rt/include/chsystypes.h"
 304              		.file 9 "ChibiOS/os/rt/include/chschd.h"
 305              		.file 10 "ChibiOS/os/rt/ports/ARMCMx/chcore.h"
 306              		.file 11 "ChibiOS/os/rt/ports/ARMCMx/chcore_v6m.h"
 307              		.file 12 "ChibiOS/os/rt/include/chdebug.h"
 308              		.file 13 "ChibiOS/os/rt/include/chsem.h"
 309              		.file 14 "ChibiOS/os/rt/include/chmtx.h"
 310              		.file 15 "ChibiOS/os/rt/include/chregistry.h"
 311              		.file 16 "ChibiOS/os/ext/CMSIS/ST/STM32F0xx/system_stm32f0xx.h"
 312              		.file 17 "ChibiOS/test/rt/test.h"