ARM GAS  /tmp/ccYRGOgl.s 			page 1


   1              		.cpu cortex-m0
   2              		.eabi_attribute 20, 1
   3              		.eabi_attribute 21, 1
   4              		.eabi_attribute 23, 3
   5              		.eabi_attribute 24, 1
   6              		.eabi_attribute 25, 1
   7              		.eabi_attribute 26, 1
   8              		.eabi_attribute 30, 6
   9              		.eabi_attribute 34, 0
  10              		.eabi_attribute 18, 4
  11              		.file	"testthd.c"
  12              		.text
  13              	.Ltext0:
  14              		.cfi_sections	.debug_frame
  15              		.section	.text.port_lock,"ax",%progbits
  16              		.align	1
  17              		.p2align 4,,15
  18              		.syntax unified
  19              		.code	16
  20              		.thumb_func
  21              		.fpu softvfp
  22              		.type	port_lock, %function
  23              	port_lock:
  24              	.LFB38:
  25              		.file 1 "ChibiOS/os/rt/ports/ARMCMx/chcore_v6m.h"
  26              		.loc 1 330 0
  27              		.cfi_startproc
  28              		@ args = 0, pretend = 0, frame = 0
  29              		@ frame_needed = 0, uses_anonymous_args = 0
  30              		@ link register save eliminated.
  31              	.LBB6:
  32              	.LBB7:
  33              		.file 2 "ChibiOS/os/ext/CMSIS/include/core_cmFunc.h"
  34              		.loc 2 344 0
  35              		.syntax divided
  36              	@ 344 "ChibiOS/os/ext/CMSIS/include/core_cmFunc.h" 1
  37 0000 72B6     		cpsid i
  38              	@ 0 "" 2
  39              		.thumb
  40              		.syntax unified
  41              	.LBE7:
  42              	.LBE6:
  43              		.loc 1 333 0
  44 0002 C046     		nop
  45              		@ sp needed
  46 0004 7047     		bx	lr
  47              		.cfi_endproc
  48              	.LFE38:
  49              		.size	port_lock, .-port_lock
  50 0006 C046     		.section	.text.port_unlock,"ax",%progbits
  51              		.align	1
  52              		.p2align 4,,15
  53              		.syntax unified
  54              		.code	16
  55              		.thumb_func
  56              		.fpu softvfp
  57              		.type	port_unlock, %function
ARM GAS  /tmp/ccYRGOgl.s 			page 2


  58              	port_unlock:
  59              	.LFB39:
  60              		.loc 1 339 0
  61              		.cfi_startproc
  62              		@ args = 0, pretend = 0, frame = 0
  63              		@ frame_needed = 0, uses_anonymous_args = 0
  64              		@ link register save eliminated.
  65              	.LBB8:
  66              	.LBB9:
  67              		.loc 2 333 0
  68              		.syntax divided
  69              	@ 333 "ChibiOS/os/ext/CMSIS/include/core_cmFunc.h" 1
  70 0000 62B6     		cpsie i
  71              	@ 0 "" 2
  72              		.thumb
  73              		.syntax unified
  74              	.LBE9:
  75              	.LBE8:
  76              		.loc 1 342 0
  77 0002 C046     		nop
  78              		@ sp needed
  79 0004 7047     		bx	lr
  80              		.cfi_endproc
  81              	.LFE39:
  82              		.size	port_unlock, .-port_unlock
  83 0006 C046     		.section	.text.st_lld_get_counter,"ax",%progbits
  84              		.align	1
  85              		.p2align 4,,15
  86              		.syntax unified
  87              		.code	16
  88              		.thumb_func
  89              		.fpu softvfp
  90              		.type	st_lld_get_counter, %function
  91              	st_lld_get_counter:
  92              	.LFB46:
  93              		.file 3 "ChibiOS/os/hal/ports/STM32/LLD/TIMv1/st_lld.h"
  94              		.loc 3 139 0
  95              		.cfi_startproc
  96              		@ args = 0, pretend = 0, frame = 0
  97              		@ frame_needed = 0, uses_anonymous_args = 0
  98              		@ link register save eliminated.
  99              		.loc 3 141 0
 100 0000 024B     		ldr	r3, .L5
 101 0002 5B6A     		ldr	r3, [r3, #36]
 102 0004 9BB2     		uxth	r3, r3
 103              		.loc 3 142 0
 104 0006 1800     		movs	r0, r3
 105              		@ sp needed
 106 0008 7047     		bx	lr
 107              	.L6:
 108 000a C046     		.align	2
 109              	.L5:
 110 000c 00040040 		.word	1073742848
 111              		.cfi_endproc
 112              	.LFE46:
 113              		.size	st_lld_get_counter, .-st_lld_get_counter
 114              		.section	.text.port_timer_get_time,"ax",%progbits
ARM GAS  /tmp/ccYRGOgl.s 			page 3


 115              		.align	1
 116              		.p2align 4,,15
 117              		.syntax unified
 118              		.code	16
 119              		.thumb_func
 120              		.fpu softvfp
 121              		.type	port_timer_get_time, %function
 122              	port_timer_get_time:
 123              	.LFB55:
 124              		.file 4 "ChibiOS/os/rt/ports/ARMCMx/chcore_timer.h"
 125              		.loc 4 105 0
 126              		.cfi_startproc
 127              		@ args = 0, pretend = 0, frame = 0
 128              		@ frame_needed = 0, uses_anonymous_args = 0
 129 0000 10B5     		push	{r4, lr}
 130              		.cfi_def_cfa_offset 8
 131              		.cfi_offset 4, -8
 132              		.cfi_offset 14, -4
 133              		.loc 4 107 0
 134 0002 FFF7FEFF 		bl	st_lld_get_counter
 135 0006 0300     		movs	r3, r0
 136              		.loc 4 108 0
 137 0008 1800     		movs	r0, r3
 138              		@ sp needed
 139 000a 10BD     		pop	{r4, pc}
 140              		.cfi_endproc
 141              	.LFE55:
 142              		.size	port_timer_get_time, .-port_timer_get_time
 143              		.section	.text.chSysLock,"ax",%progbits
 144              		.align	1
 145              		.p2align 4,,15
 146              		.syntax unified
 147              		.code	16
 148              		.thumb_func
 149              		.fpu softvfp
 150              		.type	chSysLock, %function
 151              	chSysLock:
 152              	.LFB77:
 153              		.file 5 "ChibiOS/os/rt/include/chsys.h"
 154              		.loc 5 346 0
 155              		.cfi_startproc
 156              		@ args = 0, pretend = 0, frame = 0
 157              		@ frame_needed = 0, uses_anonymous_args = 0
 158 0000 10B5     		push	{r4, lr}
 159              		.cfi_def_cfa_offset 8
 160              		.cfi_offset 4, -8
 161              		.cfi_offset 14, -4
 162              		.loc 5 348 0
 163 0002 FFF7FEFF 		bl	port_lock
 164              		.loc 5 350 0
 165 0006 FFF7FEFF 		bl	_dbg_check_lock
 166              		.loc 5 351 0
 167 000a C046     		nop
 168              		@ sp needed
 169 000c 10BD     		pop	{r4, pc}
 170              		.cfi_endproc
 171              	.LFE77:
ARM GAS  /tmp/ccYRGOgl.s 			page 4


 172              		.size	chSysLock, .-chSysLock
 173 000e C046     		.section	.text.chSysUnlock,"ax",%progbits
 174              		.align	1
 175              		.p2align 4,,15
 176              		.syntax unified
 177              		.code	16
 178              		.thumb_func
 179              		.fpu softvfp
 180              		.type	chSysUnlock, %function
 181              	chSysUnlock:
 182              	.LFB78:
 183              		.loc 5 358 0
 184              		.cfi_startproc
 185              		@ args = 0, pretend = 0, frame = 0
 186              		@ frame_needed = 0, uses_anonymous_args = 0
 187 0000 10B5     		push	{r4, lr}
 188              		.cfi_def_cfa_offset 8
 189              		.cfi_offset 4, -8
 190              		.cfi_offset 14, -4
 191              		.loc 5 360 0
 192 0002 FFF7FEFF 		bl	_dbg_check_unlock
 193              		.loc 5 367 0
 194 0006 0A4B     		ldr	r3, .L12
 195 0008 1A68     		ldr	r2, [r3]
 196 000a 094B     		ldr	r3, .L12
 197 000c 9A42     		cmp	r2, r3
 198 000e 0BD0     		beq	.L11
 199              		.loc 5 367 0 is_stmt 0 discriminator 2
 200 0010 074B     		ldr	r3, .L12
 201 0012 9B69     		ldr	r3, [r3, #24]
 202 0014 9A68     		ldr	r2, [r3, #8]
 203 0016 064B     		ldr	r3, .L12
 204 0018 1B68     		ldr	r3, [r3]
 205 001a 9B68     		ldr	r3, [r3, #8]
 206 001c 9A42     		cmp	r2, r3
 207 001e 03D2     		bcs	.L11
 208              		.loc 5 367 0 discriminator 3
 209 0020 044B     		ldr	r3, .L12+4
 210 0022 1800     		movs	r0, r3
 211 0024 FFF7FEFF 		bl	chSysHalt
 212              	.L11:
 213              		.loc 5 371 0 is_stmt 1
 214 0028 FFF7FEFF 		bl	port_unlock
 215              		.loc 5 372 0
 216 002c C046     		nop
 217              		@ sp needed
 218 002e 10BD     		pop	{r4, pc}
 219              	.L13:
 220              		.align	2
 221              	.L12:
 222 0030 00000000 		.word	ch
 223 0034 00000000 		.word	__func__.4993
 224              		.cfi_endproc
 225              	.LFE78:
 226              		.size	chSysUnlock, .-chSysUnlock
 227              		.section	.text.chVTGetSystemTimeX,"ax",%progbits
 228              		.align	1
ARM GAS  /tmp/ccYRGOgl.s 			page 5


 229              		.p2align 4,,15
 230              		.syntax unified
 231              		.code	16
 232              		.thumb_func
 233              		.fpu softvfp
 234              		.type	chVTGetSystemTimeX, %function
 235              	chVTGetSystemTimeX:
 236              	.LFB85:
 237              		.file 6 "ChibiOS/os/rt/include/chvt.h"
 238              		.loc 6 228 0
 239              		.cfi_startproc
 240              		@ args = 0, pretend = 0, frame = 0
 241              		@ frame_needed = 0, uses_anonymous_args = 0
 242 0000 10B5     		push	{r4, lr}
 243              		.cfi_def_cfa_offset 8
 244              		.cfi_offset 4, -8
 245              		.cfi_offset 14, -4
 246              		.loc 6 233 0
 247 0002 FFF7FEFF 		bl	port_timer_get_time
 248 0006 0300     		movs	r3, r0
 249              		.loc 6 235 0
 250 0008 1800     		movs	r0, r3
 251              		@ sp needed
 252 000a 10BD     		pop	{r4, pc}
 253              		.cfi_endproc
 254              	.LFE85:
 255              		.size	chVTGetSystemTimeX, .-chVTGetSystemTimeX
 256              		.section	.text.chVTGetSystemTime,"ax",%progbits
 257              		.align	1
 258              		.p2align 4,,15
 259              		.syntax unified
 260              		.code	16
 261              		.thumb_func
 262              		.fpu softvfp
 263              		.type	chVTGetSystemTime, %function
 264              	chVTGetSystemTime:
 265              	.LFB86:
 266              		.loc 6 247 0
 267              		.cfi_startproc
 268              		@ args = 0, pretend = 0, frame = 8
 269              		@ frame_needed = 0, uses_anonymous_args = 0
 270 0000 10B5     		push	{r4, lr}
 271              		.cfi_def_cfa_offset 8
 272              		.cfi_offset 4, -8
 273              		.cfi_offset 14, -4
 274 0002 82B0     		sub	sp, sp, #8
 275              		.cfi_def_cfa_offset 16
 276              		.loc 6 250 0
 277 0004 FFF7FEFF 		bl	chSysLock
 278              		.loc 6 251 0
 279 0008 6B46     		mov	r3, sp
 280 000a 9C1D     		adds	r4, r3, #6
 281 000c FFF7FEFF 		bl	chVTGetSystemTimeX
 282 0010 0300     		movs	r3, r0
 283 0012 2380     		strh	r3, [r4]
 284              		.loc 6 252 0
 285 0014 FFF7FEFF 		bl	chSysUnlock
ARM GAS  /tmp/ccYRGOgl.s 			page 6


 286              		.loc 6 254 0
 287 0018 6B46     		mov	r3, sp
 288 001a 0633     		adds	r3, r3, #6
 289 001c 1B88     		ldrh	r3, [r3]
 290              		.loc 6 255 0
 291 001e 1800     		movs	r0, r3
 292 0020 02B0     		add	sp, sp, #8
 293              		@ sp needed
 294 0022 10BD     		pop	{r4, pc}
 295              		.cfi_endproc
 296              	.LFE86:
 297              		.size	chVTGetSystemTime, .-chVTGetSystemTime
 298              		.section	.text.chThdGetSelfX,"ax",%progbits
 299              		.align	1
 300              		.p2align 4,,15
 301              		.syntax unified
 302              		.code	16
 303              		.thumb_func
 304              		.fpu softvfp
 305              		.type	chThdGetSelfX, %function
 306              	chThdGetSelfX:
 307              	.LFB99:
 308              		.file 7 "ChibiOS/os/rt/include/chthreads.h"
 309              		.loc 7 174 0
 310              		.cfi_startproc
 311              		@ args = 0, pretend = 0, frame = 0
 312              		@ frame_needed = 0, uses_anonymous_args = 0
 313              		@ link register save eliminated.
 314              		.loc 7 176 0
 315 0000 014B     		ldr	r3, .L20
 316 0002 9B69     		ldr	r3, [r3, #24]
 317              		.loc 7 177 0
 318 0004 1800     		movs	r0, r3
 319              		@ sp needed
 320 0006 7047     		bx	lr
 321              	.L21:
 322              		.align	2
 323              	.L20:
 324 0008 00000000 		.word	ch
 325              		.cfi_endproc
 326              	.LFE99:
 327              		.size	chThdGetSelfX, .-chThdGetSelfX
 328              		.section	.text.chThdGetPriorityX,"ax",%progbits
 329              		.align	1
 330              		.p2align 4,,15
 331              		.syntax unified
 332              		.code	16
 333              		.thumb_func
 334              		.fpu softvfp
 335              		.type	chThdGetPriorityX, %function
 336              	chThdGetPriorityX:
 337              	.LFB100:
 338              		.loc 7 187 0
 339              		.cfi_startproc
 340              		@ args = 0, pretend = 0, frame = 0
 341              		@ frame_needed = 0, uses_anonymous_args = 0
 342 0000 10B5     		push	{r4, lr}
ARM GAS  /tmp/ccYRGOgl.s 			page 7


 343              		.cfi_def_cfa_offset 8
 344              		.cfi_offset 4, -8
 345              		.cfi_offset 14, -4
 346              		.loc 7 189 0
 347 0002 FFF7FEFF 		bl	chThdGetSelfX
 348 0006 0300     		movs	r3, r0
 349 0008 9B68     		ldr	r3, [r3, #8]
 350              		.loc 7 190 0
 351 000a 1800     		movs	r0, r3
 352              		@ sp needed
 353 000c 10BD     		pop	{r4, pc}
 354              		.cfi_endproc
 355              	.LFE100:
 356              		.size	chThdGetPriorityX, .-chThdGetPriorityX
 357 000e C046     		.section	.text.thread,"ax",%progbits
 358              		.align	1
 359              		.p2align 4,,15
 360              		.syntax unified
 361              		.code	16
 362              		.thumb_func
 363              		.fpu softvfp
 364              		.type	thread, %function
 365              	thread:
 366              	.LFB152:
 367              		.file 8 "ChibiOS/test/rt/testthd.c"
 368              		.loc 8 60 0
 369              		.cfi_startproc
 370              		@ args = 0, pretend = 0, frame = 8
 371              		@ frame_needed = 0, uses_anonymous_args = 0
 372 0000 00B5     		push	{lr}
 373              		.cfi_def_cfa_offset 4
 374              		.cfi_offset 14, -4
 375 0002 83B0     		sub	sp, sp, #12
 376              		.cfi_def_cfa_offset 16
 377 0004 0190     		str	r0, [sp, #4]
 378              		.loc 8 62 0
 379 0006 019B     		ldr	r3, [sp, #4]
 380 0008 1B78     		ldrb	r3, [r3]
 381 000a 1800     		movs	r0, r3
 382 000c FFF7FEFF 		bl	test_emit_token
 383              		.loc 8 63 0
 384 0010 C046     		nop
 385 0012 03B0     		add	sp, sp, #12
 386              		@ sp needed
 387 0014 00BD     		pop	{pc}
 388              		.cfi_endproc
 389              	.LFE152:
 390              		.size	thread, .-thread
 391 0016 C046     		.section	.rodata
 392              		.align	2
 393              	.LC5:
 394 0000 4500     		.ascii	"E\000"
 395 0002 0000     		.align	2
 396              	.LC8:
 397 0004 4400     		.ascii	"D\000"
 398 0006 0000     		.align	2
 399              	.LC10:
ARM GAS  /tmp/ccYRGOgl.s 			page 8


 400 0008 4300     		.ascii	"C\000"
 401 000a 0000     		.align	2
 402              	.LC12:
 403 000c 4200     		.ascii	"B\000"
 404 000e 0000     		.align	2
 405              	.LC14:
 406 0010 4100     		.ascii	"A\000"
 407 0012 0000     		.align	2
 408              	.LC16:
 409 0014 41424344 		.ascii	"ABCDE\000"
 409      4500
 410              		.section	.text.thd1_execute,"ax",%progbits
 411              		.align	1
 412              		.p2align 4,,15
 413              		.syntax unified
 414              		.code	16
 415              		.thumb_func
 416              		.fpu softvfp
 417              		.type	thd1_execute, %function
 418              	thd1_execute:
 419              	.LFB153:
 420              		.loc 8 65 0
 421              		.cfi_startproc
 422              		@ args = 0, pretend = 0, frame = 0
 423              		@ frame_needed = 0, uses_anonymous_args = 0
 424 0000 10B5     		push	{r4, lr}
 425              		.cfi_def_cfa_offset 8
 426              		.cfi_offset 4, -8
 427              		.cfi_offset 14, -4
 428 0002 82B0     		sub	sp, sp, #8
 429              		.cfi_def_cfa_offset 16
 430              		.loc 8 67 0
 431 0004 314B     		ldr	r3, .L27
 432 0006 1C68     		ldr	r4, [r3]
 433 0008 FFF7FEFF 		bl	chThdGetPriorityX
 434 000c 0300     		movs	r3, r0
 435 000e 5A1F     		subs	r2, r3, #5
 436 0010 2F48     		ldr	r0, .L27+4
 437 0012 A823     		movs	r3, #168
 438 0014 5900     		lsls	r1, r3, #1
 439 0016 2F4B     		ldr	r3, .L27+8
 440 0018 0093     		str	r3, [sp]
 441 001a 0300     		movs	r3, r0
 442 001c 2000     		movs	r0, r4
 443 001e FFF7FEFF 		bl	chThdCreateStatic
 444 0022 0200     		movs	r2, r0
 445 0024 2C4B     		ldr	r3, .L27+12
 446 0026 1A60     		str	r2, [r3]
 447              		.loc 8 68 0
 448 0028 284B     		ldr	r3, .L27
 449 002a 5C68     		ldr	r4, [r3, #4]
 450 002c FFF7FEFF 		bl	chThdGetPriorityX
 451 0030 0300     		movs	r3, r0
 452 0032 1A1F     		subs	r2, r3, #4
 453 0034 2648     		ldr	r0, .L27+4
 454 0036 A823     		movs	r3, #168
 455 0038 5900     		lsls	r1, r3, #1
ARM GAS  /tmp/ccYRGOgl.s 			page 9


 456 003a 284B     		ldr	r3, .L27+16
 457 003c 0093     		str	r3, [sp]
 458 003e 0300     		movs	r3, r0
 459 0040 2000     		movs	r0, r4
 460 0042 FFF7FEFF 		bl	chThdCreateStatic
 461 0046 0200     		movs	r2, r0
 462 0048 234B     		ldr	r3, .L27+12
 463 004a 5A60     		str	r2, [r3, #4]
 464              		.loc 8 69 0
 465 004c 1F4B     		ldr	r3, .L27
 466 004e 9C68     		ldr	r4, [r3, #8]
 467 0050 FFF7FEFF 		bl	chThdGetPriorityX
 468 0054 0300     		movs	r3, r0
 469 0056 DA1E     		subs	r2, r3, #3
 470 0058 1D48     		ldr	r0, .L27+4
 471 005a A823     		movs	r3, #168
 472 005c 5900     		lsls	r1, r3, #1
 473 005e 204B     		ldr	r3, .L27+20
 474 0060 0093     		str	r3, [sp]
 475 0062 0300     		movs	r3, r0
 476 0064 2000     		movs	r0, r4
 477 0066 FFF7FEFF 		bl	chThdCreateStatic
 478 006a 0200     		movs	r2, r0
 479 006c 1A4B     		ldr	r3, .L27+12
 480 006e 9A60     		str	r2, [r3, #8]
 481              		.loc 8 70 0
 482 0070 164B     		ldr	r3, .L27
 483 0072 DC68     		ldr	r4, [r3, #12]
 484 0074 FFF7FEFF 		bl	chThdGetPriorityX
 485 0078 0300     		movs	r3, r0
 486 007a 9A1E     		subs	r2, r3, #2
 487 007c 1448     		ldr	r0, .L27+4
 488 007e A823     		movs	r3, #168
 489 0080 5900     		lsls	r1, r3, #1
 490 0082 184B     		ldr	r3, .L27+24
 491 0084 0093     		str	r3, [sp]
 492 0086 0300     		movs	r3, r0
 493 0088 2000     		movs	r0, r4
 494 008a FFF7FEFF 		bl	chThdCreateStatic
 495 008e 0200     		movs	r2, r0
 496 0090 114B     		ldr	r3, .L27+12
 497 0092 DA60     		str	r2, [r3, #12]
 498              		.loc 8 71 0
 499 0094 0D4B     		ldr	r3, .L27
 500 0096 1C69     		ldr	r4, [r3, #16]
 501 0098 FFF7FEFF 		bl	chThdGetPriorityX
 502 009c 0300     		movs	r3, r0
 503 009e 5A1E     		subs	r2, r3, #1
 504 00a0 0B48     		ldr	r0, .L27+4
 505 00a2 A823     		movs	r3, #168
 506 00a4 5900     		lsls	r1, r3, #1
 507 00a6 104B     		ldr	r3, .L27+28
 508 00a8 0093     		str	r3, [sp]
 509 00aa 0300     		movs	r3, r0
 510 00ac 2000     		movs	r0, r4
 511 00ae FFF7FEFF 		bl	chThdCreateStatic
 512 00b2 0200     		movs	r2, r0
ARM GAS  /tmp/ccYRGOgl.s 			page 10


 513 00b4 084B     		ldr	r3, .L27+12
 514 00b6 1A61     		str	r2, [r3, #16]
 515              		.loc 8 72 0
 516 00b8 FFF7FEFF 		bl	test_wait_threads
 517              		.loc 8 73 0
 518 00bc 0B4B     		ldr	r3, .L27+32
 519 00be 1900     		movs	r1, r3
 520 00c0 0120     		movs	r0, #1
 521 00c2 FFF7FEFF 		bl	_test_assert_sequence
 522              		.loc 8 74 0
 523 00c6 02B0     		add	sp, sp, #8
 524              		@ sp needed
 525 00c8 10BD     		pop	{r4, pc}
 526              	.L28:
 527 00ca C046     		.align	2
 528              	.L27:
 529 00cc 00000000 		.word	wa
 530 00d0 00000000 		.word	thread
 531 00d4 00000000 		.word	.LC5
 532 00d8 00000000 		.word	threads
 533 00dc 04000000 		.word	.LC8
 534 00e0 08000000 		.word	.LC10
 535 00e4 0C000000 		.word	.LC12
 536 00e8 10000000 		.word	.LC14
 537 00ec 14000000 		.word	.LC16
 538              		.cfi_endproc
 539              	.LFE153:
 540              		.size	thd1_execute, .-thd1_execute
 541              		.global	testthd1
 542              		.section	.rodata
 543 001a 0000     		.align	2
 544              	.LC18:
 545 001c 54687265 		.ascii	"Threads, enqueuing test #1\000"
 545      6164732C 
 545      20656E71 
 545      75657569 
 545      6E672074 
 546              		.section	.rodata.testthd1,"a",%progbits
 547              		.align	2
 548              		.type	testthd1, %object
 549              		.size	testthd1, 16
 550              	testthd1:
 551 0000 1C000000 		.word	.LC18
 552 0004 00000000 		.word	0
 553 0008 00000000 		.word	0
 554 000c 00000000 		.word	thd1_execute
 555              		.section	.text.thd2_execute,"ax",%progbits
 556              		.align	1
 557              		.p2align 4,,15
 558              		.syntax unified
 559              		.code	16
 560              		.thumb_func
 561              		.fpu softvfp
 562              		.type	thd2_execute, %function
 563              	thd2_execute:
 564              	.LFB154:
 565              		.loc 8 93 0
ARM GAS  /tmp/ccYRGOgl.s 			page 11


 566              		.cfi_startproc
 567              		@ args = 0, pretend = 0, frame = 0
 568              		@ frame_needed = 0, uses_anonymous_args = 0
 569 0000 10B5     		push	{r4, lr}
 570              		.cfi_def_cfa_offset 8
 571              		.cfi_offset 4, -8
 572              		.cfi_offset 14, -4
 573 0002 82B0     		sub	sp, sp, #8
 574              		.cfi_def_cfa_offset 16
 575              		.loc 8 95 0
 576 0004 354B     		ldr	r3, .L31
 577 0006 5C68     		ldr	r4, [r3, #4]
 578 0008 FFF7FEFF 		bl	chThdGetPriorityX
 579 000c 0300     		movs	r3, r0
 580 000e 1A1F     		subs	r2, r3, #4
 581 0010 3348     		ldr	r0, .L31+4
 582 0012 A823     		movs	r3, #168
 583 0014 5900     		lsls	r1, r3, #1
 584 0016 334B     		ldr	r3, .L31+8
 585 0018 0093     		str	r3, [sp]
 586 001a 0300     		movs	r3, r0
 587 001c 2000     		movs	r0, r4
 588 001e FFF7FEFF 		bl	chThdCreateStatic
 589 0022 0200     		movs	r2, r0
 590 0024 304B     		ldr	r3, .L31+12
 591 0026 5A60     		str	r2, [r3, #4]
 592              		.loc 8 96 0
 593 0028 2C4B     		ldr	r3, .L31
 594 002a 1C68     		ldr	r4, [r3]
 595 002c FFF7FEFF 		bl	chThdGetPriorityX
 596 0030 0300     		movs	r3, r0
 597 0032 5A1F     		subs	r2, r3, #5
 598 0034 2A48     		ldr	r0, .L31+4
 599 0036 A823     		movs	r3, #168
 600 0038 5900     		lsls	r1, r3, #1
 601 003a 2C4B     		ldr	r3, .L31+16
 602 003c 0093     		str	r3, [sp]
 603 003e 0300     		movs	r3, r0
 604 0040 2000     		movs	r0, r4
 605 0042 FFF7FEFF 		bl	chThdCreateStatic
 606 0046 0200     		movs	r2, r0
 607 0048 274B     		ldr	r3, .L31+12
 608 004a 1A60     		str	r2, [r3]
 609              		.loc 8 97 0
 610 004c 234B     		ldr	r3, .L31
 611 004e 1C69     		ldr	r4, [r3, #16]
 612 0050 FFF7FEFF 		bl	chThdGetPriorityX
 613 0054 0300     		movs	r3, r0
 614 0056 5A1E     		subs	r2, r3, #1
 615 0058 2148     		ldr	r0, .L31+4
 616 005a A823     		movs	r3, #168
 617 005c 5900     		lsls	r1, r3, #1
 618 005e 244B     		ldr	r3, .L31+20
 619 0060 0093     		str	r3, [sp]
 620 0062 0300     		movs	r3, r0
 621 0064 2000     		movs	r0, r4
 622 0066 FFF7FEFF 		bl	chThdCreateStatic
ARM GAS  /tmp/ccYRGOgl.s 			page 12


 623 006a 0200     		movs	r2, r0
 624 006c 1E4B     		ldr	r3, .L31+12
 625 006e 1A61     		str	r2, [r3, #16]
 626              		.loc 8 98 0
 627 0070 1A4B     		ldr	r3, .L31
 628 0072 DC68     		ldr	r4, [r3, #12]
 629 0074 FFF7FEFF 		bl	chThdGetPriorityX
 630 0078 0300     		movs	r3, r0
 631 007a 9A1E     		subs	r2, r3, #2
 632 007c 1848     		ldr	r0, .L31+4
 633 007e A823     		movs	r3, #168
 634 0080 5900     		lsls	r1, r3, #1
 635 0082 1C4B     		ldr	r3, .L31+24
 636 0084 0093     		str	r3, [sp]
 637 0086 0300     		movs	r3, r0
 638 0088 2000     		movs	r0, r4
 639 008a FFF7FEFF 		bl	chThdCreateStatic
 640 008e 0200     		movs	r2, r0
 641 0090 154B     		ldr	r3, .L31+12
 642 0092 DA60     		str	r2, [r3, #12]
 643              		.loc 8 100 0
 644 0094 FFF7FEFF 		bl	chSysLock
 645              		.loc 8 101 0
 646 0098 104B     		ldr	r3, .L31
 647 009a 9C68     		ldr	r4, [r3, #8]
 648 009c FFF7FEFF 		bl	chThdGetPriorityX
 649 00a0 0300     		movs	r3, r0
 650 00a2 DA1E     		subs	r2, r3, #3
 651 00a4 0E48     		ldr	r0, .L31+4
 652 00a6 A823     		movs	r3, #168
 653 00a8 5900     		lsls	r1, r3, #1
 654 00aa 134B     		ldr	r3, .L31+28
 655 00ac 0093     		str	r3, [sp]
 656 00ae 0300     		movs	r3, r0
 657 00b0 2000     		movs	r0, r4
 658 00b2 FFF7FEFF 		bl	chThdCreateI
 659 00b6 0200     		movs	r2, r0
 660 00b8 0B4B     		ldr	r3, .L31+12
 661 00ba 9A60     		str	r2, [r3, #8]
 662              		.loc 8 102 0
 663 00bc FFF7FEFF 		bl	chSysUnlock
 664              		.loc 8 103 0
 665 00c0 094B     		ldr	r3, .L31+12
 666 00c2 9B68     		ldr	r3, [r3, #8]
 667 00c4 1800     		movs	r0, r3
 668 00c6 FFF7FEFF 		bl	chThdStart
 669              		.loc 8 104 0
 670 00ca FFF7FEFF 		bl	test_wait_threads
 671              		.loc 8 105 0
 672 00ce 0B4B     		ldr	r3, .L31+32
 673 00d0 1900     		movs	r1, r3
 674 00d2 0120     		movs	r0, #1
 675 00d4 FFF7FEFF 		bl	_test_assert_sequence
 676              		.loc 8 106 0
 677 00d8 02B0     		add	sp, sp, #8
 678              		@ sp needed
 679 00da 10BD     		pop	{r4, pc}
ARM GAS  /tmp/ccYRGOgl.s 			page 13


 680              	.L32:
 681              		.align	2
 682              	.L31:
 683 00dc 00000000 		.word	wa
 684 00e0 00000000 		.word	thread
 685 00e4 04000000 		.word	.LC8
 686 00e8 00000000 		.word	threads
 687 00ec 00000000 		.word	.LC5
 688 00f0 10000000 		.word	.LC14
 689 00f4 0C000000 		.word	.LC12
 690 00f8 08000000 		.word	.LC10
 691 00fc 14000000 		.word	.LC16
 692              		.cfi_endproc
 693              	.LFE154:
 694              		.size	thd2_execute, .-thd2_execute
 695              		.global	testthd2
 696              		.section	.rodata
 697 0037 00       		.align	2
 698              	.LC28:
 699 0038 54687265 		.ascii	"Threads, enqueuing test #2\000"
 699      6164732C 
 699      20656E71 
 699      75657569 
 699      6E672074 
 700              		.section	.rodata.testthd2,"a",%progbits
 701              		.align	2
 702              		.type	testthd2, %object
 703              		.size	testthd2, 16
 704              	testthd2:
 705 0000 38000000 		.word	.LC28
 706 0004 00000000 		.word	0
 707 0008 00000000 		.word	0
 708 000c 00000000 		.word	thd2_execute
 709              		.section	.text.thd3_execute,"ax",%progbits
 710              		.align	1
 711              		.p2align 4,,15
 712              		.syntax unified
 713              		.code	16
 714              		.thumb_func
 715              		.fpu softvfp
 716              		.type	thd3_execute, %function
 717              	thd3_execute:
 718              	.LFB155:
 719              		.loc 8 125 0
 720              		.cfi_startproc
 721              		@ args = 0, pretend = 0, frame = 8
 722              		@ frame_needed = 0, uses_anonymous_args = 0
 723 0000 00B5     		push	{lr}
 724              		.cfi_def_cfa_offset 4
 725              		.cfi_offset 14, -4
 726 0002 83B0     		sub	sp, sp, #12
 727              		.cfi_def_cfa_offset 16
 728              		.loc 8 128 0
 729 0004 FFF7FEFF 		bl	chThdGetPriorityX
 730 0008 0300     		movs	r3, r0
 731 000a 0193     		str	r3, [sp, #4]
 732              		.loc 8 129 0
ARM GAS  /tmp/ccYRGOgl.s 			page 14


 733 000c 019B     		ldr	r3, [sp, #4]
 734 000e 0133     		adds	r3, r3, #1
 735 0010 1800     		movs	r0, r3
 736 0012 FFF7FEFF 		bl	chThdSetPriority
 737 0016 0300     		movs	r3, r0
 738 0018 0093     		str	r3, [sp]
 739              		.loc 8 130 0
 740 001a 009A     		ldr	r2, [sp]
 741 001c 019B     		ldr	r3, [sp, #4]
 742 001e D31A     		subs	r3, r2, r3
 743 0020 5A42     		rsbs	r2, r3, #0
 744 0022 5341     		adcs	r3, r3, r2
 745 0024 DBB2     		uxtb	r3, r3
 746 0026 1900     		movs	r1, r3
 747 0028 0120     		movs	r0, #1
 748 002a FFF7FEFF 		bl	_test_assert
 749 002e 031E     		subs	r3, r0, #0
 750 0030 00D0     		beq	.LCB502
 751 0032 C3E0     		b	.L46	@long jump
 752              	.LCB502:
 753              		.loc 8 132 0
 754 0034 FFF7FEFF 		bl	chThdGetPriorityX
 755 0038 0200     		movs	r2, r0
 756 003a 019B     		ldr	r3, [sp, #4]
 757 003c 0133     		adds	r3, r3, #1
 758 003e D31A     		subs	r3, r2, r3
 759 0040 5A42     		rsbs	r2, r3, #0
 760 0042 5341     		adcs	r3, r3, r2
 761 0044 DBB2     		uxtb	r3, r3
 762 0046 1900     		movs	r1, r3
 763 0048 0220     		movs	r0, #2
 764 004a FFF7FEFF 		bl	_test_assert
 765 004e 031E     		subs	r3, r0, #0
 766 0050 00D0     		beq	.LCB515
 767 0052 B5E0     		b	.L47	@long jump
 768              	.LCB515:
 769              		.loc 8 134 0
 770 0054 009B     		ldr	r3, [sp]
 771 0056 1800     		movs	r0, r3
 772 0058 FFF7FEFF 		bl	chThdSetPriority
 773 005c 0300     		movs	r3, r0
 774 005e 0093     		str	r3, [sp]
 775              		.loc 8 135 0
 776 0060 019B     		ldr	r3, [sp, #4]
 777 0062 5A1C     		adds	r2, r3, #1
 778 0064 009B     		ldr	r3, [sp]
 779 0066 D31A     		subs	r3, r2, r3
 780 0068 5A42     		rsbs	r2, r3, #0
 781 006a 5341     		adcs	r3, r3, r2
 782 006c DBB2     		uxtb	r3, r3
 783 006e 1900     		movs	r1, r3
 784 0070 0320     		movs	r0, #3
 785 0072 FFF7FEFF 		bl	_test_assert
 786 0076 031E     		subs	r3, r0, #0
 787 0078 00D0     		beq	.LCB532
 788 007a A3E0     		b	.L48	@long jump
 789              	.LCB532:
ARM GAS  /tmp/ccYRGOgl.s 			page 15


 790              		.loc 8 137 0
 791 007c FFF7FEFF 		bl	chThdGetPriorityX
 792 0080 0200     		movs	r2, r0
 793 0082 019B     		ldr	r3, [sp, #4]
 794 0084 D31A     		subs	r3, r2, r3
 795 0086 5A42     		rsbs	r2, r3, #0
 796 0088 5341     		adcs	r3, r3, r2
 797 008a DBB2     		uxtb	r3, r3
 798 008c 1900     		movs	r1, r3
 799 008e 0420     		movs	r0, #4
 800 0090 FFF7FEFF 		bl	_test_assert
 801 0094 031E     		subs	r3, r0, #0
 802 0096 00D0     		beq	.LCB544
 803 0098 96E0     		b	.L49	@long jump
 804              	.LCB544:
 805              		.loc 8 142 0
 806 009a FFF7FEFF 		bl	chSysLock
 807              		.loc 8 143 0
 808 009e FFF7FEFF 		bl	chThdGetSelfX
 809 00a2 0300     		movs	r3, r0
 810 00a4 9A68     		ldr	r2, [r3, #8]
 811 00a6 0232     		adds	r2, r2, #2
 812 00a8 9A60     		str	r2, [r3, #8]
 813              		.loc 8 144 0
 814 00aa FFF7FEFF 		bl	chSysUnlock
 815              		.loc 8 145 0
 816 00ae FFF7FEFF 		bl	chThdGetPriorityX
 817 00b2 0200     		movs	r2, r0
 818 00b4 019B     		ldr	r3, [sp, #4]
 819 00b6 0233     		adds	r3, r3, #2
 820 00b8 D31A     		subs	r3, r2, r3
 821 00ba 5A42     		rsbs	r2, r3, #0
 822 00bc 5341     		adcs	r3, r3, r2
 823 00be DBB2     		uxtb	r3, r3
 824 00c0 1900     		movs	r1, r3
 825 00c2 0520     		movs	r0, #5
 826 00c4 FFF7FEFF 		bl	_test_assert
 827 00c8 031E     		subs	r3, r0, #0
 828 00ca 00D0     		beq	.LCB564
 829 00cc 7EE0     		b	.L50	@long jump
 830              	.LCB564:
 831              		.loc 8 149 0
 832 00ce 019B     		ldr	r3, [sp, #4]
 833 00d0 0133     		adds	r3, r3, #1
 834 00d2 1800     		movs	r0, r3
 835 00d4 FFF7FEFF 		bl	chThdSetPriority
 836 00d8 0300     		movs	r3, r0
 837 00da 0093     		str	r3, [sp]
 838              		.loc 8 150 0
 839 00dc 009A     		ldr	r2, [sp]
 840 00de 019B     		ldr	r3, [sp, #4]
 841 00e0 D31A     		subs	r3, r2, r3
 842 00e2 5A42     		rsbs	r2, r3, #0
 843 00e4 5341     		adcs	r3, r3, r2
 844 00e6 DBB2     		uxtb	r3, r3
 845 00e8 1900     		movs	r1, r3
 846 00ea 0620     		movs	r0, #6
ARM GAS  /tmp/ccYRGOgl.s 			page 16


 847 00ec FFF7FEFF 		bl	_test_assert
 848 00f0 031E     		subs	r3, r0, #0
 849 00f2 00D0     		beq	.LCB581
 850 00f4 6CE0     		b	.L51	@long jump
 851              	.LCB581:
 852              		.loc 8 152 0
 853 00f6 FFF7FEFF 		bl	chThdGetSelfX
 854 00fa 0300     		movs	r3, r0
 855 00fc 9A68     		ldr	r2, [r3, #8]
 856 00fe 019B     		ldr	r3, [sp, #4]
 857 0100 0233     		adds	r3, r3, #2
 858 0102 D31A     		subs	r3, r2, r3
 859 0104 5A42     		rsbs	r2, r3, #0
 860 0106 5341     		adcs	r3, r3, r2
 861 0108 DBB2     		uxtb	r3, r3
 862 010a 1900     		movs	r1, r3
 863 010c 0720     		movs	r0, #7
 864 010e FFF7FEFF 		bl	_test_assert
 865 0112 031E     		subs	r3, r0, #0
 866 0114 5ED1     		bne	.L52
 867              		.loc 8 154 0
 868 0116 FFF7FEFF 		bl	chThdGetSelfX
 869 011a 0300     		movs	r3, r0
 870 011c 1A6C     		ldr	r2, [r3, #64]
 871 011e 019B     		ldr	r3, [sp, #4]
 872 0120 0133     		adds	r3, r3, #1
 873 0122 D31A     		subs	r3, r2, r3
 874 0124 5A42     		rsbs	r2, r3, #0
 875 0126 5341     		adcs	r3, r3, r2
 876 0128 DBB2     		uxtb	r3, r3
 877 012a 1900     		movs	r1, r3
 878 012c 0820     		movs	r0, #8
 879 012e FFF7FEFF 		bl	_test_assert
 880 0132 031E     		subs	r3, r0, #0
 881 0134 50D1     		bne	.L53
 882              		.loc 8 158 0
 883 0136 019B     		ldr	r3, [sp, #4]
 884 0138 0333     		adds	r3, r3, #3
 885 013a 1800     		movs	r0, r3
 886 013c FFF7FEFF 		bl	chThdSetPriority
 887 0140 0300     		movs	r3, r0
 888 0142 0093     		str	r3, [sp]
 889              		.loc 8 159 0
 890 0144 019B     		ldr	r3, [sp, #4]
 891 0146 5A1C     		adds	r2, r3, #1
 892 0148 009B     		ldr	r3, [sp]
 893 014a D31A     		subs	r3, r2, r3
 894 014c 5A42     		rsbs	r2, r3, #0
 895 014e 5341     		adcs	r3, r3, r2
 896 0150 DBB2     		uxtb	r3, r3
 897 0152 1900     		movs	r1, r3
 898 0154 0920     		movs	r0, #9
 899 0156 FFF7FEFF 		bl	_test_assert
 900 015a 031E     		subs	r3, r0, #0
 901 015c 3ED1     		bne	.L54
 902              		.loc 8 161 0
 903 015e FFF7FEFF 		bl	chThdGetSelfX
ARM GAS  /tmp/ccYRGOgl.s 			page 17


 904 0162 0300     		movs	r3, r0
 905 0164 9A68     		ldr	r2, [r3, #8]
 906 0166 019B     		ldr	r3, [sp, #4]
 907 0168 0333     		adds	r3, r3, #3
 908 016a D31A     		subs	r3, r2, r3
 909 016c 5A42     		rsbs	r2, r3, #0
 910 016e 5341     		adcs	r3, r3, r2
 911 0170 DBB2     		uxtb	r3, r3
 912 0172 1900     		movs	r1, r3
 913 0174 0A20     		movs	r0, #10
 914 0176 FFF7FEFF 		bl	_test_assert
 915 017a 031E     		subs	r3, r0, #0
 916 017c 30D1     		bne	.L55
 917              		.loc 8 163 0
 918 017e FFF7FEFF 		bl	chThdGetSelfX
 919 0182 0300     		movs	r3, r0
 920 0184 1A6C     		ldr	r2, [r3, #64]
 921 0186 019B     		ldr	r3, [sp, #4]
 922 0188 0333     		adds	r3, r3, #3
 923 018a D31A     		subs	r3, r2, r3
 924 018c 5A42     		rsbs	r2, r3, #0
 925 018e 5341     		adcs	r3, r3, r2
 926 0190 DBB2     		uxtb	r3, r3
 927 0192 1900     		movs	r1, r3
 928 0194 0B20     		movs	r0, #11
 929 0196 FFF7FEFF 		bl	_test_assert
 930 019a 031E     		subs	r3, r0, #0
 931 019c 22D1     		bne	.L56
 932              		.loc 8 166 0
 933 019e FFF7FEFF 		bl	chSysLock
 934              		.loc 8 167 0
 935 01a2 FFF7FEFF 		bl	chThdGetSelfX
 936 01a6 0300     		movs	r3, r0
 937 01a8 019A     		ldr	r2, [sp, #4]
 938 01aa 9A60     		str	r2, [r3, #8]
 939              		.loc 8 168 0
 940 01ac FFF7FEFF 		bl	chThdGetSelfX
 941 01b0 0300     		movs	r3, r0
 942 01b2 019A     		ldr	r2, [sp, #4]
 943 01b4 1A64     		str	r2, [r3, #64]
 944              		.loc 8 169 0
 945 01b6 FFF7FEFF 		bl	chSysUnlock
 946 01ba 14E0     		b	.L33
 947              	.L46:
 948              		.loc 8 130 0
 949 01bc C046     		nop
 950 01be 12E0     		b	.L33
 951              	.L47:
 952              		.loc 8 132 0
 953 01c0 C046     		nop
 954 01c2 10E0     		b	.L33
 955              	.L48:
 956              		.loc 8 135 0
 957 01c4 C046     		nop
 958 01c6 0EE0     		b	.L33
 959              	.L49:
 960              		.loc 8 137 0
ARM GAS  /tmp/ccYRGOgl.s 			page 18


 961 01c8 C046     		nop
 962 01ca 0CE0     		b	.L33
 963              	.L50:
 964              		.loc 8 145 0
 965 01cc C046     		nop
 966 01ce 0AE0     		b	.L33
 967              	.L51:
 968              		.loc 8 150 0
 969 01d0 C046     		nop
 970 01d2 08E0     		b	.L33
 971              	.L52:
 972              		.loc 8 152 0
 973 01d4 C046     		nop
 974 01d6 06E0     		b	.L33
 975              	.L53:
 976              		.loc 8 154 0
 977 01d8 C046     		nop
 978 01da 04E0     		b	.L33
 979              	.L54:
 980              		.loc 8 159 0
 981 01dc C046     		nop
 982 01de 02E0     		b	.L33
 983              	.L55:
 984              		.loc 8 161 0
 985 01e0 C046     		nop
 986 01e2 00E0     		b	.L33
 987              	.L56:
 988              		.loc 8 163 0
 989 01e4 C046     		nop
 990              	.L33:
 991              		.loc 8 171 0
 992 01e6 03B0     		add	sp, sp, #12
 993              		@ sp needed
 994 01e8 00BD     		pop	{pc}
 995              		.cfi_endproc
 996              	.LFE155:
 997              		.size	thd3_execute, .-thd3_execute
 998              		.global	testthd3
 999 01ea C046     		.section	.rodata
 1000 0053 00       		.align	2
 1001              	.LC29:
 1002 0054 54687265 		.ascii	"Threads, priority change\000"
 1002      6164732C 
 1002      20707269 
 1002      6F726974 
 1002      79206368 
 1003              		.section	.rodata.testthd3,"a",%progbits
 1004              		.align	2
 1005              		.type	testthd3, %object
 1006              		.size	testthd3, 16
 1007              	testthd3:
 1008 0000 54000000 		.word	.LC29
 1009 0004 00000000 		.word	0
 1010 0008 00000000 		.word	0
 1011 000c 00000000 		.word	thd3_execute
 1012              		.section	.text.thd4_execute,"ax",%progbits
 1013              		.align	1
ARM GAS  /tmp/ccYRGOgl.s 			page 19


 1014              		.p2align 4,,15
 1015              		.syntax unified
 1016              		.code	16
 1017              		.thumb_func
 1018              		.fpu softvfp
 1019              		.type	thd4_execute, %function
 1020              	thd4_execute:
 1021              	.LFB156:
 1022              		.loc 8 188 0
 1023              		.cfi_startproc
 1024              		@ args = 0, pretend = 0, frame = 8
 1025              		@ frame_needed = 0, uses_anonymous_args = 0
 1026 0000 10B5     		push	{r4, lr}
 1027              		.cfi_def_cfa_offset 8
 1028              		.cfi_offset 4, -8
 1029              		.cfi_offset 14, -4
 1030 0002 82B0     		sub	sp, sp, #8
 1031              		.cfi_def_cfa_offset 16
 1032              		.loc 8 191 0
 1033 0004 FFF7FEFF 		bl	test_wait_tick
 1034              		.loc 8 194 0
 1035 0008 6B46     		mov	r3, sp
 1036 000a 9C1D     		adds	r4, r3, #6
 1037 000c FFF7FEFF 		bl	chVTGetSystemTime
 1038 0010 0300     		movs	r3, r0
 1039 0012 2380     		strh	r3, [r4]
 1040              		.loc 8 195 0
 1041 0014 FA23     		movs	r3, #250
 1042 0016 9B00     		lsls	r3, r3, #2
 1043 0018 1800     		movs	r0, r3
 1044 001a FFF7FEFF 		bl	chThdSleep
 1045              		.loc 8 196 0
 1046 001e 6B46     		mov	r3, sp
 1047 0020 0633     		adds	r3, r3, #6
 1048 0022 1B88     		ldrh	r3, [r3]
 1049 0024 FA22     		movs	r2, #250
 1050 0026 9200     		lsls	r2, r2, #2
 1051 0028 9446     		mov	ip, r2
 1052 002a 6344     		add	r3, r3, ip
 1053 002c 99B2     		uxth	r1, r3
 1054 002e 6B46     		mov	r3, sp
 1055 0030 0633     		adds	r3, r3, #6
 1056 0032 1B88     		ldrh	r3, [r3]
 1057 0034 364A     		ldr	r2, .L65
 1058 0036 9446     		mov	ip, r2
 1059 0038 6344     		add	r3, r3, ip
 1060 003a 9BB2     		uxth	r3, r3
 1061 003c 1A00     		movs	r2, r3
 1062 003e 0120     		movs	r0, #1
 1063 0040 FFF7FEFF 		bl	_test_assert_time_window
 1064 0044 031E     		subs	r3, r0, #0
 1065 0046 5BD1     		bne	.L62
 1066              		.loc 8 201 0
 1067 0048 6B46     		mov	r3, sp
 1068 004a 9C1D     		adds	r4, r3, #6
 1069 004c FFF7FEFF 		bl	chVTGetSystemTime
 1070 0050 0300     		movs	r3, r0
ARM GAS  /tmp/ccYRGOgl.s 			page 20


 1071 0052 2380     		strh	r3, [r4]
 1072              		.loc 8 202 0
 1073 0054 FA23     		movs	r3, #250
 1074 0056 9B00     		lsls	r3, r3, #2
 1075 0058 1800     		movs	r0, r3
 1076 005a FFF7FEFF 		bl	chThdSleep
 1077              		.loc 8 203 0
 1078 005e 6B46     		mov	r3, sp
 1079 0060 0633     		adds	r3, r3, #6
 1080 0062 1B88     		ldrh	r3, [r3]
 1081 0064 FA22     		movs	r2, #250
 1082 0066 9200     		lsls	r2, r2, #2
 1083 0068 9446     		mov	ip, r2
 1084 006a 6344     		add	r3, r3, ip
 1085 006c 99B2     		uxth	r1, r3
 1086 006e 6B46     		mov	r3, sp
 1087 0070 0633     		adds	r3, r3, #6
 1088 0072 1B88     		ldrh	r3, [r3]
 1089 0074 264A     		ldr	r2, .L65
 1090 0076 9446     		mov	ip, r2
 1091 0078 6344     		add	r3, r3, ip
 1092 007a 9BB2     		uxth	r3, r3
 1093 007c 1A00     		movs	r2, r3
 1094 007e 0220     		movs	r0, #2
 1095 0080 FFF7FEFF 		bl	_test_assert_time_window
 1096 0084 031E     		subs	r3, r0, #0
 1097 0086 3DD1     		bne	.L63
 1098              		.loc 8 208 0
 1099 0088 6B46     		mov	r3, sp
 1100 008a 9C1D     		adds	r4, r3, #6
 1101 008c FFF7FEFF 		bl	chVTGetSystemTime
 1102 0090 0300     		movs	r3, r0
 1103 0092 2380     		strh	r3, [r4]
 1104              		.loc 8 209 0
 1105 0094 1F4B     		ldr	r3, .L65+4
 1106 0096 1800     		movs	r0, r3
 1107 0098 FFF7FEFF 		bl	chThdSleep
 1108              		.loc 8 210 0
 1109 009c 6B46     		mov	r3, sp
 1110 009e 0633     		adds	r3, r3, #6
 1111 00a0 1B88     		ldrh	r3, [r3]
 1112 00a2 1C4A     		ldr	r2, .L65+4
 1113 00a4 9446     		mov	ip, r2
 1114 00a6 6344     		add	r3, r3, ip
 1115 00a8 99B2     		uxth	r1, r3
 1116 00aa 6B46     		mov	r3, sp
 1117 00ac 0633     		adds	r3, r3, #6
 1118 00ae 1B88     		ldrh	r3, [r3]
 1119 00b0 194A     		ldr	r2, .L65+8
 1120 00b2 9446     		mov	ip, r2
 1121 00b4 6344     		add	r3, r3, ip
 1122 00b6 9BB2     		uxth	r3, r3
 1123 00b8 1A00     		movs	r2, r3
 1124 00ba 0320     		movs	r0, #3
 1125 00bc FFF7FEFF 		bl	_test_assert_time_window
 1126 00c0 031E     		subs	r3, r0, #0
 1127 00c2 21D1     		bne	.L64
ARM GAS  /tmp/ccYRGOgl.s 			page 21


 1128              		.loc 8 215 0
 1129 00c4 FFF7FEFF 		bl	chVTGetSystemTime
 1130 00c8 0300     		movs	r3, r0
 1131 00ca 1A00     		movs	r2, r3
 1132 00cc 6B46     		mov	r3, sp
 1133 00ce 0633     		adds	r3, r3, #6
 1134 00d0 FA21     		movs	r1, #250
 1135 00d2 8900     		lsls	r1, r1, #2
 1136 00d4 8C46     		mov	ip, r1
 1137 00d6 6244     		add	r2, r2, ip
 1138 00d8 1A80     		strh	r2, [r3]
 1139              		.loc 8 216 0
 1140 00da 6B46     		mov	r3, sp
 1141 00dc 0633     		adds	r3, r3, #6
 1142 00de 1B88     		ldrh	r3, [r3]
 1143 00e0 1800     		movs	r0, r3
 1144 00e2 FFF7FEFF 		bl	chThdSleepUntil
 1145              		.loc 8 217 0
 1146 00e6 6B46     		mov	r3, sp
 1147 00e8 0633     		adds	r3, r3, #6
 1148 00ea 1B88     		ldrh	r3, [r3]
 1149 00ec 0333     		adds	r3, r3, #3
 1150 00ee 9AB2     		uxth	r2, r3
 1151 00f0 6B46     		mov	r3, sp
 1152 00f2 0633     		adds	r3, r3, #6
 1153 00f4 1B88     		ldrh	r3, [r3]
 1154 00f6 1900     		movs	r1, r3
 1155 00f8 0420     		movs	r0, #4
 1156 00fa FFF7FEFF 		bl	_test_assert_time_window
 1157 00fe 04E0     		b	.L57
 1158              	.L62:
 1159              		.loc 8 196 0
 1160 0100 C046     		nop
 1161 0102 02E0     		b	.L57
 1162              	.L63:
 1163              		.loc 8 203 0
 1164 0104 C046     		nop
 1165 0106 00E0     		b	.L57
 1166              	.L64:
 1167              		.loc 8 210 0
 1168 0108 C046     		nop
 1169              	.L57:
 1170              		.loc 8 220 0
 1171 010a 02B0     		add	sp, sp, #8
 1172              		@ sp needed
 1173 010c 10BD     		pop	{r4, pc}
 1174              	.L66:
 1175 010e C046     		.align	2
 1176              	.L65:
 1177 0110 EB030000 		.word	1003
 1178 0114 10270000 		.word	10000
 1179 0118 13270000 		.word	10003
 1180              		.cfi_endproc
 1181              	.LFE156:
 1182              		.size	thd4_execute, .-thd4_execute
 1183              		.global	testthd4
 1184              		.section	.rodata
ARM GAS  /tmp/ccYRGOgl.s 			page 22


 1185 006d 000000   		.align	2
 1186              	.LC30:
 1187 0070 54687265 		.ascii	"Threads, delays\000"
 1187      6164732C 
 1187      2064656C 
 1187      61797300 
 1188              		.section	.rodata.testthd4,"a",%progbits
 1189              		.align	2
 1190              		.type	testthd4, %object
 1191              		.size	testthd4, 16
 1192              	testthd4:
 1193 0000 70000000 		.word	.LC30
 1194 0004 00000000 		.word	0
 1195 0008 00000000 		.word	0
 1196 000c 00000000 		.word	thd4_execute
 1197              		.global	patternthd
 1198              		.section	.rodata.patternthd,"a",%progbits
 1199              		.align	2
 1200              		.type	patternthd, %object
 1201              		.size	patternthd, 20
 1202              	patternthd:
 1203 0000 00000000 		.word	testthd1
 1204 0004 00000000 		.word	testthd2
 1205 0008 00000000 		.word	testthd3
 1206 000c 00000000 		.word	testthd4
 1207 0010 00000000 		.word	0
 1208              		.section	.rodata.__func__.4993,"a",%progbits
 1209              		.align	2
 1210              		.type	__func__.4993, %object
 1211              		.size	__func__.4993, 12
 1212              	__func__.4993:
 1213 0000 63685379 		.ascii	"chSysUnlock\000"
 1213      73556E6C 
 1213      6F636B00 
 1214              		.text
 1215              	.Letext0:
 1216              		.file 9 "/home/felix/opt/gcc-arm-none-eabi-6-2017-q1-update/lib/gcc/arm-none-eabi/6.3.1/include/st
 1217              		.file 10 "/home/felix/opt/gcc-arm-none-eabi-6-2017-q1-update/arm-none-eabi/include/machine/_defaul
 1218              		.file 11 "/home/felix/opt/gcc-arm-none-eabi-6-2017-q1-update/arm-none-eabi/include/sys/_stdint.h"
 1219              		.file 12 "ChibiOS/os/rt/ports/ARMCMx/compilers/GCC/chtypes.h"
 1220              		.file 13 "ChibiOS/os/rt/include/chsystypes.h"
 1221              		.file 14 "ChibiOS/os/rt/include/chschd.h"
 1222              		.file 15 "ChibiOS/os/rt/ports/ARMCMx/chcore.h"
 1223              		.file 16 "ChibiOS/os/hal/ports/STM32/LLD/TIMv1/stm32_tim.h"
 1224              		.file 17 "ChibiOS/os/rt/include/chdebug.h"
 1225              		.file 18 "ChibiOS/os/rt/include/chsem.h"
 1226              		.file 19 "ChibiOS/os/rt/include/chmtx.h"
 1227              		.file 20 "ChibiOS/os/rt/include/chregistry.h"
 1228              		.file 21 "ChibiOS/os/ext/CMSIS/ST/STM32F0xx/system_stm32f0xx.h"
 1229              		.file 22 "ChibiOS/test/rt/test.h"