ARM GAS  /tmp/ccL53n49.s 			page 1


   1              		.cpu cortex-m0
   2              		.eabi_attribute 20, 1
   3              		.eabi_attribute 21, 1
   4              		.eabi_attribute 23, 3
   5              		.eabi_attribute 24, 1
   6              		.eabi_attribute 25, 1
   7              		.eabi_attribute 26, 1
   8              		.eabi_attribute 30, 6
   9              		.eabi_attribute 34, 0
  10              		.eabi_attribute 18, 4
  11              		.file	"testqueues.c"
  12              		.text
  13              	.Ltext0:
  14              		.cfi_sections	.debug_frame
  15              		.section	.text.port_lock,"ax",%progbits
  16              		.align	1
  17              		.p2align 4,,15
  18              		.syntax unified
  19              		.code	16
  20              		.thumb_func
  21              		.fpu softvfp
  22              		.type	port_lock, %function
  23              	port_lock:
  24              	.LFB38:
  25              		.file 1 "ChibiOS/os/rt/ports/ARMCMx/chcore_v6m.h"
  26              		.loc 1 330 0
  27              		.cfi_startproc
  28              		@ args = 0, pretend = 0, frame = 0
  29              		@ frame_needed = 0, uses_anonymous_args = 0
  30              		@ link register save eliminated.
  31              	.LBB6:
  32              	.LBB7:
  33              		.file 2 "ChibiOS/os/ext/CMSIS/include/core_cmFunc.h"
  34              		.loc 2 344 0
  35              		.syntax divided
  36              	@ 344 "ChibiOS/os/ext/CMSIS/include/core_cmFunc.h" 1
  37 0000 72B6     		cpsid i
  38              	@ 0 "" 2
  39              		.thumb
  40              		.syntax unified
  41              	.LBE7:
  42              	.LBE6:
  43              		.loc 1 333 0
  44 0002 C046     		nop
  45              		@ sp needed
  46 0004 7047     		bx	lr
  47              		.cfi_endproc
  48              	.LFE38:
  49              		.size	port_lock, .-port_lock
  50 0006 C046     		.section	.text.port_unlock,"ax",%progbits
  51              		.align	1
  52              		.p2align 4,,15
  53              		.syntax unified
  54              		.code	16
  55              		.thumb_func
  56              		.fpu softvfp
  57              		.type	port_unlock, %function
ARM GAS  /tmp/ccL53n49.s 			page 2


  58              	port_unlock:
  59              	.LFB39:
  60              		.loc 1 339 0
  61              		.cfi_startproc
  62              		@ args = 0, pretend = 0, frame = 0
  63              		@ frame_needed = 0, uses_anonymous_args = 0
  64              		@ link register save eliminated.
  65              	.LBB8:
  66              	.LBB9:
  67              		.loc 2 333 0
  68              		.syntax divided
  69              	@ 333 "ChibiOS/os/ext/CMSIS/include/core_cmFunc.h" 1
  70 0000 62B6     		cpsie i
  71              	@ 0 "" 2
  72              		.thumb
  73              		.syntax unified
  74              	.LBE9:
  75              	.LBE8:
  76              		.loc 1 342 0
  77 0002 C046     		nop
  78              		@ sp needed
  79 0004 7047     		bx	lr
  80              		.cfi_endproc
  81              	.LFE39:
  82              		.size	port_unlock, .-port_unlock
  83 0006 C046     		.section	.text.chSysLock,"ax",%progbits
  84              		.align	1
  85              		.p2align 4,,15
  86              		.syntax unified
  87              		.code	16
  88              		.thumb_func
  89              		.fpu softvfp
  90              		.type	chSysLock, %function
  91              	chSysLock:
  92              	.LFB77:
  93              		.file 3 "ChibiOS/os/rt/include/chsys.h"
  94              		.loc 3 346 0
  95              		.cfi_startproc
  96              		@ args = 0, pretend = 0, frame = 0
  97              		@ frame_needed = 0, uses_anonymous_args = 0
  98 0000 10B5     		push	{r4, lr}
  99              		.cfi_def_cfa_offset 8
 100              		.cfi_offset 4, -8
 101              		.cfi_offset 14, -4
 102              		.loc 3 348 0
 103 0002 FFF7FEFF 		bl	port_lock
 104              		.loc 3 350 0
 105 0006 FFF7FEFF 		bl	_dbg_check_lock
 106              		.loc 3 351 0
 107 000a C046     		nop
 108              		@ sp needed
 109 000c 10BD     		pop	{r4, pc}
 110              		.cfi_endproc
 111              	.LFE77:
 112              		.size	chSysLock, .-chSysLock
 113 000e C046     		.section	.text.chSysUnlock,"ax",%progbits
 114              		.align	1
ARM GAS  /tmp/ccL53n49.s 			page 3


 115              		.p2align 4,,15
 116              		.syntax unified
 117              		.code	16
 118              		.thumb_func
 119              		.fpu softvfp
 120              		.type	chSysUnlock, %function
 121              	chSysUnlock:
 122              	.LFB78:
 123              		.loc 3 358 0
 124              		.cfi_startproc
 125              		@ args = 0, pretend = 0, frame = 0
 126              		@ frame_needed = 0, uses_anonymous_args = 0
 127 0000 10B5     		push	{r4, lr}
 128              		.cfi_def_cfa_offset 8
 129              		.cfi_offset 4, -8
 130              		.cfi_offset 14, -4
 131              		.loc 3 360 0
 132 0002 FFF7FEFF 		bl	_dbg_check_unlock
 133              		.loc 3 367 0
 134 0006 0A4B     		ldr	r3, .L6
 135 0008 1A68     		ldr	r2, [r3]
 136 000a 094B     		ldr	r3, .L6
 137 000c 9A42     		cmp	r2, r3
 138 000e 0BD0     		beq	.L5
 139              		.loc 3 367 0 is_stmt 0 discriminator 2
 140 0010 074B     		ldr	r3, .L6
 141 0012 9B69     		ldr	r3, [r3, #24]
 142 0014 9A68     		ldr	r2, [r3, #8]
 143 0016 064B     		ldr	r3, .L6
 144 0018 1B68     		ldr	r3, [r3]
 145 001a 9B68     		ldr	r3, [r3, #8]
 146 001c 9A42     		cmp	r2, r3
 147 001e 03D2     		bcs	.L5
 148              		.loc 3 367 0 discriminator 3
 149 0020 044B     		ldr	r3, .L6+4
 150 0022 1800     		movs	r0, r3
 151 0024 FFF7FEFF 		bl	chSysHalt
 152              	.L5:
 153              		.loc 3 371 0 is_stmt 1
 154 0028 FFF7FEFF 		bl	port_unlock
 155              		.loc 3 372 0
 156 002c C046     		nop
 157              		@ sp needed
 158 002e 10BD     		pop	{r4, pc}
 159              	.L7:
 160              		.align	2
 161              	.L6:
 162 0030 00000000 		.word	ch
 163 0034 00000000 		.word	__func__.4993
 164              		.cfi_endproc
 165              	.LFE78:
 166              		.size	chSysUnlock, .-chSysUnlock
 167              		.section	.text.chThdGetSelfX,"ax",%progbits
 168              		.align	1
 169              		.p2align 4,,15
 170              		.syntax unified
 171              		.code	16
ARM GAS  /tmp/ccL53n49.s 			page 4


 172              		.thumb_func
 173              		.fpu softvfp
 174              		.type	chThdGetSelfX, %function
 175              	chThdGetSelfX:
 176              	.LFB99:
 177              		.file 4 "ChibiOS/os/rt/include/chthreads.h"
 178              		.loc 4 174 0
 179              		.cfi_startproc
 180              		@ args = 0, pretend = 0, frame = 0
 181              		@ frame_needed = 0, uses_anonymous_args = 0
 182              		@ link register save eliminated.
 183              		.loc 4 176 0
 184 0000 014B     		ldr	r3, .L10
 185 0002 9B69     		ldr	r3, [r3, #24]
 186              		.loc 4 177 0
 187 0004 1800     		movs	r0, r3
 188              		@ sp needed
 189 0006 7047     		bx	lr
 190              	.L11:
 191              		.align	2
 192              	.L10:
 193 0008 00000000 		.word	ch
 194              		.cfi_endproc
 195              	.LFE99:
 196              		.size	chThdGetSelfX, .-chThdGetSelfX
 197              		.section	.text.chThdGetPriorityX,"ax",%progbits
 198              		.align	1
 199              		.p2align 4,,15
 200              		.syntax unified
 201              		.code	16
 202              		.thumb_func
 203              		.fpu softvfp
 204              		.type	chThdGetPriorityX, %function
 205              	chThdGetPriorityX:
 206              	.LFB100:
 207              		.loc 4 187 0
 208              		.cfi_startproc
 209              		@ args = 0, pretend = 0, frame = 0
 210              		@ frame_needed = 0, uses_anonymous_args = 0
 211 0000 10B5     		push	{r4, lr}
 212              		.cfi_def_cfa_offset 8
 213              		.cfi_offset 4, -8
 214              		.cfi_offset 14, -4
 215              		.loc 4 189 0
 216 0002 FFF7FEFF 		bl	chThdGetSelfX
 217 0006 0300     		movs	r3, r0
 218 0008 9B68     		ldr	r3, [r3, #8]
 219              		.loc 4 190 0
 220 000a 1800     		movs	r0, r3
 221              		@ sp needed
 222 000c 10BD     		pop	{r4, pc}
 223              		.cfi_endproc
 224              	.LFE100:
 225              		.size	chThdGetPriorityX, .-chThdGetPriorityX
 226 000e C046     		.section	.text.chIQGetFullI,"ax",%progbits
 227              		.align	1
 228              		.p2align 4,,15
ARM GAS  /tmp/ccL53n49.s 			page 5


 229              		.syntax unified
 230              		.code	16
 231              		.thumb_func
 232              		.fpu softvfp
 233              		.type	chIQGetFullI, %function
 234              	chIQGetFullI:
 235              	.LFB142:
 236              		.file 5 "ChibiOS/os/rt/include/chqueues.h"
 237              		.loc 5 270 0
 238              		.cfi_startproc
 239              		@ args = 0, pretend = 0, frame = 8
 240              		@ frame_needed = 0, uses_anonymous_args = 0
 241 0000 00B5     		push	{lr}
 242              		.cfi_def_cfa_offset 4
 243              		.cfi_offset 14, -4
 244 0002 83B0     		sub	sp, sp, #12
 245              		.cfi_def_cfa_offset 16
 246 0004 0190     		str	r0, [sp, #4]
 247              		.loc 5 272 0
 248 0006 FFF7FEFF 		bl	chDbgCheckClassI
 249              		.loc 5 274 0
 250 000a 019B     		ldr	r3, [sp, #4]
 251 000c 9B68     		ldr	r3, [r3, #8]
 252              		.loc 5 275 0
 253 000e 1800     		movs	r0, r3
 254 0010 03B0     		add	sp, sp, #12
 255              		@ sp needed
 256 0012 00BD     		pop	{pc}
 257              		.cfi_endproc
 258              	.LFE142:
 259              		.size	chIQGetFullI, .-chIQGetFullI
 260              		.section	.text.chIQIsEmptyI,"ax",%progbits
 261              		.align	1
 262              		.p2align 4,,15
 263              		.syntax unified
 264              		.code	16
 265              		.thumb_func
 266              		.fpu softvfp
 267              		.type	chIQIsEmptyI, %function
 268              	chIQIsEmptyI:
 269              	.LFB144:
 270              		.loc 5 303 0
 271              		.cfi_startproc
 272              		@ args = 0, pretend = 0, frame = 8
 273              		@ frame_needed = 0, uses_anonymous_args = 0
 274 0000 00B5     		push	{lr}
 275              		.cfi_def_cfa_offset 4
 276              		.cfi_offset 14, -4
 277 0002 83B0     		sub	sp, sp, #12
 278              		.cfi_def_cfa_offset 16
 279 0004 0190     		str	r0, [sp, #4]
 280              		.loc 5 305 0
 281 0006 FFF7FEFF 		bl	chDbgCheckClassI
 282              		.loc 5 307 0
 283 000a 019B     		ldr	r3, [sp, #4]
 284 000c 9B68     		ldr	r3, [r3, #8]
 285 000e 5A42     		rsbs	r2, r3, #0
ARM GAS  /tmp/ccL53n49.s 			page 6


 286 0010 5341     		adcs	r3, r3, r2
 287 0012 DBB2     		uxtb	r3, r3
 288              		.loc 5 308 0
 289 0014 1800     		movs	r0, r3
 290 0016 03B0     		add	sp, sp, #12
 291              		@ sp needed
 292 0018 00BD     		pop	{pc}
 293              		.cfi_endproc
 294              	.LFE144:
 295              		.size	chIQIsEmptyI, .-chIQIsEmptyI
 296 001a C046     		.section	.text.chIQIsFullI,"ax",%progbits
 297              		.align	1
 298              		.p2align 4,,15
 299              		.syntax unified
 300              		.code	16
 301              		.thumb_func
 302              		.fpu softvfp
 303              		.type	chIQIsFullI, %function
 304              	chIQIsFullI:
 305              	.LFB145:
 306              		.loc 5 320 0
 307              		.cfi_startproc
 308              		@ args = 0, pretend = 0, frame = 8
 309              		@ frame_needed = 0, uses_anonymous_args = 0
 310 0000 00B5     		push	{lr}
 311              		.cfi_def_cfa_offset 4
 312              		.cfi_offset 14, -4
 313 0002 83B0     		sub	sp, sp, #12
 314              		.cfi_def_cfa_offset 16
 315 0004 0190     		str	r0, [sp, #4]
 316              		.loc 5 322 0
 317 0006 FFF7FEFF 		bl	chDbgCheckClassI
 318              		.loc 5 325 0
 319 000a 019B     		ldr	r3, [sp, #4]
 320 000c 5A69     		ldr	r2, [r3, #20]
 321 000e 019B     		ldr	r3, [sp, #4]
 322 0010 9B69     		ldr	r3, [r3, #24]
 323 0012 9A42     		cmp	r2, r3
 324 0014 05D1     		bne	.L19
 325              		.loc 5 325 0 is_stmt 0 discriminator 1
 326 0016 019B     		ldr	r3, [sp, #4]
 327 0018 9B68     		ldr	r3, [r3, #8]
 328 001a 002B     		cmp	r3, #0
 329 001c 01D0     		beq	.L19
 330              		.loc 5 325 0 discriminator 3
 331 001e 0123     		movs	r3, #1
 332 0020 00E0     		b	.L20
 333              	.L19:
 334              		.loc 5 325 0 discriminator 4
 335 0022 0023     		movs	r3, #0
 336              	.L20:
 337              		.loc 5 325 0 discriminator 6
 338 0024 1A1C     		adds	r2, r3, #0
 339 0026 0123     		movs	r3, #1
 340 0028 1340     		ands	r3, r2
 341 002a DBB2     		uxtb	r3, r3
 342              		.loc 5 327 0 is_stmt 1 discriminator 6
ARM GAS  /tmp/ccL53n49.s 			page 7


 343 002c 1800     		movs	r0, r3
 344 002e 03B0     		add	sp, sp, #12
 345              		@ sp needed
 346 0030 00BD     		pop	{pc}
 347              		.cfi_endproc
 348              	.LFE145:
 349              		.size	chIQIsFullI, .-chIQIsFullI
 350 0032 C046     		.section	.text.chIQGet,"ax",%progbits
 351              		.align	1
 352              		.p2align 4,,15
 353              		.syntax unified
 354              		.code	16
 355              		.thumb_func
 356              		.fpu softvfp
 357              		.type	chIQGet, %function
 358              	chIQGet:
 359              	.LFB146:
 360              		.loc 5 341 0
 361              		.cfi_startproc
 362              		@ args = 0, pretend = 0, frame = 8
 363              		@ frame_needed = 0, uses_anonymous_args = 0
 364 0000 00B5     		push	{lr}
 365              		.cfi_def_cfa_offset 4
 366              		.cfi_offset 14, -4
 367 0002 83B0     		sub	sp, sp, #12
 368              		.cfi_def_cfa_offset 16
 369 0004 0190     		str	r0, [sp, #4]
 370              		.loc 5 343 0
 371 0006 054A     		ldr	r2, .L24
 372 0008 019B     		ldr	r3, [sp, #4]
 373 000a 1100     		movs	r1, r2
 374 000c 1800     		movs	r0, r3
 375 000e FFF7FEFF 		bl	chIQGetTimeout
 376 0012 0300     		movs	r3, r0
 377              		.loc 5 344 0
 378 0014 1800     		movs	r0, r3
 379 0016 03B0     		add	sp, sp, #12
 380              		@ sp needed
 381 0018 00BD     		pop	{pc}
 382              	.L25:
 383 001a C046     		.align	2
 384              	.L24:
 385 001c FFFF0000 		.word	65535
 386              		.cfi_endproc
 387              	.LFE146:
 388              		.size	chIQGet, .-chIQGet
 389              		.section	.text.chOQGetFullI,"ax",%progbits
 390              		.align	1
 391              		.p2align 4,,15
 392              		.syntax unified
 393              		.code	16
 394              		.thumb_func
 395              		.fpu softvfp
 396              		.type	chOQGetFullI, %function
 397              	chOQGetFullI:
 398              	.LFB147:
 399              		.loc 5 355 0
ARM GAS  /tmp/ccL53n49.s 			page 8


 400              		.cfi_startproc
 401              		@ args = 0, pretend = 0, frame = 8
 402              		@ frame_needed = 0, uses_anonymous_args = 0
 403 0000 00B5     		push	{lr}
 404              		.cfi_def_cfa_offset 4
 405              		.cfi_offset 14, -4
 406 0002 83B0     		sub	sp, sp, #12
 407              		.cfi_def_cfa_offset 16
 408 0004 0190     		str	r0, [sp, #4]
 409              		.loc 5 357 0
 410 0006 FFF7FEFF 		bl	chDbgCheckClassI
 411              		.loc 5 359 0
 412 000a 019B     		ldr	r3, [sp, #4]
 413 000c 1B69     		ldr	r3, [r3, #16]
 414 000e 1A00     		movs	r2, r3
 415 0010 019B     		ldr	r3, [sp, #4]
 416 0012 DB68     		ldr	r3, [r3, #12]
 417 0014 D31A     		subs	r3, r2, r3
 418 0016 1A00     		movs	r2, r3
 419 0018 019B     		ldr	r3, [sp, #4]
 420 001a 9B68     		ldr	r3, [r3, #8]
 421 001c D31A     		subs	r3, r2, r3
 422              		.loc 5 360 0
 423 001e 1800     		movs	r0, r3
 424 0020 03B0     		add	sp, sp, #12
 425              		@ sp needed
 426 0022 00BD     		pop	{pc}
 427              		.cfi_endproc
 428              	.LFE147:
 429              		.size	chOQGetFullI, .-chOQGetFullI
 430              		.section	.text.chOQIsEmptyI,"ax",%progbits
 431              		.align	1
 432              		.p2align 4,,15
 433              		.syntax unified
 434              		.code	16
 435              		.thumb_func
 436              		.fpu softvfp
 437              		.type	chOQIsEmptyI, %function
 438              	chOQIsEmptyI:
 439              	.LFB149:
 440              		.loc 5 388 0
 441              		.cfi_startproc
 442              		@ args = 0, pretend = 0, frame = 8
 443              		@ frame_needed = 0, uses_anonymous_args = 0
 444 0000 00B5     		push	{lr}
 445              		.cfi_def_cfa_offset 4
 446              		.cfi_offset 14, -4
 447 0002 83B0     		sub	sp, sp, #12
 448              		.cfi_def_cfa_offset 16
 449 0004 0190     		str	r0, [sp, #4]
 450              		.loc 5 390 0
 451 0006 FFF7FEFF 		bl	chDbgCheckClassI
 452              		.loc 5 393 0
 453 000a 019B     		ldr	r3, [sp, #4]
 454 000c 5A69     		ldr	r2, [r3, #20]
 455 000e 019B     		ldr	r3, [sp, #4]
 456 0010 9B69     		ldr	r3, [r3, #24]
ARM GAS  /tmp/ccL53n49.s 			page 9


 457 0012 9A42     		cmp	r2, r3
 458 0014 05D1     		bne	.L29
 459              		.loc 5 393 0 is_stmt 0 discriminator 1
 460 0016 019B     		ldr	r3, [sp, #4]
 461 0018 9B68     		ldr	r3, [r3, #8]
 462 001a 002B     		cmp	r3, #0
 463 001c 01D0     		beq	.L29
 464              		.loc 5 393 0 discriminator 3
 465 001e 0123     		movs	r3, #1
 466 0020 00E0     		b	.L30
 467              	.L29:
 468              		.loc 5 393 0 discriminator 4
 469 0022 0023     		movs	r3, #0
 470              	.L30:
 471              		.loc 5 393 0 discriminator 6
 472 0024 1A1C     		adds	r2, r3, #0
 473 0026 0123     		movs	r3, #1
 474 0028 1340     		ands	r3, r2
 475 002a DBB2     		uxtb	r3, r3
 476              		.loc 5 395 0 is_stmt 1 discriminator 6
 477 002c 1800     		movs	r0, r3
 478 002e 03B0     		add	sp, sp, #12
 479              		@ sp needed
 480 0030 00BD     		pop	{pc}
 481              		.cfi_endproc
 482              	.LFE149:
 483              		.size	chOQIsEmptyI, .-chOQIsEmptyI
 484 0032 C046     		.section	.text.chOQIsFullI,"ax",%progbits
 485              		.align	1
 486              		.p2align 4,,15
 487              		.syntax unified
 488              		.code	16
 489              		.thumb_func
 490              		.fpu softvfp
 491              		.type	chOQIsFullI, %function
 492              	chOQIsFullI:
 493              	.LFB150:
 494              		.loc 5 407 0
 495              		.cfi_startproc
 496              		@ args = 0, pretend = 0, frame = 8
 497              		@ frame_needed = 0, uses_anonymous_args = 0
 498 0000 00B5     		push	{lr}
 499              		.cfi_def_cfa_offset 4
 500              		.cfi_offset 14, -4
 501 0002 83B0     		sub	sp, sp, #12
 502              		.cfi_def_cfa_offset 16
 503 0004 0190     		str	r0, [sp, #4]
 504              		.loc 5 409 0
 505 0006 FFF7FEFF 		bl	chDbgCheckClassI
 506              		.loc 5 411 0
 507 000a 019B     		ldr	r3, [sp, #4]
 508 000c 9B68     		ldr	r3, [r3, #8]
 509 000e 5A42     		rsbs	r2, r3, #0
 510 0010 5341     		adcs	r3, r3, r2
 511 0012 DBB2     		uxtb	r3, r3
 512              		.loc 5 412 0
 513 0014 1800     		movs	r0, r3
ARM GAS  /tmp/ccL53n49.s 			page 10


 514 0016 03B0     		add	sp, sp, #12
 515              		@ sp needed
 516 0018 00BD     		pop	{pc}
 517              		.cfi_endproc
 518              	.LFE150:
 519              		.size	chOQIsFullI, .-chOQIsFullI
 520 001a C046     		.section	.text.chOQPut,"ax",%progbits
 521              		.align	1
 522              		.p2align 4,,15
 523              		.syntax unified
 524              		.code	16
 525              		.thumb_func
 526              		.fpu softvfp
 527              		.type	chOQPut, %function
 528              	chOQPut:
 529              	.LFB151:
 530              		.loc 5 428 0
 531              		.cfi_startproc
 532              		@ args = 0, pretend = 0, frame = 8
 533              		@ frame_needed = 0, uses_anonymous_args = 0
 534 0000 00B5     		push	{lr}
 535              		.cfi_def_cfa_offset 4
 536              		.cfi_offset 14, -4
 537 0002 83B0     		sub	sp, sp, #12
 538              		.cfi_def_cfa_offset 16
 539 0004 0190     		str	r0, [sp, #4]
 540 0006 0A00     		movs	r2, r1
 541 0008 6B46     		mov	r3, sp
 542 000a 0333     		adds	r3, r3, #3
 543 000c 1A70     		strb	r2, [r3]
 544              		.loc 5 430 0
 545 000e 064A     		ldr	r2, .L36
 546 0010 6B46     		mov	r3, sp
 547 0012 0333     		adds	r3, r3, #3
 548 0014 1978     		ldrb	r1, [r3]
 549 0016 019B     		ldr	r3, [sp, #4]
 550 0018 1800     		movs	r0, r3
 551 001a FFF7FEFF 		bl	chOQPutTimeout
 552 001e 0300     		movs	r3, r0
 553              		.loc 5 431 0
 554 0020 1800     		movs	r0, r3
 555 0022 03B0     		add	sp, sp, #12
 556              		@ sp needed
 557 0024 00BD     		pop	{pc}
 558              	.L37:
 559 0026 C046     		.align	2
 560              	.L36:
 561 0028 FFFF0000 		.word	65535
 562              		.cfi_endproc
 563              	.LFE151:
 564              		.size	chOQPut, .-chOQPut
 565              		.section	.text.notify,"ax",%progbits
 566              		.align	1
 567              		.p2align 4,,15
 568              		.syntax unified
 569              		.code	16
 570              		.thumb_func
ARM GAS  /tmp/ccL53n49.s 			page 11


 571              		.fpu softvfp
 572              		.type	notify, %function
 573              	notify:
 574              	.LFB152:
 575              		.file 6 "ChibiOS/test/rt/testqueues.c"
 576              		.loc 6 57 0
 577              		.cfi_startproc
 578              		@ args = 0, pretend = 0, frame = 8
 579              		@ frame_needed = 0, uses_anonymous_args = 0
 580              		@ link register save eliminated.
 581 0000 82B0     		sub	sp, sp, #8
 582              		.cfi_def_cfa_offset 8
 583 0002 0190     		str	r0, [sp, #4]
 584              		.loc 6 59 0
 585 0004 C046     		nop
 586 0006 02B0     		add	sp, sp, #8
 587              		@ sp needed
 588 0008 7047     		bx	lr
 589              		.cfi_endproc
 590              	.LFE152:
 591              		.size	notify, .-notify
 592              		.section	.data.iq,"aw",%progbits
 593              		.align	2
 594              		.type	iq, %object
 595              		.size	iq, 36
 596              	iq:
 597 0000 00000000 		.word	iq
 598 0004 00000000 		.word	iq
 599 0008 00000000 		.word	0
 600 000c 00000000 		.word	test
 601 0010 04000000 		.word	test+4
 602 0014 00000000 		.word	test
 603 0018 00000000 		.word	test
 604 001c 00000000 		.word	notify
 605 0020 00000000 		.word	0
 606              		.section	.data.oq,"aw",%progbits
 607              		.align	2
 608              		.type	oq, %object
 609              		.size	oq, 36
 610              	oq:
 611 0000 00000000 		.word	oq
 612 0004 00000000 		.word	oq
 613 0008 04000000 		.word	4
 614 000c 50010000 		.word	test+336
 615 0010 54010000 		.word	test+340
 616 0014 50010000 		.word	test+336
 617 0018 50010000 		.word	test+336
 618 001c 00000000 		.word	notify
 619 0020 00000000 		.word	0
 620              		.section	.text.queues1_setup,"ax",%progbits
 621              		.align	1
 622              		.p2align 4,,15
 623              		.syntax unified
 624              		.code	16
 625              		.thumb_func
 626              		.fpu softvfp
 627              		.type	queues1_setup, %function
ARM GAS  /tmp/ccL53n49.s 			page 12


 628              	queues1_setup:
 629              	.LFB153:
 630              		.loc 6 78 0
 631              		.cfi_startproc
 632              		@ args = 0, pretend = 0, frame = 0
 633              		@ frame_needed = 0, uses_anonymous_args = 0
 634 0000 00B5     		push	{lr}
 635              		.cfi_def_cfa_offset 4
 636              		.cfi_offset 14, -4
 637 0002 83B0     		sub	sp, sp, #12
 638              		.cfi_def_cfa_offset 16
 639              		.loc 6 80 0
 640 0004 064B     		ldr	r3, .L40
 641 0006 1968     		ldr	r1, [r3]
 642 0008 064A     		ldr	r2, .L40+4
 643 000a 0748     		ldr	r0, .L40+8
 644 000c 0023     		movs	r3, #0
 645 000e 0093     		str	r3, [sp]
 646 0010 1300     		movs	r3, r2
 647 0012 0422     		movs	r2, #4
 648 0014 FFF7FEFF 		bl	chIQObjectInit
 649              		.loc 6 81 0
 650 0018 C046     		nop
 651 001a 03B0     		add	sp, sp, #12
 652              		@ sp needed
 653 001c 00BD     		pop	{pc}
 654              	.L41:
 655 001e C046     		.align	2
 656              	.L40:
 657 0020 00000000 		.word	wa
 658 0024 00000000 		.word	notify
 659 0028 00000000 		.word	iq
 660              		.cfi_endproc
 661              	.LFE153:
 662              		.size	queues1_setup, .-queues1_setup
 663              		.section	.text.thread1,"ax",%progbits
 664              		.align	1
 665              		.p2align 4,,15
 666              		.syntax unified
 667              		.code	16
 668              		.thumb_func
 669              		.fpu softvfp
 670              		.type	thread1, %function
 671              	thread1:
 672              	.LFB154:
 673              		.loc 6 83 0
 674              		.cfi_startproc
 675              		@ args = 0, pretend = 0, frame = 8
 676              		@ frame_needed = 0, uses_anonymous_args = 0
 677 0000 00B5     		push	{lr}
 678              		.cfi_def_cfa_offset 4
 679              		.cfi_offset 14, -4
 680 0002 83B0     		sub	sp, sp, #12
 681              		.cfi_def_cfa_offset 16
 682 0004 0190     		str	r0, [sp, #4]
 683              		.loc 6 86 0
 684 0006 FA23     		movs	r3, #250
ARM GAS  /tmp/ccL53n49.s 			page 13


 685 0008 DA00     		lsls	r2, r3, #3
 686 000a 044B     		ldr	r3, .L43
 687 000c 1100     		movs	r1, r2
 688 000e 1800     		movs	r0, r3
 689 0010 FFF7FEFF 		bl	chIQGetTimeout
 690              		.loc 6 87 0
 691 0014 C046     		nop
 692 0016 03B0     		add	sp, sp, #12
 693              		@ sp needed
 694 0018 00BD     		pop	{pc}
 695              	.L44:
 696 001a C046     		.align	2
 697              	.L43:
 698 001c 00000000 		.word	iq
 699              		.cfi_endproc
 700              	.LFE154:
 701              		.size	thread1, .-thread1
 702              		.section	.rodata
 703              		.align	2
 704              	.LC8:
 705 0000 41424344 		.ascii	"ABCD\000"
 705      00
 706              		.section	.text.queues1_execute,"ax",%progbits
 707              		.align	1
 708              		.p2align 4,,15
 709              		.syntax unified
 710              		.code	16
 711              		.thumb_func
 712              		.fpu softvfp
 713              		.type	queues1_execute, %function
 714              	queues1_execute:
 715              	.LFB155:
 716              		.loc 6 89 0
 717              		.cfi_startproc
 718              		@ args = 0, pretend = 0, frame = 8
 719              		@ frame_needed = 0, uses_anonymous_args = 0
 720 0000 10B5     		push	{r4, lr}
 721              		.cfi_def_cfa_offset 8
 722              		.cfi_offset 4, -8
 723              		.cfi_offset 14, -4
 724 0002 84B0     		sub	sp, sp, #16
 725              		.cfi_def_cfa_offset 24
 726              		.loc 6 94 0
 727 0004 FFF7FEFF 		bl	chSysLock
 728 0008 B64B     		ldr	r3, .L71
 729 000a 1800     		movs	r0, r3
 730 000c FFF7FEFF 		bl	chIQIsEmptyI
 731 0010 0300     		movs	r3, r0
 732 0012 1900     		movs	r1, r3
 733 0014 0120     		movs	r0, #1
 734 0016 FFF7FEFF 		bl	_test_assert
 735 001a 031E     		subs	r3, r0, #0
 736 001c 02D0     		beq	.L46
 737              		.loc 6 94 0 is_stmt 0 discriminator 1
 738 001e FFF7FEFF 		bl	chSysUnlock
 739 0022 5CE1     		b	.L45
 740              	.L46:
ARM GAS  /tmp/ccL53n49.s 			page 14


 741              		.loc 6 94 0 discriminator 2
 742 0024 FFF7FEFF 		bl	chSysUnlock
 743              		.loc 6 97 0 is_stmt 1 discriminator 2
 744 0028 FFF7FEFF 		bl	chSysLock
 745              		.loc 6 98 0 discriminator 2
 746 002c 0023     		movs	r3, #0
 747 002e 0393     		str	r3, [sp, #12]
 748 0030 0BE0     		b	.L48
 749              	.L49:
 750              		.loc 6 99 0 discriminator 3
 751 0032 039B     		ldr	r3, [sp, #12]
 752 0034 DBB2     		uxtb	r3, r3
 753 0036 4133     		adds	r3, r3, #65
 754 0038 DAB2     		uxtb	r2, r3
 755 003a AA4B     		ldr	r3, .L71
 756 003c 1100     		movs	r1, r2
 757 003e 1800     		movs	r0, r3
 758 0040 FFF7FEFF 		bl	chIQPutI
 759              		.loc 6 98 0 discriminator 3
 760 0044 039B     		ldr	r3, [sp, #12]
 761 0046 0133     		adds	r3, r3, #1
 762 0048 0393     		str	r3, [sp, #12]
 763              	.L48:
 764              		.loc 6 98 0 is_stmt 0 discriminator 1
 765 004a 039B     		ldr	r3, [sp, #12]
 766 004c 032B     		cmp	r3, #3
 767 004e F0D9     		bls	.L49
 768              		.loc 6 100 0 is_stmt 1
 769 0050 FFF7FEFF 		bl	chSysUnlock
 770              		.loc 6 101 0
 771 0054 FFF7FEFF 		bl	chSysLock
 772 0058 A24B     		ldr	r3, .L71
 773 005a 1800     		movs	r0, r3
 774 005c FFF7FEFF 		bl	chIQIsFullI
 775 0060 0300     		movs	r3, r0
 776 0062 1900     		movs	r1, r3
 777 0064 0220     		movs	r0, #2
 778 0066 FFF7FEFF 		bl	_test_assert
 779 006a 031E     		subs	r3, r0, #0
 780 006c 02D0     		beq	.L50
 781              		.loc 6 101 0 is_stmt 0 discriminator 1
 782 006e FFF7FEFF 		bl	chSysUnlock
 783 0072 34E1     		b	.L45
 784              	.L50:
 785              		.loc 6 101 0 discriminator 2
 786 0074 FFF7FEFF 		bl	chSysUnlock
 787              		.loc 6 102 0 is_stmt 1 discriminator 2
 788 0078 FFF7FEFF 		bl	chSysLock
 789 007c 994B     		ldr	r3, .L71
 790 007e 0021     		movs	r1, #0
 791 0080 1800     		movs	r0, r3
 792 0082 FFF7FEFF 		bl	chIQPutI
 793 0086 0300     		movs	r3, r0
 794 0088 0433     		adds	r3, r3, #4
 795 008a 5A42     		rsbs	r2, r3, #0
 796 008c 5341     		adcs	r3, r3, r2
 797 008e DBB2     		uxtb	r3, r3
ARM GAS  /tmp/ccL53n49.s 			page 15


 798 0090 1900     		movs	r1, r3
 799 0092 0320     		movs	r0, #3
 800 0094 FFF7FEFF 		bl	_test_assert
 801 0098 031E     		subs	r3, r0, #0
 802 009a 02D0     		beq	.L51
 803              		.loc 6 102 0 is_stmt 0 discriminator 1
 804 009c FFF7FEFF 		bl	chSysUnlock
 805 00a0 1DE1     		b	.L45
 806              	.L51:
 807              		.loc 6 102 0 discriminator 2
 808 00a2 FFF7FEFF 		bl	chSysUnlock
 809              		.loc 6 105 0 is_stmt 1 discriminator 2
 810 00a6 0023     		movs	r3, #0
 811 00a8 0393     		str	r3, [sp, #12]
 812 00aa 0BE0     		b	.L52
 813              	.L53:
 814              		.loc 6 106 0 discriminator 3
 815 00ac 8D4B     		ldr	r3, .L71
 816 00ae 1800     		movs	r0, r3
 817 00b0 FFF7FEFF 		bl	chIQGet
 818 00b4 0300     		movs	r3, r0
 819 00b6 DBB2     		uxtb	r3, r3
 820 00b8 1800     		movs	r0, r3
 821 00ba FFF7FEFF 		bl	test_emit_token
 822              		.loc 6 105 0 discriminator 3
 823 00be 039B     		ldr	r3, [sp, #12]
 824 00c0 0133     		adds	r3, r3, #1
 825 00c2 0393     		str	r3, [sp, #12]
 826              	.L52:
 827              		.loc 6 105 0 is_stmt 0 discriminator 1
 828 00c4 039B     		ldr	r3, [sp, #12]
 829 00c6 032B     		cmp	r3, #3
 830 00c8 F0D9     		bls	.L53
 831              		.loc 6 107 0 is_stmt 1
 832 00ca FFF7FEFF 		bl	chSysLock
 833 00ce 854B     		ldr	r3, .L71
 834 00d0 1800     		movs	r0, r3
 835 00d2 FFF7FEFF 		bl	chIQIsEmptyI
 836 00d6 0300     		movs	r3, r0
 837 00d8 1900     		movs	r1, r3
 838 00da 0420     		movs	r0, #4
 839 00dc FFF7FEFF 		bl	_test_assert
 840 00e0 031E     		subs	r3, r0, #0
 841 00e2 02D0     		beq	.L54
 842              		.loc 6 107 0 is_stmt 0 discriminator 1
 843 00e4 FFF7FEFF 		bl	chSysUnlock
 844 00e8 F9E0     		b	.L45
 845              	.L54:
 846              		.loc 6 107 0 discriminator 2
 847 00ea FFF7FEFF 		bl	chSysUnlock
 848              		.loc 6 108 0 is_stmt 1 discriminator 2
 849 00ee 7E4B     		ldr	r3, .L71+4
 850 00f0 1900     		movs	r1, r3
 851 00f2 0520     		movs	r0, #5
 852 00f4 FFF7FEFF 		bl	_test_assert_sequence
 853 00f8 031E     		subs	r3, r0, #0
 854 00fa 00D0     		beq	.LCB592
ARM GAS  /tmp/ccL53n49.s 			page 16


 855 00fc E8E0     		b	.L67	@long jump
 856              	.LCB592:
 857              		.loc 6 111 0
 858 00fe FFF7FEFF 		bl	chSysLock
 859              		.loc 6 112 0
 860 0102 0023     		movs	r3, #0
 861 0104 0393     		str	r3, [sp, #12]
 862 0106 0BE0     		b	.L56
 863              	.L57:
 864              		.loc 6 113 0 discriminator 3
 865 0108 039B     		ldr	r3, [sp, #12]
 866 010a DBB2     		uxtb	r3, r3
 867 010c 4133     		adds	r3, r3, #65
 868 010e DAB2     		uxtb	r2, r3
 869 0110 744B     		ldr	r3, .L71
 870 0112 1100     		movs	r1, r2
 871 0114 1800     		movs	r0, r3
 872 0116 FFF7FEFF 		bl	chIQPutI
 873              		.loc 6 112 0 discriminator 3
 874 011a 039B     		ldr	r3, [sp, #12]
 875 011c 0133     		adds	r3, r3, #1
 876 011e 0393     		str	r3, [sp, #12]
 877              	.L56:
 878              		.loc 6 112 0 is_stmt 0 discriminator 1
 879 0120 039B     		ldr	r3, [sp, #12]
 880 0122 032B     		cmp	r3, #3
 881 0124 F0D9     		bls	.L57
 882              		.loc 6 114 0 is_stmt 1
 883 0126 FFF7FEFF 		bl	chSysUnlock
 884              		.loc 6 117 0
 885 012a 704B     		ldr	r3, .L71+8
 886 012c 5968     		ldr	r1, [r3, #4]
 887 012e 6D48     		ldr	r0, .L71
 888 0130 0023     		movs	r3, #0
 889 0132 0822     		movs	r2, #8
 890 0134 FFF7FEFF 		bl	chIQReadTimeout
 891 0138 0300     		movs	r3, r0
 892 013a 0293     		str	r3, [sp, #8]
 893              		.loc 6 118 0
 894 013c 029B     		ldr	r3, [sp, #8]
 895 013e 043B     		subs	r3, r3, #4
 896 0140 5A42     		rsbs	r2, r3, #0
 897 0142 5341     		adcs	r3, r3, r2
 898 0144 DBB2     		uxtb	r3, r3
 899 0146 1900     		movs	r1, r3
 900 0148 0620     		movs	r0, #6
 901 014a FFF7FEFF 		bl	_test_assert
 902 014e 031E     		subs	r3, r0, #0
 903 0150 00D0     		beq	.LCB634
 904 0152 BFE0     		b	.L68	@long jump
 905              	.LCB634:
 906              		.loc 6 119 0
 907 0154 FFF7FEFF 		bl	chSysLock
 908 0158 624B     		ldr	r3, .L71
 909 015a 1800     		movs	r0, r3
 910 015c FFF7FEFF 		bl	chIQIsEmptyI
 911 0160 0300     		movs	r3, r0
ARM GAS  /tmp/ccL53n49.s 			page 17


 912 0162 1900     		movs	r1, r3
 913 0164 0720     		movs	r0, #7
 914 0166 FFF7FEFF 		bl	_test_assert
 915 016a 031E     		subs	r3, r0, #0
 916 016c 02D0     		beq	.L59
 917              		.loc 6 119 0 is_stmt 0 discriminator 1
 918 016e FFF7FEFF 		bl	chSysUnlock
 919 0172 B4E0     		b	.L45
 920              	.L59:
 921              		.loc 6 119 0 discriminator 2
 922 0174 FFF7FEFF 		bl	chSysUnlock
 923              		.loc 6 122 0 is_stmt 1 discriminator 2
 924 0178 FFF7FEFF 		bl	chSysLock
 925              		.loc 6 123 0 discriminator 2
 926 017c 0023     		movs	r3, #0
 927 017e 0393     		str	r3, [sp, #12]
 928 0180 0BE0     		b	.L60
 929              	.L61:
 930              		.loc 6 124 0 discriminator 3
 931 0182 039B     		ldr	r3, [sp, #12]
 932 0184 DBB2     		uxtb	r3, r3
 933 0186 4133     		adds	r3, r3, #65
 934 0188 DAB2     		uxtb	r2, r3
 935 018a 564B     		ldr	r3, .L71
 936 018c 1100     		movs	r1, r2
 937 018e 1800     		movs	r0, r3
 938 0190 FFF7FEFF 		bl	chIQPutI
 939              		.loc 6 123 0 discriminator 3
 940 0194 039B     		ldr	r3, [sp, #12]
 941 0196 0133     		adds	r3, r3, #1
 942 0198 0393     		str	r3, [sp, #12]
 943              	.L60:
 944              		.loc 6 123 0 is_stmt 0 discriminator 1
 945 019a 039B     		ldr	r3, [sp, #12]
 946 019c 032B     		cmp	r3, #3
 947 019e F0D9     		bls	.L61
 948              		.loc 6 125 0 is_stmt 1
 949 01a0 FFF7FEFF 		bl	chSysUnlock
 950              		.loc 6 128 0
 951 01a4 514B     		ldr	r3, .L71+8
 952 01a6 5968     		ldr	r1, [r3, #4]
 953 01a8 4E48     		ldr	r0, .L71
 954 01aa 0023     		movs	r3, #0
 955 01ac 0222     		movs	r2, #2
 956 01ae FFF7FEFF 		bl	chIQReadTimeout
 957 01b2 0300     		movs	r3, r0
 958 01b4 0293     		str	r3, [sp, #8]
 959              		.loc 6 129 0
 960 01b6 029B     		ldr	r3, [sp, #8]
 961 01b8 023B     		subs	r3, r3, #2
 962 01ba 5A42     		rsbs	r2, r3, #0
 963 01bc 5341     		adcs	r3, r3, r2
 964 01be DBB2     		uxtb	r3, r3
 965 01c0 1900     		movs	r1, r3
 966 01c2 0820     		movs	r0, #8
 967 01c4 FFF7FEFF 		bl	_test_assert
 968 01c8 031E     		subs	r3, r0, #0
ARM GAS  /tmp/ccL53n49.s 			page 18


 969 01ca 00D0     		beq	.LCB693
 970 01cc 84E0     		b	.L69	@long jump
 971              	.LCB693:
 972              		.loc 6 130 0
 973 01ce 474B     		ldr	r3, .L71+8
 974 01d0 5968     		ldr	r1, [r3, #4]
 975 01d2 4448     		ldr	r0, .L71
 976 01d4 0023     		movs	r3, #0
 977 01d6 0222     		movs	r2, #2
 978 01d8 FFF7FEFF 		bl	chIQReadTimeout
 979 01dc 0300     		movs	r3, r0
 980 01de 0293     		str	r3, [sp, #8]
 981              		.loc 6 131 0
 982 01e0 029B     		ldr	r3, [sp, #8]
 983 01e2 023B     		subs	r3, r3, #2
 984 01e4 5A42     		rsbs	r2, r3, #0
 985 01e6 5341     		adcs	r3, r3, r2
 986 01e8 DBB2     		uxtb	r3, r3
 987 01ea 1900     		movs	r1, r3
 988 01ec 0920     		movs	r0, #9
 989 01ee FFF7FEFF 		bl	_test_assert
 990 01f2 031E     		subs	r3, r0, #0
 991 01f4 00D0     		beq	.LCB711
 992 01f6 71E0     		b	.L70	@long jump
 993              	.LCB711:
 994              		.loc 6 132 0
 995 01f8 FFF7FEFF 		bl	chSysLock
 996 01fc 394B     		ldr	r3, .L71
 997 01fe 1800     		movs	r0, r3
 998 0200 FFF7FEFF 		bl	chIQIsEmptyI
 999 0204 0300     		movs	r3, r0
 1000 0206 1900     		movs	r1, r3
 1001 0208 0A20     		movs	r0, #10
 1002 020a FFF7FEFF 		bl	_test_assert
 1003 020e 031E     		subs	r3, r0, #0
 1004 0210 02D0     		beq	.L64
 1005              		.loc 6 132 0 is_stmt 0 discriminator 1
 1006 0212 FFF7FEFF 		bl	chSysUnlock
 1007 0216 62E0     		b	.L45
 1008              	.L64:
 1009              		.loc 6 132 0 discriminator 2
 1010 0218 FFF7FEFF 		bl	chSysUnlock
 1011              		.loc 6 135 0 is_stmt 1 discriminator 2
 1012 021c FFF7FEFF 		bl	chSysLock
 1013              		.loc 6 136 0 discriminator 2
 1014 0220 304B     		ldr	r3, .L71
 1015 0222 0021     		movs	r1, #0
 1016 0224 1800     		movs	r0, r3
 1017 0226 FFF7FEFF 		bl	chIQPutI
 1018              		.loc 6 137 0 discriminator 2
 1019 022a 2E4B     		ldr	r3, .L71
 1020 022c 1800     		movs	r0, r3
 1021 022e FFF7FEFF 		bl	chIQResetI
 1022              		.loc 6 138 0 discriminator 2
 1023 0232 FFF7FEFF 		bl	chSysUnlock
 1024              		.loc 6 139 0 discriminator 2
 1025 0236 FFF7FEFF 		bl	chSysLock
ARM GAS  /tmp/ccL53n49.s 			page 19


 1026 023a 2A4B     		ldr	r3, .L71
 1027 023c 1800     		movs	r0, r3
 1028 023e FFF7FEFF 		bl	chIQGetFullI
 1029 0242 0300     		movs	r3, r0
 1030 0244 5A42     		rsbs	r2, r3, #0
 1031 0246 5341     		adcs	r3, r3, r2
 1032 0248 DBB2     		uxtb	r3, r3
 1033 024a 1900     		movs	r1, r3
 1034 024c 0B20     		movs	r0, #11
 1035 024e FFF7FEFF 		bl	_test_assert
 1036 0252 031E     		subs	r3, r0, #0
 1037 0254 02D0     		beq	.L65
 1038              		.loc 6 139 0 is_stmt 0 discriminator 1
 1039 0256 FFF7FEFF 		bl	chSysUnlock
 1040 025a 40E0     		b	.L45
 1041              	.L65:
 1042              		.loc 6 139 0 discriminator 2
 1043 025c FFF7FEFF 		bl	chSysUnlock
 1044              		.loc 6 140 0 is_stmt 1 discriminator 2
 1045 0260 224B     		ldr	r3, .L71+8
 1046 0262 1C68     		ldr	r4, [r3]
 1047 0264 FFF7FEFF 		bl	chThdGetPriorityX
 1048 0268 0300     		movs	r3, r0
 1049 026a 5A1C     		adds	r2, r3, #1
 1050 026c 2048     		ldr	r0, .L71+12
 1051 026e A823     		movs	r3, #168
 1052 0270 5900     		lsls	r1, r3, #1
 1053 0272 0023     		movs	r3, #0
 1054 0274 0093     		str	r3, [sp]
 1055 0276 0300     		movs	r3, r0
 1056 0278 2000     		movs	r0, r4
 1057 027a FFF7FEFF 		bl	chThdCreateStatic
 1058 027e 0200     		movs	r2, r0
 1059 0280 1C4B     		ldr	r3, .L71+16
 1060 0282 1A60     		str	r2, [r3]
 1061              		.loc 6 141 0 discriminator 2
 1062 0284 FFF7FEFF 		bl	chSysLock
 1063 0288 164B     		ldr	r3, .L71
 1064 028a 1800     		movs	r0, r3
 1065 028c FFF7FEFF 		bl	chIQGetFullI
 1066 0290 0300     		movs	r3, r0
 1067 0292 5A42     		rsbs	r2, r3, #0
 1068 0294 5341     		adcs	r3, r3, r2
 1069 0296 DBB2     		uxtb	r3, r3
 1070 0298 1900     		movs	r1, r3
 1071 029a 0C20     		movs	r0, #12
 1072 029c FFF7FEFF 		bl	_test_assert
 1073 02a0 031E     		subs	r3, r0, #0
 1074 02a2 02D0     		beq	.L66
 1075              		.loc 6 141 0 is_stmt 0 discriminator 1
 1076 02a4 FFF7FEFF 		bl	chSysUnlock
 1077 02a8 19E0     		b	.L45
 1078              	.L66:
 1079              		.loc 6 141 0 discriminator 2
 1080 02aa FFF7FEFF 		bl	chSysUnlock
 1081              		.loc 6 142 0 is_stmt 1 discriminator 2
 1082 02ae FFF7FEFF 		bl	test_wait_threads
ARM GAS  /tmp/ccL53n49.s 			page 20


 1083              		.loc 6 145 0 discriminator 2
 1084 02b2 0C4B     		ldr	r3, .L71
 1085 02b4 0A21     		movs	r1, #10
 1086 02b6 1800     		movs	r0, r3
 1087 02b8 FFF7FEFF 		bl	chIQGetTimeout
 1088 02bc 0300     		movs	r3, r0
 1089 02be 0133     		adds	r3, r3, #1
 1090 02c0 5A42     		rsbs	r2, r3, #0
 1091 02c2 5341     		adcs	r3, r3, r2
 1092 02c4 DBB2     		uxtb	r3, r3
 1093 02c6 1900     		movs	r1, r3
 1094 02c8 0D20     		movs	r0, #13
 1095 02ca FFF7FEFF 		bl	_test_assert
 1096 02ce 06E0     		b	.L45
 1097              	.L67:
 1098              		.loc 6 108 0
 1099 02d0 C046     		nop
 1100 02d2 04E0     		b	.L45
 1101              	.L68:
 1102              		.loc 6 118 0
 1103 02d4 C046     		nop
 1104 02d6 02E0     		b	.L45
 1105              	.L69:
 1106              		.loc 6 129 0
 1107 02d8 C046     		nop
 1108 02da 00E0     		b	.L45
 1109              	.L70:
 1110              		.loc 6 131 0
 1111 02dc C046     		nop
 1112              	.L45:
 1113              		.loc 6 146 0
 1114 02de 04B0     		add	sp, sp, #16
 1115              		@ sp needed
 1116 02e0 10BD     		pop	{r4, pc}
 1117              	.L72:
 1118 02e2 C046     		.align	2
 1119              	.L71:
 1120 02e4 00000000 		.word	iq
 1121 02e8 00000000 		.word	.LC8
 1122 02ec 00000000 		.word	wa
 1123 02f0 00000000 		.word	thread1
 1124 02f4 00000000 		.word	threads
 1125              		.cfi_endproc
 1126              	.LFE155:
 1127              		.size	queues1_execute, .-queues1_execute
 1128              		.global	testqueues1
 1129              		.section	.rodata
 1130 0005 000000   		.align	2
 1131              	.LC13:
 1132 0008 51756575 		.ascii	"Queues, input queues\000"
 1132      65732C20 
 1132      696E7075 
 1132      74207175 
 1132      65756573 
 1133              		.section	.rodata.testqueues1,"a",%progbits
 1134              		.align	2
 1135              		.type	testqueues1, %object
ARM GAS  /tmp/ccL53n49.s 			page 21


 1136              		.size	testqueues1, 16
 1137              	testqueues1:
 1138 0000 08000000 		.word	.LC13
 1139 0004 00000000 		.word	queues1_setup
 1140 0008 00000000 		.word	0
 1141 000c 00000000 		.word	queues1_execute
 1142              		.section	.text.queues2_setup,"ax",%progbits
 1143              		.align	1
 1144              		.p2align 4,,15
 1145              		.syntax unified
 1146              		.code	16
 1147              		.thumb_func
 1148              		.fpu softvfp
 1149              		.type	queues2_setup, %function
 1150              	queues2_setup:
 1151              	.LFB156:
 1152              		.loc 6 164 0
 1153              		.cfi_startproc
 1154              		@ args = 0, pretend = 0, frame = 0
 1155              		@ frame_needed = 0, uses_anonymous_args = 0
 1156 0000 00B5     		push	{lr}
 1157              		.cfi_def_cfa_offset 4
 1158              		.cfi_offset 14, -4
 1159 0002 83B0     		sub	sp, sp, #12
 1160              		.cfi_def_cfa_offset 16
 1161              		.loc 6 166 0
 1162 0004 064B     		ldr	r3, .L74
 1163 0006 1968     		ldr	r1, [r3]
 1164 0008 064A     		ldr	r2, .L74+4
 1165 000a 0748     		ldr	r0, .L74+8
 1166 000c 0023     		movs	r3, #0
 1167 000e 0093     		str	r3, [sp]
 1168 0010 1300     		movs	r3, r2
 1169 0012 0422     		movs	r2, #4
 1170 0014 FFF7FEFF 		bl	chOQObjectInit
 1171              		.loc 6 167 0
 1172 0018 C046     		nop
 1173 001a 03B0     		add	sp, sp, #12
 1174              		@ sp needed
 1175 001c 00BD     		pop	{pc}
 1176              	.L75:
 1177 001e C046     		.align	2
 1178              	.L74:
 1179 0020 00000000 		.word	wa
 1180 0024 00000000 		.word	notify
 1181 0028 00000000 		.word	oq
 1182              		.cfi_endproc
 1183              	.LFE156:
 1184              		.size	queues2_setup, .-queues2_setup
 1185              		.section	.text.thread2,"ax",%progbits
 1186              		.align	1
 1187              		.p2align 4,,15
 1188              		.syntax unified
 1189              		.code	16
 1190              		.thumb_func
 1191              		.fpu softvfp
 1192              		.type	thread2, %function
ARM GAS  /tmp/ccL53n49.s 			page 22


 1193              	thread2:
 1194              	.LFB157:
 1195              		.loc 6 169 0
 1196              		.cfi_startproc
 1197              		@ args = 0, pretend = 0, frame = 8
 1198              		@ frame_needed = 0, uses_anonymous_args = 0
 1199 0000 00B5     		push	{lr}
 1200              		.cfi_def_cfa_offset 4
 1201              		.cfi_offset 14, -4
 1202 0002 83B0     		sub	sp, sp, #12
 1203              		.cfi_def_cfa_offset 16
 1204 0004 0190     		str	r0, [sp, #4]
 1205              		.loc 6 172 0
 1206 0006 FA23     		movs	r3, #250
 1207 0008 DA00     		lsls	r2, r3, #3
 1208 000a 044B     		ldr	r3, .L77
 1209 000c 0021     		movs	r1, #0
 1210 000e 1800     		movs	r0, r3
 1211 0010 FFF7FEFF 		bl	chOQPutTimeout
 1212              		.loc 6 173 0
 1213 0014 C046     		nop
 1214 0016 03B0     		add	sp, sp, #12
 1215              		@ sp needed
 1216 0018 00BD     		pop	{pc}
 1217              	.L78:
 1218 001a C046     		.align	2
 1219              	.L77:
 1220 001c 00000000 		.word	oq
 1221              		.cfi_endproc
 1222              	.LFE157:
 1223              		.size	thread2, .-thread2
 1224              		.section	.text.queues2_execute,"ax",%progbits
 1225              		.align	1
 1226              		.p2align 4,,15
 1227              		.syntax unified
 1228              		.code	16
 1229              		.thumb_func
 1230              		.fpu softvfp
 1231              		.type	queues2_execute, %function
 1232              	queues2_execute:
 1233              	.LFB158:
 1234              		.loc 6 175 0
 1235              		.cfi_startproc
 1236              		@ args = 0, pretend = 0, frame = 16
 1237              		@ frame_needed = 0, uses_anonymous_args = 0
 1238 0000 10B5     		push	{r4, lr}
 1239              		.cfi_def_cfa_offset 8
 1240              		.cfi_offset 4, -8
 1241              		.cfi_offset 14, -4
 1242 0002 86B0     		sub	sp, sp, #24
 1243              		.cfi_def_cfa_offset 32
 1244              		.loc 6 180 0
 1245 0004 FFF7FEFF 		bl	chSysLock
 1246 0008 9F4B     		ldr	r3, .L101
 1247 000a 1800     		movs	r0, r3
 1248 000c FFF7FEFF 		bl	chOQIsEmptyI
 1249 0010 0300     		movs	r3, r0
ARM GAS  /tmp/ccL53n49.s 			page 23


 1250 0012 1900     		movs	r1, r3
 1251 0014 0120     		movs	r0, #1
 1252 0016 FFF7FEFF 		bl	_test_assert
 1253 001a 031E     		subs	r3, r0, #0
 1254 001c 02D0     		beq	.L80
 1255              		.loc 6 180 0 is_stmt 0 discriminator 1
 1256 001e FFF7FEFF 		bl	chSysUnlock
 1257 0022 2FE1     		b	.L79
 1258              	.L80:
 1259              		.loc 6 180 0 discriminator 2
 1260 0024 FFF7FEFF 		bl	chSysUnlock
 1261              		.loc 6 183 0 is_stmt 1 discriminator 2
 1262 0028 0023     		movs	r3, #0
 1263 002a 0593     		str	r3, [sp, #20]
 1264 002c 0BE0     		b	.L82
 1265              	.L83:
 1266              		.loc 6 184 0 discriminator 3
 1267 002e 059B     		ldr	r3, [sp, #20]
 1268 0030 DBB2     		uxtb	r3, r3
 1269 0032 4133     		adds	r3, r3, #65
 1270 0034 DAB2     		uxtb	r2, r3
 1271 0036 944B     		ldr	r3, .L101
 1272 0038 1100     		movs	r1, r2
 1273 003a 1800     		movs	r0, r3
 1274 003c FFF7FEFF 		bl	chOQPut
 1275              		.loc 6 183 0 discriminator 3
 1276 0040 059B     		ldr	r3, [sp, #20]
 1277 0042 0133     		adds	r3, r3, #1
 1278 0044 0593     		str	r3, [sp, #20]
 1279              	.L82:
 1280              		.loc 6 183 0 is_stmt 0 discriminator 1
 1281 0046 059B     		ldr	r3, [sp, #20]
 1282 0048 032B     		cmp	r3, #3
 1283 004a F0D9     		bls	.L83
 1284              		.loc 6 185 0 is_stmt 1
 1285 004c FFF7FEFF 		bl	chSysLock
 1286 0050 8D4B     		ldr	r3, .L101
 1287 0052 1800     		movs	r0, r3
 1288 0054 FFF7FEFF 		bl	chOQIsFullI
 1289 0058 0300     		movs	r3, r0
 1290 005a 1900     		movs	r1, r3
 1291 005c 0220     		movs	r0, #2
 1292 005e FFF7FEFF 		bl	_test_assert
 1293 0062 031E     		subs	r3, r0, #0
 1294 0064 02D0     		beq	.L84
 1295              		.loc 6 185 0 is_stmt 0 discriminator 1
 1296 0066 FFF7FEFF 		bl	chSysUnlock
 1297 006a 0BE1     		b	.L79
 1298              	.L84:
 1299              		.loc 6 185 0 discriminator 2
 1300 006c FFF7FEFF 		bl	chSysUnlock
 1301              		.loc 6 188 0 is_stmt 1 discriminator 2
 1302 0070 0023     		movs	r3, #0
 1303 0072 0593     		str	r3, [sp, #20]
 1304 0074 14E0     		b	.L85
 1305              	.L86:
 1306              	.LBB10:
ARM GAS  /tmp/ccL53n49.s 			page 24


 1307              		.loc 6 191 0 discriminator 3
 1308 0076 FFF7FEFF 		bl	chSysLock
 1309              		.loc 6 192 0 discriminator 3
 1310 007a 834B     		ldr	r3, .L101
 1311 007c 1800     		movs	r0, r3
 1312 007e FFF7FEFF 		bl	chOQGetI
 1313 0082 0200     		movs	r2, r0
 1314 0084 1323     		movs	r3, #19
 1315 0086 6B44     		add	r3, r3, sp
 1316 0088 1A70     		strb	r2, [r3]
 1317              		.loc 6 193 0 discriminator 3
 1318 008a FFF7FEFF 		bl	chSysUnlock
 1319              		.loc 6 194 0 discriminator 3
 1320 008e 1323     		movs	r3, #19
 1321 0090 6B44     		add	r3, r3, sp
 1322 0092 1B78     		ldrb	r3, [r3]
 1323 0094 1800     		movs	r0, r3
 1324 0096 FFF7FEFF 		bl	test_emit_token
 1325              	.LBE10:
 1326              		.loc 6 188 0 discriminator 3
 1327 009a 059B     		ldr	r3, [sp, #20]
 1328 009c 0133     		adds	r3, r3, #1
 1329 009e 0593     		str	r3, [sp, #20]
 1330              	.L85:
 1331              		.loc 6 188 0 is_stmt 0 discriminator 1
 1332 00a0 059B     		ldr	r3, [sp, #20]
 1333 00a2 032B     		cmp	r3, #3
 1334 00a4 E7D9     		bls	.L86
 1335              		.loc 6 196 0 is_stmt 1
 1336 00a6 FFF7FEFF 		bl	chSysLock
 1337 00aa 774B     		ldr	r3, .L101
 1338 00ac 1800     		movs	r0, r3
 1339 00ae FFF7FEFF 		bl	chOQIsEmptyI
 1340 00b2 0300     		movs	r3, r0
 1341 00b4 1900     		movs	r1, r3
 1342 00b6 0320     		movs	r0, #3
 1343 00b8 FFF7FEFF 		bl	_test_assert
 1344 00bc 031E     		subs	r3, r0, #0
 1345 00be 02D0     		beq	.L87
 1346              		.loc 6 196 0 is_stmt 0 discriminator 1
 1347 00c0 FFF7FEFF 		bl	chSysUnlock
 1348 00c4 DEE0     		b	.L79
 1349              	.L87:
 1350              		.loc 6 196 0 discriminator 2
 1351 00c6 FFF7FEFF 		bl	chSysUnlock
 1352              		.loc 6 197 0 is_stmt 1 discriminator 2
 1353 00ca 704B     		ldr	r3, .L101+4
 1354 00cc 1900     		movs	r1, r3
 1355 00ce 0420     		movs	r0, #4
 1356 00d0 FFF7FEFF 		bl	_test_assert_sequence
 1357 00d4 031E     		subs	r3, r0, #0
 1358 00d6 00D0     		beq	.LCB1027
 1359 00d8 CDE0     		b	.L97	@long jump
 1360              	.LCB1027:
 1361              		.loc 6 198 0
 1362 00da FFF7FEFF 		bl	chSysLock
 1363 00de 6A4B     		ldr	r3, .L101
ARM GAS  /tmp/ccL53n49.s 			page 25


 1364 00e0 1800     		movs	r0, r3
 1365 00e2 FFF7FEFF 		bl	chOQGetI
 1366 00e6 0300     		movs	r3, r0
 1367 00e8 0333     		adds	r3, r3, #3
 1368 00ea 5A42     		rsbs	r2, r3, #0
 1369 00ec 5341     		adcs	r3, r3, r2
 1370 00ee DBB2     		uxtb	r3, r3
 1371 00f0 1900     		movs	r1, r3
 1372 00f2 0520     		movs	r0, #5
 1373 00f4 FFF7FEFF 		bl	_test_assert
 1374 00f8 031E     		subs	r3, r0, #0
 1375 00fa 02D0     		beq	.L89
 1376              		.loc 6 198 0 is_stmt 0 discriminator 1
 1377 00fc FFF7FEFF 		bl	chSysUnlock
 1378 0100 C0E0     		b	.L79
 1379              	.L89:
 1380              		.loc 6 198 0 discriminator 2
 1381 0102 FFF7FEFF 		bl	chSysUnlock
 1382              		.loc 6 201 0 is_stmt 1 discriminator 2
 1383 0106 624B     		ldr	r3, .L101+8
 1384 0108 5968     		ldr	r1, [r3, #4]
 1385 010a 5F48     		ldr	r0, .L101
 1386 010c 0023     		movs	r3, #0
 1387 010e 0822     		movs	r2, #8
 1388 0110 FFF7FEFF 		bl	chOQWriteTimeout
 1389 0114 0300     		movs	r3, r0
 1390 0116 0393     		str	r3, [sp, #12]
 1391              		.loc 6 202 0 discriminator 2
 1392 0118 039B     		ldr	r3, [sp, #12]
 1393 011a 043B     		subs	r3, r3, #4
 1394 011c 5A42     		rsbs	r2, r3, #0
 1395 011e 5341     		adcs	r3, r3, r2
 1396 0120 DBB2     		uxtb	r3, r3
 1397 0122 1900     		movs	r1, r3
 1398 0124 0620     		movs	r0, #6
 1399 0126 FFF7FEFF 		bl	_test_assert
 1400 012a 031E     		subs	r3, r0, #0
 1401 012c 00D0     		beq	.LCB1065
 1402 012e A4E0     		b	.L98	@long jump
 1403              	.LCB1065:
 1404              		.loc 6 203 0
 1405 0130 FFF7FEFF 		bl	chSysLock
 1406 0134 544B     		ldr	r3, .L101
 1407 0136 1800     		movs	r0, r3
 1408 0138 FFF7FEFF 		bl	chOQIsFullI
 1409 013c 0300     		movs	r3, r0
 1410 013e 1900     		movs	r1, r3
 1411 0140 0720     		movs	r0, #7
 1412 0142 FFF7FEFF 		bl	_test_assert
 1413 0146 031E     		subs	r3, r0, #0
 1414 0148 02D0     		beq	.L91
 1415              		.loc 6 203 0 is_stmt 0 discriminator 1
 1416 014a FFF7FEFF 		bl	chSysUnlock
 1417 014e 99E0     		b	.L79
 1418              	.L91:
 1419              		.loc 6 203 0 discriminator 2
 1420 0150 FFF7FEFF 		bl	chSysUnlock
ARM GAS  /tmp/ccL53n49.s 			page 26


 1421              		.loc 6 204 0 is_stmt 1 discriminator 2
 1422 0154 4E4B     		ldr	r3, .L101+8
 1423 0156 1C68     		ldr	r4, [r3]
 1424 0158 FFF7FEFF 		bl	chThdGetPriorityX
 1425 015c 0300     		movs	r3, r0
 1426 015e 5A1C     		adds	r2, r3, #1
 1427 0160 4C48     		ldr	r0, .L101+12
 1428 0162 A823     		movs	r3, #168
 1429 0164 5900     		lsls	r1, r3, #1
 1430 0166 0023     		movs	r3, #0
 1431 0168 0093     		str	r3, [sp]
 1432 016a 0300     		movs	r3, r0
 1433 016c 2000     		movs	r0, r4
 1434 016e FFF7FEFF 		bl	chThdCreateStatic
 1435 0172 0200     		movs	r2, r0
 1436 0174 484B     		ldr	r3, .L101+16
 1437 0176 1A60     		str	r2, [r3]
 1438              		.loc 6 205 0 discriminator 2
 1439 0178 FFF7FEFF 		bl	chSysLock
 1440 017c 424B     		ldr	r3, .L101
 1441 017e 1800     		movs	r0, r3
 1442 0180 FFF7FEFF 		bl	chOQGetFullI
 1443 0184 0300     		movs	r3, r0
 1444 0186 043B     		subs	r3, r3, #4
 1445 0188 5A42     		rsbs	r2, r3, #0
 1446 018a 5341     		adcs	r3, r3, r2
 1447 018c DBB2     		uxtb	r3, r3
 1448 018e 1900     		movs	r1, r3
 1449 0190 0820     		movs	r0, #8
 1450 0192 FFF7FEFF 		bl	_test_assert
 1451 0196 031E     		subs	r3, r0, #0
 1452 0198 02D0     		beq	.L92
 1453              		.loc 6 205 0 is_stmt 0 discriminator 1
 1454 019a FFF7FEFF 		bl	chSysUnlock
 1455 019e 71E0     		b	.L79
 1456              	.L92:
 1457              		.loc 6 205 0 discriminator 2
 1458 01a0 FFF7FEFF 		bl	chSysUnlock
 1459              		.loc 6 206 0 is_stmt 1 discriminator 2
 1460 01a4 FFF7FEFF 		bl	test_wait_threads
 1461              		.loc 6 209 0 discriminator 2
 1462 01a8 FFF7FEFF 		bl	chSysLock
 1463              		.loc 6 210 0 discriminator 2
 1464 01ac 364B     		ldr	r3, .L101
 1465 01ae 1800     		movs	r0, r3
 1466 01b0 FFF7FEFF 		bl	chOQResetI
 1467              		.loc 6 211 0 discriminator 2
 1468 01b4 FFF7FEFF 		bl	chSysUnlock
 1469              		.loc 6 212 0 discriminator 2
 1470 01b8 FFF7FEFF 		bl	chSysLock
 1471 01bc 324B     		ldr	r3, .L101
 1472 01be 1800     		movs	r0, r3
 1473 01c0 FFF7FEFF 		bl	chOQGetFullI
 1474 01c4 0300     		movs	r3, r0
 1475 01c6 5A42     		rsbs	r2, r3, #0
 1476 01c8 5341     		adcs	r3, r3, r2
 1477 01ca DBB2     		uxtb	r3, r3
ARM GAS  /tmp/ccL53n49.s 			page 27


 1478 01cc 1900     		movs	r1, r3
 1479 01ce 0920     		movs	r0, #9
 1480 01d0 FFF7FEFF 		bl	_test_assert
 1481 01d4 031E     		subs	r3, r0, #0
 1482 01d6 02D0     		beq	.L93
 1483              		.loc 6 212 0 is_stmt 0 discriminator 1
 1484 01d8 FFF7FEFF 		bl	chSysUnlock
 1485 01dc 52E0     		b	.L79
 1486              	.L93:
 1487              		.loc 6 212 0 discriminator 2
 1488 01de FFF7FEFF 		bl	chSysUnlock
 1489              		.loc 6 215 0 is_stmt 1 discriminator 2
 1490 01e2 2B4B     		ldr	r3, .L101+8
 1491 01e4 5968     		ldr	r1, [r3, #4]
 1492 01e6 2848     		ldr	r0, .L101
 1493 01e8 0023     		movs	r3, #0
 1494 01ea 0222     		movs	r2, #2
 1495 01ec FFF7FEFF 		bl	chOQWriteTimeout
 1496 01f0 0300     		movs	r3, r0
 1497 01f2 0393     		str	r3, [sp, #12]
 1498              		.loc 6 216 0 discriminator 2
 1499 01f4 039B     		ldr	r3, [sp, #12]
 1500 01f6 023B     		subs	r3, r3, #2
 1501 01f8 5A42     		rsbs	r2, r3, #0
 1502 01fa 5341     		adcs	r3, r3, r2
 1503 01fc DBB2     		uxtb	r3, r3
 1504 01fe 1900     		movs	r1, r3
 1505 0200 0A20     		movs	r0, #10
 1506 0202 FFF7FEFF 		bl	_test_assert
 1507 0206 031E     		subs	r3, r0, #0
 1508 0208 39D1     		bne	.L99
 1509              		.loc 6 217 0
 1510 020a 214B     		ldr	r3, .L101+8
 1511 020c 5968     		ldr	r1, [r3, #4]
 1512 020e 1E48     		ldr	r0, .L101
 1513 0210 0023     		movs	r3, #0
 1514 0212 0222     		movs	r2, #2
 1515 0214 FFF7FEFF 		bl	chOQWriteTimeout
 1516 0218 0300     		movs	r3, r0
 1517 021a 0393     		str	r3, [sp, #12]
 1518              		.loc 6 218 0
 1519 021c 039B     		ldr	r3, [sp, #12]
 1520 021e 023B     		subs	r3, r3, #2
 1521 0220 5A42     		rsbs	r2, r3, #0
 1522 0222 5341     		adcs	r3, r3, r2
 1523 0224 DBB2     		uxtb	r3, r3
 1524 0226 1900     		movs	r1, r3
 1525 0228 0B20     		movs	r0, #11
 1526 022a FFF7FEFF 		bl	_test_assert
 1527 022e 031E     		subs	r3, r0, #0
 1528 0230 27D1     		bne	.L100
 1529              		.loc 6 219 0
 1530 0232 FFF7FEFF 		bl	chSysLock
 1531 0236 144B     		ldr	r3, .L101
 1532 0238 1800     		movs	r0, r3
 1533 023a FFF7FEFF 		bl	chOQIsFullI
 1534 023e 0300     		movs	r3, r0
ARM GAS  /tmp/ccL53n49.s 			page 28


 1535 0240 1900     		movs	r1, r3
 1536 0242 0C20     		movs	r0, #12
 1537 0244 FFF7FEFF 		bl	_test_assert
 1538 0248 031E     		subs	r3, r0, #0
 1539 024a 02D0     		beq	.L96
 1540              		.loc 6 219 0 is_stmt 0 discriminator 1
 1541 024c FFF7FEFF 		bl	chSysUnlock
 1542 0250 18E0     		b	.L79
 1543              	.L96:
 1544              		.loc 6 219 0 discriminator 2
 1545 0252 FFF7FEFF 		bl	chSysUnlock
 1546              		.loc 6 222 0 is_stmt 1 discriminator 2
 1547 0256 0C4B     		ldr	r3, .L101
 1548 0258 0A22     		movs	r2, #10
 1549 025a 0021     		movs	r1, #0
 1550 025c 1800     		movs	r0, r3
 1551 025e FFF7FEFF 		bl	chOQPutTimeout
 1552 0262 0300     		movs	r3, r0
 1553 0264 0133     		adds	r3, r3, #1
 1554 0266 5A42     		rsbs	r2, r3, #0
 1555 0268 5341     		adcs	r3, r3, r2
 1556 026a DBB2     		uxtb	r3, r3
 1557 026c 1900     		movs	r1, r3
 1558 026e 0D20     		movs	r0, #13
 1559 0270 FFF7FEFF 		bl	_test_assert
 1560 0274 06E0     		b	.L79
 1561              	.L97:
 1562              		.loc 6 197 0
 1563 0276 C046     		nop
 1564 0278 04E0     		b	.L79
 1565              	.L98:
 1566              		.loc 6 202 0
 1567 027a C046     		nop
 1568 027c 02E0     		b	.L79
 1569              	.L99:
 1570              		.loc 6 216 0
 1571 027e C046     		nop
 1572 0280 00E0     		b	.L79
 1573              	.L100:
 1574              		.loc 6 218 0
 1575 0282 C046     		nop
 1576              	.L79:
 1577              		.loc 6 223 0
 1578 0284 06B0     		add	sp, sp, #24
 1579              		@ sp needed
 1580 0286 10BD     		pop	{r4, pc}
 1581              	.L102:
 1582              		.align	2
 1583              	.L101:
 1584 0288 00000000 		.word	oq
 1585 028c 00000000 		.word	.LC8
 1586 0290 00000000 		.word	wa
 1587 0294 00000000 		.word	thread2
 1588 0298 00000000 		.word	threads
 1589              		.cfi_endproc
 1590              	.LFE158:
 1591              		.size	queues2_execute, .-queues2_execute
ARM GAS  /tmp/ccL53n49.s 			page 29


 1592              		.global	testqueues2
 1593              		.section	.rodata
 1594 001d 000000   		.align	2
 1595              	.LC23:
 1596 0020 51756575 		.ascii	"Queues, output queues\000"
 1596      65732C20 
 1596      6F757470 
 1596      75742071 
 1596      75657565 
 1597              		.section	.rodata.testqueues2,"a",%progbits
 1598              		.align	2
 1599              		.type	testqueues2, %object
 1600              		.size	testqueues2, 16
 1601              	testqueues2:
 1602 0000 20000000 		.word	.LC23
 1603 0004 00000000 		.word	queues2_setup
 1604 0008 00000000 		.word	0
 1605 000c 00000000 		.word	queues2_execute
 1606              		.global	patternqueues
 1607              		.section	.rodata.patternqueues,"a",%progbits
 1608              		.align	2
 1609              		.type	patternqueues, %object
 1610              		.size	patternqueues, 12
 1611              	patternqueues:
 1612 0000 00000000 		.word	testqueues1
 1613 0004 00000000 		.word	testqueues2
 1614 0008 00000000 		.word	0
 1615              		.section	.rodata.__func__.4993,"a",%progbits
 1616              		.align	2
 1617              		.type	__func__.4993, %object
 1618              		.size	__func__.4993, 12
 1619              	__func__.4993:
 1620 0000 63685379 		.ascii	"chSysUnlock\000"
 1620      73556E6C 
 1620      6F636B00 
 1621              		.text
 1622              	.Letext0:
 1623              		.file 7 "/home/felix/opt/gcc-arm-none-eabi-6-2017-q1-update/lib/gcc/arm-none-eabi/6.3.1/include/st
 1624              		.file 8 "/home/felix/opt/gcc-arm-none-eabi-6-2017-q1-update/arm-none-eabi/include/machine/_default
 1625              		.file 9 "/home/felix/opt/gcc-arm-none-eabi-6-2017-q1-update/arm-none-eabi/include/sys/_stdint.h"
 1626              		.file 10 "ChibiOS/os/rt/ports/ARMCMx/compilers/GCC/chtypes.h"
 1627              		.file 11 "ChibiOS/os/rt/include/chsystypes.h"
 1628              		.file 12 "ChibiOS/os/rt/include/chschd.h"
 1629              		.file 13 "ChibiOS/os/rt/ports/ARMCMx/chcore.h"
 1630              		.file 14 "ChibiOS/os/rt/include/chdebug.h"
 1631              		.file 15 "ChibiOS/os/rt/include/chsem.h"
 1632              		.file 16 "ChibiOS/os/rt/include/chmtx.h"
 1633              		.file 17 "ChibiOS/os/rt/include/chregistry.h"
 1634              		.file 18 "ChibiOS/os/ext/CMSIS/ST/STM32F0xx/system_stm32f0xx.h"
 1635              		.file 19 "ChibiOS/test/rt/test.h"