ARM GAS  /tmp/ccBBWsqH.s 			page 1


   1              		.cpu cortex-m0
   2              		.eabi_attribute 20, 1
   3              		.eabi_attribute 21, 1
   4              		.eabi_attribute 23, 3
   5              		.eabi_attribute 24, 1
   6              		.eabi_attribute 25, 1
   7              		.eabi_attribute 26, 1
   8              		.eabi_attribute 30, 6
   9              		.eabi_attribute 34, 0
  10              		.eabi_attribute 18, 4
  11              		.file	"testmsg.c"
  12              		.text
  13              	.Ltext0:
  14              		.cfi_sections	.debug_frame
  15              		.section	.text.chThdGetSelfX,"ax",%progbits
  16              		.align	1
  17              		.p2align 4,,15
  18              		.syntax unified
  19              		.code	16
  20              		.thumb_func
  21              		.fpu softvfp
  22              		.type	chThdGetSelfX, %function
  23              	chThdGetSelfX:
  24              	.LFB99:
  25              		.file 1 "ChibiOS/os/rt/include/chthreads.h"
  26              		.loc 1 174 0
  27              		.cfi_startproc
  28              		@ args = 0, pretend = 0, frame = 0
  29              		@ frame_needed = 0, uses_anonymous_args = 0
  30              		@ link register save eliminated.
  31              		.loc 1 176 0
  32 0000 014B     		ldr	r3, .L3
  33 0002 9B69     		ldr	r3, [r3, #24]
  34              		.loc 1 177 0
  35 0004 1800     		movs	r0, r3
  36              		@ sp needed
  37 0006 7047     		bx	lr
  38              	.L4:
  39              		.align	2
  40              	.L3:
  41 0008 00000000 		.word	ch
  42              		.cfi_endproc
  43              	.LFE99:
  44              		.size	chThdGetSelfX, .-chThdGetSelfX
  45              		.section	.text.chThdGetPriorityX,"ax",%progbits
  46              		.align	1
  47              		.p2align 4,,15
  48              		.syntax unified
  49              		.code	16
  50              		.thumb_func
  51              		.fpu softvfp
  52              		.type	chThdGetPriorityX, %function
  53              	chThdGetPriorityX:
  54              	.LFB100:
  55              		.loc 1 187 0
  56              		.cfi_startproc
  57              		@ args = 0, pretend = 0, frame = 0
ARM GAS  /tmp/ccBBWsqH.s 			page 2


  58              		@ frame_needed = 0, uses_anonymous_args = 0
  59 0000 10B5     		push	{r4, lr}
  60              		.cfi_def_cfa_offset 8
  61              		.cfi_offset 4, -8
  62              		.cfi_offset 14, -4
  63              		.loc 1 189 0
  64 0002 FFF7FEFF 		bl	chThdGetSelfX
  65 0006 0300     		movs	r3, r0
  66 0008 9B68     		ldr	r3, [r3, #8]
  67              		.loc 1 190 0
  68 000a 1800     		movs	r0, r3
  69              		@ sp needed
  70 000c 10BD     		pop	{r4, pc}
  71              		.cfi_endproc
  72              	.LFE100:
  73              		.size	chThdGetPriorityX, .-chThdGetPriorityX
  74 000e C046     		.section	.text.chMsgGet,"ax",%progbits
  75              		.align	1
  76              		.p2align 4,,15
  77              		.syntax unified
  78              		.code	16
  79              		.thumb_func
  80              		.fpu softvfp
  81              		.type	chMsgGet, %function
  82              	chMsgGet:
  83              	.LFB133:
  84              		.file 2 "ChibiOS/os/rt/include/chmsg.h"
  85              		.loc 2 96 0
  86              		.cfi_startproc
  87              		@ args = 0, pretend = 0, frame = 8
  88              		@ frame_needed = 0, uses_anonymous_args = 0
  89              		@ link register save eliminated.
  90 0000 82B0     		sub	sp, sp, #8
  91              		.cfi_def_cfa_offset 8
  92 0002 0190     		str	r0, [sp, #4]
  93              		.loc 2 98 0
  94 0004 019B     		ldr	r3, [sp, #4]
  95 0006 5B6B     		ldr	r3, [r3, #52]
  96              		.loc 2 99 0
  97 0008 1800     		movs	r0, r3
  98 000a 02B0     		add	sp, sp, #8
  99              		@ sp needed
 100 000c 7047     		bx	lr
 101              		.cfi_endproc
 102              	.LFE133:
 103              		.size	chMsgGet, .-chMsgGet
 104 000e C046     		.section	.text.thread,"ax",%progbits
 105              		.align	1
 106              		.p2align 4,,15
 107              		.syntax unified
 108              		.code	16
 109              		.thumb_func
 110              		.fpu softvfp
 111              		.type	thread, %function
 112              	thread:
 113              	.LFB152:
 114              		.file 3 "ChibiOS/test/rt/testmsg.c"
ARM GAS  /tmp/ccBBWsqH.s 			page 3


 115              		.loc 3 59 0
 116              		.cfi_startproc
 117              		@ args = 0, pretend = 0, frame = 8
 118              		@ frame_needed = 0, uses_anonymous_args = 0
 119 0000 00B5     		push	{lr}
 120              		.cfi_def_cfa_offset 4
 121              		.cfi_offset 14, -4
 122 0002 83B0     		sub	sp, sp, #12
 123              		.cfi_def_cfa_offset 16
 124 0004 0190     		str	r0, [sp, #4]
 125              		.loc 3 61 0
 126 0006 019B     		ldr	r3, [sp, #4]
 127 0008 4121     		movs	r1, #65
 128 000a 1800     		movs	r0, r3
 129 000c FFF7FEFF 		bl	chMsgSend
 130              		.loc 3 62 0
 131 0010 019B     		ldr	r3, [sp, #4]
 132 0012 4221     		movs	r1, #66
 133 0014 1800     		movs	r0, r3
 134 0016 FFF7FEFF 		bl	chMsgSend
 135              		.loc 3 63 0
 136 001a 019B     		ldr	r3, [sp, #4]
 137 001c 4321     		movs	r1, #67
 138 001e 1800     		movs	r0, r3
 139 0020 FFF7FEFF 		bl	chMsgSend
 140              		.loc 3 64 0
 141 0024 C046     		nop
 142 0026 03B0     		add	sp, sp, #12
 143              		@ sp needed
 144 0028 00BD     		pop	{pc}
 145              		.cfi_endproc
 146              	.LFE152:
 147              		.size	thread, .-thread
 148 002a C046     		.section	.rodata
 149              		.align	2
 150              	.LC4:
 151 0000 41424300 		.ascii	"ABC\000"
 152              		.section	.text.msg1_execute,"ax",%progbits
 153              		.align	1
 154              		.p2align 4,,15
 155              		.syntax unified
 156              		.code	16
 157              		.thumb_func
 158              		.fpu softvfp
 159              		.type	msg1_execute, %function
 160              	msg1_execute:
 161              	.LFB153:
 162              		.loc 3 66 0
 163              		.cfi_startproc
 164              		@ args = 0, pretend = 0, frame = 8
 165              		@ frame_needed = 0, uses_anonymous_args = 0
 166 0000 30B5     		push	{r4, r5, lr}
 167              		.cfi_def_cfa_offset 12
 168              		.cfi_offset 4, -12
 169              		.cfi_offset 5, -8
 170              		.cfi_offset 14, -4
 171 0002 85B0     		sub	sp, sp, #20
ARM GAS  /tmp/ccBBWsqH.s 			page 4


 172              		.cfi_def_cfa_offset 32
 173              		.loc 3 73 0
 174 0004 2C4B     		ldr	r3, .L12
 175 0006 1C68     		ldr	r4, [r3]
 176 0008 FFF7FEFF 		bl	chThdGetPriorityX
 177 000c 0300     		movs	r3, r0
 178 000e 5D1C     		adds	r5, r3, #1
 179              		.loc 3 74 0
 180 0010 FFF7FEFF 		bl	chThdGetSelfX
 181              		.loc 3 73 0
 182 0014 294A     		ldr	r2, .L12+4
 183 0016 A823     		movs	r3, #168
 184 0018 5900     		lsls	r1, r3, #1
 185 001a 0090     		str	r0, [sp]
 186 001c 1300     		movs	r3, r2
 187 001e 2A00     		movs	r2, r5
 188 0020 2000     		movs	r0, r4
 189 0022 FFF7FEFF 		bl	chThdCreateStatic
 190 0026 0200     		movs	r2, r0
 191 0028 254B     		ldr	r3, .L12+8
 192 002a 1A60     		str	r2, [r3]
 193              		.loc 3 75 0
 194 002c FFF7FEFF 		bl	chMsgWait
 195 0030 0300     		movs	r3, r0
 196 0032 0393     		str	r3, [sp, #12]
 197              		.loc 3 76 0
 198 0034 039B     		ldr	r3, [sp, #12]
 199 0036 1800     		movs	r0, r3
 200 0038 FFF7FEFF 		bl	chMsgGet
 201 003c 0300     		movs	r3, r0
 202 003e 0293     		str	r3, [sp, #8]
 203              		.loc 3 77 0
 204 0040 029A     		ldr	r2, [sp, #8]
 205 0042 039B     		ldr	r3, [sp, #12]
 206 0044 1100     		movs	r1, r2
 207 0046 1800     		movs	r0, r3
 208 0048 FFF7FEFF 		bl	chMsgRelease
 209              		.loc 3 78 0
 210 004c 029B     		ldr	r3, [sp, #8]
 211 004e DBB2     		uxtb	r3, r3
 212 0050 1800     		movs	r0, r3
 213 0052 FFF7FEFF 		bl	test_emit_token
 214              		.loc 3 79 0
 215 0056 FFF7FEFF 		bl	chMsgWait
 216 005a 0300     		movs	r3, r0
 217 005c 0393     		str	r3, [sp, #12]
 218              		.loc 3 80 0
 219 005e 039B     		ldr	r3, [sp, #12]
 220 0060 1800     		movs	r0, r3
 221 0062 FFF7FEFF 		bl	chMsgGet
 222 0066 0300     		movs	r3, r0
 223 0068 0293     		str	r3, [sp, #8]
 224              		.loc 3 81 0
 225 006a 029A     		ldr	r2, [sp, #8]
 226 006c 039B     		ldr	r3, [sp, #12]
 227 006e 1100     		movs	r1, r2
 228 0070 1800     		movs	r0, r3
ARM GAS  /tmp/ccBBWsqH.s 			page 5


 229 0072 FFF7FEFF 		bl	chMsgRelease
 230              		.loc 3 82 0
 231 0076 029B     		ldr	r3, [sp, #8]
 232 0078 DBB2     		uxtb	r3, r3
 233 007a 1800     		movs	r0, r3
 234 007c FFF7FEFF 		bl	test_emit_token
 235              		.loc 3 83 0
 236 0080 FFF7FEFF 		bl	chMsgWait
 237 0084 0300     		movs	r3, r0
 238 0086 0393     		str	r3, [sp, #12]
 239              		.loc 3 84 0
 240 0088 039B     		ldr	r3, [sp, #12]
 241 008a 1800     		movs	r0, r3
 242 008c FFF7FEFF 		bl	chMsgGet
 243 0090 0300     		movs	r3, r0
 244 0092 0293     		str	r3, [sp, #8]
 245              		.loc 3 85 0
 246 0094 029A     		ldr	r2, [sp, #8]
 247 0096 039B     		ldr	r3, [sp, #12]
 248 0098 1100     		movs	r1, r2
 249 009a 1800     		movs	r0, r3
 250 009c FFF7FEFF 		bl	chMsgRelease
 251              		.loc 3 86 0
 252 00a0 029B     		ldr	r3, [sp, #8]
 253 00a2 DBB2     		uxtb	r3, r3
 254 00a4 1800     		movs	r0, r3
 255 00a6 FFF7FEFF 		bl	test_emit_token
 256              		.loc 3 87 0
 257 00aa 064B     		ldr	r3, .L12+12
 258 00ac 1900     		movs	r1, r3
 259 00ae 0120     		movs	r0, #1
 260 00b0 FFF7FEFF 		bl	_test_assert_sequence
 261              		.loc 3 88 0
 262 00b4 05B0     		add	sp, sp, #20
 263              		@ sp needed
 264 00b6 30BD     		pop	{r4, r5, pc}
 265              	.L13:
 266              		.align	2
 267              	.L12:
 268 00b8 00000000 		.word	wa
 269 00bc 00000000 		.word	thread
 270 00c0 00000000 		.word	threads
 271 00c4 00000000 		.word	.LC4
 272              		.cfi_endproc
 273              	.LFE153:
 274              		.size	msg1_execute, .-msg1_execute
 275              		.global	testmsg1
 276              		.section	.rodata
 277              		.align	2
 278              	.LC6:
 279 0004 4D657373 		.ascii	"Messages, loop\000"
 279      61676573 
 279      2C206C6F 
 279      6F7000
 280              		.section	.rodata.testmsg1,"a",%progbits
 281              		.align	2
 282              		.type	testmsg1, %object
ARM GAS  /tmp/ccBBWsqH.s 			page 6


 283              		.size	testmsg1, 16
 284              	testmsg1:
 285 0000 04000000 		.word	.LC6
 286 0004 00000000 		.word	0
 287 0008 00000000 		.word	0
 288 000c 00000000 		.word	msg1_execute
 289              		.global	patternmsg
 290              		.section	.rodata.patternmsg,"a",%progbits
 291              		.align	2
 292              		.type	patternmsg, %object
 293              		.size	patternmsg, 8
 294              	patternmsg:
 295 0000 00000000 		.word	testmsg1
 296 0004 00000000 		.word	0
 297              		.text
 298              	.Letext0:
 299              		.file 4 "/home/felix/opt/gcc-arm-none-eabi-6-2017-q1-update/lib/gcc/arm-none-eabi/6.3.1/include/st
 300              		.file 5 "/home/felix/opt/gcc-arm-none-eabi-6-2017-q1-update/arm-none-eabi/include/machine/_default
 301              		.file 6 "/home/felix/opt/gcc-arm-none-eabi-6-2017-q1-update/arm-none-eabi/include/sys/_stdint.h"
 302              		.file 7 "ChibiOS/os/rt/ports/ARMCMx/compilers/GCC/chtypes.h"
 303              		.file 8 "ChibiOS/os/rt/include/chsystypes.h"
 304              		.file 9 "ChibiOS/os/rt/include/chschd.h"
 305              		.file 10 "ChibiOS/os/rt/ports/ARMCMx/chcore.h"
 306              		.file 11 "ChibiOS/os/rt/ports/ARMCMx/chcore_v6m.h"
 307              		.file 12 "ChibiOS/os/rt/include/chdebug.h"
 308              		.file 13 "ChibiOS/os/rt/include/chsem.h"
 309              		.file 14 "ChibiOS/os/rt/include/chmtx.h"
 310              		.file 15 "ChibiOS/os/rt/include/chregistry.h"
 311              		.file 16 "ChibiOS/os/ext/CMSIS/ST/STM32F0xx/system_stm32f0xx.h"
 312              		.file 17 "ChibiOS/test/rt/test.h"
 313              		.section	.debug_info,"",%progbits
 314              	.Ldebug_info0:
 315 0000 060A0000 		.4byte	0xa06
 316 0004 0400     		.2byte	0x4
 317 0006 00000000 		.4byte	.Ldebug_abbrev0
 318 000a 04       		.byte	0x4
 319 000b 01       		.uleb128 0x1
 320 000c 67020000 		.4byte	.LASF153
 321 0010 0C       		.byte	0xc
 322 0011 35070000 		.4byte	.LASF154
 323 0015 7D030000 		.4byte	.LASF155
 324 0019 00000000 		.4byte	.Ldebug_ranges0+0
 325 001d 00000000 		.4byte	0
 326 0021 00000000 		.4byte	.Ldebug_line0
 327 0025 02       		.uleb128 0x2
 328 0026 04       		.byte	0x4
 329 0027 05       		.byte	0x5
 330 0028 696E7400 		.ascii	"int\000"
 331 002c 03       		.uleb128 0x3
 332 002d 36020000 		.4byte	.LASF4
 333 0031 04       		.byte	0x4
 334 0032 D8       		.byte	0xd8
 335 0033 37000000 		.4byte	0x37
 336 0037 04       		.uleb128 0x4
 337 0038 04       		.byte	0x4
 338 0039 07       		.byte	0x7
 339 003a 8F000000 		.4byte	.LASF0
ARM GAS  /tmp/ccBBWsqH.s 			page 7


 340 003e 04       		.uleb128 0x4
 341 003f 08       		.byte	0x8
 342 0040 05       		.byte	0x5
 343 0041 55040000 		.4byte	.LASF1
 344 0045 04       		.uleb128 0x4
 345 0046 08       		.byte	0x8
 346 0047 04       		.byte	0x4
 347 0048 F0040000 		.4byte	.LASF2
 348 004c 04       		.uleb128 0x4
 349 004d 01       		.byte	0x1
 350 004e 06       		.byte	0x6
 351 004f D9060000 		.4byte	.LASF3
 352 0053 03       		.uleb128 0x3
 353 0054 C1050000 		.4byte	.LASF5
 354 0058 05       		.byte	0x5
 355 0059 2B       		.byte	0x2b
 356 005a 5E000000 		.4byte	0x5e
 357 005e 04       		.uleb128 0x4
 358 005f 01       		.byte	0x1
 359 0060 08       		.byte	0x8
 360 0061 5D060000 		.4byte	.LASF6
 361 0065 04       		.uleb128 0x4
 362 0066 02       		.byte	0x2
 363 0067 05       		.byte	0x5
 364 0068 35050000 		.4byte	.LASF7
 365 006c 03       		.uleb128 0x3
 366 006d E4010000 		.4byte	.LASF8
 367 0071 05       		.byte	0x5
 368 0072 39       		.byte	0x39
 369 0073 77000000 		.4byte	0x77
 370 0077 04       		.uleb128 0x4
 371 0078 02       		.byte	0x2
 372 0079 07       		.byte	0x7
 373 007a F2060000 		.4byte	.LASF9
 374 007e 03       		.uleb128 0x3
 375 007f AB000000 		.4byte	.LASF10
 376 0083 05       		.byte	0x5
 377 0084 4D       		.byte	0x4d
 378 0085 89000000 		.4byte	0x89
 379 0089 04       		.uleb128 0x4
 380 008a 04       		.byte	0x4
 381 008b 05       		.byte	0x5
 382 008c 5C050000 		.4byte	.LASF11
 383 0090 03       		.uleb128 0x3
 384 0091 71060000 		.4byte	.LASF12
 385 0095 05       		.byte	0x5
 386 0096 4F       		.byte	0x4f
 387 0097 9B000000 		.4byte	0x9b
 388 009b 04       		.uleb128 0x4
 389 009c 04       		.byte	0x4
 390 009d 07       		.byte	0x7
 391 009e F6050000 		.4byte	.LASF13
 392 00a2 03       		.uleb128 0x3
 393 00a3 47030000 		.4byte	.LASF14
 394 00a7 05       		.byte	0x5
 395 00a8 69       		.byte	0x69
 396 00a9 AD000000 		.4byte	0xad
ARM GAS  /tmp/ccBBWsqH.s 			page 8


 397 00ad 04       		.uleb128 0x4
 398 00ae 08       		.byte	0x8
 399 00af 07       		.byte	0x7
 400 00b0 A9010000 		.4byte	.LASF15
 401 00b4 03       		.uleb128 0x3
 402 00b5 FB030000 		.4byte	.LASF16
 403 00b9 06       		.byte	0x6
 404 00ba 18       		.byte	0x18
 405 00bb 53000000 		.4byte	0x53
 406 00bf 03       		.uleb128 0x3
 407 00c0 FC040000 		.4byte	.LASF17
 408 00c4 06       		.byte	0x6
 409 00c5 24       		.byte	0x24
 410 00c6 6C000000 		.4byte	0x6c
 411 00ca 03       		.uleb128 0x3
 412 00cb 2A060000 		.4byte	.LASF18
 413 00cf 06       		.byte	0x6
 414 00d0 2C       		.byte	0x2c
 415 00d1 7E000000 		.4byte	0x7e
 416 00d5 03       		.uleb128 0x3
 417 00d6 49010000 		.4byte	.LASF19
 418 00da 06       		.byte	0x6
 419 00db 30       		.byte	0x30
 420 00dc 90000000 		.4byte	0x90
 421 00e0 03       		.uleb128 0x3
 422 00e1 94050000 		.4byte	.LASF20
 423 00e5 06       		.byte	0x6
 424 00e6 3C       		.byte	0x3c
 425 00e7 A2000000 		.4byte	0xa2
 426 00eb 03       		.uleb128 0x3
 427 00ec D5040000 		.4byte	.LASF21
 428 00f0 07       		.byte	0x7
 429 00f1 3C       		.byte	0x3c
 430 00f2 B4000000 		.4byte	0xb4
 431 00f6 03       		.uleb128 0x3
 432 00f7 D1030000 		.4byte	.LASF22
 433 00fb 07       		.byte	0x7
 434 00fc 3D       		.byte	0x3d
 435 00fd B4000000 		.4byte	0xb4
 436 0101 03       		.uleb128 0x3
 437 0102 EE050000 		.4byte	.LASF23
 438 0106 07       		.byte	0x7
 439 0107 3E       		.byte	0x3e
 440 0108 B4000000 		.4byte	0xb4
 441 010c 03       		.uleb128 0x3
 442 010d 90010000 		.4byte	.LASF24
 443 0111 07       		.byte	0x7
 444 0112 40       		.byte	0x40
 445 0113 D5000000 		.4byte	0xd5
 446 0117 03       		.uleb128 0x3
 447 0118 73040000 		.4byte	.LASF25
 448 011c 07       		.byte	0x7
 449 011d 41       		.byte	0x41
 450 011e CA000000 		.4byte	0xca
 451 0122 03       		.uleb128 0x3
 452 0123 5E010000 		.4byte	.LASF26
 453 0127 07       		.byte	0x7
ARM GAS  /tmp/ccBBWsqH.s 			page 9


 454 0128 43       		.byte	0x43
 455 0129 D5000000 		.4byte	0xd5
 456 012d 03       		.uleb128 0x3
 457 012e EF010000 		.4byte	.LASF27
 458 0132 07       		.byte	0x7
 459 0133 45       		.byte	0x45
 460 0134 CA000000 		.4byte	0xca
 461 0138 03       		.uleb128 0x3
 462 0139 56000000 		.4byte	.LASF28
 463 013d 08       		.byte	0x8
 464 013e 35       		.byte	0x35
 465 013f BF000000 		.4byte	0xbf
 466 0143 03       		.uleb128 0x3
 467 0144 2D020000 		.4byte	.LASF29
 468 0148 08       		.byte	0x8
 469 0149 3F       		.byte	0x3f
 470 014a 4E010000 		.4byte	0x14e
 471 014e 05       		.uleb128 0x5
 472 014f 1F040000 		.4byte	.LASF50
 473 0153 48       		.byte	0x48
 474 0154 09       		.byte	0x9
 475 0155 C2       		.byte	0xc2
 476 0156 47020000 		.4byte	0x247
 477 015a 06       		.uleb128 0x6
 478 015b 8D050000 		.4byte	.LASF30
 479 015f 09       		.byte	0x9
 480 0160 C3       		.byte	0xc3
 481 0161 52020000 		.4byte	0x252
 482 0165 00       		.byte	0
 483 0166 06       		.uleb128 0x6
 484 0167 DE050000 		.4byte	.LASF31
 485 016b 09       		.byte	0x9
 486 016c C5       		.byte	0xc5
 487 016d 52020000 		.4byte	0x252
 488 0171 04       		.byte	0x4
 489 0172 06       		.uleb128 0x6
 490 0173 4F000000 		.4byte	.LASF32
 491 0177 09       		.byte	0x9
 492 0178 C7       		.byte	0xc7
 493 0179 0C010000 		.4byte	0x10c
 494 017d 08       		.byte	0x8
 495 017e 06       		.uleb128 0x6
 496 017f 9D050000 		.4byte	.LASF33
 497 0183 09       		.byte	0x9
 498 0184 C8       		.byte	0xc8
 499 0185 B0040000 		.4byte	0x4b0
 500 0189 0C       		.byte	0xc
 501 018a 06       		.uleb128 0x6
 502 018b 06020000 		.4byte	.LASF34
 503 018f 09       		.byte	0x9
 504 0190 CA       		.byte	0xca
 505 0191 52020000 		.4byte	0x252
 506 0195 10       		.byte	0x10
 507 0196 06       		.uleb128 0x6
 508 0197 E0030000 		.4byte	.LASF35
 509 019b 09       		.byte	0x9
 510 019c CB       		.byte	0xcb
ARM GAS  /tmp/ccBBWsqH.s 			page 10


 511 019d 52020000 		.4byte	0x252
 512 01a1 14       		.byte	0x14
 513 01a2 06       		.uleb128 0x6
 514 01a3 6D030000 		.4byte	.LASF36
 515 01a7 09       		.byte	0x9
 516 01a8 D2       		.byte	0xd2
 517 01a9 99060000 		.4byte	0x699
 518 01ad 18       		.byte	0x18
 519 01ae 06       		.uleb128 0x6
 520 01af F0030000 		.4byte	.LASF37
 521 01b3 09       		.byte	0x9
 522 01b4 D8       		.byte	0xd8
 523 01b5 B0060000 		.4byte	0x6b0
 524 01b9 1C       		.byte	0x1c
 525 01ba 06       		.uleb128 0x6
 526 01bb E8030000 		.4byte	.LASF38
 527 01bf 09       		.byte	0x9
 528 01c0 DD       		.byte	0xdd
 529 01c1 F6000000 		.4byte	0xf6
 530 01c5 20       		.byte	0x20
 531 01c6 06       		.uleb128 0x6
 532 01c7 8A040000 		.4byte	.LASF39
 533 01cb 09       		.byte	0x9
 534 01cc E1       		.byte	0xe1
 535 01cd EB000000 		.4byte	0xeb
 536 01d1 21       		.byte	0x21
 537 01d2 06       		.uleb128 0x6
 538 01d3 92060000 		.4byte	.LASF40
 539 01d7 09       		.byte	0x9
 540 01d8 E6       		.byte	0xe6
 541 01d9 01010000 		.4byte	0x101
 542 01dd 22       		.byte	0x22
 543 01de 07       		.uleb128 0x7
 544 01df 705F7500 		.ascii	"p_u\000"
 545 01e3 09       		.byte	0x9
 546 01e4 3101     		.2byte	0x131
 547 01e6 D4050000 		.4byte	0x5d4
 548 01ea 24       		.byte	0x24
 549 01eb 08       		.uleb128 0x8
 550 01ec 20000000 		.4byte	.LASF41
 551 01f0 09       		.byte	0x9
 552 01f1 3601     		.2byte	0x136
 553 01f3 58020000 		.4byte	0x258
 554 01f7 28       		.byte	0x28
 555 01f8 08       		.uleb128 0x8
 556 01f9 84000000 		.4byte	.LASF42
 557 01fd 09       		.byte	0x9
 558 01fe 3C01     		.2byte	0x13c
 559 0200 7C020000 		.4byte	0x27c
 560 0204 2C       		.byte	0x2c
 561 0205 08       		.uleb128 0x8
 562 0206 CF040000 		.4byte	.LASF43
 563 020a 09       		.byte	0x9
 564 020b 4001     		.2byte	0x140
 565 020d 17010000 		.4byte	0x117
 566 0211 34       		.byte	0x34
 567 0212 08       		.uleb128 0x8
ARM GAS  /tmp/ccBBWsqH.s 			page 11


 568 0213 49050000 		.4byte	.LASF44
 569 0217 09       		.byte	0x9
 570 0218 4601     		.2byte	0x146
 571 021a 22010000 		.4byte	0x122
 572 021e 38       		.byte	0x38
 573 021f 08       		.uleb128 0x8
 574 0220 15040000 		.4byte	.LASF45
 575 0224 09       		.byte	0x9
 576 0225 4D01     		.2byte	0x14d
 577 0227 93060000 		.4byte	0x693
 578 022b 3C       		.byte	0x3c
 579 022c 08       		.uleb128 0x8
 580 022d 1F050000 		.4byte	.LASF46
 581 0231 09       		.byte	0x9
 582 0232 5101     		.2byte	0x151
 583 0234 0C010000 		.4byte	0x10c
 584 0238 40       		.byte	0x40
 585 0239 08       		.uleb128 0x8
 586 023a 0D040000 		.4byte	.LASF47
 587 023e 09       		.byte	0x9
 588 023f 5801     		.2byte	0x158
 589 0241 2F030000 		.4byte	0x32f
 590 0245 44       		.byte	0x44
 591 0246 00       		.byte	0
 592 0247 03       		.uleb128 0x3
 593 0248 B2030000 		.4byte	.LASF48
 594 024c 08       		.byte	0x8
 595 024d 44       		.byte	0x44
 596 024e 52020000 		.4byte	0x252
 597 0252 09       		.uleb128 0x9
 598 0253 04       		.byte	0x4
 599 0254 43010000 		.4byte	0x143
 600 0258 03       		.uleb128 0x3
 601 0259 9C000000 		.4byte	.LASF49
 602 025d 08       		.byte	0x8
 603 025e 49       		.byte	0x49
 604 025f 63020000 		.4byte	0x263
 605 0263 05       		.uleb128 0x5
 606 0264 00000000 		.4byte	.LASF51
 607 0268 04       		.byte	0x4
 608 0269 09       		.byte	0x9
 609 026a B0       		.byte	0xb0
 610 026b 7C020000 		.4byte	0x27c
 611 026f 06       		.uleb128 0x6
 612 0270 8D050000 		.4byte	.LASF30
 613 0274 09       		.byte	0x9
 614 0275 B1       		.byte	0xb1
 615 0276 52020000 		.4byte	0x252
 616 027a 00       		.byte	0
 617 027b 00       		.byte	0
 618 027c 03       		.uleb128 0x3
 619 027d 10000000 		.4byte	.LASF52
 620 0281 08       		.byte	0x8
 621 0282 50       		.byte	0x50
 622 0283 87020000 		.4byte	0x287
 623 0287 05       		.uleb128 0x5
 624 0288 0E010000 		.4byte	.LASF53
ARM GAS  /tmp/ccBBWsqH.s 			page 12


 625 028c 08       		.byte	0x8
 626 028d 09       		.byte	0x9
 627 028e B7       		.byte	0xb7
 628 028f AC020000 		.4byte	0x2ac
 629 0293 06       		.uleb128 0x6
 630 0294 8D050000 		.4byte	.LASF30
 631 0298 09       		.byte	0x9
 632 0299 B8       		.byte	0xb8
 633 029a 52020000 		.4byte	0x252
 634 029e 00       		.byte	0
 635 029f 06       		.uleb128 0x6
 636 02a0 DE050000 		.4byte	.LASF31
 637 02a4 09       		.byte	0x9
 638 02a5 B9       		.byte	0xb9
 639 02a6 52020000 		.4byte	0x252
 640 02aa 04       		.byte	0x4
 641 02ab 00       		.byte	0
 642 02ac 03       		.uleb128 0x3
 643 02ad 15060000 		.4byte	.LASF54
 644 02b1 08       		.byte	0x8
 645 02b2 57       		.byte	0x57
 646 02b3 B7020000 		.4byte	0x2b7
 647 02b7 0A       		.uleb128 0xa
 648 02b8 DD000000 		.4byte	.LASF55
 649 02bc 1C       		.byte	0x1c
 650 02bd 09       		.byte	0x9
 651 02be 9001     		.2byte	0x190
 652 02c0 13030000 		.4byte	0x313
 653 02c4 08       		.uleb128 0x8
 654 02c5 63040000 		.4byte	.LASF56
 655 02c9 09       		.byte	0x9
 656 02ca 9101     		.2byte	0x191
 657 02cc 7C020000 		.4byte	0x27c
 658 02d0 00       		.byte	0
 659 02d1 08       		.uleb128 0x8
 660 02d2 6A010000 		.4byte	.LASF57
 661 02d6 09       		.byte	0x9
 662 02d7 9201     		.2byte	0x192
 663 02d9 0C010000 		.4byte	0x10c
 664 02dd 08       		.byte	0x8
 665 02de 08       		.uleb128 0x8
 666 02df 05070000 		.4byte	.LASF58
 667 02e3 09       		.byte	0x9
 668 02e4 9401     		.2byte	0x194
 669 02e6 B0040000 		.4byte	0x4b0
 670 02ea 0C       		.byte	0xc
 671 02eb 08       		.uleb128 0x8
 672 02ec 6B040000 		.4byte	.LASF59
 673 02f0 09       		.byte	0x9
 674 02f1 9701     		.2byte	0x197
 675 02f3 52020000 		.4byte	0x252
 676 02f7 10       		.byte	0x10
 677 02f8 08       		.uleb128 0x8
 678 02f9 BD040000 		.4byte	.LASF60
 679 02fd 09       		.byte	0x9
 680 02fe 9801     		.2byte	0x198
 681 0300 52020000 		.4byte	0x252
ARM GAS  /tmp/ccBBWsqH.s 			page 13


 682 0304 14       		.byte	0x14
 683 0305 08       		.uleb128 0x8
 684 0306 3F050000 		.4byte	.LASF61
 685 030a 09       		.byte	0x9
 686 030b 9B01     		.2byte	0x19b
 687 030d 52020000 		.4byte	0x252
 688 0311 18       		.byte	0x18
 689 0312 00       		.byte	0
 690 0313 03       		.uleb128 0x3
 691 0314 2A010000 		.4byte	.LASF62
 692 0318 08       		.byte	0x8
 693 0319 5C       		.byte	0x5c
 694 031a 1E030000 		.4byte	0x31e
 695 031e 09       		.uleb128 0x9
 696 031f 04       		.byte	0x4
 697 0320 24030000 		.4byte	0x324
 698 0324 0B       		.uleb128 0xb
 699 0325 2F030000 		.4byte	0x32f
 700 0329 0C       		.uleb128 0xc
 701 032a 2F030000 		.4byte	0x32f
 702 032e 00       		.byte	0
 703 032f 0D       		.uleb128 0xd
 704 0330 04       		.byte	0x4
 705 0331 0E       		.uleb128 0xe
 706 0332 2F030000 		.4byte	0x32f
 707 0336 03       		.uleb128 0x3
 708 0337 92040000 		.4byte	.LASF63
 709 033b 08       		.byte	0x8
 710 033c 61       		.byte	0x61
 711 033d 41030000 		.4byte	0x341
 712 0341 0A       		.uleb128 0xa
 713 0342 98010000 		.4byte	.LASF64
 714 0346 14       		.byte	0x14
 715 0347 09       		.byte	0x9
 716 0348 6B01     		.2byte	0x16b
 717 034a 90030000 		.4byte	0x390
 718 034e 08       		.uleb128 0x8
 719 034f A6060000 		.4byte	.LASF65
 720 0353 09       		.byte	0x9
 721 0354 6C01     		.2byte	0x16c
 722 0356 B6060000 		.4byte	0x6b6
 723 035a 00       		.byte	0
 724 035b 08       		.uleb128 0x8
 725 035c 4F070000 		.4byte	.LASF66
 726 0360 09       		.byte	0x9
 727 0361 6D01     		.2byte	0x16d
 728 0363 B6060000 		.4byte	0x6b6
 729 0367 04       		.byte	0x4
 730 0368 08       		.uleb128 0x8
 731 0369 74030000 		.4byte	.LASF67
 732 036d 09       		.byte	0x9
 733 036e 6E01     		.2byte	0x16e
 734 0370 38010000 		.4byte	0x138
 735 0374 08       		.byte	0x8
 736 0375 08       		.uleb128 0x8
 737 0376 2D070000 		.4byte	.LASF68
 738 037a 09       		.byte	0x9
ARM GAS  /tmp/ccBBWsqH.s 			page 14


 739 037b 6F01     		.2byte	0x16f
 740 037d 13030000 		.4byte	0x313
 741 0381 0C       		.byte	0xc
 742 0382 08       		.uleb128 0x8
 743 0383 71010000 		.4byte	.LASF69
 744 0387 09       		.byte	0x9
 745 0388 7101     		.2byte	0x171
 746 038a 2F030000 		.4byte	0x32f
 747 038e 10       		.byte	0x10
 748 038f 00       		.byte	0
 749 0390 03       		.uleb128 0x3
 750 0391 7C060000 		.4byte	.LASF70
 751 0395 08       		.byte	0x8
 752 0396 66       		.byte	0x66
 753 0397 9B030000 		.4byte	0x39b
 754 039b 0A       		.uleb128 0xa
 755 039c 0E020000 		.4byte	.LASF71
 756 03a0 0C       		.byte	0xc
 757 03a1 09       		.byte	0x9
 758 03a2 7B01     		.2byte	0x17b
 759 03a4 DD030000 		.4byte	0x3dd
 760 03a8 08       		.uleb128 0x8
 761 03a9 A6060000 		.4byte	.LASF65
 762 03ad 09       		.byte	0x9
 763 03ae 7C01     		.2byte	0x17c
 764 03b0 B6060000 		.4byte	0x6b6
 765 03b4 00       		.byte	0
 766 03b5 08       		.uleb128 0x8
 767 03b6 4F070000 		.4byte	.LASF66
 768 03ba 09       		.byte	0x9
 769 03bb 7E01     		.2byte	0x17e
 770 03bd B6060000 		.4byte	0x6b6
 771 03c1 04       		.byte	0x4
 772 03c2 08       		.uleb128 0x8
 773 03c3 74030000 		.4byte	.LASF67
 774 03c7 09       		.byte	0x9
 775 03c8 8001     		.2byte	0x180
 776 03ca 38010000 		.4byte	0x138
 777 03ce 08       		.byte	0x8
 778 03cf 08       		.uleb128 0x8
 779 03d0 C5030000 		.4byte	.LASF72
 780 03d4 09       		.byte	0x9
 781 03d5 8801     		.2byte	0x188
 782 03d7 38010000 		.4byte	0x138
 783 03db 0A       		.byte	0xa
 784 03dc 00       		.byte	0
 785 03dd 03       		.uleb128 0x3
 786 03de 46040000 		.4byte	.LASF73
 787 03e2 08       		.byte	0x8
 788 03e3 6B       		.byte	0x6b
 789 03e4 E8030000 		.4byte	0x3e8
 790 03e8 0F       		.uleb128 0xf
 791 03e9 39010000 		.4byte	.LASF74
 792 03ed 1404     		.2byte	0x414
 793 03ef 09       		.byte	0x9
 794 03f0 A201     		.2byte	0x1a2
 795 03f2 2B040000 		.4byte	0x42b
ARM GAS  /tmp/ccBBWsqH.s 			page 15


 796 03f6 08       		.uleb128 0x8
 797 03f7 C5040000 		.4byte	.LASF75
 798 03fb 09       		.byte	0x9
 799 03fc AA01     		.2byte	0x1aa
 800 03fe 9F060000 		.4byte	0x69f
 801 0402 00       		.byte	0
 802 0403 08       		.uleb128 0x8
 803 0404 FE010000 		.4byte	.LASF76
 804 0408 09       		.byte	0x9
 805 0409 AF01     		.2byte	0x1af
 806 040b 2D010000 		.4byte	0x12d
 807 040f 04       		.byte	0x4
 808 0410 08       		.uleb128 0x8
 809 0411 16050000 		.4byte	.LASF77
 810 0415 09       		.byte	0x9
 811 0416 B301     		.2byte	0x1b3
 812 0418 2D010000 		.4byte	0x12d
 813 041c 08       		.byte	0x8
 814 041d 08       		.uleb128 0x8
 815 041e 32060000 		.4byte	.LASF78
 816 0422 09       		.byte	0x9
 817 0423 B901     		.2byte	0x1b9
 818 0425 C9050000 		.4byte	0x5c9
 819 0429 0C       		.byte	0xc
 820 042a 00       		.byte	0
 821 042b 03       		.uleb128 0x3
 822 042c AE060000 		.4byte	.LASF79
 823 0430 08       		.byte	0x8
 824 0431 70       		.byte	0x70
 825 0432 36040000 		.4byte	0x436
 826 0436 0F       		.uleb128 0xf
 827 0437 83050000 		.4byte	.LASF80
 828 043b 6805     		.2byte	0x568
 829 043d 09       		.byte	0x9
 830 043e C201     		.2byte	0x1c2
 831 0440 88040000 		.4byte	0x488
 832 0444 08       		.uleb128 0x8
 833 0445 A3050000 		.4byte	.LASF81
 834 0449 09       		.byte	0x9
 835 044a C601     		.2byte	0x1c6
 836 044c AC020000 		.4byte	0x2ac
 837 0450 00       		.byte	0
 838 0451 08       		.uleb128 0x8
 839 0452 D6000000 		.4byte	.LASF82
 840 0456 09       		.byte	0x9
 841 0457 CA01     		.2byte	0x1ca
 842 0459 90030000 		.4byte	0x390
 843 045d 1C       		.byte	0x1c
 844 045e 07       		.uleb128 0x7
 845 045f 64626700 		.ascii	"dbg\000"
 846 0463 09       		.byte	0x9
 847 0464 CE01     		.2byte	0x1ce
 848 0466 DD030000 		.4byte	0x3dd
 849 046a 28       		.byte	0x28
 850 046b 10       		.uleb128 0x10
 851 046c E5040000 		.4byte	.LASF83
 852 0470 09       		.byte	0x9
ARM GAS  /tmp/ccBBWsqH.s 			page 16


 853 0471 D201     		.2byte	0x1d2
 854 0473 43010000 		.4byte	0x143
 855 0477 3C04     		.2byte	0x43c
 856 0479 10       		.uleb128 0x10
 857 047a EB000000 		.4byte	.LASF84
 858 047e 09       		.byte	0x9
 859 047f E301     		.2byte	0x1e3
 860 0481 BC060000 		.4byte	0x6bc
 861 0485 8804     		.2byte	0x488
 862 0487 00       		.byte	0
 863 0488 04       		.uleb128 0x4
 864 0489 04       		.byte	0x4
 865 048a 07       		.byte	0x7
 866 048b E5050000 		.4byte	.LASF85
 867 048f 11       		.uleb128 0x11
 868 0490 2A000000 		.4byte	.LASF114
 869 0494 10       		.byte	0x10
 870 0495 4C       		.byte	0x4c
 871 0496 D5000000 		.4byte	0xd5
 872 049a 03       		.uleb128 0x3
 873 049b 46000000 		.4byte	.LASF86
 874 049f 0A       		.byte	0xa
 875 04a0 65       		.byte	0x65
 876 04a1 2F030000 		.4byte	0x32f
 877 04a5 03       		.uleb128 0x3
 878 04a6 0B070000 		.4byte	.LASF87
 879 04aa 0A       		.byte	0xa
 880 04ab 6D       		.byte	0x6d
 881 04ac E0000000 		.4byte	0xe0
 882 04b0 05       		.uleb128 0x5
 883 04b1 79040000 		.4byte	.LASF88
 884 04b5 04       		.byte	0x4
 885 04b6 0A       		.byte	0xa
 886 04b7 89       		.byte	0x89
 887 04b8 C9040000 		.4byte	0x4c9
 888 04bc 12       		.uleb128 0x12
 889 04bd 72313300 		.ascii	"r13\000"
 890 04c1 0A       		.byte	0xa
 891 04c2 8A       		.byte	0x8a
 892 04c3 3B050000 		.4byte	0x53b
 893 04c7 00       		.byte	0
 894 04c8 00       		.byte	0
 895 04c9 05       		.uleb128 0x5
 896 04ca 65050000 		.4byte	.LASF89
 897 04ce 24       		.byte	0x24
 898 04cf 0B       		.byte	0xb
 899 04d0 A4       		.byte	0xa4
 900 04d1 3B050000 		.4byte	0x53b
 901 04d5 12       		.uleb128 0x12
 902 04d6 723800   		.ascii	"r8\000"
 903 04d9 0B       		.byte	0xb
 904 04da A5       		.byte	0xa5
 905 04db 9A040000 		.4byte	0x49a
 906 04df 00       		.byte	0
 907 04e0 12       		.uleb128 0x12
 908 04e1 723900   		.ascii	"r9\000"
 909 04e4 0B       		.byte	0xb
ARM GAS  /tmp/ccBBWsqH.s 			page 17


 910 04e5 A6       		.byte	0xa6
 911 04e6 9A040000 		.4byte	0x49a
 912 04ea 04       		.byte	0x4
 913 04eb 12       		.uleb128 0x12
 914 04ec 72313000 		.ascii	"r10\000"
 915 04f0 0B       		.byte	0xb
 916 04f1 A7       		.byte	0xa7
 917 04f2 9A040000 		.4byte	0x49a
 918 04f6 08       		.byte	0x8
 919 04f7 12       		.uleb128 0x12
 920 04f8 72313100 		.ascii	"r11\000"
 921 04fc 0B       		.byte	0xb
 922 04fd A8       		.byte	0xa8
 923 04fe 9A040000 		.4byte	0x49a
 924 0502 0C       		.byte	0xc
 925 0503 12       		.uleb128 0x12
 926 0504 723400   		.ascii	"r4\000"
 927 0507 0B       		.byte	0xb
 928 0508 A9       		.byte	0xa9
 929 0509 9A040000 		.4byte	0x49a
 930 050d 10       		.byte	0x10
 931 050e 12       		.uleb128 0x12
 932 050f 723500   		.ascii	"r5\000"
 933 0512 0B       		.byte	0xb
 934 0513 AA       		.byte	0xaa
 935 0514 9A040000 		.4byte	0x49a
 936 0518 14       		.byte	0x14
 937 0519 12       		.uleb128 0x12
 938 051a 723600   		.ascii	"r6\000"
 939 051d 0B       		.byte	0xb
 940 051e AB       		.byte	0xab
 941 051f 9A040000 		.4byte	0x49a
 942 0523 18       		.byte	0x18
 943 0524 12       		.uleb128 0x12
 944 0525 723700   		.ascii	"r7\000"
 945 0528 0B       		.byte	0xb
 946 0529 AC       		.byte	0xac
 947 052a 9A040000 		.4byte	0x49a
 948 052e 1C       		.byte	0x1c
 949 052f 12       		.uleb128 0x12
 950 0530 6C7200   		.ascii	"lr\000"
 951 0533 0B       		.byte	0xb
 952 0534 AD       		.byte	0xad
 953 0535 9A040000 		.4byte	0x49a
 954 0539 20       		.byte	0x20
 955 053a 00       		.byte	0
 956 053b 09       		.uleb128 0x9
 957 053c 04       		.byte	0x4
 958 053d C9040000 		.4byte	0x4c9
 959 0541 13       		.uleb128 0x13
 960 0542 10       		.byte	0x10
 961 0543 0C       		.byte	0xc
 962 0544 51       		.byte	0x51
 963 0545 7A050000 		.4byte	0x57a
 964 0549 06       		.uleb128 0x6
 965 054a 25020000 		.4byte	.LASF90
 966 054e 0C       		.byte	0xc
ARM GAS  /tmp/ccBBWsqH.s 			page 18


 967 054f 55       		.byte	0x55
 968 0550 38010000 		.4byte	0x138
 969 0554 00       		.byte	0
 970 0555 06       		.uleb128 0x6
 971 0556 DA030000 		.4byte	.LASF91
 972 055a 0C       		.byte	0xc
 973 055b 59       		.byte	0x59
 974 055c 52020000 		.4byte	0x252
 975 0560 04       		.byte	0x4
 976 0561 06       		.uleb128 0x6
 977 0562 C0010000 		.4byte	.LASF92
 978 0566 0C       		.byte	0xc
 979 0567 5D       		.byte	0x5d
 980 0568 2F030000 		.4byte	0x32f
 981 056c 08       		.byte	0x8
 982 056d 06       		.uleb128 0x6
 983 056e B5000000 		.4byte	.LASF93
 984 0572 0C       		.byte	0xc
 985 0573 61       		.byte	0x61
 986 0574 B4000000 		.4byte	0xb4
 987 0578 0C       		.byte	0xc
 988 0579 00       		.byte	0
 989 057a 03       		.uleb128 0x3
 990 057b 46060000 		.4byte	.LASF94
 991 057f 0C       		.byte	0xc
 992 0580 62       		.byte	0x62
 993 0581 41050000 		.4byte	0x541
 994 0585 14       		.uleb128 0x14
 995 0586 0804     		.2byte	0x408
 996 0588 0C       		.byte	0xc
 997 0589 67       		.byte	0x67
 998 058a B3050000 		.4byte	0x5b3
 999 058e 06       		.uleb128 0x6
 1000 058f 31040000 		.4byte	.LASF95
 1001 0593 0C       		.byte	0xc
 1002 0594 6B       		.byte	0x6b
 1003 0595 37000000 		.4byte	0x37
 1004 0599 00       		.byte	0
 1005 059a 06       		.uleb128 0x6
 1006 059b B6040000 		.4byte	.LASF96
 1007 059f 0C       		.byte	0xc
 1008 05a0 6F       		.byte	0x6f
 1009 05a1 B3050000 		.4byte	0x5b3
 1010 05a5 04       		.byte	0x4
 1011 05a6 06       		.uleb128 0x6
 1012 05a7 03040000 		.4byte	.LASF97
 1013 05ab 0C       		.byte	0xc
 1014 05ac 73       		.byte	0x73
 1015 05ad B9050000 		.4byte	0x5b9
 1016 05b1 08       		.byte	0x8
 1017 05b2 00       		.byte	0
 1018 05b3 09       		.uleb128 0x9
 1019 05b4 04       		.byte	0x4
 1020 05b5 7A050000 		.4byte	0x57a
 1021 05b9 15       		.uleb128 0x15
 1022 05ba 7A050000 		.4byte	0x57a
 1023 05be C9050000 		.4byte	0x5c9
ARM GAS  /tmp/ccBBWsqH.s 			page 19


 1024 05c2 16       		.uleb128 0x16
 1025 05c3 88040000 		.4byte	0x488
 1026 05c7 3F       		.byte	0x3f
 1027 05c8 00       		.byte	0
 1028 05c9 03       		.uleb128 0x3
 1029 05ca C0060000 		.4byte	.LASF98
 1030 05ce 0C       		.byte	0xc
 1031 05cf 74       		.byte	0x74
 1032 05d0 85050000 		.4byte	0x585
 1033 05d4 17       		.uleb128 0x17
 1034 05d5 04       		.byte	0x4
 1035 05d6 09       		.byte	0x9
 1036 05d7 FA       		.byte	0xfa
 1037 05d8 31060000 		.4byte	0x631
 1038 05dc 18       		.uleb128 0x18
 1039 05dd 3D020000 		.4byte	.LASF99
 1040 05e1 09       		.byte	0x9
 1041 05e2 0101     		.2byte	0x101
 1042 05e4 17010000 		.4byte	0x117
 1043 05e8 18       		.uleb128 0x18
 1044 05e9 67070000 		.4byte	.LASF100
 1045 05ed 09       		.byte	0x9
 1046 05ee 0801     		.2byte	0x108
 1047 05f0 17010000 		.4byte	0x117
 1048 05f4 18       		.uleb128 0x18
 1049 05f5 CF000000 		.4byte	.LASF101
 1050 05f9 09       		.byte	0x9
 1051 05fa 0F01     		.2byte	0x10f
 1052 05fc 2F030000 		.4byte	0x32f
 1053 0600 18       		.uleb128 0x18
 1054 0601 BA060000 		.4byte	.LASF102
 1055 0605 09       		.byte	0x9
 1056 0606 1601     		.2byte	0x116
 1057 0608 31060000 		.4byte	0x631
 1058 060c 18       		.uleb128 0x18
 1059 060d 3F060000 		.4byte	.LASF103
 1060 0611 09       		.byte	0x9
 1061 0612 1E01     		.2byte	0x11e
 1062 0614 5C060000 		.4byte	0x65c
 1063 0618 18       		.uleb128 0x18
 1064 0619 3A000000 		.4byte	.LASF104
 1065 061d 09       		.byte	0x9
 1066 061e 2701     		.2byte	0x127
 1067 0620 93060000 		.4byte	0x693
 1068 0624 18       		.uleb128 0x18
 1069 0625 FA000000 		.4byte	.LASF105
 1070 0629 09       		.byte	0x9
 1071 062a 2F01     		.2byte	0x12f
 1072 062c 22010000 		.4byte	0x122
 1073 0630 00       		.byte	0
 1074 0631 09       		.uleb128 0x9
 1075 0632 04       		.byte	0x4
 1076 0633 47020000 		.4byte	0x247
 1077 0637 05       		.uleb128 0x5
 1078 0638 83010000 		.4byte	.LASF106
 1079 063c 0C       		.byte	0xc
 1080 063d 0D       		.byte	0xd
ARM GAS  /tmp/ccBBWsqH.s 			page 20


 1081 063e 34       		.byte	0x34
 1082 063f 5C060000 		.4byte	0x65c
 1083 0643 06       		.uleb128 0x6
 1084 0644 7C000000 		.4byte	.LASF107
 1085 0648 0D       		.byte	0xd
 1086 0649 35       		.byte	0x35
 1087 064a 7C020000 		.4byte	0x27c
 1088 064e 00       		.byte	0
 1089 064f 06       		.uleb128 0x6
 1090 0650 33010000 		.4byte	.LASF108
 1091 0654 0D       		.byte	0xd
 1092 0655 37       		.byte	0x37
 1093 0656 2D010000 		.4byte	0x12d
 1094 065a 08       		.byte	0x8
 1095 065b 00       		.byte	0
 1096 065c 09       		.uleb128 0x9
 1097 065d 04       		.byte	0x4
 1098 065e 37060000 		.4byte	0x637
 1099 0662 05       		.uleb128 0x5
 1100 0663 3E030000 		.4byte	.LASF109
 1101 0667 10       		.byte	0x10
 1102 0668 0E       		.byte	0xe
 1103 0669 39       		.byte	0x39
 1104 066a 93060000 		.4byte	0x693
 1105 066e 06       		.uleb128 0x6
 1106 066f 54050000 		.4byte	.LASF110
 1107 0673 0E       		.byte	0xe
 1108 0674 3A       		.byte	0x3a
 1109 0675 7C020000 		.4byte	0x27c
 1110 0679 00       		.byte	0
 1111 067a 06       		.uleb128 0x6
 1112 067b 74000000 		.4byte	.LASF111
 1113 067f 0E       		.byte	0xe
 1114 0680 3C       		.byte	0x3c
 1115 0681 52020000 		.4byte	0x252
 1116 0685 08       		.byte	0x8
 1117 0686 06       		.uleb128 0x6
 1118 0687 D2060000 		.4byte	.LASF112
 1119 068b 0E       		.byte	0xe
 1120 068c 3E       		.byte	0x3e
 1121 068d EE070000 		.4byte	0x7ee
 1122 0691 0C       		.byte	0xc
 1123 0692 00       		.byte	0
 1124 0693 09       		.uleb128 0x9
 1125 0694 04       		.byte	0x4
 1126 0695 62060000 		.4byte	0x662
 1127 0699 09       		.uleb128 0x9
 1128 069a 04       		.byte	0x4
 1129 069b AB060000 		.4byte	0x6ab
 1130 069f 19       		.uleb128 0x19
 1131 06a0 99060000 		.4byte	0x699
 1132 06a4 04       		.uleb128 0x4
 1133 06a5 01       		.byte	0x1
 1134 06a6 08       		.byte	0x8
 1135 06a7 41000000 		.4byte	.LASF113
 1136 06ab 0E       		.uleb128 0xe
 1137 06ac A4060000 		.4byte	0x6a4
ARM GAS  /tmp/ccBBWsqH.s 			page 21


 1138 06b0 09       		.uleb128 0x9
 1139 06b1 04       		.byte	0x4
 1140 06b2 A5040000 		.4byte	0x4a5
 1141 06b6 09       		.uleb128 0x9
 1142 06b7 04       		.byte	0x4
 1143 06b8 36030000 		.4byte	0x336
 1144 06bc 15       		.uleb128 0x15
 1145 06bd A5040000 		.4byte	0x4a5
 1146 06c1 CC060000 		.4byte	0x6cc
 1147 06c5 16       		.uleb128 0x16
 1148 06c6 88040000 		.4byte	0x488
 1149 06ca 1B       		.byte	0x1b
 1150 06cb 00       		.byte	0
 1151 06cc 1A       		.uleb128 0x1a
 1152 06cd 636800   		.ascii	"ch\000"
 1153 06d0 09       		.byte	0x9
 1154 06d1 0902     		.2byte	0x209
 1155 06d3 2B040000 		.4byte	0x42b
 1156 06d7 13       		.uleb128 0x13
 1157 06d8 16       		.byte	0x16
 1158 06d9 0F       		.byte	0xf
 1159 06da 34       		.byte	0x34
 1160 06db B8070000 		.4byte	0x7b8
 1161 06df 06       		.uleb128 0x6
 1162 06e0 D0050000 		.4byte	.LASF115
 1163 06e4 0F       		.byte	0xf
 1164 06e5 35       		.byte	0x35
 1165 06e6 B8070000 		.4byte	0x7b8
 1166 06ea 00       		.byte	0
 1167 06eb 06       		.uleb128 0x6
 1168 06ec AE040000 		.4byte	.LASF116
 1169 06f0 0F       		.byte	0xf
 1170 06f1 36       		.byte	0x36
 1171 06f2 B4000000 		.4byte	0xb4
 1172 06f6 04       		.byte	0x4
 1173 06f7 06       		.uleb128 0x6
 1174 06f8 DD040000 		.4byte	.LASF117
 1175 06fc 0F       		.byte	0xf
 1176 06fd 37       		.byte	0x37
 1177 06fe B4000000 		.4byte	0xb4
 1178 0702 05       		.byte	0x5
 1179 0703 06       		.uleb128 0x6
 1180 0704 2A050000 		.4byte	.LASF118
 1181 0708 0F       		.byte	0xf
 1182 0709 38       		.byte	0x38
 1183 070a BF000000 		.4byte	0xbf
 1184 070e 06       		.byte	0x6
 1185 070f 06       		.uleb128 0x6
 1186 0710 1F010000 		.4byte	.LASF119
 1187 0714 0F       		.byte	0xf
 1188 0715 39       		.byte	0x39
 1189 0716 B4000000 		.4byte	0xb4
 1190 071a 08       		.byte	0x8
 1191 071b 06       		.uleb128 0x6
 1192 071c 52010000 		.4byte	.LASF120
 1193 0720 0F       		.byte	0xf
 1194 0721 3A       		.byte	0x3a
ARM GAS  /tmp/ccBBWsqH.s 			page 22


 1195 0722 B4000000 		.4byte	0xb4
 1196 0726 09       		.byte	0x9
 1197 0727 06       		.uleb128 0x6
 1198 0728 44020000 		.4byte	.LASF121
 1199 072c 0F       		.byte	0xf
 1200 072d 3B       		.byte	0x3b
 1201 072e B4000000 		.4byte	0xb4
 1202 0732 0A       		.byte	0xa
 1203 0733 06       		.uleb128 0x6
 1204 0734 B5050000 		.4byte	.LASF122
 1205 0738 0F       		.byte	0xf
 1206 0739 3C       		.byte	0x3c
 1207 073a B4000000 		.4byte	0xb4
 1208 073e 0B       		.byte	0xb
 1209 073f 06       		.uleb128 0x6
 1210 0740 52030000 		.4byte	.LASF123
 1211 0744 0F       		.byte	0xf
 1212 0745 3D       		.byte	0x3d
 1213 0746 B4000000 		.4byte	0xb4
 1214 074a 0C       		.byte	0xc
 1215 074b 06       		.uleb128 0x6
 1216 074c E5060000 		.4byte	.LASF124
 1217 0750 0F       		.byte	0xf
 1218 0751 3E       		.byte	0x3e
 1219 0752 B4000000 		.4byte	0xb4
 1220 0756 0D       		.byte	0xd
 1221 0757 06       		.uleb128 0x6
 1222 0758 67000000 		.4byte	.LASF125
 1223 075c 0F       		.byte	0xf
 1224 075d 3F       		.byte	0x3f
 1225 075e B4000000 		.4byte	0xb4
 1226 0762 0E       		.byte	0xe
 1227 0763 06       		.uleb128 0x6
 1228 0764 BE000000 		.4byte	.LASF126
 1229 0768 0F       		.byte	0xf
 1230 0769 40       		.byte	0x40
 1231 076a B4000000 		.4byte	0xb4
 1232 076e 0F       		.byte	0xf
 1233 076f 06       		.uleb128 0x6
 1234 0770 5D030000 		.4byte	.LASF127
 1235 0774 0F       		.byte	0xf
 1236 0775 41       		.byte	0x41
 1237 0776 B4000000 		.4byte	0xb4
 1238 077a 10       		.byte	0x10
 1239 077b 06       		.uleb128 0x6
 1240 077c 08060000 		.4byte	.LASF128
 1241 0780 0F       		.byte	0xf
 1242 0781 43       		.byte	0x43
 1243 0782 B4000000 		.4byte	0xb4
 1244 0786 11       		.byte	0x11
 1245 0787 06       		.uleb128 0x6
 1246 0788 01010000 		.4byte	.LASF129
 1247 078c 0F       		.byte	0xf
 1248 078d 44       		.byte	0x44
 1249 078e B4000000 		.4byte	0xb4
 1250 0792 12       		.byte	0x12
 1251 0793 06       		.uleb128 0x6
ARM GAS  /tmp/ccBBWsqH.s 			page 23


 1252 0794 A2040000 		.4byte	.LASF130
 1253 0798 0F       		.byte	0xf
 1254 0799 45       		.byte	0x45
 1255 079a B4000000 		.4byte	0xb4
 1256 079e 13       		.byte	0x13
 1257 079f 06       		.uleb128 0x6
 1258 07a0 52020000 		.4byte	.LASF131
 1259 07a4 0F       		.byte	0xf
 1260 07a5 46       		.byte	0x46
 1261 07a6 B4000000 		.4byte	0xb4
 1262 07aa 14       		.byte	0x14
 1263 07ab 06       		.uleb128 0x6
 1264 07ac A9050000 		.4byte	.LASF132
 1265 07b0 0F       		.byte	0xf
 1266 07b1 48       		.byte	0x48
 1267 07b2 B4000000 		.4byte	0xb4
 1268 07b6 15       		.byte	0x15
 1269 07b7 00       		.byte	0
 1270 07b8 15       		.uleb128 0x15
 1271 07b9 A4060000 		.4byte	0x6a4
 1272 07bd C8070000 		.4byte	0x7c8
 1273 07c1 16       		.uleb128 0x16
 1274 07c2 88040000 		.4byte	0x488
 1275 07c6 03       		.byte	0x3
 1276 07c7 00       		.byte	0
 1277 07c8 03       		.uleb128 0x3
 1278 07c9 05050000 		.4byte	.LASF133
 1279 07cd 0F       		.byte	0xf
 1280 07ce 49       		.byte	0x49
 1281 07cf D7060000 		.4byte	0x6d7
 1282 07d3 0E       		.uleb128 0xe
 1283 07d4 C8070000 		.4byte	0x7c8
 1284 07d8 11       		.uleb128 0x11
 1285 07d9 24070000 		.4byte	.LASF134
 1286 07dd 0F       		.byte	0xf
 1287 07de 6E       		.byte	0x6e
 1288 07df D3070000 		.4byte	0x7d3
 1289 07e3 03       		.uleb128 0x3
 1290 07e4 55060000 		.4byte	.LASF135
 1291 07e8 0E       		.byte	0xe
 1292 07e9 34       		.byte	0x34
 1293 07ea 62060000 		.4byte	0x662
 1294 07ee 09       		.uleb128 0x9
 1295 07ef 04       		.byte	0x4
 1296 07f0 E3070000 		.4byte	0x7e3
 1297 07f4 04       		.uleb128 0x4
 1298 07f5 01       		.byte	0x1
 1299 07f6 02       		.byte	0x2
 1300 07f7 61020000 		.4byte	.LASF136
 1301 07fb 05       		.uleb128 0x5
 1302 07fc F5010000 		.4byte	.LASF137
 1303 0800 10       		.byte	0x10
 1304 0801 11       		.byte	0x11
 1305 0802 3B       		.byte	0x3b
 1306 0803 38080000 		.4byte	0x838
 1307 0807 06       		.uleb128 0x6
 1308 0808 CB050000 		.4byte	.LASF138
ARM GAS  /tmp/ccBBWsqH.s 			page 24


 1309 080c 11       		.byte	0x11
 1310 080d 3C       		.byte	0x3c
 1311 080e 99060000 		.4byte	0x699
 1312 0812 00       		.byte	0
 1313 0813 06       		.uleb128 0x6
 1314 0814 6B060000 		.4byte	.LASF139
 1315 0818 11       		.byte	0x11
 1316 0819 3D       		.byte	0x3d
 1317 081a 3E080000 		.4byte	0x83e
 1318 081e 04       		.byte	0x4
 1319 081f 06       		.uleb128 0x6
 1320 0820 81040000 		.4byte	.LASF140
 1321 0824 11       		.byte	0x11
 1322 0825 3E       		.byte	0x3e
 1323 0826 3E080000 		.4byte	0x83e
 1324 082a 08       		.byte	0x8
 1325 082b 06       		.uleb128 0x6
 1326 082c 29040000 		.4byte	.LASF141
 1327 0830 11       		.byte	0x11
 1328 0831 3F       		.byte	0x3f
 1329 0832 3E080000 		.4byte	0x83e
 1330 0836 0C       		.byte	0xc
 1331 0837 00       		.byte	0
 1332 0838 0E       		.uleb128 0xe
 1333 0839 FB070000 		.4byte	0x7fb
 1334 083d 1B       		.uleb128 0x1b
 1335 083e 09       		.uleb128 0x9
 1336 083f 04       		.byte	0x4
 1337 0840 3D080000 		.4byte	0x83d
 1338 0844 14       		.uleb128 0x14
 1339 0845 9006     		.2byte	0x690
 1340 0847 11       		.byte	0x11
 1341 0848 44       		.byte	0x44
 1342 0849 89080000 		.4byte	0x889
 1343 084d 12       		.uleb128 0x12
 1344 084e 543000   		.ascii	"T0\000"
 1345 0851 11       		.byte	0x11
 1346 0852 45       		.byte	0x45
 1347 0853 89080000 		.4byte	0x889
 1348 0857 00       		.byte	0
 1349 0858 1C       		.uleb128 0x1c
 1350 0859 543100   		.ascii	"T1\000"
 1351 085c 11       		.byte	0x11
 1352 085d 46       		.byte	0x46
 1353 085e 89080000 		.4byte	0x889
 1354 0862 5001     		.2byte	0x150
 1355 0864 1C       		.uleb128 0x1c
 1356 0865 543200   		.ascii	"T2\000"
 1357 0868 11       		.byte	0x11
 1358 0869 47       		.byte	0x47
 1359 086a 89080000 		.4byte	0x889
 1360 086e A002     		.2byte	0x2a0
 1361 0870 1C       		.uleb128 0x1c
 1362 0871 543300   		.ascii	"T3\000"
 1363 0874 11       		.byte	0x11
 1364 0875 48       		.byte	0x48
 1365 0876 89080000 		.4byte	0x889
ARM GAS  /tmp/ccBBWsqH.s 			page 25


 1366 087a F003     		.2byte	0x3f0
 1367 087c 1C       		.uleb128 0x1c
 1368 087d 543400   		.ascii	"T4\000"
 1369 0880 11       		.byte	0x11
 1370 0881 49       		.byte	0x49
 1371 0882 89080000 		.4byte	0x889
 1372 0886 4005     		.2byte	0x540
 1373 0888 00       		.byte	0
 1374 0889 15       		.uleb128 0x15
 1375 088a A5040000 		.4byte	0x4a5
 1376 088e 99080000 		.4byte	0x899
 1377 0892 16       		.uleb128 0x16
 1378 0893 88040000 		.4byte	0x488
 1379 0897 29       		.byte	0x29
 1380 0898 00       		.byte	0
 1381 0899 1D       		.uleb128 0x1d
 1382 089a 99060000 		.4byte	.LASF156
 1383 089e 9006     		.2byte	0x690
 1384 08a0 11       		.byte	0x11
 1385 08a1 43       		.byte	0x43
 1386 08a2 BC080000 		.4byte	0x8bc
 1387 08a6 1E       		.uleb128 0x1e
 1388 08a7 776100   		.ascii	"wa\000"
 1389 08aa 11       		.byte	0x11
 1390 08ab 4A       		.byte	0x4a
 1391 08ac 44080000 		.4byte	0x844
 1392 08b0 1F       		.uleb128 0x1f
 1393 08b1 60000000 		.4byte	.LASF142
 1394 08b5 11       		.byte	0x11
 1395 08b6 4B       		.byte	0x4b
 1396 08b7 BC080000 		.4byte	0x8bc
 1397 08bb 00       		.byte	0
 1398 08bc 15       		.uleb128 0x15
 1399 08bd B4000000 		.4byte	0xb4
 1400 08c1 CD080000 		.4byte	0x8cd
 1401 08c5 20       		.uleb128 0x20
 1402 08c6 88040000 		.4byte	0x488
 1403 08ca 8F06     		.2byte	0x68f
 1404 08cc 00       		.byte	0
 1405 08cd 11       		.uleb128 0x11
 1406 08ce D3010000 		.4byte	.LASF143
 1407 08d2 11       		.byte	0x11
 1408 08d3 4F       		.byte	0x4f
 1409 08d4 F4070000 		.4byte	0x7f4
 1410 08d8 15       		.uleb128 0x15
 1411 08d9 52020000 		.4byte	0x252
 1412 08dd E8080000 		.4byte	0x8e8
 1413 08e1 16       		.uleb128 0x16
 1414 08e2 88040000 		.4byte	0x488
 1415 08e6 04       		.byte	0x4
 1416 08e7 00       		.byte	0
 1417 08e8 11       		.uleb128 0x11
 1418 08e9 22060000 		.4byte	.LASF144
 1419 08ed 11       		.byte	0x11
 1420 08ee A7       		.byte	0xa7
 1421 08ef D8080000 		.4byte	0x8d8
 1422 08f3 11       		.uleb128 0x11
ARM GAS  /tmp/ccBBWsqH.s 			page 26


 1423 08f4 CA000000 		.4byte	.LASF145
 1424 08f8 11       		.byte	0x11
 1425 08f9 A8       		.byte	0xa8
 1426 08fa 99080000 		.4byte	0x899
 1427 08fe 15       		.uleb128 0x15
 1428 08ff 31030000 		.4byte	0x331
 1429 0903 09090000 		.4byte	0x909
 1430 0907 21       		.uleb128 0x21
 1431 0908 00       		.byte	0
 1432 0909 0E       		.uleb128 0xe
 1433 090a FE080000 		.4byte	0x8fe
 1434 090e 22       		.uleb128 0x22
 1435 090f 776100   		.ascii	"wa\000"
 1436 0912 11       		.byte	0x11
 1437 0913 A9       		.byte	0xa9
 1438 0914 09090000 		.4byte	0x909
 1439 0918 11       		.uleb128 0x11
 1440 0919 57070000 		.4byte	.LASF146
 1441 091d 11       		.byte	0x11
 1442 091e AA       		.byte	0xaa
 1443 091f F4070000 		.4byte	0x7f4
 1444 0923 23       		.uleb128 0x23
 1445 0924 35030000 		.4byte	.LASF147
 1446 0928 03       		.byte	0x3
 1447 0929 5A       		.byte	0x5a
 1448 092a 38080000 		.4byte	0x838
 1449 092e 05       		.uleb128 0x5
 1450 092f 03       		.byte	0x3
 1451 0930 00000000 		.4byte	testmsg1
 1452 0934 15       		.uleb128 0x15
 1453 0935 4F090000 		.4byte	0x94f
 1454 0939 44090000 		.4byte	0x944
 1455 093d 16       		.uleb128 0x16
 1456 093e 88040000 		.4byte	0x488
 1457 0942 01       		.byte	0x1
 1458 0943 00       		.byte	0
 1459 0944 0E       		.uleb128 0xe
 1460 0945 34090000 		.4byte	0x934
 1461 0949 09       		.uleb128 0x9
 1462 094a 04       		.byte	0x4
 1463 094b 38080000 		.4byte	0x838
 1464 094f 0E       		.uleb128 0xe
 1465 0950 49090000 		.4byte	0x949
 1466 0954 23       		.uleb128 0x23
 1467 0955 78010000 		.4byte	.LASF148
 1468 0959 03       		.byte	0x3
 1469 095a 66       		.byte	0x66
 1470 095b 44090000 		.4byte	0x944
 1471 095f 05       		.uleb128 0x5
 1472 0960 03       		.byte	0x3
 1473 0961 00000000 		.4byte	patternmsg
 1474 0965 24       		.uleb128 0x24
 1475 0966 39040000 		.4byte	.LASF149
 1476 096a 03       		.byte	0x3
 1477 096b 42       		.byte	0x42
 1478 096c 00000000 		.4byte	.LFB153
 1479 0970 C8000000 		.4byte	.LFE153-.LFB153
ARM GAS  /tmp/ccBBWsqH.s 			page 27


 1480 0974 01       		.uleb128 0x1
 1481 0975 9C       		.byte	0x9c
 1482 0976 96090000 		.4byte	0x996
 1483 097a 25       		.uleb128 0x25
 1484 097b 747000   		.ascii	"tp\000"
 1485 097e 03       		.byte	0x3
 1486 097f 43       		.byte	0x43
 1487 0980 52020000 		.4byte	0x252
 1488 0984 02       		.uleb128 0x2
 1489 0985 91       		.byte	0x91
 1490 0986 6C       		.sleb128 -20
 1491 0987 25       		.uleb128 0x25
 1492 0988 6D736700 		.ascii	"msg\000"
 1493 098c 03       		.byte	0x3
 1494 098d 44       		.byte	0x44
 1495 098e 17010000 		.4byte	0x117
 1496 0992 02       		.uleb128 0x2
 1497 0993 91       		.byte	0x91
 1498 0994 68       		.sleb128 -24
 1499 0995 00       		.byte	0
 1500 0996 24       		.uleb128 0x24
 1501 0997 0F050000 		.4byte	.LASF150
 1502 099b 03       		.byte	0x3
 1503 099c 3B       		.byte	0x3b
 1504 099d 00000000 		.4byte	.LFB152
 1505 09a1 2A000000 		.4byte	.LFE152-.LFB152
 1506 09a5 01       		.uleb128 0x1
 1507 09a6 9C       		.byte	0x9c
 1508 09a7 B8090000 		.4byte	0x9b8
 1509 09ab 26       		.uleb128 0x26
 1510 09ac 7000     		.ascii	"p\000"
 1511 09ae 03       		.byte	0x3
 1512 09af 3B       		.byte	0x3b
 1513 09b0 2F030000 		.4byte	0x32f
 1514 09b4 02       		.uleb128 0x2
 1515 09b5 91       		.byte	0x91
 1516 09b6 74       		.sleb128 -12
 1517 09b7 00       		.byte	0
 1518 09b8 27       		.uleb128 0x27
 1519 09b9 CA010000 		.4byte	.LASF157
 1520 09bd 02       		.byte	0x2
 1521 09be 60       		.byte	0x60
 1522 09bf 17010000 		.4byte	0x117
 1523 09c3 00000000 		.4byte	.LFB133
 1524 09c7 0E000000 		.4byte	.LFE133-.LFB133
 1525 09cb 01       		.uleb128 0x1
 1526 09cc 9C       		.byte	0x9c
 1527 09cd DF090000 		.4byte	0x9df
 1528 09d1 26       		.uleb128 0x26
 1529 09d2 747000   		.ascii	"tp\000"
 1530 09d5 02       		.byte	0x2
 1531 09d6 60       		.byte	0x60
 1532 09d7 52020000 		.4byte	0x252
 1533 09db 02       		.uleb128 0x2
 1534 09dc 91       		.byte	0x91
 1535 09dd 7C       		.sleb128 -4
 1536 09de 00       		.byte	0
ARM GAS  /tmp/ccBBWsqH.s 			page 28


 1537 09df 28       		.uleb128 0x28
 1538 09e0 71050000 		.4byte	.LASF151
 1539 09e4 01       		.byte	0x1
 1540 09e5 BB       		.byte	0xbb
 1541 09e6 0C010000 		.4byte	0x10c
 1542 09ea 00000000 		.4byte	.LFB100
 1543 09ee 0E000000 		.4byte	.LFE100-.LFB100
 1544 09f2 01       		.uleb128 0x1
 1545 09f3 9C       		.byte	0x9c
 1546 09f4 29       		.uleb128 0x29
 1547 09f5 16070000 		.4byte	.LASF152
 1548 09f9 01       		.byte	0x1
 1549 09fa AE       		.byte	0xae
 1550 09fb 52020000 		.4byte	0x252
 1551 09ff 00000000 		.4byte	.LFB99
 1552 0a03 0C000000 		.4byte	.LFE99-.LFB99
 1553 0a07 01       		.uleb128 0x1
 1554 0a08 9C       		.byte	0x9c
 1555 0a09 00       		.byte	0
 1556              		.section	.debug_abbrev,"",%progbits
 1557              	.Ldebug_abbrev0:
 1558 0000 01       		.uleb128 0x1
 1559 0001 11       		.uleb128 0x11
 1560 0002 01       		.byte	0x1
 1561 0003 25       		.uleb128 0x25
 1562 0004 0E       		.uleb128 0xe
 1563 0005 13       		.uleb128 0x13
 1564 0006 0B       		.uleb128 0xb
 1565 0007 03       		.uleb128 0x3
 1566 0008 0E       		.uleb128 0xe
 1567 0009 1B       		.uleb128 0x1b
 1568 000a 0E       		.uleb128 0xe
 1569 000b 55       		.uleb128 0x55
 1570 000c 17       		.uleb128 0x17
 1571 000d 11       		.uleb128 0x11
 1572 000e 01       		.uleb128 0x1
 1573 000f 10       		.uleb128 0x10
 1574 0010 17       		.uleb128 0x17
 1575 0011 00       		.byte	0
 1576 0012 00       		.byte	0
 1577 0013 02       		.uleb128 0x2
 1578 0014 24       		.uleb128 0x24
 1579 0015 00       		.byte	0
 1580 0016 0B       		.uleb128 0xb
 1581 0017 0B       		.uleb128 0xb
 1582 0018 3E       		.uleb128 0x3e
 1583 0019 0B       		.uleb128 0xb
 1584 001a 03       		.uleb128 0x3
 1585 001b 08       		.uleb128 0x8
 1586 001c 00       		.byte	0
 1587 001d 00       		.byte	0
 1588 001e 03       		.uleb128 0x3
 1589 001f 16       		.uleb128 0x16
 1590 0020 00       		.byte	0
 1591 0021 03       		.uleb128 0x3
 1592 0022 0E       		.uleb128 0xe
 1593 0023 3A       		.uleb128 0x3a
ARM GAS  /tmp/ccBBWsqH.s 			page 29


 1594 0024 0B       		.uleb128 0xb
 1595 0025 3B       		.uleb128 0x3b
 1596 0026 0B       		.uleb128 0xb
 1597 0027 49       		.uleb128 0x49
 1598 0028 13       		.uleb128 0x13
 1599 0029 00       		.byte	0
 1600 002a 00       		.byte	0
 1601 002b 04       		.uleb128 0x4
 1602 002c 24       		.uleb128 0x24
 1603 002d 00       		.byte	0
 1604 002e 0B       		.uleb128 0xb
 1605 002f 0B       		.uleb128 0xb
 1606 0030 3E       		.uleb128 0x3e
 1607 0031 0B       		.uleb128 0xb
 1608 0032 03       		.uleb128 0x3
 1609 0033 0E       		.uleb128 0xe
 1610 0034 00       		.byte	0
 1611 0035 00       		.byte	0
 1612 0036 05       		.uleb128 0x5
 1613 0037 13       		.uleb128 0x13
 1614 0038 01       		.byte	0x1
 1615 0039 03       		.uleb128 0x3
 1616 003a 0E       		.uleb128 0xe
 1617 003b 0B       		.uleb128 0xb
 1618 003c 0B       		.uleb128 0xb
 1619 003d 3A       		.uleb128 0x3a
 1620 003e 0B       		.uleb128 0xb
 1621 003f 3B       		.uleb128 0x3b
 1622 0040 0B       		.uleb128 0xb
 1623 0041 01       		.uleb128 0x1
 1624 0042 13       		.uleb128 0x13
 1625 0043 00       		.byte	0
 1626 0044 00       		.byte	0
 1627 0045 06       		.uleb128 0x6
 1628 0046 0D       		.uleb128 0xd
 1629 0047 00       		.byte	0
 1630 0048 03       		.uleb128 0x3
 1631 0049 0E       		.uleb128 0xe
 1632 004a 3A       		.uleb128 0x3a
 1633 004b 0B       		.uleb128 0xb
 1634 004c 3B       		.uleb128 0x3b
 1635 004d 0B       		.uleb128 0xb
 1636 004e 49       		.uleb128 0x49
 1637 004f 13       		.uleb128 0x13
 1638 0050 38       		.uleb128 0x38
 1639 0051 0B       		.uleb128 0xb
 1640 0052 00       		.byte	0
 1641 0053 00       		.byte	0
 1642 0054 07       		.uleb128 0x7
 1643 0055 0D       		.uleb128 0xd
 1644 0056 00       		.byte	0
 1645 0057 03       		.uleb128 0x3
 1646 0058 08       		.uleb128 0x8
 1647 0059 3A       		.uleb128 0x3a
 1648 005a 0B       		.uleb128 0xb
 1649 005b 3B       		.uleb128 0x3b
 1650 005c 05       		.uleb128 0x5
ARM GAS  /tmp/ccBBWsqH.s 			page 30


 1651 005d 49       		.uleb128 0x49
 1652 005e 13       		.uleb128 0x13
 1653 005f 38       		.uleb128 0x38
 1654 0060 0B       		.uleb128 0xb
 1655 0061 00       		.byte	0
 1656 0062 00       		.byte	0
 1657 0063 08       		.uleb128 0x8
 1658 0064 0D       		.uleb128 0xd
 1659 0065 00       		.byte	0
 1660 0066 03       		.uleb128 0x3
 1661 0067 0E       		.uleb128 0xe
 1662 0068 3A       		.uleb128 0x3a
 1663 0069 0B       		.uleb128 0xb
 1664 006a 3B       		.uleb128 0x3b
 1665 006b 05       		.uleb128 0x5
 1666 006c 49       		.uleb128 0x49
 1667 006d 13       		.uleb128 0x13
 1668 006e 38       		.uleb128 0x38
 1669 006f 0B       		.uleb128 0xb
 1670 0070 00       		.byte	0
 1671 0071 00       		.byte	0
 1672 0072 09       		.uleb128 0x9
 1673 0073 0F       		.uleb128 0xf
 1674 0074 00       		.byte	0
 1675 0075 0B       		.uleb128 0xb
 1676 0076 0B       		.uleb128 0xb
 1677 0077 49       		.uleb128 0x49
 1678 0078 13       		.uleb128 0x13
 1679 0079 00       		.byte	0
 1680 007a 00       		.byte	0
 1681 007b 0A       		.uleb128 0xa
 1682 007c 13       		.uleb128 0x13
 1683 007d 01       		.byte	0x1
 1684 007e 03       		.uleb128 0x3
 1685 007f 0E       		.uleb128 0xe
 1686 0080 0B       		.uleb128 0xb
 1687 0081 0B       		.uleb128 0xb
 1688 0082 3A       		.uleb128 0x3a
 1689 0083 0B       		.uleb128 0xb
 1690 0084 3B       		.uleb128 0x3b
 1691 0085 05       		.uleb128 0x5
 1692 0086 01       		.uleb128 0x1
 1693 0087 13       		.uleb128 0x13
 1694 0088 00       		.byte	0
 1695 0089 00       		.byte	0
 1696 008a 0B       		.uleb128 0xb
 1697 008b 15       		.uleb128 0x15
 1698 008c 01       		.byte	0x1
 1699 008d 27       		.uleb128 0x27
 1700 008e 19       		.uleb128 0x19
 1701 008f 01       		.uleb128 0x1
 1702 0090 13       		.uleb128 0x13
 1703 0091 00       		.byte	0
 1704 0092 00       		.byte	0
 1705 0093 0C       		.uleb128 0xc
 1706 0094 05       		.uleb128 0x5
 1707 0095 00       		.byte	0
ARM GAS  /tmp/ccBBWsqH.s 			page 31


 1708 0096 49       		.uleb128 0x49
 1709 0097 13       		.uleb128 0x13
 1710 0098 00       		.byte	0
 1711 0099 00       		.byte	0
 1712 009a 0D       		.uleb128 0xd
 1713 009b 0F       		.uleb128 0xf
 1714 009c 00       		.byte	0
 1715 009d 0B       		.uleb128 0xb
 1716 009e 0B       		.uleb128 0xb
 1717 009f 00       		.byte	0
 1718 00a0 00       		.byte	0
 1719 00a1 0E       		.uleb128 0xe
 1720 00a2 26       		.uleb128 0x26
 1721 00a3 00       		.byte	0
 1722 00a4 49       		.uleb128 0x49
 1723 00a5 13       		.uleb128 0x13
 1724 00a6 00       		.byte	0
 1725 00a7 00       		.byte	0
 1726 00a8 0F       		.uleb128 0xf
 1727 00a9 13       		.uleb128 0x13
 1728 00aa 01       		.byte	0x1
 1729 00ab 03       		.uleb128 0x3
 1730 00ac 0E       		.uleb128 0xe
 1731 00ad 0B       		.uleb128 0xb
 1732 00ae 05       		.uleb128 0x5
 1733 00af 3A       		.uleb128 0x3a
 1734 00b0 0B       		.uleb128 0xb
 1735 00b1 3B       		.uleb128 0x3b
 1736 00b2 05       		.uleb128 0x5
 1737 00b3 01       		.uleb128 0x1
 1738 00b4 13       		.uleb128 0x13
 1739 00b5 00       		.byte	0
 1740 00b6 00       		.byte	0
 1741 00b7 10       		.uleb128 0x10
 1742 00b8 0D       		.uleb128 0xd
 1743 00b9 00       		.byte	0
 1744 00ba 03       		.uleb128 0x3
 1745 00bb 0E       		.uleb128 0xe
 1746 00bc 3A       		.uleb128 0x3a
 1747 00bd 0B       		.uleb128 0xb
 1748 00be 3B       		.uleb128 0x3b
 1749 00bf 05       		.uleb128 0x5
 1750 00c0 49       		.uleb128 0x49
 1751 00c1 13       		.uleb128 0x13
 1752 00c2 38       		.uleb128 0x38
 1753 00c3 05       		.uleb128 0x5
 1754 00c4 00       		.byte	0
 1755 00c5 00       		.byte	0
 1756 00c6 11       		.uleb128 0x11
 1757 00c7 34       		.uleb128 0x34
 1758 00c8 00       		.byte	0
 1759 00c9 03       		.uleb128 0x3
 1760 00ca 0E       		.uleb128 0xe
 1761 00cb 3A       		.uleb128 0x3a
 1762 00cc 0B       		.uleb128 0xb
 1763 00cd 3B       		.uleb128 0x3b
 1764 00ce 0B       		.uleb128 0xb
ARM GAS  /tmp/ccBBWsqH.s 			page 32


 1765 00cf 49       		.uleb128 0x49
 1766 00d0 13       		.uleb128 0x13
 1767 00d1 3F       		.uleb128 0x3f
 1768 00d2 19       		.uleb128 0x19
 1769 00d3 3C       		.uleb128 0x3c
 1770 00d4 19       		.uleb128 0x19
 1771 00d5 00       		.byte	0
 1772 00d6 00       		.byte	0
 1773 00d7 12       		.uleb128 0x12
 1774 00d8 0D       		.uleb128 0xd
 1775 00d9 00       		.byte	0
 1776 00da 03       		.uleb128 0x3
 1777 00db 08       		.uleb128 0x8
 1778 00dc 3A       		.uleb128 0x3a
 1779 00dd 0B       		.uleb128 0xb
 1780 00de 3B       		.uleb128 0x3b
 1781 00df 0B       		.uleb128 0xb
 1782 00e0 49       		.uleb128 0x49
 1783 00e1 13       		.uleb128 0x13
 1784 00e2 38       		.uleb128 0x38
 1785 00e3 0B       		.uleb128 0xb
 1786 00e4 00       		.byte	0
 1787 00e5 00       		.byte	0
 1788 00e6 13       		.uleb128 0x13
 1789 00e7 13       		.uleb128 0x13
 1790 00e8 01       		.byte	0x1
 1791 00e9 0B       		.uleb128 0xb
 1792 00ea 0B       		.uleb128 0xb
 1793 00eb 3A       		.uleb128 0x3a
 1794 00ec 0B       		.uleb128 0xb
 1795 00ed 3B       		.uleb128 0x3b
 1796 00ee 0B       		.uleb128 0xb
 1797 00ef 01       		.uleb128 0x1
 1798 00f0 13       		.uleb128 0x13
 1799 00f1 00       		.byte	0
 1800 00f2 00       		.byte	0
 1801 00f3 14       		.uleb128 0x14
 1802 00f4 13       		.uleb128 0x13
 1803 00f5 01       		.byte	0x1
 1804 00f6 0B       		.uleb128 0xb
 1805 00f7 05       		.uleb128 0x5
 1806 00f8 3A       		.uleb128 0x3a
 1807 00f9 0B       		.uleb128 0xb
 1808 00fa 3B       		.uleb128 0x3b
 1809 00fb 0B       		.uleb128 0xb
 1810 00fc 01       		.uleb128 0x1
 1811 00fd 13       		.uleb128 0x13
 1812 00fe 00       		.byte	0
 1813 00ff 00       		.byte	0
 1814 0100 15       		.uleb128 0x15
 1815 0101 01       		.uleb128 0x1
 1816 0102 01       		.byte	0x1
 1817 0103 49       		.uleb128 0x49
 1818 0104 13       		.uleb128 0x13
 1819 0105 01       		.uleb128 0x1
 1820 0106 13       		.uleb128 0x13
 1821 0107 00       		.byte	0
ARM GAS  /tmp/ccBBWsqH.s 			page 33


 1822 0108 00       		.byte	0
 1823 0109 16       		.uleb128 0x16
 1824 010a 21       		.uleb128 0x21
 1825 010b 00       		.byte	0
 1826 010c 49       		.uleb128 0x49
 1827 010d 13       		.uleb128 0x13
 1828 010e 2F       		.uleb128 0x2f
 1829 010f 0B       		.uleb128 0xb
 1830 0110 00       		.byte	0
 1831 0111 00       		.byte	0
 1832 0112 17       		.uleb128 0x17
 1833 0113 17       		.uleb128 0x17
 1834 0114 01       		.byte	0x1
 1835 0115 0B       		.uleb128 0xb
 1836 0116 0B       		.uleb128 0xb
 1837 0117 3A       		.uleb128 0x3a
 1838 0118 0B       		.uleb128 0xb
 1839 0119 3B       		.uleb128 0x3b
 1840 011a 0B       		.uleb128 0xb
 1841 011b 01       		.uleb128 0x1
 1842 011c 13       		.uleb128 0x13
 1843 011d 00       		.byte	0
 1844 011e 00       		.byte	0
 1845 011f 18       		.uleb128 0x18
 1846 0120 0D       		.uleb128 0xd
 1847 0121 00       		.byte	0
 1848 0122 03       		.uleb128 0x3
 1849 0123 0E       		.uleb128 0xe
 1850 0124 3A       		.uleb128 0x3a
 1851 0125 0B       		.uleb128 0xb
 1852 0126 3B       		.uleb128 0x3b
 1853 0127 05       		.uleb128 0x5
 1854 0128 49       		.uleb128 0x49
 1855 0129 13       		.uleb128 0x13
 1856 012a 00       		.byte	0
 1857 012b 00       		.byte	0
 1858 012c 19       		.uleb128 0x19
 1859 012d 35       		.uleb128 0x35
 1860 012e 00       		.byte	0
 1861 012f 49       		.uleb128 0x49
 1862 0130 13       		.uleb128 0x13
 1863 0131 00       		.byte	0
 1864 0132 00       		.byte	0
 1865 0133 1A       		.uleb128 0x1a
 1866 0134 34       		.uleb128 0x34
 1867 0135 00       		.byte	0
 1868 0136 03       		.uleb128 0x3
 1869 0137 08       		.uleb128 0x8
 1870 0138 3A       		.uleb128 0x3a
 1871 0139 0B       		.uleb128 0xb
 1872 013a 3B       		.uleb128 0x3b
 1873 013b 05       		.uleb128 0x5
 1874 013c 49       		.uleb128 0x49
 1875 013d 13       		.uleb128 0x13
 1876 013e 3F       		.uleb128 0x3f
 1877 013f 19       		.uleb128 0x19
 1878 0140 3C       		.uleb128 0x3c
ARM GAS  /tmp/ccBBWsqH.s 			page 34


 1879 0141 19       		.uleb128 0x19
 1880 0142 00       		.byte	0
 1881 0143 00       		.byte	0
 1882 0144 1B       		.uleb128 0x1b
 1883 0145 15       		.uleb128 0x15
 1884 0146 00       		.byte	0
 1885 0147 27       		.uleb128 0x27
 1886 0148 19       		.uleb128 0x19
 1887 0149 00       		.byte	0
 1888 014a 00       		.byte	0
 1889 014b 1C       		.uleb128 0x1c
 1890 014c 0D       		.uleb128 0xd
 1891 014d 00       		.byte	0
 1892 014e 03       		.uleb128 0x3
 1893 014f 08       		.uleb128 0x8
 1894 0150 3A       		.uleb128 0x3a
 1895 0151 0B       		.uleb128 0xb
 1896 0152 3B       		.uleb128 0x3b
 1897 0153 0B       		.uleb128 0xb
 1898 0154 49       		.uleb128 0x49
 1899 0155 13       		.uleb128 0x13
 1900 0156 38       		.uleb128 0x38
 1901 0157 05       		.uleb128 0x5
 1902 0158 00       		.byte	0
 1903 0159 00       		.byte	0
 1904 015a 1D       		.uleb128 0x1d
 1905 015b 17       		.uleb128 0x17
 1906 015c 01       		.byte	0x1
 1907 015d 03       		.uleb128 0x3
 1908 015e 0E       		.uleb128 0xe
 1909 015f 0B       		.uleb128 0xb
 1910 0160 05       		.uleb128 0x5
 1911 0161 3A       		.uleb128 0x3a
 1912 0162 0B       		.uleb128 0xb
 1913 0163 3B       		.uleb128 0x3b
 1914 0164 0B       		.uleb128 0xb
 1915 0165 01       		.uleb128 0x1
 1916 0166 13       		.uleb128 0x13
 1917 0167 00       		.byte	0
 1918 0168 00       		.byte	0
 1919 0169 1E       		.uleb128 0x1e
 1920 016a 0D       		.uleb128 0xd
 1921 016b 00       		.byte	0
 1922 016c 03       		.uleb128 0x3
 1923 016d 08       		.uleb128 0x8
 1924 016e 3A       		.uleb128 0x3a
 1925 016f 0B       		.uleb128 0xb
 1926 0170 3B       		.uleb128 0x3b
 1927 0171 0B       		.uleb128 0xb
 1928 0172 49       		.uleb128 0x49
 1929 0173 13       		.uleb128 0x13
 1930 0174 00       		.byte	0
 1931 0175 00       		.byte	0
 1932 0176 1F       		.uleb128 0x1f
 1933 0177 0D       		.uleb128 0xd
 1934 0178 00       		.byte	0
 1935 0179 03       		.uleb128 0x3
ARM GAS  /tmp/ccBBWsqH.s 			page 35


 1936 017a 0E       		.uleb128 0xe
 1937 017b 3A       		.uleb128 0x3a
 1938 017c 0B       		.uleb128 0xb
 1939 017d 3B       		.uleb128 0x3b
 1940 017e 0B       		.uleb128 0xb
 1941 017f 49       		.uleb128 0x49
 1942 0180 13       		.uleb128 0x13
 1943 0181 00       		.byte	0
 1944 0182 00       		.byte	0
 1945 0183 20       		.uleb128 0x20
 1946 0184 21       		.uleb128 0x21
 1947 0185 00       		.byte	0
 1948 0186 49       		.uleb128 0x49
 1949 0187 13       		.uleb128 0x13
 1950 0188 2F       		.uleb128 0x2f
 1951 0189 05       		.uleb128 0x5
 1952 018a 00       		.byte	0
 1953 018b 00       		.byte	0
 1954 018c 21       		.uleb128 0x21
 1955 018d 21       		.uleb128 0x21
 1956 018e 00       		.byte	0
 1957 018f 00       		.byte	0
 1958 0190 00       		.byte	0
 1959 0191 22       		.uleb128 0x22
 1960 0192 34       		.uleb128 0x34
 1961 0193 00       		.byte	0
 1962 0194 03       		.uleb128 0x3
 1963 0195 08       		.uleb128 0x8
 1964 0196 3A       		.uleb128 0x3a
 1965 0197 0B       		.uleb128 0xb
 1966 0198 3B       		.uleb128 0x3b
 1967 0199 0B       		.uleb128 0xb
 1968 019a 49       		.uleb128 0x49
 1969 019b 13       		.uleb128 0x13
 1970 019c 3F       		.uleb128 0x3f
 1971 019d 19       		.uleb128 0x19
 1972 019e 3C       		.uleb128 0x3c
 1973 019f 19       		.uleb128 0x19
 1974 01a0 00       		.byte	0
 1975 01a1 00       		.byte	0
 1976 01a2 23       		.uleb128 0x23
 1977 01a3 34       		.uleb128 0x34
 1978 01a4 00       		.byte	0
 1979 01a5 03       		.uleb128 0x3
 1980 01a6 0E       		.uleb128 0xe
 1981 01a7 3A       		.uleb128 0x3a
 1982 01a8 0B       		.uleb128 0xb
 1983 01a9 3B       		.uleb128 0x3b
 1984 01aa 0B       		.uleb128 0xb
 1985 01ab 49       		.uleb128 0x49
 1986 01ac 13       		.uleb128 0x13
 1987 01ad 3F       		.uleb128 0x3f
 1988 01ae 19       		.uleb128 0x19
 1989 01af 02       		.uleb128 0x2
 1990 01b0 18       		.uleb128 0x18
 1991 01b1 00       		.byte	0
 1992 01b2 00       		.byte	0
ARM GAS  /tmp/ccBBWsqH.s 			page 36


 1993 01b3 24       		.uleb128 0x24
 1994 01b4 2E       		.uleb128 0x2e
 1995 01b5 01       		.byte	0x1
 1996 01b6 03       		.uleb128 0x3
 1997 01b7 0E       		.uleb128 0xe
 1998 01b8 3A       		.uleb128 0x3a
 1999 01b9 0B       		.uleb128 0xb
 2000 01ba 3B       		.uleb128 0x3b
 2001 01bb 0B       		.uleb128 0xb
 2002 01bc 27       		.uleb128 0x27
 2003 01bd 19       		.uleb128 0x19
 2004 01be 11       		.uleb128 0x11
 2005 01bf 01       		.uleb128 0x1
 2006 01c0 12       		.uleb128 0x12
 2007 01c1 06       		.uleb128 0x6
 2008 01c2 40       		.uleb128 0x40
 2009 01c3 18       		.uleb128 0x18
 2010 01c4 9642     		.uleb128 0x2116
 2011 01c6 19       		.uleb128 0x19
 2012 01c7 01       		.uleb128 0x1
 2013 01c8 13       		.uleb128 0x13
 2014 01c9 00       		.byte	0
 2015 01ca 00       		.byte	0
 2016 01cb 25       		.uleb128 0x25
 2017 01cc 34       		.uleb128 0x34
 2018 01cd 00       		.byte	0
 2019 01ce 03       		.uleb128 0x3
 2020 01cf 08       		.uleb128 0x8
 2021 01d0 3A       		.uleb128 0x3a
 2022 01d1 0B       		.uleb128 0xb
 2023 01d2 3B       		.uleb128 0x3b
 2024 01d3 0B       		.uleb128 0xb
 2025 01d4 49       		.uleb128 0x49
 2026 01d5 13       		.uleb128 0x13
 2027 01d6 02       		.uleb128 0x2
 2028 01d7 18       		.uleb128 0x18
 2029 01d8 00       		.byte	0
 2030 01d9 00       		.byte	0
 2031 01da 26       		.uleb128 0x26
 2032 01db 05       		.uleb128 0x5
 2033 01dc 00       		.byte	0
 2034 01dd 03       		.uleb128 0x3
 2035 01de 08       		.uleb128 0x8
 2036 01df 3A       		.uleb128 0x3a
 2037 01e0 0B       		.uleb128 0xb
 2038 01e1 3B       		.uleb128 0x3b
 2039 01e2 0B       		.uleb128 0xb
 2040 01e3 49       		.uleb128 0x49
 2041 01e4 13       		.uleb128 0x13
 2042 01e5 02       		.uleb128 0x2
 2043 01e6 18       		.uleb128 0x18
 2044 01e7 00       		.byte	0
 2045 01e8 00       		.byte	0
 2046 01e9 27       		.uleb128 0x27
 2047 01ea 2E       		.uleb128 0x2e
 2048 01eb 01       		.byte	0x1
 2049 01ec 03       		.uleb128 0x3
ARM GAS  /tmp/ccBBWsqH.s 			page 37


 2050 01ed 0E       		.uleb128 0xe
 2051 01ee 3A       		.uleb128 0x3a
 2052 01ef 0B       		.uleb128 0xb
 2053 01f0 3B       		.uleb128 0x3b
 2054 01f1 0B       		.uleb128 0xb
 2055 01f2 27       		.uleb128 0x27
 2056 01f3 19       		.uleb128 0x19
 2057 01f4 49       		.uleb128 0x49
 2058 01f5 13       		.uleb128 0x13
 2059 01f6 11       		.uleb128 0x11
 2060 01f7 01       		.uleb128 0x1
 2061 01f8 12       		.uleb128 0x12
 2062 01f9 06       		.uleb128 0x6
 2063 01fa 40       		.uleb128 0x40
 2064 01fb 18       		.uleb128 0x18
 2065 01fc 9742     		.uleb128 0x2117
 2066 01fe 19       		.uleb128 0x19
 2067 01ff 01       		.uleb128 0x1
 2068 0200 13       		.uleb128 0x13
 2069 0201 00       		.byte	0
 2070 0202 00       		.byte	0
 2071 0203 28       		.uleb128 0x28
 2072 0204 2E       		.uleb128 0x2e
 2073 0205 00       		.byte	0
 2074 0206 03       		.uleb128 0x3
 2075 0207 0E       		.uleb128 0xe
 2076 0208 3A       		.uleb128 0x3a
 2077 0209 0B       		.uleb128 0xb
 2078 020a 3B       		.uleb128 0x3b
 2079 020b 0B       		.uleb128 0xb
 2080 020c 27       		.uleb128 0x27
 2081 020d 19       		.uleb128 0x19
 2082 020e 49       		.uleb128 0x49
 2083 020f 13       		.uleb128 0x13
 2084 0210 11       		.uleb128 0x11
 2085 0211 01       		.uleb128 0x1
 2086 0212 12       		.uleb128 0x12
 2087 0213 06       		.uleb128 0x6
 2088 0214 40       		.uleb128 0x40
 2089 0215 18       		.uleb128 0x18
 2090 0216 9642     		.uleb128 0x2116
 2091 0218 19       		.uleb128 0x19
 2092 0219 00       		.byte	0
 2093 021a 00       		.byte	0
 2094 021b 29       		.uleb128 0x29
 2095 021c 2E       		.uleb128 0x2e
 2096 021d 00       		.byte	0
 2097 021e 03       		.uleb128 0x3
 2098 021f 0E       		.uleb128 0xe
 2099 0220 3A       		.uleb128 0x3a
 2100 0221 0B       		.uleb128 0xb
 2101 0222 3B       		.uleb128 0x3b
 2102 0223 0B       		.uleb128 0xb
 2103 0224 27       		.uleb128 0x27
 2104 0225 19       		.uleb128 0x19
 2105 0226 49       		.uleb128 0x49
 2106 0227 13       		.uleb128 0x13
ARM GAS  /tmp/ccBBWsqH.s 			page 38


 2107 0228 11       		.uleb128 0x11
 2108 0229 01       		.uleb128 0x1
 2109 022a 12       		.uleb128 0x12
 2110 022b 06       		.uleb128 0x6
 2111 022c 40       		.uleb128 0x40
 2112 022d 18       		.uleb128 0x18
 2113 022e 9742     		.uleb128 0x2117
 2114 0230 19       		.uleb128 0x19
 2115 0231 00       		.byte	0
 2116 0232 00       		.byte	0
 2117 0233 00       		.byte	0
 2118              		.section	.debug_aranges,"",%progbits
 2119 0000 3C000000 		.4byte	0x3c
 2120 0004 0200     		.2byte	0x2
 2121 0006 00000000 		.4byte	.Ldebug_info0
 2122 000a 04       		.byte	0x4
 2123 000b 00       		.byte	0
 2124 000c 0000     		.2byte	0
 2125 000e 0000     		.2byte	0
 2126 0010 00000000 		.4byte	.LFB99
 2127 0014 0C000000 		.4byte	.LFE99-.LFB99
 2128 0018 00000000 		.4byte	.LFB100
 2129 001c 0E000000 		.4byte	.LFE100-.LFB100
 2130 0020 00000000 		.4byte	.LFB133
 2131 0024 0E000000 		.4byte	.LFE133-.LFB133
 2132 0028 00000000 		.4byte	.LFB152
 2133 002c 2A000000 		.4byte	.LFE152-.LFB152
 2134 0030 00000000 		.4byte	.LFB153
 2135 0034 C8000000 		.4byte	.LFE153-.LFB153
 2136 0038 00000000 		.4byte	0
 2137 003c 00000000 		.4byte	0
 2138              		.section	.debug_ranges,"",%progbits
 2139              	.Ldebug_ranges0:
 2140 0000 00000000 		.4byte	.LFB99
 2141 0004 0C000000 		.4byte	.LFE99
 2142 0008 00000000 		.4byte	.LFB100
 2143 000c 0E000000 		.4byte	.LFE100
 2144 0010 00000000 		.4byte	.LFB133
 2145 0014 0E000000 		.4byte	.LFE133
 2146 0018 00000000 		.4byte	.LFB152
 2147 001c 2A000000 		.4byte	.LFE152
 2148 0020 00000000 		.4byte	.LFB153
 2149 0024 C8000000 		.4byte	.LFE153
 2150 0028 00000000 		.4byte	0
 2151 002c 00000000 		.4byte	0
 2152              		.section	.debug_line,"",%progbits
 2153              	.Ldebug_line0:
 2154 0000 F6020000 		.section	.debug_str,"MS",%progbits,1
 2154      02008002 
 2154      00000201 
 2154      FB0E0D00 
 2154      01010101 
 2155              	.LASF51:
 2156 0000 63685F74 		.ascii	"ch_threads_list\000"
 2156      68726561 
 2156      64735F6C 
 2156      69737400 
ARM GAS  /tmp/ccBBWsqH.s 			page 39


 2157              	.LASF52:
 2158 0010 74687265 		.ascii	"threads_queue_t\000"
 2158      6164735F 
 2158      71756575 
 2158      655F7400 
 2159              	.LASF41:
 2160 0020 705F7761 		.ascii	"p_waiting\000"
 2160      6974696E 
 2160      6700
 2161              	.LASF114:
 2162 002a 53797374 		.ascii	"SystemCoreClock\000"
 2162      656D436F 
 2162      7265436C 
 2162      6F636B00 
 2163              	.LASF104:
 2164 003a 77746D74 		.ascii	"wtmtxp\000"
 2164      787000
 2165              	.LASF113:
 2166 0041 63686172 		.ascii	"char\000"
 2166      00
 2167              	.LASF86:
 2168 0046 72656761 		.ascii	"regarm_t\000"
 2168      726D5F74 
 2168      00
 2169              	.LASF32:
 2170 004f 705F7072 		.ascii	"p_prio\000"
 2170      696F00
 2171              	.LASF28:
 2172 0056 73797374 		.ascii	"systime_t\000"
 2172      696D655F 
 2172      7400
 2173              	.LASF142:
 2174 0060 62756666 		.ascii	"buffer\000"
 2174      657200
 2175              	.LASF125:
 2176 0067 63665F6F 		.ascii	"cf_off_older\000"
 2176      66665F6F 
 2176      6C646572 
 2176      00
 2177              	.LASF111:
 2178 0074 6D5F6F77 		.ascii	"m_owner\000"
 2178      6E657200 
 2179              	.LASF107:
 2180 007c 735F7175 		.ascii	"s_queue\000"
 2180      65756500 
 2181              	.LASF42:
 2182 0084 705F6D73 		.ascii	"p_msgqueue\000"
 2182      67717565 
 2182      756500
 2183              	.LASF0:
 2184 008f 756E7369 		.ascii	"unsigned int\000"
 2184      676E6564 
 2184      20696E74 
 2184      00
 2185              	.LASF49:
 2186 009c 74687265 		.ascii	"threads_list_t\000"
 2186      6164735F 
ARM GAS  /tmp/ccBBWsqH.s 			page 40


 2186      6C697374 
 2186      5F7400
 2187              	.LASF10:
 2188 00ab 5F5F696E 		.ascii	"__int32_t\000"
 2188      7433325F 
 2188      7400
 2189              	.LASF93:
 2190 00b5 73655F73 		.ascii	"se_state\000"
 2190      74617465 
 2190      00
 2191              	.LASF126:
 2192 00be 63665F6F 		.ascii	"cf_off_name\000"
 2192      66665F6E 
 2192      616D6500 
 2193              	.LASF145:
 2194 00ca 74657374 		.ascii	"test\000"
 2194      00
 2195              	.LASF101:
 2196 00cf 77746F62 		.ascii	"wtobjp\000"
 2196      6A7000
 2197              	.LASF82:
 2198 00d6 76746C69 		.ascii	"vtlist\000"
 2198      737400
 2199              	.LASF55:
 2200 00dd 63685F72 		.ascii	"ch_ready_list\000"
 2200      65616479 
 2200      5F6C6973 
 2200      7400
 2201              	.LASF84:
 2202 00eb 69646C65 		.ascii	"idle_thread_wa\000"
 2202      5F746872 
 2202      6561645F 
 2202      776100
 2203              	.LASF105:
 2204 00fa 65776D61 		.ascii	"ewmask\000"
 2204      736B00
 2205              	.LASF129:
 2206 0101 63665F6F 		.ascii	"cf_off_flags\000"
 2206      66665F66 
 2206      6C616773 
 2206      00
 2207              	.LASF53:
 2208 010e 63685F74 		.ascii	"ch_threads_queue\000"
 2208      68726561 
 2208      64735F71 
 2208      75657565 
 2208      00
 2209              	.LASF119:
 2210 011f 63685F70 		.ascii	"ch_ptrsize\000"
 2210      74727369 
 2210      7A6500
 2211              	.LASF62:
 2212 012a 76746675 		.ascii	"vtfunc_t\000"
 2212      6E635F74 
 2212      00
 2213              	.LASF108:
 2214 0133 735F636E 		.ascii	"s_cnt\000"
ARM GAS  /tmp/ccBBWsqH.s 			page 41


 2214      7400
 2215              	.LASF74:
 2216 0139 63685F73 		.ascii	"ch_system_debug\000"
 2216      79737465 
 2216      6D5F6465 
 2216      62756700 
 2217              	.LASF19:
 2218 0149 75696E74 		.ascii	"uint32_t\000"
 2218      33325F74 
 2218      00
 2219              	.LASF120:
 2220 0152 63685F74 		.ascii	"ch_timesize\000"
 2220      696D6573 
 2220      697A6500 
 2221              	.LASF26:
 2222 015e 6576656E 		.ascii	"eventmask_t\000"
 2222      746D6173 
 2222      6B5F7400 
 2223              	.LASF57:
 2224 016a 725F7072 		.ascii	"r_prio\000"
 2224      696F00
 2225              	.LASF69:
 2226 0171 76745F70 		.ascii	"vt_par\000"
 2226      617200
 2227              	.LASF148:
 2228 0178 70617474 		.ascii	"patternmsg\000"
 2228      65726E6D 
 2228      736700
 2229              	.LASF106:
 2230 0183 63685F73 		.ascii	"ch_semaphore\000"
 2230      656D6170 
 2230      686F7265 
 2230      00
 2231              	.LASF24:
 2232 0190 74707269 		.ascii	"tprio_t\000"
 2232      6F5F7400 
 2233              	.LASF64:
 2234 0198 63685F76 		.ascii	"ch_virtual_timer\000"
 2234      69727475 
 2234      616C5F74 
 2234      696D6572 
 2234      00
 2235              	.LASF15:
 2236 01a9 6C6F6E67 		.ascii	"long long unsigned int\000"
 2236      206C6F6E 
 2236      6720756E 
 2236      7369676E 
 2236      65642069 
 2237              	.LASF92:
 2238 01c0 73655F77 		.ascii	"se_wtobjp\000"
 2238      746F626A 
 2238      7000
 2239              	.LASF157:
 2240 01ca 63684D73 		.ascii	"chMsgGet\000"
 2240      67476574 
 2240      00
 2241              	.LASF143:
ARM GAS  /tmp/ccBBWsqH.s 			page 42


 2242 01d3 74657374 		.ascii	"test_global_fail\000"
 2242      5F676C6F 
 2242      62616C5F 
 2242      6661696C 
 2242      00
 2243              	.LASF8:
 2244 01e4 5F5F7569 		.ascii	"__uint16_t\000"
 2244      6E743136 
 2244      5F7400
 2245              	.LASF27:
 2246 01ef 636E745F 		.ascii	"cnt_t\000"
 2246      7400
 2247              	.LASF137:
 2248 01f5 74657374 		.ascii	"testcase\000"
 2248      63617365 
 2248      00
 2249              	.LASF76:
 2250 01fe 6973725F 		.ascii	"isr_cnt\000"
 2250      636E7400 
 2251              	.LASF34:
 2252 0206 705F6E65 		.ascii	"p_newer\000"
 2252      77657200 
 2253              	.LASF71:
 2254 020e 63685F76 		.ascii	"ch_virtual_timers_list\000"
 2254      69727475 
 2254      616C5F74 
 2254      696D6572 
 2254      735F6C69 
 2255              	.LASF90:
 2256 0225 73655F74 		.ascii	"se_time\000"
 2256      696D6500 
 2257              	.LASF29:
 2258 022d 74687265 		.ascii	"thread_t\000"
 2258      61645F74 
 2258      00
 2259              	.LASF4:
 2260 0236 73697A65 		.ascii	"size_t\000"
 2260      5F7400
 2261              	.LASF99:
 2262 023d 7264796D 		.ascii	"rdymsg\000"
 2262      736700
 2263              	.LASF121:
 2264 0244 63685F74 		.ascii	"ch_threadsize\000"
 2264      68726561 
 2264      6473697A 
 2264      6500
 2265              	.LASF131:
 2266 0252 63665F6F 		.ascii	"cf_off_preempt\000"
 2266      66665F70 
 2266      7265656D 
 2266      707400
 2267              	.LASF136:
 2268 0261 5F426F6F 		.ascii	"_Bool\000"
 2268      6C00
 2269              	.LASF153:
 2270 0267 474E5520 		.ascii	"GNU C11 6.3.1 20170215 (release) [ARM/embedded-6-br"
 2270      43313120 
ARM GAS  /tmp/ccBBWsqH.s 			page 43


 2270      362E332E 
 2270      31203230 
 2270      31373032 
 2271 029a 616E6368 		.ascii	"anch revision 245512] -mcpu=cortex-m0 -mno-thumb-in"
 2271      20726576 
 2271      6973696F 
 2271      6E203234 
 2271      35353132 
 2272 02cd 74657277 		.ascii	"terwork -mthumb -ggdb -O0 -fomit-frame-pointer -fal"
 2272      6F726B20 
 2272      2D6D7468 
 2272      756D6220 
 2272      2D676764 
 2273 0300 69676E2D 		.ascii	"ign-functions=16 -ffunction-sections -fdata-section"
 2273      66756E63 
 2273      74696F6E 
 2273      733D3136 
 2273      202D6666 
 2274 0333 7300     		.ascii	"s\000"
 2275              	.LASF147:
 2276 0335 74657374 		.ascii	"testmsg1\000"
 2276      6D736731 
 2276      00
 2277              	.LASF109:
 2278 033e 63685F6D 		.ascii	"ch_mutex\000"
 2278      75746578 
 2278      00
 2279              	.LASF14:
 2280 0347 5F5F7569 		.ascii	"__uint64_t\000"
 2280      6E743634 
 2280      5F7400
 2281              	.LASF123:
 2282 0352 63665F6F 		.ascii	"cf_off_ctx\000"
 2282      66665F63 
 2282      747800
 2283              	.LASF127:
 2284 035d 63665F6F 		.ascii	"cf_off_stklimit\000"
 2284      66665F73 
 2284      746B6C69 
 2284      6D697400 
 2285              	.LASF36:
 2286 036d 705F6E61 		.ascii	"p_name\000"
 2286      6D6500
 2287              	.LASF67:
 2288 0374 76745F64 		.ascii	"vt_delta\000"
 2288      656C7461 
 2288      00
 2289              	.LASF155:
 2290 037d 2F686F6D 		.ascii	"/home/felix/Desktop/workspace/esho/UltrasonicCortex"
 2290      652F6665 
 2290      6C69782F 
 2290      4465736B 
 2290      746F702F 
 2291 03b0 2F00     		.ascii	"/\000"
 2292              	.LASF48:
 2293 03b2 74687265 		.ascii	"thread_reference_t\000"
 2293      61645F72 
ARM GAS  /tmp/ccBBWsqH.s 			page 44


 2293      65666572 
 2293      656E6365 
 2293      5F7400
 2294              	.LASF72:
 2295 03c5 76745F6C 		.ascii	"vt_lasttime\000"
 2295      61737474 
 2295      696D6500 
 2296              	.LASF22:
 2297 03d1 74737461 		.ascii	"tstate_t\000"
 2297      74655F74 
 2297      00
 2298              	.LASF91:
 2299 03da 73655F74 		.ascii	"se_tp\000"
 2299      7000
 2300              	.LASF35:
 2301 03e0 705F6F6C 		.ascii	"p_older\000"
 2301      64657200 
 2302              	.LASF38:
 2303 03e8 705F7374 		.ascii	"p_state\000"
 2303      61746500 
 2304              	.LASF37:
 2305 03f0 705F7374 		.ascii	"p_stklimit\000"
 2305      6B6C696D 
 2305      697400
 2306              	.LASF16:
 2307 03fb 75696E74 		.ascii	"uint8_t\000"
 2307      385F7400 
 2308              	.LASF97:
 2309 0403 74625F62 		.ascii	"tb_buffer\000"
 2309      75666665 
 2309      7200
 2310              	.LASF47:
 2311 040d 705F6D70 		.ascii	"p_mpool\000"
 2311      6F6F6C00 
 2312              	.LASF45:
 2313 0415 705F6D74 		.ascii	"p_mtxlist\000"
 2313      786C6973 
 2313      7400
 2314              	.LASF50:
 2315 041f 63685F74 		.ascii	"ch_thread\000"
 2315      68726561 
 2315      6400
 2316              	.LASF141:
 2317 0429 65786563 		.ascii	"execute\000"
 2317      75746500 
 2318              	.LASF95:
 2319 0431 74625F73 		.ascii	"tb_size\000"
 2319      697A6500 
 2320              	.LASF149:
 2321 0439 6D736731 		.ascii	"msg1_execute\000"
 2321      5F657865 
 2321      63757465 
 2321      00
 2322              	.LASF73:
 2323 0446 73797374 		.ascii	"system_debug_t\000"
 2323      656D5F64 
 2323      65627567 
ARM GAS  /tmp/ccBBWsqH.s 			page 45


 2323      5F7400
 2324              	.LASF1:
 2325 0455 6C6F6E67 		.ascii	"long long int\000"
 2325      206C6F6E 
 2325      6720696E 
 2325      7400
 2326              	.LASF56:
 2327 0463 725F7175 		.ascii	"r_queue\000"
 2327      65756500 
 2328              	.LASF59:
 2329 046b 725F6E65 		.ascii	"r_newer\000"
 2329      77657200 
 2330              	.LASF25:
 2331 0473 6D73675F 		.ascii	"msg_t\000"
 2331      7400
 2332              	.LASF88:
 2333 0479 636F6E74 		.ascii	"context\000"
 2333      65787400 
 2334              	.LASF140:
 2335 0481 74656172 		.ascii	"teardown\000"
 2335      646F776E 
 2335      00
 2336              	.LASF39:
 2337 048a 705F666C 		.ascii	"p_flags\000"
 2337      61677300 
 2338              	.LASF63:
 2339 0492 76697274 		.ascii	"virtual_timer_t\000"
 2339      75616C5F 
 2339      74696D65 
 2339      725F7400 
 2340              	.LASF130:
 2341 04a2 63665F6F 		.ascii	"cf_off_refs\000"
 2341      66665F72 
 2341      65667300 
 2342              	.LASF116:
 2343 04ae 63685F7A 		.ascii	"ch_zero\000"
 2343      65726F00 
 2344              	.LASF96:
 2345 04b6 74625F70 		.ascii	"tb_ptr\000"
 2345      747200
 2346              	.LASF60:
 2347 04bd 725F6F6C 		.ascii	"r_older\000"
 2347      64657200 
 2348              	.LASF75:
 2349 04c5 70616E69 		.ascii	"panic_msg\000"
 2349      635F6D73 
 2349      6700
 2350              	.LASF43:
 2351 04cf 705F6D73 		.ascii	"p_msg\000"
 2351      6700
 2352              	.LASF21:
 2353 04d5 746D6F64 		.ascii	"tmode_t\000"
 2353      655F7400 
 2354              	.LASF117:
 2355 04dd 63685F73 		.ascii	"ch_size\000"
 2355      697A6500 
 2356              	.LASF83:
ARM GAS  /tmp/ccBBWsqH.s 			page 46


 2357 04e5 6D61696E 		.ascii	"mainthread\000"
 2357      74687265 
 2357      616400
 2358              	.LASF2:
 2359 04f0 6C6F6E67 		.ascii	"long double\000"
 2359      20646F75 
 2359      626C6500 
 2360              	.LASF17:
 2361 04fc 75696E74 		.ascii	"uint16_t\000"
 2361      31365F74 
 2361      00
 2362              	.LASF133:
 2363 0505 63686465 		.ascii	"chdebug_t\000"
 2363      6275675F 
 2363      7400
 2364              	.LASF150:
 2365 050f 74687265 		.ascii	"thread\000"
 2365      616400
 2366              	.LASF77:
 2367 0516 6C6F636B 		.ascii	"lock_cnt\000"
 2367      5F636E74 
 2367      00
 2368              	.LASF46:
 2369 051f 705F7265 		.ascii	"p_realprio\000"
 2369      616C7072 
 2369      696F00
 2370              	.LASF118:
 2371 052a 63685F76 		.ascii	"ch_version\000"
 2371      65727369 
 2371      6F6E00
 2372              	.LASF7:
 2373 0535 73686F72 		.ascii	"short int\000"
 2373      7420696E 
 2373      7400
 2374              	.LASF61:
 2375 053f 725F6375 		.ascii	"r_current\000"
 2375      7272656E 
 2375      7400
 2376              	.LASF44:
 2377 0549 705F6570 		.ascii	"p_epending\000"
 2377      656E6469 
 2377      6E6700
 2378              	.LASF110:
 2379 0554 6D5F7175 		.ascii	"m_queue\000"
 2379      65756500 
 2380              	.LASF11:
 2381 055c 6C6F6E67 		.ascii	"long int\000"
 2381      20696E74 
 2381      00
 2382              	.LASF89:
 2383 0565 706F7274 		.ascii	"port_intctx\000"
 2383      5F696E74 
 2383      63747800 
 2384              	.LASF151:
 2385 0571 63685468 		.ascii	"chThdGetPriorityX\000"
 2385      64476574 
 2385      5072696F 
ARM GAS  /tmp/ccBBWsqH.s 			page 47


 2385      72697479 
 2385      5800
 2386              	.LASF80:
 2387 0583 63685F73 		.ascii	"ch_system\000"
 2387      79737465 
 2387      6D00
 2388              	.LASF30:
 2389 058d 705F6E65 		.ascii	"p_next\000"
 2389      787400
 2390              	.LASF20:
 2391 0594 75696E74 		.ascii	"uint64_t\000"
 2391      36345F74 
 2391      00
 2392              	.LASF33:
 2393 059d 705F6374 		.ascii	"p_ctx\000"
 2393      7800
 2394              	.LASF81:
 2395 05a3 726C6973 		.ascii	"rlist\000"
 2395      7400
 2396              	.LASF132:
 2397 05a9 63665F6F 		.ascii	"cf_off_time\000"
 2397      66665F74 
 2397      696D6500 
 2398              	.LASF122:
 2399 05b5 63665F6F 		.ascii	"cf_off_prio\000"
 2399      66665F70 
 2399      72696F00 
 2400              	.LASF5:
 2401 05c1 5F5F7569 		.ascii	"__uint8_t\000"
 2401      6E74385F 
 2401      7400
 2402              	.LASF138:
 2403 05cb 6E616D65 		.ascii	"name\000"
 2403      00
 2404              	.LASF115:
 2405 05d0 63685F69 		.ascii	"ch_identifier\000"
 2405      64656E74 
 2405      69666965 
 2405      7200
 2406              	.LASF31:
 2407 05de 705F7072 		.ascii	"p_prev\000"
 2407      657600
 2408              	.LASF85:
 2409 05e5 73697A65 		.ascii	"sizetype\000"
 2409      74797065 
 2409      00
 2410              	.LASF23:
 2411 05ee 74726566 		.ascii	"trefs_t\000"
 2411      735F7400 
 2412              	.LASF13:
 2413 05f6 6C6F6E67 		.ascii	"long unsigned int\000"
 2413      20756E73 
 2413      69676E65 
 2413      6420696E 
 2413      7400
 2414              	.LASF128:
 2415 0608 63665F6F 		.ascii	"cf_off_state\000"
ARM GAS  /tmp/ccBBWsqH.s 			page 48


 2415      66665F73 
 2415      74617465 
 2415      00
 2416              	.LASF54:
 2417 0615 72656164 		.ascii	"ready_list_t\000"
 2417      795F6C69 
 2417      73745F74 
 2417      00
 2418              	.LASF144:
 2419 0622 74687265 		.ascii	"threads\000"
 2419      61647300 
 2420              	.LASF18:
 2421 062a 696E7433 		.ascii	"int32_t\000"
 2421      325F7400 
 2422              	.LASF78:
 2423 0632 74726163 		.ascii	"trace_buffer\000"
 2423      655F6275 
 2423      66666572 
 2423      00
 2424              	.LASF103:
 2425 063f 77747365 		.ascii	"wtsemp\000"
 2425      6D7000
 2426              	.LASF94:
 2427 0646 63685F73 		.ascii	"ch_swc_event_t\000"
 2427      77635F65 
 2427      76656E74 
 2427      5F7400
 2428              	.LASF135:
 2429 0655 6D757465 		.ascii	"mutex_t\000"
 2429      785F7400 
 2430              	.LASF6:
 2431 065d 756E7369 		.ascii	"unsigned char\000"
 2431      676E6564 
 2431      20636861 
 2431      7200
 2432              	.LASF139:
 2433 066b 73657475 		.ascii	"setup\000"
 2433      7000
 2434              	.LASF12:
 2435 0671 5F5F7569 		.ascii	"__uint32_t\000"
 2435      6E743332 
 2435      5F7400
 2436              	.LASF70:
 2437 067c 76697274 		.ascii	"virtual_timers_list_t\000"
 2437      75616C5F 
 2437      74696D65 
 2437      72735F6C 
 2437      6973745F 
 2438              	.LASF40:
 2439 0692 705F7265 		.ascii	"p_refs\000"
 2439      667300
 2440              	.LASF156:
 2441 0699 74657374 		.ascii	"test_buffers\000"
 2441      5F627566 
 2441      66657273 
 2441      00
 2442              	.LASF65:
ARM GAS  /tmp/ccBBWsqH.s 			page 49


 2443 06a6 76745F6E 		.ascii	"vt_next\000"
 2443      65787400 
 2444              	.LASF79:
 2445 06ae 63685F73 		.ascii	"ch_system_t\000"
 2445      79737465 
 2445      6D5F7400 
 2446              	.LASF102:
 2447 06ba 77747472 		.ascii	"wttrp\000"
 2447      7000
 2448              	.LASF98:
 2449 06c0 63685F74 		.ascii	"ch_trace_buffer_t\000"
 2449      72616365 
 2449      5F627566 
 2449      6665725F 
 2449      7400
 2450              	.LASF112:
 2451 06d2 6D5F6E65 		.ascii	"m_next\000"
 2451      787400
 2452              	.LASF3:
 2453 06d9 7369676E 		.ascii	"signed char\000"
 2453      65642063 
 2453      68617200 
 2454              	.LASF124:
 2455 06e5 63665F6F 		.ascii	"cf_off_newer\000"
 2455      66665F6E 
 2455      65776572 
 2455      00
 2456              	.LASF9:
 2457 06f2 73686F72 		.ascii	"short unsigned int\000"
 2457      7420756E 
 2457      7369676E 
 2457      65642069 
 2457      6E7400
 2458              	.LASF58:
 2459 0705 725F6374 		.ascii	"r_ctx\000"
 2459      7800
 2460              	.LASF87:
 2461 070b 73746B61 		.ascii	"stkalign_t\000"
 2461      6C69676E 
 2461      5F7400
 2462              	.LASF152:
 2463 0716 63685468 		.ascii	"chThdGetSelfX\000"
 2463      64476574 
 2463      53656C66 
 2463      5800
 2464              	.LASF134:
 2465 0724 63685F64 		.ascii	"ch_debug\000"
 2465      65627567 
 2465      00
 2466              	.LASF68:
 2467 072d 76745F66 		.ascii	"vt_func\000"
 2467      756E6300 
 2468              	.LASF154:
 2469 0735 43686962 		.ascii	"ChibiOS/test/rt/testmsg.c\000"
 2469      694F532F 
 2469      74657374 
 2469      2F72742F 
ARM GAS  /tmp/ccBBWsqH.s 			page 50


 2469      74657374 
 2470              	.LASF66:
 2471 074f 76745F70 		.ascii	"vt_prev\000"
 2471      72657600 
 2472              	.LASF146:
 2473 0757 74657374 		.ascii	"test_timer_done\000"
 2473      5F74696D 
 2473      65725F64 
 2473      6F6E6500 
 2474              	.LASF100:
 2475 0767 65786974 		.ascii	"exitcode\000"
 2475      636F6465 
 2475      00
 2476              		.ident	"GCC: (GNU Tools for ARM Embedded Processors 6-2017-q1-update) 6.3.1 20170215 (release) [AR
ARM GAS  /tmp/ccBBWsqH.s 			page 51


DEFINED SYMBOLS
                            *ABS*:0000000000000000 testmsg.c
     /tmp/ccBBWsqH.s:16     .text.chThdGetSelfX:0000000000000000 $t
     /tmp/ccBBWsqH.s:23     .text.chThdGetSelfX:0000000000000000 chThdGetSelfX
     /tmp/ccBBWsqH.s:41     .text.chThdGetSelfX:0000000000000008 $d
     /tmp/ccBBWsqH.s:46     .text.chThdGetPriorityX:0000000000000000 $t
     /tmp/ccBBWsqH.s:53     .text.chThdGetPriorityX:0000000000000000 chThdGetPriorityX
     /tmp/ccBBWsqH.s:75     .text.chMsgGet:0000000000000000 $t
     /tmp/ccBBWsqH.s:82     .text.chMsgGet:0000000000000000 chMsgGet
     /tmp/ccBBWsqH.s:105    .text.thread:0000000000000000 $t
     /tmp/ccBBWsqH.s:112    .text.thread:0000000000000000 thread
     /tmp/ccBBWsqH.s:149    .rodata:0000000000000000 $d
     /tmp/ccBBWsqH.s:153    .text.msg1_execute:0000000000000000 $t
     /tmp/ccBBWsqH.s:160    .text.msg1_execute:0000000000000000 msg1_execute
     /tmp/ccBBWsqH.s:268    .text.msg1_execute:00000000000000b8 $d
     /tmp/ccBBWsqH.s:284    .rodata.testmsg1:0000000000000000 testmsg1
     /tmp/ccBBWsqH.s:281    .rodata.testmsg1:0000000000000000 $d
     /tmp/ccBBWsqH.s:294    .rodata.patternmsg:0000000000000000 patternmsg
     /tmp/ccBBWsqH.s:291    .rodata.patternmsg:0000000000000000 $d
                     .debug_frame:0000000000000010 $d

UNDEFINED SYMBOLS
ch
chMsgSend
chThdCreateStatic
chMsgWait
chMsgRelease
test_emit_token
_test_assert_sequence
wa
threads
