ARM GAS  /tmp/ccL53n49.s 			page 1


   1              		.cpu cortex-m0
   2              		.eabi_attribute 20, 1
   3              		.eabi_attribute 21, 1
   4              		.eabi_attribute 23, 3
   5              		.eabi_attribute 24, 1
   6              		.eabi_attribute 25, 1
   7              		.eabi_attribute 26, 1
   8              		.eabi_attribute 30, 6
   9              		.eabi_attribute 34, 0
  10              		.eabi_attribute 18, 4
  11              		.file	"testqueues.c"
  12              		.text
  13              	.Ltext0:
  14              		.cfi_sections	.debug_frame
  15              		.section	.text.port_lock,"ax",%progbits
  16              		.align	1
  17              		.p2align 4,,15
  18              		.syntax unified
  19              		.code	16
  20              		.thumb_func
  21              		.fpu softvfp
  22              		.type	port_lock, %function
  23              	port_lock:
  24              	.LFB38:
  25              		.file 1 "ChibiOS/os/rt/ports/ARMCMx/chcore_v6m.h"
  26              		.loc 1 330 0
  27              		.cfi_startproc
  28              		@ args = 0, pretend = 0, frame = 0
  29              		@ frame_needed = 0, uses_anonymous_args = 0
  30              		@ link register save eliminated.
  31              	.LBB6:
  32              	.LBB7:
  33              		.file 2 "ChibiOS/os/ext/CMSIS/include/core_cmFunc.h"
  34              		.loc 2 344 0
  35              		.syntax divided
  36              	@ 344 "ChibiOS/os/ext/CMSIS/include/core_cmFunc.h" 1
  37 0000 72B6     		cpsid i
  38              	@ 0 "" 2
  39              		.thumb
  40              		.syntax unified
  41              	.LBE7:
  42              	.LBE6:
  43              		.loc 1 333 0
  44 0002 C046     		nop
  45              		@ sp needed
  46 0004 7047     		bx	lr
  47              		.cfi_endproc
  48              	.LFE38:
  49              		.size	port_lock, .-port_lock
  50 0006 C046     		.section	.text.port_unlock,"ax",%progbits
  51              		.align	1
  52              		.p2align 4,,15
  53              		.syntax unified
  54              		.code	16
  55              		.thumb_func
  56              		.fpu softvfp
  57              		.type	port_unlock, %function
ARM GAS  /tmp/ccL53n49.s 			page 2


  58              	port_unlock:
  59              	.LFB39:
  60              		.loc 1 339 0
  61              		.cfi_startproc
  62              		@ args = 0, pretend = 0, frame = 0
  63              		@ frame_needed = 0, uses_anonymous_args = 0
  64              		@ link register save eliminated.
  65              	.LBB8:
  66              	.LBB9:
  67              		.loc 2 333 0
  68              		.syntax divided
  69              	@ 333 "ChibiOS/os/ext/CMSIS/include/core_cmFunc.h" 1
  70 0000 62B6     		cpsie i
  71              	@ 0 "" 2
  72              		.thumb
  73              		.syntax unified
  74              	.LBE9:
  75              	.LBE8:
  76              		.loc 1 342 0
  77 0002 C046     		nop
  78              		@ sp needed
  79 0004 7047     		bx	lr
  80              		.cfi_endproc
  81              	.LFE39:
  82              		.size	port_unlock, .-port_unlock
  83 0006 C046     		.section	.text.chSysLock,"ax",%progbits
  84              		.align	1
  85              		.p2align 4,,15
  86              		.syntax unified
  87              		.code	16
  88              		.thumb_func
  89              		.fpu softvfp
  90              		.type	chSysLock, %function
  91              	chSysLock:
  92              	.LFB77:
  93              		.file 3 "ChibiOS/os/rt/include/chsys.h"
  94              		.loc 3 346 0
  95              		.cfi_startproc
  96              		@ args = 0, pretend = 0, frame = 0
  97              		@ frame_needed = 0, uses_anonymous_args = 0
  98 0000 10B5     		push	{r4, lr}
  99              		.cfi_def_cfa_offset 8
 100              		.cfi_offset 4, -8
 101              		.cfi_offset 14, -4
 102              		.loc 3 348 0
 103 0002 FFF7FEFF 		bl	port_lock
 104              		.loc 3 350 0
 105 0006 FFF7FEFF 		bl	_dbg_check_lock
 106              		.loc 3 351 0
 107 000a C046     		nop
 108              		@ sp needed
 109 000c 10BD     		pop	{r4, pc}
 110              		.cfi_endproc
 111              	.LFE77:
 112              		.size	chSysLock, .-chSysLock
 113 000e C046     		.section	.text.chSysUnlock,"ax",%progbits
 114              		.align	1
ARM GAS  /tmp/ccL53n49.s 			page 3


 115              		.p2align 4,,15
 116              		.syntax unified
 117              		.code	16
 118              		.thumb_func
 119              		.fpu softvfp
 120              		.type	chSysUnlock, %function
 121              	chSysUnlock:
 122              	.LFB78:
 123              		.loc 3 358 0
 124              		.cfi_startproc
 125              		@ args = 0, pretend = 0, frame = 0
 126              		@ frame_needed = 0, uses_anonymous_args = 0
 127 0000 10B5     		push	{r4, lr}
 128              		.cfi_def_cfa_offset 8
 129              		.cfi_offset 4, -8
 130              		.cfi_offset 14, -4
 131              		.loc 3 360 0
 132 0002 FFF7FEFF 		bl	_dbg_check_unlock
 133              		.loc 3 367 0
 134 0006 0A4B     		ldr	r3, .L6
 135 0008 1A68     		ldr	r2, [r3]
 136 000a 094B     		ldr	r3, .L6
 137 000c 9A42     		cmp	r2, r3
 138 000e 0BD0     		beq	.L5
 139              		.loc 3 367 0 is_stmt 0 discriminator 2
 140 0010 074B     		ldr	r3, .L6
 141 0012 9B69     		ldr	r3, [r3, #24]
 142 0014 9A68     		ldr	r2, [r3, #8]
 143 0016 064B     		ldr	r3, .L6
 144 0018 1B68     		ldr	r3, [r3]
 145 001a 9B68     		ldr	r3, [r3, #8]
 146 001c 9A42     		cmp	r2, r3
 147 001e 03D2     		bcs	.L5
 148              		.loc 3 367 0 discriminator 3
 149 0020 044B     		ldr	r3, .L6+4
 150 0022 1800     		movs	r0, r3
 151 0024 FFF7FEFF 		bl	chSysHalt
 152              	.L5:
 153              		.loc 3 371 0 is_stmt 1
 154 0028 FFF7FEFF 		bl	port_unlock
 155              		.loc 3 372 0
 156 002c C046     		nop
 157              		@ sp needed
 158 002e 10BD     		pop	{r4, pc}
 159              	.L7:
 160              		.align	2
 161              	.L6:
 162 0030 00000000 		.word	ch
 163 0034 00000000 		.word	__func__.4993
 164              		.cfi_endproc
 165              	.LFE78:
 166              		.size	chSysUnlock, .-chSysUnlock
 167              		.section	.text.chThdGetSelfX,"ax",%progbits
 168              		.align	1
 169              		.p2align 4,,15
 170              		.syntax unified
 171              		.code	16
ARM GAS  /tmp/ccL53n49.s 			page 4


 172              		.thumb_func
 173              		.fpu softvfp
 174              		.type	chThdGetSelfX, %function
 175              	chThdGetSelfX:
 176              	.LFB99:
 177              		.file 4 "ChibiOS/os/rt/include/chthreads.h"
 178              		.loc 4 174 0
 179              		.cfi_startproc
 180              		@ args = 0, pretend = 0, frame = 0
 181              		@ frame_needed = 0, uses_anonymous_args = 0
 182              		@ link register save eliminated.
 183              		.loc 4 176 0
 184 0000 014B     		ldr	r3, .L10
 185 0002 9B69     		ldr	r3, [r3, #24]
 186              		.loc 4 177 0
 187 0004 1800     		movs	r0, r3
 188              		@ sp needed
 189 0006 7047     		bx	lr
 190              	.L11:
 191              		.align	2
 192              	.L10:
 193 0008 00000000 		.word	ch
 194              		.cfi_endproc
 195              	.LFE99:
 196              		.size	chThdGetSelfX, .-chThdGetSelfX
 197              		.section	.text.chThdGetPriorityX,"ax",%progbits
 198              		.align	1
 199              		.p2align 4,,15
 200              		.syntax unified
 201              		.code	16
 202              		.thumb_func
 203              		.fpu softvfp
 204              		.type	chThdGetPriorityX, %function
 205              	chThdGetPriorityX:
 206              	.LFB100:
 207              		.loc 4 187 0
 208              		.cfi_startproc
 209              		@ args = 0, pretend = 0, frame = 0
 210              		@ frame_needed = 0, uses_anonymous_args = 0
 211 0000 10B5     		push	{r4, lr}
 212              		.cfi_def_cfa_offset 8
 213              		.cfi_offset 4, -8
 214              		.cfi_offset 14, -4
 215              		.loc 4 189 0
 216 0002 FFF7FEFF 		bl	chThdGetSelfX
 217 0006 0300     		movs	r3, r0
 218 0008 9B68     		ldr	r3, [r3, #8]
 219              		.loc 4 190 0
 220 000a 1800     		movs	r0, r3
 221              		@ sp needed
 222 000c 10BD     		pop	{r4, pc}
 223              		.cfi_endproc
 224              	.LFE100:
 225              		.size	chThdGetPriorityX, .-chThdGetPriorityX
 226 000e C046     		.section	.text.chIQGetFullI,"ax",%progbits
 227              		.align	1
 228              		.p2align 4,,15
ARM GAS  /tmp/ccL53n49.s 			page 5


 229              		.syntax unified
 230              		.code	16
 231              		.thumb_func
 232              		.fpu softvfp
 233              		.type	chIQGetFullI, %function
 234              	chIQGetFullI:
 235              	.LFB142:
 236              		.file 5 "ChibiOS/os/rt/include/chqueues.h"
 237              		.loc 5 270 0
 238              		.cfi_startproc
 239              		@ args = 0, pretend = 0, frame = 8
 240              		@ frame_needed = 0, uses_anonymous_args = 0
 241 0000 00B5     		push	{lr}
 242              		.cfi_def_cfa_offset 4
 243              		.cfi_offset 14, -4
 244 0002 83B0     		sub	sp, sp, #12
 245              		.cfi_def_cfa_offset 16
 246 0004 0190     		str	r0, [sp, #4]
 247              		.loc 5 272 0
 248 0006 FFF7FEFF 		bl	chDbgCheckClassI
 249              		.loc 5 274 0
 250 000a 019B     		ldr	r3, [sp, #4]
 251 000c 9B68     		ldr	r3, [r3, #8]
 252              		.loc 5 275 0
 253 000e 1800     		movs	r0, r3
 254 0010 03B0     		add	sp, sp, #12
 255              		@ sp needed
 256 0012 00BD     		pop	{pc}
 257              		.cfi_endproc
 258              	.LFE142:
 259              		.size	chIQGetFullI, .-chIQGetFullI
 260              		.section	.text.chIQIsEmptyI,"ax",%progbits
 261              		.align	1
 262              		.p2align 4,,15
 263              		.syntax unified
 264              		.code	16
 265              		.thumb_func
 266              		.fpu softvfp
 267              		.type	chIQIsEmptyI, %function
 268              	chIQIsEmptyI:
 269              	.LFB144:
 270              		.loc 5 303 0
 271              		.cfi_startproc
 272              		@ args = 0, pretend = 0, frame = 8
 273              		@ frame_needed = 0, uses_anonymous_args = 0
 274 0000 00B5     		push	{lr}
 275              		.cfi_def_cfa_offset 4
 276              		.cfi_offset 14, -4
 277 0002 83B0     		sub	sp, sp, #12
 278              		.cfi_def_cfa_offset 16
 279 0004 0190     		str	r0, [sp, #4]
 280              		.loc 5 305 0
 281 0006 FFF7FEFF 		bl	chDbgCheckClassI
 282              		.loc 5 307 0
 283 000a 019B     		ldr	r3, [sp, #4]
 284 000c 9B68     		ldr	r3, [r3, #8]
 285 000e 5A42     		rsbs	r2, r3, #0
ARM GAS  /tmp/ccL53n49.s 			page 6


 286 0010 5341     		adcs	r3, r3, r2
 287 0012 DBB2     		uxtb	r3, r3
 288              		.loc 5 308 0
 289 0014 1800     		movs	r0, r3
 290 0016 03B0     		add	sp, sp, #12
 291              		@ sp needed
 292 0018 00BD     		pop	{pc}
 293              		.cfi_endproc
 294              	.LFE144:
 295              		.size	chIQIsEmptyI, .-chIQIsEmptyI
 296 001a C046     		.section	.text.chIQIsFullI,"ax",%progbits
 297              		.align	1
 298              		.p2align 4,,15
 299              		.syntax unified
 300              		.code	16
 301              		.thumb_func
 302              		.fpu softvfp
 303              		.type	chIQIsFullI, %function
 304              	chIQIsFullI:
 305              	.LFB145:
 306              		.loc 5 320 0
 307              		.cfi_startproc
 308              		@ args = 0, pretend = 0, frame = 8
 309              		@ frame_needed = 0, uses_anonymous_args = 0
 310 0000 00B5     		push	{lr}
 311              		.cfi_def_cfa_offset 4
 312              		.cfi_offset 14, -4
 313 0002 83B0     		sub	sp, sp, #12
 314              		.cfi_def_cfa_offset 16
 315 0004 0190     		str	r0, [sp, #4]
 316              		.loc 5 322 0
 317 0006 FFF7FEFF 		bl	chDbgCheckClassI
 318              		.loc 5 325 0
 319 000a 019B     		ldr	r3, [sp, #4]
 320 000c 5A69     		ldr	r2, [r3, #20]
 321 000e 019B     		ldr	r3, [sp, #4]
 322 0010 9B69     		ldr	r3, [r3, #24]
 323 0012 9A42     		cmp	r2, r3
 324 0014 05D1     		bne	.L19
 325              		.loc 5 325 0 is_stmt 0 discriminator 1
 326 0016 019B     		ldr	r3, [sp, #4]
 327 0018 9B68     		ldr	r3, [r3, #8]
 328 001a 002B     		cmp	r3, #0
 329 001c 01D0     		beq	.L19
 330              		.loc 5 325 0 discriminator 3
 331 001e 0123     		movs	r3, #1
 332 0020 00E0     		b	.L20
 333              	.L19:
 334              		.loc 5 325 0 discriminator 4
 335 0022 0023     		movs	r3, #0
 336              	.L20:
 337              		.loc 5 325 0 discriminator 6
 338 0024 1A1C     		adds	r2, r3, #0
 339 0026 0123     		movs	r3, #1
 340 0028 1340     		ands	r3, r2
 341 002a DBB2     		uxtb	r3, r3
 342              		.loc 5 327 0 is_stmt 1 discriminator 6
ARM GAS  /tmp/ccL53n49.s 			page 7


 343 002c 1800     		movs	r0, r3
 344 002e 03B0     		add	sp, sp, #12
 345              		@ sp needed
 346 0030 00BD     		pop	{pc}
 347              		.cfi_endproc
 348              	.LFE145:
 349              		.size	chIQIsFullI, .-chIQIsFullI
 350 0032 C046     		.section	.text.chIQGet,"ax",%progbits
 351              		.align	1
 352              		.p2align 4,,15
 353              		.syntax unified
 354              		.code	16
 355              		.thumb_func
 356              		.fpu softvfp
 357              		.type	chIQGet, %function
 358              	chIQGet:
 359              	.LFB146:
 360              		.loc 5 341 0
 361              		.cfi_startproc
 362              		@ args = 0, pretend = 0, frame = 8
 363              		@ frame_needed = 0, uses_anonymous_args = 0
 364 0000 00B5     		push	{lr}
 365              		.cfi_def_cfa_offset 4
 366              		.cfi_offset 14, -4
 367 0002 83B0     		sub	sp, sp, #12
 368              		.cfi_def_cfa_offset 16
 369 0004 0190     		str	r0, [sp, #4]
 370              		.loc 5 343 0
 371 0006 054A     		ldr	r2, .L24
 372 0008 019B     		ldr	r3, [sp, #4]
 373 000a 1100     		movs	r1, r2
 374 000c 1800     		movs	r0, r3
 375 000e FFF7FEFF 		bl	chIQGetTimeout
 376 0012 0300     		movs	r3, r0
 377              		.loc 5 344 0
 378 0014 1800     		movs	r0, r3
 379 0016 03B0     		add	sp, sp, #12
 380              		@ sp needed
 381 0018 00BD     		pop	{pc}
 382              	.L25:
 383 001a C046     		.align	2
 384              	.L24:
 385 001c FFFF0000 		.word	65535
 386              		.cfi_endproc
 387              	.LFE146:
 388              		.size	chIQGet, .-chIQGet
 389              		.section	.text.chOQGetFullI,"ax",%progbits
 390              		.align	1
 391              		.p2align 4,,15
 392              		.syntax unified
 393              		.code	16
 394              		.thumb_func
 395              		.fpu softvfp
 396              		.type	chOQGetFullI, %function
 397              	chOQGetFullI:
 398              	.LFB147:
 399              		.loc 5 355 0
ARM GAS  /tmp/ccL53n49.s 			page 8


 400              		.cfi_startproc
 401              		@ args = 0, pretend = 0, frame = 8
 402              		@ frame_needed = 0, uses_anonymous_args = 0
 403 0000 00B5     		push	{lr}
 404              		.cfi_def_cfa_offset 4
 405              		.cfi_offset 14, -4
 406 0002 83B0     		sub	sp, sp, #12
 407              		.cfi_def_cfa_offset 16
 408 0004 0190     		str	r0, [sp, #4]
 409              		.loc 5 357 0
 410 0006 FFF7FEFF 		bl	chDbgCheckClassI
 411              		.loc 5 359 0
 412 000a 019B     		ldr	r3, [sp, #4]
 413 000c 1B69     		ldr	r3, [r3, #16]
 414 000e 1A00     		movs	r2, r3
 415 0010 019B     		ldr	r3, [sp, #4]
 416 0012 DB68     		ldr	r3, [r3, #12]
 417 0014 D31A     		subs	r3, r2, r3
 418 0016 1A00     		movs	r2, r3
 419 0018 019B     		ldr	r3, [sp, #4]
 420 001a 9B68     		ldr	r3, [r3, #8]
 421 001c D31A     		subs	r3, r2, r3
 422              		.loc 5 360 0
 423 001e 1800     		movs	r0, r3
 424 0020 03B0     		add	sp, sp, #12
 425              		@ sp needed
 426 0022 00BD     		pop	{pc}
 427              		.cfi_endproc
 428              	.LFE147:
 429              		.size	chOQGetFullI, .-chOQGetFullI
 430              		.section	.text.chOQIsEmptyI,"ax",%progbits
 431              		.align	1
 432              		.p2align 4,,15
 433              		.syntax unified
 434              		.code	16
 435              		.thumb_func
 436              		.fpu softvfp
 437              		.type	chOQIsEmptyI, %function
 438              	chOQIsEmptyI:
 439              	.LFB149:
 440              		.loc 5 388 0
 441              		.cfi_startproc
 442              		@ args = 0, pretend = 0, frame = 8
 443              		@ frame_needed = 0, uses_anonymous_args = 0
 444 0000 00B5     		push	{lr}
 445              		.cfi_def_cfa_offset 4
 446              		.cfi_offset 14, -4
 447 0002 83B0     		sub	sp, sp, #12
 448              		.cfi_def_cfa_offset 16
 449 0004 0190     		str	r0, [sp, #4]
 450              		.loc 5 390 0
 451 0006 FFF7FEFF 		bl	chDbgCheckClassI
 452              		.loc 5 393 0
 453 000a 019B     		ldr	r3, [sp, #4]
 454 000c 5A69     		ldr	r2, [r3, #20]
 455 000e 019B     		ldr	r3, [sp, #4]
 456 0010 9B69     		ldr	r3, [r3, #24]
ARM GAS  /tmp/ccL53n49.s 			page 9


 457 0012 9A42     		cmp	r2, r3
 458 0014 05D1     		bne	.L29
 459              		.loc 5 393 0 is_stmt 0 discriminator 1
 460 0016 019B     		ldr	r3, [sp, #4]
 461 0018 9B68     		ldr	r3, [r3, #8]
 462 001a 002B     		cmp	r3, #0
 463 001c 01D0     		beq	.L29
 464              		.loc 5 393 0 discriminator 3
 465 001e 0123     		movs	r3, #1
 466 0020 00E0     		b	.L30
 467              	.L29:
 468              		.loc 5 393 0 discriminator 4
 469 0022 0023     		movs	r3, #0
 470              	.L30:
 471              		.loc 5 393 0 discriminator 6
 472 0024 1A1C     		adds	r2, r3, #0
 473 0026 0123     		movs	r3, #1
 474 0028 1340     		ands	r3, r2
 475 002a DBB2     		uxtb	r3, r3
 476              		.loc 5 395 0 is_stmt 1 discriminator 6
 477 002c 1800     		movs	r0, r3
 478 002e 03B0     		add	sp, sp, #12
 479              		@ sp needed
 480 0030 00BD     		pop	{pc}
 481              		.cfi_endproc
 482              	.LFE149:
 483              		.size	chOQIsEmptyI, .-chOQIsEmptyI
 484 0032 C046     		.section	.text.chOQIsFullI,"ax",%progbits
 485              		.align	1
 486              		.p2align 4,,15
 487              		.syntax unified
 488              		.code	16
 489              		.thumb_func
 490              		.fpu softvfp
 491              		.type	chOQIsFullI, %function
 492              	chOQIsFullI:
 493              	.LFB150:
 494              		.loc 5 407 0
 495              		.cfi_startproc
 496              		@ args = 0, pretend = 0, frame = 8
 497              		@ frame_needed = 0, uses_anonymous_args = 0
 498 0000 00B5     		push	{lr}
 499              		.cfi_def_cfa_offset 4
 500              		.cfi_offset 14, -4
 501 0002 83B0     		sub	sp, sp, #12
 502              		.cfi_def_cfa_offset 16
 503 0004 0190     		str	r0, [sp, #4]
 504              		.loc 5 409 0
 505 0006 FFF7FEFF 		bl	chDbgCheckClassI
 506              		.loc 5 411 0
 507 000a 019B     		ldr	r3, [sp, #4]
 508 000c 9B68     		ldr	r3, [r3, #8]
 509 000e 5A42     		rsbs	r2, r3, #0
 510 0010 5341     		adcs	r3, r3, r2
 511 0012 DBB2     		uxtb	r3, r3
 512              		.loc 5 412 0
 513 0014 1800     		movs	r0, r3
ARM GAS  /tmp/ccL53n49.s 			page 10


 514 0016 03B0     		add	sp, sp, #12
 515              		@ sp needed
 516 0018 00BD     		pop	{pc}
 517              		.cfi_endproc
 518              	.LFE150:
 519              		.size	chOQIsFullI, .-chOQIsFullI
 520 001a C046     		.section	.text.chOQPut,"ax",%progbits
 521              		.align	1
 522              		.p2align 4,,15
 523              		.syntax unified
 524              		.code	16
 525              		.thumb_func
 526              		.fpu softvfp
 527              		.type	chOQPut, %function
 528              	chOQPut:
 529              	.LFB151:
 530              		.loc 5 428 0
 531              		.cfi_startproc
 532              		@ args = 0, pretend = 0, frame = 8
 533              		@ frame_needed = 0, uses_anonymous_args = 0
 534 0000 00B5     		push	{lr}
 535              		.cfi_def_cfa_offset 4
 536              		.cfi_offset 14, -4
 537 0002 83B0     		sub	sp, sp, #12
 538              		.cfi_def_cfa_offset 16
 539 0004 0190     		str	r0, [sp, #4]
 540 0006 0A00     		movs	r2, r1
 541 0008 6B46     		mov	r3, sp
 542 000a 0333     		adds	r3, r3, #3
 543 000c 1A70     		strb	r2, [r3]
 544              		.loc 5 430 0
 545 000e 064A     		ldr	r2, .L36
 546 0010 6B46     		mov	r3, sp
 547 0012 0333     		adds	r3, r3, #3
 548 0014 1978     		ldrb	r1, [r3]
 549 0016 019B     		ldr	r3, [sp, #4]
 550 0018 1800     		movs	r0, r3
 551 001a FFF7FEFF 		bl	chOQPutTimeout
 552 001e 0300     		movs	r3, r0
 553              		.loc 5 431 0
 554 0020 1800     		movs	r0, r3
 555 0022 03B0     		add	sp, sp, #12
 556              		@ sp needed
 557 0024 00BD     		pop	{pc}
 558              	.L37:
 559 0026 C046     		.align	2
 560              	.L36:
 561 0028 FFFF0000 		.word	65535
 562              		.cfi_endproc
 563              	.LFE151:
 564              		.size	chOQPut, .-chOQPut
 565              		.section	.text.notify,"ax",%progbits
 566              		.align	1
 567              		.p2align 4,,15
 568              		.syntax unified
 569              		.code	16
 570              		.thumb_func
ARM GAS  /tmp/ccL53n49.s 			page 11


 571              		.fpu softvfp
 572              		.type	notify, %function
 573              	notify:
 574              	.LFB152:
 575              		.file 6 "ChibiOS/test/rt/testqueues.c"
 576              		.loc 6 57 0
 577              		.cfi_startproc
 578              		@ args = 0, pretend = 0, frame = 8
 579              		@ frame_needed = 0, uses_anonymous_args = 0
 580              		@ link register save eliminated.
 581 0000 82B0     		sub	sp, sp, #8
 582              		.cfi_def_cfa_offset 8
 583 0002 0190     		str	r0, [sp, #4]
 584              		.loc 6 59 0
 585 0004 C046     		nop
 586 0006 02B0     		add	sp, sp, #8
 587              		@ sp needed
 588 0008 7047     		bx	lr
 589              		.cfi_endproc
 590              	.LFE152:
 591              		.size	notify, .-notify
 592              		.section	.data.iq,"aw",%progbits
 593              		.align	2
 594              		.type	iq, %object
 595              		.size	iq, 36
 596              	iq:
 597 0000 00000000 		.word	iq
 598 0004 00000000 		.word	iq
 599 0008 00000000 		.word	0
 600 000c 00000000 		.word	test
 601 0010 04000000 		.word	test+4
 602 0014 00000000 		.word	test
 603 0018 00000000 		.word	test
 604 001c 00000000 		.word	notify
 605 0020 00000000 		.word	0
 606              		.section	.data.oq,"aw",%progbits
 607              		.align	2
 608              		.type	oq, %object
 609              		.size	oq, 36
 610              	oq:
 611 0000 00000000 		.word	oq
 612 0004 00000000 		.word	oq
 613 0008 04000000 		.word	4
 614 000c 50010000 		.word	test+336
 615 0010 54010000 		.word	test+340
 616 0014 50010000 		.word	test+336
 617 0018 50010000 		.word	test+336
 618 001c 00000000 		.word	notify
 619 0020 00000000 		.word	0
 620              		.section	.text.queues1_setup,"ax",%progbits
 621              		.align	1
 622              		.p2align 4,,15
 623              		.syntax unified
 624              		.code	16
 625              		.thumb_func
 626              		.fpu softvfp
 627              		.type	queues1_setup, %function
ARM GAS  /tmp/ccL53n49.s 			page 12


 628              	queues1_setup:
 629              	.LFB153:
 630              		.loc 6 78 0
 631              		.cfi_startproc
 632              		@ args = 0, pretend = 0, frame = 0
 633              		@ frame_needed = 0, uses_anonymous_args = 0
 634 0000 00B5     		push	{lr}
 635              		.cfi_def_cfa_offset 4
 636              		.cfi_offset 14, -4
 637 0002 83B0     		sub	sp, sp, #12
 638              		.cfi_def_cfa_offset 16
 639              		.loc 6 80 0
 640 0004 064B     		ldr	r3, .L40
 641 0006 1968     		ldr	r1, [r3]
 642 0008 064A     		ldr	r2, .L40+4
 643 000a 0748     		ldr	r0, .L40+8
 644 000c 0023     		movs	r3, #0
 645 000e 0093     		str	r3, [sp]
 646 0010 1300     		movs	r3, r2
 647 0012 0422     		movs	r2, #4
 648 0014 FFF7FEFF 		bl	chIQObjectInit
 649              		.loc 6 81 0
 650 0018 C046     		nop
 651 001a 03B0     		add	sp, sp, #12
 652              		@ sp needed
 653 001c 00BD     		pop	{pc}
 654              	.L41:
 655 001e C046     		.align	2
 656              	.L40:
 657 0020 00000000 		.word	wa
 658 0024 00000000 		.word	notify
 659 0028 00000000 		.word	iq
 660              		.cfi_endproc
 661              	.LFE153:
 662              		.size	queues1_setup, .-queues1_setup
 663              		.section	.text.thread1,"ax",%progbits
 664              		.align	1
 665              		.p2align 4,,15
 666              		.syntax unified
 667              		.code	16
 668              		.thumb_func
 669              		.fpu softvfp
 670              		.type	thread1, %function
 671              	thread1:
 672              	.LFB154:
 673              		.loc 6 83 0
 674              		.cfi_startproc
 675              		@ args = 0, pretend = 0, frame = 8
 676              		@ frame_needed = 0, uses_anonymous_args = 0
 677 0000 00B5     		push	{lr}
 678              		.cfi_def_cfa_offset 4
 679              		.cfi_offset 14, -4
 680 0002 83B0     		sub	sp, sp, #12
 681              		.cfi_def_cfa_offset 16
 682 0004 0190     		str	r0, [sp, #4]
 683              		.loc 6 86 0
 684 0006 FA23     		movs	r3, #250
ARM GAS  /tmp/ccL53n49.s 			page 13


 685 0008 DA00     		lsls	r2, r3, #3
 686 000a 044B     		ldr	r3, .L43
 687 000c 1100     		movs	r1, r2
 688 000e 1800     		movs	r0, r3
 689 0010 FFF7FEFF 		bl	chIQGetTimeout
 690              		.loc 6 87 0
 691 0014 C046     		nop
 692 0016 03B0     		add	sp, sp, #12
 693              		@ sp needed
 694 0018 00BD     		pop	{pc}
 695              	.L44:
 696 001a C046     		.align	2
 697              	.L43:
 698 001c 00000000 		.word	iq
 699              		.cfi_endproc
 700              	.LFE154:
 701              		.size	thread1, .-thread1
 702              		.section	.rodata
 703              		.align	2
 704              	.LC8:
 705 0000 41424344 		.ascii	"ABCD\000"
 705      00
 706              		.section	.text.queues1_execute,"ax",%progbits
 707              		.align	1
 708              		.p2align 4,,15
 709              		.syntax unified
 710              		.code	16
 711              		.thumb_func
 712              		.fpu softvfp
 713              		.type	queues1_execute, %function
 714              	queues1_execute:
 715              	.LFB155:
 716              		.loc 6 89 0
 717              		.cfi_startproc
 718              		@ args = 0, pretend = 0, frame = 8
 719              		@ frame_needed = 0, uses_anonymous_args = 0
 720 0000 10B5     		push	{r4, lr}
 721              		.cfi_def_cfa_offset 8
 722              		.cfi_offset 4, -8
 723              		.cfi_offset 14, -4
 724 0002 84B0     		sub	sp, sp, #16
 725              		.cfi_def_cfa_offset 24
 726              		.loc 6 94 0
 727 0004 FFF7FEFF 		bl	chSysLock
 728 0008 B64B     		ldr	r3, .L71
 729 000a 1800     		movs	r0, r3
 730 000c FFF7FEFF 		bl	chIQIsEmptyI
 731 0010 0300     		movs	r3, r0
 732 0012 1900     		movs	r1, r3
 733 0014 0120     		movs	r0, #1
 734 0016 FFF7FEFF 		bl	_test_assert
 735 001a 031E     		subs	r3, r0, #0
 736 001c 02D0     		beq	.L46
 737              		.loc 6 94 0 is_stmt 0 discriminator 1
 738 001e FFF7FEFF 		bl	chSysUnlock
 739 0022 5CE1     		b	.L45
 740              	.L46:
ARM GAS  /tmp/ccL53n49.s 			page 14


 741              		.loc 6 94 0 discriminator 2
 742 0024 FFF7FEFF 		bl	chSysUnlock
 743              		.loc 6 97 0 is_stmt 1 discriminator 2
 744 0028 FFF7FEFF 		bl	chSysLock
 745              		.loc 6 98 0 discriminator 2
 746 002c 0023     		movs	r3, #0
 747 002e 0393     		str	r3, [sp, #12]
 748 0030 0BE0     		b	.L48
 749              	.L49:
 750              		.loc 6 99 0 discriminator 3
 751 0032 039B     		ldr	r3, [sp, #12]
 752 0034 DBB2     		uxtb	r3, r3
 753 0036 4133     		adds	r3, r3, #65
 754 0038 DAB2     		uxtb	r2, r3
 755 003a AA4B     		ldr	r3, .L71
 756 003c 1100     		movs	r1, r2
 757 003e 1800     		movs	r0, r3
 758 0040 FFF7FEFF 		bl	chIQPutI
 759              		.loc 6 98 0 discriminator 3
 760 0044 039B     		ldr	r3, [sp, #12]
 761 0046 0133     		adds	r3, r3, #1
 762 0048 0393     		str	r3, [sp, #12]
 763              	.L48:
 764              		.loc 6 98 0 is_stmt 0 discriminator 1
 765 004a 039B     		ldr	r3, [sp, #12]
 766 004c 032B     		cmp	r3, #3
 767 004e F0D9     		bls	.L49
 768              		.loc 6 100 0 is_stmt 1
 769 0050 FFF7FEFF 		bl	chSysUnlock
 770              		.loc 6 101 0
 771 0054 FFF7FEFF 		bl	chSysLock
 772 0058 A24B     		ldr	r3, .L71
 773 005a 1800     		movs	r0, r3
 774 005c FFF7FEFF 		bl	chIQIsFullI
 775 0060 0300     		movs	r3, r0
 776 0062 1900     		movs	r1, r3
 777 0064 0220     		movs	r0, #2
 778 0066 FFF7FEFF 		bl	_test_assert
 779 006a 031E     		subs	r3, r0, #0
 780 006c 02D0     		beq	.L50
 781              		.loc 6 101 0 is_stmt 0 discriminator 1
 782 006e FFF7FEFF 		bl	chSysUnlock
 783 0072 34E1     		b	.L45
 784              	.L50:
 785              		.loc 6 101 0 discriminator 2
 786 0074 FFF7FEFF 		bl	chSysUnlock
 787              		.loc 6 102 0 is_stmt 1 discriminator 2
 788 0078 FFF7FEFF 		bl	chSysLock
 789 007c 994B     		ldr	r3, .L71
 790 007e 0021     		movs	r1, #0
 791 0080 1800     		movs	r0, r3
 792 0082 FFF7FEFF 		bl	chIQPutI
 793 0086 0300     		movs	r3, r0
 794 0088 0433     		adds	r3, r3, #4
 795 008a 5A42     		rsbs	r2, r3, #0
 796 008c 5341     		adcs	r3, r3, r2
 797 008e DBB2     		uxtb	r3, r3
ARM GAS  /tmp/ccL53n49.s 			page 15


 798 0090 1900     		movs	r1, r3
 799 0092 0320     		movs	r0, #3
 800 0094 FFF7FEFF 		bl	_test_assert
 801 0098 031E     		subs	r3, r0, #0
 802 009a 02D0     		beq	.L51
 803              		.loc 6 102 0 is_stmt 0 discriminator 1
 804 009c FFF7FEFF 		bl	chSysUnlock
 805 00a0 1DE1     		b	.L45
 806              	.L51:
 807              		.loc 6 102 0 discriminator 2
 808 00a2 FFF7FEFF 		bl	chSysUnlock
 809              		.loc 6 105 0 is_stmt 1 discriminator 2
 810 00a6 0023     		movs	r3, #0
 811 00a8 0393     		str	r3, [sp, #12]
 812 00aa 0BE0     		b	.L52
 813              	.L53:
 814              		.loc 6 106 0 discriminator 3
 815 00ac 8D4B     		ldr	r3, .L71
 816 00ae 1800     		movs	r0, r3
 817 00b0 FFF7FEFF 		bl	chIQGet
 818 00b4 0300     		movs	r3, r0
 819 00b6 DBB2     		uxtb	r3, r3
 820 00b8 1800     		movs	r0, r3
 821 00ba FFF7FEFF 		bl	test_emit_token
 822              		.loc 6 105 0 discriminator 3
 823 00be 039B     		ldr	r3, [sp, #12]
 824 00c0 0133     		adds	r3, r3, #1
 825 00c2 0393     		str	r3, [sp, #12]
 826              	.L52:
 827              		.loc 6 105 0 is_stmt 0 discriminator 1
 828 00c4 039B     		ldr	r3, [sp, #12]
 829 00c6 032B     		cmp	r3, #3
 830 00c8 F0D9     		bls	.L53
 831              		.loc 6 107 0 is_stmt 1
 832 00ca FFF7FEFF 		bl	chSysLock
 833 00ce 854B     		ldr	r3, .L71
 834 00d0 1800     		movs	r0, r3
 835 00d2 FFF7FEFF 		bl	chIQIsEmptyI
 836 00d6 0300     		movs	r3, r0
 837 00d8 1900     		movs	r1, r3
 838 00da 0420     		movs	r0, #4
 839 00dc FFF7FEFF 		bl	_test_assert
 840 00e0 031E     		subs	r3, r0, #0
 841 00e2 02D0     		beq	.L54
 842              		.loc 6 107 0 is_stmt 0 discriminator 1
 843 00e4 FFF7FEFF 		bl	chSysUnlock
 844 00e8 F9E0     		b	.L45
 845              	.L54:
 846              		.loc 6 107 0 discriminator 2
 847 00ea FFF7FEFF 		bl	chSysUnlock
 848              		.loc 6 108 0 is_stmt 1 discriminator 2
 849 00ee 7E4B     		ldr	r3, .L71+4
 850 00f0 1900     		movs	r1, r3
 851 00f2 0520     		movs	r0, #5
 852 00f4 FFF7FEFF 		bl	_test_assert_sequence
 853 00f8 031E     		subs	r3, r0, #0
 854 00fa 00D0     		beq	.LCB592
ARM GAS  /tmp/ccL53n49.s 			page 16


 855 00fc E8E0     		b	.L67	@long jump
 856              	.LCB592:
 857              		.loc 6 111 0
 858 00fe FFF7FEFF 		bl	chSysLock
 859              		.loc 6 112 0
 860 0102 0023     		movs	r3, #0
 861 0104 0393     		str	r3, [sp, #12]
 862 0106 0BE0     		b	.L56
 863              	.L57:
 864              		.loc 6 113 0 discriminator 3
 865 0108 039B     		ldr	r3, [sp, #12]
 866 010a DBB2     		uxtb	r3, r3
 867 010c 4133     		adds	r3, r3, #65
 868 010e DAB2     		uxtb	r2, r3
 869 0110 744B     		ldr	r3, .L71
 870 0112 1100     		movs	r1, r2
 871 0114 1800     		movs	r0, r3
 872 0116 FFF7FEFF 		bl	chIQPutI
 873              		.loc 6 112 0 discriminator 3
 874 011a 039B     		ldr	r3, [sp, #12]
 875 011c 0133     		adds	r3, r3, #1
 876 011e 0393     		str	r3, [sp, #12]
 877              	.L56:
 878              		.loc 6 112 0 is_stmt 0 discriminator 1
 879 0120 039B     		ldr	r3, [sp, #12]
 880 0122 032B     		cmp	r3, #3
 881 0124 F0D9     		bls	.L57
 882              		.loc 6 114 0 is_stmt 1
 883 0126 FFF7FEFF 		bl	chSysUnlock
 884              		.loc 6 117 0
 885 012a 704B     		ldr	r3, .L71+8
 886 012c 5968     		ldr	r1, [r3, #4]
 887 012e 6D48     		ldr	r0, .L71
 888 0130 0023     		movs	r3, #0
 889 0132 0822     		movs	r2, #8
 890 0134 FFF7FEFF 		bl	chIQReadTimeout
 891 0138 0300     		movs	r3, r0
 892 013a 0293     		str	r3, [sp, #8]
 893              		.loc 6 118 0
 894 013c 029B     		ldr	r3, [sp, #8]
 895 013e 043B     		subs	r3, r3, #4
 896 0140 5A42     		rsbs	r2, r3, #0
 897 0142 5341     		adcs	r3, r3, r2
 898 0144 DBB2     		uxtb	r3, r3
 899 0146 1900     		movs	r1, r3
 900 0148 0620     		movs	r0, #6
 901 014a FFF7FEFF 		bl	_test_assert
 902 014e 031E     		subs	r3, r0, #0
 903 0150 00D0     		beq	.LCB634
 904 0152 BFE0     		b	.L68	@long jump
 905              	.LCB634:
 906              		.loc 6 119 0
 907 0154 FFF7FEFF 		bl	chSysLock
 908 0158 624B     		ldr	r3, .L71
 909 015a 1800     		movs	r0, r3
 910 015c FFF7FEFF 		bl	chIQIsEmptyI
 911 0160 0300     		movs	r3, r0
ARM GAS  /tmp/ccL53n49.s 			page 17


 912 0162 1900     		movs	r1, r3
 913 0164 0720     		movs	r0, #7
 914 0166 FFF7FEFF 		bl	_test_assert
 915 016a 031E     		subs	r3, r0, #0
 916 016c 02D0     		beq	.L59
 917              		.loc 6 119 0 is_stmt 0 discriminator 1
 918 016e FFF7FEFF 		bl	chSysUnlock
 919 0172 B4E0     		b	.L45
 920              	.L59:
 921              		.loc 6 119 0 discriminator 2
 922 0174 FFF7FEFF 		bl	chSysUnlock
 923              		.loc 6 122 0 is_stmt 1 discriminator 2
 924 0178 FFF7FEFF 		bl	chSysLock
 925              		.loc 6 123 0 discriminator 2
 926 017c 0023     		movs	r3, #0
 927 017e 0393     		str	r3, [sp, #12]
 928 0180 0BE0     		b	.L60
 929              	.L61:
 930              		.loc 6 124 0 discriminator 3
 931 0182 039B     		ldr	r3, [sp, #12]
 932 0184 DBB2     		uxtb	r3, r3
 933 0186 4133     		adds	r3, r3, #65
 934 0188 DAB2     		uxtb	r2, r3
 935 018a 564B     		ldr	r3, .L71
 936 018c 1100     		movs	r1, r2
 937 018e 1800     		movs	r0, r3
 938 0190 FFF7FEFF 		bl	chIQPutI
 939              		.loc 6 123 0 discriminator 3
 940 0194 039B     		ldr	r3, [sp, #12]
 941 0196 0133     		adds	r3, r3, #1
 942 0198 0393     		str	r3, [sp, #12]
 943              	.L60:
 944              		.loc 6 123 0 is_stmt 0 discriminator 1
 945 019a 039B     		ldr	r3, [sp, #12]
 946 019c 032B     		cmp	r3, #3
 947 019e F0D9     		bls	.L61
 948              		.loc 6 125 0 is_stmt 1
 949 01a0 FFF7FEFF 		bl	chSysUnlock
 950              		.loc 6 128 0
 951 01a4 514B     		ldr	r3, .L71+8
 952 01a6 5968     		ldr	r1, [r3, #4]
 953 01a8 4E48     		ldr	r0, .L71
 954 01aa 0023     		movs	r3, #0
 955 01ac 0222     		movs	r2, #2
 956 01ae FFF7FEFF 		bl	chIQReadTimeout
 957 01b2 0300     		movs	r3, r0
 958 01b4 0293     		str	r3, [sp, #8]
 959              		.loc 6 129 0
 960 01b6 029B     		ldr	r3, [sp, #8]
 961 01b8 023B     		subs	r3, r3, #2
 962 01ba 5A42     		rsbs	r2, r3, #0
 963 01bc 5341     		adcs	r3, r3, r2
 964 01be DBB2     		uxtb	r3, r3
 965 01c0 1900     		movs	r1, r3
 966 01c2 0820     		movs	r0, #8
 967 01c4 FFF7FEFF 		bl	_test_assert
 968 01c8 031E     		subs	r3, r0, #0
ARM GAS  /tmp/ccL53n49.s 			page 18


 969 01ca 00D0     		beq	.LCB693
 970 01cc 84E0     		b	.L69	@long jump
 971              	.LCB693:
 972              		.loc 6 130 0
 973 01ce 474B     		ldr	r3, .L71+8
 974 01d0 5968     		ldr	r1, [r3, #4]
 975 01d2 4448     		ldr	r0, .L71
 976 01d4 0023     		movs	r3, #0
 977 01d6 0222     		movs	r2, #2
 978 01d8 FFF7FEFF 		bl	chIQReadTimeout
 979 01dc 0300     		movs	r3, r0
 980 01de 0293     		str	r3, [sp, #8]
 981              		.loc 6 131 0
 982 01e0 029B     		ldr	r3, [sp, #8]
 983 01e2 023B     		subs	r3, r3, #2
 984 01e4 5A42     		rsbs	r2, r3, #0
 985 01e6 5341     		adcs	r3, r3, r2
 986 01e8 DBB2     		uxtb	r3, r3
 987 01ea 1900     		movs	r1, r3
 988 01ec 0920     		movs	r0, #9
 989 01ee FFF7FEFF 		bl	_test_assert
 990 01f2 031E     		subs	r3, r0, #0
 991 01f4 00D0     		beq	.LCB711
 992 01f6 71E0     		b	.L70	@long jump
 993              	.LCB711:
 994              		.loc 6 132 0
 995 01f8 FFF7FEFF 		bl	chSysLock
 996 01fc 394B     		ldr	r3, .L71
 997 01fe 1800     		movs	r0, r3
 998 0200 FFF7FEFF 		bl	chIQIsEmptyI
 999 0204 0300     		movs	r3, r0
 1000 0206 1900     		movs	r1, r3
 1001 0208 0A20     		movs	r0, #10
 1002 020a FFF7FEFF 		bl	_test_assert
 1003 020e 031E     		subs	r3, r0, #0
 1004 0210 02D0     		beq	.L64
 1005              		.loc 6 132 0 is_stmt 0 discriminator 1
 1006 0212 FFF7FEFF 		bl	chSysUnlock
 1007 0216 62E0     		b	.L45
 1008              	.L64:
 1009              		.loc 6 132 0 discriminator 2
 1010 0218 FFF7FEFF 		bl	chSysUnlock
 1011              		.loc 6 135 0 is_stmt 1 discriminator 2
 1012 021c FFF7FEFF 		bl	chSysLock
 1013              		.loc 6 136 0 discriminator 2
 1014 0220 304B     		ldr	r3, .L71
 1015 0222 0021     		movs	r1, #0
 1016 0224 1800     		movs	r0, r3
 1017 0226 FFF7FEFF 		bl	chIQPutI
 1018              		.loc 6 137 0 discriminator 2
 1019 022a 2E4B     		ldr	r3, .L71
 1020 022c 1800     		movs	r0, r3
 1021 022e FFF7FEFF 		bl	chIQResetI
 1022              		.loc 6 138 0 discriminator 2
 1023 0232 FFF7FEFF 		bl	chSysUnlock
 1024              		.loc 6 139 0 discriminator 2
 1025 0236 FFF7FEFF 		bl	chSysLock
ARM GAS  /tmp/ccL53n49.s 			page 19


 1026 023a 2A4B     		ldr	r3, .L71
 1027 023c 1800     		movs	r0, r3
 1028 023e FFF7FEFF 		bl	chIQGetFullI
 1029 0242 0300     		movs	r3, r0
 1030 0244 5A42     		rsbs	r2, r3, #0
 1031 0246 5341     		adcs	r3, r3, r2
 1032 0248 DBB2     		uxtb	r3, r3
 1033 024a 1900     		movs	r1, r3
 1034 024c 0B20     		movs	r0, #11
 1035 024e FFF7FEFF 		bl	_test_assert
 1036 0252 031E     		subs	r3, r0, #0
 1037 0254 02D0     		beq	.L65
 1038              		.loc 6 139 0 is_stmt 0 discriminator 1
 1039 0256 FFF7FEFF 		bl	chSysUnlock
 1040 025a 40E0     		b	.L45
 1041              	.L65:
 1042              		.loc 6 139 0 discriminator 2
 1043 025c FFF7FEFF 		bl	chSysUnlock
 1044              		.loc 6 140 0 is_stmt 1 discriminator 2
 1045 0260 224B     		ldr	r3, .L71+8
 1046 0262 1C68     		ldr	r4, [r3]
 1047 0264 FFF7FEFF 		bl	chThdGetPriorityX
 1048 0268 0300     		movs	r3, r0
 1049 026a 5A1C     		adds	r2, r3, #1
 1050 026c 2048     		ldr	r0, .L71+12
 1051 026e A823     		movs	r3, #168
 1052 0270 5900     		lsls	r1, r3, #1
 1053 0272 0023     		movs	r3, #0
 1054 0274 0093     		str	r3, [sp]
 1055 0276 0300     		movs	r3, r0
 1056 0278 2000     		movs	r0, r4
 1057 027a FFF7FEFF 		bl	chThdCreateStatic
 1058 027e 0200     		movs	r2, r0
 1059 0280 1C4B     		ldr	r3, .L71+16
 1060 0282 1A60     		str	r2, [r3]
 1061              		.loc 6 141 0 discriminator 2
 1062 0284 FFF7FEFF 		bl	chSysLock
 1063 0288 164B     		ldr	r3, .L71
 1064 028a 1800     		movs	r0, r3
 1065 028c FFF7FEFF 		bl	chIQGetFullI
 1066 0290 0300     		movs	r3, r0
 1067 0292 5A42     		rsbs	r2, r3, #0
 1068 0294 5341     		adcs	r3, r3, r2
 1069 0296 DBB2     		uxtb	r3, r3
 1070 0298 1900     		movs	r1, r3
 1071 029a 0C20     		movs	r0, #12
 1072 029c FFF7FEFF 		bl	_test_assert
 1073 02a0 031E     		subs	r3, r0, #0
 1074 02a2 02D0     		beq	.L66
 1075              		.loc 6 141 0 is_stmt 0 discriminator 1
 1076 02a4 FFF7FEFF 		bl	chSysUnlock
 1077 02a8 19E0     		b	.L45
 1078              	.L66:
 1079              		.loc 6 141 0 discriminator 2
 1080 02aa FFF7FEFF 		bl	chSysUnlock
 1081              		.loc 6 142 0 is_stmt 1 discriminator 2
 1082 02ae FFF7FEFF 		bl	test_wait_threads
ARM GAS  /tmp/ccL53n49.s 			page 20


 1083              		.loc 6 145 0 discriminator 2
 1084 02b2 0C4B     		ldr	r3, .L71
 1085 02b4 0A21     		movs	r1, #10
 1086 02b6 1800     		movs	r0, r3
 1087 02b8 FFF7FEFF 		bl	chIQGetTimeout
 1088 02bc 0300     		movs	r3, r0
 1089 02be 0133     		adds	r3, r3, #1
 1090 02c0 5A42     		rsbs	r2, r3, #0
 1091 02c2 5341     		adcs	r3, r3, r2
 1092 02c4 DBB2     		uxtb	r3, r3
 1093 02c6 1900     		movs	r1, r3
 1094 02c8 0D20     		movs	r0, #13
 1095 02ca FFF7FEFF 		bl	_test_assert
 1096 02ce 06E0     		b	.L45
 1097              	.L67:
 1098              		.loc 6 108 0
 1099 02d0 C046     		nop
 1100 02d2 04E0     		b	.L45
 1101              	.L68:
 1102              		.loc 6 118 0
 1103 02d4 C046     		nop
 1104 02d6 02E0     		b	.L45
 1105              	.L69:
 1106              		.loc 6 129 0
 1107 02d8 C046     		nop
 1108 02da 00E0     		b	.L45
 1109              	.L70:
 1110              		.loc 6 131 0
 1111 02dc C046     		nop
 1112              	.L45:
 1113              		.loc 6 146 0
 1114 02de 04B0     		add	sp, sp, #16
 1115              		@ sp needed
 1116 02e0 10BD     		pop	{r4, pc}
 1117              	.L72:
 1118 02e2 C046     		.align	2
 1119              	.L71:
 1120 02e4 00000000 		.word	iq
 1121 02e8 00000000 		.word	.LC8
 1122 02ec 00000000 		.word	wa
 1123 02f0 00000000 		.word	thread1
 1124 02f4 00000000 		.word	threads
 1125              		.cfi_endproc
 1126              	.LFE155:
 1127              		.size	queues1_execute, .-queues1_execute
 1128              		.global	testqueues1
 1129              		.section	.rodata
 1130 0005 000000   		.align	2
 1131              	.LC13:
 1132 0008 51756575 		.ascii	"Queues, input queues\000"
 1132      65732C20 
 1132      696E7075 
 1132      74207175 
 1132      65756573 
 1133              		.section	.rodata.testqueues1,"a",%progbits
 1134              		.align	2
 1135              		.type	testqueues1, %object
ARM GAS  /tmp/ccL53n49.s 			page 21


 1136              		.size	testqueues1, 16
 1137              	testqueues1:
 1138 0000 08000000 		.word	.LC13
 1139 0004 00000000 		.word	queues1_setup
 1140 0008 00000000 		.word	0
 1141 000c 00000000 		.word	queues1_execute
 1142              		.section	.text.queues2_setup,"ax",%progbits
 1143              		.align	1
 1144              		.p2align 4,,15
 1145              		.syntax unified
 1146              		.code	16
 1147              		.thumb_func
 1148              		.fpu softvfp
 1149              		.type	queues2_setup, %function
 1150              	queues2_setup:
 1151              	.LFB156:
 1152              		.loc 6 164 0
 1153              		.cfi_startproc
 1154              		@ args = 0, pretend = 0, frame = 0
 1155              		@ frame_needed = 0, uses_anonymous_args = 0
 1156 0000 00B5     		push	{lr}
 1157              		.cfi_def_cfa_offset 4
 1158              		.cfi_offset 14, -4
 1159 0002 83B0     		sub	sp, sp, #12
 1160              		.cfi_def_cfa_offset 16
 1161              		.loc 6 166 0
 1162 0004 064B     		ldr	r3, .L74
 1163 0006 1968     		ldr	r1, [r3]
 1164 0008 064A     		ldr	r2, .L74+4
 1165 000a 0748     		ldr	r0, .L74+8
 1166 000c 0023     		movs	r3, #0
 1167 000e 0093     		str	r3, [sp]
 1168 0010 1300     		movs	r3, r2
 1169 0012 0422     		movs	r2, #4
 1170 0014 FFF7FEFF 		bl	chOQObjectInit
 1171              		.loc 6 167 0
 1172 0018 C046     		nop
 1173 001a 03B0     		add	sp, sp, #12
 1174              		@ sp needed
 1175 001c 00BD     		pop	{pc}
 1176              	.L75:
 1177 001e C046     		.align	2
 1178              	.L74:
 1179 0020 00000000 		.word	wa
 1180 0024 00000000 		.word	notify
 1181 0028 00000000 		.word	oq
 1182              		.cfi_endproc
 1183              	.LFE156:
 1184              		.size	queues2_setup, .-queues2_setup
 1185              		.section	.text.thread2,"ax",%progbits
 1186              		.align	1
 1187              		.p2align 4,,15
 1188              		.syntax unified
 1189              		.code	16
 1190              		.thumb_func
 1191              		.fpu softvfp
 1192              		.type	thread2, %function
ARM GAS  /tmp/ccL53n49.s 			page 22


 1193              	thread2:
 1194              	.LFB157:
 1195              		.loc 6 169 0
 1196              		.cfi_startproc
 1197              		@ args = 0, pretend = 0, frame = 8
 1198              		@ frame_needed = 0, uses_anonymous_args = 0
 1199 0000 00B5     		push	{lr}
 1200              		.cfi_def_cfa_offset 4
 1201              		.cfi_offset 14, -4
 1202 0002 83B0     		sub	sp, sp, #12
 1203              		.cfi_def_cfa_offset 16
 1204 0004 0190     		str	r0, [sp, #4]
 1205              		.loc 6 172 0
 1206 0006 FA23     		movs	r3, #250
 1207 0008 DA00     		lsls	r2, r3, #3
 1208 000a 044B     		ldr	r3, .L77
 1209 000c 0021     		movs	r1, #0
 1210 000e 1800     		movs	r0, r3
 1211 0010 FFF7FEFF 		bl	chOQPutTimeout
 1212              		.loc 6 173 0
 1213 0014 C046     		nop
 1214 0016 03B0     		add	sp, sp, #12
 1215              		@ sp needed
 1216 0018 00BD     		pop	{pc}
 1217              	.L78:
 1218 001a C046     		.align	2
 1219              	.L77:
 1220 001c 00000000 		.word	oq
 1221              		.cfi_endproc
 1222              	.LFE157:
 1223              		.size	thread2, .-thread2
 1224              		.section	.text.queues2_execute,"ax",%progbits
 1225              		.align	1
 1226              		.p2align 4,,15
 1227              		.syntax unified
 1228              		.code	16
 1229              		.thumb_func
 1230              		.fpu softvfp
 1231              		.type	queues2_execute, %function
 1232              	queues2_execute:
 1233              	.LFB158:
 1234              		.loc 6 175 0
 1235              		.cfi_startproc
 1236              		@ args = 0, pretend = 0, frame = 16
 1237              		@ frame_needed = 0, uses_anonymous_args = 0
 1238 0000 10B5     		push	{r4, lr}
 1239              		.cfi_def_cfa_offset 8
 1240              		.cfi_offset 4, -8
 1241              		.cfi_offset 14, -4
 1242 0002 86B0     		sub	sp, sp, #24
 1243              		.cfi_def_cfa_offset 32
 1244              		.loc 6 180 0
 1245 0004 FFF7FEFF 		bl	chSysLock
 1246 0008 9F4B     		ldr	r3, .L101
 1247 000a 1800     		movs	r0, r3
 1248 000c FFF7FEFF 		bl	chOQIsEmptyI
 1249 0010 0300     		movs	r3, r0
ARM GAS  /tmp/ccL53n49.s 			page 23


 1250 0012 1900     		movs	r1, r3
 1251 0014 0120     		movs	r0, #1
 1252 0016 FFF7FEFF 		bl	_test_assert
 1253 001a 031E     		subs	r3, r0, #0
 1254 001c 02D0     		beq	.L80
 1255              		.loc 6 180 0 is_stmt 0 discriminator 1
 1256 001e FFF7FEFF 		bl	chSysUnlock
 1257 0022 2FE1     		b	.L79
 1258              	.L80:
 1259              		.loc 6 180 0 discriminator 2
 1260 0024 FFF7FEFF 		bl	chSysUnlock
 1261              		.loc 6 183 0 is_stmt 1 discriminator 2
 1262 0028 0023     		movs	r3, #0
 1263 002a 0593     		str	r3, [sp, #20]
 1264 002c 0BE0     		b	.L82
 1265              	.L83:
 1266              		.loc 6 184 0 discriminator 3
 1267 002e 059B     		ldr	r3, [sp, #20]
 1268 0030 DBB2     		uxtb	r3, r3
 1269 0032 4133     		adds	r3, r3, #65
 1270 0034 DAB2     		uxtb	r2, r3
 1271 0036 944B     		ldr	r3, .L101
 1272 0038 1100     		movs	r1, r2
 1273 003a 1800     		movs	r0, r3
 1274 003c FFF7FEFF 		bl	chOQPut
 1275              		.loc 6 183 0 discriminator 3
 1276 0040 059B     		ldr	r3, [sp, #20]
 1277 0042 0133     		adds	r3, r3, #1
 1278 0044 0593     		str	r3, [sp, #20]
 1279              	.L82:
 1280              		.loc 6 183 0 is_stmt 0 discriminator 1
 1281 0046 059B     		ldr	r3, [sp, #20]
 1282 0048 032B     		cmp	r3, #3
 1283 004a F0D9     		bls	.L83
 1284              		.loc 6 185 0 is_stmt 1
 1285 004c FFF7FEFF 		bl	chSysLock
 1286 0050 8D4B     		ldr	r3, .L101
 1287 0052 1800     		movs	r0, r3
 1288 0054 FFF7FEFF 		bl	chOQIsFullI
 1289 0058 0300     		movs	r3, r0
 1290 005a 1900     		movs	r1, r3
 1291 005c 0220     		movs	r0, #2
 1292 005e FFF7FEFF 		bl	_test_assert
 1293 0062 031E     		subs	r3, r0, #0
 1294 0064 02D0     		beq	.L84
 1295              		.loc 6 185 0 is_stmt 0 discriminator 1
 1296 0066 FFF7FEFF 		bl	chSysUnlock
 1297 006a 0BE1     		b	.L79
 1298              	.L84:
 1299              		.loc 6 185 0 discriminator 2
 1300 006c FFF7FEFF 		bl	chSysUnlock
 1301              		.loc 6 188 0 is_stmt 1 discriminator 2
 1302 0070 0023     		movs	r3, #0
 1303 0072 0593     		str	r3, [sp, #20]
 1304 0074 14E0     		b	.L85
 1305              	.L86:
 1306              	.LBB10:
ARM GAS  /tmp/ccL53n49.s 			page 24


 1307              		.loc 6 191 0 discriminator 3
 1308 0076 FFF7FEFF 		bl	chSysLock
 1309              		.loc 6 192 0 discriminator 3
 1310 007a 834B     		ldr	r3, .L101
 1311 007c 1800     		movs	r0, r3
 1312 007e FFF7FEFF 		bl	chOQGetI
 1313 0082 0200     		movs	r2, r0
 1314 0084 1323     		movs	r3, #19
 1315 0086 6B44     		add	r3, r3, sp
 1316 0088 1A70     		strb	r2, [r3]
 1317              		.loc 6 193 0 discriminator 3
 1318 008a FFF7FEFF 		bl	chSysUnlock
 1319              		.loc 6 194 0 discriminator 3
 1320 008e 1323     		movs	r3, #19
 1321 0090 6B44     		add	r3, r3, sp
 1322 0092 1B78     		ldrb	r3, [r3]
 1323 0094 1800     		movs	r0, r3
 1324 0096 FFF7FEFF 		bl	test_emit_token
 1325              	.LBE10:
 1326              		.loc 6 188 0 discriminator 3
 1327 009a 059B     		ldr	r3, [sp, #20]
 1328 009c 0133     		adds	r3, r3, #1
 1329 009e 0593     		str	r3, [sp, #20]
 1330              	.L85:
 1331              		.loc 6 188 0 is_stmt 0 discriminator 1
 1332 00a0 059B     		ldr	r3, [sp, #20]
 1333 00a2 032B     		cmp	r3, #3
 1334 00a4 E7D9     		bls	.L86
 1335              		.loc 6 196 0 is_stmt 1
 1336 00a6 FFF7FEFF 		bl	chSysLock
 1337 00aa 774B     		ldr	r3, .L101
 1338 00ac 1800     		movs	r0, r3
 1339 00ae FFF7FEFF 		bl	chOQIsEmptyI
 1340 00b2 0300     		movs	r3, r0
 1341 00b4 1900     		movs	r1, r3
 1342 00b6 0320     		movs	r0, #3
 1343 00b8 FFF7FEFF 		bl	_test_assert
 1344 00bc 031E     		subs	r3, r0, #0
 1345 00be 02D0     		beq	.L87
 1346              		.loc 6 196 0 is_stmt 0 discriminator 1
 1347 00c0 FFF7FEFF 		bl	chSysUnlock
 1348 00c4 DEE0     		b	.L79
 1349              	.L87:
 1350              		.loc 6 196 0 discriminator 2
 1351 00c6 FFF7FEFF 		bl	chSysUnlock
 1352              		.loc 6 197 0 is_stmt 1 discriminator 2
 1353 00ca 704B     		ldr	r3, .L101+4
 1354 00cc 1900     		movs	r1, r3
 1355 00ce 0420     		movs	r0, #4
 1356 00d0 FFF7FEFF 		bl	_test_assert_sequence
 1357 00d4 031E     		subs	r3, r0, #0
 1358 00d6 00D0     		beq	.LCB1027
 1359 00d8 CDE0     		b	.L97	@long jump
 1360              	.LCB1027:
 1361              		.loc 6 198 0
 1362 00da FFF7FEFF 		bl	chSysLock
 1363 00de 6A4B     		ldr	r3, .L101
ARM GAS  /tmp/ccL53n49.s 			page 25


 1364 00e0 1800     		movs	r0, r3
 1365 00e2 FFF7FEFF 		bl	chOQGetI
 1366 00e6 0300     		movs	r3, r0
 1367 00e8 0333     		adds	r3, r3, #3
 1368 00ea 5A42     		rsbs	r2, r3, #0
 1369 00ec 5341     		adcs	r3, r3, r2
 1370 00ee DBB2     		uxtb	r3, r3
 1371 00f0 1900     		movs	r1, r3
 1372 00f2 0520     		movs	r0, #5
 1373 00f4 FFF7FEFF 		bl	_test_assert
 1374 00f8 031E     		subs	r3, r0, #0
 1375 00fa 02D0     		beq	.L89
 1376              		.loc 6 198 0 is_stmt 0 discriminator 1
 1377 00fc FFF7FEFF 		bl	chSysUnlock
 1378 0100 C0E0     		b	.L79
 1379              	.L89:
 1380              		.loc 6 198 0 discriminator 2
 1381 0102 FFF7FEFF 		bl	chSysUnlock
 1382              		.loc 6 201 0 is_stmt 1 discriminator 2
 1383 0106 624B     		ldr	r3, .L101+8
 1384 0108 5968     		ldr	r1, [r3, #4]
 1385 010a 5F48     		ldr	r0, .L101
 1386 010c 0023     		movs	r3, #0
 1387 010e 0822     		movs	r2, #8
 1388 0110 FFF7FEFF 		bl	chOQWriteTimeout
 1389 0114 0300     		movs	r3, r0
 1390 0116 0393     		str	r3, [sp, #12]
 1391              		.loc 6 202 0 discriminator 2
 1392 0118 039B     		ldr	r3, [sp, #12]
 1393 011a 043B     		subs	r3, r3, #4
 1394 011c 5A42     		rsbs	r2, r3, #0
 1395 011e 5341     		adcs	r3, r3, r2
 1396 0120 DBB2     		uxtb	r3, r3
 1397 0122 1900     		movs	r1, r3
 1398 0124 0620     		movs	r0, #6
 1399 0126 FFF7FEFF 		bl	_test_assert
 1400 012a 031E     		subs	r3, r0, #0
 1401 012c 00D0     		beq	.LCB1065
 1402 012e A4E0     		b	.L98	@long jump
 1403              	.LCB1065:
 1404              		.loc 6 203 0
 1405 0130 FFF7FEFF 		bl	chSysLock
 1406 0134 544B     		ldr	r3, .L101
 1407 0136 1800     		movs	r0, r3
 1408 0138 FFF7FEFF 		bl	chOQIsFullI
 1409 013c 0300     		movs	r3, r0
 1410 013e 1900     		movs	r1, r3
 1411 0140 0720     		movs	r0, #7
 1412 0142 FFF7FEFF 		bl	_test_assert
 1413 0146 031E     		subs	r3, r0, #0
 1414 0148 02D0     		beq	.L91
 1415              		.loc 6 203 0 is_stmt 0 discriminator 1
 1416 014a FFF7FEFF 		bl	chSysUnlock
 1417 014e 99E0     		b	.L79
 1418              	.L91:
 1419              		.loc 6 203 0 discriminator 2
 1420 0150 FFF7FEFF 		bl	chSysUnlock
ARM GAS  /tmp/ccL53n49.s 			page 26


 1421              		.loc 6 204 0 is_stmt 1 discriminator 2
 1422 0154 4E4B     		ldr	r3, .L101+8
 1423 0156 1C68     		ldr	r4, [r3]
 1424 0158 FFF7FEFF 		bl	chThdGetPriorityX
 1425 015c 0300     		movs	r3, r0
 1426 015e 5A1C     		adds	r2, r3, #1
 1427 0160 4C48     		ldr	r0, .L101+12
 1428 0162 A823     		movs	r3, #168
 1429 0164 5900     		lsls	r1, r3, #1
 1430 0166 0023     		movs	r3, #0
 1431 0168 0093     		str	r3, [sp]
 1432 016a 0300     		movs	r3, r0
 1433 016c 2000     		movs	r0, r4
 1434 016e FFF7FEFF 		bl	chThdCreateStatic
 1435 0172 0200     		movs	r2, r0
 1436 0174 484B     		ldr	r3, .L101+16
 1437 0176 1A60     		str	r2, [r3]
 1438              		.loc 6 205 0 discriminator 2
 1439 0178 FFF7FEFF 		bl	chSysLock
 1440 017c 424B     		ldr	r3, .L101
 1441 017e 1800     		movs	r0, r3
 1442 0180 FFF7FEFF 		bl	chOQGetFullI
 1443 0184 0300     		movs	r3, r0
 1444 0186 043B     		subs	r3, r3, #4
 1445 0188 5A42     		rsbs	r2, r3, #0
 1446 018a 5341     		adcs	r3, r3, r2
 1447 018c DBB2     		uxtb	r3, r3
 1448 018e 1900     		movs	r1, r3
 1449 0190 0820     		movs	r0, #8
 1450 0192 FFF7FEFF 		bl	_test_assert
 1451 0196 031E     		subs	r3, r0, #0
 1452 0198 02D0     		beq	.L92
 1453              		.loc 6 205 0 is_stmt 0 discriminator 1
 1454 019a FFF7FEFF 		bl	chSysUnlock
 1455 019e 71E0     		b	.L79
 1456              	.L92:
 1457              		.loc 6 205 0 discriminator 2
 1458 01a0 FFF7FEFF 		bl	chSysUnlock
 1459              		.loc 6 206 0 is_stmt 1 discriminator 2
 1460 01a4 FFF7FEFF 		bl	test_wait_threads
 1461              		.loc 6 209 0 discriminator 2
 1462 01a8 FFF7FEFF 		bl	chSysLock
 1463              		.loc 6 210 0 discriminator 2
 1464 01ac 364B     		ldr	r3, .L101
 1465 01ae 1800     		movs	r0, r3
 1466 01b0 FFF7FEFF 		bl	chOQResetI
 1467              		.loc 6 211 0 discriminator 2
 1468 01b4 FFF7FEFF 		bl	chSysUnlock
 1469              		.loc 6 212 0 discriminator 2
 1470 01b8 FFF7FEFF 		bl	chSysLock
 1471 01bc 324B     		ldr	r3, .L101
 1472 01be 1800     		movs	r0, r3
 1473 01c0 FFF7FEFF 		bl	chOQGetFullI
 1474 01c4 0300     		movs	r3, r0
 1475 01c6 5A42     		rsbs	r2, r3, #0
 1476 01c8 5341     		adcs	r3, r3, r2
 1477 01ca DBB2     		uxtb	r3, r3
ARM GAS  /tmp/ccL53n49.s 			page 27


 1478 01cc 1900     		movs	r1, r3
 1479 01ce 0920     		movs	r0, #9
 1480 01d0 FFF7FEFF 		bl	_test_assert
 1481 01d4 031E     		subs	r3, r0, #0
 1482 01d6 02D0     		beq	.L93
 1483              		.loc 6 212 0 is_stmt 0 discriminator 1
 1484 01d8 FFF7FEFF 		bl	chSysUnlock
 1485 01dc 52E0     		b	.L79
 1486              	.L93:
 1487              		.loc 6 212 0 discriminator 2
 1488 01de FFF7FEFF 		bl	chSysUnlock
 1489              		.loc 6 215 0 is_stmt 1 discriminator 2
 1490 01e2 2B4B     		ldr	r3, .L101+8
 1491 01e4 5968     		ldr	r1, [r3, #4]
 1492 01e6 2848     		ldr	r0, .L101
 1493 01e8 0023     		movs	r3, #0
 1494 01ea 0222     		movs	r2, #2
 1495 01ec FFF7FEFF 		bl	chOQWriteTimeout
 1496 01f0 0300     		movs	r3, r0
 1497 01f2 0393     		str	r3, [sp, #12]
 1498              		.loc 6 216 0 discriminator 2
 1499 01f4 039B     		ldr	r3, [sp, #12]
 1500 01f6 023B     		subs	r3, r3, #2
 1501 01f8 5A42     		rsbs	r2, r3, #0
 1502 01fa 5341     		adcs	r3, r3, r2
 1503 01fc DBB2     		uxtb	r3, r3
 1504 01fe 1900     		movs	r1, r3
 1505 0200 0A20     		movs	r0, #10
 1506 0202 FFF7FEFF 		bl	_test_assert
 1507 0206 031E     		subs	r3, r0, #0
 1508 0208 39D1     		bne	.L99
 1509              		.loc 6 217 0
 1510 020a 214B     		ldr	r3, .L101+8
 1511 020c 5968     		ldr	r1, [r3, #4]
 1512 020e 1E48     		ldr	r0, .L101
 1513 0210 0023     		movs	r3, #0
 1514 0212 0222     		movs	r2, #2
 1515 0214 FFF7FEFF 		bl	chOQWriteTimeout
 1516 0218 0300     		movs	r3, r0
 1517 021a 0393     		str	r3, [sp, #12]
 1518              		.loc 6 218 0
 1519 021c 039B     		ldr	r3, [sp, #12]
 1520 021e 023B     		subs	r3, r3, #2
 1521 0220 5A42     		rsbs	r2, r3, #0
 1522 0222 5341     		adcs	r3, r3, r2
 1523 0224 DBB2     		uxtb	r3, r3
 1524 0226 1900     		movs	r1, r3
 1525 0228 0B20     		movs	r0, #11
 1526 022a FFF7FEFF 		bl	_test_assert
 1527 022e 031E     		subs	r3, r0, #0
 1528 0230 27D1     		bne	.L100
 1529              		.loc 6 219 0
 1530 0232 FFF7FEFF 		bl	chSysLock
 1531 0236 144B     		ldr	r3, .L101
 1532 0238 1800     		movs	r0, r3
 1533 023a FFF7FEFF 		bl	chOQIsFullI
 1534 023e 0300     		movs	r3, r0
ARM GAS  /tmp/ccL53n49.s 			page 28


 1535 0240 1900     		movs	r1, r3
 1536 0242 0C20     		movs	r0, #12
 1537 0244 FFF7FEFF 		bl	_test_assert
 1538 0248 031E     		subs	r3, r0, #0
 1539 024a 02D0     		beq	.L96
 1540              		.loc 6 219 0 is_stmt 0 discriminator 1
 1541 024c FFF7FEFF 		bl	chSysUnlock
 1542 0250 18E0     		b	.L79
 1543              	.L96:
 1544              		.loc 6 219 0 discriminator 2
 1545 0252 FFF7FEFF 		bl	chSysUnlock
 1546              		.loc 6 222 0 is_stmt 1 discriminator 2
 1547 0256 0C4B     		ldr	r3, .L101
 1548 0258 0A22     		movs	r2, #10
 1549 025a 0021     		movs	r1, #0
 1550 025c 1800     		movs	r0, r3
 1551 025e FFF7FEFF 		bl	chOQPutTimeout
 1552 0262 0300     		movs	r3, r0
 1553 0264 0133     		adds	r3, r3, #1
 1554 0266 5A42     		rsbs	r2, r3, #0
 1555 0268 5341     		adcs	r3, r3, r2
 1556 026a DBB2     		uxtb	r3, r3
 1557 026c 1900     		movs	r1, r3
 1558 026e 0D20     		movs	r0, #13
 1559 0270 FFF7FEFF 		bl	_test_assert
 1560 0274 06E0     		b	.L79
 1561              	.L97:
 1562              		.loc 6 197 0
 1563 0276 C046     		nop
 1564 0278 04E0     		b	.L79
 1565              	.L98:
 1566              		.loc 6 202 0
 1567 027a C046     		nop
 1568 027c 02E0     		b	.L79
 1569              	.L99:
 1570              		.loc 6 216 0
 1571 027e C046     		nop
 1572 0280 00E0     		b	.L79
 1573              	.L100:
 1574              		.loc 6 218 0
 1575 0282 C046     		nop
 1576              	.L79:
 1577              		.loc 6 223 0
 1578 0284 06B0     		add	sp, sp, #24
 1579              		@ sp needed
 1580 0286 10BD     		pop	{r4, pc}
 1581              	.L102:
 1582              		.align	2
 1583              	.L101:
 1584 0288 00000000 		.word	oq
 1585 028c 00000000 		.word	.LC8
 1586 0290 00000000 		.word	wa
 1587 0294 00000000 		.word	thread2
 1588 0298 00000000 		.word	threads
 1589              		.cfi_endproc
 1590              	.LFE158:
 1591              		.size	queues2_execute, .-queues2_execute
ARM GAS  /tmp/ccL53n49.s 			page 29


 1592              		.global	testqueues2
 1593              		.section	.rodata
 1594 001d 000000   		.align	2
 1595              	.LC23:
 1596 0020 51756575 		.ascii	"Queues, output queues\000"
 1596      65732C20 
 1596      6F757470 
 1596      75742071 
 1596      75657565 
 1597              		.section	.rodata.testqueues2,"a",%progbits
 1598              		.align	2
 1599              		.type	testqueues2, %object
 1600              		.size	testqueues2, 16
 1601              	testqueues2:
 1602 0000 20000000 		.word	.LC23
 1603 0004 00000000 		.word	queues2_setup
 1604 0008 00000000 		.word	0
 1605 000c 00000000 		.word	queues2_execute
 1606              		.global	patternqueues
 1607              		.section	.rodata.patternqueues,"a",%progbits
 1608              		.align	2
 1609              		.type	patternqueues, %object
 1610              		.size	patternqueues, 12
 1611              	patternqueues:
 1612 0000 00000000 		.word	testqueues1
 1613 0004 00000000 		.word	testqueues2
 1614 0008 00000000 		.word	0
 1615              		.section	.rodata.__func__.4993,"a",%progbits
 1616              		.align	2
 1617              		.type	__func__.4993, %object
 1618              		.size	__func__.4993, 12
 1619              	__func__.4993:
 1620 0000 63685379 		.ascii	"chSysUnlock\000"
 1620      73556E6C 
 1620      6F636B00 
 1621              		.text
 1622              	.Letext0:
 1623              		.file 7 "/home/felix/opt/gcc-arm-none-eabi-6-2017-q1-update/lib/gcc/arm-none-eabi/6.3.1/include/st
 1624              		.file 8 "/home/felix/opt/gcc-arm-none-eabi-6-2017-q1-update/arm-none-eabi/include/machine/_default
 1625              		.file 9 "/home/felix/opt/gcc-arm-none-eabi-6-2017-q1-update/arm-none-eabi/include/sys/_stdint.h"
 1626              		.file 10 "ChibiOS/os/rt/ports/ARMCMx/compilers/GCC/chtypes.h"
 1627              		.file 11 "ChibiOS/os/rt/include/chsystypes.h"
 1628              		.file 12 "ChibiOS/os/rt/include/chschd.h"
 1629              		.file 13 "ChibiOS/os/rt/ports/ARMCMx/chcore.h"
 1630              		.file 14 "ChibiOS/os/rt/include/chdebug.h"
 1631              		.file 15 "ChibiOS/os/rt/include/chsem.h"
 1632              		.file 16 "ChibiOS/os/rt/include/chmtx.h"
 1633              		.file 17 "ChibiOS/os/rt/include/chregistry.h"
 1634              		.file 18 "ChibiOS/os/ext/CMSIS/ST/STM32F0xx/system_stm32f0xx.h"
 1635              		.file 19 "ChibiOS/test/rt/test.h"
 1636              		.section	.debug_info,"",%progbits
 1637              	.Ldebug_info0:
 1638 0000 890D0000 		.4byte	0xd89
 1639 0004 0400     		.2byte	0x4
 1640 0006 00000000 		.4byte	.Ldebug_abbrev0
 1641 000a 04       		.byte	0x4
 1642 000b 01       		.uleb128 0x1
ARM GAS  /tmp/ccL53n49.s 			page 30


 1643 000c F7020000 		.4byte	.LASF186
 1644 0010 0C       		.byte	0xc
 1645 0011 12010000 		.4byte	.LASF187
 1646 0015 3B040000 		.4byte	.LASF188
 1647 0019 00000000 		.4byte	.Ldebug_ranges0+0
 1648 001d 00000000 		.4byte	0
 1649 0021 00000000 		.4byte	.Ldebug_line0
 1650 0025 02       		.uleb128 0x2
 1651 0026 04       		.byte	0x4
 1652 0027 05       		.byte	0x5
 1653 0028 696E7400 		.ascii	"int\000"
 1654 002c 03       		.uleb128 0x3
 1655 002d B0020000 		.4byte	.LASF4
 1656 0031 07       		.byte	0x7
 1657 0032 D8       		.byte	0xd8
 1658 0033 3C000000 		.4byte	0x3c
 1659 0037 04       		.uleb128 0x4
 1660 0038 2C000000 		.4byte	0x2c
 1661 003c 05       		.uleb128 0x5
 1662 003d 04       		.byte	0x4
 1663 003e 07       		.byte	0x7
 1664 003f A8000000 		.4byte	.LASF0
 1665 0043 05       		.uleb128 0x5
 1666 0044 08       		.byte	0x8
 1667 0045 05       		.byte	0x5
 1668 0046 1C050000 		.4byte	.LASF1
 1669 004a 05       		.uleb128 0x5
 1670 004b 08       		.byte	0x8
 1671 004c 04       		.byte	0x4
 1672 004d 02060000 		.4byte	.LASF2
 1673 0051 05       		.uleb128 0x5
 1674 0052 01       		.byte	0x1
 1675 0053 06       		.byte	0x6
 1676 0054 53080000 		.4byte	.LASF3
 1677 0058 03       		.uleb128 0x3
 1678 0059 F9060000 		.4byte	.LASF5
 1679 005d 08       		.byte	0x8
 1680 005e 2B       		.byte	0x2b
 1681 005f 63000000 		.4byte	0x63
 1682 0063 05       		.uleb128 0x5
 1683 0064 01       		.byte	0x1
 1684 0065 08       		.byte	0x8
 1685 0066 AD070000 		.4byte	.LASF6
 1686 006a 05       		.uleb128 0x5
 1687 006b 02       		.byte	0x2
 1688 006c 05       		.byte	0x5
 1689 006d 49060000 		.4byte	.LASF7
 1690 0071 03       		.uleb128 0x3
 1691 0072 44020000 		.4byte	.LASF8
 1692 0076 08       		.byte	0x8
 1693 0077 39       		.byte	0x39
 1694 0078 7C000000 		.4byte	0x7c
 1695 007c 05       		.uleb128 0x5
 1696 007d 02       		.byte	0x2
 1697 007e 07       		.byte	0x7
 1698 007f 75080000 		.4byte	.LASF9
 1699 0083 03       		.uleb128 0x3
ARM GAS  /tmp/ccL53n49.s 			page 31


 1700 0084 CC000000 		.4byte	.LASF10
 1701 0088 08       		.byte	0x8
 1702 0089 4D       		.byte	0x4d
 1703 008a 8E000000 		.4byte	0x8e
 1704 008e 05       		.uleb128 0x5
 1705 008f 04       		.byte	0x4
 1706 0090 05       		.byte	0x5
 1707 0091 70060000 		.4byte	.LASF11
 1708 0095 03       		.uleb128 0x3
 1709 0096 C1070000 		.4byte	.LASF12
 1710 009a 08       		.byte	0x8
 1711 009b 4F       		.byte	0x4f
 1712 009c A0000000 		.4byte	0xa0
 1713 00a0 05       		.uleb128 0x5
 1714 00a1 04       		.byte	0x4
 1715 00a2 07       		.byte	0x7
 1716 00a3 3E070000 		.4byte	.LASF13
 1717 00a7 03       		.uleb128 0x3
 1718 00a8 CE030000 		.4byte	.LASF14
 1719 00ac 08       		.byte	0x8
 1720 00ad 69       		.byte	0x69
 1721 00ae B2000000 		.4byte	0xb2
 1722 00b2 05       		.uleb128 0x5
 1723 00b3 08       		.byte	0x8
 1724 00b4 07       		.byte	0x7
 1725 00b5 12020000 		.4byte	.LASF15
 1726 00b9 03       		.uleb128 0x3
 1727 00ba C1040000 		.4byte	.LASF16
 1728 00be 09       		.byte	0x9
 1729 00bf 18       		.byte	0x18
 1730 00c0 58000000 		.4byte	0x58
 1731 00c4 03       		.uleb128 0x3
 1732 00c5 0E060000 		.4byte	.LASF17
 1733 00c9 09       		.byte	0x9
 1734 00ca 24       		.byte	0x24
 1735 00cb 71000000 		.4byte	0x71
 1736 00cf 03       		.uleb128 0x3
 1737 00d0 72070000 		.4byte	.LASF18
 1738 00d4 09       		.byte	0x9
 1739 00d5 2C       		.byte	0x2c
 1740 00d6 83000000 		.4byte	0x83
 1741 00da 03       		.uleb128 0x3
 1742 00db B3010000 		.4byte	.LASF19
 1743 00df 09       		.byte	0x9
 1744 00e0 30       		.byte	0x30
 1745 00e1 95000000 		.4byte	0x95
 1746 00e5 03       		.uleb128 0x3
 1747 00e6 B5060000 		.4byte	.LASF20
 1748 00ea 09       		.byte	0x9
 1749 00eb 3C       		.byte	0x3c
 1750 00ec A7000000 		.4byte	0xa7
 1751 00f0 03       		.uleb128 0x3
 1752 00f1 E7050000 		.4byte	.LASF21
 1753 00f5 0A       		.byte	0xa
 1754 00f6 3C       		.byte	0x3c
 1755 00f7 B9000000 		.4byte	0xb9
 1756 00fb 03       		.uleb128 0x3
ARM GAS  /tmp/ccL53n49.s 			page 32


 1757 00fc 97040000 		.4byte	.LASF22
 1758 0100 0A       		.byte	0xa
 1759 0101 3D       		.byte	0x3d
 1760 0102 B9000000 		.4byte	0xb9
 1761 0106 03       		.uleb128 0x3
 1762 0107 36070000 		.4byte	.LASF23
 1763 010b 0A       		.byte	0xa
 1764 010c 3E       		.byte	0x3e
 1765 010d B9000000 		.4byte	0xb9
 1766 0111 03       		.uleb128 0x3
 1767 0112 F9010000 		.4byte	.LASF24
 1768 0116 0A       		.byte	0xa
 1769 0117 40       		.byte	0x40
 1770 0118 DA000000 		.4byte	0xda
 1771 011c 03       		.uleb128 0x3
 1772 011d 43050000 		.4byte	.LASF25
 1773 0121 0A       		.byte	0xa
 1774 0122 41       		.byte	0x41
 1775 0123 CF000000 		.4byte	0xcf
 1776 0127 03       		.uleb128 0x3
 1777 0128 D2010000 		.4byte	.LASF26
 1778 012c 0A       		.byte	0xa
 1779 012d 43       		.byte	0x43
 1780 012e DA000000 		.4byte	0xda
 1781 0132 03       		.uleb128 0x3
 1782 0133 4F020000 		.4byte	.LASF27
 1783 0137 0A       		.byte	0xa
 1784 0138 45       		.byte	0x45
 1785 0139 CF000000 		.4byte	0xcf
 1786 013d 03       		.uleb128 0x3
 1787 013e 64000000 		.4byte	.LASF28
 1788 0142 0B       		.byte	0xb
 1789 0143 35       		.byte	0x35
 1790 0144 C4000000 		.4byte	0xc4
 1791 0148 03       		.uleb128 0x3
 1792 0149 A7020000 		.4byte	.LASF29
 1793 014d 0B       		.byte	0xb
 1794 014e 3F       		.byte	0x3f
 1795 014f 53010000 		.4byte	0x153
 1796 0153 06       		.uleb128 0x6
 1797 0154 F3040000 		.4byte	.LASF50
 1798 0158 48       		.byte	0x48
 1799 0159 0C       		.byte	0xc
 1800 015a C2       		.byte	0xc2
 1801 015b 4C020000 		.4byte	0x24c
 1802 015f 07       		.uleb128 0x7
 1803 0160 AE060000 		.4byte	.LASF30
 1804 0164 0C       		.byte	0xc
 1805 0165 C3       		.byte	0xc3
 1806 0166 57020000 		.4byte	0x257
 1807 016a 00       		.byte	0
 1808 016b 07       		.uleb128 0x7
 1809 016c 26070000 		.4byte	.LASF31
 1810 0170 0C       		.byte	0xc
 1811 0171 C5       		.byte	0xc5
 1812 0172 57020000 		.4byte	0x257
 1813 0176 04       		.byte	0x4
ARM GAS  /tmp/ccL53n49.s 			page 33


 1814 0177 07       		.uleb128 0x7
 1815 0178 4F000000 		.4byte	.LASF32
 1816 017c 0C       		.byte	0xc
 1817 017d C7       		.byte	0xc7
 1818 017e 11010000 		.4byte	0x111
 1819 0182 08       		.byte	0x8
 1820 0183 07       		.uleb128 0x7
 1821 0184 BE060000 		.4byte	.LASF33
 1822 0188 0C       		.byte	0xc
 1823 0189 C8       		.byte	0xc8
 1824 018a B5040000 		.4byte	0x4b5
 1825 018e 0C       		.byte	0xc
 1826 018f 07       		.uleb128 0x7
 1827 0190 80020000 		.4byte	.LASF34
 1828 0194 0C       		.byte	0xc
 1829 0195 CA       		.byte	0xca
 1830 0196 57020000 		.4byte	0x257
 1831 019a 10       		.byte	0x10
 1832 019b 07       		.uleb128 0x7
 1833 019c A6040000 		.4byte	.LASF35
 1834 01a0 0C       		.byte	0xc
 1835 01a1 CB       		.byte	0xcb
 1836 01a2 57020000 		.4byte	0x257
 1837 01a6 14       		.byte	0x14
 1838 01a7 07       		.uleb128 0x7
 1839 01a8 07040000 		.4byte	.LASF36
 1840 01ac 0C       		.byte	0xc
 1841 01ad D2       		.byte	0xd2
 1842 01ae 9E060000 		.4byte	0x69e
 1843 01b2 18       		.byte	0x18
 1844 01b3 07       		.uleb128 0x7
 1845 01b4 B6040000 		.4byte	.LASF37
 1846 01b8 0C       		.byte	0xc
 1847 01b9 D8       		.byte	0xd8
 1848 01ba B5060000 		.4byte	0x6b5
 1849 01be 1C       		.byte	0x1c
 1850 01bf 07       		.uleb128 0x7
 1851 01c0 AE040000 		.4byte	.LASF38
 1852 01c4 0C       		.byte	0xc
 1853 01c5 DD       		.byte	0xdd
 1854 01c6 FB000000 		.4byte	0xfb
 1855 01ca 20       		.byte	0x20
 1856 01cb 07       		.uleb128 0x7
 1857 01cc 5A050000 		.4byte	.LASF39
 1858 01d0 0C       		.byte	0xc
 1859 01d1 E1       		.byte	0xe1
 1860 01d2 F0000000 		.4byte	0xf0
 1861 01d6 21       		.byte	0x21
 1862 01d7 07       		.uleb128 0x7
 1863 01d8 E2070000 		.4byte	.LASF40
 1864 01dc 0C       		.byte	0xc
 1865 01dd E6       		.byte	0xe6
 1866 01de 06010000 		.4byte	0x106
 1867 01e2 22       		.byte	0x22
 1868 01e3 08       		.uleb128 0x8
 1869 01e4 705F7500 		.ascii	"p_u\000"
 1870 01e8 0C       		.byte	0xc
ARM GAS  /tmp/ccL53n49.s 			page 34


 1871 01e9 3101     		.2byte	0x131
 1872 01eb D9050000 		.4byte	0x5d9
 1873 01ef 24       		.byte	0x24
 1874 01f0 09       		.uleb128 0x9
 1875 01f1 20000000 		.4byte	.LASF41
 1876 01f5 0C       		.byte	0xc
 1877 01f6 3601     		.2byte	0x136
 1878 01f8 5D020000 		.4byte	0x25d
 1879 01fc 28       		.byte	0x28
 1880 01fd 09       		.uleb128 0x9
 1881 01fe 9D000000 		.4byte	.LASF42
 1882 0202 0C       		.byte	0xc
 1883 0203 3C01     		.2byte	0x13c
 1884 0205 81020000 		.4byte	0x281
 1885 0209 2C       		.byte	0x2c
 1886 020a 09       		.uleb128 0x9
 1887 020b D3050000 		.4byte	.LASF43
 1888 020f 0C       		.byte	0xc
 1889 0210 4001     		.2byte	0x140
 1890 0212 1C010000 		.4byte	0x11c
 1891 0216 34       		.byte	0x34
 1892 0217 09       		.uleb128 0x9
 1893 0218 5D060000 		.4byte	.LASF44
 1894 021c 0C       		.byte	0xc
 1895 021d 4601     		.2byte	0x146
 1896 021f 27010000 		.4byte	0x127
 1897 0223 38       		.byte	0x38
 1898 0224 09       		.uleb128 0x9
 1899 0225 E9040000 		.4byte	.LASF45
 1900 0229 0C       		.byte	0xc
 1901 022a 4D01     		.2byte	0x14d
 1902 022c 98060000 		.4byte	0x698
 1903 0230 3C       		.byte	0x3c
 1904 0231 09       		.uleb128 0x9
 1905 0232 33060000 		.4byte	.LASF46
 1906 0236 0C       		.byte	0xc
 1907 0237 5101     		.2byte	0x151
 1908 0239 11010000 		.4byte	0x111
 1909 023d 40       		.byte	0x40
 1910 023e 09       		.uleb128 0x9
 1911 023f E1040000 		.4byte	.LASF47
 1912 0243 0C       		.byte	0xc
 1913 0244 5801     		.2byte	0x158
 1914 0246 34030000 		.4byte	0x334
 1915 024a 44       		.byte	0x44
 1916 024b 00       		.byte	0
 1917 024c 03       		.uleb128 0x3
 1918 024d 70040000 		.4byte	.LASF48
 1919 0251 0B       		.byte	0xb
 1920 0252 44       		.byte	0x44
 1921 0253 57020000 		.4byte	0x257
 1922 0257 0A       		.uleb128 0xa
 1923 0258 04       		.byte	0x4
 1924 0259 48010000 		.4byte	0x148
 1925 025d 03       		.uleb128 0x3
 1926 025e B5000000 		.4byte	.LASF49
 1927 0262 0B       		.byte	0xb
ARM GAS  /tmp/ccL53n49.s 			page 35


 1928 0263 49       		.byte	0x49
 1929 0264 68020000 		.4byte	0x268
 1930 0268 06       		.uleb128 0x6
 1931 0269 00000000 		.4byte	.LASF51
 1932 026d 04       		.byte	0x4
 1933 026e 0C       		.byte	0xc
 1934 026f B0       		.byte	0xb0
 1935 0270 81020000 		.4byte	0x281
 1936 0274 07       		.uleb128 0x7
 1937 0275 AE060000 		.4byte	.LASF30
 1938 0279 0C       		.byte	0xc
 1939 027a B1       		.byte	0xb1
 1940 027b 57020000 		.4byte	0x257
 1941 027f 00       		.byte	0
 1942 0280 00       		.byte	0
 1943 0281 03       		.uleb128 0x3
 1944 0282 10000000 		.4byte	.LASF52
 1945 0286 0B       		.byte	0xb
 1946 0287 50       		.byte	0x50
 1947 0288 8C020000 		.4byte	0x28c
 1948 028c 06       		.uleb128 0x6
 1949 028d 6C010000 		.4byte	.LASF53
 1950 0291 08       		.byte	0x8
 1951 0292 0C       		.byte	0xc
 1952 0293 B7       		.byte	0xb7
 1953 0294 B1020000 		.4byte	0x2b1
 1954 0298 07       		.uleb128 0x7
 1955 0299 AE060000 		.4byte	.LASF30
 1956 029d 0C       		.byte	0xc
 1957 029e B8       		.byte	0xb8
 1958 029f 57020000 		.4byte	0x257
 1959 02a3 00       		.byte	0
 1960 02a4 07       		.uleb128 0x7
 1961 02a5 26070000 		.4byte	.LASF31
 1962 02a9 0C       		.byte	0xc
 1963 02aa B9       		.byte	0xb9
 1964 02ab 57020000 		.4byte	0x257
 1965 02af 04       		.byte	0x4
 1966 02b0 00       		.byte	0
 1967 02b1 03       		.uleb128 0x3
 1968 02b2 5D070000 		.4byte	.LASF54
 1969 02b6 0B       		.byte	0xb
 1970 02b7 57       		.byte	0x57
 1971 02b8 BC020000 		.4byte	0x2bc
 1972 02bc 0B       		.uleb128 0xb
 1973 02bd 3B010000 		.4byte	.LASF55
 1974 02c1 1C       		.byte	0x1c
 1975 02c2 0C       		.byte	0xc
 1976 02c3 9001     		.2byte	0x190
 1977 02c5 18030000 		.4byte	0x318
 1978 02c9 09       		.uleb128 0x9
 1979 02ca 33050000 		.4byte	.LASF56
 1980 02ce 0C       		.byte	0xc
 1981 02cf 9101     		.2byte	0x191
 1982 02d1 81020000 		.4byte	0x281
 1983 02d5 00       		.byte	0
 1984 02d6 09       		.uleb128 0x9
ARM GAS  /tmp/ccL53n49.s 			page 36


 1985 02d7 DE010000 		.4byte	.LASF57
 1986 02db 0C       		.byte	0xc
 1987 02dc 9201     		.2byte	0x192
 1988 02de 11010000 		.4byte	0x111
 1989 02e2 08       		.byte	0x8
 1990 02e3 09       		.uleb128 0x9
 1991 02e4 88080000 		.4byte	.LASF58
 1992 02e8 0C       		.byte	0xc
 1993 02e9 9401     		.2byte	0x194
 1994 02eb B5040000 		.4byte	0x4b5
 1995 02ef 0C       		.byte	0xc
 1996 02f0 09       		.uleb128 0x9
 1997 02f1 3B050000 		.4byte	.LASF59
 1998 02f5 0C       		.byte	0xc
 1999 02f6 9701     		.2byte	0x197
 2000 02f8 57020000 		.4byte	0x257
 2001 02fc 10       		.byte	0x10
 2002 02fd 09       		.uleb128 0x9
 2003 02fe 9C050000 		.4byte	.LASF60
 2004 0302 0C       		.byte	0xc
 2005 0303 9801     		.2byte	0x198
 2006 0305 57020000 		.4byte	0x257
 2007 0309 14       		.byte	0x14
 2008 030a 09       		.uleb128 0x9
 2009 030b 53060000 		.4byte	.LASF61
 2010 030f 0C       		.byte	0xc
 2011 0310 9B01     		.2byte	0x19b
 2012 0312 57020000 		.4byte	0x257
 2013 0316 18       		.byte	0x18
 2014 0317 00       		.byte	0
 2015 0318 03       		.uleb128 0x3
 2016 0319 88010000 		.4byte	.LASF62
 2017 031d 0B       		.byte	0xb
 2018 031e 5C       		.byte	0x5c
 2019 031f 23030000 		.4byte	0x323
 2020 0323 0A       		.uleb128 0xa
 2021 0324 04       		.byte	0x4
 2022 0325 29030000 		.4byte	0x329
 2023 0329 0C       		.uleb128 0xc
 2024 032a 34030000 		.4byte	0x334
 2025 032e 0D       		.uleb128 0xd
 2026 032f 34030000 		.4byte	0x334
 2027 0333 00       		.byte	0
 2028 0334 0E       		.uleb128 0xe
 2029 0335 04       		.byte	0x4
 2030 0336 0F       		.uleb128 0xf
 2031 0337 34030000 		.4byte	0x334
 2032 033b 03       		.uleb128 0x3
 2033 033c 62050000 		.4byte	.LASF63
 2034 0340 0B       		.byte	0xb
 2035 0341 61       		.byte	0x61
 2036 0342 46030000 		.4byte	0x346
 2037 0346 0B       		.uleb128 0xb
 2038 0347 01020000 		.4byte	.LASF64
 2039 034b 14       		.byte	0x14
 2040 034c 0C       		.byte	0xc
 2041 034d 6B01     		.2byte	0x16b
ARM GAS  /tmp/ccL53n49.s 			page 37


 2042 034f 95030000 		.4byte	0x395
 2043 0353 09       		.uleb128 0x9
 2044 0354 14080000 		.4byte	.LASF65
 2045 0358 0C       		.byte	0xc
 2046 0359 6C01     		.2byte	0x16c
 2047 035b BB060000 		.4byte	0x6bb
 2048 035f 00       		.byte	0
 2049 0360 09       		.uleb128 0x9
 2050 0361 B7080000 		.4byte	.LASF66
 2051 0365 0C       		.byte	0xc
 2052 0366 6D01     		.2byte	0x16d
 2053 0368 BB060000 		.4byte	0x6bb
 2054 036c 04       		.byte	0x4
 2055 036d 09       		.uleb128 0x9
 2056 036e 25040000 		.4byte	.LASF67
 2057 0372 0C       		.byte	0xc
 2058 0373 6E01     		.2byte	0x16e
 2059 0375 3D010000 		.4byte	0x13d
 2060 0379 08       		.byte	0x8
 2061 037a 09       		.uleb128 0x9
 2062 037b A2080000 		.4byte	.LASF68
 2063 037f 0C       		.byte	0xc
 2064 0380 6F01     		.2byte	0x16f
 2065 0382 18030000 		.4byte	0x318
 2066 0386 0C       		.byte	0xc
 2067 0387 09       		.uleb128 0x9
 2068 0388 E5010000 		.4byte	.LASF69
 2069 038c 0C       		.byte	0xc
 2070 038d 7101     		.2byte	0x171
 2071 038f 34030000 		.4byte	0x334
 2072 0393 10       		.byte	0x10
 2073 0394 00       		.byte	0
 2074 0395 03       		.uleb128 0x3
 2075 0396 CC070000 		.4byte	.LASF70
 2076 039a 0B       		.byte	0xb
 2077 039b 66       		.byte	0x66
 2078 039c A0030000 		.4byte	0x3a0
 2079 03a0 0B       		.uleb128 0xb
 2080 03a1 88020000 		.4byte	.LASF71
 2081 03a5 0C       		.byte	0xc
 2082 03a6 0C       		.byte	0xc
 2083 03a7 7B01     		.2byte	0x17b
 2084 03a9 E2030000 		.4byte	0x3e2
 2085 03ad 09       		.uleb128 0x9
 2086 03ae 14080000 		.4byte	.LASF65
 2087 03b2 0C       		.byte	0xc
 2088 03b3 7C01     		.2byte	0x17c
 2089 03b5 BB060000 		.4byte	0x6bb
 2090 03b9 00       		.byte	0
 2091 03ba 09       		.uleb128 0x9
 2092 03bb B7080000 		.4byte	.LASF66
 2093 03bf 0C       		.byte	0xc
 2094 03c0 7E01     		.2byte	0x17e
 2095 03c2 BB060000 		.4byte	0x6bb
 2096 03c6 04       		.byte	0x4
 2097 03c7 09       		.uleb128 0x9
 2098 03c8 25040000 		.4byte	.LASF67
ARM GAS  /tmp/ccL53n49.s 			page 38


 2099 03cc 0C       		.byte	0xc
 2100 03cd 8001     		.2byte	0x180
 2101 03cf 3D010000 		.4byte	0x13d
 2102 03d3 08       		.byte	0x8
 2103 03d4 09       		.uleb128 0x9
 2104 03d5 83040000 		.4byte	.LASF72
 2105 03d9 0C       		.byte	0xc
 2106 03da 8801     		.2byte	0x188
 2107 03dc 3D010000 		.4byte	0x13d
 2108 03e0 0A       		.byte	0xa
 2109 03e1 00       		.byte	0
 2110 03e2 03       		.uleb128 0x3
 2111 03e3 0D050000 		.4byte	.LASF73
 2112 03e7 0B       		.byte	0xb
 2113 03e8 6B       		.byte	0x6b
 2114 03e9 ED030000 		.4byte	0x3ed
 2115 03ed 10       		.uleb128 0x10
 2116 03ee A3010000 		.4byte	.LASF74
 2117 03f2 1404     		.2byte	0x414
 2118 03f4 0C       		.byte	0xc
 2119 03f5 A201     		.2byte	0x1a2
 2120 03f7 30040000 		.4byte	0x430
 2121 03fb 09       		.uleb128 0x9
 2122 03fc BC050000 		.4byte	.LASF75
 2123 0400 0C       		.byte	0xc
 2124 0401 AA01     		.2byte	0x1aa
 2125 0403 A4060000 		.4byte	0x6a4
 2126 0407 00       		.byte	0
 2127 0408 09       		.uleb128 0x9
 2128 0409 6A020000 		.4byte	.LASF76
 2129 040d 0C       		.byte	0xc
 2130 040e AF01     		.2byte	0x1af
 2131 0410 32010000 		.4byte	0x132
 2132 0414 04       		.byte	0x4
 2133 0415 09       		.uleb128 0x9
 2134 0416 21060000 		.4byte	.LASF77
 2135 041a 0C       		.byte	0xc
 2136 041b B301     		.2byte	0x1b3
 2137 041d 32010000 		.4byte	0x132
 2138 0421 08       		.byte	0x8
 2139 0422 09       		.uleb128 0x9
 2140 0423 7A070000 		.4byte	.LASF78
 2141 0427 0C       		.byte	0xc
 2142 0428 B901     		.2byte	0x1b9
 2143 042a CE050000 		.4byte	0x5ce
 2144 042e 0C       		.byte	0xc
 2145 042f 00       		.byte	0
 2146 0430 03       		.uleb128 0x3
 2147 0431 28080000 		.4byte	.LASF79
 2148 0435 0B       		.byte	0xb
 2149 0436 70       		.byte	0x70
 2150 0437 3B040000 		.4byte	0x43b
 2151 043b 10       		.uleb128 0x10
 2152 043c A4060000 		.4byte	.LASF80
 2153 0440 6805     		.2byte	0x568
 2154 0442 0C       		.byte	0xc
 2155 0443 C201     		.2byte	0x1c2
ARM GAS  /tmp/ccL53n49.s 			page 39


 2156 0445 8D040000 		.4byte	0x48d
 2157 0449 09       		.uleb128 0x9
 2158 044a C4060000 		.4byte	.LASF81
 2159 044e 0C       		.byte	0xc
 2160 044f C601     		.2byte	0x1c6
 2161 0451 B1020000 		.4byte	0x2b1
 2162 0455 00       		.byte	0
 2163 0456 09       		.uleb128 0x9
 2164 0457 0B010000 		.4byte	.LASF82
 2165 045b 0C       		.byte	0xc
 2166 045c CA01     		.2byte	0x1ca
 2167 045e 95030000 		.4byte	0x395
 2168 0462 1C       		.byte	0x1c
 2169 0463 08       		.uleb128 0x8
 2170 0464 64626700 		.ascii	"dbg\000"
 2171 0468 0C       		.byte	0xc
 2172 0469 CE01     		.2byte	0x1ce
 2173 046b E2030000 		.4byte	0x3e2
 2174 046f 28       		.byte	0x28
 2175 0470 11       		.uleb128 0x11
 2176 0471 F7050000 		.4byte	.LASF83
 2177 0475 0C       		.byte	0xc
 2178 0476 D201     		.2byte	0x1d2
 2179 0478 48010000 		.4byte	0x148
 2180 047c 3C04     		.2byte	0x43c
 2181 047e 11       		.uleb128 0x11
 2182 047f 49010000 		.4byte	.LASF84
 2183 0483 0C       		.byte	0xc
 2184 0484 E301     		.2byte	0x1e3
 2185 0486 C1060000 		.4byte	0x6c1
 2186 048a 8804     		.2byte	0x488
 2187 048c 00       		.byte	0
 2188 048d 05       		.uleb128 0x5
 2189 048e 04       		.byte	0x4
 2190 048f 07       		.byte	0x7
 2191 0490 2D070000 		.4byte	.LASF85
 2192 0494 12       		.uleb128 0x12
 2193 0495 2A000000 		.4byte	.LASF114
 2194 0499 12       		.byte	0x12
 2195 049a 4C       		.byte	0x4c
 2196 049b DA000000 		.4byte	0xda
 2197 049f 03       		.uleb128 0x3
 2198 04a0 46000000 		.4byte	.LASF86
 2199 04a4 0D       		.byte	0xd
 2200 04a5 65       		.byte	0x65
 2201 04a6 34030000 		.4byte	0x334
 2202 04aa 03       		.uleb128 0x3
 2203 04ab 8E080000 		.4byte	.LASF87
 2204 04af 0D       		.byte	0xd
 2205 04b0 6D       		.byte	0x6d
 2206 04b1 E5000000 		.4byte	0xe5
 2207 04b5 06       		.uleb128 0x6
 2208 04b6 49050000 		.4byte	.LASF88
 2209 04ba 04       		.byte	0x4
 2210 04bb 0D       		.byte	0xd
 2211 04bc 89       		.byte	0x89
 2212 04bd CE040000 		.4byte	0x4ce
ARM GAS  /tmp/ccL53n49.s 			page 40


 2213 04c1 13       		.uleb128 0x13
 2214 04c2 72313300 		.ascii	"r13\000"
 2215 04c6 0D       		.byte	0xd
 2216 04c7 8A       		.byte	0x8a
 2217 04c8 40050000 		.4byte	0x540
 2218 04cc 00       		.byte	0
 2219 04cd 00       		.byte	0
 2220 04ce 06       		.uleb128 0x6
 2221 04cf 79060000 		.4byte	.LASF89
 2222 04d3 24       		.byte	0x24
 2223 04d4 01       		.byte	0x1
 2224 04d5 A4       		.byte	0xa4
 2225 04d6 40050000 		.4byte	0x540
 2226 04da 13       		.uleb128 0x13
 2227 04db 723800   		.ascii	"r8\000"
 2228 04de 01       		.byte	0x1
 2229 04df A5       		.byte	0xa5
 2230 04e0 9F040000 		.4byte	0x49f
 2231 04e4 00       		.byte	0
 2232 04e5 13       		.uleb128 0x13
 2233 04e6 723900   		.ascii	"r9\000"
 2234 04e9 01       		.byte	0x1
 2235 04ea A6       		.byte	0xa6
 2236 04eb 9F040000 		.4byte	0x49f
 2237 04ef 04       		.byte	0x4
 2238 04f0 13       		.uleb128 0x13
 2239 04f1 72313000 		.ascii	"r10\000"
 2240 04f5 01       		.byte	0x1
 2241 04f6 A7       		.byte	0xa7
 2242 04f7 9F040000 		.4byte	0x49f
 2243 04fb 08       		.byte	0x8
 2244 04fc 13       		.uleb128 0x13
 2245 04fd 72313100 		.ascii	"r11\000"
 2246 0501 01       		.byte	0x1
 2247 0502 A8       		.byte	0xa8
 2248 0503 9F040000 		.4byte	0x49f
 2249 0507 0C       		.byte	0xc
 2250 0508 13       		.uleb128 0x13
 2251 0509 723400   		.ascii	"r4\000"
 2252 050c 01       		.byte	0x1
 2253 050d A9       		.byte	0xa9
 2254 050e 9F040000 		.4byte	0x49f
 2255 0512 10       		.byte	0x10
 2256 0513 13       		.uleb128 0x13
 2257 0514 723500   		.ascii	"r5\000"
 2258 0517 01       		.byte	0x1
 2259 0518 AA       		.byte	0xaa
 2260 0519 9F040000 		.4byte	0x49f
 2261 051d 14       		.byte	0x14
 2262 051e 13       		.uleb128 0x13
 2263 051f 723600   		.ascii	"r6\000"
 2264 0522 01       		.byte	0x1
 2265 0523 AB       		.byte	0xab
 2266 0524 9F040000 		.4byte	0x49f
 2267 0528 18       		.byte	0x18
 2268 0529 13       		.uleb128 0x13
 2269 052a 723700   		.ascii	"r7\000"
ARM GAS  /tmp/ccL53n49.s 			page 41


 2270 052d 01       		.byte	0x1
 2271 052e AC       		.byte	0xac
 2272 052f 9F040000 		.4byte	0x49f
 2273 0533 1C       		.byte	0x1c
 2274 0534 13       		.uleb128 0x13
 2275 0535 6C7200   		.ascii	"lr\000"
 2276 0538 01       		.byte	0x1
 2277 0539 AD       		.byte	0xad
 2278 053a 9F040000 		.4byte	0x49f
 2279 053e 20       		.byte	0x20
 2280 053f 00       		.byte	0
 2281 0540 0A       		.uleb128 0xa
 2282 0541 04       		.byte	0x4
 2283 0542 CE040000 		.4byte	0x4ce
 2284 0546 14       		.uleb128 0x14
 2285 0547 10       		.byte	0x10
 2286 0548 0E       		.byte	0xe
 2287 0549 51       		.byte	0x51
 2288 054a 7F050000 		.4byte	0x57f
 2289 054e 07       		.uleb128 0x7
 2290 054f 9F020000 		.4byte	.LASF90
 2291 0553 0E       		.byte	0xe
 2292 0554 55       		.byte	0x55
 2293 0555 3D010000 		.4byte	0x13d
 2294 0559 00       		.byte	0
 2295 055a 07       		.uleb128 0x7
 2296 055b A0040000 		.4byte	.LASF91
 2297 055f 0E       		.byte	0xe
 2298 0560 59       		.byte	0x59
 2299 0561 57020000 		.4byte	0x257
 2300 0565 04       		.byte	0x4
 2301 0566 07       		.uleb128 0x7
 2302 0567 29020000 		.4byte	.LASF92
 2303 056b 0E       		.byte	0xe
 2304 056c 5D       		.byte	0x5d
 2305 056d 34030000 		.4byte	0x334
 2306 0571 08       		.byte	0x8
 2307 0572 07       		.uleb128 0x7
 2308 0573 D6000000 		.4byte	.LASF93
 2309 0577 0E       		.byte	0xe
 2310 0578 61       		.byte	0x61
 2311 0579 B9000000 		.4byte	0xb9
 2312 057d 0C       		.byte	0xc
 2313 057e 00       		.byte	0
 2314 057f 03       		.uleb128 0x3
 2315 0580 8E070000 		.4byte	.LASF94
 2316 0584 0E       		.byte	0xe
 2317 0585 62       		.byte	0x62
 2318 0586 46050000 		.4byte	0x546
 2319 058a 15       		.uleb128 0x15
 2320 058b 0804     		.2byte	0x408
 2321 058d 0E       		.byte	0xe
 2322 058e 67       		.byte	0x67
 2323 058f B8050000 		.4byte	0x5b8
 2324 0593 07       		.uleb128 0x7
 2325 0594 05050000 		.4byte	.LASF95
 2326 0598 0E       		.byte	0xe
ARM GAS  /tmp/ccL53n49.s 			page 42


 2327 0599 6B       		.byte	0x6b
 2328 059a 3C000000 		.4byte	0x3c
 2329 059e 00       		.byte	0
 2330 059f 07       		.uleb128 0x7
 2331 05a0 95050000 		.4byte	.LASF96
 2332 05a4 0E       		.byte	0xe
 2333 05a5 6F       		.byte	0x6f
 2334 05a6 B8050000 		.4byte	0x5b8
 2335 05aa 04       		.byte	0x4
 2336 05ab 07       		.uleb128 0x7
 2337 05ac C9040000 		.4byte	.LASF97
 2338 05b0 0E       		.byte	0xe
 2339 05b1 73       		.byte	0x73
 2340 05b2 BE050000 		.4byte	0x5be
 2341 05b6 08       		.byte	0x8
 2342 05b7 00       		.byte	0
 2343 05b8 0A       		.uleb128 0xa
 2344 05b9 04       		.byte	0x4
 2345 05ba 7F050000 		.4byte	0x57f
 2346 05be 16       		.uleb128 0x16
 2347 05bf 7F050000 		.4byte	0x57f
 2348 05c3 CE050000 		.4byte	0x5ce
 2349 05c7 17       		.uleb128 0x17
 2350 05c8 8D040000 		.4byte	0x48d
 2351 05cc 3F       		.byte	0x3f
 2352 05cd 00       		.byte	0
 2353 05ce 03       		.uleb128 0x3
 2354 05cf 3A080000 		.4byte	.LASF98
 2355 05d3 0E       		.byte	0xe
 2356 05d4 74       		.byte	0x74
 2357 05d5 8A050000 		.4byte	0x58a
 2358 05d9 18       		.uleb128 0x18
 2359 05da 04       		.byte	0x4
 2360 05db 0C       		.byte	0xc
 2361 05dc FA       		.byte	0xfa
 2362 05dd 36060000 		.4byte	0x636
 2363 05e1 19       		.uleb128 0x19
 2364 05e2 B7020000 		.4byte	.LASF99
 2365 05e6 0C       		.byte	0xc
 2366 05e7 0101     		.2byte	0x101
 2367 05e9 1C010000 		.4byte	0x11c
 2368 05ed 19       		.uleb128 0x19
 2369 05ee DC080000 		.4byte	.LASF100
 2370 05f2 0C       		.byte	0xc
 2371 05f3 0801     		.2byte	0x108
 2372 05f5 1C010000 		.4byte	0x11c
 2373 05f9 19       		.uleb128 0x19
 2374 05fa FA000000 		.4byte	.LASF101
 2375 05fe 0C       		.byte	0xc
 2376 05ff 0F01     		.2byte	0x10f
 2377 0601 34030000 		.4byte	0x334
 2378 0605 19       		.uleb128 0x19
 2379 0606 34080000 		.4byte	.LASF102
 2380 060a 0C       		.byte	0xc
 2381 060b 1601     		.2byte	0x116
 2382 060d 36060000 		.4byte	0x636
 2383 0611 19       		.uleb128 0x19
ARM GAS  /tmp/ccL53n49.s 			page 43


 2384 0612 87070000 		.4byte	.LASF103
 2385 0616 0C       		.byte	0xc
 2386 0617 1E01     		.2byte	0x11e
 2387 0619 61060000 		.4byte	0x661
 2388 061d 19       		.uleb128 0x19
 2389 061e 3A000000 		.4byte	.LASF104
 2390 0622 0C       		.byte	0xc
 2391 0623 2701     		.2byte	0x127
 2392 0625 98060000 		.4byte	0x698
 2393 0629 19       		.uleb128 0x19
 2394 062a 58010000 		.4byte	.LASF105
 2395 062e 0C       		.byte	0xc
 2396 062f 2F01     		.2byte	0x12f
 2397 0631 27010000 		.4byte	0x127
 2398 0635 00       		.byte	0
 2399 0636 0A       		.uleb128 0xa
 2400 0637 04       		.byte	0x4
 2401 0638 4C020000 		.4byte	0x24c
 2402 063c 06       		.uleb128 0x6
 2403 063d EC010000 		.4byte	.LASF106
 2404 0641 0C       		.byte	0xc
 2405 0642 0F       		.byte	0xf
 2406 0643 34       		.byte	0x34
 2407 0644 61060000 		.4byte	0x661
 2408 0648 07       		.uleb128 0x7
 2409 0649 8A000000 		.4byte	.LASF107
 2410 064d 0F       		.byte	0xf
 2411 064e 35       		.byte	0x35
 2412 064f 81020000 		.4byte	0x281
 2413 0653 00       		.byte	0
 2414 0654 07       		.uleb128 0x7
 2415 0655 9D010000 		.4byte	.LASF108
 2416 0659 0F       		.byte	0xf
 2417 065a 37       		.byte	0x37
 2418 065b 32010000 		.4byte	0x132
 2419 065f 08       		.byte	0x8
 2420 0660 00       		.byte	0
 2421 0661 0A       		.uleb128 0xa
 2422 0662 04       		.byte	0x4
 2423 0663 3C060000 		.4byte	0x63c
 2424 0667 06       		.uleb128 0x6
 2425 0668 C5030000 		.4byte	.LASF109
 2426 066c 10       		.byte	0x10
 2427 066d 10       		.byte	0x10
 2428 066e 39       		.byte	0x39
 2429 066f 98060000 		.4byte	0x698
 2430 0673 07       		.uleb128 0x7
 2431 0674 68060000 		.4byte	.LASF110
 2432 0678 10       		.byte	0x10
 2433 0679 3A       		.byte	0x3a
 2434 067a 81020000 		.4byte	0x281
 2435 067e 00       		.byte	0
 2436 067f 07       		.uleb128 0x7
 2437 0680 82000000 		.4byte	.LASF111
 2438 0684 10       		.byte	0x10
 2439 0685 3C       		.byte	0x3c
 2440 0686 57020000 		.4byte	0x257
ARM GAS  /tmp/ccL53n49.s 			page 44


 2441 068a 08       		.byte	0x8
 2442 068b 07       		.uleb128 0x7
 2443 068c 4C080000 		.4byte	.LASF112
 2444 0690 10       		.byte	0x10
 2445 0691 3E       		.byte	0x3e
 2446 0692 F3070000 		.4byte	0x7f3
 2447 0696 0C       		.byte	0xc
 2448 0697 00       		.byte	0
 2449 0698 0A       		.uleb128 0xa
 2450 0699 04       		.byte	0x4
 2451 069a 67060000 		.4byte	0x667
 2452 069e 0A       		.uleb128 0xa
 2453 069f 04       		.byte	0x4
 2454 06a0 B0060000 		.4byte	0x6b0
 2455 06a4 04       		.uleb128 0x4
 2456 06a5 9E060000 		.4byte	0x69e
 2457 06a9 05       		.uleb128 0x5
 2458 06aa 01       		.byte	0x1
 2459 06ab 08       		.byte	0x8
 2460 06ac 41000000 		.4byte	.LASF113
 2461 06b0 0F       		.uleb128 0xf
 2462 06b1 A9060000 		.4byte	0x6a9
 2463 06b5 0A       		.uleb128 0xa
 2464 06b6 04       		.byte	0x4
 2465 06b7 AA040000 		.4byte	0x4aa
 2466 06bb 0A       		.uleb128 0xa
 2467 06bc 04       		.byte	0x4
 2468 06bd 3B030000 		.4byte	0x33b
 2469 06c1 16       		.uleb128 0x16
 2470 06c2 AA040000 		.4byte	0x4aa
 2471 06c6 D1060000 		.4byte	0x6d1
 2472 06ca 17       		.uleb128 0x17
 2473 06cb 8D040000 		.4byte	0x48d
 2474 06cf 1B       		.byte	0x1b
 2475 06d0 00       		.byte	0
 2476 06d1 1A       		.uleb128 0x1a
 2477 06d2 636800   		.ascii	"ch\000"
 2478 06d5 0C       		.byte	0xc
 2479 06d6 0902     		.2byte	0x209
 2480 06d8 30040000 		.4byte	0x430
 2481 06dc 14       		.uleb128 0x14
 2482 06dd 16       		.byte	0x16
 2483 06de 11       		.byte	0x11
 2484 06df 34       		.byte	0x34
 2485 06e0 BD070000 		.4byte	0x7bd
 2486 06e4 07       		.uleb128 0x7
 2487 06e5 08070000 		.4byte	.LASF115
 2488 06e9 11       		.byte	0x11
 2489 06ea 35       		.byte	0x35
 2490 06eb BD070000 		.4byte	0x7bd
 2491 06ef 00       		.byte	0
 2492 06f0 07       		.uleb128 0x7
 2493 06f1 7E050000 		.4byte	.LASF116
 2494 06f5 11       		.byte	0x11
 2495 06f6 36       		.byte	0x36
 2496 06f7 B9000000 		.4byte	0xb9
 2497 06fb 04       		.byte	0x4
ARM GAS  /tmp/ccL53n49.s 			page 45


 2498 06fc 07       		.uleb128 0x7
 2499 06fd EF050000 		.4byte	.LASF117
 2500 0701 11       		.byte	0x11
 2501 0702 37       		.byte	0x37
 2502 0703 B9000000 		.4byte	0xb9
 2503 0707 05       		.byte	0x5
 2504 0708 07       		.uleb128 0x7
 2505 0709 3E060000 		.4byte	.LASF118
 2506 070d 11       		.byte	0x11
 2507 070e 38       		.byte	0x38
 2508 070f C4000000 		.4byte	0xc4
 2509 0713 06       		.byte	0x6
 2510 0714 07       		.uleb128 0x7
 2511 0715 7D010000 		.4byte	.LASF119
 2512 0719 11       		.byte	0x11
 2513 071a 39       		.byte	0x39
 2514 071b B9000000 		.4byte	0xb9
 2515 071f 08       		.byte	0x8
 2516 0720 07       		.uleb128 0x7
 2517 0721 C6010000 		.4byte	.LASF120
 2518 0725 11       		.byte	0x11
 2519 0726 3A       		.byte	0x3a
 2520 0727 B9000000 		.4byte	0xb9
 2521 072b 09       		.byte	0x9
 2522 072c 07       		.uleb128 0x7
 2523 072d BE020000 		.4byte	.LASF121
 2524 0731 11       		.byte	0x11
 2525 0732 3B       		.byte	0x3b
 2526 0733 B9000000 		.4byte	0xb9
 2527 0737 0A       		.byte	0xa
 2528 0738 07       		.uleb128 0x7
 2529 0739 ED060000 		.4byte	.LASF122
 2530 073d 11       		.byte	0x11
 2531 073e 3C       		.byte	0x3c
 2532 073f B9000000 		.4byte	0xb9
 2533 0743 0B       		.byte	0xb
 2534 0744 07       		.uleb128 0x7
 2535 0745 EC030000 		.4byte	.LASF123
 2536 0749 11       		.byte	0x11
 2537 074a 3D       		.byte	0x3d
 2538 074b B9000000 		.4byte	0xb9
 2539 074f 0C       		.byte	0xc
 2540 0750 07       		.uleb128 0x7
 2541 0751 5F080000 		.4byte	.LASF124
 2542 0755 11       		.byte	0x11
 2543 0756 3E       		.byte	0x3e
 2544 0757 B9000000 		.4byte	0xb9
 2545 075b 0D       		.byte	0xd
 2546 075c 07       		.uleb128 0x7
 2547 075d 75000000 		.4byte	.LASF125
 2548 0761 11       		.byte	0x11
 2549 0762 3F       		.byte	0x3f
 2550 0763 B9000000 		.4byte	0xb9
 2551 0767 0E       		.byte	0xe
 2552 0768 07       		.uleb128 0x7
 2553 0769 DF000000 		.4byte	.LASF126
 2554 076d 11       		.byte	0x11
ARM GAS  /tmp/ccL53n49.s 			page 46


 2555 076e 40       		.byte	0x40
 2556 076f B9000000 		.4byte	0xb9
 2557 0773 0F       		.byte	0xf
 2558 0774 07       		.uleb128 0x7
 2559 0775 F7030000 		.4byte	.LASF127
 2560 0779 11       		.byte	0x11
 2561 077a 41       		.byte	0x41
 2562 077b B9000000 		.4byte	0xb9
 2563 077f 10       		.byte	0x10
 2564 0780 07       		.uleb128 0x7
 2565 0781 50070000 		.4byte	.LASF128
 2566 0785 11       		.byte	0x11
 2567 0786 43       		.byte	0x43
 2568 0787 B9000000 		.4byte	0xb9
 2569 078b 11       		.byte	0x11
 2570 078c 07       		.uleb128 0x7
 2571 078d 5F010000 		.4byte	.LASF129
 2572 0791 11       		.byte	0x11
 2573 0792 44       		.byte	0x44
 2574 0793 B9000000 		.4byte	0xb9
 2575 0797 12       		.byte	0x12
 2576 0798 07       		.uleb128 0x7
 2577 0799 72050000 		.4byte	.LASF130
 2578 079d 11       		.byte	0x11
 2579 079e 45       		.byte	0x45
 2580 079f B9000000 		.4byte	0xb9
 2581 07a3 13       		.byte	0x13
 2582 07a4 07       		.uleb128 0x7
 2583 07a5 DA020000 		.4byte	.LASF131
 2584 07a9 11       		.byte	0x11
 2585 07aa 46       		.byte	0x46
 2586 07ab B9000000 		.4byte	0xb9
 2587 07af 14       		.byte	0x14
 2588 07b0 07       		.uleb128 0x7
 2589 07b1 E1060000 		.4byte	.LASF132
 2590 07b5 11       		.byte	0x11
 2591 07b6 48       		.byte	0x48
 2592 07b7 B9000000 		.4byte	0xb9
 2593 07bb 15       		.byte	0x15
 2594 07bc 00       		.byte	0
 2595 07bd 16       		.uleb128 0x16
 2596 07be A9060000 		.4byte	0x6a9
 2597 07c2 CD070000 		.4byte	0x7cd
 2598 07c6 17       		.uleb128 0x17
 2599 07c7 8D040000 		.4byte	0x48d
 2600 07cb 03       		.byte	0x3
 2601 07cc 00       		.byte	0
 2602 07cd 03       		.uleb128 0x3
 2603 07ce 17060000 		.4byte	.LASF133
 2604 07d2 11       		.byte	0x11
 2605 07d3 49       		.byte	0x49
 2606 07d4 DC060000 		.4byte	0x6dc
 2607 07d8 0F       		.uleb128 0xf
 2608 07d9 CD070000 		.4byte	0x7cd
 2609 07dd 12       		.uleb128 0x12
 2610 07de 99080000 		.4byte	.LASF134
 2611 07e2 11       		.byte	0x11
ARM GAS  /tmp/ccL53n49.s 			page 47


 2612 07e3 6E       		.byte	0x6e
 2613 07e4 D8070000 		.4byte	0x7d8
 2614 07e8 03       		.uleb128 0x3
 2615 07e9 A5070000 		.4byte	.LASF135
 2616 07ed 10       		.byte	0x10
 2617 07ee 34       		.byte	0x34
 2618 07ef 67060000 		.4byte	0x667
 2619 07f3 0A       		.uleb128 0xa
 2620 07f4 04       		.byte	0x4
 2621 07f5 E8070000 		.4byte	0x7e8
 2622 07f9 05       		.uleb128 0x5
 2623 07fa 01       		.byte	0x1
 2624 07fb 02       		.byte	0x2
 2625 07fc E9020000 		.4byte	.LASF136
 2626 0800 03       		.uleb128 0x3
 2627 0801 92000000 		.4byte	.LASF137
 2628 0805 05       		.byte	0x5
 2629 0806 3F       		.byte	0x3f
 2630 0807 0B080000 		.4byte	0x80b
 2631 080b 06       		.uleb128 0x6
 2632 080c 6C080000 		.4byte	.LASF138
 2633 0810 24       		.byte	0x24
 2634 0811 05       		.byte	0x5
 2635 0812 4D       		.byte	0x4d
 2636 0813 78080000 		.4byte	0x878
 2637 0817 07       		.uleb128 0x7
 2638 0818 BC010000 		.4byte	.LASF139
 2639 081c 05       		.byte	0x5
 2640 081d 4E       		.byte	0x4e
 2641 081e 81020000 		.4byte	0x281
 2642 0822 00       		.byte	0
 2643 0823 07       		.uleb128 0x7
 2644 0824 16070000 		.4byte	.LASF140
 2645 0828 05       		.byte	0x5
 2646 0829 4F       		.byte	0x4f
 2647 082a 37000000 		.4byte	0x37
 2648 082e 08       		.byte	0x8
 2649 082f 07       		.uleb128 0x7
 2650 0830 2A050000 		.4byte	.LASF141
 2651 0834 05       		.byte	0x5
 2652 0835 50       		.byte	0x50
 2653 0836 9A080000 		.4byte	0x89a
 2654 083a 0C       		.byte	0xc
 2655 083b 07       		.uleb128 0x7
 2656 083c 20070000 		.4byte	.LASF142
 2657 0840 05       		.byte	0x5
 2658 0841 51       		.byte	0x51
 2659 0842 9A080000 		.4byte	0x89a
 2660 0846 10       		.byte	0x10
 2661 0847 07       		.uleb128 0x7
 2662 0848 8F040000 		.4byte	.LASF143
 2663 084c 05       		.byte	0x5
 2664 084d 53       		.byte	0x53
 2665 084e 9A080000 		.4byte	0x89a
 2666 0852 14       		.byte	0x14
 2667 0853 07       		.uleb128 0x7
 2668 0854 C4000000 		.4byte	.LASF144
ARM GAS  /tmp/ccL53n49.s 			page 48


 2669 0858 05       		.byte	0x5
 2670 0859 54       		.byte	0x54
 2671 085a 9A080000 		.4byte	0x89a
 2672 085e 18       		.byte	0x18
 2673 085f 07       		.uleb128 0x7
 2674 0860 D9030000 		.4byte	.LASF145
 2675 0864 05       		.byte	0x5
 2676 0865 55       		.byte	0x55
 2677 0866 78080000 		.4byte	0x878
 2678 086a 1C       		.byte	0x1c
 2679 086b 07       		.uleb128 0x7
 2680 086c 0E040000 		.4byte	.LASF146
 2681 0870 05       		.byte	0x5
 2682 0871 56       		.byte	0x56
 2683 0872 34030000 		.4byte	0x334
 2684 0876 20       		.byte	0x20
 2685 0877 00       		.byte	0
 2686 0878 03       		.uleb128 0x3
 2687 0879 EB000000 		.4byte	.LASF147
 2688 087d 05       		.byte	0x5
 2689 087e 42       		.byte	0x42
 2690 087f 83080000 		.4byte	0x883
 2691 0883 0A       		.uleb128 0xa
 2692 0884 04       		.byte	0x4
 2693 0885 89080000 		.4byte	0x889
 2694 0889 0C       		.uleb128 0xc
 2695 088a 94080000 		.4byte	0x894
 2696 088e 0D       		.uleb128 0xd
 2697 088f 94080000 		.4byte	0x894
 2698 0893 00       		.byte	0
 2699 0894 0A       		.uleb128 0xa
 2700 0895 04       		.byte	0x4
 2701 0896 00080000 		.4byte	0x800
 2702 089a 0A       		.uleb128 0xa
 2703 089b 04       		.byte	0x4
 2704 089c B9000000 		.4byte	0xb9
 2705 08a0 03       		.uleb128 0x3
 2706 08a1 D3040000 		.4byte	.LASF148
 2707 08a5 05       		.byte	0x5
 2708 08a6 64       		.byte	0x64
 2709 08a7 00080000 		.4byte	0x800
 2710 08ab 03       		.uleb128 0x3
 2711 08ac 86050000 		.4byte	.LASF149
 2712 08b0 05       		.byte	0x5
 2713 08b1 71       		.byte	0x71
 2714 08b2 00080000 		.4byte	0x800
 2715 08b6 06       		.uleb128 0x6
 2716 08b7 61020000 		.4byte	.LASF150
 2717 08bb 10       		.byte	0x10
 2718 08bc 13       		.byte	0x13
 2719 08bd 3B       		.byte	0x3b
 2720 08be F3080000 		.4byte	0x8f3
 2721 08c2 07       		.uleb128 0x7
 2722 08c3 03070000 		.4byte	.LASF151
 2723 08c7 13       		.byte	0x13
 2724 08c8 3C       		.byte	0x3c
 2725 08c9 9E060000 		.4byte	0x69e
ARM GAS  /tmp/ccL53n49.s 			page 49


 2726 08cd 00       		.byte	0
 2727 08ce 07       		.uleb128 0x7
 2728 08cf BB070000 		.4byte	.LASF152
 2729 08d3 13       		.byte	0x13
 2730 08d4 3D       		.byte	0x3d
 2731 08d5 F9080000 		.4byte	0x8f9
 2732 08d9 04       		.byte	0x4
 2733 08da 07       		.uleb128 0x7
 2734 08db 51050000 		.4byte	.LASF153
 2735 08df 13       		.byte	0x13
 2736 08e0 3E       		.byte	0x3e
 2737 08e1 F9080000 		.4byte	0x8f9
 2738 08e5 08       		.byte	0x8
 2739 08e6 07       		.uleb128 0x7
 2740 08e7 FD040000 		.4byte	.LASF154
 2741 08eb 13       		.byte	0x13
 2742 08ec 3F       		.byte	0x3f
 2743 08ed F9080000 		.4byte	0x8f9
 2744 08f1 0C       		.byte	0xc
 2745 08f2 00       		.byte	0
 2746 08f3 0F       		.uleb128 0xf
 2747 08f4 B6080000 		.4byte	0x8b6
 2748 08f8 1B       		.uleb128 0x1b
 2749 08f9 0A       		.uleb128 0xa
 2750 08fa 04       		.byte	0x4
 2751 08fb F8080000 		.4byte	0x8f8
 2752 08ff 15       		.uleb128 0x15
 2753 0900 9006     		.2byte	0x690
 2754 0902 13       		.byte	0x13
 2755 0903 44       		.byte	0x44
 2756 0904 44090000 		.4byte	0x944
 2757 0908 13       		.uleb128 0x13
 2758 0909 543000   		.ascii	"T0\000"
 2759 090c 13       		.byte	0x13
 2760 090d 45       		.byte	0x45
 2761 090e 44090000 		.4byte	0x944
 2762 0912 00       		.byte	0
 2763 0913 1C       		.uleb128 0x1c
 2764 0914 543100   		.ascii	"T1\000"
 2765 0917 13       		.byte	0x13
 2766 0918 46       		.byte	0x46
 2767 0919 44090000 		.4byte	0x944
 2768 091d 5001     		.2byte	0x150
 2769 091f 1C       		.uleb128 0x1c
 2770 0920 543200   		.ascii	"T2\000"
 2771 0923 13       		.byte	0x13
 2772 0924 47       		.byte	0x47
 2773 0925 44090000 		.4byte	0x944
 2774 0929 A002     		.2byte	0x2a0
 2775 092b 1C       		.uleb128 0x1c
 2776 092c 543300   		.ascii	"T3\000"
 2777 092f 13       		.byte	0x13
 2778 0930 48       		.byte	0x48
 2779 0931 44090000 		.4byte	0x944
 2780 0935 F003     		.2byte	0x3f0
 2781 0937 1C       		.uleb128 0x1c
 2782 0938 543400   		.ascii	"T4\000"
ARM GAS  /tmp/ccL53n49.s 			page 50


 2783 093b 13       		.byte	0x13
 2784 093c 49       		.byte	0x49
 2785 093d 44090000 		.4byte	0x944
 2786 0941 4005     		.2byte	0x540
 2787 0943 00       		.byte	0
 2788 0944 16       		.uleb128 0x16
 2789 0945 AA040000 		.4byte	0x4aa
 2790 0949 54090000 		.4byte	0x954
 2791 094d 17       		.uleb128 0x17
 2792 094e 8D040000 		.4byte	0x48d
 2793 0952 29       		.byte	0x29
 2794 0953 00       		.byte	0
 2795 0954 1D       		.uleb128 0x1d
 2796 0955 07080000 		.4byte	.LASF189
 2797 0959 9006     		.2byte	0x690
 2798 095b 13       		.byte	0x13
 2799 095c 43       		.byte	0x43
 2800 095d 77090000 		.4byte	0x977
 2801 0961 1E       		.uleb128 0x1e
 2802 0962 776100   		.ascii	"wa\000"
 2803 0965 13       		.byte	0x13
 2804 0966 4A       		.byte	0x4a
 2805 0967 FF080000 		.4byte	0x8ff
 2806 096b 1F       		.uleb128 0x1f
 2807 096c 6E000000 		.4byte	.LASF155
 2808 0970 13       		.byte	0x13
 2809 0971 4B       		.byte	0x4b
 2810 0972 77090000 		.4byte	0x977
 2811 0976 00       		.byte	0
 2812 0977 16       		.uleb128 0x16
 2813 0978 B9000000 		.4byte	0xb9
 2814 097c 88090000 		.4byte	0x988
 2815 0980 20       		.uleb128 0x20
 2816 0981 8D040000 		.4byte	0x48d
 2817 0985 8F06     		.2byte	0x68f
 2818 0987 00       		.byte	0
 2819 0988 12       		.uleb128 0x12
 2820 0989 33020000 		.4byte	.LASF156
 2821 098d 13       		.byte	0x13
 2822 098e 4F       		.byte	0x4f
 2823 098f F9070000 		.4byte	0x7f9
 2824 0993 16       		.uleb128 0x16
 2825 0994 57020000 		.4byte	0x257
 2826 0998 A3090000 		.4byte	0x9a3
 2827 099c 17       		.uleb128 0x17
 2828 099d 8D040000 		.4byte	0x48d
 2829 09a1 04       		.byte	0x4
 2830 09a2 00       		.byte	0
 2831 09a3 12       		.uleb128 0x12
 2832 09a4 6A070000 		.4byte	.LASF157
 2833 09a8 13       		.byte	0x13
 2834 09a9 A7       		.byte	0xa7
 2835 09aa 93090000 		.4byte	0x993
 2836 09ae 12       		.uleb128 0x12
 2837 09af F5000000 		.4byte	.LASF158
 2838 09b3 13       		.byte	0x13
 2839 09b4 A8       		.byte	0xa8
ARM GAS  /tmp/ccL53n49.s 			page 51


 2840 09b5 54090000 		.4byte	0x954
 2841 09b9 16       		.uleb128 0x16
 2842 09ba 36030000 		.4byte	0x336
 2843 09be C4090000 		.4byte	0x9c4
 2844 09c2 21       		.uleb128 0x21
 2845 09c3 00       		.byte	0
 2846 09c4 0F       		.uleb128 0xf
 2847 09c5 B9090000 		.4byte	0x9b9
 2848 09c9 22       		.uleb128 0x22
 2849 09ca 776100   		.ascii	"wa\000"
 2850 09cd 13       		.byte	0x13
 2851 09ce A9       		.byte	0xa9
 2852 09cf C4090000 		.4byte	0x9c4
 2853 09d3 12       		.uleb128 0x12
 2854 09d4 BF080000 		.4byte	.LASF159
 2855 09d8 13       		.byte	0x13
 2856 09d9 AA       		.byte	0xaa
 2857 09da F9070000 		.4byte	0x7f9
 2858 09de 23       		.uleb128 0x23
 2859 09df 697100   		.ascii	"iq\000"
 2860 09e2 06       		.byte	0x6
 2861 09e3 42       		.byte	0x42
 2862 09e4 A0080000 		.4byte	0x8a0
 2863 09e8 05       		.uleb128 0x5
 2864 09e9 03       		.byte	0x3
 2865 09ea 00000000 		.4byte	iq
 2866 09ee 23       		.uleb128 0x23
 2867 09ef 6F7100   		.ascii	"oq\000"
 2868 09f2 06       		.byte	0x6
 2869 09f3 43       		.byte	0x43
 2870 09f4 AB080000 		.4byte	0x8ab
 2871 09f8 05       		.uleb128 0x5
 2872 09f9 03       		.byte	0x3
 2873 09fa 00000000 		.4byte	oq
 2874 09fe 24       		.uleb128 0x24
 2875 09ff A4050000 		.4byte	.LASF160
 2876 0a03 06       		.byte	0x6
 2877 0a04 94       		.byte	0x94
 2878 0a05 F3080000 		.4byte	0x8f3
 2879 0a09 05       		.uleb128 0x5
 2880 0a0a 03       		.byte	0x3
 2881 0a0b 00000000 		.4byte	testqueues1
 2882 0a0f 24       		.uleb128 0x24
 2883 0a10 B0050000 		.4byte	.LASF161
 2884 0a14 06       		.byte	0x6
 2885 0a15 E1       		.byte	0xe1
 2886 0a16 F3080000 		.4byte	0x8f3
 2887 0a1a 05       		.uleb128 0x5
 2888 0a1b 03       		.byte	0x3
 2889 0a1c 00000000 		.4byte	testqueues2
 2890 0a20 16       		.uleb128 0x16
 2891 0a21 3B0A0000 		.4byte	0xa3b
 2892 0a25 300A0000 		.4byte	0xa30
 2893 0a29 17       		.uleb128 0x17
 2894 0a2a 8D040000 		.4byte	0x48d
 2895 0a2e 02       		.byte	0x2
 2896 0a2f 00       		.byte	0
ARM GAS  /tmp/ccL53n49.s 			page 52


 2897 0a30 0F       		.uleb128 0xf
 2898 0a31 200A0000 		.4byte	0xa20
 2899 0a35 0A       		.uleb128 0xa
 2900 0a36 04       		.byte	0x4
 2901 0a37 F3080000 		.4byte	0x8f3
 2902 0a3b 0F       		.uleb128 0xf
 2903 0a3c 350A0000 		.4byte	0xa35
 2904 0a40 24       		.uleb128 0x24
 2905 0a41 F9070000 		.4byte	.LASF162
 2906 0a45 06       		.byte	0x6
 2907 0a46 EC       		.byte	0xec
 2908 0a47 300A0000 		.4byte	0xa30
 2909 0a4b 05       		.uleb128 0x5
 2910 0a4c 03       		.byte	0x3
 2911 0a4d 00000000 		.4byte	patternqueues
 2912 0a51 25       		.uleb128 0x25
 2913 0a52 E9070000 		.4byte	.LASF163
 2914 0a56 06       		.byte	0x6
 2915 0a57 AF       		.byte	0xaf
 2916 0a58 00000000 		.4byte	.LFB158
 2917 0a5c 9C020000 		.4byte	.LFE158-.LFB158
 2918 0a60 01       		.uleb128 0x1
 2919 0a61 9C       		.byte	0x9c
 2920 0a62 950A0000 		.4byte	0xa95
 2921 0a66 23       		.uleb128 0x23
 2922 0a67 6900     		.ascii	"i\000"
 2923 0a69 06       		.byte	0x6
 2924 0a6a B0       		.byte	0xb0
 2925 0a6b 3C000000 		.4byte	0x3c
 2926 0a6f 02       		.uleb128 0x2
 2927 0a70 91       		.byte	0x91
 2928 0a71 74       		.sleb128 -12
 2929 0a72 23       		.uleb128 0x23
 2930 0a73 6E00     		.ascii	"n\000"
 2931 0a75 06       		.byte	0x6
 2932 0a76 B1       		.byte	0xb1
 2933 0a77 2C000000 		.4byte	0x2c
 2934 0a7b 02       		.uleb128 0x2
 2935 0a7c 91       		.byte	0x91
 2936 0a7d 6C       		.sleb128 -20
 2937 0a7e 26       		.uleb128 0x26
 2938 0a7f 76000000 		.4byte	.LBB10
 2939 0a83 24000000 		.4byte	.LBE10-.LBB10
 2940 0a87 23       		.uleb128 0x23
 2941 0a88 6300     		.ascii	"c\000"
 2942 0a8a 06       		.byte	0x6
 2943 0a8b BD       		.byte	0xbd
 2944 0a8c A9060000 		.4byte	0x6a9
 2945 0a90 02       		.uleb128 0x2
 2946 0a91 91       		.byte	0x91
 2947 0a92 73       		.sleb128 -13
 2948 0a93 00       		.byte	0
 2949 0a94 00       		.byte	0
 2950 0a95 25       		.uleb128 0x25
 2951 0a96 D2060000 		.4byte	.LASF164
 2952 0a9a 06       		.byte	0x6
 2953 0a9b A9       		.byte	0xa9
ARM GAS  /tmp/ccL53n49.s 			page 53


 2954 0a9c 00000000 		.4byte	.LFB157
 2955 0aa0 20000000 		.4byte	.LFE157-.LFB157
 2956 0aa4 01       		.uleb128 0x1
 2957 0aa5 9C       		.byte	0x9c
 2958 0aa6 B70A0000 		.4byte	0xab7
 2959 0aaa 27       		.uleb128 0x27
 2960 0aab 7000     		.ascii	"p\000"
 2961 0aad 06       		.byte	0x6
 2962 0aae A9       		.byte	0xa9
 2963 0aaf 34030000 		.4byte	0x334
 2964 0ab3 02       		.uleb128 0x2
 2965 0ab4 91       		.byte	0x91
 2966 0ab5 74       		.sleb128 -12
 2967 0ab6 00       		.byte	0
 2968 0ab7 28       		.uleb128 0x28
 2969 0ab8 D9050000 		.4byte	.LASF167
 2970 0abc 06       		.byte	0x6
 2971 0abd A4       		.byte	0xa4
 2972 0abe 00000000 		.4byte	.LFB156
 2973 0ac2 2C000000 		.4byte	.LFE156-.LFB156
 2974 0ac6 01       		.uleb128 0x1
 2975 0ac7 9C       		.byte	0x9c
 2976 0ac8 25       		.uleb128 0x25
 2977 0ac9 15040000 		.4byte	.LASF165
 2978 0acd 06       		.byte	0x6
 2979 0ace 59       		.byte	0x59
 2980 0acf 00000000 		.4byte	.LFB155
 2981 0ad3 F8020000 		.4byte	.LFE155-.LFB155
 2982 0ad7 01       		.uleb128 0x1
 2983 0ad8 9C       		.byte	0x9c
 2984 0ad9 F60A0000 		.4byte	0xaf6
 2985 0add 23       		.uleb128 0x23
 2986 0ade 6900     		.ascii	"i\000"
 2987 0ae0 06       		.byte	0x6
 2988 0ae1 5A       		.byte	0x5a
 2989 0ae2 3C000000 		.4byte	0x3c
 2990 0ae6 02       		.uleb128 0x2
 2991 0ae7 91       		.byte	0x91
 2992 0ae8 74       		.sleb128 -12
 2993 0ae9 23       		.uleb128 0x23
 2994 0aea 6E00     		.ascii	"n\000"
 2995 0aec 06       		.byte	0x6
 2996 0aed 5B       		.byte	0x5b
 2997 0aee 2C000000 		.4byte	0x2c
 2998 0af2 02       		.uleb128 0x2
 2999 0af3 91       		.byte	0x91
 3000 0af4 70       		.sleb128 -16
 3001 0af5 00       		.byte	0
 3002 0af6 25       		.uleb128 0x25
 3003 0af7 CA060000 		.4byte	.LASF166
 3004 0afb 06       		.byte	0x6
 3005 0afc 53       		.byte	0x53
 3006 0afd 00000000 		.4byte	.LFB154
 3007 0b01 20000000 		.4byte	.LFE154-.LFB154
 3008 0b05 01       		.uleb128 0x1
 3009 0b06 9C       		.byte	0x9c
 3010 0b07 180B0000 		.4byte	0xb18
ARM GAS  /tmp/ccL53n49.s 			page 54


 3011 0b0b 27       		.uleb128 0x27
 3012 0b0c 7000     		.ascii	"p\000"
 3013 0b0e 06       		.byte	0x6
 3014 0b0f 53       		.byte	0x53
 3015 0b10 34030000 		.4byte	0x334
 3016 0b14 02       		.uleb128 0x2
 3017 0b15 91       		.byte	0x91
 3018 0b16 74       		.sleb128 -12
 3019 0b17 00       		.byte	0
 3020 0b18 28       		.uleb128 0x28
 3021 0b19 56000000 		.4byte	.LASF168
 3022 0b1d 06       		.byte	0x6
 3023 0b1e 4E       		.byte	0x4e
 3024 0b1f 00000000 		.4byte	.LFB153
 3025 0b23 2C000000 		.4byte	.LFE153-.LFB153
 3026 0b27 01       		.uleb128 0x1
 3027 0b28 9C       		.byte	0x9c
 3028 0b29 29       		.uleb128 0x29
 3029 0b2a DA060000 		.4byte	.LASF169
 3030 0b2e 06       		.byte	0x6
 3031 0b2f 39       		.byte	0x39
 3032 0b30 00000000 		.4byte	.LFB152
 3033 0b34 0A000000 		.4byte	.LFE152-.LFB152
 3034 0b38 01       		.uleb128 0x1
 3035 0b39 9C       		.byte	0x9c
 3036 0b3a 4C0B0000 		.4byte	0xb4c
 3037 0b3e 27       		.uleb128 0x27
 3038 0b3f 717000   		.ascii	"qp\000"
 3039 0b42 06       		.byte	0x6
 3040 0b43 39       		.byte	0x39
 3041 0b44 94080000 		.4byte	0x894
 3042 0b48 02       		.uleb128 0x2
 3043 0b49 91       		.byte	0x91
 3044 0b4a 7C       		.sleb128 -4
 3045 0b4b 00       		.byte	0
 3046 0b4c 2A       		.uleb128 0x2a
 3047 0b4d EF020000 		.4byte	.LASF170
 3048 0b51 05       		.byte	0x5
 3049 0b52 AC01     		.2byte	0x1ac
 3050 0b54 1C010000 		.4byte	0x11c
 3051 0b58 00000000 		.4byte	.LFB151
 3052 0b5c 2C000000 		.4byte	.LFE151-.LFB151
 3053 0b60 01       		.uleb128 0x1
 3054 0b61 9C       		.byte	0x9c
 3055 0b62 830B0000 		.4byte	0xb83
 3056 0b66 2B       		.uleb128 0x2b
 3057 0b67 6F717000 		.ascii	"oqp\000"
 3058 0b6b 05       		.byte	0x5
 3059 0b6c AC01     		.2byte	0x1ac
 3060 0b6e 830B0000 		.4byte	0xb83
 3061 0b72 02       		.uleb128 0x2
 3062 0b73 91       		.byte	0x91
 3063 0b74 74       		.sleb128 -12
 3064 0b75 2B       		.uleb128 0x2b
 3065 0b76 6200     		.ascii	"b\000"
 3066 0b78 05       		.byte	0x5
 3067 0b79 AC01     		.2byte	0x1ac
ARM GAS  /tmp/ccL53n49.s 			page 55


 3068 0b7b B9000000 		.4byte	0xb9
 3069 0b7f 02       		.uleb128 0x2
 3070 0b80 91       		.byte	0x91
 3071 0b81 73       		.sleb128 -13
 3072 0b82 00       		.byte	0
 3073 0b83 0A       		.uleb128 0xa
 3074 0b84 04       		.byte	0x4
 3075 0b85 AB080000 		.4byte	0x8ab
 3076 0b89 2A       		.uleb128 0x2a
 3077 0b8a 1C080000 		.4byte	.LASF171
 3078 0b8e 05       		.byte	0x5
 3079 0b8f 9701     		.2byte	0x197
 3080 0b91 F9070000 		.4byte	0x7f9
 3081 0b95 00000000 		.4byte	.LFB150
 3082 0b99 1A000000 		.4byte	.LFE150-.LFB150
 3083 0b9d 01       		.uleb128 0x1
 3084 0b9e 9C       		.byte	0x9c
 3085 0b9f B30B0000 		.4byte	0xbb3
 3086 0ba3 2B       		.uleb128 0x2b
 3087 0ba4 6F717000 		.ascii	"oqp\000"
 3088 0ba8 05       		.byte	0x5
 3089 0ba9 9701     		.2byte	0x197
 3090 0bab 830B0000 		.4byte	0xb83
 3091 0baf 02       		.uleb128 0x2
 3092 0bb0 91       		.byte	0x91
 3093 0bb1 74       		.sleb128 -12
 3094 0bb2 00       		.byte	0
 3095 0bb3 2A       		.uleb128 0x2a
 3096 0bb4 CF080000 		.4byte	.LASF172
 3097 0bb8 05       		.byte	0x5
 3098 0bb9 8401     		.2byte	0x184
 3099 0bbb F9070000 		.4byte	0x7f9
 3100 0bbf 00000000 		.4byte	.LFB149
 3101 0bc3 32000000 		.4byte	.LFE149-.LFB149
 3102 0bc7 01       		.uleb128 0x1
 3103 0bc8 9C       		.byte	0x9c
 3104 0bc9 DD0B0000 		.4byte	0xbdd
 3105 0bcd 2B       		.uleb128 0x2b
 3106 0bce 6F717000 		.ascii	"oqp\000"
 3107 0bd2 05       		.byte	0x5
 3108 0bd3 8401     		.2byte	0x184
 3109 0bd5 830B0000 		.4byte	0xb83
 3110 0bd9 02       		.uleb128 0x2
 3111 0bda 91       		.byte	0x91
 3112 0bdb 74       		.sleb128 -12
 3113 0bdc 00       		.byte	0
 3114 0bdd 2A       		.uleb128 0x2a
 3115 0bde 2E040000 		.4byte	.LASF173
 3116 0be2 05       		.byte	0x5
 3117 0be3 6301     		.2byte	0x163
 3118 0be5 2C000000 		.4byte	0x2c
 3119 0be9 00000000 		.4byte	.LFB147
 3120 0bed 24000000 		.4byte	.LFE147-.LFB147
 3121 0bf1 01       		.uleb128 0x1
 3122 0bf2 9C       		.byte	0x9c
 3123 0bf3 070C0000 		.4byte	0xc07
 3124 0bf7 2B       		.uleb128 0x2b
ARM GAS  /tmp/ccL53n49.s 			page 56


 3125 0bf8 6F717000 		.ascii	"oqp\000"
 3126 0bfc 05       		.byte	0x5
 3127 0bfd 6301     		.2byte	0x163
 3128 0bff 830B0000 		.4byte	0xb83
 3129 0c03 02       		.uleb128 0x2
 3130 0c04 91       		.byte	0x91
 3131 0c05 74       		.sleb128 -12
 3132 0c06 00       		.byte	0
 3133 0c07 2A       		.uleb128 0x2a
 3134 0c08 9D070000 		.4byte	.LASF174
 3135 0c0c 05       		.byte	0x5
 3136 0c0d 5501     		.2byte	0x155
 3137 0c0f 1C010000 		.4byte	0x11c
 3138 0c13 00000000 		.4byte	.LFB146
 3139 0c17 20000000 		.4byte	.LFE146-.LFB146
 3140 0c1b 01       		.uleb128 0x1
 3141 0c1c 9C       		.byte	0x9c
 3142 0c1d 310C0000 		.4byte	0xc31
 3143 0c21 2B       		.uleb128 0x2b
 3144 0c22 69717000 		.ascii	"iqp\000"
 3145 0c26 05       		.byte	0x5
 3146 0c27 5501     		.2byte	0x155
 3147 0c29 310C0000 		.4byte	0xc31
 3148 0c2d 02       		.uleb128 0x2
 3149 0c2e 91       		.byte	0x91
 3150 0c2f 74       		.sleb128 -12
 3151 0c30 00       		.byte	0
 3152 0c31 0A       		.uleb128 0xa
 3153 0c32 04       		.byte	0x4
 3154 0c33 A0080000 		.4byte	0x8a0
 3155 0c37 2A       		.uleb128 0x2a
 3156 0c38 91010000 		.4byte	.LASF175
 3157 0c3c 05       		.byte	0x5
 3158 0c3d 4001     		.2byte	0x140
 3159 0c3f F9070000 		.4byte	0x7f9
 3160 0c43 00000000 		.4byte	.LFB145
 3161 0c47 32000000 		.4byte	.LFE145-.LFB145
 3162 0c4b 01       		.uleb128 0x1
 3163 0c4c 9C       		.byte	0x9c
 3164 0c4d 610C0000 		.4byte	0xc61
 3165 0c51 2B       		.uleb128 0x2b
 3166 0c52 69717000 		.ascii	"iqp\000"
 3167 0c56 05       		.byte	0x5
 3168 0c57 4001     		.2byte	0x140
 3169 0c59 310C0000 		.4byte	0xc31
 3170 0c5d 02       		.uleb128 0x2
 3171 0c5e 91       		.byte	0x91
 3172 0c5f 74       		.sleb128 -12
 3173 0c60 00       		.byte	0
 3174 0c61 2A       		.uleb128 0x2a
 3175 0c62 C6050000 		.4byte	.LASF176
 3176 0c66 05       		.byte	0x5
 3177 0c67 2F01     		.2byte	0x12f
 3178 0c69 F9070000 		.4byte	0x7f9
 3179 0c6d 00000000 		.4byte	.LFB144
 3180 0c71 1A000000 		.4byte	.LFE144-.LFB144
 3181 0c75 01       		.uleb128 0x1
ARM GAS  /tmp/ccL53n49.s 			page 57


 3182 0c76 9C       		.byte	0x9c
 3183 0c77 8B0C0000 		.4byte	0xc8b
 3184 0c7b 2B       		.uleb128 0x2b
 3185 0c7c 69717000 		.ascii	"iqp\000"
 3186 0c80 05       		.byte	0x5
 3187 0c81 2F01     		.2byte	0x12f
 3188 0c83 310C0000 		.4byte	0xc31
 3189 0c87 02       		.uleb128 0x2
 3190 0c88 91       		.byte	0x91
 3191 0c89 74       		.sleb128 -12
 3192 0c8a 00       		.byte	0
 3193 0c8b 2A       		.uleb128 0x2a
 3194 0c8c AA080000 		.4byte	.LASF177
 3195 0c90 05       		.byte	0x5
 3196 0c91 0E01     		.2byte	0x10e
 3197 0c93 2C000000 		.4byte	0x2c
 3198 0c97 00000000 		.4byte	.LFB142
 3199 0c9b 14000000 		.4byte	.LFE142-.LFB142
 3200 0c9f 01       		.uleb128 0x1
 3201 0ca0 9C       		.byte	0x9c
 3202 0ca1 B50C0000 		.4byte	0xcb5
 3203 0ca5 2B       		.uleb128 0x2b
 3204 0ca6 69717000 		.ascii	"iqp\000"
 3205 0caa 05       		.byte	0x5
 3206 0cab 0E01     		.2byte	0x10e
 3207 0cad 310C0000 		.4byte	0xc31
 3208 0cb1 02       		.uleb128 0x2
 3209 0cb2 91       		.byte	0x91
 3210 0cb3 74       		.sleb128 -12
 3211 0cb4 00       		.byte	0
 3212 0cb5 2C       		.uleb128 0x2c
 3213 0cb6 92060000 		.4byte	.LASF178
 3214 0cba 04       		.byte	0x4
 3215 0cbb BB       		.byte	0xbb
 3216 0cbc 11010000 		.4byte	0x111
 3217 0cc0 00000000 		.4byte	.LFB100
 3218 0cc4 0E000000 		.4byte	.LFE100-.LFB100
 3219 0cc8 01       		.uleb128 0x1
 3220 0cc9 9C       		.byte	0x9c
 3221 0cca 2D       		.uleb128 0x2d
 3222 0ccb 72020000 		.4byte	.LASF179
 3223 0ccf 04       		.byte	0x4
 3224 0cd0 AE       		.byte	0xae
 3225 0cd1 57020000 		.4byte	0x257
 3226 0cd5 00000000 		.4byte	.LFB99
 3227 0cd9 0C000000 		.4byte	.LFE99-.LFB99
 3228 0cdd 01       		.uleb128 0x1
 3229 0cde 9C       		.byte	0x9c
 3230 0cdf 2E       		.uleb128 0x2e
 3231 0ce0 55020000 		.4byte	.LASF180
 3232 0ce4 03       		.byte	0x3
 3233 0ce5 6601     		.2byte	0x166
 3234 0ce7 00000000 		.4byte	.LFB78
 3235 0ceb 38000000 		.4byte	.LFE78-.LFB78
 3236 0cef 01       		.uleb128 0x1
 3237 0cf0 9C       		.byte	0x9c
 3238 0cf1 050D0000 		.4byte	0xd05
ARM GAS  /tmp/ccL53n49.s 			page 58


 3239 0cf5 2F       		.uleb128 0x2f
 3240 0cf6 2A060000 		.4byte	.LASF190
 3241 0cfa 150D0000 		.4byte	0xd15
 3242 0cfe 05       		.uleb128 0x5
 3243 0cff 03       		.byte	0x3
 3244 0d00 00000000 		.4byte	__func__.4993
 3245 0d04 00       		.byte	0
 3246 0d05 16       		.uleb128 0x16
 3247 0d06 B0060000 		.4byte	0x6b0
 3248 0d0a 150D0000 		.4byte	0xd15
 3249 0d0e 17       		.uleb128 0x17
 3250 0d0f 8D040000 		.4byte	0x48d
 3251 0d13 0B       		.byte	0xb
 3252 0d14 00       		.byte	0
 3253 0d15 0F       		.uleb128 0xf
 3254 0d16 050D0000 		.4byte	0xd05
 3255 0d1a 30       		.uleb128 0x30
 3256 0d1b E2030000 		.4byte	.LASF181
 3257 0d1f 03       		.byte	0x3
 3258 0d20 5A01     		.2byte	0x15a
 3259 0d22 00000000 		.4byte	.LFB77
 3260 0d26 0E000000 		.4byte	.LFE77-.LFB77
 3261 0d2a 01       		.uleb128 0x1
 3262 0d2b 9C       		.byte	0x9c
 3263 0d2c 31       		.uleb128 0x31
 3264 0d2d 2F010000 		.4byte	.LASF182
 3265 0d31 01       		.byte	0x1
 3266 0d32 5301     		.2byte	0x153
 3267 0d34 00000000 		.4byte	.LFB39
 3268 0d38 06000000 		.4byte	.LFE39-.LFB39
 3269 0d3c 01       		.uleb128 0x1
 3270 0d3d 9C       		.byte	0x9c
 3271 0d3e 530D0000 		.4byte	0xd53
 3272 0d42 32       		.uleb128 0x32
 3273 0d43 830D0000 		.4byte	0xd83
 3274 0d47 00000000 		.4byte	.LBB8
 3275 0d4b 02000000 		.4byte	.LBE8-.LBB8
 3276 0d4f 01       		.byte	0x1
 3277 0d50 5501     		.2byte	0x155
 3278 0d52 00       		.byte	0
 3279 0d53 31       		.uleb128 0x31
 3280 0d54 01010000 		.4byte	.LASF183
 3281 0d58 01       		.byte	0x1
 3282 0d59 4A01     		.2byte	0x14a
 3283 0d5b 00000000 		.4byte	.LFB38
 3284 0d5f 06000000 		.4byte	.LFE38-.LFB38
 3285 0d63 01       		.uleb128 0x1
 3286 0d64 9C       		.byte	0x9c
 3287 0d65 7A0D0000 		.4byte	0xd7a
 3288 0d69 32       		.uleb128 0x32
 3289 0d6a 7A0D0000 		.4byte	0xd7a
 3290 0d6e 00000000 		.4byte	.LBB6
 3291 0d72 02000000 		.4byte	.LBE6-.LBB6
 3292 0d76 01       		.byte	0x1
 3293 0d77 4C01     		.2byte	0x14c
 3294 0d79 00       		.byte	0
 3295 0d7a 33       		.uleb128 0x33
ARM GAS  /tmp/ccL53n49.s 			page 59


 3296 0d7b CC020000 		.4byte	.LASF184
 3297 0d7f 02       		.byte	0x2
 3298 0d80 5601     		.2byte	0x156
 3299 0d82 03       		.byte	0x3
 3300 0d83 33       		.uleb128 0x33
 3301 0d84 85060000 		.4byte	.LASF185
 3302 0d88 02       		.byte	0x2
 3303 0d89 4B01     		.2byte	0x14b
 3304 0d8b 03       		.byte	0x3
 3305 0d8c 00       		.byte	0
 3306              		.section	.debug_abbrev,"",%progbits
 3307              	.Ldebug_abbrev0:
 3308 0000 01       		.uleb128 0x1
 3309 0001 11       		.uleb128 0x11
 3310 0002 01       		.byte	0x1
 3311 0003 25       		.uleb128 0x25
 3312 0004 0E       		.uleb128 0xe
 3313 0005 13       		.uleb128 0x13
 3314 0006 0B       		.uleb128 0xb
 3315 0007 03       		.uleb128 0x3
 3316 0008 0E       		.uleb128 0xe
 3317 0009 1B       		.uleb128 0x1b
 3318 000a 0E       		.uleb128 0xe
 3319 000b 55       		.uleb128 0x55
 3320 000c 17       		.uleb128 0x17
 3321 000d 11       		.uleb128 0x11
 3322 000e 01       		.uleb128 0x1
 3323 000f 10       		.uleb128 0x10
 3324 0010 17       		.uleb128 0x17
 3325 0011 00       		.byte	0
 3326 0012 00       		.byte	0
 3327 0013 02       		.uleb128 0x2
 3328 0014 24       		.uleb128 0x24
 3329 0015 00       		.byte	0
 3330 0016 0B       		.uleb128 0xb
 3331 0017 0B       		.uleb128 0xb
 3332 0018 3E       		.uleb128 0x3e
 3333 0019 0B       		.uleb128 0xb
 3334 001a 03       		.uleb128 0x3
 3335 001b 08       		.uleb128 0x8
 3336 001c 00       		.byte	0
 3337 001d 00       		.byte	0
 3338 001e 03       		.uleb128 0x3
 3339 001f 16       		.uleb128 0x16
 3340 0020 00       		.byte	0
 3341 0021 03       		.uleb128 0x3
 3342 0022 0E       		.uleb128 0xe
 3343 0023 3A       		.uleb128 0x3a
 3344 0024 0B       		.uleb128 0xb
 3345 0025 3B       		.uleb128 0x3b
 3346 0026 0B       		.uleb128 0xb
 3347 0027 49       		.uleb128 0x49
 3348 0028 13       		.uleb128 0x13
 3349 0029 00       		.byte	0
 3350 002a 00       		.byte	0
 3351 002b 04       		.uleb128 0x4
 3352 002c 35       		.uleb128 0x35
ARM GAS  /tmp/ccL53n49.s 			page 60


 3353 002d 00       		.byte	0
 3354 002e 49       		.uleb128 0x49
 3355 002f 13       		.uleb128 0x13
 3356 0030 00       		.byte	0
 3357 0031 00       		.byte	0
 3358 0032 05       		.uleb128 0x5
 3359 0033 24       		.uleb128 0x24
 3360 0034 00       		.byte	0
 3361 0035 0B       		.uleb128 0xb
 3362 0036 0B       		.uleb128 0xb
 3363 0037 3E       		.uleb128 0x3e
 3364 0038 0B       		.uleb128 0xb
 3365 0039 03       		.uleb128 0x3
 3366 003a 0E       		.uleb128 0xe
 3367 003b 00       		.byte	0
 3368 003c 00       		.byte	0
 3369 003d 06       		.uleb128 0x6
 3370 003e 13       		.uleb128 0x13
 3371 003f 01       		.byte	0x1
 3372 0040 03       		.uleb128 0x3
 3373 0041 0E       		.uleb128 0xe
 3374 0042 0B       		.uleb128 0xb
 3375 0043 0B       		.uleb128 0xb
 3376 0044 3A       		.uleb128 0x3a
 3377 0045 0B       		.uleb128 0xb
 3378 0046 3B       		.uleb128 0x3b
 3379 0047 0B       		.uleb128 0xb
 3380 0048 01       		.uleb128 0x1
 3381 0049 13       		.uleb128 0x13
 3382 004a 00       		.byte	0
 3383 004b 00       		.byte	0
 3384 004c 07       		.uleb128 0x7
 3385 004d 0D       		.uleb128 0xd
 3386 004e 00       		.byte	0
 3387 004f 03       		.uleb128 0x3
 3388 0050 0E       		.uleb128 0xe
 3389 0051 3A       		.uleb128 0x3a
 3390 0052 0B       		.uleb128 0xb
 3391 0053 3B       		.uleb128 0x3b
 3392 0054 0B       		.uleb128 0xb
 3393 0055 49       		.uleb128 0x49
 3394 0056 13       		.uleb128 0x13
 3395 0057 38       		.uleb128 0x38
 3396 0058 0B       		.uleb128 0xb
 3397 0059 00       		.byte	0
 3398 005a 00       		.byte	0
 3399 005b 08       		.uleb128 0x8
 3400 005c 0D       		.uleb128 0xd
 3401 005d 00       		.byte	0
 3402 005e 03       		.uleb128 0x3
 3403 005f 08       		.uleb128 0x8
 3404 0060 3A       		.uleb128 0x3a
 3405 0061 0B       		.uleb128 0xb
 3406 0062 3B       		.uleb128 0x3b
 3407 0063 05       		.uleb128 0x5
 3408 0064 49       		.uleb128 0x49
 3409 0065 13       		.uleb128 0x13
ARM GAS  /tmp/ccL53n49.s 			page 61


 3410 0066 38       		.uleb128 0x38
 3411 0067 0B       		.uleb128 0xb
 3412 0068 00       		.byte	0
 3413 0069 00       		.byte	0
 3414 006a 09       		.uleb128 0x9
 3415 006b 0D       		.uleb128 0xd
 3416 006c 00       		.byte	0
 3417 006d 03       		.uleb128 0x3
 3418 006e 0E       		.uleb128 0xe
 3419 006f 3A       		.uleb128 0x3a
 3420 0070 0B       		.uleb128 0xb
 3421 0071 3B       		.uleb128 0x3b
 3422 0072 05       		.uleb128 0x5
 3423 0073 49       		.uleb128 0x49
 3424 0074 13       		.uleb128 0x13
 3425 0075 38       		.uleb128 0x38
 3426 0076 0B       		.uleb128 0xb
 3427 0077 00       		.byte	0
 3428 0078 00       		.byte	0
 3429 0079 0A       		.uleb128 0xa
 3430 007a 0F       		.uleb128 0xf
 3431 007b 00       		.byte	0
 3432 007c 0B       		.uleb128 0xb
 3433 007d 0B       		.uleb128 0xb
 3434 007e 49       		.uleb128 0x49
 3435 007f 13       		.uleb128 0x13
 3436 0080 00       		.byte	0
 3437 0081 00       		.byte	0
 3438 0082 0B       		.uleb128 0xb
 3439 0083 13       		.uleb128 0x13
 3440 0084 01       		.byte	0x1
 3441 0085 03       		.uleb128 0x3
 3442 0086 0E       		.uleb128 0xe
 3443 0087 0B       		.uleb128 0xb
 3444 0088 0B       		.uleb128 0xb
 3445 0089 3A       		.uleb128 0x3a
 3446 008a 0B       		.uleb128 0xb
 3447 008b 3B       		.uleb128 0x3b
 3448 008c 05       		.uleb128 0x5
 3449 008d 01       		.uleb128 0x1
 3450 008e 13       		.uleb128 0x13
 3451 008f 00       		.byte	0
 3452 0090 00       		.byte	0
 3453 0091 0C       		.uleb128 0xc
 3454 0092 15       		.uleb128 0x15
 3455 0093 01       		.byte	0x1
 3456 0094 27       		.uleb128 0x27
 3457 0095 19       		.uleb128 0x19
 3458 0096 01       		.uleb128 0x1
 3459 0097 13       		.uleb128 0x13
 3460 0098 00       		.byte	0
 3461 0099 00       		.byte	0
 3462 009a 0D       		.uleb128 0xd
 3463 009b 05       		.uleb128 0x5
 3464 009c 00       		.byte	0
 3465 009d 49       		.uleb128 0x49
 3466 009e 13       		.uleb128 0x13
ARM GAS  /tmp/ccL53n49.s 			page 62


 3467 009f 00       		.byte	0
 3468 00a0 00       		.byte	0
 3469 00a1 0E       		.uleb128 0xe
 3470 00a2 0F       		.uleb128 0xf
 3471 00a3 00       		.byte	0
 3472 00a4 0B       		.uleb128 0xb
 3473 00a5 0B       		.uleb128 0xb
 3474 00a6 00       		.byte	0
 3475 00a7 00       		.byte	0
 3476 00a8 0F       		.uleb128 0xf
 3477 00a9 26       		.uleb128 0x26
 3478 00aa 00       		.byte	0
 3479 00ab 49       		.uleb128 0x49
 3480 00ac 13       		.uleb128 0x13
 3481 00ad 00       		.byte	0
 3482 00ae 00       		.byte	0
 3483 00af 10       		.uleb128 0x10
 3484 00b0 13       		.uleb128 0x13
 3485 00b1 01       		.byte	0x1
 3486 00b2 03       		.uleb128 0x3
 3487 00b3 0E       		.uleb128 0xe
 3488 00b4 0B       		.uleb128 0xb
 3489 00b5 05       		.uleb128 0x5
 3490 00b6 3A       		.uleb128 0x3a
 3491 00b7 0B       		.uleb128 0xb
 3492 00b8 3B       		.uleb128 0x3b
 3493 00b9 05       		.uleb128 0x5
 3494 00ba 01       		.uleb128 0x1
 3495 00bb 13       		.uleb128 0x13
 3496 00bc 00       		.byte	0
 3497 00bd 00       		.byte	0
 3498 00be 11       		.uleb128 0x11
 3499 00bf 0D       		.uleb128 0xd
 3500 00c0 00       		.byte	0
 3501 00c1 03       		.uleb128 0x3
 3502 00c2 0E       		.uleb128 0xe
 3503 00c3 3A       		.uleb128 0x3a
 3504 00c4 0B       		.uleb128 0xb
 3505 00c5 3B       		.uleb128 0x3b
 3506 00c6 05       		.uleb128 0x5
 3507 00c7 49       		.uleb128 0x49
 3508 00c8 13       		.uleb128 0x13
 3509 00c9 38       		.uleb128 0x38
 3510 00ca 05       		.uleb128 0x5
 3511 00cb 00       		.byte	0
 3512 00cc 00       		.byte	0
 3513 00cd 12       		.uleb128 0x12
 3514 00ce 34       		.uleb128 0x34
 3515 00cf 00       		.byte	0
 3516 00d0 03       		.uleb128 0x3
 3517 00d1 0E       		.uleb128 0xe
 3518 00d2 3A       		.uleb128 0x3a
 3519 00d3 0B       		.uleb128 0xb
 3520 00d4 3B       		.uleb128 0x3b
 3521 00d5 0B       		.uleb128 0xb
 3522 00d6 49       		.uleb128 0x49
 3523 00d7 13       		.uleb128 0x13
ARM GAS  /tmp/ccL53n49.s 			page 63


 3524 00d8 3F       		.uleb128 0x3f
 3525 00d9 19       		.uleb128 0x19
 3526 00da 3C       		.uleb128 0x3c
 3527 00db 19       		.uleb128 0x19
 3528 00dc 00       		.byte	0
 3529 00dd 00       		.byte	0
 3530 00de 13       		.uleb128 0x13
 3531 00df 0D       		.uleb128 0xd
 3532 00e0 00       		.byte	0
 3533 00e1 03       		.uleb128 0x3
 3534 00e2 08       		.uleb128 0x8
 3535 00e3 3A       		.uleb128 0x3a
 3536 00e4 0B       		.uleb128 0xb
 3537 00e5 3B       		.uleb128 0x3b
 3538 00e6 0B       		.uleb128 0xb
 3539 00e7 49       		.uleb128 0x49
 3540 00e8 13       		.uleb128 0x13
 3541 00e9 38       		.uleb128 0x38
 3542 00ea 0B       		.uleb128 0xb
 3543 00eb 00       		.byte	0
 3544 00ec 00       		.byte	0
 3545 00ed 14       		.uleb128 0x14
 3546 00ee 13       		.uleb128 0x13
 3547 00ef 01       		.byte	0x1
 3548 00f0 0B       		.uleb128 0xb
 3549 00f1 0B       		.uleb128 0xb
 3550 00f2 3A       		.uleb128 0x3a
 3551 00f3 0B       		.uleb128 0xb
 3552 00f4 3B       		.uleb128 0x3b
 3553 00f5 0B       		.uleb128 0xb
 3554 00f6 01       		.uleb128 0x1
 3555 00f7 13       		.uleb128 0x13
 3556 00f8 00       		.byte	0
 3557 00f9 00       		.byte	0
 3558 00fa 15       		.uleb128 0x15
 3559 00fb 13       		.uleb128 0x13
 3560 00fc 01       		.byte	0x1
 3561 00fd 0B       		.uleb128 0xb
 3562 00fe 05       		.uleb128 0x5
 3563 00ff 3A       		.uleb128 0x3a
 3564 0100 0B       		.uleb128 0xb
 3565 0101 3B       		.uleb128 0x3b
 3566 0102 0B       		.uleb128 0xb
 3567 0103 01       		.uleb128 0x1
 3568 0104 13       		.uleb128 0x13
 3569 0105 00       		.byte	0
 3570 0106 00       		.byte	0
 3571 0107 16       		.uleb128 0x16
 3572 0108 01       		.uleb128 0x1
 3573 0109 01       		.byte	0x1
 3574 010a 49       		.uleb128 0x49
 3575 010b 13       		.uleb128 0x13
 3576 010c 01       		.uleb128 0x1
 3577 010d 13       		.uleb128 0x13
 3578 010e 00       		.byte	0
 3579 010f 00       		.byte	0
 3580 0110 17       		.uleb128 0x17
ARM GAS  /tmp/ccL53n49.s 			page 64


 3581 0111 21       		.uleb128 0x21
 3582 0112 00       		.byte	0
 3583 0113 49       		.uleb128 0x49
 3584 0114 13       		.uleb128 0x13
 3585 0115 2F       		.uleb128 0x2f
 3586 0116 0B       		.uleb128 0xb
 3587 0117 00       		.byte	0
 3588 0118 00       		.byte	0
 3589 0119 18       		.uleb128 0x18
 3590 011a 17       		.uleb128 0x17
 3591 011b 01       		.byte	0x1
 3592 011c 0B       		.uleb128 0xb
 3593 011d 0B       		.uleb128 0xb
 3594 011e 3A       		.uleb128 0x3a
 3595 011f 0B       		.uleb128 0xb
 3596 0120 3B       		.uleb128 0x3b
 3597 0121 0B       		.uleb128 0xb
 3598 0122 01       		.uleb128 0x1
 3599 0123 13       		.uleb128 0x13
 3600 0124 00       		.byte	0
 3601 0125 00       		.byte	0
 3602 0126 19       		.uleb128 0x19
 3603 0127 0D       		.uleb128 0xd
 3604 0128 00       		.byte	0
 3605 0129 03       		.uleb128 0x3
 3606 012a 0E       		.uleb128 0xe
 3607 012b 3A       		.uleb128 0x3a
 3608 012c 0B       		.uleb128 0xb
 3609 012d 3B       		.uleb128 0x3b
 3610 012e 05       		.uleb128 0x5
 3611 012f 49       		.uleb128 0x49
 3612 0130 13       		.uleb128 0x13
 3613 0131 00       		.byte	0
 3614 0132 00       		.byte	0
 3615 0133 1A       		.uleb128 0x1a
 3616 0134 34       		.uleb128 0x34
 3617 0135 00       		.byte	0
 3618 0136 03       		.uleb128 0x3
 3619 0137 08       		.uleb128 0x8
 3620 0138 3A       		.uleb128 0x3a
 3621 0139 0B       		.uleb128 0xb
 3622 013a 3B       		.uleb128 0x3b
 3623 013b 05       		.uleb128 0x5
 3624 013c 49       		.uleb128 0x49
 3625 013d 13       		.uleb128 0x13
 3626 013e 3F       		.uleb128 0x3f
 3627 013f 19       		.uleb128 0x19
 3628 0140 3C       		.uleb128 0x3c
 3629 0141 19       		.uleb128 0x19
 3630 0142 00       		.byte	0
 3631 0143 00       		.byte	0
 3632 0144 1B       		.uleb128 0x1b
 3633 0145 15       		.uleb128 0x15
 3634 0146 00       		.byte	0
 3635 0147 27       		.uleb128 0x27
 3636 0148 19       		.uleb128 0x19
 3637 0149 00       		.byte	0
ARM GAS  /tmp/ccL53n49.s 			page 65


 3638 014a 00       		.byte	0
 3639 014b 1C       		.uleb128 0x1c
 3640 014c 0D       		.uleb128 0xd
 3641 014d 00       		.byte	0
 3642 014e 03       		.uleb128 0x3
 3643 014f 08       		.uleb128 0x8
 3644 0150 3A       		.uleb128 0x3a
 3645 0151 0B       		.uleb128 0xb
 3646 0152 3B       		.uleb128 0x3b
 3647 0153 0B       		.uleb128 0xb
 3648 0154 49       		.uleb128 0x49
 3649 0155 13       		.uleb128 0x13
 3650 0156 38       		.uleb128 0x38
 3651 0157 05       		.uleb128 0x5
 3652 0158 00       		.byte	0
 3653 0159 00       		.byte	0
 3654 015a 1D       		.uleb128 0x1d
 3655 015b 17       		.uleb128 0x17
 3656 015c 01       		.byte	0x1
 3657 015d 03       		.uleb128 0x3
 3658 015e 0E       		.uleb128 0xe
 3659 015f 0B       		.uleb128 0xb
 3660 0160 05       		.uleb128 0x5
 3661 0161 3A       		.uleb128 0x3a
 3662 0162 0B       		.uleb128 0xb
 3663 0163 3B       		.uleb128 0x3b
 3664 0164 0B       		.uleb128 0xb
 3665 0165 01       		.uleb128 0x1
 3666 0166 13       		.uleb128 0x13
 3667 0167 00       		.byte	0
 3668 0168 00       		.byte	0
 3669 0169 1E       		.uleb128 0x1e
 3670 016a 0D       		.uleb128 0xd
 3671 016b 00       		.byte	0
 3672 016c 03       		.uleb128 0x3
 3673 016d 08       		.uleb128 0x8
 3674 016e 3A       		.uleb128 0x3a
 3675 016f 0B       		.uleb128 0xb
 3676 0170 3B       		.uleb128 0x3b
 3677 0171 0B       		.uleb128 0xb
 3678 0172 49       		.uleb128 0x49
 3679 0173 13       		.uleb128 0x13
 3680 0174 00       		.byte	0
 3681 0175 00       		.byte	0
 3682 0176 1F       		.uleb128 0x1f
 3683 0177 0D       		.uleb128 0xd
 3684 0178 00       		.byte	0
 3685 0179 03       		.uleb128 0x3
 3686 017a 0E       		.uleb128 0xe
 3687 017b 3A       		.uleb128 0x3a
 3688 017c 0B       		.uleb128 0xb
 3689 017d 3B       		.uleb128 0x3b
 3690 017e 0B       		.uleb128 0xb
 3691 017f 49       		.uleb128 0x49
 3692 0180 13       		.uleb128 0x13
 3693 0181 00       		.byte	0
 3694 0182 00       		.byte	0
ARM GAS  /tmp/ccL53n49.s 			page 66


 3695 0183 20       		.uleb128 0x20
 3696 0184 21       		.uleb128 0x21
 3697 0185 00       		.byte	0
 3698 0186 49       		.uleb128 0x49
 3699 0187 13       		.uleb128 0x13
 3700 0188 2F       		.uleb128 0x2f
 3701 0189 05       		.uleb128 0x5
 3702 018a 00       		.byte	0
 3703 018b 00       		.byte	0
 3704 018c 21       		.uleb128 0x21
 3705 018d 21       		.uleb128 0x21
 3706 018e 00       		.byte	0
 3707 018f 00       		.byte	0
 3708 0190 00       		.byte	0
 3709 0191 22       		.uleb128 0x22
 3710 0192 34       		.uleb128 0x34
 3711 0193 00       		.byte	0
 3712 0194 03       		.uleb128 0x3
 3713 0195 08       		.uleb128 0x8
 3714 0196 3A       		.uleb128 0x3a
 3715 0197 0B       		.uleb128 0xb
 3716 0198 3B       		.uleb128 0x3b
 3717 0199 0B       		.uleb128 0xb
 3718 019a 49       		.uleb128 0x49
 3719 019b 13       		.uleb128 0x13
 3720 019c 3F       		.uleb128 0x3f
 3721 019d 19       		.uleb128 0x19
 3722 019e 3C       		.uleb128 0x3c
 3723 019f 19       		.uleb128 0x19
 3724 01a0 00       		.byte	0
 3725 01a1 00       		.byte	0
 3726 01a2 23       		.uleb128 0x23
 3727 01a3 34       		.uleb128 0x34
 3728 01a4 00       		.byte	0
 3729 01a5 03       		.uleb128 0x3
 3730 01a6 08       		.uleb128 0x8
 3731 01a7 3A       		.uleb128 0x3a
 3732 01a8 0B       		.uleb128 0xb
 3733 01a9 3B       		.uleb128 0x3b
 3734 01aa 0B       		.uleb128 0xb
 3735 01ab 49       		.uleb128 0x49
 3736 01ac 13       		.uleb128 0x13
 3737 01ad 02       		.uleb128 0x2
 3738 01ae 18       		.uleb128 0x18
 3739 01af 00       		.byte	0
 3740 01b0 00       		.byte	0
 3741 01b1 24       		.uleb128 0x24
 3742 01b2 34       		.uleb128 0x34
 3743 01b3 00       		.byte	0
 3744 01b4 03       		.uleb128 0x3
 3745 01b5 0E       		.uleb128 0xe
 3746 01b6 3A       		.uleb128 0x3a
 3747 01b7 0B       		.uleb128 0xb
 3748 01b8 3B       		.uleb128 0x3b
 3749 01b9 0B       		.uleb128 0xb
 3750 01ba 49       		.uleb128 0x49
 3751 01bb 13       		.uleb128 0x13
ARM GAS  /tmp/ccL53n49.s 			page 67


 3752 01bc 3F       		.uleb128 0x3f
 3753 01bd 19       		.uleb128 0x19
 3754 01be 02       		.uleb128 0x2
 3755 01bf 18       		.uleb128 0x18
 3756 01c0 00       		.byte	0
 3757 01c1 00       		.byte	0
 3758 01c2 25       		.uleb128 0x25
 3759 01c3 2E       		.uleb128 0x2e
 3760 01c4 01       		.byte	0x1
 3761 01c5 03       		.uleb128 0x3
 3762 01c6 0E       		.uleb128 0xe
 3763 01c7 3A       		.uleb128 0x3a
 3764 01c8 0B       		.uleb128 0xb
 3765 01c9 3B       		.uleb128 0x3b
 3766 01ca 0B       		.uleb128 0xb
 3767 01cb 27       		.uleb128 0x27
 3768 01cc 19       		.uleb128 0x19
 3769 01cd 11       		.uleb128 0x11
 3770 01ce 01       		.uleb128 0x1
 3771 01cf 12       		.uleb128 0x12
 3772 01d0 06       		.uleb128 0x6
 3773 01d1 40       		.uleb128 0x40
 3774 01d2 18       		.uleb128 0x18
 3775 01d3 9642     		.uleb128 0x2116
 3776 01d5 19       		.uleb128 0x19
 3777 01d6 01       		.uleb128 0x1
 3778 01d7 13       		.uleb128 0x13
 3779 01d8 00       		.byte	0
 3780 01d9 00       		.byte	0
 3781 01da 26       		.uleb128 0x26
 3782 01db 0B       		.uleb128 0xb
 3783 01dc 01       		.byte	0x1
 3784 01dd 11       		.uleb128 0x11
 3785 01de 01       		.uleb128 0x1
 3786 01df 12       		.uleb128 0x12
 3787 01e0 06       		.uleb128 0x6
 3788 01e1 00       		.byte	0
 3789 01e2 00       		.byte	0
 3790 01e3 27       		.uleb128 0x27
 3791 01e4 05       		.uleb128 0x5
 3792 01e5 00       		.byte	0
 3793 01e6 03       		.uleb128 0x3
 3794 01e7 08       		.uleb128 0x8
 3795 01e8 3A       		.uleb128 0x3a
 3796 01e9 0B       		.uleb128 0xb
 3797 01ea 3B       		.uleb128 0x3b
 3798 01eb 0B       		.uleb128 0xb
 3799 01ec 49       		.uleb128 0x49
 3800 01ed 13       		.uleb128 0x13
 3801 01ee 02       		.uleb128 0x2
 3802 01ef 18       		.uleb128 0x18
 3803 01f0 00       		.byte	0
 3804 01f1 00       		.byte	0
 3805 01f2 28       		.uleb128 0x28
 3806 01f3 2E       		.uleb128 0x2e
 3807 01f4 00       		.byte	0
 3808 01f5 03       		.uleb128 0x3
ARM GAS  /tmp/ccL53n49.s 			page 68


 3809 01f6 0E       		.uleb128 0xe
 3810 01f7 3A       		.uleb128 0x3a
 3811 01f8 0B       		.uleb128 0xb
 3812 01f9 3B       		.uleb128 0x3b
 3813 01fa 0B       		.uleb128 0xb
 3814 01fb 27       		.uleb128 0x27
 3815 01fc 19       		.uleb128 0x19
 3816 01fd 11       		.uleb128 0x11
 3817 01fe 01       		.uleb128 0x1
 3818 01ff 12       		.uleb128 0x12
 3819 0200 06       		.uleb128 0x6
 3820 0201 40       		.uleb128 0x40
 3821 0202 18       		.uleb128 0x18
 3822 0203 9642     		.uleb128 0x2116
 3823 0205 19       		.uleb128 0x19
 3824 0206 00       		.byte	0
 3825 0207 00       		.byte	0
 3826 0208 29       		.uleb128 0x29
 3827 0209 2E       		.uleb128 0x2e
 3828 020a 01       		.byte	0x1
 3829 020b 03       		.uleb128 0x3
 3830 020c 0E       		.uleb128 0xe
 3831 020d 3A       		.uleb128 0x3a
 3832 020e 0B       		.uleb128 0xb
 3833 020f 3B       		.uleb128 0x3b
 3834 0210 0B       		.uleb128 0xb
 3835 0211 27       		.uleb128 0x27
 3836 0212 19       		.uleb128 0x19
 3837 0213 11       		.uleb128 0x11
 3838 0214 01       		.uleb128 0x1
 3839 0215 12       		.uleb128 0x12
 3840 0216 06       		.uleb128 0x6
 3841 0217 40       		.uleb128 0x40
 3842 0218 18       		.uleb128 0x18
 3843 0219 9742     		.uleb128 0x2117
 3844 021b 19       		.uleb128 0x19
 3845 021c 01       		.uleb128 0x1
 3846 021d 13       		.uleb128 0x13
 3847 021e 00       		.byte	0
 3848 021f 00       		.byte	0
 3849 0220 2A       		.uleb128 0x2a
 3850 0221 2E       		.uleb128 0x2e
 3851 0222 01       		.byte	0x1
 3852 0223 03       		.uleb128 0x3
 3853 0224 0E       		.uleb128 0xe
 3854 0225 3A       		.uleb128 0x3a
 3855 0226 0B       		.uleb128 0xb
 3856 0227 3B       		.uleb128 0x3b
 3857 0228 05       		.uleb128 0x5
 3858 0229 27       		.uleb128 0x27
 3859 022a 19       		.uleb128 0x19
 3860 022b 49       		.uleb128 0x49
 3861 022c 13       		.uleb128 0x13
 3862 022d 11       		.uleb128 0x11
 3863 022e 01       		.uleb128 0x1
 3864 022f 12       		.uleb128 0x12
 3865 0230 06       		.uleb128 0x6
ARM GAS  /tmp/ccL53n49.s 			page 69


 3866 0231 40       		.uleb128 0x40
 3867 0232 18       		.uleb128 0x18
 3868 0233 9642     		.uleb128 0x2116
 3869 0235 19       		.uleb128 0x19
 3870 0236 01       		.uleb128 0x1
 3871 0237 13       		.uleb128 0x13
 3872 0238 00       		.byte	0
 3873 0239 00       		.byte	0
 3874 023a 2B       		.uleb128 0x2b
 3875 023b 05       		.uleb128 0x5
 3876 023c 00       		.byte	0
 3877 023d 03       		.uleb128 0x3
 3878 023e 08       		.uleb128 0x8
 3879 023f 3A       		.uleb128 0x3a
 3880 0240 0B       		.uleb128 0xb
 3881 0241 3B       		.uleb128 0x3b
 3882 0242 05       		.uleb128 0x5
 3883 0243 49       		.uleb128 0x49
 3884 0244 13       		.uleb128 0x13
 3885 0245 02       		.uleb128 0x2
 3886 0246 18       		.uleb128 0x18
 3887 0247 00       		.byte	0
 3888 0248 00       		.byte	0
 3889 0249 2C       		.uleb128 0x2c
 3890 024a 2E       		.uleb128 0x2e
 3891 024b 00       		.byte	0
 3892 024c 03       		.uleb128 0x3
 3893 024d 0E       		.uleb128 0xe
 3894 024e 3A       		.uleb128 0x3a
 3895 024f 0B       		.uleb128 0xb
 3896 0250 3B       		.uleb128 0x3b
 3897 0251 0B       		.uleb128 0xb
 3898 0252 27       		.uleb128 0x27
 3899 0253 19       		.uleb128 0x19
 3900 0254 49       		.uleb128 0x49
 3901 0255 13       		.uleb128 0x13
 3902 0256 11       		.uleb128 0x11
 3903 0257 01       		.uleb128 0x1
 3904 0258 12       		.uleb128 0x12
 3905 0259 06       		.uleb128 0x6
 3906 025a 40       		.uleb128 0x40
 3907 025b 18       		.uleb128 0x18
 3908 025c 9642     		.uleb128 0x2116
 3909 025e 19       		.uleb128 0x19
 3910 025f 00       		.byte	0
 3911 0260 00       		.byte	0
 3912 0261 2D       		.uleb128 0x2d
 3913 0262 2E       		.uleb128 0x2e
 3914 0263 00       		.byte	0
 3915 0264 03       		.uleb128 0x3
 3916 0265 0E       		.uleb128 0xe
 3917 0266 3A       		.uleb128 0x3a
 3918 0267 0B       		.uleb128 0xb
 3919 0268 3B       		.uleb128 0x3b
 3920 0269 0B       		.uleb128 0xb
 3921 026a 27       		.uleb128 0x27
 3922 026b 19       		.uleb128 0x19
ARM GAS  /tmp/ccL53n49.s 			page 70


 3923 026c 49       		.uleb128 0x49
 3924 026d 13       		.uleb128 0x13
 3925 026e 11       		.uleb128 0x11
 3926 026f 01       		.uleb128 0x1
 3927 0270 12       		.uleb128 0x12
 3928 0271 06       		.uleb128 0x6
 3929 0272 40       		.uleb128 0x40
 3930 0273 18       		.uleb128 0x18
 3931 0274 9742     		.uleb128 0x2117
 3932 0276 19       		.uleb128 0x19
 3933 0277 00       		.byte	0
 3934 0278 00       		.byte	0
 3935 0279 2E       		.uleb128 0x2e
 3936 027a 2E       		.uleb128 0x2e
 3937 027b 01       		.byte	0x1
 3938 027c 03       		.uleb128 0x3
 3939 027d 0E       		.uleb128 0xe
 3940 027e 3A       		.uleb128 0x3a
 3941 027f 0B       		.uleb128 0xb
 3942 0280 3B       		.uleb128 0x3b
 3943 0281 05       		.uleb128 0x5
 3944 0282 27       		.uleb128 0x27
 3945 0283 19       		.uleb128 0x19
 3946 0284 11       		.uleb128 0x11
 3947 0285 01       		.uleb128 0x1
 3948 0286 12       		.uleb128 0x12
 3949 0287 06       		.uleb128 0x6
 3950 0288 40       		.uleb128 0x40
 3951 0289 18       		.uleb128 0x18
 3952 028a 9642     		.uleb128 0x2116
 3953 028c 19       		.uleb128 0x19
 3954 028d 01       		.uleb128 0x1
 3955 028e 13       		.uleb128 0x13
 3956 028f 00       		.byte	0
 3957 0290 00       		.byte	0
 3958 0291 2F       		.uleb128 0x2f
 3959 0292 34       		.uleb128 0x34
 3960 0293 00       		.byte	0
 3961 0294 03       		.uleb128 0x3
 3962 0295 0E       		.uleb128 0xe
 3963 0296 49       		.uleb128 0x49
 3964 0297 13       		.uleb128 0x13
 3965 0298 34       		.uleb128 0x34
 3966 0299 19       		.uleb128 0x19
 3967 029a 02       		.uleb128 0x2
 3968 029b 18       		.uleb128 0x18
 3969 029c 00       		.byte	0
 3970 029d 00       		.byte	0
 3971 029e 30       		.uleb128 0x30
 3972 029f 2E       		.uleb128 0x2e
 3973 02a0 00       		.byte	0
 3974 02a1 03       		.uleb128 0x3
 3975 02a2 0E       		.uleb128 0xe
 3976 02a3 3A       		.uleb128 0x3a
 3977 02a4 0B       		.uleb128 0xb
 3978 02a5 3B       		.uleb128 0x3b
 3979 02a6 05       		.uleb128 0x5
ARM GAS  /tmp/ccL53n49.s 			page 71


 3980 02a7 27       		.uleb128 0x27
 3981 02a8 19       		.uleb128 0x19
 3982 02a9 11       		.uleb128 0x11
 3983 02aa 01       		.uleb128 0x1
 3984 02ab 12       		.uleb128 0x12
 3985 02ac 06       		.uleb128 0x6
 3986 02ad 40       		.uleb128 0x40
 3987 02ae 18       		.uleb128 0x18
 3988 02af 9642     		.uleb128 0x2116
 3989 02b1 19       		.uleb128 0x19
 3990 02b2 00       		.byte	0
 3991 02b3 00       		.byte	0
 3992 02b4 31       		.uleb128 0x31
 3993 02b5 2E       		.uleb128 0x2e
 3994 02b6 01       		.byte	0x1
 3995 02b7 03       		.uleb128 0x3
 3996 02b8 0E       		.uleb128 0xe
 3997 02b9 3A       		.uleb128 0x3a
 3998 02ba 0B       		.uleb128 0xb
 3999 02bb 3B       		.uleb128 0x3b
 4000 02bc 05       		.uleb128 0x5
 4001 02bd 27       		.uleb128 0x27
 4002 02be 19       		.uleb128 0x19
 4003 02bf 11       		.uleb128 0x11
 4004 02c0 01       		.uleb128 0x1
 4005 02c1 12       		.uleb128 0x12
 4006 02c2 06       		.uleb128 0x6
 4007 02c3 40       		.uleb128 0x40
 4008 02c4 18       		.uleb128 0x18
 4009 02c5 9742     		.uleb128 0x2117
 4010 02c7 19       		.uleb128 0x19
 4011 02c8 01       		.uleb128 0x1
 4012 02c9 13       		.uleb128 0x13
 4013 02ca 00       		.byte	0
 4014 02cb 00       		.byte	0
 4015 02cc 32       		.uleb128 0x32
 4016 02cd 1D       		.uleb128 0x1d
 4017 02ce 00       		.byte	0
 4018 02cf 31       		.uleb128 0x31
 4019 02d0 13       		.uleb128 0x13
 4020 02d1 11       		.uleb128 0x11
 4021 02d2 01       		.uleb128 0x1
 4022 02d3 12       		.uleb128 0x12
 4023 02d4 06       		.uleb128 0x6
 4024 02d5 58       		.uleb128 0x58
 4025 02d6 0B       		.uleb128 0xb
 4026 02d7 59       		.uleb128 0x59
 4027 02d8 05       		.uleb128 0x5
 4028 02d9 00       		.byte	0
 4029 02da 00       		.byte	0
 4030 02db 33       		.uleb128 0x33
 4031 02dc 2E       		.uleb128 0x2e
 4032 02dd 00       		.byte	0
 4033 02de 03       		.uleb128 0x3
 4034 02df 0E       		.uleb128 0xe
 4035 02e0 3A       		.uleb128 0x3a
 4036 02e1 0B       		.uleb128 0xb
ARM GAS  /tmp/ccL53n49.s 			page 72


 4037 02e2 3B       		.uleb128 0x3b
 4038 02e3 05       		.uleb128 0x5
 4039 02e4 27       		.uleb128 0x27
 4040 02e5 19       		.uleb128 0x19
 4041 02e6 20       		.uleb128 0x20
 4042 02e7 0B       		.uleb128 0xb
 4043 02e8 00       		.byte	0
 4044 02e9 00       		.byte	0
 4045 02ea 00       		.byte	0
 4046              		.section	.debug_aranges,"",%progbits
 4047 0000 BC000000 		.4byte	0xbc
 4048 0004 0200     		.2byte	0x2
 4049 0006 00000000 		.4byte	.Ldebug_info0
 4050 000a 04       		.byte	0x4
 4051 000b 00       		.byte	0
 4052 000c 0000     		.2byte	0
 4053 000e 0000     		.2byte	0
 4054 0010 00000000 		.4byte	.LFB38
 4055 0014 06000000 		.4byte	.LFE38-.LFB38
 4056 0018 00000000 		.4byte	.LFB39
 4057 001c 06000000 		.4byte	.LFE39-.LFB39
 4058 0020 00000000 		.4byte	.LFB77
 4059 0024 0E000000 		.4byte	.LFE77-.LFB77
 4060 0028 00000000 		.4byte	.LFB78
 4061 002c 38000000 		.4byte	.LFE78-.LFB78
 4062 0030 00000000 		.4byte	.LFB99
 4063 0034 0C000000 		.4byte	.LFE99-.LFB99
 4064 0038 00000000 		.4byte	.LFB100
 4065 003c 0E000000 		.4byte	.LFE100-.LFB100
 4066 0040 00000000 		.4byte	.LFB142
 4067 0044 14000000 		.4byte	.LFE142-.LFB142
 4068 0048 00000000 		.4byte	.LFB144
 4069 004c 1A000000 		.4byte	.LFE144-.LFB144
 4070 0050 00000000 		.4byte	.LFB145
 4071 0054 32000000 		.4byte	.LFE145-.LFB145
 4072 0058 00000000 		.4byte	.LFB146
 4073 005c 20000000 		.4byte	.LFE146-.LFB146
 4074 0060 00000000 		.4byte	.LFB147
 4075 0064 24000000 		.4byte	.LFE147-.LFB147
 4076 0068 00000000 		.4byte	.LFB149
 4077 006c 32000000 		.4byte	.LFE149-.LFB149
 4078 0070 00000000 		.4byte	.LFB150
 4079 0074 1A000000 		.4byte	.LFE150-.LFB150
 4080 0078 00000000 		.4byte	.LFB151
 4081 007c 2C000000 		.4byte	.LFE151-.LFB151
 4082 0080 00000000 		.4byte	.LFB152
 4083 0084 0A000000 		.4byte	.LFE152-.LFB152
 4084 0088 00000000 		.4byte	.LFB153
 4085 008c 2C000000 		.4byte	.LFE153-.LFB153
 4086 0090 00000000 		.4byte	.LFB154
 4087 0094 20000000 		.4byte	.LFE154-.LFB154
 4088 0098 00000000 		.4byte	.LFB155
 4089 009c F8020000 		.4byte	.LFE155-.LFB155
 4090 00a0 00000000 		.4byte	.LFB156
 4091 00a4 2C000000 		.4byte	.LFE156-.LFB156
 4092 00a8 00000000 		.4byte	.LFB157
 4093 00ac 20000000 		.4byte	.LFE157-.LFB157
ARM GAS  /tmp/ccL53n49.s 			page 73


 4094 00b0 00000000 		.4byte	.LFB158
 4095 00b4 9C020000 		.4byte	.LFE158-.LFB158
 4096 00b8 00000000 		.4byte	0
 4097 00bc 00000000 		.4byte	0
 4098              		.section	.debug_ranges,"",%progbits
 4099              	.Ldebug_ranges0:
 4100 0000 00000000 		.4byte	.LFB38
 4101 0004 06000000 		.4byte	.LFE38
 4102 0008 00000000 		.4byte	.LFB39
 4103 000c 06000000 		.4byte	.LFE39
 4104 0010 00000000 		.4byte	.LFB77
 4105 0014 0E000000 		.4byte	.LFE77
 4106 0018 00000000 		.4byte	.LFB78
 4107 001c 38000000 		.4byte	.LFE78
 4108 0020 00000000 		.4byte	.LFB99
 4109 0024 0C000000 		.4byte	.LFE99
 4110 0028 00000000 		.4byte	.LFB100
 4111 002c 0E000000 		.4byte	.LFE100
 4112 0030 00000000 		.4byte	.LFB142
 4113 0034 14000000 		.4byte	.LFE142
 4114 0038 00000000 		.4byte	.LFB144
 4115 003c 1A000000 		.4byte	.LFE144
 4116 0040 00000000 		.4byte	.LFB145
 4117 0044 32000000 		.4byte	.LFE145
 4118 0048 00000000 		.4byte	.LFB146
 4119 004c 20000000 		.4byte	.LFE146
 4120 0050 00000000 		.4byte	.LFB147
 4121 0054 24000000 		.4byte	.LFE147
 4122 0058 00000000 		.4byte	.LFB149
 4123 005c 32000000 		.4byte	.LFE149
 4124 0060 00000000 		.4byte	.LFB150
 4125 0064 1A000000 		.4byte	.LFE150
 4126 0068 00000000 		.4byte	.LFB151
 4127 006c 2C000000 		.4byte	.LFE151
 4128 0070 00000000 		.4byte	.LFB152
 4129 0074 0A000000 		.4byte	.LFE152
 4130 0078 00000000 		.4byte	.LFB153
 4131 007c 2C000000 		.4byte	.LFE153
 4132 0080 00000000 		.4byte	.LFB154
 4133 0084 20000000 		.4byte	.LFE154
 4134 0088 00000000 		.4byte	.LFB155
 4135 008c F8020000 		.4byte	.LFE155
 4136 0090 00000000 		.4byte	.LFB156
 4137 0094 2C000000 		.4byte	.LFE156
 4138 0098 00000000 		.4byte	.LFB157
 4139 009c 20000000 		.4byte	.LFE157
 4140 00a0 00000000 		.4byte	.LFB158
 4141 00a4 9C020000 		.4byte	.LFE158
 4142 00a8 00000000 		.4byte	0
 4143 00ac 00000000 		.4byte	0
 4144              		.section	.debug_line,"",%progbits
 4145              	.Ldebug_line0:
 4146 0000 BD060000 		.section	.debug_str,"MS",%progbits,1
 4146      0200BF02 
 4146      00000201 
 4146      FB0E0D00 
 4146      01010101 
ARM GAS  /tmp/ccL53n49.s 			page 74


 4147              	.LASF51:
 4148 0000 63685F74 		.ascii	"ch_threads_list\000"
 4148      68726561 
 4148      64735F6C 
 4148      69737400 
 4149              	.LASF52:
 4150 0010 74687265 		.ascii	"threads_queue_t\000"
 4150      6164735F 
 4150      71756575 
 4150      655F7400 
 4151              	.LASF41:
 4152 0020 705F7761 		.ascii	"p_waiting\000"
 4152      6974696E 
 4152      6700
 4153              	.LASF114:
 4154 002a 53797374 		.ascii	"SystemCoreClock\000"
 4154      656D436F 
 4154      7265436C 
 4154      6F636B00 
 4155              	.LASF104:
 4156 003a 77746D74 		.ascii	"wtmtxp\000"
 4156      787000
 4157              	.LASF113:
 4158 0041 63686172 		.ascii	"char\000"
 4158      00
 4159              	.LASF86:
 4160 0046 72656761 		.ascii	"regarm_t\000"
 4160      726D5F74 
 4160      00
 4161              	.LASF32:
 4162 004f 705F7072 		.ascii	"p_prio\000"
 4162      696F00
 4163              	.LASF168:
 4164 0056 71756575 		.ascii	"queues1_setup\000"
 4164      6573315F 
 4164      73657475 
 4164      7000
 4165              	.LASF28:
 4166 0064 73797374 		.ascii	"systime_t\000"
 4166      696D655F 
 4166      7400
 4167              	.LASF155:
 4168 006e 62756666 		.ascii	"buffer\000"
 4168      657200
 4169              	.LASF125:
 4170 0075 63665F6F 		.ascii	"cf_off_older\000"
 4170      66665F6F 
 4170      6C646572 
 4170      00
 4171              	.LASF111:
 4172 0082 6D5F6F77 		.ascii	"m_owner\000"
 4172      6E657200 
 4173              	.LASF107:
 4174 008a 735F7175 		.ascii	"s_queue\000"
 4174      65756500 
 4175              	.LASF137:
 4176 0092 696F5F71 		.ascii	"io_queue_t\000"
ARM GAS  /tmp/ccL53n49.s 			page 75


 4176      75657565 
 4176      5F7400
 4177              	.LASF42:
 4178 009d 705F6D73 		.ascii	"p_msgqueue\000"
 4178      67717565 
 4178      756500
 4179              	.LASF0:
 4180 00a8 756E7369 		.ascii	"unsigned int\000"
 4180      676E6564 
 4180      20696E74 
 4180      00
 4181              	.LASF49:
 4182 00b5 74687265 		.ascii	"threads_list_t\000"
 4182      6164735F 
 4182      6C697374 
 4182      5F7400
 4183              	.LASF144:
 4184 00c4 715F7264 		.ascii	"q_rdptr\000"
 4184      70747200 
 4185              	.LASF10:
 4186 00cc 5F5F696E 		.ascii	"__int32_t\000"
 4186      7433325F 
 4186      7400
 4187              	.LASF93:
 4188 00d6 73655F73 		.ascii	"se_state\000"
 4188      74617465 
 4188      00
 4189              	.LASF126:
 4190 00df 63665F6F 		.ascii	"cf_off_name\000"
 4190      66665F6E 
 4190      616D6500 
 4191              	.LASF147:
 4192 00eb 716E6F74 		.ascii	"qnotify_t\000"
 4192      6966795F 
 4192      7400
 4193              	.LASF158:
 4194 00f5 74657374 		.ascii	"test\000"
 4194      00
 4195              	.LASF101:
 4196 00fa 77746F62 		.ascii	"wtobjp\000"
 4196      6A7000
 4197              	.LASF183:
 4198 0101 706F7274 		.ascii	"port_lock\000"
 4198      5F6C6F63 
 4198      6B00
 4199              	.LASF82:
 4200 010b 76746C69 		.ascii	"vtlist\000"
 4200      737400
 4201              	.LASF187:
 4202 0112 43686962 		.ascii	"ChibiOS/test/rt/testqueues.c\000"
 4202      694F532F 
 4202      74657374 
 4202      2F72742F 
 4202      74657374 
 4203              	.LASF182:
 4204 012f 706F7274 		.ascii	"port_unlock\000"
 4204      5F756E6C 
ARM GAS  /tmp/ccL53n49.s 			page 76


 4204      6F636B00 
 4205              	.LASF55:
 4206 013b 63685F72 		.ascii	"ch_ready_list\000"
 4206      65616479 
 4206      5F6C6973 
 4206      7400
 4207              	.LASF84:
 4208 0149 69646C65 		.ascii	"idle_thread_wa\000"
 4208      5F746872 
 4208      6561645F 
 4208      776100
 4209              	.LASF105:
 4210 0158 65776D61 		.ascii	"ewmask\000"
 4210      736B00
 4211              	.LASF129:
 4212 015f 63665F6F 		.ascii	"cf_off_flags\000"
 4212      66665F66 
 4212      6C616773 
 4212      00
 4213              	.LASF53:
 4214 016c 63685F74 		.ascii	"ch_threads_queue\000"
 4214      68726561 
 4214      64735F71 
 4214      75657565 
 4214      00
 4215              	.LASF119:
 4216 017d 63685F70 		.ascii	"ch_ptrsize\000"
 4216      74727369 
 4216      7A6500
 4217              	.LASF62:
 4218 0188 76746675 		.ascii	"vtfunc_t\000"
 4218      6E635F74 
 4218      00
 4219              	.LASF175:
 4220 0191 63684951 		.ascii	"chIQIsFullI\000"
 4220      49734675 
 4220      6C6C4900 
 4221              	.LASF108:
 4222 019d 735F636E 		.ascii	"s_cnt\000"
 4222      7400
 4223              	.LASF74:
 4224 01a3 63685F73 		.ascii	"ch_system_debug\000"
 4224      79737465 
 4224      6D5F6465 
 4224      62756700 
 4225              	.LASF19:
 4226 01b3 75696E74 		.ascii	"uint32_t\000"
 4226      33325F74 
 4226      00
 4227              	.LASF139:
 4228 01bc 715F7761 		.ascii	"q_waiting\000"
 4228      6974696E 
 4228      6700
 4229              	.LASF120:
 4230 01c6 63685F74 		.ascii	"ch_timesize\000"
 4230      696D6573 
 4230      697A6500 
ARM GAS  /tmp/ccL53n49.s 			page 77


 4231              	.LASF26:
 4232 01d2 6576656E 		.ascii	"eventmask_t\000"
 4232      746D6173 
 4232      6B5F7400 
 4233              	.LASF57:
 4234 01de 725F7072 		.ascii	"r_prio\000"
 4234      696F00
 4235              	.LASF69:
 4236 01e5 76745F70 		.ascii	"vt_par\000"
 4236      617200
 4237              	.LASF106:
 4238 01ec 63685F73 		.ascii	"ch_semaphore\000"
 4238      656D6170 
 4238      686F7265 
 4238      00
 4239              	.LASF24:
 4240 01f9 74707269 		.ascii	"tprio_t\000"
 4240      6F5F7400 
 4241              	.LASF64:
 4242 0201 63685F76 		.ascii	"ch_virtual_timer\000"
 4242      69727475 
 4242      616C5F74 
 4242      696D6572 
 4242      00
 4243              	.LASF15:
 4244 0212 6C6F6E67 		.ascii	"long long unsigned int\000"
 4244      206C6F6E 
 4244      6720756E 
 4244      7369676E 
 4244      65642069 
 4245              	.LASF92:
 4246 0229 73655F77 		.ascii	"se_wtobjp\000"
 4246      746F626A 
 4246      7000
 4247              	.LASF156:
 4248 0233 74657374 		.ascii	"test_global_fail\000"
 4248      5F676C6F 
 4248      62616C5F 
 4248      6661696C 
 4248      00
 4249              	.LASF8:
 4250 0244 5F5F7569 		.ascii	"__uint16_t\000"
 4250      6E743136 
 4250      5F7400
 4251              	.LASF27:
 4252 024f 636E745F 		.ascii	"cnt_t\000"
 4252      7400
 4253              	.LASF180:
 4254 0255 63685379 		.ascii	"chSysUnlock\000"
 4254      73556E6C 
 4254      6F636B00 
 4255              	.LASF150:
 4256 0261 74657374 		.ascii	"testcase\000"
 4256      63617365 
 4256      00
 4257              	.LASF76:
 4258 026a 6973725F 		.ascii	"isr_cnt\000"
ARM GAS  /tmp/ccL53n49.s 			page 78


 4258      636E7400 
 4259              	.LASF179:
 4260 0272 63685468 		.ascii	"chThdGetSelfX\000"
 4260      64476574 
 4260      53656C66 
 4260      5800
 4261              	.LASF34:
 4262 0280 705F6E65 		.ascii	"p_newer\000"
 4262      77657200 
 4263              	.LASF71:
 4264 0288 63685F76 		.ascii	"ch_virtual_timers_list\000"
 4264      69727475 
 4264      616C5F74 
 4264      696D6572 
 4264      735F6C69 
 4265              	.LASF90:
 4266 029f 73655F74 		.ascii	"se_time\000"
 4266      696D6500 
 4267              	.LASF29:
 4268 02a7 74687265 		.ascii	"thread_t\000"
 4268      61645F74 
 4268      00
 4269              	.LASF4:
 4270 02b0 73697A65 		.ascii	"size_t\000"
 4270      5F7400
 4271              	.LASF99:
 4272 02b7 7264796D 		.ascii	"rdymsg\000"
 4272      736700
 4273              	.LASF121:
 4274 02be 63685F74 		.ascii	"ch_threadsize\000"
 4274      68726561 
 4274      6473697A 
 4274      6500
 4275              	.LASF184:
 4276 02cc 5F5F6469 		.ascii	"__disable_irq\000"
 4276      7361626C 
 4276      655F6972 
 4276      7100
 4277              	.LASF131:
 4278 02da 63665F6F 		.ascii	"cf_off_preempt\000"
 4278      66665F70 
 4278      7265656D 
 4278      707400
 4279              	.LASF136:
 4280 02e9 5F426F6F 		.ascii	"_Bool\000"
 4280      6C00
 4281              	.LASF170:
 4282 02ef 63684F51 		.ascii	"chOQPut\000"
 4282      50757400 
 4283              	.LASF186:
 4284 02f7 474E5520 		.ascii	"GNU C11 6.3.1 20170215 (release) [ARM/embedded-6-br"
 4284      43313120 
 4284      362E332E 
 4284      31203230 
 4284      31373032 
 4285 032a 616E6368 		.ascii	"anch revision 245512] -mcpu=cortex-m0 -mno-thumb-in"
 4285      20726576 
ARM GAS  /tmp/ccL53n49.s 			page 79


 4285      6973696F 
 4285      6E203234 
 4285      35353132 
 4286 035d 74657277 		.ascii	"terwork -mthumb -ggdb -O0 -fomit-frame-pointer -fal"
 4286      6F726B20 
 4286      2D6D7468 
 4286      756D6220 
 4286      2D676764 
 4287 0390 69676E2D 		.ascii	"ign-functions=16 -ffunction-sections -fdata-section"
 4287      66756E63 
 4287      74696F6E 
 4287      733D3136 
 4287      202D6666 
 4288 03c3 7300     		.ascii	"s\000"
 4289              	.LASF109:
 4290 03c5 63685F6D 		.ascii	"ch_mutex\000"
 4290      75746578 
 4290      00
 4291              	.LASF14:
 4292 03ce 5F5F7569 		.ascii	"__uint64_t\000"
 4292      6E743634 
 4292      5F7400
 4293              	.LASF145:
 4294 03d9 715F6E6F 		.ascii	"q_notify\000"
 4294      74696679 
 4294      00
 4295              	.LASF181:
 4296 03e2 63685379 		.ascii	"chSysLock\000"
 4296      734C6F63 
 4296      6B00
 4297              	.LASF123:
 4298 03ec 63665F6F 		.ascii	"cf_off_ctx\000"
 4298      66665F63 
 4298      747800
 4299              	.LASF127:
 4300 03f7 63665F6F 		.ascii	"cf_off_stklimit\000"
 4300      66665F73 
 4300      746B6C69 
 4300      6D697400 
 4301              	.LASF36:
 4302 0407 705F6E61 		.ascii	"p_name\000"
 4302      6D6500
 4303              	.LASF146:
 4304 040e 715F6C69 		.ascii	"q_link\000"
 4304      6E6B00
 4305              	.LASF165:
 4306 0415 71756575 		.ascii	"queues1_execute\000"
 4306      6573315F 
 4306      65786563 
 4306      75746500 
 4307              	.LASF67:
 4308 0425 76745F64 		.ascii	"vt_delta\000"
 4308      656C7461 
 4308      00
 4309              	.LASF173:
 4310 042e 63684F51 		.ascii	"chOQGetFullI\000"
 4310      47657446 
ARM GAS  /tmp/ccL53n49.s 			page 80


 4310      756C6C49 
 4310      00
 4311              	.LASF188:
 4312 043b 2F686F6D 		.ascii	"/home/felix/Desktop/workspace/esho/UltrasonicCortex"
 4312      652F6665 
 4312      6C69782F 
 4312      4465736B 
 4312      746F702F 
 4313 046e 2F00     		.ascii	"/\000"
 4314              	.LASF48:
 4315 0470 74687265 		.ascii	"thread_reference_t\000"
 4315      61645F72 
 4315      65666572 
 4315      656E6365 
 4315      5F7400
 4316              	.LASF72:
 4317 0483 76745F6C 		.ascii	"vt_lasttime\000"
 4317      61737474 
 4317      696D6500 
 4318              	.LASF143:
 4319 048f 715F7772 		.ascii	"q_wrptr\000"
 4319      70747200 
 4320              	.LASF22:
 4321 0497 74737461 		.ascii	"tstate_t\000"
 4321      74655F74 
 4321      00
 4322              	.LASF91:
 4323 04a0 73655F74 		.ascii	"se_tp\000"
 4323      7000
 4324              	.LASF35:
 4325 04a6 705F6F6C 		.ascii	"p_older\000"
 4325      64657200 
 4326              	.LASF38:
 4327 04ae 705F7374 		.ascii	"p_state\000"
 4327      61746500 
 4328              	.LASF37:
 4329 04b6 705F7374 		.ascii	"p_stklimit\000"
 4329      6B6C696D 
 4329      697400
 4330              	.LASF16:
 4331 04c1 75696E74 		.ascii	"uint8_t\000"
 4331      385F7400 
 4332              	.LASF97:
 4333 04c9 74625F62 		.ascii	"tb_buffer\000"
 4333      75666665 
 4333      7200
 4334              	.LASF148:
 4335 04d3 696E7075 		.ascii	"input_queue_t\000"
 4335      745F7175 
 4335      6575655F 
 4335      7400
 4336              	.LASF47:
 4337 04e1 705F6D70 		.ascii	"p_mpool\000"
 4337      6F6F6C00 
 4338              	.LASF45:
 4339 04e9 705F6D74 		.ascii	"p_mtxlist\000"
 4339      786C6973 
ARM GAS  /tmp/ccL53n49.s 			page 81


 4339      7400
 4340              	.LASF50:
 4341 04f3 63685F74 		.ascii	"ch_thread\000"
 4341      68726561 
 4341      6400
 4342              	.LASF154:
 4343 04fd 65786563 		.ascii	"execute\000"
 4343      75746500 
 4344              	.LASF95:
 4345 0505 74625F73 		.ascii	"tb_size\000"
 4345      697A6500 
 4346              	.LASF73:
 4347 050d 73797374 		.ascii	"system_debug_t\000"
 4347      656D5F64 
 4347      65627567 
 4347      5F7400
 4348              	.LASF1:
 4349 051c 6C6F6E67 		.ascii	"long long int\000"
 4349      206C6F6E 
 4349      6720696E 
 4349      7400
 4350              	.LASF141:
 4351 052a 715F6275 		.ascii	"q_buffer\000"
 4351      66666572 
 4351      00
 4352              	.LASF56:
 4353 0533 725F7175 		.ascii	"r_queue\000"
 4353      65756500 
 4354              	.LASF59:
 4355 053b 725F6E65 		.ascii	"r_newer\000"
 4355      77657200 
 4356              	.LASF25:
 4357 0543 6D73675F 		.ascii	"msg_t\000"
 4357      7400
 4358              	.LASF88:
 4359 0549 636F6E74 		.ascii	"context\000"
 4359      65787400 
 4360              	.LASF153:
 4361 0551 74656172 		.ascii	"teardown\000"
 4361      646F776E 
 4361      00
 4362              	.LASF39:
 4363 055a 705F666C 		.ascii	"p_flags\000"
 4363      61677300 
 4364              	.LASF63:
 4365 0562 76697274 		.ascii	"virtual_timer_t\000"
 4365      75616C5F 
 4365      74696D65 
 4365      725F7400 
 4366              	.LASF130:
 4367 0572 63665F6F 		.ascii	"cf_off_refs\000"
 4367      66665F72 
 4367      65667300 
 4368              	.LASF116:
 4369 057e 63685F7A 		.ascii	"ch_zero\000"
 4369      65726F00 
 4370              	.LASF149:
ARM GAS  /tmp/ccL53n49.s 			page 82


 4371 0586 6F757470 		.ascii	"output_queue_t\000"
 4371      75745F71 
 4371      75657565 
 4371      5F7400
 4372              	.LASF96:
 4373 0595 74625F70 		.ascii	"tb_ptr\000"
 4373      747200
 4374              	.LASF60:
 4375 059c 725F6F6C 		.ascii	"r_older\000"
 4375      64657200 
 4376              	.LASF160:
 4377 05a4 74657374 		.ascii	"testqueues1\000"
 4377      71756575 
 4377      65733100 
 4378              	.LASF161:
 4379 05b0 74657374 		.ascii	"testqueues2\000"
 4379      71756575 
 4379      65733200 
 4380              	.LASF75:
 4381 05bc 70616E69 		.ascii	"panic_msg\000"
 4381      635F6D73 
 4381      6700
 4382              	.LASF176:
 4383 05c6 63684951 		.ascii	"chIQIsEmptyI\000"
 4383      4973456D 
 4383      70747949 
 4383      00
 4384              	.LASF43:
 4385 05d3 705F6D73 		.ascii	"p_msg\000"
 4385      6700
 4386              	.LASF167:
 4387 05d9 71756575 		.ascii	"queues2_setup\000"
 4387      6573325F 
 4387      73657475 
 4387      7000
 4388              	.LASF21:
 4389 05e7 746D6F64 		.ascii	"tmode_t\000"
 4389      655F7400 
 4390              	.LASF117:
 4391 05ef 63685F73 		.ascii	"ch_size\000"
 4391      697A6500 
 4392              	.LASF83:
 4393 05f7 6D61696E 		.ascii	"mainthread\000"
 4393      74687265 
 4393      616400
 4394              	.LASF2:
 4395 0602 6C6F6E67 		.ascii	"long double\000"
 4395      20646F75 
 4395      626C6500 
 4396              	.LASF17:
 4397 060e 75696E74 		.ascii	"uint16_t\000"
 4397      31365F74 
 4397      00
 4398              	.LASF133:
 4399 0617 63686465 		.ascii	"chdebug_t\000"
 4399      6275675F 
 4399      7400
ARM GAS  /tmp/ccL53n49.s 			page 83


 4400              	.LASF77:
 4401 0621 6C6F636B 		.ascii	"lock_cnt\000"
 4401      5F636E74 
 4401      00
 4402              	.LASF190:
 4403 062a 5F5F6675 		.ascii	"__func__\000"
 4403      6E635F5F 
 4403      00
 4404              	.LASF46:
 4405 0633 705F7265 		.ascii	"p_realprio\000"
 4405      616C7072 
 4405      696F00
 4406              	.LASF118:
 4407 063e 63685F76 		.ascii	"ch_version\000"
 4407      65727369 
 4407      6F6E00
 4408              	.LASF7:
 4409 0649 73686F72 		.ascii	"short int\000"
 4409      7420696E 
 4409      7400
 4410              	.LASF61:
 4411 0653 725F6375 		.ascii	"r_current\000"
 4411      7272656E 
 4411      7400
 4412              	.LASF44:
 4413 065d 705F6570 		.ascii	"p_epending\000"
 4413      656E6469 
 4413      6E6700
 4414              	.LASF110:
 4415 0668 6D5F7175 		.ascii	"m_queue\000"
 4415      65756500 
 4416              	.LASF11:
 4417 0670 6C6F6E67 		.ascii	"long int\000"
 4417      20696E74 
 4417      00
 4418              	.LASF89:
 4419 0679 706F7274 		.ascii	"port_intctx\000"
 4419      5F696E74 
 4419      63747800 
 4420              	.LASF185:
 4421 0685 5F5F656E 		.ascii	"__enable_irq\000"
 4421      61626C65 
 4421      5F697271 
 4421      00
 4422              	.LASF178:
 4423 0692 63685468 		.ascii	"chThdGetPriorityX\000"
 4423      64476574 
 4423      5072696F 
 4423      72697479 
 4423      5800
 4424              	.LASF80:
 4425 06a4 63685F73 		.ascii	"ch_system\000"
 4425      79737465 
 4425      6D00
 4426              	.LASF30:
 4427 06ae 705F6E65 		.ascii	"p_next\000"
 4427      787400
ARM GAS  /tmp/ccL53n49.s 			page 84


 4428              	.LASF20:
 4429 06b5 75696E74 		.ascii	"uint64_t\000"
 4429      36345F74 
 4429      00
 4430              	.LASF33:
 4431 06be 705F6374 		.ascii	"p_ctx\000"
 4431      7800
 4432              	.LASF81:
 4433 06c4 726C6973 		.ascii	"rlist\000"
 4433      7400
 4434              	.LASF166:
 4435 06ca 74687265 		.ascii	"thread1\000"
 4435      61643100 
 4436              	.LASF164:
 4437 06d2 74687265 		.ascii	"thread2\000"
 4437      61643200 
 4438              	.LASF169:
 4439 06da 6E6F7469 		.ascii	"notify\000"
 4439      667900
 4440              	.LASF132:
 4441 06e1 63665F6F 		.ascii	"cf_off_time\000"
 4441      66665F74 
 4441      696D6500 
 4442              	.LASF122:
 4443 06ed 63665F6F 		.ascii	"cf_off_prio\000"
 4443      66665F70 
 4443      72696F00 
 4444              	.LASF5:
 4445 06f9 5F5F7569 		.ascii	"__uint8_t\000"
 4445      6E74385F 
 4445      7400
 4446              	.LASF151:
 4447 0703 6E616D65 		.ascii	"name\000"
 4447      00
 4448              	.LASF115:
 4449 0708 63685F69 		.ascii	"ch_identifier\000"
 4449      64656E74 
 4449      69666965 
 4449      7200
 4450              	.LASF140:
 4451 0716 715F636F 		.ascii	"q_counter\000"
 4451      756E7465 
 4451      7200
 4452              	.LASF142:
 4453 0720 715F746F 		.ascii	"q_top\000"
 4453      7000
 4454              	.LASF31:
 4455 0726 705F7072 		.ascii	"p_prev\000"
 4455      657600
 4456              	.LASF85:
 4457 072d 73697A65 		.ascii	"sizetype\000"
 4457      74797065 
 4457      00
 4458              	.LASF23:
 4459 0736 74726566 		.ascii	"trefs_t\000"
 4459      735F7400 
 4460              	.LASF13:
ARM GAS  /tmp/ccL53n49.s 			page 85


 4461 073e 6C6F6E67 		.ascii	"long unsigned int\000"
 4461      20756E73 
 4461      69676E65 
 4461      6420696E 
 4461      7400
 4462              	.LASF128:
 4463 0750 63665F6F 		.ascii	"cf_off_state\000"
 4463      66665F73 
 4463      74617465 
 4463      00
 4464              	.LASF54:
 4465 075d 72656164 		.ascii	"ready_list_t\000"
 4465      795F6C69 
 4465      73745F74 
 4465      00
 4466              	.LASF157:
 4467 076a 74687265 		.ascii	"threads\000"
 4467      61647300 
 4468              	.LASF18:
 4469 0772 696E7433 		.ascii	"int32_t\000"
 4469      325F7400 
 4470              	.LASF78:
 4471 077a 74726163 		.ascii	"trace_buffer\000"
 4471      655F6275 
 4471      66666572 
 4471      00
 4472              	.LASF103:
 4473 0787 77747365 		.ascii	"wtsemp\000"
 4473      6D7000
 4474              	.LASF94:
 4475 078e 63685F73 		.ascii	"ch_swc_event_t\000"
 4475      77635F65 
 4475      76656E74 
 4475      5F7400
 4476              	.LASF174:
 4477 079d 63684951 		.ascii	"chIQGet\000"
 4477      47657400 
 4478              	.LASF135:
 4479 07a5 6D757465 		.ascii	"mutex_t\000"
 4479      785F7400 
 4480              	.LASF6:
 4481 07ad 756E7369 		.ascii	"unsigned char\000"
 4481      676E6564 
 4481      20636861 
 4481      7200
 4482              	.LASF152:
 4483 07bb 73657475 		.ascii	"setup\000"
 4483      7000
 4484              	.LASF12:
 4485 07c1 5F5F7569 		.ascii	"__uint32_t\000"
 4485      6E743332 
 4485      5F7400
 4486              	.LASF70:
 4487 07cc 76697274 		.ascii	"virtual_timers_list_t\000"
 4487      75616C5F 
 4487      74696D65 
 4487      72735F6C 
ARM GAS  /tmp/ccL53n49.s 			page 86


 4487      6973745F 
 4488              	.LASF40:
 4489 07e2 705F7265 		.ascii	"p_refs\000"
 4489      667300
 4490              	.LASF163:
 4491 07e9 71756575 		.ascii	"queues2_execute\000"
 4491      6573325F 
 4491      65786563 
 4491      75746500 
 4492              	.LASF162:
 4493 07f9 70617474 		.ascii	"patternqueues\000"
 4493      65726E71 
 4493      75657565 
 4493      7300
 4494              	.LASF189:
 4495 0807 74657374 		.ascii	"test_buffers\000"
 4495      5F627566 
 4495      66657273 
 4495      00
 4496              	.LASF65:
 4497 0814 76745F6E 		.ascii	"vt_next\000"
 4497      65787400 
 4498              	.LASF171:
 4499 081c 63684F51 		.ascii	"chOQIsFullI\000"
 4499      49734675 
 4499      6C6C4900 
 4500              	.LASF79:
 4501 0828 63685F73 		.ascii	"ch_system_t\000"
 4501      79737465 
 4501      6D5F7400 
 4502              	.LASF102:
 4503 0834 77747472 		.ascii	"wttrp\000"
 4503      7000
 4504              	.LASF98:
 4505 083a 63685F74 		.ascii	"ch_trace_buffer_t\000"
 4505      72616365 
 4505      5F627566 
 4505      6665725F 
 4505      7400
 4506              	.LASF112:
 4507 084c 6D5F6E65 		.ascii	"m_next\000"
 4507      787400
 4508              	.LASF3:
 4509 0853 7369676E 		.ascii	"signed char\000"
 4509      65642063 
 4509      68617200 
 4510              	.LASF124:
 4511 085f 63665F6F 		.ascii	"cf_off_newer\000"
 4511      66665F6E 
 4511      65776572 
 4511      00
 4512              	.LASF138:
 4513 086c 696F5F71 		.ascii	"io_queue\000"
 4513      75657565 
 4513      00
 4514              	.LASF9:
 4515 0875 73686F72 		.ascii	"short unsigned int\000"
ARM GAS  /tmp/ccL53n49.s 			page 87


 4515      7420756E 
 4515      7369676E 
 4515      65642069 
 4515      6E7400
 4516              	.LASF58:
 4517 0888 725F6374 		.ascii	"r_ctx\000"
 4517      7800
 4518              	.LASF87:
 4519 088e 73746B61 		.ascii	"stkalign_t\000"
 4519      6C69676E 
 4519      5F7400
 4520              	.LASF134:
 4521 0899 63685F64 		.ascii	"ch_debug\000"
 4521      65627567 
 4521      00
 4522              	.LASF68:
 4523 08a2 76745F66 		.ascii	"vt_func\000"
 4523      756E6300 
 4524              	.LASF177:
 4525 08aa 63684951 		.ascii	"chIQGetFullI\000"
 4525      47657446 
 4525      756C6C49 
 4525      00
 4526              	.LASF66:
 4527 08b7 76745F70 		.ascii	"vt_prev\000"
 4527      72657600 
 4528              	.LASF159:
 4529 08bf 74657374 		.ascii	"test_timer_done\000"
 4529      5F74696D 
 4529      65725F64 
 4529      6F6E6500 
 4530              	.LASF172:
 4531 08cf 63684F51 		.ascii	"chOQIsEmptyI\000"
 4531      4973456D 
 4531      70747949 
 4531      00
 4532              	.LASF100:
 4533 08dc 65786974 		.ascii	"exitcode\000"
 4533      636F6465 
 4533      00
 4534              		.ident	"GCC: (GNU Tools for ARM Embedded Processors 6-2017-q1-update) 6.3.1 20170215 (release) [AR
ARM GAS  /tmp/ccL53n49.s 			page 88


DEFINED SYMBOLS
                            *ABS*:0000000000000000 testqueues.c
     /tmp/ccL53n49.s:16     .text.port_lock:0000000000000000 $t
     /tmp/ccL53n49.s:23     .text.port_lock:0000000000000000 port_lock
     /tmp/ccL53n49.s:51     .text.port_unlock:0000000000000000 $t
     /tmp/ccL53n49.s:58     .text.port_unlock:0000000000000000 port_unlock
     /tmp/ccL53n49.s:84     .text.chSysLock:0000000000000000 $t
     /tmp/ccL53n49.s:91     .text.chSysLock:0000000000000000 chSysLock
     /tmp/ccL53n49.s:114    .text.chSysUnlock:0000000000000000 $t
     /tmp/ccL53n49.s:121    .text.chSysUnlock:0000000000000000 chSysUnlock
     /tmp/ccL53n49.s:162    .text.chSysUnlock:0000000000000030 $d
     /tmp/ccL53n49.s:1619   .rodata.__func__.4993:0000000000000000 __func__.4993
     /tmp/ccL53n49.s:168    .text.chThdGetSelfX:0000000000000000 $t
     /tmp/ccL53n49.s:175    .text.chThdGetSelfX:0000000000000000 chThdGetSelfX
     /tmp/ccL53n49.s:193    .text.chThdGetSelfX:0000000000000008 $d
     /tmp/ccL53n49.s:198    .text.chThdGetPriorityX:0000000000000000 $t
     /tmp/ccL53n49.s:205    .text.chThdGetPriorityX:0000000000000000 chThdGetPriorityX
     /tmp/ccL53n49.s:227    .text.chIQGetFullI:0000000000000000 $t
     /tmp/ccL53n49.s:234    .text.chIQGetFullI:0000000000000000 chIQGetFullI
     /tmp/ccL53n49.s:261    .text.chIQIsEmptyI:0000000000000000 $t
     /tmp/ccL53n49.s:268    .text.chIQIsEmptyI:0000000000000000 chIQIsEmptyI
     /tmp/ccL53n49.s:297    .text.chIQIsFullI:0000000000000000 $t
     /tmp/ccL53n49.s:304    .text.chIQIsFullI:0000000000000000 chIQIsFullI
     /tmp/ccL53n49.s:351    .text.chIQGet:0000000000000000 $t
     /tmp/ccL53n49.s:358    .text.chIQGet:0000000000000000 chIQGet
     /tmp/ccL53n49.s:385    .text.chIQGet:000000000000001c $d
     /tmp/ccL53n49.s:390    .text.chOQGetFullI:0000000000000000 $t
     /tmp/ccL53n49.s:397    .text.chOQGetFullI:0000000000000000 chOQGetFullI
     /tmp/ccL53n49.s:431    .text.chOQIsEmptyI:0000000000000000 $t
     /tmp/ccL53n49.s:438    .text.chOQIsEmptyI:0000000000000000 chOQIsEmptyI
     /tmp/ccL53n49.s:485    .text.chOQIsFullI:0000000000000000 $t
     /tmp/ccL53n49.s:492    .text.chOQIsFullI:0000000000000000 chOQIsFullI
     /tmp/ccL53n49.s:521    .text.chOQPut:0000000000000000 $t
     /tmp/ccL53n49.s:528    .text.chOQPut:0000000000000000 chOQPut
     /tmp/ccL53n49.s:561    .text.chOQPut:0000000000000028 $d
     /tmp/ccL53n49.s:566    .text.notify:0000000000000000 $t
     /tmp/ccL53n49.s:573    .text.notify:0000000000000000 notify
     /tmp/ccL53n49.s:593    .data.iq:0000000000000000 $d
     /tmp/ccL53n49.s:596    .data.iq:0000000000000000 iq
     /tmp/ccL53n49.s:607    .data.oq:0000000000000000 $d
     /tmp/ccL53n49.s:610    .data.oq:0000000000000000 oq
     /tmp/ccL53n49.s:621    .text.queues1_setup:0000000000000000 $t
     /tmp/ccL53n49.s:628    .text.queues1_setup:0000000000000000 queues1_setup
     /tmp/ccL53n49.s:657    .text.queues1_setup:0000000000000020 $d
     /tmp/ccL53n49.s:664    .text.thread1:0000000000000000 $t
     /tmp/ccL53n49.s:671    .text.thread1:0000000000000000 thread1
     /tmp/ccL53n49.s:698    .text.thread1:000000000000001c $d
     /tmp/ccL53n49.s:703    .rodata:0000000000000000 $d
     /tmp/ccL53n49.s:707    .text.queues1_execute:0000000000000000 $t
     /tmp/ccL53n49.s:714    .text.queues1_execute:0000000000000000 queues1_execute
     /tmp/ccL53n49.s:1120   .text.queues1_execute:00000000000002e4 $d
     /tmp/ccL53n49.s:1137   .rodata.testqueues1:0000000000000000 testqueues1
     /tmp/ccL53n49.s:1134   .rodata.testqueues1:0000000000000000 $d
     /tmp/ccL53n49.s:1143   .text.queues2_setup:0000000000000000 $t
     /tmp/ccL53n49.s:1150   .text.queues2_setup:0000000000000000 queues2_setup
     /tmp/ccL53n49.s:1179   .text.queues2_setup:0000000000000020 $d
     /tmp/ccL53n49.s:1186   .text.thread2:0000000000000000 $t
ARM GAS  /tmp/ccL53n49.s 			page 89


     /tmp/ccL53n49.s:1193   .text.thread2:0000000000000000 thread2
     /tmp/ccL53n49.s:1220   .text.thread2:000000000000001c $d
     /tmp/ccL53n49.s:1225   .text.queues2_execute:0000000000000000 $t
     /tmp/ccL53n49.s:1232   .text.queues2_execute:0000000000000000 queues2_execute
     /tmp/ccL53n49.s:1584   .text.queues2_execute:0000000000000288 $d
     /tmp/ccL53n49.s:1601   .rodata.testqueues2:0000000000000000 testqueues2
     /tmp/ccL53n49.s:1598   .rodata.testqueues2:0000000000000000 $d
     /tmp/ccL53n49.s:1611   .rodata.patternqueues:0000000000000000 patternqueues
     /tmp/ccL53n49.s:1608   .rodata.patternqueues:0000000000000000 $d
     /tmp/ccL53n49.s:1616   .rodata.__func__.4993:0000000000000000 $d
                     .debug_frame:0000000000000010 $d

UNDEFINED SYMBOLS
_dbg_check_lock
_dbg_check_unlock
chSysHalt
ch
chDbgCheckClassI
chIQGetTimeout
chOQPutTimeout
test
chIQObjectInit
wa
_test_assert
chIQPutI
test_emit_token
_test_assert_sequence
chIQReadTimeout
chIQResetI
chThdCreateStatic
test_wait_threads
threads
chOQObjectInit
chOQGetI
chOQWriteTimeout
chOQResetI
