ARM GAS  /tmp/ccXYw7sd.s 			page 1


   1              		.cpu cortex-m0
   2              		.eabi_attribute 20, 1
   3              		.eabi_attribute 21, 1
   4              		.eabi_attribute 23, 3
   5              		.eabi_attribute 24, 1
   6              		.eabi_attribute 25, 1
   7              		.eabi_attribute 26, 1
   8              		.eabi_attribute 30, 6
   9              		.eabi_attribute 34, 0
  10              		.eabi_attribute 18, 4
  11              		.file	"uart.c"
  12              		.text
  13              	.Ltext0:
  14              		.cfi_sections	.debug_frame
  15              		.section	.text.port_lock,"ax",%progbits
  16              		.align	1
  17              		.p2align 4,,15
  18              		.syntax unified
  19              		.code	16
  20              		.thumb_func
  21              		.fpu softvfp
  22              		.type	port_lock, %function
  23              	port_lock:
  24              	.LFB38:
  25              		.file 1 "ChibiOS/os/rt/ports/ARMCMx/chcore_v6m.h"
  26              		.loc 1 330 0
  27              		.cfi_startproc
  28              		@ args = 0, pretend = 0, frame = 0
  29              		@ frame_needed = 0, uses_anonymous_args = 0
  30              		@ link register save eliminated.
  31              	.LBB6:
  32              	.LBB7:
  33              		.file 2 "ChibiOS/os/ext/CMSIS/include/core_cmFunc.h"
  34              		.loc 2 344 0
  35              		.syntax divided
  36              	@ 344 "ChibiOS/os/ext/CMSIS/include/core_cmFunc.h" 1
  37 0000 72B6     		cpsid i
  38              	@ 0 "" 2
  39              		.thumb
  40              		.syntax unified
  41              	.LBE7:
  42              	.LBE6:
  43              		.loc 1 333 0
  44 0002 C046     		nop
  45              		@ sp needed
  46 0004 7047     		bx	lr
  47              		.cfi_endproc
  48              	.LFE38:
  49              		.size	port_lock, .-port_lock
  50 0006 C046     		.section	.text.port_unlock,"ax",%progbits
  51              		.align	1
  52              		.p2align 4,,15
  53              		.syntax unified
  54              		.code	16
  55              		.thumb_func
  56              		.fpu softvfp
  57              		.type	port_unlock, %function
ARM GAS  /tmp/ccXYw7sd.s 			page 2


  58              	port_unlock:
  59              	.LFB39:
  60              		.loc 1 339 0
  61              		.cfi_startproc
  62              		@ args = 0, pretend = 0, frame = 0
  63              		@ frame_needed = 0, uses_anonymous_args = 0
  64              		@ link register save eliminated.
  65              	.LBB8:
  66              	.LBB9:
  67              		.loc 2 333 0
  68              		.syntax divided
  69              	@ 333 "ChibiOS/os/ext/CMSIS/include/core_cmFunc.h" 1
  70 0000 62B6     		cpsie i
  71              	@ 0 "" 2
  72              		.thumb
  73              		.syntax unified
  74              	.LBE9:
  75              	.LBE8:
  76              		.loc 1 342 0
  77 0002 C046     		nop
  78              		@ sp needed
  79 0004 7047     		bx	lr
  80              		.cfi_endproc
  81              	.LFE39:
  82              		.size	port_unlock, .-port_unlock
  83 0006 C046     		.section	.text.chSysLock,"ax",%progbits
  84              		.align	1
  85              		.p2align 4,,15
  86              		.syntax unified
  87              		.code	16
  88              		.thumb_func
  89              		.fpu softvfp
  90              		.type	chSysLock, %function
  91              	chSysLock:
  92              	.LFB77:
  93              		.file 3 "ChibiOS/os/rt/include/chsys.h"
  94              		.loc 3 346 0
  95              		.cfi_startproc
  96              		@ args = 0, pretend = 0, frame = 0
  97              		@ frame_needed = 0, uses_anonymous_args = 0
  98 0000 10B5     		push	{r4, lr}
  99              		.cfi_def_cfa_offset 8
 100              		.cfi_offset 4, -8
 101              		.cfi_offset 14, -4
 102              		.loc 3 348 0
 103 0002 FFF7FEFF 		bl	port_lock
 104              		.loc 3 350 0
 105 0006 FFF7FEFF 		bl	_dbg_check_lock
 106              		.loc 3 351 0
 107 000a C046     		nop
 108              		@ sp needed
 109 000c 10BD     		pop	{r4, pc}
 110              		.cfi_endproc
 111              	.LFE77:
 112              		.size	chSysLock, .-chSysLock
 113 000e C046     		.section	.text.chSysUnlock,"ax",%progbits
 114              		.align	1
ARM GAS  /tmp/ccXYw7sd.s 			page 3


 115              		.p2align 4,,15
 116              		.syntax unified
 117              		.code	16
 118              		.thumb_func
 119              		.fpu softvfp
 120              		.type	chSysUnlock, %function
 121              	chSysUnlock:
 122              	.LFB78:
 123              		.loc 3 358 0
 124              		.cfi_startproc
 125              		@ args = 0, pretend = 0, frame = 0
 126              		@ frame_needed = 0, uses_anonymous_args = 0
 127 0000 10B5     		push	{r4, lr}
 128              		.cfi_def_cfa_offset 8
 129              		.cfi_offset 4, -8
 130              		.cfi_offset 14, -4
 131              		.loc 3 360 0
 132 0002 FFF7FEFF 		bl	_dbg_check_unlock
 133              		.loc 3 367 0
 134 0006 0A4B     		ldr	r3, .L6
 135 0008 1A68     		ldr	r2, [r3]
 136 000a 094B     		ldr	r3, .L6
 137 000c 9A42     		cmp	r2, r3
 138 000e 0BD0     		beq	.L5
 139              		.loc 3 367 0 is_stmt 0 discriminator 2
 140 0010 074B     		ldr	r3, .L6
 141 0012 9B69     		ldr	r3, [r3, #24]
 142 0014 9A68     		ldr	r2, [r3, #8]
 143 0016 064B     		ldr	r3, .L6
 144 0018 1B68     		ldr	r3, [r3]
 145 001a 9B68     		ldr	r3, [r3, #8]
 146 001c 9A42     		cmp	r2, r3
 147 001e 03D2     		bcs	.L5
 148              		.loc 3 367 0 discriminator 3
 149 0020 044B     		ldr	r3, .L6+4
 150 0022 1800     		movs	r0, r3
 151 0024 FFF7FEFF 		bl	chSysHalt
 152              	.L5:
 153              		.loc 3 371 0 is_stmt 1
 154 0028 FFF7FEFF 		bl	port_unlock
 155              		.loc 3 372 0
 156 002c C046     		nop
 157              		@ sp needed
 158 002e 10BD     		pop	{r4, pc}
 159              	.L7:
 160              		.align	2
 161              	.L6:
 162 0030 00000000 		.word	ch
 163 0034 00000000 		.word	__func__.4993
 164              		.cfi_endproc
 165              	.LFE78:
 166              		.size	chSysUnlock, .-chSysUnlock
 167              		.section	.text.osalSysLock,"ax",%progbits
 168              		.align	1
 169              		.p2align 4,,15
 170              		.syntax unified
 171              		.code	16
ARM GAS  /tmp/ccXYw7sd.s 			page 4


 172              		.thumb_func
 173              		.fpu softvfp
 174              		.type	osalSysLock, %function
 175              	osalSysLock:
 176              	.LFB156:
 177              		.file 4 "ChibiOS/os/hal/osal/rt/osal.h"
 178              		.loc 4 491 0
 179              		.cfi_startproc
 180              		@ args = 0, pretend = 0, frame = 0
 181              		@ frame_needed = 0, uses_anonymous_args = 0
 182 0000 10B5     		push	{r4, lr}
 183              		.cfi_def_cfa_offset 8
 184              		.cfi_offset 4, -8
 185              		.cfi_offset 14, -4
 186              		.loc 4 493 0
 187 0002 FFF7FEFF 		bl	chSysLock
 188              		.loc 4 494 0
 189 0006 C046     		nop
 190              		@ sp needed
 191 0008 10BD     		pop	{r4, pc}
 192              		.cfi_endproc
 193              	.LFE156:
 194              		.size	osalSysLock, .-osalSysLock
 195 000a C046     		.section	.text.osalSysUnlock,"ax",%progbits
 196              		.align	1
 197              		.p2align 4,,15
 198              		.syntax unified
 199              		.code	16
 200              		.thumb_func
 201              		.fpu softvfp
 202              		.type	osalSysUnlock, %function
 203              	osalSysUnlock:
 204              	.LFB157:
 205              		.loc 4 502 0
 206              		.cfi_startproc
 207              		@ args = 0, pretend = 0, frame = 0
 208              		@ frame_needed = 0, uses_anonymous_args = 0
 209 0000 10B5     		push	{r4, lr}
 210              		.cfi_def_cfa_offset 8
 211              		.cfi_offset 4, -8
 212              		.cfi_offset 14, -4
 213              		.loc 4 504 0
 214 0002 FFF7FEFF 		bl	chSysUnlock
 215              		.loc 4 505 0
 216 0006 C046     		nop
 217              		@ sp needed
 218 0008 10BD     		pop	{r4, pc}
 219              		.cfi_endproc
 220              	.LFE157:
 221              		.size	osalSysUnlock, .-osalSysUnlock
 222 000a C046     		.section	.text.osalThreadSuspendTimeoutS,"ax",%progbits
 223              		.align	1
 224              		.p2align 4,,15
 225              		.syntax unified
 226              		.code	16
 227              		.thumb_func
 228              		.fpu softvfp
ARM GAS  /tmp/ccXYw7sd.s 			page 5


 229              		.type	osalThreadSuspendTimeoutS, %function
 230              	osalThreadSuspendTimeoutS:
 231              	.LFB169:
 232              		.loc 4 711 0
 233              		.cfi_startproc
 234              		@ args = 0, pretend = 0, frame = 8
 235              		@ frame_needed = 0, uses_anonymous_args = 0
 236 0000 00B5     		push	{lr}
 237              		.cfi_def_cfa_offset 4
 238              		.cfi_offset 14, -4
 239 0002 83B0     		sub	sp, sp, #12
 240              		.cfi_def_cfa_offset 16
 241 0004 0190     		str	r0, [sp, #4]
 242 0006 0A00     		movs	r2, r1
 243 0008 6B46     		mov	r3, sp
 244 000a 0233     		adds	r3, r3, #2
 245 000c 1A80     		strh	r2, [r3]
 246              		.loc 4 713 0
 247 000e 6B46     		mov	r3, sp
 248 0010 0233     		adds	r3, r3, #2
 249 0012 1A88     		ldrh	r2, [r3]
 250 0014 019B     		ldr	r3, [sp, #4]
 251 0016 1100     		movs	r1, r2
 252 0018 1800     		movs	r0, r3
 253 001a FFF7FEFF 		bl	chThdSuspendTimeoutS
 254 001e 0300     		movs	r3, r0
 255              		.loc 4 714 0
 256 0020 1800     		movs	r0, r3
 257 0022 03B0     		add	sp, sp, #12
 258              		@ sp needed
 259 0024 00BD     		pop	{pc}
 260              		.cfi_endproc
 261              	.LFE169:
 262              		.size	osalThreadSuspendTimeoutS, .-osalThreadSuspendTimeoutS
 263 0026 C046     		.section	.text.uartInit,"ax",%progbits
 264              		.align	1
 265              		.p2align 4,,15
 266              		.global	uartInit
 267              		.syntax unified
 268              		.code	16
 269              		.thumb_func
 270              		.fpu softvfp
 271              		.type	uartInit, %function
 272              	uartInit:
 273              	.LFB182:
 274              		.file 5 "ChibiOS/os/hal/src/uart.c"
 275              		.loc 5 56 0
 276              		.cfi_startproc
 277              		@ args = 0, pretend = 0, frame = 0
 278              		@ frame_needed = 0, uses_anonymous_args = 0
 279 0000 10B5     		push	{r4, lr}
 280              		.cfi_def_cfa_offset 8
 281              		.cfi_offset 4, -8
 282              		.cfi_offset 14, -4
 283              		.loc 5 58 0
 284 0002 FFF7FEFF 		bl	uart_lld_init
 285              		.loc 5 59 0
ARM GAS  /tmp/ccXYw7sd.s 			page 6


 286 0006 C046     		nop
 287              		@ sp needed
 288 0008 10BD     		pop	{r4, pc}
 289              		.cfi_endproc
 290              	.LFE182:
 291              		.size	uartInit, .-uartInit
 292 000a C046     		.section	.text.uartObjectInit,"ax",%progbits
 293              		.align	1
 294              		.p2align 4,,15
 295              		.global	uartObjectInit
 296              		.syntax unified
 297              		.code	16
 298              		.thumb_func
 299              		.fpu softvfp
 300              		.type	uartObjectInit, %function
 301              	uartObjectInit:
 302              	.LFB183:
 303              		.loc 5 68 0
 304              		.cfi_startproc
 305              		@ args = 0, pretend = 0, frame = 8
 306              		@ frame_needed = 0, uses_anonymous_args = 0
 307              		@ link register save eliminated.
 308 0000 82B0     		sub	sp, sp, #8
 309              		.cfi_def_cfa_offset 8
 310 0002 0190     		str	r0, [sp, #4]
 311              		.loc 5 70 0
 312 0004 019B     		ldr	r3, [sp, #4]
 313 0006 0122     		movs	r2, #1
 314 0008 1A70     		strb	r2, [r3]
 315              		.loc 5 71 0
 316 000a 019B     		ldr	r3, [sp, #4]
 317 000c 0022     		movs	r2, #0
 318 000e 5A70     		strb	r2, [r3, #1]
 319              		.loc 5 72 0
 320 0010 019B     		ldr	r3, [sp, #4]
 321 0012 0022     		movs	r2, #0
 322 0014 9A70     		strb	r2, [r3, #2]
 323              		.loc 5 73 0
 324 0016 019B     		ldr	r3, [sp, #4]
 325 0018 0022     		movs	r2, #0
 326 001a 5A60     		str	r2, [r3, #4]
 327              		.loc 5 75 0
 328 001c 019B     		ldr	r3, [sp, #4]
 329 001e 0022     		movs	r2, #0
 330 0020 1A72     		strb	r2, [r3, #8]
 331              		.loc 5 76 0
 332 0022 019B     		ldr	r3, [sp, #4]
 333 0024 0022     		movs	r2, #0
 334 0026 DA60     		str	r2, [r3, #12]
 335              		.loc 5 77 0
 336 0028 019B     		ldr	r3, [sp, #4]
 337 002a 0022     		movs	r2, #0
 338 002c 1A61     		str	r2, [r3, #16]
 339              		.loc 5 87 0
 340 002e C046     		nop
 341 0030 02B0     		add	sp, sp, #8
 342              		@ sp needed
ARM GAS  /tmp/ccXYw7sd.s 			page 7


 343 0032 7047     		bx	lr
 344              		.cfi_endproc
 345              	.LFE183:
 346              		.size	uartObjectInit, .-uartObjectInit
 347              		.section	.text.uartStart,"ax",%progbits
 348              		.align	1
 349              		.p2align 4,,15
 350              		.global	uartStart
 351              		.syntax unified
 352              		.code	16
 353              		.thumb_func
 354              		.fpu softvfp
 355              		.type	uartStart, %function
 356              	uartStart:
 357              	.LFB184:
 358              		.loc 5 97 0
 359              		.cfi_startproc
 360              		@ args = 0, pretend = 0, frame = 8
 361              		@ frame_needed = 0, uses_anonymous_args = 0
 362 0000 00B5     		push	{lr}
 363              		.cfi_def_cfa_offset 4
 364              		.cfi_offset 14, -4
 365 0002 83B0     		sub	sp, sp, #12
 366              		.cfi_def_cfa_offset 16
 367 0004 0190     		str	r0, [sp, #4]
 368 0006 0091     		str	r1, [sp]
 369              		.loc 5 99 0
 370 0008 019B     		ldr	r3, [sp, #4]
 371 000a 002B     		cmp	r3, #0
 372 000c 02D0     		beq	.L15
 373              		.loc 5 99 0 is_stmt 0 discriminator 3
 374 000e 009B     		ldr	r3, [sp]
 375 0010 002B     		cmp	r3, #0
 376 0012 03D1     		bne	.L16
 377              	.L15:
 378              		.loc 5 99 0 discriminator 4
 379 0014 104B     		ldr	r3, .L18
 380 0016 1800     		movs	r0, r3
 381 0018 FFF7FEFF 		bl	chSysHalt
 382              	.L16:
 383              		.loc 5 101 0 is_stmt 1
 384 001c FFF7FEFF 		bl	osalSysLock
 385              		.loc 5 102 0
 386 0020 019B     		ldr	r3, [sp, #4]
 387 0022 1B78     		ldrb	r3, [r3]
 388 0024 012B     		cmp	r3, #1
 389 0026 07D0     		beq	.L17
 390              		.loc 5 102 0 is_stmt 0 discriminator 2
 391 0028 019B     		ldr	r3, [sp, #4]
 392 002a 1B78     		ldrb	r3, [r3]
 393 002c 022B     		cmp	r3, #2
 394 002e 03D0     		beq	.L17
 395              		.loc 5 102 0 discriminator 3
 396 0030 094B     		ldr	r3, .L18
 397 0032 1800     		movs	r0, r3
 398 0034 FFF7FEFF 		bl	chSysHalt
 399              	.L17:
ARM GAS  /tmp/ccXYw7sd.s 			page 8


 400              		.loc 5 105 0 is_stmt 1
 401 0038 019B     		ldr	r3, [sp, #4]
 402 003a 009A     		ldr	r2, [sp]
 403 003c 5A60     		str	r2, [r3, #4]
 404              		.loc 5 106 0
 405 003e 019B     		ldr	r3, [sp, #4]
 406 0040 1800     		movs	r0, r3
 407 0042 FFF7FEFF 		bl	uart_lld_start
 408              		.loc 5 107 0
 409 0046 019B     		ldr	r3, [sp, #4]
 410 0048 0222     		movs	r2, #2
 411 004a 1A70     		strb	r2, [r3]
 412              		.loc 5 108 0
 413 004c FFF7FEFF 		bl	osalSysUnlock
 414              		.loc 5 109 0
 415 0050 C046     		nop
 416 0052 03B0     		add	sp, sp, #12
 417              		@ sp needed
 418 0054 00BD     		pop	{pc}
 419              	.L19:
 420 0056 C046     		.align	2
 421              	.L18:
 422 0058 00000000 		.word	__func__.6332
 423              		.cfi_endproc
 424              	.LFE184:
 425              		.size	uartStart, .-uartStart
 426              		.section	.text.uartStop,"ax",%progbits
 427              		.align	1
 428              		.p2align 4,,15
 429              		.global	uartStop
 430              		.syntax unified
 431              		.code	16
 432              		.thumb_func
 433              		.fpu softvfp
 434              		.type	uartStop, %function
 435              	uartStop:
 436              	.LFB185:
 437              		.loc 5 118 0
 438              		.cfi_startproc
 439              		@ args = 0, pretend = 0, frame = 8
 440              		@ frame_needed = 0, uses_anonymous_args = 0
 441 0000 00B5     		push	{lr}
 442              		.cfi_def_cfa_offset 4
 443              		.cfi_offset 14, -4
 444 0002 83B0     		sub	sp, sp, #12
 445              		.cfi_def_cfa_offset 16
 446 0004 0190     		str	r0, [sp, #4]
 447              		.loc 5 120 0
 448 0006 019B     		ldr	r3, [sp, #4]
 449 0008 002B     		cmp	r3, #0
 450 000a 03D1     		bne	.L21
 451              		.loc 5 120 0 is_stmt 0 discriminator 2
 452 000c 114B     		ldr	r3, .L23
 453 000e 1800     		movs	r0, r3
 454 0010 FFF7FEFF 		bl	chSysHalt
 455              	.L21:
 456              		.loc 5 122 0 is_stmt 1
ARM GAS  /tmp/ccXYw7sd.s 			page 9


 457 0014 FFF7FEFF 		bl	osalSysLock
 458              		.loc 5 123 0
 459 0018 019B     		ldr	r3, [sp, #4]
 460 001a 1B78     		ldrb	r3, [r3]
 461 001c 012B     		cmp	r3, #1
 462 001e 07D0     		beq	.L22
 463              		.loc 5 123 0 is_stmt 0 discriminator 2
 464 0020 019B     		ldr	r3, [sp, #4]
 465 0022 1B78     		ldrb	r3, [r3]
 466 0024 022B     		cmp	r3, #2
 467 0026 03D0     		beq	.L22
 468              		.loc 5 123 0 discriminator 3
 469 0028 0A4B     		ldr	r3, .L23
 470 002a 1800     		movs	r0, r3
 471 002c FFF7FEFF 		bl	chSysHalt
 472              	.L22:
 473              		.loc 5 126 0 is_stmt 1
 474 0030 019B     		ldr	r3, [sp, #4]
 475 0032 1800     		movs	r0, r3
 476 0034 FFF7FEFF 		bl	uart_lld_stop
 477              		.loc 5 127 0
 478 0038 019B     		ldr	r3, [sp, #4]
 479 003a 0122     		movs	r2, #1
 480 003c 1A70     		strb	r2, [r3]
 481              		.loc 5 128 0
 482 003e 019B     		ldr	r3, [sp, #4]
 483 0040 0022     		movs	r2, #0
 484 0042 5A70     		strb	r2, [r3, #1]
 485              		.loc 5 129 0
 486 0044 019B     		ldr	r3, [sp, #4]
 487 0046 0022     		movs	r2, #0
 488 0048 9A70     		strb	r2, [r3, #2]
 489              		.loc 5 130 0
 490 004a FFF7FEFF 		bl	osalSysUnlock
 491              		.loc 5 131 0
 492 004e C046     		nop
 493 0050 03B0     		add	sp, sp, #12
 494              		@ sp needed
 495 0052 00BD     		pop	{pc}
 496              	.L24:
 497              		.align	2
 498              	.L23:
 499 0054 00000000 		.word	__func__.6336
 500              		.cfi_endproc
 501              	.LFE185:
 502              		.size	uartStop, .-uartStop
 503              		.section	.text.uartStartSend,"ax",%progbits
 504              		.align	1
 505              		.p2align 4,,15
 506              		.global	uartStartSend
 507              		.syntax unified
 508              		.code	16
 509              		.thumb_func
 510              		.fpu softvfp
 511              		.type	uartStartSend, %function
 512              	uartStartSend:
 513              	.LFB186:
ARM GAS  /tmp/ccXYw7sd.s 			page 10


 514              		.loc 5 144 0
 515              		.cfi_startproc
 516              		@ args = 0, pretend = 0, frame = 16
 517              		@ frame_needed = 0, uses_anonymous_args = 0
 518 0000 00B5     		push	{lr}
 519              		.cfi_def_cfa_offset 4
 520              		.cfi_offset 14, -4
 521 0002 85B0     		sub	sp, sp, #20
 522              		.cfi_def_cfa_offset 24
 523 0004 0390     		str	r0, [sp, #12]
 524 0006 0291     		str	r1, [sp, #8]
 525 0008 0192     		str	r2, [sp, #4]
 526              		.loc 5 146 0
 527 000a 039B     		ldr	r3, [sp, #12]
 528 000c 002B     		cmp	r3, #0
 529 000e 05D0     		beq	.L26
 530              		.loc 5 146 0 is_stmt 0 discriminator 3
 531 0010 029B     		ldr	r3, [sp, #8]
 532 0012 002B     		cmp	r3, #0
 533 0014 02D0     		beq	.L26
 534              		.loc 5 146 0 discriminator 5
 535 0016 019B     		ldr	r3, [sp, #4]
 536 0018 002B     		cmp	r3, #0
 537 001a 03D1     		bne	.L27
 538              	.L26:
 539              		.loc 5 146 0 discriminator 6
 540 001c 114B     		ldr	r3, .L31
 541 001e 1800     		movs	r0, r3
 542 0020 FFF7FEFF 		bl	chSysHalt
 543              	.L27:
 544              		.loc 5 148 0 is_stmt 1
 545 0024 FFF7FEFF 		bl	osalSysLock
 546              		.loc 5 149 0
 547 0028 039B     		ldr	r3, [sp, #12]
 548 002a 1B78     		ldrb	r3, [r3]
 549 002c 022B     		cmp	r3, #2
 550 002e 03D0     		beq	.L30
 551              		.loc 5 149 0 is_stmt 0 discriminator 2
 552 0030 0C4B     		ldr	r3, .L31
 553 0032 1800     		movs	r0, r3
 554 0034 FFF7FEFF 		bl	chSysHalt
 555              	.L30:
 556              		.loc 5 150 0 is_stmt 1 discriminator 1
 557 0038 039B     		ldr	r3, [sp, #12]
 558 003a 5B78     		ldrb	r3, [r3, #1]
 559 003c 012B     		cmp	r3, #1
 560 003e 03D1     		bne	.L29
 561              		.loc 5 150 0 is_stmt 0 discriminator 2
 562 0040 084B     		ldr	r3, .L31
 563 0042 1800     		movs	r0, r3
 564 0044 FFF7FEFF 		bl	chSysHalt
 565              	.L29:
 566              		.loc 5 152 0 is_stmt 1
 567 0048 019A     		ldr	r2, [sp, #4]
 568 004a 0299     		ldr	r1, [sp, #8]
 569 004c 039B     		ldr	r3, [sp, #12]
 570 004e 1800     		movs	r0, r3
ARM GAS  /tmp/ccXYw7sd.s 			page 11


 571 0050 FFF7FEFF 		bl	uart_lld_start_send
 572              		.loc 5 153 0
 573 0054 039B     		ldr	r3, [sp, #12]
 574 0056 0122     		movs	r2, #1
 575 0058 5A70     		strb	r2, [r3, #1]
 576              		.loc 5 154 0
 577 005a FFF7FEFF 		bl	osalSysUnlock
 578              		.loc 5 155 0
 579 005e C046     		nop
 580 0060 05B0     		add	sp, sp, #20
 581              		@ sp needed
 582 0062 00BD     		pop	{pc}
 583              	.L32:
 584              		.align	2
 585              	.L31:
 586 0064 00000000 		.word	__func__.6342
 587              		.cfi_endproc
 588              	.LFE186:
 589              		.size	uartStartSend, .-uartStartSend
 590              		.section	.text.uartStartSendI,"ax",%progbits
 591              		.align	1
 592              		.p2align 4,,15
 593              		.global	uartStartSendI
 594              		.syntax unified
 595              		.code	16
 596              		.thumb_func
 597              		.fpu softvfp
 598              		.type	uartStartSendI, %function
 599              	uartStartSendI:
 600              	.LFB187:
 601              		.loc 5 169 0
 602              		.cfi_startproc
 603              		@ args = 0, pretend = 0, frame = 16
 604              		@ frame_needed = 0, uses_anonymous_args = 0
 605 0000 00B5     		push	{lr}
 606              		.cfi_def_cfa_offset 4
 607              		.cfi_offset 14, -4
 608 0002 85B0     		sub	sp, sp, #20
 609              		.cfi_def_cfa_offset 24
 610 0004 0390     		str	r0, [sp, #12]
 611 0006 0291     		str	r1, [sp, #8]
 612 0008 0192     		str	r2, [sp, #4]
 613              		.loc 5 171 0
 614 000a FFF7FEFF 		bl	chDbgCheckClassI
 615              		.loc 5 172 0
 616 000e 039B     		ldr	r3, [sp, #12]
 617 0010 002B     		cmp	r3, #0
 618 0012 05D0     		beq	.L34
 619              		.loc 5 172 0 is_stmt 0 discriminator 3
 620 0014 029B     		ldr	r3, [sp, #8]
 621 0016 002B     		cmp	r3, #0
 622 0018 02D0     		beq	.L34
 623              		.loc 5 172 0 discriminator 5
 624 001a 019B     		ldr	r3, [sp, #4]
 625 001c 002B     		cmp	r3, #0
 626 001e 03D1     		bne	.L38
 627              	.L34:
ARM GAS  /tmp/ccXYw7sd.s 			page 12


 628              		.loc 5 172 0 discriminator 6
 629 0020 0F4B     		ldr	r3, .L40
 630 0022 1800     		movs	r0, r3
 631 0024 FFF7FEFF 		bl	chSysHalt
 632              	.L38:
 633              		.loc 5 173 0 is_stmt 1 discriminator 1
 634 0028 039B     		ldr	r3, [sp, #12]
 635 002a 1B78     		ldrb	r3, [r3]
 636 002c 022B     		cmp	r3, #2
 637 002e 03D0     		beq	.L39
 638              		.loc 5 173 0 is_stmt 0 discriminator 2
 639 0030 0B4B     		ldr	r3, .L40
 640 0032 1800     		movs	r0, r3
 641 0034 FFF7FEFF 		bl	chSysHalt
 642              	.L39:
 643              		.loc 5 174 0 is_stmt 1 discriminator 1
 644 0038 039B     		ldr	r3, [sp, #12]
 645 003a 5B78     		ldrb	r3, [r3, #1]
 646 003c 012B     		cmp	r3, #1
 647 003e 03D1     		bne	.L37
 648              		.loc 5 174 0 is_stmt 0 discriminator 2
 649 0040 074B     		ldr	r3, .L40
 650 0042 1800     		movs	r0, r3
 651 0044 FFF7FEFF 		bl	chSysHalt
 652              	.L37:
 653              		.loc 5 176 0 is_stmt 1
 654 0048 019A     		ldr	r2, [sp, #4]
 655 004a 0299     		ldr	r1, [sp, #8]
 656 004c 039B     		ldr	r3, [sp, #12]
 657 004e 1800     		movs	r0, r3
 658 0050 FFF7FEFF 		bl	uart_lld_start_send
 659              		.loc 5 177 0
 660 0054 039B     		ldr	r3, [sp, #12]
 661 0056 0122     		movs	r2, #1
 662 0058 5A70     		strb	r2, [r3, #1]
 663              		.loc 5 178 0
 664 005a C046     		nop
 665 005c 05B0     		add	sp, sp, #20
 666              		@ sp needed
 667 005e 00BD     		pop	{pc}
 668              	.L41:
 669              		.align	2
 670              	.L40:
 671 0060 00000000 		.word	__func__.6348
 672              		.cfi_endproc
 673              	.LFE187:
 674              		.size	uartStartSendI, .-uartStartSendI
 675              		.section	.text.uartStopSend,"ax",%progbits
 676              		.align	1
 677              		.p2align 4,,15
 678              		.global	uartStopSend
 679              		.syntax unified
 680              		.code	16
 681              		.thumb_func
 682              		.fpu softvfp
 683              		.type	uartStopSend, %function
 684              	uartStopSend:
ARM GAS  /tmp/ccXYw7sd.s 			page 13


 685              	.LFB188:
 686              		.loc 5 192 0
 687              		.cfi_startproc
 688              		@ args = 0, pretend = 0, frame = 16
 689              		@ frame_needed = 0, uses_anonymous_args = 0
 690 0000 00B5     		push	{lr}
 691              		.cfi_def_cfa_offset 4
 692              		.cfi_offset 14, -4
 693 0002 85B0     		sub	sp, sp, #20
 694              		.cfi_def_cfa_offset 24
 695 0004 0190     		str	r0, [sp, #4]
 696              		.loc 5 195 0
 697 0006 019B     		ldr	r3, [sp, #4]
 698 0008 002B     		cmp	r3, #0
 699 000a 03D1     		bne	.L43
 700              		.loc 5 195 0 is_stmt 0 discriminator 2
 701 000c 114B     		ldr	r3, .L48
 702 000e 1800     		movs	r0, r3
 703 0010 FFF7FEFF 		bl	chSysHalt
 704              	.L43:
 705              		.loc 5 197 0 is_stmt 1
 706 0014 FFF7FEFF 		bl	osalSysLock
 707              		.loc 5 198 0
 708 0018 019B     		ldr	r3, [sp, #4]
 709 001a 1B78     		ldrb	r3, [r3]
 710 001c 022B     		cmp	r3, #2
 711 001e 03D0     		beq	.L44
 712              		.loc 5 198 0 is_stmt 0 discriminator 2
 713 0020 0C4B     		ldr	r3, .L48
 714 0022 1800     		movs	r0, r3
 715 0024 FFF7FEFF 		bl	chSysHalt
 716              	.L44:
 717              		.loc 5 200 0 is_stmt 1
 718 0028 019B     		ldr	r3, [sp, #4]
 719 002a 5B78     		ldrb	r3, [r3, #1]
 720 002c 012B     		cmp	r3, #1
 721 002e 09D1     		bne	.L45
 722              		.loc 5 201 0
 723 0030 019B     		ldr	r3, [sp, #4]
 724 0032 1800     		movs	r0, r3
 725 0034 FFF7FEFF 		bl	uart_lld_stop_send
 726 0038 0300     		movs	r3, r0
 727 003a 0393     		str	r3, [sp, #12]
 728              		.loc 5 202 0
 729 003c 019B     		ldr	r3, [sp, #4]
 730 003e 0022     		movs	r2, #0
 731 0040 5A70     		strb	r2, [r3, #1]
 732 0042 01E0     		b	.L46
 733              	.L45:
 734              		.loc 5 205 0
 735 0044 0023     		movs	r3, #0
 736 0046 0393     		str	r3, [sp, #12]
 737              	.L46:
 738              		.loc 5 207 0
 739 0048 FFF7FEFF 		bl	osalSysUnlock
 740              		.loc 5 209 0
 741 004c 039B     		ldr	r3, [sp, #12]
ARM GAS  /tmp/ccXYw7sd.s 			page 14


 742              		.loc 5 210 0
 743 004e 1800     		movs	r0, r3
 744 0050 05B0     		add	sp, sp, #20
 745              		@ sp needed
 746 0052 00BD     		pop	{pc}
 747              	.L49:
 748              		.align	2
 749              	.L48:
 750 0054 00000000 		.word	__func__.6353
 751              		.cfi_endproc
 752              	.LFE188:
 753              		.size	uartStopSend, .-uartStopSend
 754              		.section	.text.uartStopSendI,"ax",%progbits
 755              		.align	1
 756              		.p2align 4,,15
 757              		.global	uartStopSendI
 758              		.syntax unified
 759              		.code	16
 760              		.thumb_func
 761              		.fpu softvfp
 762              		.type	uartStopSendI, %function
 763              	uartStopSendI:
 764              	.LFB189:
 765              		.loc 5 225 0
 766              		.cfi_startproc
 767              		@ args = 0, pretend = 0, frame = 16
 768              		@ frame_needed = 0, uses_anonymous_args = 0
 769 0000 00B5     		push	{lr}
 770              		.cfi_def_cfa_offset 4
 771              		.cfi_offset 14, -4
 772 0002 85B0     		sub	sp, sp, #20
 773              		.cfi_def_cfa_offset 24
 774 0004 0190     		str	r0, [sp, #4]
 775              		.loc 5 227 0
 776 0006 FFF7FEFF 		bl	chDbgCheckClassI
 777              		.loc 5 228 0
 778 000a 019B     		ldr	r3, [sp, #4]
 779 000c 002B     		cmp	r3, #0
 780 000e 03D1     		bne	.L55
 781              		.loc 5 228 0 is_stmt 0 discriminator 2
 782 0010 0F4B     		ldr	r3, .L56
 783 0012 1800     		movs	r0, r3
 784 0014 FFF7FEFF 		bl	chSysHalt
 785              	.L55:
 786              		.loc 5 229 0 is_stmt 1 discriminator 1
 787 0018 019B     		ldr	r3, [sp, #4]
 788 001a 1B78     		ldrb	r3, [r3]
 789 001c 022B     		cmp	r3, #2
 790 001e 03D0     		beq	.L52
 791              		.loc 5 229 0 is_stmt 0 discriminator 2
 792 0020 0B4B     		ldr	r3, .L56
 793 0022 1800     		movs	r0, r3
 794 0024 FFF7FEFF 		bl	chSysHalt
 795              	.L52:
 796              		.loc 5 231 0 is_stmt 1
 797 0028 019B     		ldr	r3, [sp, #4]
 798 002a 5B78     		ldrb	r3, [r3, #1]
ARM GAS  /tmp/ccXYw7sd.s 			page 15


 799 002c 012B     		cmp	r3, #1
 800 002e 0AD1     		bne	.L53
 801              	.LBB10:
 802              		.loc 5 232 0
 803 0030 019B     		ldr	r3, [sp, #4]
 804 0032 1800     		movs	r0, r3
 805 0034 FFF7FEFF 		bl	uart_lld_stop_send
 806 0038 0300     		movs	r3, r0
 807 003a 0393     		str	r3, [sp, #12]
 808              		.loc 5 233 0
 809 003c 019B     		ldr	r3, [sp, #4]
 810 003e 0022     		movs	r2, #0
 811 0040 5A70     		strb	r2, [r3, #1]
 812              		.loc 5 234 0
 813 0042 039B     		ldr	r3, [sp, #12]
 814 0044 00E0     		b	.L54
 815              	.L53:
 816              	.LBE10:
 817              		.loc 5 236 0
 818 0046 0023     		movs	r3, #0
 819              	.L54:
 820              		.loc 5 237 0
 821 0048 1800     		movs	r0, r3
 822 004a 05B0     		add	sp, sp, #20
 823              		@ sp needed
 824 004c 00BD     		pop	{pc}
 825              	.L57:
 826 004e C046     		.align	2
 827              	.L56:
 828 0050 00000000 		.word	__func__.6357
 829              		.cfi_endproc
 830              	.LFE189:
 831              		.size	uartStopSendI, .-uartStopSendI
 832              		.section	.text.uartStartReceive,"ax",%progbits
 833              		.align	1
 834              		.p2align 4,,15
 835              		.global	uartStartReceive
 836              		.syntax unified
 837              		.code	16
 838              		.thumb_func
 839              		.fpu softvfp
 840              		.type	uartStartReceive, %function
 841              	uartStartReceive:
 842              	.LFB190:
 843              		.loc 5 250 0
 844              		.cfi_startproc
 845              		@ args = 0, pretend = 0, frame = 16
 846              		@ frame_needed = 0, uses_anonymous_args = 0
 847 0000 00B5     		push	{lr}
 848              		.cfi_def_cfa_offset 4
 849              		.cfi_offset 14, -4
 850 0002 85B0     		sub	sp, sp, #20
 851              		.cfi_def_cfa_offset 24
 852 0004 0390     		str	r0, [sp, #12]
 853 0006 0291     		str	r1, [sp, #8]
 854 0008 0192     		str	r2, [sp, #4]
 855              		.loc 5 252 0
ARM GAS  /tmp/ccXYw7sd.s 			page 16


 856 000a 039B     		ldr	r3, [sp, #12]
 857 000c 002B     		cmp	r3, #0
 858 000e 05D0     		beq	.L59
 859              		.loc 5 252 0 is_stmt 0 discriminator 3
 860 0010 029B     		ldr	r3, [sp, #8]
 861 0012 002B     		cmp	r3, #0
 862 0014 02D0     		beq	.L59
 863              		.loc 5 252 0 discriminator 5
 864 0016 019B     		ldr	r3, [sp, #4]
 865 0018 002B     		cmp	r3, #0
 866 001a 03D1     		bne	.L60
 867              	.L59:
 868              		.loc 5 252 0 discriminator 6
 869 001c 114B     		ldr	r3, .L64
 870 001e 1800     		movs	r0, r3
 871 0020 FFF7FEFF 		bl	chSysHalt
 872              	.L60:
 873              		.loc 5 254 0 is_stmt 1
 874 0024 FFF7FEFF 		bl	osalSysLock
 875              		.loc 5 255 0
 876 0028 039B     		ldr	r3, [sp, #12]
 877 002a 1B78     		ldrb	r3, [r3]
 878 002c 022B     		cmp	r3, #2
 879 002e 03D0     		beq	.L63
 880              		.loc 5 255 0 is_stmt 0 discriminator 2
 881 0030 0C4B     		ldr	r3, .L64
 882 0032 1800     		movs	r0, r3
 883 0034 FFF7FEFF 		bl	chSysHalt
 884              	.L63:
 885              		.loc 5 256 0 is_stmt 1 discriminator 1
 886 0038 039B     		ldr	r3, [sp, #12]
 887 003a 9B78     		ldrb	r3, [r3, #2]
 888 003c 012B     		cmp	r3, #1
 889 003e 03D1     		bne	.L62
 890              		.loc 5 256 0 is_stmt 0 discriminator 2
 891 0040 084B     		ldr	r3, .L64
 892 0042 1800     		movs	r0, r3
 893 0044 FFF7FEFF 		bl	chSysHalt
 894              	.L62:
 895              		.loc 5 258 0 is_stmt 1
 896 0048 019A     		ldr	r2, [sp, #4]
 897 004a 0299     		ldr	r1, [sp, #8]
 898 004c 039B     		ldr	r3, [sp, #12]
 899 004e 1800     		movs	r0, r3
 900 0050 FFF7FEFF 		bl	uart_lld_start_receive
 901              		.loc 5 259 0
 902 0054 039B     		ldr	r3, [sp, #12]
 903 0056 0122     		movs	r2, #1
 904 0058 9A70     		strb	r2, [r3, #2]
 905              		.loc 5 260 0
 906 005a FFF7FEFF 		bl	osalSysUnlock
 907              		.loc 5 261 0
 908 005e C046     		nop
 909 0060 05B0     		add	sp, sp, #20
 910              		@ sp needed
 911 0062 00BD     		pop	{pc}
 912              	.L65:
ARM GAS  /tmp/ccXYw7sd.s 			page 17


 913              		.align	2
 914              	.L64:
 915 0064 00000000 		.word	__func__.6364
 916              		.cfi_endproc
 917              	.LFE190:
 918              		.size	uartStartReceive, .-uartStartReceive
 919              		.section	.text.uartStartReceiveI,"ax",%progbits
 920              		.align	1
 921              		.p2align 4,,15
 922              		.global	uartStartReceiveI
 923              		.syntax unified
 924              		.code	16
 925              		.thumb_func
 926              		.fpu softvfp
 927              		.type	uartStartReceiveI, %function
 928              	uartStartReceiveI:
 929              	.LFB191:
 930              		.loc 5 275 0
 931              		.cfi_startproc
 932              		@ args = 0, pretend = 0, frame = 16
 933              		@ frame_needed = 0, uses_anonymous_args = 0
 934 0000 00B5     		push	{lr}
 935              		.cfi_def_cfa_offset 4
 936              		.cfi_offset 14, -4
 937 0002 85B0     		sub	sp, sp, #20
 938              		.cfi_def_cfa_offset 24
 939 0004 0390     		str	r0, [sp, #12]
 940 0006 0291     		str	r1, [sp, #8]
 941 0008 0192     		str	r2, [sp, #4]
 942              		.loc 5 277 0
 943 000a FFF7FEFF 		bl	chDbgCheckClassI
 944              		.loc 5 278 0
 945 000e 039B     		ldr	r3, [sp, #12]
 946 0010 002B     		cmp	r3, #0
 947 0012 05D0     		beq	.L67
 948              		.loc 5 278 0 is_stmt 0 discriminator 3
 949 0014 029B     		ldr	r3, [sp, #8]
 950 0016 002B     		cmp	r3, #0
 951 0018 02D0     		beq	.L67
 952              		.loc 5 278 0 discriminator 5
 953 001a 019B     		ldr	r3, [sp, #4]
 954 001c 002B     		cmp	r3, #0
 955 001e 03D1     		bne	.L71
 956              	.L67:
 957              		.loc 5 278 0 discriminator 6
 958 0020 0F4B     		ldr	r3, .L73
 959 0022 1800     		movs	r0, r3
 960 0024 FFF7FEFF 		bl	chSysHalt
 961              	.L71:
 962              		.loc 5 279 0 is_stmt 1 discriminator 1
 963 0028 039B     		ldr	r3, [sp, #12]
 964 002a 1B78     		ldrb	r3, [r3]
 965 002c 022B     		cmp	r3, #2
 966 002e 03D0     		beq	.L72
 967              		.loc 5 279 0 is_stmt 0 discriminator 2
 968 0030 0B4B     		ldr	r3, .L73
 969 0032 1800     		movs	r0, r3
ARM GAS  /tmp/ccXYw7sd.s 			page 18


 970 0034 FFF7FEFF 		bl	chSysHalt
 971              	.L72:
 972              		.loc 5 280 0 is_stmt 1 discriminator 1
 973 0038 039B     		ldr	r3, [sp, #12]
 974 003a 9B78     		ldrb	r3, [r3, #2]
 975 003c 012B     		cmp	r3, #1
 976 003e 03D1     		bne	.L70
 977              		.loc 5 280 0 is_stmt 0 discriminator 2
 978 0040 074B     		ldr	r3, .L73
 979 0042 1800     		movs	r0, r3
 980 0044 FFF7FEFF 		bl	chSysHalt
 981              	.L70:
 982              		.loc 5 282 0 is_stmt 1
 983 0048 019A     		ldr	r2, [sp, #4]
 984 004a 0299     		ldr	r1, [sp, #8]
 985 004c 039B     		ldr	r3, [sp, #12]
 986 004e 1800     		movs	r0, r3
 987 0050 FFF7FEFF 		bl	uart_lld_start_receive
 988              		.loc 5 283 0
 989 0054 039B     		ldr	r3, [sp, #12]
 990 0056 0122     		movs	r2, #1
 991 0058 9A70     		strb	r2, [r3, #2]
 992              		.loc 5 284 0
 993 005a C046     		nop
 994 005c 05B0     		add	sp, sp, #20
 995              		@ sp needed
 996 005e 00BD     		pop	{pc}
 997              	.L74:
 998              		.align	2
 999              	.L73:
 1000 0060 00000000 		.word	__func__.6370
 1001              		.cfi_endproc
 1002              	.LFE191:
 1003              		.size	uartStartReceiveI, .-uartStartReceiveI
 1004              		.section	.text.uartStopReceive,"ax",%progbits
 1005              		.align	1
 1006              		.p2align 4,,15
 1007              		.global	uartStopReceive
 1008              		.syntax unified
 1009              		.code	16
 1010              		.thumb_func
 1011              		.fpu softvfp
 1012              		.type	uartStopReceive, %function
 1013              	uartStopReceive:
 1014              	.LFB192:
 1015              		.loc 5 298 0
 1016              		.cfi_startproc
 1017              		@ args = 0, pretend = 0, frame = 16
 1018              		@ frame_needed = 0, uses_anonymous_args = 0
 1019 0000 00B5     		push	{lr}
 1020              		.cfi_def_cfa_offset 4
 1021              		.cfi_offset 14, -4
 1022 0002 85B0     		sub	sp, sp, #20
 1023              		.cfi_def_cfa_offset 24
 1024 0004 0190     		str	r0, [sp, #4]
 1025              		.loc 5 301 0
 1026 0006 019B     		ldr	r3, [sp, #4]
ARM GAS  /tmp/ccXYw7sd.s 			page 19


 1027 0008 002B     		cmp	r3, #0
 1028 000a 03D1     		bne	.L76
 1029              		.loc 5 301 0 is_stmt 0 discriminator 2
 1030 000c 114B     		ldr	r3, .L81
 1031 000e 1800     		movs	r0, r3
 1032 0010 FFF7FEFF 		bl	chSysHalt
 1033              	.L76:
 1034              		.loc 5 303 0 is_stmt 1
 1035 0014 FFF7FEFF 		bl	osalSysLock
 1036              		.loc 5 304 0
 1037 0018 019B     		ldr	r3, [sp, #4]
 1038 001a 1B78     		ldrb	r3, [r3]
 1039 001c 022B     		cmp	r3, #2
 1040 001e 03D0     		beq	.L77
 1041              		.loc 5 304 0 is_stmt 0 discriminator 2
 1042 0020 0C4B     		ldr	r3, .L81
 1043 0022 1800     		movs	r0, r3
 1044 0024 FFF7FEFF 		bl	chSysHalt
 1045              	.L77:
 1046              		.loc 5 306 0 is_stmt 1
 1047 0028 019B     		ldr	r3, [sp, #4]
 1048 002a 9B78     		ldrb	r3, [r3, #2]
 1049 002c 012B     		cmp	r3, #1
 1050 002e 09D1     		bne	.L78
 1051              		.loc 5 307 0
 1052 0030 019B     		ldr	r3, [sp, #4]
 1053 0032 1800     		movs	r0, r3
 1054 0034 FFF7FEFF 		bl	uart_lld_stop_receive
 1055 0038 0300     		movs	r3, r0
 1056 003a 0393     		str	r3, [sp, #12]
 1057              		.loc 5 308 0
 1058 003c 019B     		ldr	r3, [sp, #4]
 1059 003e 0022     		movs	r2, #0
 1060 0040 9A70     		strb	r2, [r3, #2]
 1061 0042 01E0     		b	.L79
 1062              	.L78:
 1063              		.loc 5 311 0
 1064 0044 0023     		movs	r3, #0
 1065 0046 0393     		str	r3, [sp, #12]
 1066              	.L79:
 1067              		.loc 5 313 0
 1068 0048 FFF7FEFF 		bl	osalSysUnlock
 1069              		.loc 5 315 0
 1070 004c 039B     		ldr	r3, [sp, #12]
 1071              		.loc 5 316 0
 1072 004e 1800     		movs	r0, r3
 1073 0050 05B0     		add	sp, sp, #20
 1074              		@ sp needed
 1075 0052 00BD     		pop	{pc}
 1076              	.L82:
 1077              		.align	2
 1078              	.L81:
 1079 0054 00000000 		.word	__func__.6375
 1080              		.cfi_endproc
 1081              	.LFE192:
 1082              		.size	uartStopReceive, .-uartStopReceive
 1083              		.section	.text.uartStopReceiveI,"ax",%progbits
ARM GAS  /tmp/ccXYw7sd.s 			page 20


 1084              		.align	1
 1085              		.p2align 4,,15
 1086              		.global	uartStopReceiveI
 1087              		.syntax unified
 1088              		.code	16
 1089              		.thumb_func
 1090              		.fpu softvfp
 1091              		.type	uartStopReceiveI, %function
 1092              	uartStopReceiveI:
 1093              	.LFB193:
 1094              		.loc 5 331 0
 1095              		.cfi_startproc
 1096              		@ args = 0, pretend = 0, frame = 16
 1097              		@ frame_needed = 0, uses_anonymous_args = 0
 1098 0000 00B5     		push	{lr}
 1099              		.cfi_def_cfa_offset 4
 1100              		.cfi_offset 14, -4
 1101 0002 85B0     		sub	sp, sp, #20
 1102              		.cfi_def_cfa_offset 24
 1103 0004 0190     		str	r0, [sp, #4]
 1104              		.loc 5 333 0
 1105 0006 FFF7FEFF 		bl	chDbgCheckClassI
 1106              		.loc 5 334 0
 1107 000a 019B     		ldr	r3, [sp, #4]
 1108 000c 002B     		cmp	r3, #0
 1109 000e 03D1     		bne	.L88
 1110              		.loc 5 334 0 is_stmt 0 discriminator 2
 1111 0010 0F4B     		ldr	r3, .L89
 1112 0012 1800     		movs	r0, r3
 1113 0014 FFF7FEFF 		bl	chSysHalt
 1114              	.L88:
 1115              		.loc 5 335 0 is_stmt 1 discriminator 1
 1116 0018 019B     		ldr	r3, [sp, #4]
 1117 001a 1B78     		ldrb	r3, [r3]
 1118 001c 022B     		cmp	r3, #2
 1119 001e 03D0     		beq	.L85
 1120              		.loc 5 335 0 is_stmt 0 discriminator 2
 1121 0020 0B4B     		ldr	r3, .L89
 1122 0022 1800     		movs	r0, r3
 1123 0024 FFF7FEFF 		bl	chSysHalt
 1124              	.L85:
 1125              		.loc 5 337 0 is_stmt 1
 1126 0028 019B     		ldr	r3, [sp, #4]
 1127 002a 9B78     		ldrb	r3, [r3, #2]
 1128 002c 012B     		cmp	r3, #1
 1129 002e 0AD1     		bne	.L86
 1130              	.LBB11:
 1131              		.loc 5 338 0
 1132 0030 019B     		ldr	r3, [sp, #4]
 1133 0032 1800     		movs	r0, r3
 1134 0034 FFF7FEFF 		bl	uart_lld_stop_receive
 1135 0038 0300     		movs	r3, r0
 1136 003a 0393     		str	r3, [sp, #12]
 1137              		.loc 5 339 0
 1138 003c 019B     		ldr	r3, [sp, #4]
 1139 003e 0022     		movs	r2, #0
 1140 0040 9A70     		strb	r2, [r3, #2]
ARM GAS  /tmp/ccXYw7sd.s 			page 21


 1141              		.loc 5 340 0
 1142 0042 039B     		ldr	r3, [sp, #12]
 1143 0044 00E0     		b	.L87
 1144              	.L86:
 1145              	.LBE11:
 1146              		.loc 5 342 0
 1147 0046 0023     		movs	r3, #0
 1148              	.L87:
 1149              		.loc 5 343 0
 1150 0048 1800     		movs	r0, r3
 1151 004a 05B0     		add	sp, sp, #20
 1152              		@ sp needed
 1153 004c 00BD     		pop	{pc}
 1154              	.L90:
 1155 004e C046     		.align	2
 1156              	.L89:
 1157 0050 00000000 		.word	__func__.6379
 1158              		.cfi_endproc
 1159              	.LFE193:
 1160              		.size	uartStopReceiveI, .-uartStopReceiveI
 1161              		.section	.text.uartSendTimeout,"ax",%progbits
 1162              		.align	1
 1163              		.p2align 4,,15
 1164              		.global	uartSendTimeout
 1165              		.syntax unified
 1166              		.code	16
 1167              		.thumb_func
 1168              		.fpu softvfp
 1169              		.type	uartSendTimeout, %function
 1170              	uartSendTimeout:
 1171              	.LFB194:
 1172              		.loc 5 365 0
 1173              		.cfi_startproc
 1174              		@ args = 0, pretend = 0, frame = 24
 1175              		@ frame_needed = 0, uses_anonymous_args = 0
 1176 0000 00B5     		push	{lr}
 1177              		.cfi_def_cfa_offset 4
 1178              		.cfi_offset 14, -4
 1179 0002 87B0     		sub	sp, sp, #28
 1180              		.cfi_def_cfa_offset 32
 1181 0004 0390     		str	r0, [sp, #12]
 1182 0006 0291     		str	r1, [sp, #8]
 1183 0008 0192     		str	r2, [sp, #4]
 1184 000a 1A00     		movs	r2, r3
 1185 000c 6B46     		mov	r3, sp
 1186 000e 0233     		adds	r3, r3, #2
 1187 0010 1A80     		strh	r2, [r3]
 1188              		.loc 5 368 0
 1189 0012 039B     		ldr	r3, [sp, #12]
 1190 0014 002B     		cmp	r3, #0
 1191 0016 06D0     		beq	.L92
 1192              		.loc 5 368 0 is_stmt 0 discriminator 3
 1193 0018 029B     		ldr	r3, [sp, #8]
 1194 001a 1B68     		ldr	r3, [r3]
 1195 001c 002B     		cmp	r3, #0
 1196 001e 02D0     		beq	.L92
 1197              		.loc 5 368 0 discriminator 5
ARM GAS  /tmp/ccXYw7sd.s 			page 22


 1198 0020 019B     		ldr	r3, [sp, #4]
 1199 0022 002B     		cmp	r3, #0
 1200 0024 03D1     		bne	.L93
 1201              	.L92:
 1202              		.loc 5 368 0 discriminator 6
 1203 0026 1F4B     		ldr	r3, .L99
 1204 0028 1800     		movs	r0, r3
 1205 002a FFF7FEFF 		bl	chSysHalt
 1206              	.L93:
 1207              		.loc 5 370 0 is_stmt 1
 1208 002e FFF7FEFF 		bl	osalSysLock
 1209              		.loc 5 371 0
 1210 0032 039B     		ldr	r3, [sp, #12]
 1211 0034 1B78     		ldrb	r3, [r3]
 1212 0036 022B     		cmp	r3, #2
 1213 0038 03D0     		beq	.L98
 1214              		.loc 5 371 0 is_stmt 0 discriminator 2
 1215 003a 1A4B     		ldr	r3, .L99
 1216 003c 1800     		movs	r0, r3
 1217 003e FFF7FEFF 		bl	chSysHalt
 1218              	.L98:
 1219              		.loc 5 372 0 is_stmt 1 discriminator 1
 1220 0042 039B     		ldr	r3, [sp, #12]
 1221 0044 5B78     		ldrb	r3, [r3, #1]
 1222 0046 012B     		cmp	r3, #1
 1223 0048 03D1     		bne	.L95
 1224              		.loc 5 372 0 is_stmt 0 discriminator 2
 1225 004a 164B     		ldr	r3, .L99
 1226 004c 1800     		movs	r0, r3
 1227 004e FFF7FEFF 		bl	chSysHalt
 1228              	.L95:
 1229              		.loc 5 375 0 is_stmt 1
 1230 0052 039B     		ldr	r3, [sp, #12]
 1231 0054 0122     		movs	r2, #1
 1232 0056 1A72     		strb	r2, [r3, #8]
 1233              		.loc 5 376 0
 1234 0058 029B     		ldr	r3, [sp, #8]
 1235 005a 1968     		ldr	r1, [r3]
 1236 005c 019A     		ldr	r2, [sp, #4]
 1237 005e 039B     		ldr	r3, [sp, #12]
 1238 0060 1800     		movs	r0, r3
 1239 0062 FFF7FEFF 		bl	uart_lld_start_send
 1240              		.loc 5 377 0
 1241 0066 039B     		ldr	r3, [sp, #12]
 1242 0068 0122     		movs	r2, #1
 1243 006a 5A70     		strb	r2, [r3, #1]
 1244              		.loc 5 380 0
 1245 006c 039B     		ldr	r3, [sp, #12]
 1246 006e 1033     		adds	r3, r3, #16
 1247 0070 1A00     		movs	r2, r3
 1248 0072 6B46     		mov	r3, sp
 1249 0074 0233     		adds	r3, r3, #2
 1250 0076 1B88     		ldrh	r3, [r3]
 1251 0078 1900     		movs	r1, r3
 1252 007a 1000     		movs	r0, r2
 1253 007c FFF7FEFF 		bl	osalThreadSuspendTimeoutS
 1254 0080 0300     		movs	r3, r0
ARM GAS  /tmp/ccXYw7sd.s 			page 23


 1255 0082 0593     		str	r3, [sp, #20]
 1256              		.loc 5 381 0
 1257 0084 059B     		ldr	r3, [sp, #20]
 1258 0086 002B     		cmp	r3, #0
 1259 0088 06D0     		beq	.L96
 1260              		.loc 5 382 0
 1261 008a 039B     		ldr	r3, [sp, #12]
 1262 008c 1800     		movs	r0, r3
 1263 008e FFF7FEFF 		bl	uartStopSendI
 1264 0092 0200     		movs	r2, r0
 1265 0094 029B     		ldr	r3, [sp, #8]
 1266 0096 1A60     		str	r2, [r3]
 1267              	.L96:
 1268              		.loc 5 384 0
 1269 0098 FFF7FEFF 		bl	osalSysUnlock
 1270              		.loc 5 386 0
 1271 009c 059B     		ldr	r3, [sp, #20]
 1272              		.loc 5 387 0
 1273 009e 1800     		movs	r0, r3
 1274 00a0 07B0     		add	sp, sp, #28
 1275              		@ sp needed
 1276 00a2 00BD     		pop	{pc}
 1277              	.L100:
 1278              		.align	2
 1279              	.L99:
 1280 00a4 00000000 		.word	__func__.6388
 1281              		.cfi_endproc
 1282              	.LFE194:
 1283              		.size	uartSendTimeout, .-uartSendTimeout
 1284              		.section	.text.uartSendFullTimeout,"ax",%progbits
 1285              		.align	1
 1286              		.p2align 4,,15
 1287              		.global	uartSendFullTimeout
 1288              		.syntax unified
 1289              		.code	16
 1290              		.thumb_func
 1291              		.fpu softvfp
 1292              		.type	uartSendFullTimeout, %function
 1293              	uartSendFullTimeout:
 1294              	.LFB195:
 1295              		.loc 5 408 0
 1296              		.cfi_startproc
 1297              		@ args = 0, pretend = 0, frame = 24
 1298              		@ frame_needed = 0, uses_anonymous_args = 0
 1299 0000 00B5     		push	{lr}
 1300              		.cfi_def_cfa_offset 4
 1301              		.cfi_offset 14, -4
 1302 0002 87B0     		sub	sp, sp, #28
 1303              		.cfi_def_cfa_offset 32
 1304 0004 0390     		str	r0, [sp, #12]
 1305 0006 0291     		str	r1, [sp, #8]
 1306 0008 0192     		str	r2, [sp, #4]
 1307 000a 1A00     		movs	r2, r3
 1308 000c 6B46     		mov	r3, sp
 1309 000e 0233     		adds	r3, r3, #2
 1310 0010 1A80     		strh	r2, [r3]
 1311              		.loc 5 411 0
ARM GAS  /tmp/ccXYw7sd.s 			page 24


 1312 0012 039B     		ldr	r3, [sp, #12]
 1313 0014 002B     		cmp	r3, #0
 1314 0016 06D0     		beq	.L102
 1315              		.loc 5 411 0 is_stmt 0 discriminator 3
 1316 0018 029B     		ldr	r3, [sp, #8]
 1317 001a 1B68     		ldr	r3, [r3]
 1318 001c 002B     		cmp	r3, #0
 1319 001e 02D0     		beq	.L102
 1320              		.loc 5 411 0 discriminator 5
 1321 0020 019B     		ldr	r3, [sp, #4]
 1322 0022 002B     		cmp	r3, #0
 1323 0024 03D1     		bne	.L103
 1324              	.L102:
 1325              		.loc 5 411 0 discriminator 6
 1326 0026 1F4B     		ldr	r3, .L109
 1327 0028 1800     		movs	r0, r3
 1328 002a FFF7FEFF 		bl	chSysHalt
 1329              	.L103:
 1330              		.loc 5 413 0 is_stmt 1
 1331 002e FFF7FEFF 		bl	osalSysLock
 1332              		.loc 5 414 0
 1333 0032 039B     		ldr	r3, [sp, #12]
 1334 0034 1B78     		ldrb	r3, [r3]
 1335 0036 022B     		cmp	r3, #2
 1336 0038 03D0     		beq	.L108
 1337              		.loc 5 414 0 is_stmt 0 discriminator 2
 1338 003a 1A4B     		ldr	r3, .L109
 1339 003c 1800     		movs	r0, r3
 1340 003e FFF7FEFF 		bl	chSysHalt
 1341              	.L108:
 1342              		.loc 5 415 0 is_stmt 1 discriminator 1
 1343 0042 039B     		ldr	r3, [sp, #12]
 1344 0044 5B78     		ldrb	r3, [r3, #1]
 1345 0046 012B     		cmp	r3, #1
 1346 0048 03D1     		bne	.L105
 1347              		.loc 5 415 0 is_stmt 0 discriminator 2
 1348 004a 164B     		ldr	r3, .L109
 1349 004c 1800     		movs	r0, r3
 1350 004e FFF7FEFF 		bl	chSysHalt
 1351              	.L105:
 1352              		.loc 5 418 0 is_stmt 1
 1353 0052 039B     		ldr	r3, [sp, #12]
 1354 0054 0022     		movs	r2, #0
 1355 0056 1A72     		strb	r2, [r3, #8]
 1356              		.loc 5 419 0
 1357 0058 029B     		ldr	r3, [sp, #8]
 1358 005a 1968     		ldr	r1, [r3]
 1359 005c 019A     		ldr	r2, [sp, #4]
 1360 005e 039B     		ldr	r3, [sp, #12]
 1361 0060 1800     		movs	r0, r3
 1362 0062 FFF7FEFF 		bl	uart_lld_start_send
 1363              		.loc 5 420 0
 1364 0066 039B     		ldr	r3, [sp, #12]
 1365 0068 0122     		movs	r2, #1
 1366 006a 5A70     		strb	r2, [r3, #1]
 1367              		.loc 5 423 0
 1368 006c 039B     		ldr	r3, [sp, #12]
ARM GAS  /tmp/ccXYw7sd.s 			page 25


 1369 006e 1033     		adds	r3, r3, #16
 1370 0070 1A00     		movs	r2, r3
 1371 0072 6B46     		mov	r3, sp
 1372 0074 0233     		adds	r3, r3, #2
 1373 0076 1B88     		ldrh	r3, [r3]
 1374 0078 1900     		movs	r1, r3
 1375 007a 1000     		movs	r0, r2
 1376 007c FFF7FEFF 		bl	osalThreadSuspendTimeoutS
 1377 0080 0300     		movs	r3, r0
 1378 0082 0593     		str	r3, [sp, #20]
 1379              		.loc 5 424 0
 1380 0084 059B     		ldr	r3, [sp, #20]
 1381 0086 002B     		cmp	r3, #0
 1382 0088 06D0     		beq	.L106
 1383              		.loc 5 425 0
 1384 008a 039B     		ldr	r3, [sp, #12]
 1385 008c 1800     		movs	r0, r3
 1386 008e FFF7FEFF 		bl	uartStopSendI
 1387 0092 0200     		movs	r2, r0
 1388 0094 029B     		ldr	r3, [sp, #8]
 1389 0096 1A60     		str	r2, [r3]
 1390              	.L106:
 1391              		.loc 5 427 0
 1392 0098 FFF7FEFF 		bl	osalSysUnlock
 1393              		.loc 5 429 0
 1394 009c 059B     		ldr	r3, [sp, #20]
 1395              		.loc 5 430 0
 1396 009e 1800     		movs	r0, r3
 1397 00a0 07B0     		add	sp, sp, #28
 1398              		@ sp needed
 1399 00a2 00BD     		pop	{pc}
 1400              	.L110:
 1401              		.align	2
 1402              	.L109:
 1403 00a4 00000000 		.word	__func__.6396
 1404              		.cfi_endproc
 1405              	.LFE195:
 1406              		.size	uartSendFullTimeout, .-uartSendFullTimeout
 1407              		.section	.text.uartReceiveTimeout,"ax",%progbits
 1408              		.align	1
 1409              		.p2align 4,,15
 1410              		.global	uartReceiveTimeout
 1411              		.syntax unified
 1412              		.code	16
 1413              		.thumb_func
 1414              		.fpu softvfp
 1415              		.type	uartReceiveTimeout, %function
 1416              	uartReceiveTimeout:
 1417              	.LFB196:
 1418              		.loc 5 453 0
 1419              		.cfi_startproc
 1420              		@ args = 0, pretend = 0, frame = 24
 1421              		@ frame_needed = 0, uses_anonymous_args = 0
 1422 0000 00B5     		push	{lr}
 1423              		.cfi_def_cfa_offset 4
 1424              		.cfi_offset 14, -4
 1425 0002 87B0     		sub	sp, sp, #28
ARM GAS  /tmp/ccXYw7sd.s 			page 26


 1426              		.cfi_def_cfa_offset 32
 1427 0004 0390     		str	r0, [sp, #12]
 1428 0006 0291     		str	r1, [sp, #8]
 1429 0008 0192     		str	r2, [sp, #4]
 1430 000a 1A00     		movs	r2, r3
 1431 000c 6B46     		mov	r3, sp
 1432 000e 0233     		adds	r3, r3, #2
 1433 0010 1A80     		strh	r2, [r3]
 1434              		.loc 5 456 0
 1435 0012 039B     		ldr	r3, [sp, #12]
 1436 0014 002B     		cmp	r3, #0
 1437 0016 06D0     		beq	.L112
 1438              		.loc 5 456 0 is_stmt 0 discriminator 3
 1439 0018 029B     		ldr	r3, [sp, #8]
 1440 001a 1B68     		ldr	r3, [r3]
 1441 001c 002B     		cmp	r3, #0
 1442 001e 02D0     		beq	.L112
 1443              		.loc 5 456 0 discriminator 5
 1444 0020 019B     		ldr	r3, [sp, #4]
 1445 0022 002B     		cmp	r3, #0
 1446 0024 03D1     		bne	.L113
 1447              	.L112:
 1448              		.loc 5 456 0 discriminator 6
 1449 0026 1E4B     		ldr	r3, .L119
 1450 0028 1800     		movs	r0, r3
 1451 002a FFF7FEFF 		bl	chSysHalt
 1452              	.L113:
 1453              		.loc 5 458 0 is_stmt 1
 1454 002e FFF7FEFF 		bl	osalSysLock
 1455              		.loc 5 459 0
 1456 0032 039B     		ldr	r3, [sp, #12]
 1457 0034 1B78     		ldrb	r3, [r3]
 1458 0036 022B     		cmp	r3, #2
 1459 0038 03D0     		beq	.L118
 1460              		.loc 5 459 0 is_stmt 0 discriminator 2
 1461 003a 194B     		ldr	r3, .L119
 1462 003c 1800     		movs	r0, r3
 1463 003e FFF7FEFF 		bl	chSysHalt
 1464              	.L118:
 1465              		.loc 5 460 0 is_stmt 1 discriminator 1
 1466 0042 039B     		ldr	r3, [sp, #12]
 1467 0044 9B78     		ldrb	r3, [r3, #2]
 1468 0046 012B     		cmp	r3, #1
 1469 0048 03D1     		bne	.L115
 1470              		.loc 5 460 0 is_stmt 0 discriminator 2
 1471 004a 154B     		ldr	r3, .L119
 1472 004c 1800     		movs	r0, r3
 1473 004e FFF7FEFF 		bl	chSysHalt
 1474              	.L115:
 1475              		.loc 5 463 0 is_stmt 1
 1476 0052 029B     		ldr	r3, [sp, #8]
 1477 0054 1968     		ldr	r1, [r3]
 1478 0056 019A     		ldr	r2, [sp, #4]
 1479 0058 039B     		ldr	r3, [sp, #12]
 1480 005a 1800     		movs	r0, r3
 1481 005c FFF7FEFF 		bl	uart_lld_start_receive
 1482              		.loc 5 464 0
ARM GAS  /tmp/ccXYw7sd.s 			page 27


 1483 0060 039B     		ldr	r3, [sp, #12]
 1484 0062 0122     		movs	r2, #1
 1485 0064 9A70     		strb	r2, [r3, #2]
 1486              		.loc 5 467 0
 1487 0066 039B     		ldr	r3, [sp, #12]
 1488 0068 0C33     		adds	r3, r3, #12
 1489 006a 1A00     		movs	r2, r3
 1490 006c 6B46     		mov	r3, sp
 1491 006e 0233     		adds	r3, r3, #2
 1492 0070 1B88     		ldrh	r3, [r3]
 1493 0072 1900     		movs	r1, r3
 1494 0074 1000     		movs	r0, r2
 1495 0076 FFF7FEFF 		bl	osalThreadSuspendTimeoutS
 1496 007a 0300     		movs	r3, r0
 1497 007c 0593     		str	r3, [sp, #20]
 1498              		.loc 5 468 0
 1499 007e 059B     		ldr	r3, [sp, #20]
 1500 0080 002B     		cmp	r3, #0
 1501 0082 06D0     		beq	.L116
 1502              		.loc 5 469 0
 1503 0084 039B     		ldr	r3, [sp, #12]
 1504 0086 1800     		movs	r0, r3
 1505 0088 FFF7FEFF 		bl	uartStopReceiveI
 1506 008c 0200     		movs	r2, r0
 1507 008e 029B     		ldr	r3, [sp, #8]
 1508 0090 1A60     		str	r2, [r3]
 1509              	.L116:
 1510              		.loc 5 471 0
 1511 0092 FFF7FEFF 		bl	osalSysUnlock
 1512              		.loc 5 473 0
 1513 0096 059B     		ldr	r3, [sp, #20]
 1514              		.loc 5 474 0
 1515 0098 1800     		movs	r0, r3
 1516 009a 07B0     		add	sp, sp, #28
 1517              		@ sp needed
 1518 009c 00BD     		pop	{pc}
 1519              	.L120:
 1520 009e C046     		.align	2
 1521              	.L119:
 1522 00a0 00000000 		.word	__func__.6404
 1523              		.cfi_endproc
 1524              	.LFE196:
 1525              		.size	uartReceiveTimeout, .-uartReceiveTimeout
 1526              		.section	.rodata.__func__.6332,"a",%progbits
 1527              		.align	2
 1528              		.type	__func__.6332, %object
 1529              		.size	__func__.6332, 10
 1530              	__func__.6332:
 1531 0000 75617274 		.ascii	"uartStart\000"
 1531      53746172 
 1531      7400
 1532              		.section	.rodata.__func__.4993,"a",%progbits
 1533              		.align	2
 1534              		.type	__func__.4993, %object
 1535              		.size	__func__.4993, 12
 1536              	__func__.4993:
 1537 0000 63685379 		.ascii	"chSysUnlock\000"
ARM GAS  /tmp/ccXYw7sd.s 			page 28


 1537      73556E6C 
 1537      6F636B00 
 1538              		.section	.rodata.__func__.6336,"a",%progbits
 1539              		.align	2
 1540              		.type	__func__.6336, %object
 1541              		.size	__func__.6336, 9
 1542              	__func__.6336:
 1543 0000 75617274 		.ascii	"uartStop\000"
 1543      53746F70 
 1543      00
 1544              		.section	.rodata.__func__.6342,"a",%progbits
 1545              		.align	2
 1546              		.type	__func__.6342, %object
 1547              		.size	__func__.6342, 14
 1548              	__func__.6342:
 1549 0000 75617274 		.ascii	"uartStartSend\000"
 1549      53746172 
 1549      7453656E 
 1549      6400
 1550              		.section	.rodata.__func__.6348,"a",%progbits
 1551              		.align	2
 1552              		.type	__func__.6348, %object
 1553              		.size	__func__.6348, 15
 1554              	__func__.6348:
 1555 0000 75617274 		.ascii	"uartStartSendI\000"
 1555      53746172 
 1555      7453656E 
 1555      644900
 1556              		.section	.rodata.__func__.6353,"a",%progbits
 1557              		.align	2
 1558              		.type	__func__.6353, %object
 1559              		.size	__func__.6353, 13
 1560              	__func__.6353:
 1561 0000 75617274 		.ascii	"uartStopSend\000"
 1561      53746F70 
 1561      53656E64 
 1561      00
 1562              		.section	.rodata.__func__.6357,"a",%progbits
 1563              		.align	2
 1564              		.type	__func__.6357, %object
 1565              		.size	__func__.6357, 14
 1566              	__func__.6357:
 1567 0000 75617274 		.ascii	"uartStopSendI\000"
 1567      53746F70 
 1567      53656E64 
 1567      4900
 1568              		.section	.rodata.__func__.6364,"a",%progbits
 1569              		.align	2
 1570              		.type	__func__.6364, %object
 1571              		.size	__func__.6364, 17
 1572              	__func__.6364:
 1573 0000 75617274 		.ascii	"uartStartReceive\000"
 1573      53746172 
 1573      74526563 
 1573      65697665 
 1573      00
 1574              		.section	.rodata.__func__.6370,"a",%progbits
ARM GAS  /tmp/ccXYw7sd.s 			page 29


 1575              		.align	2
 1576              		.type	__func__.6370, %object
 1577              		.size	__func__.6370, 18
 1578              	__func__.6370:
 1579 0000 75617274 		.ascii	"uartStartReceiveI\000"
 1579      53746172 
 1579      74526563 
 1579      65697665 
 1579      4900
 1580              		.section	.rodata.__func__.6375,"a",%progbits
 1581              		.align	2
 1582              		.type	__func__.6375, %object
 1583              		.size	__func__.6375, 16
 1584              	__func__.6375:
 1585 0000 75617274 		.ascii	"uartStopReceive\000"
 1585      53746F70 
 1585      52656365 
 1585      69766500 
 1586              		.section	.rodata.__func__.6379,"a",%progbits
 1587              		.align	2
 1588              		.type	__func__.6379, %object
 1589              		.size	__func__.6379, 17
 1590              	__func__.6379:
 1591 0000 75617274 		.ascii	"uartStopReceiveI\000"
 1591      53746F70 
 1591      52656365 
 1591      69766549 
 1591      00
 1592              		.section	.rodata.__func__.6388,"a",%progbits
 1593              		.align	2
 1594              		.type	__func__.6388, %object
 1595              		.size	__func__.6388, 16
 1596              	__func__.6388:
 1597 0000 75617274 		.ascii	"uartSendTimeout\000"
 1597      53656E64 
 1597      54696D65 
 1597      6F757400 
 1598              		.section	.rodata.__func__.6396,"a",%progbits
 1599              		.align	2
 1600              		.type	__func__.6396, %object
 1601              		.size	__func__.6396, 20
 1602              	__func__.6396:
 1603 0000 75617274 		.ascii	"uartSendFullTimeout\000"
 1603      53656E64 
 1603      46756C6C 
 1603      54696D65 
 1603      6F757400 
 1604              		.section	.rodata.__func__.6404,"a",%progbits
 1605              		.align	2
 1606              		.type	__func__.6404, %object
 1607              		.size	__func__.6404, 19
 1608              	__func__.6404:
 1609 0000 75617274 		.ascii	"uartReceiveTimeout\000"
 1609      52656365 
 1609      69766554 
 1609      696D656F 
 1609      757400
ARM GAS  /tmp/ccXYw7sd.s 			page 30


 1610              		.text
 1611              	.Letext0:
 1612              		.file 6 "/home/felix/opt/gcc-arm-none-eabi-6-2017-q1-update/lib/gcc/arm-none-eabi/6.3.1/include/st
 1613              		.file 7 "/home/felix/opt/gcc-arm-none-eabi-6-2017-q1-update/arm-none-eabi/include/machine/_default
 1614              		.file 8 "/home/felix/opt/gcc-arm-none-eabi-6-2017-q1-update/arm-none-eabi/include/sys/_stdint.h"
 1615              		.file 9 "ChibiOS/os/rt/ports/ARMCMx/compilers/GCC/chtypes.h"
 1616              		.file 10 "ChibiOS/os/rt/include/chsystypes.h"
 1617              		.file 11 "ChibiOS/os/rt/include/chschd.h"
 1618              		.file 12 "ChibiOS/os/ext/CMSIS/ST/STM32F0xx/stm32f030xc.h"
 1619              		.file 13 "ChibiOS/os/rt/ports/ARMCMx/chcore.h"
 1620              		.file 14 "ChibiOS/os/rt/include/chdebug.h"
 1621              		.file 15 "ChibiOS/os/rt/include/chsem.h"
 1622              		.file 16 "ChibiOS/os/rt/include/chmtx.h"
 1623              		.file 17 "ChibiOS/os/rt/include/chregistry.h"
 1624              		.file 18 "ChibiOS/os/ext/CMSIS/ST/STM32F0xx/system_stm32f0xx.h"
 1625              		.file 19 "ChibiOS/os/rt/include/chevents.h"
 1626              		.file 20 "ChibiOS/os/rt/include/chqueues.h"
 1627              		.file 21 "ChibiOS/os/hal/ports/STM32/LLD/DMAv1/stm32_dma.h"
 1628              		.file 22 "ChibiOS/os/hal/ports/STM32/LLD/GPIOv2/pal_lld.h"
 1629              		.file 23 "ChibiOS/os/hal/include/serial.h"
 1630              		.file 24 "ChibiOS/os/hal/ports/STM32/LLD/USARTv2/serial_lld.h"
 1631              		.file 25 "ChibiOS/os/hal/include/uart.h"
 1632              		.file 26 "ChibiOS/os/hal/ports/STM32/LLD/USARTv2/uart_lld.h"